MODULE windows x86 9889519E92577BB3D1EB4E696EF4C5901 daemon-tty.exe
FUNC 1000 2 0 __mingw_invalidParameterHandler
FUNC 1010 11e 0 pre_c_init
FUNC 1130 3e 0 pre_cpp_init
FUNC 1170 364 0 __tmainCRTStartup
FUNC 14e0 1a 0 WinMainCRTStartup
FUNC 1500 1a 0 mainCRTStartup
FUNC 1550 2 0 __tcf_4
FUNC 1560 22 0 __tcf_3
FUNC 1590 a 0 __tcf_0
FUNC 15a0 a2 0 std::__cxx11::basic_string<char, std::char_traits<char>, std::allocator<char> >::_M_construct<char const*>
FUNC 1650 25 0 std::__detail::_Hashtable_alloc<std::allocator<std::__detail::_Hash_node<std::pair<const std::__cxx11::basic_string<char, std::char_traits<char>, std::allocator<char> >, proxyInfo_t>, true> > >::_M_deallocate_node
FUNC 1680 6b 0 __tcf_1
FUNC 16f0 15c 0 EscapeString
FUNC 1850 78 0 __tcf_2
FUNC 18d0 5 0 Cmd_SaveCmdContext
FUNC 18e0 5 0 Cmd_RestoreCmdContext
FUNC 18f0 12 0 Cmd_Argc
FUNC 1910 68 0 Cmd_Argv
FUNC 1980 e1 0 Cmd_ArgsFrom
FUNC 1a70 13 0 Cmd_Args
FUNC 1a90 9 0 Cmd_QuoteString
FUNC 1aa0 2c 0 Cmd_QuoteStringBuffer
FUNC 1ad0 18d 0 Cmd_UnquoteString
FUNC 1c60 10a 0 Cmd_TokenizeString
FUNC 1d70 125e 0 Cmd_PrintUsage
FUNC 2fd0 244 0 Cmd_OnCompleteMatch
FUNC 3220 2b5 0 Cmd_RemoveCommand
FUNC 34e0 241 0 Cmd_AddCommand
FUNC 3730 d9 0 Cmd_SetCommandCompletionFunc
FUNC 3810 e 0 SetCheatMode
FUNC 3820 5 0 Com_In_Restart_f
FUNC 3830 35 0 Com_Error_f
FUNC 3870 c 0 Com_Crash_f
FUNC 3880 a 0 __tcf_0
FUNC 3890 a2 0 std::__cxx11::basic_string<char, std::char_traits<char>, std::allocator<char> >::_M_construct<char const*>
FUNC 3940 2b 0 __tcf_3
FUNC 3970 57 0 __tcf_8
FUNC 39d0 6b 0 __tcf_9
FUNC 3a40 57 0 __tcf_1
FUNC 3aa0 57 0 __tcf_4
FUNC 3b00 57 0 __tcf_7
FUNC 3b60 57 0 __tcf_5
FUNC 3bc0 57 0 __tcf_6
FUNC 3c20 57 0 __tcf_10
FUNC 3c80 b1 0 __tcf_2
FUNC 3d40 5b 0 Com_ParseCommandLine
FUNC 3da0 298 0 Com_StartupVariable
FUNC 4040 8 0 Com_AreCheatsAllowed
FUNC 4050 7d 0 Com_IsClient
FUNC 40d0 f 0 Com_IsDedicatedServer
FUNC 40e0 e 0 Com_ServerRunning
FUNC 40f0 16 0 Com_Allocate_Aligned
FUNC 4110 6 0 Com_Free_Aligned
FUNC 4120 15 0 Hunk_SetMark
FUNC 4140 1f 0 Hunk_ClearToMark
FUNC 4160 1e4 0 Hunk_Clear
FUNC 4350 140 0 Hunk_Alloc
FUNC 4490 e4 0 Hunk_AllocateTempMemory
FUNC 4580 5 0 Com_Milliseconds
FUNC 4590 2b 0 Com_Shutdown
FUNC 45c0 ae 0 Hunk_FreeTempMemory
FUNC 4670 8a 0 Com_QueueEvent
FUNC 4700 3c1 0 Com_GetEvent
FUNC 4ad0 da 0 Com_SetRecommended
FUNC 4bb0 94 0 Com_Freeze_f
FUNC 4c50 c2 0 Com_InitHunkMemory
FUNC 4d20 392 0 Com_Init
FUNC 50c0 181 0 Info_Print
FUNC 5250 388 0 Com_Meminfo_f
FUNC 55e0 89 0 Com_WriteConfigToFile
FUNC 5670 35 0 Com_WriteConfiguration
FUNC 56b0 12 0 Com_WriteConfiguration
FUNC 56d0 a1 0 Com_WriteConfig_f
FUNC 5780 c4 0 Com_RunAndTimeServerPacket
FUNC 5850 1721 0 Com_EventLoop
FUNC 6f80 e3 0 Com_ModifyMsec
FUNC 7070 73e 0 Com_Frame
FUNC 77b0 a 0 __tcf_0
FUNC 77c0 d 0 qnettle_random
FUNC 77d0 a 0 __tcf_0
FUNC 77e0 16e 0 Cvar_FindVar
FUNC 7950 27 0 Cvar_VariableValue
FUNC 7980 1b 0 Cvar_VariableIntegerValue
FUNC 79a0 1e 0 Cvar_VariableString
FUNC 79c0 3c 0 Cvar_VariableStringBuffer
FUNC 7a00 2d3 0 Cvar_Get
FUNC 7ce0 19e 0 Cvar_Reset
FUNC 7e80 269 0 Cvar_Set
FUNC 80f0 62 0 Cvar_SetValue
FUNC 8160 c4 0 Cvar_WriteVariables
FUNC 8230 e 0 Cvar_InfoString
FUNC 8240 2 0 __tcf_6
FUNC 8250 a 0 __tcf_0
FUNC 8260 17 0 FS_AllocHandle
FUNC 8280 64 0 FS_CheckHandle
FUNC 82f0 a2 0 std::__cxx11::basic_string<char, std::char_traits<char>, std::allocator<char> >::_M_construct<char const*>
FUNC 83c0 9a 0 __tcf_3
FUNC 8460 7b 0 __tcf_4
FUNC 84e0 57 0 __tcf_5
FUNC 8540 6b 0 __tcf_2
FUNC 85b0 6b 0 __tcf_1
FUNC 8620 39 0 FS_FileExists
FUNC 8660 40 0 FS_FTell
FUNC 86a0 23 0 FS_ForceFlush
FUNC 86d0 12 0 FS_FreeFile
FUNC 86f0 3a 0 FS_FreeFileList
FUNC 8730 598 0 FS_GetFileList
FUNC 8cd0 598 0 FS_GetFileListRecursive
FUNC 9270 19a 0 FS_LoadedPaks
FUNC 9410 30a 0 FS_LoadAllMapMetadata
FUNC 9720 164 0 FS_filelength
FUNC 9890 23e 0 FS_Seek
FUNC 9ad0 fe 0 FS_Flush
FUNC 9bd0 147 0 FS_Write
FUNC 9d20 8b 0 FS_Printf
FUNC 9db0 19f 0 FS_Read
FUNC 9f50 129 0 FS_Rename
FUNC a080 5 0 FS_SV_Rename
FUNC a090 5c5 0 FS_ListFiles
FUNC a660 64a 0 FS_ComparePaks
FUNC acb0 d0 0 Cmd::CmdBase::Print<const std::__cxx11::basic_string<char, std::char_traits<char>, std::allocator<char> >&>
FUNC ad80 3dd 0 FS_FOpenFileRead
FUNC b160 249 0 FS_SV_FOpenFileRead
FUNC b3b0 58c 0 FS_FOpenFileWrite_internal
FUNC b940 b 0 FS_FOpenFileWrite
FUNC b960 e 0 FS_FOpenFileWriteViaTemporary
FUNC b970 19f 0 FS_FOpenFileAppend
FUNC bb10 346 0 FS_Game_FOpenFileByMode
FUNC be60 102 0 FS_Delete
FUNC bf70 199 0 FS_WriteFile
FUNC c110 126 0 FS_LoadPak
FUNC c240 2c7 0 FS_LoadBasePak
FUNC c510 633 0 FS_LoadServerPaks
FUNC cb50 3aa 0 FS_FCloseFile
FUNC cf00 88 0 FS_ReadFile
FUNC cf90 5d 0 swaplist
FUNC cff0 154 0 increment
FUNC d150 a 0 __tcf_0
FUNC d160 80 0 send
FUNC d1e0 45 0 Huff_putBit
FUNC d230 2b 0 Huff_getBit
FUNC d260 252 0 Huff_addRef
FUNC d4c0 6f 0 Huff_Receive
FUNC d530 80 0 Huff_offsetReceive
FUNC d5b0 a6 0 Huff_transmit
FUNC d660 39 0 Huff_offsetTransmit
FUNC d6a0 215 0 Huff_Decompress
FUNC d8c0 132 0 Huff_Compress
FUNC da00 12e 0 Huff_Init
FUNC db30 36 0 qsort_entitystatefields
FUNC db70 36 0 qsort_playerstatefields
FUNC dbb0 a 0 __tcf_0
FUNC dbc0 a2 0 std::__cxx11::basic_string<char, std::char_traits<char>, std::allocator<char> >::_M_construct<char const*>
FUNC dc70 17 0 MSG_Clear
FUNC dc90 9 0 MSG_Bitstream
FUNC dca0 15 0 MSG_Uncompressed
FUNC dcc0 17 0 MSG_BeginReading
FUNC dce0 17 0 MSG_BeginReadingOOB
FUNC dd10 7f 0 MSG_Copy
FUNC dd90 19b 0 MSG_WriteBits
FUNC df30 19e 0 MSG_ReadBits
FUNC e0d0 23 0 MSG_WriteChar
FUNC e110 45 0 MSG_WriteData
FUNC e160 23 0 MSG_WriteShort
FUNC e190 23 0 MSG_WriteLong
FUNC e1c0 23 0 MSG_WriteFloat
FUNC e1f0 34 0 MSG_WriteAngle
FUNC e230 34 0 MSG_WriteAngle16
FUNC e270 2e 0 MSG_ReadChar
FUNC e2a0 2e 0 MSG_ReadByte
FUNC e2d0 2c 0 MSG_ReadShort
FUNC e300 2b 0 MSG_ReadLong
FUNC e330 41 0 MSG_ReadFloat
FUNC e380 57 0 MSG_ReadString
FUNC e3e0 57 0 MSG_ReadBigString
FUNC e440 5f 0 MSG_ReadStringLine
FUNC e4a0 4c 0 MSG_ReadAngle16
FUNC e4f0 4b 0 MSG_ReadData
FUNC e540 59 0 MSG_HashKey
FUNC e5a0 6b 0 MSG_WriteDelta
FUNC e610 43 0 MSG_ReadDelta
FUNC e660 79 0 MSG_WriteDeltaFloat
FUNC e6e0 39 0 MSG_ReadDeltaFloat
FUNC e720 6c 0 MSG_WriteDeltaKey
FUNC e790 4a 0 MSG_ReadDeltaKey
FUNC e7e0 7c 0 MSG_WriteDeltaKeyFloat
FUNC e860 3d 0 MSG_ReadDeltaKeyFloat
FUNC e8a0 25b 0 MSG_WriteDeltaUsercmd
FUNC eb00 201 0 MSG_ReadDeltaUsercmd
FUNC ed10 72 0 MSG_initHuffman
FUNC ed90 56 0 MSG_Init
FUNC edf0 5a 0 MSG_InitOOB
FUNC ee50 be 0 MSG_WriteString
FUNC ef10 be 0 MSG_WriteBigString
FUNC efd0 e0 0 MSG_PrioritiseEntitystateFields
FUNC f0b0 e0 0 MSG_PrioritisePlayerStateFields
FUNC f190 32b 0 MSG_WriteDeltaEntity
FUNC f4c0 426 0 MSG_ReadDeltaEntity
FUNC f8f0 58b 0 MSG_WriteDeltaPlayerstate
FUNC fe80 561 0 MSG_ReadDeltaPlayerstate
FUNC 103f0 f6 0 NET_QueuePacket
FUNC 104f0 a 0 __tcf_0
FUNC 10500 a2 0 std::__cxx11::basic_string<char, std::char_traits<char>, std::allocator<char> >::_M_construct<char const*>
FUNC 105b0 7b 0 Netchan_Init
FUNC 10630 7f 0 Netchan_Setup
FUNC 106b0 d0 0 NET_GetLoopPacket
FUNC 10780 57 0 NET_SendLoopPacket
FUNC 107e0 b2 0 NET_FlushPacketQueue
FUNC 108a0 1ec 0 NET_StringToAdr
FUNC 10a90 537 0 Netchan_Process
FUNC 10fd0 1af 0 NET_SendPacket
FUNC 11180 1bc 0 Netchan_TransmitNextFragment
FUNC 11340 1c6 0 Netchan_Transmit
FUNC 11510 a 0 __tcf_0
FUNC 11520 31 0 SockadrToNetadr
FUNC 11560 a2 0 std::__cxx11::basic_string<char, std::char_traits<char>, std::allocator<char> >::_M_construct<char const*>
FUNC 11610 10a 0 NET_AddLocalAddress
FUNC 11720 42a 0 NET_ErrorString
FUNC 11b50 127 0 NetadrToSockadr
FUNC 11c80 63 0 Sys_SockaddrToString
FUNC 11cf0 da 0 NET_AdrToString
FUNC 11dd0 1f1 0 NET_AdrToStringwPort
FUNC 11fd0 9 0 NET_IsLocalAddress
FUNC 11fe0 121 0 Sys_IsLANAddress
FUNC 12110 72 0 NET_LeaveMulticast6
FUNC 12190 7e 0 NET_GeoIP_Country
FUNC 12210 e8 0 NET_Sleep
FUNC 12300 1e1 0 NET_CompareBaseAdrMask
FUNC 124f0 c1 0 NET_CompareBaseAdr
FUNC 125c0 10a 0 NET_CompareAdr
FUNC 126d0 b2 0 Sys_ShowIP
FUNC 12790 1a2 0 NET_GetLocalAddress
FUNC 12940 2be 0 Sys_StringToSockaddr
FUNC 12c00 a2 0 Sys_StringToAdr
FUNC 12cb0 ce 0 NET_SetMulticast6
FUNC 12d80 336 0 Sys_SendPacket
FUNC 130c0 446 0 Sys_GetPacket
FUNC 13510 32b 0 NET_IPSocket
FUNC 13840 44e 0 NET_IP6Socket
FUNC 13c90 219 0 NET_JoinMulticast6
FUNC 13eb0 5ad 0 NET_OpenSocks
FUNC 14460 666 0 NET_Config
FUNC 14ad0 63 0 NET_Shutdown
FUNC 14b40 13 0 NET_Restart_f
FUNC 14b60 2ea 0 NET_Init
FUNC 14e50 46 0 Parse_AddDefineToHash
FUNC 14ea0 66 0 Parse_FindHashedDefine
FUNC 14f10 5f 0 Parse_PopIndent
FUNC 14f70 25 0 Parse_FreeScript
FUNC 14fa0 5b 0 Parse_FreeDefine
FUNC 15000 4a 0 Parse_PushIndent
FUNC 15050 44 0 Parse_StripDoubleQuotes
FUNC 150a0 61 0 Parse_ConvertPath
FUNC 15110 a 0 __tcf_0
FUNC 15120 ec 0 Parse_ReadWhiteSpace
FUNC 15210 53 0 Parse_CopyToken
FUNC 15270 81 0 Parse_UnreadSignToken
FUNC 15300 a2 0 std::__cxx11::basic_string<char, std::char_traits<char>, std::allocator<char> >::_M_construct<char const*>
FUNC 153b0 108 0 Parse_CreatePunctuationTable
FUNC 154c0 c0 0 Parse_LoadScriptMemory
FUNC 15580 fb 0 Parse_LoadScriptFile
FUNC 15680 1fd 0 Parse_LoadSourceHandle
FUNC 15880 ee 0 Parse_FreeSourceHandle
FUNC 15970 68 0 Parse_SourceFileAndLine
FUNC 159e0 6c 0 Parse_SourceError
FUNC 15a50 bb0 0 Parse_EvaluateTokens
FUNC 16600 1d 0 Parse_Directive_line
FUNC 16620 6e 0 Parse_PushScript
FUNC 16690 4d 0 Parse_Directive_endif
FUNC 166e0 7d 0 Parse_Directive_else
FUNC 16760 7a 0 Parse_ScriptError
FUNC 167e0 77 0 Parse_ScriptWarning
FUNC 16860 321 0 Parse_ReadString
FUNC 16b90 b12 0 Parse_ReadSourceToken
FUNC 176b0 80 0 Parse_ReadLine
FUNC 17730 3c 0 Parse_Directive_pragma
FUNC 17770 17b 0 Parse_Directive_undef
FUNC 178f0 19 0 Parse_Directive_undef
FUNC 17910 c1 0 Parse_Directive_if_def
FUNC 179e0 e 0 Parse_Directive_ifndef
FUNC 179f0 e 0 Parse_Directive_ifdef
FUNC 17a00 40 0 Parse_Directive_error
FUNC 17a40 1d0 0 Parse_Directive_include
FUNC 17c10 19 0 Parse_Directive_include
FUNC 17c30 8db 0 Parse_ExpandDefine
FUNC 18510 4e 0 Parse_ExpandDefineIntoSource
FUNC 18560 3a8 0 Parse_DollarEvaluate
FUNC 18910 121 0 Parse_DollarDirective_evalfloat
FUNC 18a40 fb 0 Parse_DollarDirective_evalint
FUNC 18b40 33c 0 Parse_Evaluate
FUNC 18e80 db 0 Parse_Directive_evalfloat
FUNC 18f60 df 0 Parse_Directive_eval
FUNC 19040 82 0 Parse_Directive_elif
FUNC 190d0 41 0 Parse_Directive_if
FUNC 19120 6e7 0 Parse_ReadToken
FUNC 19810 a4 0 Parse_ReadTokenHandle
FUNC 198c0 4cf 0 Parse_Directive_define
FUNC 19d90 19 0 Parse_Directive_define
FUNC 19db0 12e 0 Parse_DefineFromString
FUNC 19ee0 8a 0 Parse_AddGlobalDefine
FUNC 19f70 2a 0 __tcf_2
FUNC 19fa0 a 0 __tcf_4
FUNC 19fb0 a 0 __tcf_3
FUNC 19fc0 a 0 __tcf_0
FUNC 19fd0 4b 0 __tcf_1
FUNC 1a020 a2 0 std::__cxx11::basic_string<char, std::char_traits<char>, std::allocator<char> >::_M_construct<char const*>
FUNC 1a0d0 1e2 0 Trans_Gettext_Internal
FUNC 1a2c0 27c 0 Trans_Pgettext_Internal
FUNC 1a540 29c 0 Trans_GettextPlural_Internal
FUNC 1a7e0 1b 0 Trans_Gettext
FUNC 1a800 23 0 Trans_Pgettext
FUNC 1a830 2b 0 Trans_GettextPlural
FUNC 1a860 1b 0 Trans_GettextGame
FUNC 1a880 23 0 Trans_PgettextGame
FUNC 1a8b0 2b 0 Trans_GettextGamePlural
FUNC 1a8e0 35 0 Trans_Error
FUNC 1a920 45 0 Trans_Warning
FUNC 1a970 3b 0 Trans_Info
FUNC 1a9b0 3fc 0 Trans_SetLanguage
FUNC 1adb0 17 0 Trans_UpdateLanguage_f
FUNC 1add0 ae 0 Trans_LoadDefaultLanguage
FUNC 1ae80 641 0 Trans_Init
FUNC 1b4d0 a 0 __tcf_0
FUNC 1b4e0 23 0 rVec::rVec
FUNC 1b510 23 0 rVec::rVec
FUNC 1b540 23 0 rVec::rVec
FUNC 1b570 23 0 qVec::qVec
FUNC 1b5a0 23 0 qVec::qVec
FUNC 1b5d0 23 0 qVec::qVec
FUNC 1b600 8d 0 rBounds::rBounds
FUNC 1b690 2c 0 rBounds::rBounds
FUNC 1b6c0 55 0 rBounds::addPoint
FUNC 1b720 2e 0 rBounds::clear
FUNC 1b750 5b 0 botRouteTargetInternal::botRouteTargetInternal
FUNC 1b7b0 2 0 __tcf_1
FUNC 1b7c0 a 0 __tcf_0
FUNC 1b7d0 a2 0 std::__cxx11::basic_string<char, std::char_traits<char>, std::allocator<char> >::_M_construct<char const*>
FUNC 1b8a0 228 0 BotSaveOffMeshConnections
FUNC 1bad0 1a3 0 BotLoadOffMeshConnections
FUNC 1bc80 c8 0 BotShutdownNav
FUNC 1bd50 4db 0 BotLoadNavMesh
FUNC 1c230 26e 0 BotSetupNav
FUNC 1c4a0 a 0 __tcf_0
FUNC 1c4b0 14e 0 BotCalcSteerDir
FUNC 1c600 96 0 PointInPolyExtents
FUNC 1c6a0 6c 0 PointInPoly
FUNC 1c710 e4 0 BotFindNearestPoly
FUNC 1c800 291 0 FindRoute
FUNC 1caa0 7c 0 FindWaypoints
FUNC 1cb20 26 0 frand
FUNC 1cb50 a 0 __tcf_0
FUNC 1cb60 2b 0 __tcf_1
FUNC 1cb90 286 0 BotSetPolyFlags
FUNC 1ce20 94 0 BotDisableArea
FUNC 1cec0 94 0 BotEnableArea
FUNC 1cf60 1d0 0 BotSetNavMesh
FUNC 1d130 62 0 GetEntPosition
FUNC 1d1a0 3f 0 GetEntPosition
FUNC 1d1e0 a3 0 BotFindRouteExt
FUNC 1d290 f6 0 UpdatePathCorridor
FUNC 1d390 887 0 BotUpdateCorridor
FUNC 1dc20 118 0 BotFindRandomPointInRadius
FUNC 1dd40 6d 0 BotFindRandomPoint
FUNC 1ddb0 1ea 0 BotNavTrace
FUNC 1dfa0 155 0 BotAddObstacle
FUNC 1e100 4c 0 BotRemoveObstacle
FUNC 1e150 52 0 BotUpdateObstacles
FUNC 1e1b0 a 0 __tcf_0
FUNC 1e1c0 ad 0 SV_BotAllocateClient
FUNC 1e270 4b 0 SV_BotFreeClient
FUNC 1e2c0 18 0 SV_IsBot
FUNC 1e2e0 47 0 SV_BotGetConsoleMessage
FUNC 1e330 b 0 SV_Heartbeat_f
FUNC 1e340 2 0 __tcf_1
FUNC 1e350 10 0 SV_FieldInfo_f
FUNC 1e360 a 0 __tcf_0
FUNC 1e370 a2 0 std::__cxx11::basic_string<char, std::char_traits<char>, std::allocator<char> >::_M_construct<char const*>
FUNC 1e440 7b 0 SV_AddOperatorCommands
FUNC 1e4c0 4f 0 SV_RemoveOperatorCommands
FUNC 1e510 23 0 SV_Systeminfo_f
FUNC 1e540 55 0 SV_Systeminfo_f
FUNC 1e5a0 55 0 SV_Serverinfo_f
FUNC 1e600 505 0 SV_MapRestart_f
FUNC 1eb10 22 0 __tcf_0
FUNC 1eb40 a 0 __tcf_1
FUNC 1eb50 4b 0 __tcf_2
FUNC 1eba0 a2 0 std::__cxx11::basic_string<char, std::char_traits<char>, std::allocator<char> >::_M_construct<char const*>
FUNC 1ec50 aa 0 SV_CloseDownload
FUNC 1ed00 8c 0 SV_BeginDownload_f
FUNC 1ed90 1b 0 SV_FreeClient
FUNC 1edb0 48 0 SV_BadDownload
FUNC 1ee00 2b8 0 SV_UserinfoChanged
FUNC 1f0c0 70 0 SV_UpdateUserinfo_f
FUNC 1f130 73 0 SV_ClientThink
FUNC 1f1b0 171 0 SV_GetChallenge
FUNC 1f330 327 0 SV_ExecuteClientCommand
FUNC 1f660 15f 0 SV_DropClient
FUNC 1f7c0 14 0 SV_DropClient
FUNC 1f7e0 15 0 SV_Disconnect_f
FUNC 1f800 24c 0 SV_ClientCommand
FUNC 1fa50 cb 0 SV_ClientEnterWorld
FUNC 1fb20 1e7 0 SV_UserMove
FUNC 1fd10 1e31 0 SV_DirectConnect
FUNC 21b50 212 0 SV_SendClientGameState
FUNC 21d70 45 0 SV_DoneDownload_f
FUNC 21dc0 27b 0 SV_ExecuteClientMessage
FUNC 22040 236 0 SV_WWWDownload_f
FUNC 22280 64 0 SV_StopDownload_f
FUNC 222f0 142 0 SV_NextDownload_f
FUNC 22440 1100 0 SV_WriteDownloadToClient
FUNC 23540 a 0 __tcf_0
FUNC 23550 a2 0 std::__cxx11::basic_string<char, std::char_traits<char>, std::allocator<char> >::_M_construct<char const*>
FUNC 23600 7c 0 SV_SetConfigstring
FUNC 23680 196 0 SV_UpdateConfigStrings
FUNC 23820 6c 0 SV_GetConfigstring
FUNC 23890 98 0 SV_SetUserinfo
FUNC 23930 71 0 SV_GetUserinfo
FUNC 239b0 73 0 SV_GetPlayerPubkey
FUNC 23a30 52 0 SV_CreateBaseline
FUNC 23a90 76 0 SV_BoundMaxClients
FUNC 23b10 a1 0 SV_Startup
FUNC 23bc0 183 0 SV_ChangeMaxClients
FUNC 23d50 4a 0 SV_ClearServer
FUNC 23da0 4c8 0 SV_Init
FUNC 24270 bc 0 SV_FinalCommand
FUNC 24330 42a 0 SV_SpawnServer
FUNC 24760 148 0 SV_Shutdown
FUNC 248b0 22 0 __tcf_0
FUNC 248e0 2b 0 __tcf_5
FUNC 24910 a 0 __tcf_1
FUNC 24920 a2 0 std::__cxx11::basic_string<char, std::char_traits<char>, std::allocator<char> >::_M_construct<char const*>
FUNC 249d0 3c 0 std::__cxx11::basic_string<char, std::char_traits<char>, std::allocator<char> >::basic_string
FUNC 24a10 6b 0 __tcf_6
FUNC 24a80 57 0 __tcf_4
FUNC 24ae0 57 0 __tcf_3
FUNC 24b40 57 0 __tcf_7
FUNC 24ba0 2fa 0 __tcf_2
FUNC 24ea0 2d 0 Cvar::GetCvarTypeName<ServerPrivate>
FUNC 24ed0 4a 0 ParseCvarValue
FUNC 24f20 d 0 SV_Private
FUNC 24f30 3f 0 SV_NET_Config
FUNC 24f70 fe 0 SV_CalcPings
FUNC 25070 b3 0 SV_CheckPaused
FUNC 25130 36 0 SV_FrameMsec
FUNC 25170 37 0 SerializeCvarValue
FUNC 251b0 3b 0 SVC_Ping
FUNC 251f0 264 0 SV_AddServerCommand
FUNC 25460 427 0 SV_ResolveMasterServers
FUNC 25890 38a 0 TranslateText_Internal
FUNC 25c20 394 0 SV_CheckDRDoS
FUNC 25fc0 11f 0 SV_CheckTimeouts
FUNC 260e0 76 0 SV_PrintTranslatedText
FUNC 26160 1bd 0 SV_SendServerCommand
FUNC 26320 10a 0 SV_MasterHeartbeat
FUNC 26430 1d 0 SV_MasterShutdown
FUNC 26450 493 0 SV_Frame
FUNC 268f0 1b35 0 SVC_RemoteCommand
FUNC 28430 98a 0 SVC_Status
FUNC 28dc0 13a6 0 SVC_Info
FUNC 2a170 e95 0 SV_ConnectionlessPacket
FUNC 2b010 24b 0 SV_PacketEvent
FUNC 2b260 a 0 __tcf_0
FUNC 2b270 41 0 SV_Netchan_FreeQueue
FUNC 2b2c0 77 0 SV_Netchan_TransmitNextFragment
FUNC 2b340 13c 0 SV_Netchan_Transmit
FUNC 2b480 3f 0 __tcf_0
FUNC 2b4c0 a 0 __tcf_1
FUNC 2b4d0 a2 0 std::__cxx11::basic_string<char, std::char_traits<char>, std::allocator<char> >::_M_construct<char const*>
FUNC 2b580 33 0 std::__cxx11::basic_string<char, std::char_traits<char>, std::allocator<char> >::basic_string
FUNC 2b5c0 365 0 IPC::HandleMsg<IPC::Message<IPC::Id<0, 5>, int, std::__cxx11::basic_string<char, std::char_traits<char>, std::allocator<char> > >, GameVM::QVMSyscall(int, Util::Reader&, IPC::Channel&)::<lambda(int, std::__cxx11::string)> >
FUNC 2b930 365 0 IPC::HandleMsg<IPC::Message<IPC::Id<0, 8>, int, std::__cxx11::basic_string<char, std::char_traits<char>, std::allocator<char> > >, GameVM::QVMSyscall(int, Util::Reader&, IPC::Channel&)::<lambda(int, std::__cxx11::string)> >
FUNC 2bca0 2aa 0 IPC::HandleMsg<IPC::Message<IPC::Id<0, 13>, int, std::vector<unsigned char, std::allocator<unsigned char> > >, GameVM::QVMSyscall(int, Util::Reader&, IPC::Channel&)::<lambda(int, std::vector<unsigned char>)> >
FUNC 2bf50 37 0 SV_GentityNum
FUNC 2bf90 37 0 SV_GameClientNum
FUNC 2bfd0 37 0 SV_SvEntityForGentity
FUNC 2c010 90 0 SV_GameSendServerCommand
FUNC 2c0a0 2a 0 SV_GameDropClient
FUNC 2c0d0 101 0 SV_RSAGenMsg
FUNC 2c1e0 51 0 SV_GetServerinfo
FUNC 2c240 99 0 SV_LocateGameData
FUNC 2c2e0 77 0 SV_GetUsercmd
FUNC 2c360 17 0 GameVM::GameSnapshotCallback
FUNC 2c380 17 0 GameVM::BotAIStartFrame
FUNC 2c3a0 487 0 IPC::HandleMsg<IPC::SyncMessage<IPC::Message<IPC::Id<0, 3>, int, std::__cxx11::basic_string<char, std::char_traits<char>, std::allocator<char> > > >, GameVM::QVMSyscall(int, Util::Reader&, IPC::Channel&)::<lambda(int, std::__cxx11::string)> >
FUNC 2c830 437 0 IPC::HandleMsg<IPC::SyncMessage<IPC::Message<IPC::Id<0, 4>, int, std::__cxx11::basic_string<char, std::char_traits<char>, std::allocator<char> > > >, GameVM::QVMSyscall(int, Util::Reader&, IPC::Channel&)::<lambda(int, std::__cxx11::string)> >
FUNC 2cc70 3a0 0 IPC::HandleMsg<IPC::SyncMessage<IPC::Message<IPC::Id<0, 27>, int, std::array<float, 3>, std::array<float, 3> >, IPC::Reply<int, botTrace_t> >, GameVM::QVMSyscall(int, Util::Reader&, IPC::Channel&)::<lambda(int, std::array<float, 3>, std::array<float, 3>, int&, botTrace_t&)> >
FUNC 2d010 334 0 IPC::HandleMsg<IPC::SyncMessage<IPC::Message<IPC::Id<0, 29>, int, std::array<float, 3>, float>, IPC::Reply<int, std::array<float, 3> > >, GameVM::QVMSyscall(int, Util::Reader&, IPC::Channel&)::<lambda(int, std::array<float, 3>, float, int&, std::array<float, 3>&)> >
FUNC 2d350 694 0 IPC::HandleMsg<IPC::SyncMessage<IPC::Message<IPC::Id<0, 18>, int, std::__cxx11::basic_string<char, std::char_traits<char>, std::allocator<char> >, qtime_t>, IPC::Reply<std::__cxx11::basic_string<char, std::char_traits<char>, std::allocator<char> > > >, GameVM::QVMSyscall(int, Util::Reader&, IPC::Channel&)::<lambda(int, std::__cxx11::string, const qtime_t&, std::__cxx11::string&)> >
FUNC 2d9f0 477 0 IPC::HandleMsg<IPC::SyncMessage<IPC::Message<IPC::Id<0, 16>, int, std::vector<char, std::allocator<char> >, int>, IPC::Reply<std::__cxx11::basic_string<char, std::char_traits<char>, std::allocator<char> > > >, GameVM::QVMSyscall(int, Util::Reader&, IPC::Channel&)::<lambda(int, const std::vector<char>&, int, std::__cxx11::string&)> >
FUNC 2de70 35e 0 IPC::HandleMsg<IPC::SyncMessage<IPC::Message<IPC::Id<0, 9>, int, int>, IPC::Reply<std::__cxx11::basic_string<char, std::char_traits<char>, std::allocator<char> > > >, GameVM::QVMSyscall(int, Util::Reader&, IPC::Channel&)::<lambda(int, int, std::__cxx11::string&)> >
FUNC 2e1d0 389 0 IPC::HandleMsg<IPC::SyncMessage<IPC::Message<IPC::Id<0, 21>, int, int>, IPC::Reply<int, std::__cxx11::basic_string<char, std::char_traits<char>, std::allocator<char> > > >, GameVM::QVMSyscall(int, Util::Reader&, IPC::Channel&)::<lambda(int, int, int&, std::__cxx11::string&)> >
FUNC 2e560 35e 0 IPC::HandleMsg<IPC::SyncMessage<IPC::Message<IPC::Id<0, 17>, int, int>, IPC::Reply<std::__cxx11::basic_string<char, std::char_traits<char>, std::allocator<char> > > >, GameVM::QVMSyscall(int, Util::Reader&, IPC::Channel&)::<lambda(int, int, std::__cxx11::string&)> >
FUNC 2e8c0 693 0 IPC::detail::HandleMsg<GameVM::QVMSyscall(int, Util::Reader&, IPC::Channel&)::<lambda(std::__cxx11::string, int&, std::__cxx11::string&, std::__cxx11::string&)>, IPC::Message<IPC::Id<0, 15>, std::__cxx11::basic_string<char, std::char_traits<char>, std::allocator<char> > >, IPC::Reply<int, std::__cxx11::basic_string<char, std::char_traits<char>, std::allocator<char> >, std::__cxx11::basic_string<char, std::char_traits<char>, std::allocator<char> > > >
FUNC 2ef60 37c3 0 GameVM::QVMSyscall
FUNC 32730 16b 0 GameVM::Syscall
FUNC 328a0 187 0 GameVM::Start
FUNC 32a30 7a 0 GameVM::GameStaticInit
FUNC 32ab0 9d 0 GameVM::GameInit
FUNC 32b50 65 0 SV_InitGameVM
FUNC 32bc0 29 0 SV_InitGameProgs
FUNC 32bf0 145 0 GameVM::GameShutdown
FUNC 32d40 42 0 SV_ShutdownGameProgs
FUNC 32d90 42 0 SV_RestartGameProgs
FUNC 32de0 161 0 GameVM::GameClientConnect
FUNC 32f50 71 0 GameVM::GameClientBegin
FUNC 32fd0 71 0 GameVM::GameClientUserInfoChanged
FUNC 33050 71 0 GameVM::GameClientDisconnect
FUNC 330d0 79 0 GameVM::GameClientCommand
FUNC 33150 71 0 GameVM::GameClientThink
FUNC 331d0 71 0 GameVM::GameRunFrame
FUNC 33250 184 0 GameVM::GameMessageRecieved
FUNC 333e0 33 0 SV_GameBinaryMessageReceived
FUNC 33420 268 0 GameVM::GameVM
FUNC 33690 a 0 __tcf_0
FUNC 336a0 87 0 SV_RateMsec
FUNC 33730 33 0 SV_QsortEntityNumbers
FUNC 33770 62 0 SV_AddEntToSnapshot
FUNC 337e0 a2 0 std::__cxx11::basic_string<char, std::char_traits<char>, std::allocator<char> >::_M_construct<char const*>
FUNC 33890 70 0 SV_UpdateServerCommandsToClient
FUNC 33900 149 0 SV_SendMessageToClient
FUNC 33a50 5a1 0 SV_AddEntitiesVisibleFromPoint
FUNC 34000 e7 0 SV_SendClientIdle
FUNC 340f0 7da 0 SV_SendClientSnapshot
FUNC 348d0 298 0 SV_SendClientMessages
FUNC 34b70 a 0 __tcf_0
FUNC 34b80 a2 0 std::__cxx11::basic_string<char, std::char_traits<char>, std::allocator<char> >::_M_construct<char const*>
FUNC 34c30 76 0 std::__cxx11::basic_string<char, std::char_traits<char>, std::allocator<char> >::_M_construct<__gnu_cxx::__normal_iterator<unsigned char const*, std::vector<unsigned char> > >
FUNC 34cb0 57 0 __tcf_1
FUNC 34d10 57 0 __tcf_3
FUNC 34d70 57 0 __tcf_2
FUNC 34dd0 14a 0 __tcf_4
FUNC 34f20 c 0 Challenge::Timeout
FUNC 34f30 6 0 Challenge::Bytes
FUNC 34f40 166 0 Challenge::GenerateString
FUNC 350b0 6 0 ChallengeManager::MaxChallenges
FUNC 350c0 168 0 ChallengeManager::Clear
FUNC 35230 431 0 Cleanup
FUNC 35670 195 0 ChallengeManager::Push
FUNC 35810 305 0 ChallengeManager::GenerateChallenge
FUNC 35b20 7d4 0 ChallengeManager::Match
FUNC 36300 2fe 0 ChallengeManager::MatchString
FUNC 36600 48 0 Challenge::ValidString
FUNC 36650 17 0 DebugDrawQuake::depthMask
FUNC 36670 21 0 DebugDrawQuake::begin
FUNC 366a0 28 0 DebugDrawQuake::vertex
FUNC 366d0 4a 0 DebugDrawQuake::vertex
FUNC 36720 4a 0 DebugDrawQuake::vertex
FUNC 36770 62 0 DebugDrawQuake::vertex
FUNC 367e0 6 0 DebugDrawQuake::end
FUNC 367f0 a 0 __tcf_0
FUNC 36800 a 0 DebugDrawQuake::init
FUNC 36810 14 0 __tcf_0
FUNC 36830 a 0 __tcf_1
FUNC 36840 a2 0 std::__cxx11::basic_string<char, std::char_traits<char>, std::allocator<char> >::_M_construct<char const*>
FUNC 368f0 178 0 GetPointPointedTo
FUNC 36a70 16b 0 BotDrawNavEdit
FUNC 36be0 15 0 BotDrawNavEdit
FUNC 36c00 113 0 DrawPath
FUNC 36d20 164 0 BotDebugDrawMesh
FUNC 36e90 91 0 NavEditInit
FUNC 36f30 43 0 NavEditShutdown
FUNC 36f80 3e6 0 Cmd_AddConnection
FUNC 37370 28e 0 Cmd_NavTest
FUNC 37600 259 0 Cmd_NavEdit
FUNC 37860 b1 0 adjustConnectionSize
FUNC 37920 a 0 Cmd_ConnectionSizeUp
FUNC 37930 a 0 Cmd_ConnectionSizeDown
FUNC 37940 a 0 __tcf_0
FUNC 37950 6 0 Cin_OGM_Init
FUNC 37960 6 0 Cin_OGM_Run
FUNC 37970 3 0 Cin_OGM_GetOutput
FUNC 37980 2 0 Cin_OGM_Shutdown
FUNC 37990 a 0 __tcf_0
FUNC 379a0 17 0 SafeFS_Write
FUNC 379c0 a2 0 std::__cxx11::basic_string<char, std::char_traits<char>, std::allocator<char> >::_M_construct<char const*>
FUNC 37a70 787 0 CL_WriteAVIHeader
FUNC 38200 46 0 CL_TakeVideoFrame
FUNC 38250 8 0 CL_VideoRecording
FUNC 38260 32a 0 CL_OpenAVIForWriting
FUNC 38590 2c9 0 CL_CloseAVI
FUNC 38860 1eb 0 CL_WriteAVIVideoFrame
FUNC 38a50 3f 0 __tcf_0
FUNC 38a90 a 0 __tcf_1
FUNC 38aa0 a2 0 std::__cxx11::basic_string<char, std::char_traits<char>, std::allocator<char> >::_M_construct<char const*>
FUNC 38b50 3e 0 std::__cxx11::basic_string<char, std::char_traits<char>, std::allocator<char> >::basic_string
FUNC 38b90 3c8 0 LAN_GetServerInfo
FUNC 38f60 245 0 std::vector<char, std::allocator<char> >::_M_range_insert<char const*>
FUNC 391b0 1f2 0 Sys::Drop<short unsigned int&>
FUNC 393b0 220 0 HandleMsg<CGameVM::CmdBuffer::HandleCommandBufferSyscall(int, int, Util::Reader&)::<lambda(refEntity_t&&)>, IPC::Id<0, 42>, refEntity_t>
FUNC 395d0 5f8 0 IPC::HandleMsg<IPC::Message<IPC::Id<0, 56>, std::__cxx11::basic_string<char, std::char_traits<char>, std::allocator<char> >, std::__cxx11::basic_string<char, std::char_traits<char>, std::allocator<char> >, std::__cxx11::basic_string<char, std::char_traits<char>, std::allocator<char> > >, CGameVM::QVMSyscall(int, Util::Reader&, IPC::Channel&)::<lambda(const string&, const string&, const string&)> >
FUNC 39bd0 6fa 0 IPC::HandleMsg<IPC::Message<IPC::Id<0, 75>, Keyboard::Key, int, std::__cxx11::basic_string<char, std::char_traits<char>, std::allocator<char> > >, CGameVM::QVMSyscall(int, Util::Reader&, IPC::Channel&)::<lambda(Keyboard::Key, int, std::__cxx11::string)> >
FUNC 3a2d0 245 0 IPC::HandleMsg<IPC::Message<IPC::Id<0, 125>, std::vector<unsigned char, std::allocator<unsigned char> > >, CGameVM::QVMSyscall(int, Util::Reader&, IPC::Channel&)::<lambda(std::vector<unsigned char>)> >
FUNC 3a520 79 0 CL_GetUserCmd
FUNC 3a5a0 6 0 CL_GetCurrentCmdNumber
FUNC 3a5b0 ea 0 CL_ConfigstringModified
FUNC 3a6a0 6 0 Key_GetCatcher
FUNC 3a6b0 19 0 Key_SetCatcher
FUNC 3a6d0 69 0 CL_OnTeamChanged
FUNC 3a740 cf 0 CGameVM::CmdBuffer::CmdBuffer
FUNC 3a810 e3 0 CL_FirstSnapshot
FUNC 3a900 12 0 CL_FirstSnapshot
FUNC 3a920 773 0 CL_HandleServerCommand
FUNC 3b0a0 38c 0 IPC::HandleMsg<IPC::SyncMessage<IPC::Message<IPC::Id<0, 24>, std::__cxx11::basic_string<char, std::char_traits<char>, std::allocator<char> > >, IPC::Reply<int> >, CGameVM::QVMSyscall(int, Util::Reader&, IPC::Channel&)::<lambda(const string&, int&)> >
FUNC 3b430 389 0 IPC::HandleMsg<IPC::SyncMessage<IPC::Message<IPC::Id<0, 37>, std::__cxx11::basic_string<char, std::char_traits<char>, std::allocator<char> > >, IPC::Reply<int> >, CGameVM::QVMSyscall(int, Util::Reader&, IPC::Channel&)::<lambda(const string&, int&)> >
FUNC 3b7c0 389 0 IPC::HandleMsg<IPC::SyncMessage<IPC::Message<IPC::Id<0, 38>, std::__cxx11::basic_string<char, std::char_traits<char>, std::allocator<char> > >, IPC::Reply<int> >, CGameVM::QVMSyscall(int, Util::Reader&, IPC::Channel&)::<lambda(const string&, int&)> >
FUNC 3bb50 3cb 0 IPC::HandleMsg<IPC::SyncMessage<IPC::Message<IPC::Id<0, 39>, std::__cxx11::basic_string<char, std::char_traits<char>, std::allocator<char> >, int>, IPC::Reply<int> >, CGameVM::QVMSyscall(int, Util::Reader&, IPC::Channel&)::<lambda(const string&, int, int&)> >
FUNC 3bf20 37b 0 IPC::HandleMsg<IPC::SyncMessage<IPC::Message<IPC::Id<0, 59>, std::__cxx11::basic_string<char, std::char_traits<char>, std::allocator<char> > >, IPC::Reply<int> >, CGameVM::QVMSyscall(int, Util::Reader&, IPC::Channel&)::<lambda(const string&, int&)> >
FUNC 3c2a0 3c9 0 IPC::HandleMsg<IPC::SyncMessage<IPC::Message<IPC::Id<0, 61>, int, std::__cxx11::basic_string<char, std::char_traits<char>, std::allocator<char> > >, IPC::Reply<int> >, CGameVM::QVMSyscall(int, Util::Reader&, IPC::Channel&)::<lambda(int, const string&, int&)> >
FUNC 3c670 2cc 0 IPC::HandleMsg<IPC::SyncMessage<IPC::Message<IPC::Id<0, 82>, int, int>, IPC::Reply<int> >, CGameVM::QVMSyscall(int, Util::Reader&, IPC::Channel&)::<lambda(int, int, int&)> >
FUNC 3c940 2d1 0 IPC::HandleMsg<IPC::SyncMessage<IPC::Message<IPC::Id<0, 10>, int>, IPC::Reply<std::__cxx11::basic_string<char, std::char_traits<char>, std::allocator<char> > > >, CGameVM::QVMSyscall(int, Util::Reader&, IPC::Channel&)::<lambda(int, std::__cxx11::string&)> >
FUNC 3cc20 4e6 0 IPC::HandleMsg<IPC::SyncMessage<IPC::Message<IPC::Id<0, 11>, int, std::__cxx11::basic_string<char, std::char_traits<char>, std::allocator<char> > >, IPC::Reply<std::__cxx11::basic_string<char, std::char_traits<char>, std::allocator<char> > > >, CGameVM::QVMSyscall(int, Util::Reader&, IPC::Channel&)::<lambda(int, const string&, std::__cxx11::string&)> >
FUNC 3d110 4d8 0 IPC::HandleMsg<IPC::SyncMessage<IPC::Message<IPC::Id<0, 12>, int, std::__cxx11::basic_string<char, std::char_traits<char>, std::allocator<char> > >, IPC::Reply<std::__cxx11::basic_string<char, std::char_traits<char>, std::allocator<char> > > >, CGameVM::QVMSyscall(int, Util::Reader&, IPC::Channel&)::<lambda(int, const string&, std::__cxx11::string&)> >
FUNC 3d5f0 698 0 IPC::HandleMsg<IPC::SyncMessage<IPC::Message<IPC::Id<0, 13>, int, std::__cxx11::basic_string<char, std::char_traits<char>, std::allocator<char> >, std::__cxx11::basic_string<char, std::char_traits<char>, std::allocator<char> > >, IPC::Reply<std::__cxx11::basic_string<char, std::char_traits<char>, std::allocator<char> > > >, CGameVM::QVMSyscall(int, Util::Reader&, IPC::Channel&)::<lambda(int, const string&, const string&, std::__cxx11::string&)> >
FUNC 3dc90 6ed 0 IPC::HandleMsg<IPC::SyncMessage<IPC::Message<IPC::Id<0, 14>, int, std::__cxx11::basic_string<char, std::char_traits<char>, std::allocator<char> >, std::__cxx11::basic_string<char, std::char_traits<char>, std::allocator<char> >, int>, IPC::Reply<std::__cxx11::basic_string<char, std::char_traits<char>, std::allocator<char> > > >, CGameVM::QVMSyscall(int, Util::Reader&, IPC::Channel&)::<lambda(int, const string&, const string&, int, std::__cxx11::string&)> >
FUNC 3e380 2de 0 IPC::HandleMsg<IPC::SyncMessage<IPC::Message<IPC::Id<0, 32>, int>, IPC::Reply<std::__cxx11::basic_string<char, std::char_traits<char>, std::allocator<char> > > >, CGameVM::QVMSyscall(int, Util::Reader&, IPC::Channel&)::<lambda(int, std::__cxx11::string&)> >
FUNC 3e660 372 0 IPC::HandleMsg<IPC::SyncMessage<IPC::Message<IPC::Id<0, 81>, int, int, int>, IPC::Reply<std::__cxx11::basic_string<char, std::char_traits<char>, std::allocator<char> > > >, CGameVM::QVMSyscall(int, Util::Reader&, IPC::Channel&)::<lambda(int, int, int, std::__cxx11::string&)> >
FUNC 3e9e0 4fa 0 IPC::HandleMsg<IPC::SyncMessage<IPC::Message<IPC::Id<0, 87>, std::__cxx11::basic_string<char, std::char_traits<char>, std::allocator<char> >, int>, IPC::Reply<std::__cxx11::basic_string<char, std::char_traits<char>, std::allocator<char> >, int> >, CGameVM::QVMSyscall(int, Util::Reader&, IPC::Channel&)::<lambda(const string&, int, std::__cxx11::string&, int&)> >
FUNC 3eee0 369 0 IPC::HandleMsg<IPC::SyncMessage<IPC::Message<IPC::Id<0, 8>, int>, IPC::Reply<bool, std::__cxx11::basic_string<char, std::char_traits<char>, std::allocator<char> > > >, CGameVM::QVMSyscall(int, Util::Reader&, IPC::Channel&)::<lambda(int, bool&, std::__cxx11::string&)> >
FUNC 3f250 5ca 0 IPC::HandleMsg<IPC::SyncMessage<IPC::Message<IPC::Id<0, 40>, std::__cxx11::basic_string<char, std::char_traits<char>, std::allocator<char> >, std::__cxx11::basic_string<char, std::char_traits<char>, std::allocator<char> >, int>, IPC::Reply<fontMetrics_t> >, CGameVM::QVMSyscall(int, Util::Reader&, IPC::Channel&)::<lambda(const string&, const string&, int, fontMetrics_t&)> >
FUNC 3f820 303 0 IPC::HandleMsg<IPC::SyncMessage<IPC::Message<IPC::Id<0, 58>, std::array<float, 3> >, IPC::Reply<std::array<float, 3>, std::array<float, 3>, std::array<float, 3>, int> >, CGameVM::QVMSyscall(int, Util::Reader&, IPC::Channel&)::<lambda(std::array<float, 3>, std::array<float, 3>&, std::array<float, 3>&, std::array<float, 3>&, int&)> >
FUNC 3fb30 531 0 IPC::detail::HandleMsg<CGameVM::QVMSyscall(int, Util::Reader&, IPC::Channel&)::<lambda(const refEntity_t&, const string&, int, orientation_t&, int&)>, IPC::Message<IPC::Id<0, 55>, refEntity_t, std::__cxx11::basic_string<char, std::char_traits<char>, std::allocator<char> >, int>, IPC::Reply<orientation_t, int> >
FUNC 40070 4f4 0 IPC::detail::HandleMsg<CGameVM::QVMSyscall(int, Util::Reader&, IPC::Channel&)::<lambda(int, int, int, float, bool, refSkeleton_t&, int&)>, IPC::Message<IPC::Id<0, 60>, int, int, int, float, bool>, IPC::Reply<refSkeleton_t, int> >
FUNC 40570 380 0 IPC::HandleMsg<IPC::SyncMessage<IPC::Message<IPC::Id<0, 70>, std::vector<unsigned char, std::allocator<unsigned char> >, int, int>, IPC::Reply<int> >, CGameVM::QVMSyscall(int, Util::Reader&, IPC::Channel&)::<lambda(std::vector<unsigned char>, int, int, qhandle_t&)> >
FUNC 408f0 612 0 IPC::HandleMsg<IPC::SyncMessage<IPC::Message<IPC::Id<0, 2>, std::vector<std::array<float, 3>, std::allocator<std::array<float, 3> > >, std::array<float, 3>, int, int>, IPC::Reply<std::vector<std::array<float, 3>, std::allocator<std::array<float, 3> > >, std::vector<markFragment_t, std::allocator<markFragment_t> > > >, CGameVM::QVMSyscall(int, Util::Reader&, IPC::Channel&)::<lambda(std::vector<std::array<float, 3> >, std::array<float, 3>, int, int, std::vector<std::array<float, 3> >&, std::vector<markFragment_t>&)> >
FUNC 40f10 88a 0 IPC::HandleMsg<IPC::SyncMessage<IPC::Message<IPC::Id<0, 78>, std::vector<Keyboard::Key, std::allocator<Keyboard::Key> > >, IPC::Reply<std::vector<bool, std::allocator<bool> > > >, CGameVM::QVMSyscall(int, Util::Reader&, IPC::Channel&)::<lambda(std::vector<Keyboard::Key>, std::vector<bool>&)> >
FUNC 417a0 214 0 CL_FillServerCommands
FUNC 419c0 11e 0 CL_GetSnapshot
FUNC 41ae0 529 0 IPC::detail::HandleMsg<CGameVM::QVMSyscall(int, Util::Reader&, IPC::Channel&)::<lambda(int, bool&, snapshot_t&)>, IPC::Message<IPC::Id<0, 4>, int>, IPC::Reply<bool, snapshot_t> >
FUNC 42010 181 0 CL_CGameBinaryMessageReceived
FUNC 421a0 187 0 CGameVM::Start
FUNC 42330 7a 0 CGameVM::CGameStaticInit
FUNC 423b0 14d 0 CL_InitCGame
FUNC 42500 89 0 CGameVM::CGameInit
FUNC 42590 11e 0 CGameVM::CGameShutdown
FUNC 426b0 42 0 CL_ShutdownCGame
FUNC 42700 94 0 CL_CGameRendering
FUNC 427a0 81 0 CGameVM::CGameDrawActiveFrame
FUNC 42830 73 0 CGameVM::CGameCrosshairPlayer
FUNC 428b0 81 0 CGameVM::CGameKeyEvent
FUNC 42940 79 0 CGameVM::CGameMouseEvent
FUNC 429c0 79 0 CGameVM::CGameMousePosEvent
FUNC 42a40 79 0 CGameVM::CGameFocusEvent
FUNC 42ac0 71 0 CGameVM::CGameTextInputEvent
FUNC 42b40 6f 0 CGameVM::CGameRocketInit
FUNC 42bb0 ee 0 CGameVM::CGameRocketFrame
FUNC 42ca0 71 0 CGameVM::CGameConsoleLine
FUNC 42d20 15e 0 CL_AdjustTimeDelta
FUNC 42e80 17 0 CL_AdjustTimeDelta
FUNC 42ea0 272 0 CL_SetCGameTime
FUNC 43120 a45 0 IPC::HandleMsg<IPC::SyncMessage<IPC::Message<IPC::Id<0, 73>, int, std::vector<std::__cxx11::basic_string<char, std::char_traits<char>, std::allocator<char> >, std::allocator<std::__cxx11::basic_string<char, std::char_traits<char>, std::allocator<char> > > > >, IPC::Reply<std::vector<std::vector<Keyboard::Key, std::allocator<Keyboard::Key> >, std::allocator<std::vector<Keyboard::Key, std::allocator<Keyboard::Key> > > > > >, CGameVM::QVMSyscall(int, Util::Reader&, IPC::Channel&)::<lambda(int, const std::vector<std::__cxx11::basic_string<char> >&, std::vector<std::vector<Keyboard::Key> >&)> >
FUNC 43b70 46e8 0 CGameVM::QVMSyscall
FUNC 48260 197 0 CGameVM::Syscall
FUNC 48400 306 0 CGameVM::CGameVM
FUNC 48710 45e 0 HandleMsg<IPC::Message<IPC::Id<0, 48>, std::vector<polyVert_t, std::allocator<polyVert_t> >, int, std::vector<int, std::allocator<int> >, int, int, int, int>, CGameVM::CmdBuffer::HandleCommandBufferSyscall(int, int, Util::Reader&)::<lambda(std::vector<polyVert_t>, int, std::vector<int>, int, int, int, qhandle_t)> >
FUNC 48b70 3338 0 CGameVM::CmdBuffer::HandleCommandBufferSyscall
FUNC 4beb0 a 0 __tcf_0
FUNC 4bec0 a2 0 std::__cxx11::basic_string<char, std::char_traits<char>, std::allocator<char> >::_M_construct<char const*>
FUNC 4bf70 ac 0 ROQ_GenYUVTables
FUNC 4c020 143 0 Frame_yuv_to_rgb24
FUNC 4c170 289 0 CIN_RunCinematic
FUNC 4c400 311 0 CIN_DrawCinematic
FUNC 4c720 1f 0 SCR_DrawCinematic
FUNC 4c740 1f 0 SCR_RunCinematic
FUNC 4c760 d8 0 CIN_UploadCinematic
FUNC 4c840 99 0 CIN_StopCinematic
FUNC 4c8e0 26 0 CIN_StopCinematic
FUNC 4c910 39 0 CIN_CloseAllVideos
FUNC 4c950 42 0 SCR_StopCinematic
FUNC 4c9a0 2e2 0 CIN_PlayCinematic
FUNC 4cc90 31c 0 CL_PlayCinematic_f
FUNC 4cfb0 65 0 Con_MarginFadeAlpha
FUNC 4d020 2 0 __tcf_5
FUNC 4d030 2f 0 __tcf_2
FUNC 4d060 41 0 __tcf_4
FUNC 4d0b0 a 0 __tcf_0
FUNC 4d0c0 5c 0 Con_ToggleConsole_f
FUNC 4d120 a2 0 std::__cxx11::basic_string<char, std::char_traits<char>, std::allocator<char> >::_M_construct<char const*>
FUNC 4d1d0 69 0 Con_Clear_f
FUNC 4d240 61 0 __tcf_3
FUNC 4d2b0 61 0 __tcf_1
FUNC 4d320 412 0 std::__find_if<__gnu_cxx::__normal_iterator<std::__cxx11::basic_string<char>*, std::vector<std::__cxx11::basic_string<char> > >, __gnu_cxx::__ops::_Iter_pred<Con_Search_f_Helper(const Iterator&, const Iterator&, const std::vector<std::__cxx11::basic_string<char> >&) [with Iterator = __gnu_cxx::__normal_iterator<std::__cxx11::basic_string<char>*, std::vector<std::__cxx11::basic_string<char> > >]::<lambda(const string&)> > >
FUNC 4d740 15 0 Con_OpenConsole_f
FUNC 4d760 2f0 0 Con_Init
FUNC 4da50 2da 0 Con_DrawBackground
FUNC 4dd30 18b 0 Con_DrawInput
FUNC 4dec0 117 0 Con_DrawRightFloatingTextLine
FUNC 4dfe0 6d 0 Con_DrawAboutText
FUNC 4e050 e3 0 Con_DrawConsoleScrollbackIndicator
FUNC 4e140 32f 0 Con_DrawConsoleScrollbar
FUNC 4e470 e7 0 Con_DrawScrollbackMarkerline
FUNC 4e560 778 0 Con_DrawConsoleContent
FUNC 4ece0 f5 0 Con_DrawAnimatedConsole
FUNC 4ede0 2e6 0 Con_UpdateConsoleState
FUNC 4f0d0 425 0 CL_ConsolePrint
FUNC 4f500 40 0 Con_PageUp
FUNC 4f540 3c 0 Con_PageDown
FUNC 4f580 36 0 Con_ScrollUp
FUNC 4f5c0 32 0 Con_ScrollDown
FUNC 4f600 2e 0 Con_ScrollToMarkerLine
FUNC 4f630 e 0 Con_ScrollToTop
FUNC 4f640 1d 0 Con_ScrollToBottom
FUNC 4f660 6a 0 Con_JumpUp
FUNC 4f6d0 39 0 Con_Close
FUNC 4f710 a2c 0 Con_Search_f
FUNC 50140 4fb 0 Con_Dump_f
FUNC 50640 372 0 Con_Grep_f
FUNC 509c0 56 0 Con_Linefeed
FUNC 50a20 70a 0 Con_CheckResize
FUNC 51130 5be 0 CL_InternalConsolePrint
FUNC 516f0 427 0 Con_RunConsole
FUNC 51b20 138 0 Con_RunAnimatedConsole
FUNC 51c60 4b 0 Con_DrawConsole
FUNC 51cb0 28 0 IN_CenterView
FUNC 51ce0 a 0 __tcf_0
FUNC 51cf0 a2 0 std::__cxx11::basic_string<char, std::char_traits<char>, std::allocator<char> >::_M_construct<char const*>
FUNC 51da0 1fe 0 IN_KeyDown
FUNC 51fa0 fb 0 IN_KeyUp
FUNC 520a0 ae 0 IN_BuiltinButtonCommand
FUNC 52150 82 0 CL_KeyState
FUNC 521e0 133 0 CL_AdjustAngles
FUNC 52320 3b4 0 CL_KeyMove
FUNC 526e0 50 0 CL_MouseEvent
FUNC 52730 23 0 CL_MousePosEvent
FUNC 52760 1c 0 CL_FocusEvent
FUNC 52780 33 0 CL_JoystickEvent
FUNC 527c0 22f 0 CL_JoystickMove
FUNC 529f0 10a 0 CL_GameControllerMove
FUNC 52b00 18 0 CL_ClearCmdButtons
FUNC 52b20 ba 0 CL_CmdButtons
FUNC 52be0 48 0 CL_FinishMove
FUNC 52c30 172 0 CL_ReadyToSendPacket
FUNC 52db0 b9 0 CL_InitInput
FUNC 52e70 34 0 CL_ClearInput
FUNC 52eb0 51 0 CL_ClearKeys
FUNC 52f10 25 0 __tcf_1
FUNC 52f40 42b 0 CL_MouseMove
FUNC 53370 132 0 CL_CreateCmd
FUNC 534b0 96 0 CL_CreateNewCommands
FUNC 53550 12 0 CL_CreateNewCommands
FUNC 53570 6a4 0 CL_WritePacket
FUNC 53c20 19 0 CL_WritePacket
FUNC 53c40 aa 0 CL_SendCmd
FUNC 53cf0 152 0 CL_RegisterButtonCommands
FUNC 53e50 644 0 IN_KeysUp_f
FUNC 544a0 234 0 IN_PrepareKeyUp
FUNC 546e0 52 0 IRC_NeutraliseString
FUNC 54740 76 0 IRC_AddSendItem
FUNC 547c0 72 0 IRC_SetTimeout
FUNC 54840 a 0 __tcf_0
FUNC 54850 a2 0 std::__cxx11::basic_string<char, std::char_traits<char>, std::allocator<char> >::_M_construct<char const*>
FUNC 54900 3e 0 std::__detail::_Hashtable_alloc<std::allocator<std::__detail::_Hash_node<std::pair<const std::__cxx11::basic_string<char, std::char_traits<char>, std::allocator<char> >, ircCmd_t (*)()>, true> > >::_M_allocate_buckets
FUNC 54940 8 0 CL_IRCInitiateShutdown
FUNC 54950 58 0 CL_IRCWaitShutdown
FUNC 549b0 b 0 CL_IRCIsConnected
FUNC 549c0 b 0 CL_IRCIsRunning
FUNC 549d0 25 0 __tcf_1
FUNC 54a00 25 0 __tcf_2
FUNC 54a30 484 0 IRC_HandleError
FUNC 54ec0 a5 0 IRC_Wait
FUNC 54f70 bd 0 IRC_Send
FUNC 55030 31 0 CTCP_Version
FUNC 55070 6c 0 CTCP_Ping
FUNC 550e0 1b 0 IRC_SendNickname
FUNC 55100 1f 0 IRC_JoinChannel
FUNC 55120 2b 0 IRCH_Ping
FUNC 55150 2b8 0 IRC_Display
FUNC 55410 61 0 CTCP_Action
FUNC 55480 35 0 IRCH_FatalError
FUNC 554c0 35 0 IRCH_Banned
FUNC 55500 6f 0 IRCH_Connected
FUNC 55570 94 0 IRCH_Kick
FUNC 55610 2d 0 IRCH_Quit
FUNC 55640 2d 0 IRCH_Part
FUNC 55670 a6 0 IRCH_Joined
FUNC 55720 82 0 IRCH_ServerError
FUNC 557b0 100 0 IRCH_NickError
FUNC 558b0 99 0 IRCH_Nick
FUNC 55950 11e 0 CL_IRCSay
FUNC 55a70 675 0 IRC_AttemptConnection
FUNC 560f0 a1 0 CL_InitIRC
FUNC 561a0 108 0 CL_IRCSetup
FUNC 562b0 783 0 IRC_ProcessData
FUNC 56a40 284 0 IRCH_PrivMsg
FUNC 56cd0 1b7 0 IRC_AddCTCPHandler
FUNC 56e90 1573 0 IRC_SystemThreadProc
FUNC 58410 2 0 CL_RefTagFree
FUNC 58420 2 0 __tcf_9
FUNC 58430 2 0 __tcf_10
FUNC 58440 2 0 __tcf_11
FUNC 58450 2 0 __tcf_16
FUNC 58460 2 0 __tcf_17
FUNC 58470 2 0 __tcf_18
FUNC 58480 2 0 __tcf_19
FUNC 58490 22 0 __tcf_6
FUNC 584c0 22 0 __tcf_0
FUNC 584f0 22 0 CL_ScaledMilliseconds
FUNC 58520 5 0 CL_SetRecommended_f
FUNC 58530 1b 0 CL_RefMalloc
FUNC 58550 5 0 Z_Free
FUNC 58560 1d4 0 CL_SetServerInfo
FUNC 58740 2ea 0 CL_SetServerInfoByAddress
FUNC 58a30 5 0 CL_ShowIP_f
FUNC 58a40 a 0 __tcf_1
FUNC 58a50 123 0 CL_GetPing
FUNC 58b80 a2 0 std::__cxx11::basic_string<char, std::char_traits<char>, std::allocator<char> >::_M_construct<char const*>
FUNC 58c30 3e 0 std::__cxx11::basic_string<char, std::char_traits<char>, std::allocator<char> >::basic_string
FUNC 58c70 1b3 0 CL_RconDestinationAddress
FUNC 58e30 4b 0 __tcf_8
FUNC 58e80 71 0 __tcf_5
FUNC 58f00 57 0 __tcf_2
FUNC 58f60 57 0 __tcf_14
FUNC 58fc0 e6 0 __tcf_15
FUNC 590b0 6b 0 __tcf_3
FUNC 59120 6b 0 __tcf_4
FUNC 59190 6b 0 __tcf_12
FUNC 59200 6b 0 __tcf_13
FUNC 59270 368 0 __tcf_7
FUNC 595e0 76 0 CL_AddReliableCommand
FUNC 59660 53 0 CL_CheckUserinfo
FUNC 596c0 77 0 CL_WriteDemoMessage
FUNC 59740 45a 0 GenerateDemoName
FUNC 59ba0 fc 0 CL_ClearState
FUNC 59ca0 41 0 CL_SendDisconnect
FUNC 59cf0 92 0 CL_InitServerInfo
FUNC 59d90 22 0 CL_CheckUserinfo
FUNC 59dc0 121 0 CL_InitRenderer
FUNC 59ef0 32 0 CL_ShutdownRef
FUNC 59f30 14c 0 CL_GetServerStatus
FUNC 5a080 3e 0 CL_GetPing
FUNC 5a0c0 1a 0 CL_ClearPing
FUNC 5a0e0 28 0 CL_GetPingQueueCount
FUNC 5a110 80 0 CL_GetFreePing
FUNC 5a190 3f 0 CL_ClearStaticDownload
FUNC 5a1d0 10f 0 CL_GSRSequenceInformation
FUNC 5a2e0 1aa 0 CL_LocalServers_f
FUNC 5a490 1ff 0 CL_CheckForResend
FUNC 5a690 2d0 0 CL_ServerStatus
FUNC 5a960 43b 0 CL_UpdateVisiblePings_f
FUNC 5ada0 1ce 0 CL_StopRecord
FUNC 5af70 6a 0 CL_ShutdownAll
FUNC 5afe0 50 0 CL_ForwardToServer_f
FUNC 5b030 b5 0 CL_Reconnect_f
FUNC 5b0f0 207 0 CL_InitRef
FUNC 5b300 d8 0 CL_StartHunkUsers
FUNC 5b3e0 33 0 CL_FlushMemory
FUNC 5b420 ba 0 CL_Vid_Restart_f
FUNC 5b4e0 45 0 CL_Snd_Restart_f
FUNC 5b530 315 0 CL_Disconnect
FUNC 5b850 1fb 0 CL_MapLoading
FUNC 5ba50 13 0 CL_Disconnect_f
FUNC 5ba70 97 0 CL_CheckTimeout
FUNC 5bb10 1d0 0 CL_Shutdown
FUNC 5bce0 9c 0 CL_GSRFeaturedLabel
FUNC 5bd80 1d3 0 CL_Ping_f
FUNC 5bf60 203 0 CL_ServerStatus_f
FUNC 5c170 53c 0 CL_Connect_f
FUNC 5c6b0 9e 0 CL_PrintPacket
FUNC 5c750 653 0 CL_Record
FUNC 5cdb0 235 0 CL_NextDemo
FUNC 5cff0 9d 0 CL_DemoCompleted
FUNC 5d090 113 0 CL_ReadDemoMessage
FUNC 5d1b0 123 0 CL_ServerLinksResponsePacket
FUNC 5d2e0 d06 0 CL_ServersResponsePacket
FUNC 5dff0 101 0 CL_DownloadsComplete
FUNC 5e100 105 0 CL_BeginDownload
FUNC 5e210 cb 0 CL_NextDownload
FUNC 5e2e0 15 0 CL_NextDownload
FUNC 5e300 ee 0 CL_InitDownloads
FUNC 5e3f0 23e 0 CL_WWWDownload
FUNC 5e630 2b1 0 CL_Frame
FUNC 5e8f0 566 0 CL_ServerStatusResponse
FUNC 5ee60 344 0 CL_GlobalServers_f
FUNC 5f1b0 8e 0 CL_ForwardCommandToServer
FUNC 5f240 166 0 CL_DisconnectPacket
FUNC 5f3b0 161 0 CL_GenerateRSAKeys
FUNC 5f520 b89 0 CL_Init
FUNC 600b0 702 0 CL_RconSend
FUNC 607c0 d8 0 CL_Clientinfo_f
FUNC 608a0 fd 0 CL_WWWBadChecksum
FUNC 609a0 97 0 CL_Configstrings_f
FUNC 60a40 6ed 0 CL_ServerInfoPacket
FUNC 61130 1247 0 CL_ConnectionlessPacket
FUNC 62380 2d4 0 CL_PacketEvent
FUNC 62660 a 0 __tcf_0
FUNC 62670 a2 0 std::__cxx11::basic_string<char, std::char_traits<char>, std::allocator<char> >::_M_construct<char const*>
FUNC 62720 10d 0 CL_SystemInfoChanged
FUNC 62830 19a 0 CL_ParseGamestate
FUNC 629d0 4f 0 CL_ParseCommandString
FUNC 62a20 41 0 CL_ParseBinaryMessage
FUNC 62a70 4c 0 SHOWNET
FUNC 62ac0 97 0 CL_DeltaEntity
FUNC 62b60 390 0 CL_ParsePacketEntities
FUNC 62ef0 71a 0 CL_ParseSnapshot
FUNC 63610 56e 0 CL_ParseDownload
FUNC 63b80 1c5 0 CL_ParseServerMessage
FUNC 63d50 a 0 __tcf_0
FUNC 63d60 7b 0 SCR_AdjustFrom640
FUNC 63de0 af 0 SCR_FillRect
FUNC 63e90 1a3 0 SCR_DrawSmallUnichar
FUNC 64040 8 0 SCR_Init
FUNC 64050 13c 0 SCR_DrawScreenField
FUNC 64190 5 0 SCR_DrawConsoleAndPointer
FUNC 641a0 97 0 SCR_UpdateScreen
FUNC 64240 87 0 SCR_ConsoleFontUnicharWidth
FUNC 642d0 13a 0 SCR_DrawConsoleFontUnichar
FUNC 64410 31c 0 SCR_DrawSmallStringExt
FUNC 64730 1b 0 SCR_ConsoleFontCharWidth
FUNC 64750 54 0 SCR_ConsoleFontCharHeight
FUNC 647b0 41 0 SCR_ConsoleFontCharVPadding
FUNC 64800 10f 0 SCR_ConsoleFontStringWidth
FUNC 64910 25 0 DL_cb_Progress
FUNC 64940 1a 0 DL_cb_FWriteFile
FUNC 64960 a 0 __tcf_0
FUNC 64970 a2 0 std::__cxx11::basic_string<char, std::char_traits<char>, std::allocator<char> >::_M_construct<char const*>
FUNC 64a20 3f 0 DL_Shutdown
FUNC 64a60 45 0 DL_InitDownload
FUNC 64ab0 12 0 DL_InitDownload
FUNC 64ad0 28a 0 DL_BeginDownload
FUNC 64d60 178 0 DL_DownloadLoop
FUNC 64ee0 27 0 __tcf_0
FUNC 64f10 a 0 __tcf_1
FUNC 64f20 a2 0 std::__cxx11::basic_string<char, std::char_traits<char>, std::allocator<char> >::_M_construct<char const*>
FUNC 64fd0 d1 0 Application::GetApp
FUNC 650b0 a 0 __tcf_0
FUNC 650c0 6 0 Audio::Init
FUNC 650d0 2 0 Audio::Shutdown
FUNC 65100 3 0 Audio::RegisterSFX
FUNC 65120 2 0 Audio::StartSound
FUNC 65130 2 0 Audio::StartLocalSound
FUNC 65140 2 0 Audio::AddEntityLoopingSound
FUNC 65170 2 0 Audio::StartMusic
FUNC 651a0 2 0 Audio::StreamData
FUNC 651b0 2 0 Audio::UpdateListener
FUNC 651c0 2 0 Audio::UpdateEntityPosition
FUNC 651e0 2 0 Audio::SetReverb
FUNC 65200 3 0 Audio::AvailableCaptureSamples
FUNC 65230 a 0 __tcf_0
FUNC 65240 5 0 Keyboard::StringToKey
FUNC 65250 37 0 Keyboard::KeyToString
FUNC 65290 3 0 Keyboard::GetCharForScancode
FUNC 652a0 3 0 Keyboard::ScancodeToAscii
FUNC 652b0 2 0 Keyboard::CompleteKeyName
FUNC 652c0 3 0 Keyboard::IsDown
FUNC 652d0 2 0 Keyboard::SetBinding
FUNC 652e0 9 0 Keyboard::GetBinding
FUNC 652f0 19 0 Keyboard::GetKeysBoundTo
FUNC 65310 2 0 Keyboard::WriteBindings
FUNC 65330 3 0 Keyboard::GetTeam
FUNC 65340 3 0 Keyboard::AnyKeyDown
FUNC 65360 2 0 Field_Draw
FUNC 65370 2 0 Field_KeyDownEvent
FUNC 65380 2 0 Field_CharEvent
FUNC 65390 5 0 Key_GetKeyNumber
FUNC 653a0 3 0 Key_GetKeyTime
FUNC 653d0 2 0 CL_KeyEvent
FUNC 653f0 2 0 Key_ClearStates
FUNC 65400 a 0 __tcf_0
FUNC 65410 2 0 IN_Init
FUNC 65420 2 0 IN_Frame
FUNC 65480 3 0 IN_IsNumLockDown
FUNC 65490 2 0 IN_SetMouseMode
FUNC 654a0 2 0 RE_Shutdown
FUNC 654b0 6 0 RE_RegisterShader
FUNC 654c0 37 0 RE_RegisterFont
FUNC 65500 60 0 RE_Glyph
FUNC 65560 60 0 RE_GlyphChar
FUNC 655c0 2 0 RE_UnregisterFont
FUNC 655d0 24 0 RE_RegisterFontVM
FUNC 65600 2 0 RE_GlyphVM
FUNC 65610 2 0 RE_GlyphCharVM
FUNC 65620 2 0 RE_UnregisterFontVM
FUNC 65630 2 0 RE_EndRegistration
FUNC 65640 3 0 R_LightForPoint
FUNC 65650 2 0 RE_AddPolysToScene
FUNC 65660 2 0 RE_AddLightToScene
FUNC 65670 2 0 RE_AddLightToSceneQ3A
FUNC 65680 2 0 RE_StretchPic
FUNC 65690 2 0 RE_RotatedPic
FUNC 656a0 2 0 RE_StretchPicGradient
FUNC 656b0 2 0 RE_2DPolyies
FUNC 656c0 2 0 RE_StretchRaw
FUNC 656d0 2 0 RE_UploadCinematic
FUNC 656e0 2 0 RE_EndFrame
FUNC 656f0 3 0 R_MarkFragments
FUNC 65700 2 0 RE_ProjectDecal
FUNC 65710 3 0 R_LerpTag
FUNC 65720 2 0 R_RemapShader
FUNC 65730 6 0 R_GetEntityToken
FUNC 65740 3 0 R_inPVS
FUNC 65750 6 0 RE_LoadDynamicShader
FUNC 65760 2 0 RE_TakeVideoFrame
FUNC 65770 6 0 RE_RegisterAnimation
FUNC 65780 6 0 RE_CheckSkeleton
FUNC 65790 10 0 RE_BuildSkeleton
FUNC 657a0 6 0 RE_BlendSkeleton
FUNC 657b0 3 0 RE_BoneIndex
FUNC 657c0 6 0 RE_AnimNumFrames
FUNC 657d0 6 0 RE_RegisterVisTest
FUNC 657e0 2 0 RE_AddVisTestToScene
FUNC 657f0 3 0 RE_CheckVisibility
FUNC 65800 2 0 RE_SetColorGrading
FUNC 65810 2 0 RE_ScissorSet
FUNC 65820 15 0 RE_GetTextureSize
FUNC 65840 2 0 RE_Add2dPolysIndexed
FUNC 65850 6 0 RE_ShaderNameFromHandle
FUNC 65860 23 0 RE_RegisterModel
FUNC 658a0 7a 0 RE_BeginRegistration
FUNC 65920 a 0 __tcf_0
FUNC 65a70 2b3 0 GetRefAPI
FUNC 65d30 a 0 __tcf_0
FUNC 65d40 a 0 __tcf_0
FUNC 65d50 15 0 Color::detail::Indexed
FUNC 65d70 6d7 0 Color::detail::ToString
FUNC 66450 381 0 Color::TokenIterator::NextToken
FUNC 667e0 11c 0 Color::StrlenNocolor
FUNC 66900 131 0 Color::StripColors
FUNC 66a40 29a 0 Color::StripColors
FUNC 66ce0 298 0 Color::StripColors
FUNC 66f80 9a 0 Cmd::SkipSpaces
FUNC 67020 19 0 Cmd::CmdBase::Complete
FUNC 67040 26 0 Cmd::LambdaCmd::Run
FUNC 67070 60 0 Cmd::LambdaCmd::Complete
FUNC 670d0 a 0 __tcf_0
FUNC 670e0 a2 0 std::__cxx11::basic_string<char, std::char_traits<char>, std::allocator<char> >::_M_construct<char const*>
FUNC 67190 3e9 0 Cmd::Escape
FUNC 67580 1b4 0 Cmd::SplitCommand
FUNC 67740 4fd 0 Cmd::SubstituteCvars
FUNC 67c40 4e 0 Cmd::IsValidCvarName
FUNC 67c90 57 0 Cmd::IsValidCmdName
FUNC 67cf0 102 0 Cmd::IsSwitch
FUNC 67e00 15 0 Cmd::Args::Args
FUNC 67e20 2b 0 Cmd::Args::Args
FUNC 67e50 f 0 Cmd::Args::Argc
FUNC 67e60 f 0 Cmd::Args::Argv
FUNC 67e70 1a7 0 Cmd::Args::EscapedArgs
FUNC 68020 13f 0 Cmd::Args::ConcatArgs
FUNC 68160 3 0 Cmd::Args::ArgVector
FUNC 68190 3 0 Cmd::Args::begin
FUNC 681a0 4 0 Cmd::Args::end
FUNC 681b0 10 0 Cmd::CmdBase::CmdBase
FUNC 681c0 4 0 Cmd::CmdBase::GetFlags
FUNC 681d0 2f 0 Cmd::CmdBase::ExecuteAfter
FUNC 68200 5 0 Cmd::CmdBase::GetEnv
FUNC 68210 138 0 Cmd::StaticCmd::StaticCmd
FUNC 68350 148 0 Cmd::StaticCmd::StaticCmd
FUNC 684a0 19 0 Cmd::NoopComplete
FUNC 684c0 1f7 0 Cmd::LambdaCmd::LambdaCmd
FUNC 686c0 1f7 0 Cmd::LambdaCmd::LambdaCmd
FUNC 688c0 458 0 Cmd::Args::Args
FUNC 68d20 195 0 Cmd::CmdBase::PrintUsage
FUNC 68ec0 26d 0 Cmd::AddToCompletion
FUNC 69130 113 0 Cmd::FilterCompletion
FUNC 69250 a 0 __tcf_0
FUNC 69260 a2 0 std::__cxx11::basic_string<char, std::char_traits<char>, std::allocator<char> >::_M_construct<char const*>
FUNC 69310 aa 0 Cvar::CvarProxy::CvarProxy
FUNC 693c0 1c 0 Cvar::CvarProxy::SetValue
FUNC 693e0 16d 0 Cvar::CvarProxy::Register
FUNC 69550 1f2 0 Cvar::ParseCvarValue
FUNC 69750 43 0 Cvar::SerializeCvarValue
FUNC 697a0 2d 0 Cvar::GetCvarTypeName<bool>
FUNC 697d0 1d 0 Cvar::ParseCvarValue
FUNC 697f0 2d 0 Cvar::GetCvarTypeName<int>
FUNC 69820 5 0 Cvar::ParseCvarValue
FUNC 69830 2d 0 Cvar::GetCvarTypeName<float>
FUNC 69860 bb 0 Cvar::ParseCvarValue
FUNC 69920 5a 0 Cvar::SerializeCvarValue
FUNC 69980 2d 0 Cvar::GetCvarTypeName<std::__cxx11::basic_string<char> >
FUNC 699b0 2d 0 Cvar::GetCvarTypeName<unsigned int>
FUNC 699e0 1f0 0 Cvar::ParseCvarValue
FUNC 69bd0 37 0 Cvar::SerializeCvarValue
FUNC 69c10 3f 0 Cvar::SerializeCvarValue
FUNC 69c50 37 0 Cvar::SerializeCvarValue
FUNC 69cf0 2 0 std::_Sp_counted_deleter<void*, FS::RawPath::ListFiles(Str::StringRef, std::error_code&)::<lambda(void*)>, std::allocator<void>, (__gnu_cxx::_Lock_policy)2>::~_Sp_counted_deleter
FUNC 69d20 f 0 std::_Sp_counted_deleter<void*, FS::RawPath::ListFiles(Str::StringRef, std::error_code&)::<lambda(void*)>, std::allocator<void>, (__gnu_cxx::_Lock_policy)2>::~_Sp_counted_deleter
FUNC 69d30 22 0 __tcf_2
FUNC 69d60 22 0 __tcf_8
FUNC 69d90 22 0 __tcf_7
FUNC 69dc0 f 0 std::_Sp_counted_deleter<void*, FS::RawPath::ListFiles(Str::StringRef, std::error_code&)::<lambda(void*)>, std::allocator<void>, (__gnu_cxx::_Lock_policy)2>::_M_destroy
FUNC 69dd0 12d 0 FS::SetErrorCode
FUNC 69f00 24 0 FS::SetErrorCodeSystem
FUNC 69f30 45 0 FS::filesystem_category
FUNC 69f80 14 0 __tcf_0
FUNC 69fa0 14 0 __tcf_1
FUNC 69fc0 2d 0 std::_Sp_counted_deleter<void*, FS::RawPath::ListFiles(Str::StringRef, std::error_code&)::<lambda(void*)>, std::allocator<void>, (__gnu_cxx::_Lock_policy)2>::_M_get_deleter
FUNC 69ff0 48 0 std::_Sp_counted_deleter<void*, FS::RawPath::ListFiles(Str::StringRef, std::error_code&)::<lambda(void*)>, std::allocator<void>, (__gnu_cxx::_Lock_policy)2>::_M_dispose
FUNC 6a040 a 0 __tcf_3
FUNC 6a0e0 227 0 FS::VersionCmp
FUNC 6a310 90 0 __tcf_11
FUNC 6a3a0 65 0 FS::SetErrorCodeZlib
FUNC 6a410 12b 0 FS::::ZipArchive::Open
FUNC 6a540 81 0 FS::::ZipArchive::OpenFile
FUNC 6a5d0 b5 0 FS::::ZipArchive::ReadFile
FUNC 6a690 a2 0 std::__cxx11::basic_string<char, std::char_traits<char>, std::allocator<char> >::_M_construct<char const*>
FUNC 6a740 3e 0 std::__cxx11::basic_string<char, std::char_traits<char>, std::allocator<char> >::basic_string
FUNC 6a780 35b 0 FS::GetRealPath
FUNC 6aae0 25 0 std::__detail::_Hashtable_alloc<std::allocator<std::__detail::_Hash_node<std::pair<const std::__cxx11::basic_string<char, std::char_traits<char>, std::allocator<char> >, std::pair<unsigned int, long long int> >, true> > >::_M_deallocate_node
FUNC 6ab10 3e 0 std::__detail::_Hashtable_alloc<std::allocator<std::__detail::_Hash_node<std::pair<const std::__cxx11::basic_string<char, std::char_traits<char>, std::allocator<char> >, std::pair<unsigned int, long long int> >, true> > >::_M_allocate_buckets
FUNC 6ab50 fe 0 std::__detail::_Hashtable_alloc<std::allocator<std::__detail::_Hash_node<std::pair<const std::__cxx11::basic_string<char, std::char_traits<char>, std::allocator<char> >, std::pair<unsigned int, long long int> >, true> > >::_M_allocate_node<const std::pair<const std::__cxx11::basic_string<char, std::char_traits<char>, std::allocator<char> >, std::pair<unsigned int, long long int> >&>
FUNC 6ac50 57 0 __tcf_5
FUNC 6af70 8c 0 __tcf_9
FUNC 6b000 ac 0 __tcf_10
FUNC 6b150 61 0 __tcf_6
FUNC 6b1c0 4b 0 __tcf_4
FUNC 6b210 11f 0 std::__upper_bound<__gnu_cxx::__normal_iterator<FS::PakInfo*, std::vector<FS::PakInfo> >, FS::PakInfo, __gnu_cxx::__ops::_Val_comp_iter<FS::RefreshPaks()::<lambda(const FS::PakInfo&, const FS::PakInfo&)> > >
FUNC 6b330 11f 0 std::__lower_bound<__gnu_cxx::__normal_iterator<FS::PakInfo*, std::vector<FS::PakInfo> >, FS::PakInfo, __gnu_cxx::__ops::_Iter_comp_val<FS::RefreshPaks()::<lambda(const FS::PakInfo&, const FS::PakInfo&)> > >
FUNC 6b450 12f 0 Util::Reader::FillTuple<0, std::__cxx11::basic_string<char>, std::tuple<std::__cxx11::basic_string<char, std::char_traits<char>, std::allocator<char> > > >
FUNC 6b580 852 0 std::__move_merge<__gnu_cxx::__normal_iterator<FS::PakInfo*, std::vector<FS::PakInfo> >, FS::PakInfo*, __gnu_cxx::__ops::_Iter_comp_iter<FS::RefreshPaks()::<lambda(const FS::PakInfo&, const FS::PakInfo&)> > >
FUNC 6bde0 8 0 FS::UseLegacyPaks
FUNC 6bdf0 83 0 FS::Path::IsValid
FUNC 6be80 1fc 0 FS::Path::Build
FUNC 6c080 87 0 FS::Path::DirName
FUNC 6c110 89 0 FS::Path::BaseName
FUNC 6c1a0 99 0 FS::Path::Extension
FUNC 6c240 cc 0 FS::Path::StripExtension
FUNC 6c310 c4 0 FS::Path::BaseNameStripExtension
FUNC 6c3e0 4e 0 FS::File::Close
FUNC 6c430 62 0 FS::File::Length
FUNC 6c4a0 72 0 FS::File::Timestamp
FUNC 6c520 5e 0 FS::File::SeekCur
FUNC 6c580 5e 0 FS::File::SeekSet
FUNC 6c5e0 5e 0 FS::File::SeekEnd
FUNC 6c640 11 0 FS::File::Tell
FUNC 6c660 82 0 FS::File::Read
FUNC 6c6f0 5f 0 FS::File::Write
FUNC 6c750 41 0 FS::File::Flush
FUNC 6c7a0 106 0 FS::File::ReadAll
FUNC 6c8b0 7b 0 FS::File::CopyTo
FUNC 6c930 62 0 FS::File::SetLineBuffered
FUNC 6c9a0 6 0 FS::PakPath::GetLoadedPaks
FUNC 6c9b0 20f 0 FS::PakPath::DirectoryRange::InternalAdvance
FUNC 6cbc0 3a 0 FS::PakPath::DirectoryRange::Advance
FUNC 6cc00 19e 0 FS::PakPath::ListFiles
FUNC 6cda0 19e 0 FS::PakPath::ListFilesRecursive
FUNC 6cf40 230 0 FS::RawPath::CreatePathTo
FUNC 6d170 3fe 0 FS::RawPath::OpenMode
FUNC 6d570 15c 0 FS::HomePath::OpenMode
FUNC 6d6d0 2d 0 FS::RawPath::OpenRead
FUNC 6d700 2d 0 FS::RawPath::OpenWrite
FUNC 6d730 2d 0 FS::RawPath::OpenAppend
FUNC 6d760 2d 0 FS::RawPath::OpenEdit
FUNC 6d790 ed 0 FS::RawPath::FileExists
FUNC 6d880 15a 0 FS::RawPath::FileTimestamp
FUNC 6d9e0 16e 0 FS::RawPath::MoveFile
FUNC 6db50 10c 0 FS::RawPath::DeleteFile
FUNC 6dc60 254 0 FS::RawPath::DirectoryRange::Advance
FUNC 6dec0 5ea 0 FS::RawPath::ListFiles
FUNC 6e4b0 2d 0 FS::HomePath::OpenRead
FUNC 6e4e0 2d 0 FS::HomePath::OpenWrite
FUNC 6e510 2d 0 FS::HomePath::OpenAppend
FUNC 6e540 2d 0 FS::HomePath::OpenEdit
FUNC 6e570 19b 0 FS::HomePath::FileExists
FUNC 6e710 163 0 FS::HomePath::FileTimestamp
FUNC 6e880 20d 0 FS::HomePath::MoveFile
FUNC 6ea90 143 0 FS::HomePath::DeleteFile
FUNC 6ebe0 18b 0 FS::HomePath::ListFiles
FUNC 6ed70 91 0 FS::DefaultBasePath
FUNC 6ee10 199 0 FS::DefaultHomePath
FUNC 6efb0 2 0 FS::MigrateHomePath
FUNC 6efc0 13 0 FS::FlushAll
FUNC 6efe0 8 0 FS::IsInitialized
FUNC 6eff0 f7 0 FS::FindPak
FUNC 6f0f0 16c 0 FS::FindPak
FUNC 6f260 327 0 FS::MakePakName
FUNC 6f590 6 0 FS::GetAvailablePaks
FUNC 6f5a0 6 0 FS::GetHomePath
FUNC 6f5b0 6 0 FS::GetLibPath
FUNC 6f5c0 2ef 0 FS::FindPak
FUNC 6f8b0 a 0 __tcf_12
FUNC 6f8c0 917 0 FS::PakPath::CompleteFilename
FUNC 701e0 786 0 FS::HomePath::CompleteFilename
FUNC 70970 3e2 0 FS::ParsePakName
FUNC 70d60 2fb 0 FS::RawPath::RecursiveDirectoryRange::Advance
FUNC 71060 334 0 FS::RawPath::ListFilesRecursive
FUNC 713a0 182 0 FS::HomePath::ListFilesRecursive
FUNC 71530 3ca 0 FS::AddPak
FUNC 71900 4d1 0 FS::FindPaksInPath
FUNC 71de0 21c 0 FS::GetAvailableMapPaks
FUNC 72000 1173 0 IPC::detail::HandleMsg<FS::HandleFileSystemSyscall(int, Util::Reader&, IPC::Channel&, Str::StringRef)::<lambda(std::__cxx11::string&, std::__cxx11::string&, std::vector<FS::PakInfo>&, std::vector<FS::LoadedPakInfo>&, std::unordered_map<std::__cxx11::basic_string<char>, std::pair<unsigned int, long long int> >&)>, IPC::Message<IPC::Id<6, 0> >, IPC::Reply<std::__cxx11::basic_string<char, std::char_traits<char>, std::allocator<char> >, std::__cxx11::basic_string<char, std::char_traits<char>, std::allocator<char> >, std::vector<FS::PakInfo, std::allocator<FS::PakInfo> >, std::vector<FS::LoadedPakInfo, std::allocator<FS::LoadedPakInfo> >, std::unordered_map<std::__cxx11::basic_string<char, std::char_traits<char>, std::allocator<char> >, std::pair<unsigned int, long long int>, std::hash<std::__cxx11::basic_string<char, std::char_traits<char>, std::allocator<char> > >, std::equal_to<std::__cxx11::basic_string<char, std::char_traits<char>, std::allocator<char> > >, std::allocator<std::pair<const std::__cxx11::basic_string<char, std::char_traits<char>, std::allocator<char> >, std::pair<unsigned int, long long int> > > > > >
FUNC 73180 61b 0 FS::PakPath::ReadFile
FUNC 737a0 47e 0 FS::PakPath::CopyFile
FUNC 73c20 60 0 FS::PakPath::FileExists
FUNC 73c80 69 0 FS::PakPath::LocateFile
FUNC 73cf0 1e9 0 FS::PakPath::FileTimestamp
FUNC 73ee0 c42 0 std::__insertion_sort<__gnu_cxx::__normal_iterator<FS::PakInfo*, std::vector<FS::PakInfo> >, __gnu_cxx::__ops::_Iter_comp_iter<FS::RefreshPaks()::<lambda(const FS::PakInfo&, const FS::PakInfo&)> > >
FUNC 74b30 5fd 0 std::__move_merge<FS::PakInfo*, __gnu_cxx::__normal_iterator<FS::PakInfo*, std::vector<FS::PakInfo> >, __gnu_cxx::__ops::_Iter_comp_iter<FS::RefreshPaks()::<lambda(const FS::PakInfo&, const FS::PakInfo&)> > >
FUNC 75130 1d3 0 std::__merge_sort_with_buffer<__gnu_cxx::__normal_iterator<FS::PakInfo*, std::vector<FS::PakInfo> >, FS::PakInfo*, __gnu_cxx::__ops::_Iter_comp_iter<FS::RefreshPaks()::<lambda(const FS::PakInfo&, const FS::PakInfo&)> > >
FUNC 75310 389 0 FS::::ZipArchive::ForEachFile<FS::PakPath::InternalLoadPak(const FS::PakInfo&, Util::optional<unsigned int>, Str::StringRef, std::error_code&)::<lambda(Str::StringRef, FS::offset_t, uint32_t)> >
FUNC 756a0 1348 0 FS::PakPath::InternalLoadPak
FUNC 769f0 30 0 FS::PakPath::LoadPak
FUNC 76a20 30 0 FS::PakPath::LoadPakPrefix
FUNC 76a50 38 0 FS::PakPath::LoadPakExplicit
FUNC 76a90 3a2f 0 FS::HandleFileSystemSyscall
FUNC 7a4c0 1a6 0 std::__merge_without_buffer<__gnu_cxx::__normal_iterator<FS::PakInfo*, std::vector<FS::PakInfo> >, int, __gnu_cxx::__ops::_Iter_comp_iter<FS::RefreshPaks()::<lambda(const FS::PakInfo&, const FS::PakInfo&)> > >
FUNC 7a670 8b 0 std::__inplace_stable_sort<__gnu_cxx::__normal_iterator<FS::PakInfo*, std::vector<FS::PakInfo> >, __gnu_cxx::__ops::_Iter_comp_iter<FS::RefreshPaks()::<lambda(const FS::PakInfo&, const FS::PakInfo&)> > >
FUNC 7a700 39a 0 std::__merge_adaptive<__gnu_cxx::__normal_iterator<FS::PakInfo*, std::vector<FS::PakInfo> >, int, FS::PakInfo*, __gnu_cxx::__ops::_Iter_comp_iter<FS::RefreshPaks()::<lambda(const FS::PakInfo&, const FS::PakInfo&)> > >
FUNC 7aaa0 d0 0 std::__stable_sort_adaptive<__gnu_cxx::__normal_iterator<FS::PakInfo*, std::vector<FS::PakInfo> >, FS::PakInfo*, int, __gnu_cxx::__ops::_Iter_comp_iter<FS::RefreshPaks()::<lambda(const FS::PakInfo&, const FS::PakInfo&)> > >
FUNC 7ab70 371 0 FS::RefreshPaks
FUNC 7aef0 102 0 FS::PakPath::ClearPaks
FUNC 7b000 80f 0 FS::Initialize
FUNC 7b810 616 0 FS::GetAvailableMaps
FUNC 7be30 2c 0 IPC::FreeHandles
FUNC 7be60 a 0 __tcf_0
FUNC 7be70 a2 0 std::__cxx11::basic_string<char, std::char_traits<char>, std::allocator<char> >::_M_construct<char const*>
FUNC 7bf20 11 0 IPC::FileDesc::Close
FUNC 7bf40 85 0 IPC::FileHandle::GetDesc
FUNC 7bfd0 a9 0 IPC::FileHandle::FromDesc
FUNC 7c080 43 0 IPC::OwnedFileHandle::~OwnedFileHandle
FUNC 7c0d0 2e 0 IPC::Socket::Close
FUNC 7c100 14 0 IPC::Socket::GetDesc
FUNC 7c120 13 0 IPC::Socket::FromDesc
FUNC 7c140 b 0 IPC::Socket::FromHandle
FUNC 7c150 3 0 IPC::Socket::SetRecvTimeout
FUNC 7c160 34 0 IPC::SharedMemory::Close
FUNC 7c1a0 21 0 IPC::SharedMemory::GetDesc
FUNC 7c1d0 104a 0 Sys::Drop<char (&)[256]>
FUNC 7d220 32c 0 IPC::InternalSendMsg
FUNC 7d550 ca 0 IPC::Socket::SendMsg
FUNC 7d620 55 0 IPC::Socket::CreatePair
FUNC 7d680 1076 0 Sys::Drop<unsigned int&, std::__cxx11::basic_string<char, std::char_traits<char>, std::allocator<char> > >
FUNC 7e700 f5 0 IPC::MapSharedMemory
FUNC 7e800 ae 0 IPC::SharedMemory::FromDesc
FUNC 7e8b0 283 0 IPC::SharedMemory::Create
FUNC 7eb40 1474 0 IPC::InternalRecvMsg
FUNC 7ffc0 134 0 IPC::Socket::RecvMsg
FUNC 80100 a 0 __tcf_0
FUNC 80110 a2 0 std::__cxx11::basic_string<char, std::char_traits<char>, std::allocator<char> >::_M_construct<char const*>
FUNC 801c0 3e 0 std::__detail::_Hashtable_alloc<std::allocator<std::__detail::_Hash_node<std::pair<const Str::BasicStringRef<char>, keyNum_t>, true> > >::_M_allocate_buckets
FUNC 80200 dd 0 Keyboard::CharToString
FUNC 802e0 9d 0 Keyboard::KeynumToString
FUNC 80380 a 0 __tcf_1
FUNC 80390 a 0 __tcf_2
FUNC 803a0 a 0 __tcf_0
FUNC 803b0 6c 0 std::__cxx11::basic_string<char32_t, std::char_traits<char32_t>, std::allocator<char32_t> >::_M_create
FUNC 80420 32 0 Util::LineEditData::LineEditData
FUNC 80460 3 0 Util::LineEditData::GetText
FUNC 80480 9 0 Util::LineEditData::GetViewText
FUNC 80490 4 0 Util::LineEditData::GetViewStartPos
FUNC 804a0 4 0 Util::LineEditData::GetCursorPos
FUNC 804b0 7 0 Util::LineEditData::GetViewCursorPos
FUNC 804c0 187 0 Util::LineEditData::SetText
FUNC 80650 f 0 Util::LineEditData::CursorStart
FUNC 80660 42 0 Util::LineEditData::SwapWithNext
FUNC 806b0 1e 0 Util::LineEditData::Clear
FUNC 806d0 4 0 Util::LineEditData::GetWidth
FUNC 806e0 41 0 Util::LineEditData::UpdateScroll
FUNC 80730 f 0 Util::LineEditData::SetCursor
FUNC 80740 1a 0 Util::LineEditData::CursorRight
FUNC 80760 b 0 Util::LineEditData::CursorEnd
FUNC 80770 20 0 Util::LineEditData::CursorLeft
FUNC 80790 19 0 Util::LineEditData::SetWidth
FUNC 807b0 191 0 Util::LineEditData::AddChar
FUNC 80950 85 0 Util::LineEditData::DeletePrev
FUNC 809e0 6f 0 Util::LineEditData::DeleteNext
FUNC 80a50 a 0 __tcf_1
FUNC 80a60 a2 0 std::__cxx11::basic_string<char, std::char_traits<char>, std::allocator<char> >::_M_construct<char const*>
FUNC 80b10 89 0 __tcf_0
FUNC 80ba0 4b 0 __tcf_2
FUNC 80bf0 1ee 0 Log::Logger::Prefix
FUNC 80de0 f0 0 Log::ParseCvarValue
FUNC 80ed0 e4 0 Log::SerializeCvarValue
FUNC 80fc0 2d 0 Cvar::GetCvarTypeName<Log::Level>
FUNC 80ff0 492 0 Log::DispatchByLevel
FUNC 81490 118 0 Log::CommandInteractionMessage
FUNC 815b0 c5 0 Log::Logger::WithoutSuppression
FUNC 81680 462 0 Log::Logger::Logger
FUNC 81af0 155 0 Log::GetCvarOrDie<int>
FUNC 81c50 a36 0 Log::DispatchWithSuppression
FUNC 82690 1e5 0 Log::Logger::Dispatch
FUNC 82880 171 0 Str::UTF8_DecodeSequence
FUNC 82a00 a 0 __tcf_0
FUNC 82a10 1c3 0 Str::UTF8_Append
FUNC 82be0 1a 0 Str::AssertOnTinyFormatError
FUNC 82c00 cd 0 Str::ParseInt
FUNC 82cd0 2f 0 Str::ToFloat
FUNC 82d00 41 0 Str::ToFloat
FUNC 82d50 1d 0 Str::GetHex
FUNC 82d70 11 0 Str::HexDigit
FUNC 82d90 16d 0 Str::ToUpper
FUNC 82f00 16d 0 Str::ToLower
FUNC 83070 46 0 Str::IsPrefix
FUNC 830c0 47 0 Str::IsSuffix
FUNC 83110 46 0 Str::LongestPrefixSize
FUNC 83160 142 0 Str::IsIPrefix
FUNC 832b0 15a 0 Str::LongestIPrefixSize
FUNC 83410 8d 0 Str::IsIEqual
FUNC 834a0 275 0 Str::UTF8To32
FUNC 83720 db 0 Str::UTF32To8
FUNC 83800 1b0 0 Str::UTF8To16
FUNC 839b0 1d7 0 Str::UTF16To8
FUNC 83b90 a 0 __tcf_0
FUNC 83ba0 a2 0 std::__cxx11::basic_string<char, std::char_traits<char>, std::allocator<char> >::_M_construct<char const*>
FUNC 83c50 db 0 Sys::SteadyClock::now
FUNC 83d30 6e 0 Sys::Milliseconds
FUNC 83da0 116 0 Sys::Drop
FUNC 83ec0 17 0 Sys::SetupCrashHandler
FUNC 83ee0 25 0 Sys::DynamicLib::Close
FUNC 83f10 16 0 Sys::OSExit
FUNC 83f30 8 0 Sys::IsProcessTerminating
FUNC 83f40 2b 0 operator new
FUNC 83f70 15 0 operator delete
FUNC 83f90 67 0 Com_Error
FUNC 84000 603 0 Sys::Error<std::__cxx11::basic_string<char, std::char_traits<char>, std::allocator<char> >&>
FUNC 84610 61b 0 Sys::Error<long unsigned int&, char const*>
FUNC 84c30 1b4 0 Sys::CrashHandler
FUNC 84df0 88f 0 Sys::Win32StrError
FUNC 85680 1b3 0 Sys::DynamicLib::Open
FUNC 85840 10e 0 Sys::DynamicLib::InternalLoadSym
FUNC 85950 32 0 Sys::DynamicLib::InternalLoadSym
FUNC 85990 329 0 Sys::SleepFor
FUNC 85cc0 4d 0 Sys::SleepUntil
FUNC 85d10 17c 0 Sys::GenRandomBytes
FUNC 85e90 22 0 __tcf_3
FUNC 85ec0 a 0 __tcf_0
FUNC 85ed0 4b 0 __tcf_2
FUNC 85f20 a2 0 std::__cxx11::basic_string<char, std::char_traits<char>, std::allocator<char> >::_M_construct<char const*>
FUNC 85fd0 57 0 __tcf_1
FUNC 86030 38 0 CM_FreeAll
FUNC 86070 69 0 CM_BoundBrush
FUNC 860e0 17 0 CM_ClearMap
FUNC 86100 2b 0 CM_InlineModel
FUNC 86130 6 0 CM_NumInlineModels
FUNC 86140 6 0 CM_EntityString
FUNC 86150 39 0 CM_LeafCluster
FUNC 86190 3a 0 CM_LeafArea
FUNC 861d0 568 0 CM_TempBoxModel
FUNC 86740 104a 0 Sys::Drop<int&>
FUNC 87790 70 0 CM_Alloc
FUNC 87800 81 0 CMod_LoadShaders
FUNC 87890 16e 0 CMod_LoadSubmodels
FUNC 87a00 9a 0 CMod_LoadNodes
FUNC 87aa0 f7 0 CMod_LoadBrushes
FUNC 87ba0 125 0 CMod_LoadLeafs
FUNC 87cd0 10c 0 CMod_LoadPlanes
FUNC 87de0 58 0 CMod_LoadLeafBrushes
FUNC 87e40 58 0 CMod_LoadLeafSurfaces
FUNC 87ea0 d4 0 CMod_LoadBrushSides
FUNC 87f80 9d 0 CMod_LoadVisibility
FUNC 88020 324 0 CMod_LoadSurfaces
FUNC 88350 142 0 CM_InitBoxHull
FUNC 884a0 451 0 CMod_LoadEntityString
FUNC 88900 1780 0 CM_LoadMap
FUNC 8a080 116 0 CM_ClipHandleToModel
FUNC 8a1a0 58 0 CM_ModelBounds
FUNC 8a200 7d 0 CM_SetGridWrapWidth
FUNC 8a280 1c8 0 CM_RemoveDegenerateColumns
FUNC 8a450 40a 0 CM_SubdivideGridColumns
FUNC 8a860 a 0 __tcf_0
FUNC 8a870 a2 0 std::__cxx11::basic_string<char, std::char_traits<char>, std::allocator<char> >::_M_construct<char const*>
FUNC 8a920 4bd 0 CM_SetBorderInward
FUNC 8ade0 143 0 CM_GridPlane
FUNC 8af30 15 0 CM_ClearLevelPatches
FUNC 8af50 1531 0 CM_GeneratePatchCollide
FUNC 8c490 a 0 __tcf_0
FUNC 8c4a0 cb 0 CM_CreateNewFloatPlane
FUNC 8c570 a2 0 std::__cxx11::basic_string<char, std::char_traits<char>, std::allocator<char> >::_M_construct<char const*>
FUNC 8c620 37 0 CM_ResetPlaneCounts
FUNC 8c660 25 0 CM_SignbitsForNormal
FUNC 8c690 e4 0 CM_PlaneFromPoints
FUNC 8c780 11d 0 CM_PlaneEqual
FUNC 8c8a0 9c 0 CM_SnapVector
FUNC 8c940 9e 0 CM_FindPlane2
FUNC 8c9e0 1be 0 CM_FindPlane
FUNC 8cba0 59 0 CM_GenerateBoundaryForPoints
FUNC 8cc00 77 0 CM_PointOnPlaneSide
FUNC 8cc80 1e2 0 CM_ValidateFacet
FUNC 8ce70 ac9 0 CM_AddFacetBevels
FUNC 8d940 be 0 CM_GenerateFacetFor3Points
FUNC 8da00 a 0 __tcf_0
FUNC 8da10 4c 0 AllocWinding
FUNC 8da60 38 0 FreeWinding
FUNC 8daa0 79 0 WindingBounds
FUNC 8db20 2e1 0 BaseWindingForPlane
FUNC 8de10 39 0 CopyWinding
FUNC 8de50 33b 0 ChopWindingInPlace
FUNC 8e190 3c 0 CM_StoreLeafs
FUNC 8e1d0 a 0 __tcf_0
FUNC 8e1e0 a2 0 std::__cxx11::basic_string<char, std::char_traits<char>, std::allocator<char> >::_M_construct<char const*>
FUNC 8e290 57 0 __tcf_1
FUNC 8e2f0 8b 0 CM_PointLeafnum_r
FUNC 8e380 2b 0 CM_PointLeafnum
FUNC 8e3b0 76 0 CM_BoxLeafnums_r
FUNC 8e430 a5 0 CM_BoxLeafnums
FUNC 8e4e0 29 0 CM_ClusterPVS
FUNC 8e510 88 0 CM_FloodArea_r
FUNC 8e5a0 5c 0 CM_FloodAreaConnections
FUNC 8e600 e0 0 CM_AdjustAreaPortalState
FUNC 8e6e0 57 0 CM_AreasConnected
FUNC 8e740 a2 0 CM_WriteAreaBits
FUNC 8e7f0 c5 0 CM_BoundsIntersect
FUNC 8e8c0 af 0 CM_BoundsIntersectPoint
FUNC 8e970 138 0 CM_PointContents
FUNC 8eab0 23 0 CM_PointContents
FUNC 8eae0 133 0 CM_TransformedPointContents
FUNC 8ec20 a 0 __tcf_0
FUNC 8ec30 33d 0 CM_PositionTestInSurfaceCollide
FUNC 8ef70 300 0 CM_TracePointThroughSurfaceCollide
FUNC 8f270 a2 0 std::__cxx11::basic_string<char, std::char_traits<char>, std::allocator<char> >::_M_construct<char const*>
FUNC 8f320 57 0 __tcf_1
FUNC 8f380 81 0 RotatePoint
FUNC 8f410 34 0 TransposeMatrix
FUNC 8f450 33 0 CreateRotationMatrix
FUNC 8f490 bf 0 CM_ProjectPointOntoVector
FUNC 8f550 152 0 CM_DistanceFromLineSquared
FUNC 8f6b0 3ad 0 CM_TestInLeaf
FUNC 8fa60 386 0 CM_TestCapsuleInCapsule
FUNC 8fdf0 f2 0 CM_TestBoundingBoxInCapsule
FUNC 8fef0 128 0 CM_PositionTest
FUNC 90020 22 0 CM_TracePointThroughSurfaceCollide
FUNC 90050 117 0 CM_CheckFacetPlane
FUNC 90170 6f7 0 CM_TraceThroughSurfaceCollide
FUNC 90870 e5 0 CM_TraceThroughSurface
FUNC 90960 c4 0 CM_ProximityToSurface
FUNC 90a30 6dd 0 CM_TraceThroughBrush
FUNC 91110 1e7 0 CM_ProximityToBrush
FUNC 91300 254 0 CM_TraceThroughLeaf
FUNC 91560 3ad 0 CM_TraceThroughTree
FUNC 91910 35a 0 CM_TraceThroughSphere
FUNC 91c70 422 0 CM_TraceThroughVerticalCylinder
FUNC 920a0 329 0 CM_TraceCapsuleThroughCapsule
FUNC 923d0 f2 0 CM_TraceBoundingBoxThroughCapsule
FUNC 924d0 682 0 CM_Trace
FUNC 92b60 53 0 CM_BoxTrace
FUNC 92bc0 4da 0 CM_TransformedBoxTrace
FUNC 930a0 35d 0 CM_BiSphereTrace
FUNC 93400 1a3 0 CM_TransformedBiSphereTrace
FUNC 935b0 e4 0 CM_DistanceToModel
FUNC 936a0 256 0 CM_DrawDebugSurface
FUNC 93900 a 0 __tcf_0
FUNC 93910 a2 0 std::__cxx11::basic_string<char, std::char_traits<char>, std::allocator<char> >::_M_construct<char const*>
FUNC 939c0 104b 0 Sys::Error<int&>
FUNC 94a10 10b5 0 Sys::Drop<int&, float (*&)[3], int&, int*&>
FUNC 95ad0 73c 0 CM_GenerateTriangleSoupCollide
FUNC 96210 5f 0 m3_det
FUNC 96270 98 0 m4_submat
FUNC 96310 a 0 __tcf_0
FUNC 96320 10 0 Q_rand
FUNC 96330 31 0 Q_random
FUNC 96370 47 0 Q_crandom
FUNC 963c0 1a 0 ClampByte
FUNC 963e0 1b 0 ClampChar
FUNC 96400 5f 0 DirToByte
FUNC 96460 67 0 ByteToDir
FUNC 964d0 d0 0 PlaneNormalize
FUNC 965a0 152 0 RotatePointAroundVector
FUNC 96700 1ad 0 vectoangles
FUNC 968b0 45 0 AxisClear
FUNC 96900 61 0 AxisCopy
FUNC 96970 6e 0 ProjectPointOnPlane
FUNC 969e0 8c 0 ProjectPointOntoRectangleOutwards
FUNC 96a70 4d 0 ExponentialFade
FUNC 96ac0 64 0 LerpAngle
FUNC 96b30 7b 0 AngleSubtract
FUNC 96bb0 138 0 AnglesSubtract
FUNC 96cf0 3e 0 AngleMod
FUNC 96d40 4f 0 AngleNormalize180
FUNC 96d90 55 0 AngleDelta
FUNC 96df0 f0 0 AngleBetweenVectors
FUNC 96ee0 26 0 SetPlaneSignbits
FUNC 96f10 d3 0 BoxOnPlaneSide
FUNC 96ff0 83 0 RadiusFromBounds
FUNC 97080 31 0 ZeroBounds
FUNC 970c0 35 0 ClearBounds
FUNC 97100 68 0 AddPointToBounds
FUNC 97170 6d 0 BoundsAdd
FUNC 971e0 53 0 BoundsIntersect
FUNC 97240 69 0 BoundsIntersectSphere
FUNC 972b0 42 0 BoundsIntersectPoint
FUNC 97300 bb 0 BoundsMaxExtent
FUNC 973c0 2e 0 VectorCompare
FUNC 973f0 9d 0 VectorNormalize
FUNC 97490 de 0 PlaneFromPoints
FUNC 97570 101 0 PlaneFromPointsOrder
FUNC 97680 f1 0 MakeNormalVectors
FUNC 97780 7f 0 VectorNormalizeFast
FUNC 97800 ca 0 VectorNormalize2
FUNC 978d0 bb 0 PlaneIntersectRay
FUNC 97990 262 0 PlanesGetIntersectionPoint
FUNC 97c00 5f 0 CrossProduct
FUNC 97c60 39 0 VectorLength
FUNC 97ca0 35 0 VectorLengthSquared
FUNC 97ce0 4b 0 Distance
FUNC 97d30 47 0 DistanceSquared
FUNC 97d80 35 0 VectorInverse
FUNC 97dc0 22 0 NearestPowerOfTwo
FUNC 97df0 189 0 AxisMultiply
FUNC 97f80 1d2 0 AngleVectors
FUNC 98160 65 0 AnglesToAxis
FUNC 981d0 98 0 PerpendicularVector
FUNC 98270 be 0 RotateAroundDirection
FUNC 98330 f7 0 GetPerpendicularViewVector
FUNC 98430 e7 0 ProjectPointOntoVector
FUNC 98520 375 0 DistanceBetweenLineSegmentsSquared
FUNC 988a0 1a1 0 ProjectPointOntoVectorBounded
FUNC 98a50 120 0 DistanceFromLineSquared
FUNC 98b70 243 0 AxisToAngles
FUNC 98dd0 74 0 MatrixIdentity
FUNC 98e50 74 0 MatrixClear
FUNC 98ed0 a7 0 MatrixCopy
FUNC 98f80 d3 0 MatrixCompare
FUNC 99060 a7 0 MatrixTranspose
FUNC 99110 197 0 MatrixInverse
FUNC 992b0 c8 0 MatrixSetupXRotation
FUNC 99380 c2 0 MatrixSetupYRotation
FUNC 99450 cc 0 MatrixSetupZRotation
FUNC 99520 80 0 MatrixSetupTranslation
FUNC 995a0 80 0 MatrixSetupScale
FUNC 99620 7c 0 MatrixSetupShear
FUNC 996a0 6a 0 MatrixMultiply
FUNC 99710 d2 0 MatrixMultiply2
FUNC 997f0 138 0 MatrixMultiplyZRotation
FUNC 99930 be 0 MatrixMultiplyTranslation
FUNC 999f0 b1 0 MatrixMultiplyScale
FUNC 99ab0 a2 0 MatrixMultiplyShear
FUNC 99b60 1c3 0 MatrixToAngles
FUNC 99d30 228 0 MatrixFromAngles
FUNC 99f60 114 0 MatrixMultiplyRotation
FUNC 9a080 9a 0 MatrixFromVectorsFLU
FUNC 9a120 ab 0 MatrixFromVectorsFRU
FUNC 9a1d0 14b 0 MatrixFromQuat
FUNC 9a320 174 0 MatrixFromPlanes
FUNC 9a4a0 75 0 MatrixToVectorsFLU
FUNC 9a520 86 0 MatrixToVectorsFRU
FUNC 9a5b0 a8 0 MatrixSetupTransformFromVectorsFLU
FUNC 9a660 b8 0 MatrixSetupTransformFromVectorsFRU
FUNC 9a720 9e 0 MatrixSetupTransformFromRotation
FUNC 9a7c0 c0 0 MatrixSetupTransformFromQuat
FUNC 9a880 fd 0 MatrixAffineInverse
FUNC 9a980 89 0 MatrixTransformNormal
FUNC 9aa10 81 0 MatrixTransformNormal2
FUNC 9aaa0 98 0 MatrixTransformPoint
FUNC 9ab40 90 0 MatrixTransformPoint2
FUNC 9abd0 eb 0 MatrixTransform4
FUNC 9acc0 76 0 MatrixTransformPlane
FUNC 9ad40 50 0 MatrixTransformPlane2
FUNC 9ad90 264 0 MatrixTransformBounds
FUNC 9b000 d8 0 MatrixPerspectiveProjection
FUNC 9b0e0 ec 0 MatrixPerspectiveProjectionLH
FUNC 9b1d0 d0 0 MatrixPerspectiveProjectionRH
FUNC 9b2a0 fe 0 MatrixPerspectiveProjectionFovYAspectLH
FUNC 9b3a0 131 0 MatrixPerspectiveProjectionFovXYLH
FUNC 9b4e0 11f 0 MatrixPerspectiveProjectionFovXYRH
FUNC 9b600 103 0 MatrixPerspectiveProjectionFovXYInfiniteRH
FUNC 9b710 f2 0 MatrixOrthogonalProjection
FUNC 9b810 fa 0 MatrixOrthogonalProjectionLH
FUNC 9b910 df 0 MatrixOrthogonalProjectionRH
FUNC 9b9f0 12b 0 MatrixPlaneReflection
FUNC 9bb20 1dd 0 MatrixLookAtLH
FUNC 9bd00 1e9 0 MatrixLookAtRH
FUNC 9bef0 ef 0 MatrixScaleTranslateToUnitCube
FUNC 9bfe0 f9 0 MatrixCrop
FUNC 9c0e0 b6 0 QuatNormalize
FUNC 9c1a0 22d 0 QuatFromMatrix
FUNC 9c3d0 49 0 QuatFromAngles
FUNC 9c420 a8 0 QuatToVectorsFLU
FUNC 9c4e0 91 0 QuatToAxis
FUNC 9c580 258 0 QuatToAngles
FUNC 9c7e0 e8 0 QuatMultiply
FUNC 9c8d0 4e 0 QuatMultiply2
FUNC 9c920 29c 0 QuatSlerp
FUNC 9cbc0 ff 0 QuatTransformVector
FUNC 9ccc0 107 0 QuatTransformVectorInverse
FUNC 9cdd0 68 0 internalTime
FUNC 9ce40 a 0 __tcf_0
FUNC 9ce50 77 0 Q_strnicmp
FUNC 9ced0 a2 0 std::__cxx11::basic_string<char, std::char_traits<char>, std::allocator<char> >::_M_construct<char const*>
FUNC 9cf80 29 0 Com_InitGrowList
FUNC 9cfb0 33 0 Com_DestroyGrowList
FUNC 9cff0 29 0 Com_Clamp
FUNC 9d020 24 0 COM_FixPath
FUNC 9d050 24 0 COM_SkipPath
FUNC 9d080 c9 0 Com_SkipTokens
FUNC 9d150 4b 0 COM_GetExtension
FUNC 9d1a0 29 0 COM_StripExtension
FUNC 9d1d0 42 0 COM_StripExtension2
FUNC 9d220 55 0 Com_HashKey
FUNC 9d280 151 0 Com_EntityTypeName
FUNC 9d3e0 2 0 COM_BackupParseSession
FUNC 9d3f0 b0 0 COM_Compress
FUNC 9d4a0 250 0 COM_ParseExt
FUNC 9d6f0 1b 0 COM_Parse
FUNC 9d710 433 0 COM_ParseExt2
FUNC 9db50 1b 0 COM_Parse2
FUNC 9db70 5b 0 SkipBracedSection_Depth
FUNC 9dbd0 5b 0 SkipBracedSection
FUNC 9dc30 2d 0 SkipRestOfLine
FUNC 9dc60 80 0 Com_HexStrToInt
FUNC 9dce0 1a8 0 Com_ClearForeignCharacters
FUNC 9de90 3c 0 Q_strtoi
FUNC 9ded0 8a 0 Q_strncpyz
FUNC 9df60 78 0 COM_StripExtension3
FUNC 9dfe0 62 0 Q_strncmp
FUNC 9e050 89 0 Q_stricmp
FUNC 9e0e0 29 0 Q_strlwr
FUNC 9e110 29 0 Q_strupr
FUNC 9e140 4d 0 Q_strcat
FUNC 9e190 36 0 Q_strnicmp
FUNC 9e1d0 89 0 Q_stristr
FUNC 9e260 a0 0 Com_StringContains
FUNC 9e300 367 0 Com_Filter
FUNC 9e670 69 0 Q_isBadDirChar
FUNC 9e6e0 29 0 Q_CountChar
FUNC 9e710 cc 0 va
FUNC 9e7e0 28 0 InfoValidItem
FUNC 9e810 86 0 Info_NextPair
FUNC 9e8a0 3a 0 Info_Validate
FUNC 9e8e0 43 0 Com_ClientListContains
FUNC 9e930 2f 0 Com_ClientListAdd
FUNC 9e960 2f 0 Com_ClientListRemove
FUNC 9e990 56 0 Com_ClientListParse
FUNC 9e9f0 89 0 VectorMatrixMultiply
FUNC 9ea80 7d 0 Q_ParseNewlines
FUNC 9eb00 e 0 Com_RealTime
FUNC 9eb10 e 0 Com_GMTime
FUNC 9eb20 3a9 0 Info_ValueForKey
FUNC 9eed0 1085 0 Sys::Drop<char*&, char const*&>
FUNC 9ff60 45 0 COM_MatchToken
FUNC 9ffb0 141 0 Info_RemoveKey
FUNC a0100 60 0 COM_ParseError
FUNC a0160 60 0 COM_ParseWarning
FUNC a01c0 38f 0 InfoMapToString
FUNC a0550 1ef 0 Com_AddToGrowList
FUNC a0740 b0 0 Com_sprintf
FUNC a07f0 82 0 COM_DefaultExtension
FUNC a0880 35 0 COM_BeginParseSession
FUNC a08c0 44 0 Com_ClientListString
FUNC a0910 f2 0 Com_GrowListElement
FUNC a0a10 162 0 Info_SetValueForKeyRocket
FUNC a0b80 24b 0 Info_SetValueForKey
FUNC a0dd0 170 0 Com_ParseInfos
FUNC a0f40 919 0 InfoStringToMap
FUNC a1860 26 0 CmpHalfOpenInterval
FUNC a1890 1b 0 CmpFirstElement
FUNC a18b0 a 0 __tcf_0
FUNC a18c0 81 0 Q_UTF8_Width
FUNC a1950 38 0 Q_UTF8_WidthCP
FUNC a1990 2a 0 Q_UTF8_Strlen
FUNC a19c0 12 0 Q_UTF8_ContByte
FUNC a19e0 245 0 Q_UTF8_CodePoint
FUNC a1c30 f9 0 Q_UTF8_Encode
FUNC a1d30 40 0 Q_Unicode_IsAlpha
FUNC a1d70 40 0 Q_Unicode_IsUpper
FUNC a1db0 40 0 Q_Unicode_IsLower
FUNC a1df0 40 0 Q_Unicode_IsIdeo
FUNC a1e30 40 0 Q_Unicode_IsDigit
FUNC a1e70 8c 0 Q_Unicode_IsAlphaOrIdeo
FUNC a1f00 bb 0 Q_Unicode_IsAlphaOrIdeoOrDigit
FUNC a1fc0 24 0 Q_Unicode_IsPrivateUse
FUNC a1ff0 4a 0 Q_Unicode_ToUpper
FUNC a2040 4a 0 Q_Unicode_ToLower
FUNC a2090 3 0 Application::Application::LoadInitialConfig
FUNC a20a0 3 0 Application::Application::Initialize
FUNC a20b0 3 0 Application::Application::Shutdown
FUNC a20c0 a 0 __tcf_0
FUNC a20d0 a2 0 std::__cxx11::basic_string<char, std::char_traits<char>, std::allocator<char> >::_M_construct<char const*>
FUNC a2180 25 0 Application::Traits::Traits
FUNC a21b0 2c 0 Application::Application::Application
FUNC a21e0 4 0 Application::Application::GetTraits
FUNC a21f0 32 0 Application::LoadInitialConfig
FUNC a2230 3b 0 Application::Initialize
FUNC a2270 27 0 Application::Frame
FUNC a22a0 3b 0 Application::OnDrop
FUNC a22e0 47 0 Application::Shutdown
FUNC a2330 1d 0 Application::OnUnhandledCommand
FUNC a2350 f 0 Application::GetTraits
FUNC a2360 3c 0 Application::Application::OnUnhandledCommand
FUNC a23a0 2 0 __tcf_1
FUNC a23b0 a 0 __tcf_0
FUNC a23c0 a2 0 std::__cxx11::basic_string<char, std::char_traits<char>, std::allocator<char> >::_M_construct<char const*>
FUNC a2580 57 0 __tcf_11
FUNC a25e0 62e 0 Cmd::GetAliasConfigText
FUNC a2c10 110d 0 Cmd::CmdBase::Print<char const*>
FUNC a3d20 d0 0 Cmd::CmdBase::Print<const std::__cxx11::basic_string<char, std::char_traits<char>, std::allocator<char> >&>
FUNC a3df0 99 0 Cmd::DelayFrame
FUNC a3e90 25 0 __tcf_15
FUNC a3ec0 19c 0 Cmd::CompleteDelayName
FUNC a4060 19a 0 Cmd::CompleteAliasName
FUNC a4200 a 0 __tcf_0
FUNC a4210 a2 0 std::__cxx11::basic_string<char, std::char_traits<char>, std::allocator<char> >::_M_construct<char const*>
FUNC a42c0 1e4 0 IPC::CommandBufferHost::CommandBufferHost
FUNC a44b0 104a 0 Sys::Drop<std::__cxx11::basic_string<char, std::char_traits<char>, std::allocator<char> >&>
FUNC a5500 265 0 IPC::CommandBufferHost::ConsumeOne
FUNC a5770 7d 0 IPC::CommandBufferHost::Init
FUNC a57f0 1ce 0 IPC::CommandBufferHost::Consume
FUNC a59c0 a82 0 IPC::CommandBufferHost::Syscall
FUNC a6450 2 0 __tcf_6
FUNC a6460 45 0 __tcf_2
FUNC a64b0 41 0 __tcf_3
FUNC a6500 a 0 __tcf_0
FUNC a6510 4b 0 __tcf_1
FUNC a6560 a2 0 std::__cxx11::basic_string<char, std::char_traits<char>, std::allocator<char> >::_M_construct<char const*>
FUNC a6610 e2 0 Cmd::DefaultEnvironment::Print
FUNC a6790 61 0 __tcf_5
FUNC a6800 61 0 __tcf_4
FUNC a6870 109 0 Cmd::GetCommandMap
FUNC a6980 6 0 Cmd::GetCurrentArgs
FUNC a6990 6 0 Cmd::GetEnv
FUNC a69a0 1b 0 Cmd::SetCurrentArgs
FUNC a69c0 1b 0 Cmd::SaveArgs
FUNC a69e0 1b 0 Cmd::LoadArgs
FUNC a6a00 555 0 Cmd::BufferCommandTextInternal
FUNC a6f60 34 0 Cmd::BufferCommandText
FUNC a6fa0 34 0 Cmd::BufferCommandTextAfter
FUNC a6fe0 32 0 Cmd::DefaultEnvironment::ExecuteAfter
FUNC a7020 4f 0 Cmd::RemoveFlaggedCommands
FUNC a7070 47 0 Cmd::RemoveSameCommands
FUNC a70c0 2d7 0 Cmd::CompleteCommandNames
FUNC a73a0 d7 0 Cmd::ChangeDescription
FUNC a7480 22 0 Cmd::CommandExists
FUNC a74b0 391 0 Cmd::ExecuteCommand
FUNC a7850 319 0 Cmd::ExecuteCommandBuffer
FUNC a7b70 234 0 Cmd::CompleteArgument
FUNC a7db0 db 0 Cmd::RemoveCommand
FUNC a7e90 436 0 Cmd::AddCommand
FUNC a82d0 a 0 __tcf_0
FUNC a82e0 a2 0 std::__cxx11::basic_string<char, std::char_traits<char>, std::allocator<char> >::_M_construct<char const*>
FUNC a8390 12f 0 Util::Reader::FillTuple<0, std::__cxx11::basic_string<char>, std::tuple<std::__cxx11::basic_string<char, std::char_traits<char>, std::allocator<char> > > >
FUNC a84c0 51d 0 VM::CommonVMServices::EnvPrint
FUNC a89e0 553 0 VM::CommonVMServices::EnvExecuteAfter
FUNC a8f40 14e 0 VM::CommonVMServices::CommonVMServices
FUNC a9090 184 0 VM::CommonVMServices::~CommonVMServices
FUNC a9220 4 0 VM::CommonVMServices::GetVM
FUNC a9230 1085 0 Sys::Drop<int&, std::__cxx11::basic_string<char, std::char_traits<char>, std::allocator<char> >&>
FUNC aa2c0 5d1 0 VM::CommonVMServices::HandleLogSyscall
FUNC aa8a0 76d 0 VM::CommonVMServices::SetCvar
FUNC ab010 562 0 VM::CommonVMServices::AddCvarFlags
FUNC ab580 f5d 0 VM::CommonVMServices::RegisterCvar
FUNC ac4e0 904 0 VM::CommonVMServices::HandleMiscSyscall
FUNC acdf0 6d1 0 VM::CommonVMServices::GetCvar
FUNC ad4d0 97 0 VM::CommonVMServices::HandleCvarSyscall
FUNC ad570 3e46 0 VM::CommonVMServices::HandleCommonQVMSyscall
FUNC b13c0 570 0 VM::CommonVMServices::RemoveCommand
FUNC b1930 9ab 0 VM::CommonVMServices::AddCommand
FUNC b22e0 97 0 VM::CommonVMServices::HandleCommandSyscall
FUNC b2380 344 0 VM::CommonVMServices::Syscall
FUNC b26d0 a 0 __tcf_0
FUNC b26e0 a2 0 std::__cxx11::basic_string<char, std::char_traits<char>, std::allocator<char> >::_M_construct<char const*>
FUNC b2790 6c 0 std::__cxx11::basic_string<char32_t, std::char_traits<char32_t>, std::allocator<char32_t> >::_M_create
FUNC b2800 52d 0 std::__unguarded_linear_insert<__gnu_cxx::__normal_iterator<std::pair<std::__cxx11::basic_string<char>, std::__cxx11::basic_string<char> >*, std::vector<std::pair<std::__cxx11::basic_string<char>, std::__cxx11::basic_string<char> > > >, __gnu_cxx::__ops::_Val_less_iter>
FUNC b2d30 b3 0 Console::Field::Field
FUNC b2df0 126 0 Console::Field::HistoryPrev
FUNC b2f20 126 0 Console::Field::HistoryNext
FUNC b3050 430 0 Console::Field::RunCommand
FUNC b3480 c9f 0 std::__introsort_loop<__gnu_cxx::__normal_iterator<std::pair<std::__cxx11::basic_string<char>, std::__cxx11::basic_string<char> >*, std::vector<std::pair<std::__cxx11::basic_string<char>, std::__cxx11::basic_string<char> > > >, int, __gnu_cxx::__ops::_Iter_less_iter>
FUNC b4120 31ce 0 Console::Field::AutoComplete
FUNC b72f0 61 0 __tcf_1
FUNC b7360 41 0 __tcf_2
FUNC b73b0 a 0 __tcf_0
FUNC b73c0 a2 0 std::__cxx11::basic_string<char, std::char_traits<char>, std::allocator<char> >::_M_construct<char const*>
FUNC b7470 18 0 Console::History::History
FUNC b7490 2b 0 Console::History::GetFilename
FUNC b74c0 1d3 0 Console::History::PrevLine
FUNC b76a0 167 0 Console::History::NextLine
FUNC b7810 318 0 Console::History::Save
FUNC b7b30 537 0 Console::History::Load
FUNC b8070 211 0 Console::History::Add
FUNC b8290 37 0 Sys::CrashDumpPath
FUNC b82d0 a 0 __tcf_0
FUNC b82e0 4b 0 __tcf_1
FUNC b8330 a2 0 std::__cxx11::basic_string<char, std::char_traits<char>, std::allocator<char> >::_M_construct<char const*>
FUNC b83e0 22 0 __tcf_3
FUNC b8410 57 0 __tcf_2
FUNC b8470 233 0 Sys::CreateCrashDumpPath
FUNC b86b0 bf0 0 Sys::BreakpadInitInternal
FUNC b92a0 157 0 Sys::BreakpadInit
FUNC b9400 443 0 Sys::NaclCrashDump
FUNC b9850 2 0 __tcf_2
FUNC b9860 a 0 __tcf_1
FUNC b9870 a2 0 std::__cxx11::basic_string<char, std::char_traits<char>, std::allocator<char> >::_M_construct<char const*>
FUNC b9980 2f 0 __tcf_0
FUNC b99b0 109 0 Cvar::GetCvarMap
FUNC b9ac0 b3 0 Cvar::Shutdown
FUNC b9b80 6d 0 Cvar::InfoString
FUNC b9bf0 1e7 0 Cvar::Raw
FUNC b9de0 16a4 0 Cvar::GetCvarConfigText
FUNC bb490 2417 0 Cvar::SetCStyleDescription
FUNC bd8b0 2dc 0 Cvar::SetCCvar
FUNC bdb90 15d 0 Cvar::GetCCvar
FUNC bdcf0 12bf 0 Cvar::ChangeCvarDescription
FUNC befb0 213 0 Cvar::SetCheatsAllowed
FUNC bf1d0 299 0 Cvar::Complete
FUNC bf470 e9 0 Cmd::CmdBase::Print<const std::__cxx11::basic_string<char, std::char_traits<char>, std::allocator<char> >&, std::__cxx11::basic_string<char, std::char_traits<char>, std::allocator<char> >&, std::__cxx11::basic_string<char, std::char_traits<char>, std::allocator<char> >&, std::__cxx11::basic_string<char, std::char_traits<char>, std::allocator<char> > >
FUNC bf560 d7 0 Cvar::GetValue
FUNC bf640 32 0 Cvar::Unregister
FUNC bf680 8d 0 Cvar::AddFlags
FUNC bf710 40 0 Cvar::ClearFlags
FUNC bf750 34 0 Cvar::FindCCvar
FUNC bf790 481 0 Cvar::InternalSetValue
FUNC bfc20 101 0 Cvar::SetValue
FUNC bfd30 101 0 Cvar::SetValueForce
FUNC bfe40 101 0 Cvar::SetValueCProxy
FUNC bff50 69e 0 Cvar::Register
FUNC c05f0 31a 0 Cvar::PopulateInfoMap
FUNC c0910 2 0 __tcf_6
FUNC c0920 67 0 __tcf_0
FUNC c0990 a 0 __tcf_1
FUNC c09a0 a2 0 std::__cxx11::basic_string<char, std::char_traits<char>, std::allocator<char> >::_M_construct<char const*>
FUNC c0a50 64 0 __tcf_11
FUNC c0ac0 57 0 __tcf_9
FUNC c0b20 57 0 __tcf_2
FUNC c0b80 57 0 __tcf_10
FUNC c0be0 57 0 __tcf_7
FUNC c0c40 6b 0 __tcf_8
FUNC c0cb0 57 0 __tcf_3
FUNC c0d10 57 0 __tcf_4
FUNC c0d70 57 0 __tcf_5
FUNC c0dd0 10 0 Log::RegisterTarget
FUNC c0de0 7 0 Log::Target::Target
FUNC c0df0 e 0 Log::Target::Register
FUNC c0e00 489 0 Log::OpenLogFile
FUNC c1290 2f9 0 Log::Dispatch
FUNC c1590 2 0 __tcf_2
FUNC c15a0 22 0 __tcf_1
FUNC c15d0 a 0 __tcf_0
FUNC c15e0 a2 0 std::__cxx11::basic_string<char, std::char_traits<char>, std::allocator<char> >::_M_construct<char const*>
FUNC c1690 34c 0 Sys::GetSingletonSocketPath
FUNC c19e0 35 0 Sys::Quit
FUNC c1a20 92 0 Sys::Error
FUNC c1ac0 104d 0 Sys::Error<char const*>
FUNC c2b10 1076 0 Sys::Error<char const*, char const*>
FUNC c3b90 280 0 Sys::ReadSingletonSocketCommands
FUNC c3e10 115 0 Sys::ReadSingletonSocket
FUNC c3f30 f1 0 Sys::EarlyCvar
FUNC c4030 1937 0 Sys::Init
FUNC c5970 2e8 0 SDL_main
FUNC c5c60 b 0 std::thread::_State_impl<std::thread::_Invoker<std::tuple<VM::CreateInProcessNativeVM(std::pair<IPC::Socket, IPC::Socket>, Str::StringRef, VM::VMBase::InProcessInfo&)::<lambda()> > > >::~_State_impl
FUNC c5c70 1e 0 std::thread::_State_impl<std::thread::_Invoker<std::tuple<VM::CreateInProcessNativeVM(std::pair<IPC::Socket, IPC::Socket>, Str::StringRef, VM::VMBase::InProcessInfo&)::<lambda()> > > >::~_State_impl
FUNC c5c90 a 0 __tcf_0
FUNC c5ca0 a2 0 std::__cxx11::basic_string<char, std::char_traits<char>, std::allocator<char> >::_M_construct<char const*>
FUNC c5d50 82 0 std::thread::_State_impl<std::thread::_Invoker<std::tuple<VM::CreateInProcessNativeVM(std::pair<IPC::Socket, IPC::Socket>, Str::StringRef, VM::VMBase::InProcessInfo&)::<lambda()> > > >::_M_run
FUNC c5de0 21e 0 VM::VMBase::FreeInProcessVM
FUNC c6000 2fa 0 VM::VMBase::Free
FUNC c6300 a7b 0 VM::InternalLoadModule
FUNC c6d80 1b03 0 VM::CreateNaClVM
FUNC c8890 4f4 0 VM::CreateNativeVM
FUNC c8d90 571 0 VM::CreateInProcessNativeVM
FUNC c9310 f82 0 VM::VMBase::Create
FUNC ca2a0 21c 0 VM::VMBase::LogMessage
FUNC ca4c0 a 0 __tcf_0
FUNC ca4d0 111 0 Crypto::RandomData
FUNC ca5f0 14d 0 Crypto::Hash::Sha256
FUNC ca740 130 0 Crypto::Hash::Md5
FUNC ca870 1d5 0 Crypto::Encoding::HexDecode
FUNC caa50 148 0 Crypto::Encoding::HexEncode
FUNC caba0 173 0 Crypto::Encoding::Base64Encode
FUNC cad20 199 0 Crypto::Encoding::Base64Decode
FUNC caec0 105 0 Crypto::Aes256Decrypt
FUNC cafd0 6f 0 Crypto::AddPadding
FUNC cb040 165 0 Crypto::Aes256Encrypt
FUNC cb1b0 a 0 __tcf_1
FUNC cb1c0 16d 0 Rcon::Message::Message
FUNC cb330 90 0 Rcon::Message::Message
FUNC cb3c0 e6 0 Rcon::Message::Valid
FUNC cb4b0 22 0 __tcf_0
FUNC cb4e0 a 0 __tcf_1
FUNC cb4f0 7a 0 std::__cxx11::basic_string<char, std::char_traits<char>, std::allocator<char> >::_M_construct<char const*>
FUNC cb570 63 0 std::__cxx11::basic_string<unsigned char, std::char_traits<unsigned char>, std::allocator<unsigned char> >::_M_create
FUNC cb5e0 3a 0 Net::GetPort
FUNC cb620 6b7 0 Net::AddressToString
FUNC cbce0 5fc 0 Net::OutOfBandData
FUNC cc2e0 6c9 0 MD5Transform
FUNC cc9b0 143 0 MD5Final
FUNC ccb00 a 0 __tcf_0
FUNC ccb10 10f 0 MD5Update
FUNC ccc20 a5 0 Com_MD5Buffer
FUNC cccd0 65 0 Com_BlockChecksum
FUNC ccd40 a 0 __tcf_0
FUNC ccd50 a2 0 std::__cxx11::basic_string<char, std::char_traits<char>, std::allocator<char> >::_M_construct<char const*>
FUNC cce00 57 0 __tcf_1
FUNC cce60 6b 0 __tcf_2
FUNC cced0 1e2 0 Color::To4bit
FUNC cd0c0 a 0 __tcf_0
FUNC cd0e0 2 0 CON_Init_TTY
FUNC cd0f0 3 0 CON_Input_TTY
FUNC cd100 1f 0 CON_Print_TTY
FUNC cd120 2f 0 __tcf_1
FUNC cd150 a 0 __tcf_0
FUNC cd160 4f 0 CON_SetColor
FUNC cd1b0 a2 0 std::__cxx11::basic_string<char, std::char_traits<char>, std::allocator<char> >::_M_construct<char const*>
FUNC cd260 47c 0 CON_ColorPrint
FUNC cd6e0 70 0 CON_UpdateClock
FUNC cd750 456 0 CON_Redraw
FUNC cdbb0 35 0 CON_Shutdown
FUNC cdbf0 ee 0 CON_Init
FUNC cdce0 1b4 0 CON_Print
FUNC cdea0 1bef 0 CON_Input
FUNC cfa90 a 0 __tcf_0
FUNC cfaa0 a2 0 std::__cxx11::basic_string<char, std::char_traits<char>, std::allocator<char> >::_M_construct<char const*>
FUNC cfb50 18 0 IPC::CommandBuffer::Reset
FUNC cfb70 13 0 IPC::CommandBuffer::GetMaxReadLength
FUNC cfb90 13 0 IPC::CommandBuffer::GetMaxWriteLength
FUNC cfbb0 1c 0 IPC::CommandBuffer::CanRead
FUNC cfbd0 1c 0 IPC::CommandBuffer::CanWrite
FUNC cfbf0 26 0 IPC::CommandBuffer::AdvanceReadPointer
FUNC cfc20 27 0 IPC::CommandBuffer::AdvanceWritePointer
FUNC cfc50 4 0 IPC::CommandBuffer::GetSize
FUNC cfc60 16 0 IPC::CommandBuffer::Normalize
FUNC cfc80 13 0 IPC::CommandBuffer::FromRead
FUNC cfca0 13 0 IPC::CommandBuffer::FromWrite
FUNC cfcc0 7e 0 IPC::CommandBuffer::InternalRead
FUNC cfd40 24 0 IPC::CommandBuffer::Read
FUNC cfd70 7e 0 IPC::CommandBuffer::InternalWrite
FUNC cfdf0 20 0 IPC::CommandBuffer::Write
FUNC cfe10 224 0 IPC::CommandBuffer::Init
FUNC d0040 1085 0 Sys::Drop<unsigned int&, unsigned int&>
FUNC d10d0 24 0 IPC::CommandBuffer::LoadWriterData
FUNC d1100 23 0 IPC::CommandBuffer::LoadReaderData
FUNC d1130 fd 0 mumble_link
FUNC d1230 ce 0 mumble_update_coordinates2
FUNC d1300 2f 0 mumble_update_coordinates
FUNC d1330 47 0 mumble_set_identity
FUNC d1380 7e 0 mumble_set_context
FUNC d1400 47 0 mumble_set_description
FUNC d1450 43 0 mumble_unlink
FUNC d14a0 e 0 mumble_islinked
FUNC d14b0 259 0 accumulate_locstring
FUNC d1710 1ab 0 FL_FindLocale
FUNC d18c0 53 0 FL_FreeLocale
FUNC d1920 a2 0 std::__cxx11::basic_string<char, std::char_traits<char>, std::allocator<char> >::_M_construct<char*>
FUNC d19d0 31 0 tinygettext::Dictionary::get_charset
FUNC d1a10 12 0 tinygettext::Dictionary::set_plural_forms
FUNC d1a30 7 0 tinygettext::Dictionary::get_plural_forms
FUNC d1a40 100 0 tinygettext::Dictionary::Dictionary
FUNC d1b40 3e 0 tinygettext::Dictionary::~Dictionary
FUNC d1b80 57e 0 tinygettext::Dictionary::translate_plural
FUNC d2100 3a 0 tinygettext::Dictionary::translate_plural
FUNC d2140 242 0 tinygettext::Dictionary::translate
FUNC d2390 2a 0 tinygettext::Dictionary::translate
FUNC d23c0 252 0 tinygettext::Dictionary::translate_ctxt
FUNC d2620 277 0 tinygettext::Dictionary::translate_ctxt_plural
FUNC d28a0 243 0 std::_Rb_tree<std::__cxx11::basic_string<char, std::char_traits<char>, std::allocator<char> >, std::pair<const std::__cxx11::basic_string<char, std::char_traits<char>, std::allocator<char> >, std::vector<std::__cxx11::basic_string<char, std::char_traits<char>, std::allocator<char> >, std::allocator<std::__cxx11::basic_string<char, std::char_traits<char>, std::allocator<char> > > > >, std::_Select1st<std::pair<const std::__cxx11::basic_string<char, std::char_traits<char>, std::allocator<char> >, std::vector<std::__cxx11::basic_string<char, std::char_traits<char>, std::allocator<char> >, std::allocator<std::__cxx11::basic_string<char, std::char_traits<char>, std::allocator<char> > > > > >, std::less<std::__cxx11::basic_string<char, std::char_traits<char>, std::allocator<char> > >, std::allocator<std::pair<const std::__cxx11::basic_string<char, std::char_traits<char>, std::allocator<char> >, std::vector<std::__cxx11::basic_string<char, std::char_traits<char>, std::allocator<char> >, std::allocator<std::__cxx11::basic_string<char, std::char_traits<char>, std::allocator<char> > > > > > >::_M_emplace_hint_unique<const std::piecewise_construct_t&, std::tuple<const std::__cxx11::basic_string<char, std::char_traits<char>, std::allocator<char> >&>, std::tuple<> >
FUNC d2af0 1f8 0 tinygettext::Dictionary::add_translation
FUNC d2cf0 49e 0 tinygettext::Dictionary::add_translation
FUNC d3190 204 0 std::_Rb_tree<std::__cxx11::basic_string<char, std::char_traits<char>, std::allocator<char> >, std::pair<const std::__cxx11::basic_string<char, std::char_traits<char>, std::allocator<char> >, std::map<std::__cxx11::basic_string<char, std::char_traits<char>, std::allocator<char> >, std::vector<std::__cxx11::basic_string<char, std::char_traits<char>, std::allocator<char> >, std::allocator<std::__cxx11::basic_string<char, std::char_traits<char>, std::allocator<char> > > >, std::less<std::__cxx11::basic_string<char, std::char_traits<char>, std::allocator<char> > >, std::allocator<std::pair<const std::__cxx11::basic_string<char, std::char_traits<char>, std::allocator<char> >, std::vector<std::__cxx11::basic_string<char, std::char_traits<char>, std::allocator<char> >, std::allocator<std::__cxx11::basic_string<char, std::char_traits<char>, std::allocator<char> > > > > > > >, std::_Select1st<std::pair<const std::__cxx11::basic_string<char, std::char_traits<char>, std::allocator<char> >, std::map<std::__cxx11::basic_string<char, std::char_traits<char>, std::allocator<char> >, std::vector<std::__cxx11::basic_string<char, std::char_traits<char>, std::allocator<char> >, std::allocator<std::__cxx11::basic_string<char, std::char_traits<char>, std::allocator<char> > > >, std::less<std::__cxx11::basic_string<char, std::char_traits<char>, std::allocator<char> > >, std::allocator<std::pair<const std::__cxx11::basic_string<char, std::char_traits<char>, std::allocator<char> >, std::vector<std::__cxx11::basic_string<char, std::char_traits<char>, std::allocator<char> >, std::allocator<std::__cxx11::basic_string<char, std::char_traits<char>, std::allocator<char> > > > > > > > >, std::less<std::__cxx11::basic_string<char, std::char_traits<char>, std::allocator<char> > >, std::allocator<std::pair<const std::__cxx11::basic_string<char, std::char_traits<char>, std::allocator<char> >, std::map<std::__cxx11::basic_string<char, std::char_traits<char>, std::allocator<char> >, std::vector<std::__cxx11::basic_string<char, std::char_traits<char>, std::allocator<char> >, std::allocator<std::__cxx11::basic_string<char, std::char_traits<char>, std::allocator<char> > > >, std::less<std::__cxx11::basic_string<char, std::char_traits<char>, std::allocator<char> > >, std::allocator<std::pair<const std::__cxx11::basic_string<char, std::char_traits<char>, std::allocator<char> >, std::vector<std::__cxx11::basic_string<char, std::char_traits<char>, std::allocator<char> >, std::allocator<std::__cxx11::basic_string<char, std::char_traits<char>, std::allocator<char> > > > > > > > > >::_M_emplace_hint_unique<const std::piecewise_construct_t&, std::tuple<const std::__cxx11::basic_string<char, std::char_traits<char>, std::allocator<char> >&>, std::tuple<> >
FUNC d33a0 592 0 tinygettext::Dictionary::add_translation
FUNC d3940 5de 0 tinygettext::Dictionary::add_translation
FUNC d3f20 a2 0 std::__cxx11::basic_string<char, std::char_traits<char>, std::allocator<char> >::_M_construct<char*>
FUNC d3fd0 31 0 tinygettext::DictionaryManager::set_language
FUNC d4010 4 0 tinygettext::DictionaryManager::get_language
FUNC d4020 5 0 tinygettext::DictionaryManager::get_use_fuzzy
FUNC d4030 2c 0 tinygettext::DictionaryManager::set_filesystem
FUNC d4060 c2 0 tinygettext::DictionaryManager::~DictionaryManager
FUNC d4130 6a 0 tinygettext::DictionaryManager::clear_cache
FUNC d41a0 21 0 tinygettext::DictionaryManager::set_charset
FUNC d41d0 1d 0 tinygettext::DictionaryManager::set_use_fuzzy
FUNC d41f0 192 0 tinygettext::DictionaryManager::DictionaryManager
FUNC d4390 37e 0 tinygettext::DictionaryManager::get_languages
FUNC d4710 6c 0 tinygettext::DictionaryManager::add_directory
FUNC d4780 c2e 0 tinygettext::DictionaryManager::get_dictionary
FUNC d53b0 36 0 tinygettext::DictionaryManager::get_dictionary
FUNC d53f0 a2 0 std::__cxx11::basic_string<char, std::char_traits<char>, std::allocator<char> >::_M_construct<char const*>
FUNC d54a0 9 0 tinygettext::Language::Language
FUNC d54b0 7 0 tinygettext::Language::Language
FUNC d54c0 73 0 tinygettext::Language::get_language
FUNC d5540 67 0 tinygettext::Language::get_country
FUNC d55b0 67 0 tinygettext::Language::get_modifier
FUNC d5620 529 0 tinygettext::Language::match
FUNC d5b50 73 0 tinygettext::Language::get_name
FUNC d5bd0 251 0 tinygettext::Language::str
FUNC d5e30 e 0 tinygettext::Language::operator==
FUNC d5e40 e 0 tinygettext::Language::operator!=
FUNC d5e50 1c 0 __tcf_0
FUNC d5e70 1c 0 __tcf_1
FUNC d5e90 28c7 0 tinygettext::resolve_language_alias
FUNC d8760 592 0 tinygettext::Language::from_spec
FUNC d8d00 75c 0 tinygettext::Language::from_env
FUNC d9460 c4 0 tinygettext::Language::from_name
FUNC d9530 42 0 tinygettext::Log::default_log_callback
FUNC d9580 a 0 __tcf_0
FUNC d9590 a2 0 std::__cxx11::basic_string<char, std::char_traits<char>, std::allocator<char> >::_M_construct<char*>
FUNC d9640 a 0 tinygettext::Log::set_log_info_callback
FUNC d9650 a 0 tinygettext::Log::set_log_warning_callback
FUNC d9660 a 0 tinygettext::Log::set_log_error_callback
FUNC d9670 1ed 0 tinygettext::Log::Log
FUNC d9860 2f0 0 tinygettext::Log::~Log
FUNC d9b50 4 0 tinygettext::Log::get
FUNC d9b60 a 0 __tcf_0
FUNC d9b70 a2 0 std::__cxx11::basic_string<char, std::char_traits<char>, std::allocator<char> >::_M_construct<char*>
FUNC d9c20 11b 0 tinygettext::POParser::POParser
FUNC d9d40 36 0 tinygettext::POParser::~POParser
FUNC d9d80 24f 0 tinygettext::POParser::warning
FUNC d9fd0 83 0 tinygettext::POParser::next_line
FUNC da060 7a5 0 tinygettext::POParser::parse_header
FUNC da810 7c 0 tinygettext::POParser::is_empty_line
FUNC da890 200 0 tinygettext::POParser::error
FUNC daa90 3a 0 tinygettext::POParser::prefix
FUNC daad0 c03 0 tinygettext::POParser::get_string_line
FUNC db6e0 8c1 0 tinygettext::POParser::get_string
FUNC dbfb0 e9d 0 tinygettext::POParser::parse
FUNC dce50 c9 0 tinygettext::POParser::parse
FUNC dcf20 a2 0 std::__cxx11::basic_string<char, std::char_traits<char>, std::allocator<char> >::_M_construct<char*>
FUNC dcfd0 29 0 tinygettext::IConv::IConv
FUNC dd000 6b 0 tinygettext::IConv::~IConv
FUNC dd070 43b 0 tinygettext::IConv::convert
FUNC dd4b0 d04 0 tinygettext::IConv::set_charsets
FUNC de1c0 ce 0 tinygettext::IConv::IConv
FUNC de290 3 0 tinygettext::plural1
FUNC de2a0 b 0 tinygettext::plural2_1
FUNC de2b0 b 0 tinygettext::plural2_2
FUNC de2c0 2f 0 tinygettext::plural2_mk
FUNC de2f0 52 0 tinygettext::plural3_lv
FUNC de350 18 0 tinygettext::plural3_ga
FUNC de370 77 0 tinygettext::plural3_lt
FUNC de3f0 77 0 tinygettext::plural3_1
FUNC de470 1b 0 tinygettext::plural3_sk
FUNC de490 3f 0 tinygettext::plural3_sl
FUNC de4d0 58 0 tinygettext::plural3_pl
FUNC de530 25 0 tinygettext::plural4_ar
FUNC de560 1c 0 __tcf_0
FUNC de580 293f 0 tinygettext::PluralForms::from_string
FUNC e0ec0 483 0 fastlz1_compress
FUNC e1350 551 0 fastlz2_compress
FUNC e18b0 25 0 fastlz_compress
FUNC e18e0 507 0 fastlz_decompress
FUNC e1df0 36 0 fastlz_compress_level
FUNC e1e30 a 0 duDisplayList::depthMask
FUNC e1e40 1c 0 duDisplayList::begin
FUNC e1e60 3e 0 duDisplayList::vertex
FUNC e1ea0 2 0 duDisplayList::end
FUNC e1eb0 4a7 0 duAppendBoxWire
FUNC e2360 159 0 duAppendCross
FUNC e24c0 2 0 duDebugDraw::~duDebugDraw
FUNC e24d0 f 0 duDebugDraw::~duDebugDraw
FUNC e24e0 65 0 duIntToCol
FUNC e2550 95 0 duIntToCol
FUNC e25f0 f0 0 duCalcBoxColors
FUNC e26e0 f8 0 duDebugDrawBoxWire
FUNC e27e0 c8 0 duDebugDrawCross
FUNC e28b0 21b 0 duDebugDrawGridXZ
FUNC e2ad0 314 0 duAppendCylinderWire
FUNC e2df0 10a 0 duDebugDrawCylinderWire
FUNC e2f00 52 0 duAppendBoxWire
FUNC e2f60 32b 0 duAppendBoxPoints
FUNC e3290 183 0 duAppendBox
FUNC e3420 10c 0 duDebugDrawBox
FUNC e3530 563 0 duAppendCylinder
FUNC e3aa0 10c 0 duDebugDrawCylinder
FUNC e3bb0 223 0 appendArrowHead
FUNC e3de0 124 0 duAppendArrow
FUNC e3f10 12d 0 duDebugDrawArrow
FUNC e4040 3fa 0 duAppendArc
FUNC e4440 169 0 duDebugDrawArc
FUNC e45b0 62 0 duAppendArrow
FUNC e4620 158 0 duAppendCircle
FUNC e4780 d9 0 duDebugDrawCircle
FUNC e4860 32 0 duAppendCross
FUNC e48a0 2f 0 duDisplayList::~duDisplayList
FUNC e48d0 18 0 duDisplayList::~duDisplayList
FUNC e48f0 c8 0 duDisplayList::resize
FUNC e49c0 4c 0 duDisplayList::duDisplayList
FUNC e4a10 66 0 duDisplayList::vertex
FUNC e4a80 8 0 duDisplayList::clear
FUNC e4a90 d1 0 duDisplayList::draw
FUNC e4b70 5 0 dtFreeDefault
FUNC e4b80 5 0 dtAllocDefault
FUNC e4b90 28 0 dtAllocSetCustom
FUNC e4bc0 6 0 dtAlloc
FUNC e4bd0 12 0 dtFree
FUNC e4bf0 8d 0 distancePtLine2d
FUNC e4c80 2e0 0 drawPolyBoundaries
FUNC e4f60 2a9 0 debugDrawTileCachePortals
FUNC e5210 77b 0 drawMeshTile
FUNC e5990 5c 0 duDebugDrawNavMesh
FUNC e59f0 6e 0 duDebugDrawNavMeshWithClosedList
FUNC e5a60 1f8 0 duDebugDrawNavMeshNodes
FUNC e5c60 19b 0 duDebugDrawNavMeshBVTree
FUNC e5e00 5a5 0 duDebugDrawNavMeshPortals
FUNC e63b0 266 0 duDebugDrawNavMeshPoly
FUNC e6620 c9 0 duDebugDrawNavMeshPolysWithFlags
FUNC e66f0 465 0 duDebugDrawTileCacheLayerAreas
FUNC e6b60 3d4 0 duDebugDrawTileCacheLayerRegions
FUNC e6f40 4cb 0 duDebugDrawTileCacheContours
FUNC e7410 85d 0 duDebugDrawTileCachePolyMesh
FUNC e7c70 a 0 __tcf_0
FUNC e7c80 c7 0 calcSlabEndPoints
FUNC e7d50 12b 0 dtNavMesh::unconnectLinks
FUNC e7e80 335 0 dtNavMesh::findConnectingPolys
FUNC e81c0 22c 0 dtNavMesh::connectExtLinks
FUNC e83f0 92 0 dtNavMesh::dtNavMesh
FUNC e8490 2c 0 dtAllocNavMesh
FUNC e84c0 aa 0 dtNavMesh::~dtNavMesh
FUNC e8570 25 0 dtFreeNavMesh
FUNC e85a0 29b 0 dtNavMesh::init
FUNC e8840 3 0 dtNavMesh::getParams
FUNC e8850 15 0 dtNavMesh::findConnectingPolys
FUNC e8870 18 0 dtNavMesh::unconnectLinks
FUNC e8890 10 0 dtNavMesh::connectExtLinks
FUNC e88a0 d6 0 dtNavMesh::connectIntLinks
FUNC e8980 464 0 dtNavMesh::closestPointOnPoly
FUNC e8df0 361 0 dtNavMesh::queryPolygonsInTile
FUNC e9160 22e 0 dtNavMesh::findNearestPolyInTile
FUNC e9390 249 0 dtNavMesh::connectExtOffMeshLinks
FUNC e95e0 1aa 0 dtNavMesh::baseOffMeshLinks
FUNC e9790 56 0 dtNavMesh::getTileAt
FUNC e97f0 64 0 dtNavMesh::getTilesAt
FUNC e9860 88 0 dtNavMesh::getNeighbourTilesAt
FUNC e98f0 451 0 dtNavMesh::addTile
FUNC e9d50 c5 0 dtNavMesh::init
FUNC e9e30 79 0 dtNavMesh::getTileRefAt
FUNC e9eb0 6d 0 dtNavMesh::getTileByRef
FUNC e9f20 4 0 dtNavMesh::getMaxTiles
FUNC e9f40 b 0 dtNavMesh::getTile
FUNC e9f50 b0 0 dtNavMesh::calcTileLoc
FUNC ea000 aa 0 dtNavMesh::getTileAndPolyByRef
FUNC ea0b0 50 0 dtNavMesh::getTileAndPolyByRefUnsafe
FUNC ea100 7e 0 dtNavMesh::isValidPolyRef
FUNC ea180 2c7 0 dtNavMesh::removeTile
FUNC ea450 33 0 dtNavMesh::getTileRef
FUNC ea4a0 1a 0 dtNavMesh::getTileStateSize
FUNC ea4c0 a5 0 dtNavMesh::storeTileState
FUNC ea570 bd 0 dtNavMesh::restoreTileState
FUNC ea630 134 0 dtNavMesh::getOffMeshConnectionPolyEndPoints
FUNC ea770 9a 0 dtNavMesh::getOffMeshConnectionByRef
FUNC ea810 9c 0 dtNavMesh::setPolyFlags
FUNC ea8b0 8e 0 dtNavMesh::getPolyFlags
FUNC ea940 a9 0 dtNavMesh::setPolyArea
FUNC ea9f0 90 0 dtNavMesh::getPolyArea
FUNC eaa80 a 0 __tcf_0
FUNC eaa90 99 0 insertInterval
FUNC eab30 2d 0 dtQueryFilter::dtQueryFilter
FUNC eab60 63 0 dtAllocNavMeshQuery
FUNC eabd0 41 0 dtNavMeshQuery::dtNavMeshQuery
FUNC eac20 7e 0 dtNavMeshQuery::~dtNavMeshQuery
FUNC eaca0 25 0 dtFreeNavMeshQuery
FUNC eacd0 1c1 0 dtNavMeshQuery::init
FUNC eaea0 475 0 dtNavMeshQuery::closestPointOnPoly
FUNC eb320 234 0 dtNavMeshQuery::closestPointOnPolyBoundary
FUNC eb560 215 0 dtNavMeshQuery::getPolyHeight
FUNC eb780 369 0 dtNavMeshQuery::findRandomPoint
FUNC ebaf0 513 0 dtNavMeshQuery::queryPolygonsInTile
FUNC ec010 1d2 0 dtNavMeshQuery::queryPolygons
FUNC ec1f0 cd 0 dtNavMeshQuery::findNearestPoly
FUNC ec2c0 9e 0 dtNavMeshQuery::queryPolygons
FUNC ec360 d8 0 dtNavMeshQuery::getPathToNode
FUNC ec440 21c 0 dtNavMeshQuery::initSlicedFindPath
FUNC ec660 167 0 dtNavMeshQuery::appendVertex
FUNC ec7d0 75d 0 dtNavMeshQuery::moveAlongSurface
FUNC ecf30 31c 0 dtNavMeshQuery::getPortalPoints
FUNC ed250 ee 0 dtNavMeshQuery::getPortalPoints
FUNC ed340 7d1 0 dtNavMeshQuery::findRandomPointAroundCircle
FUNC edb20 27f 0 dtNavMeshQuery::appendPortals
FUNC edda0 bfa 0 dtNavMeshQuery::findStraightPath
FUNC ee9a0 9c 0 dtNavMeshQuery::getEdgeMidPoint
FUNC eea40 ac 0 dtNavMeshQuery::getEdgeMidPoint
FUNC eeaf0 650 0 dtNavMeshQuery::findPath
FUNC ef140 850 0 dtNavMeshQuery::raycast
FUNC ef990 7a3 0 dtNavMeshQuery::updateSlicedFindPath
FUNC f0140 a3 0 dtNavMeshQuery::raycast
FUNC f01f0 2a3 0 dtNavMeshQuery::finalizeSlicedFindPath
FUNC f04a0 329 0 dtNavMeshQuery::finalizeSlicedFindPathPartial
FUNC f07d0 5b6 0 dtNavMeshQuery::findPolysAroundCircle
FUNC f0d90 66d 0 dtNavMeshQuery::findPolysAroundShape
FUNC f1400 9f 0 dtNavMeshQuery::getPathFromDijkstraSearch
FUNC f14a0 628 0 dtNavMeshQuery::findLocalNeighbourhood
FUNC f1ad0 5de 0 dtNavMeshQuery::getPolyWallSegments
FUNC f20b0 7dd 0 dtNavMeshQuery::findDistanceToWall
FUNC f2890 63 0 dtNavMeshQuery::isValidPolyRef
FUNC f2900 75 0 dtNavMeshQuery::isInClosedList
FUNC f2980 a 0 __tcf_0
FUNC f2990 b0 0 dtNodePool::dtNodePool
FUNC f2a40 59 0 dtNodePool::~dtNodePool
FUNC f2aa0 2e 0 dtNodePool::clear
FUNC f2ad0 91 0 dtNodePool::findNodes
FUNC f2b70 8a 0 dtNodePool::findNode
FUNC f2c00 fc 0 dtNodePool::getNode
FUNC f2d00 3a 0 dtNodeQueue::dtNodeQueue
FUNC f2d40 43 0 dtNodeQueue::~dtNodeQueue
FUNC f2d90 6d 0 dtNodeQueue::bubbleUp
FUNC f2e00 94 0 dtNodeQueue::trickleDown
FUNC f2ea0 a 0 __tcf_0
FUNC f2eb0 13b 0 dtMergeCorridorStartMoved
FUNC f2ff0 e9 0 dtMergeCorridorEndMoved
FUNC f30e0 137 0 dtMergeCorridorStartShortcut
FUNC f3220 16 0 dtPathCorridor::dtPathCorridor
FUNC f3240 44 0 dtPathCorridor::~dtPathCorridor
FUNC f3290 44 0 dtPathCorridor::init
FUNC f32e0 50 0 dtPathCorridor::reset
FUNC f3330 181 0 dtPathCorridor::findCorners
FUNC f34c0 15f 0 dtPathCorridor::optimizePathVisibility
FUNC f3620 101 0 dtPathCorridor::optimizePathTopology
FUNC f3730 113 0 dtPathCorridor::moveOverOffmeshConnection
FUNC f3850 f5 0 dtPathCorridor::movePosition
FUNC f3950 c9 0 dtPathCorridor::moveTargetPosition
FUNC f3a20 55 0 dtPathCorridor::setCorridor
FUNC f3a80 7a 0 dtPathCorridor::fixPathStart
FUNC f3b00 f8 0 dtPathCorridor::trimInvalidPath
FUNC f3c00 5f 0 dtPathCorridor::isValid
FUNC f3c60 a 0 __tcf_0
FUNC f3c70 b7 0 dtTileCache::dtTileCache
FUNC f3d30 2c 0 dtAllocTileCache
FUNC f3d60 b5 0 dtTileCache::~dtTileCache
FUNC f3e20 25 0 dtFreeTileCache
FUNC f3e50 57 0 dtTileCache::getTileByRef
FUNC f3eb0 294 0 dtTileCache::init
FUNC f4150 8e 0 dtTileCache::getTilesAt
FUNC f41e0 56 0 dtTileCache::getTileAt
FUNC f4240 1e 0 dtTileCache::getTileRef
FUNC f4260 24 0 dtTileCache::getObstacleRef
FUNC f4290 35 0 dtTileCache::getObstacleByRef
FUNC f42d0 e1 0 dtTileCache::addTile
FUNC f43c0 180 0 dtTileCache::removeTile
FUNC f4540 ee 0 dtTileCache::addObstacle
FUNC f4630 10a 0 dtTileCache::addBoxObstacle
FUNC f4740 4c 0 dtTileCache::removeObstacle
FUNC f4790 7c2 0 dtTileCache::buildNavMeshTile
FUNC f4f60 92 0 dtTileCache::buildNavMeshTilesAt
FUNC f5000 98 0 dtTileCache::calcTightTileBounds
FUNC f50a0 353 0 dtTileCache::queryTiles
FUNC f5400 b5 0 dtTileCache::getObstacleBounds
FUNC f54c0 3c4 0 dtTileCache::update
FUNC f5890 b8 0 getNeighbourReg
FUNC f5950 c5 0 between
FUNC f5a20 286 0 getPolyMergeValue
FUNC f5cb0 137 0 mergePolys
FUNC f5df0 a 0 __tcf_0
FUNC f5e00 46c 0 diagonal
FUNC f6270 36d 0 triangulate
FUNC f65e0 4e 0 dtAllocTileCacheContourSet
FUNC f6630 b9 0 dtFreeTileCacheContourSet
FUNC f66f0 6e 0 dtAllocTileCachePolyMesh
FUNC f6760 d9 0 dtFreeTileCachePolyMesh
FUNC f6840 b3b 0 dtBuildTileCacheRegions
FUNC f7380 d82 0 dtBuildTileCacheContours
FUNC f8110 21fe 0 dtBuildTileCachePolyMesh
FUNC fa310 3ab 0 dtMarkCylinderArea
FUNC fa6c0 2e7 0 dtMarkBoxArea
FUNC fa9b0 1da 0 dtBuildTileCacheLayer
FUNC fab90 2f 0 dtFreeTileCacheLayer
FUNC fabc0 1b8 0 dtDecompressTileCacheLayer
FUNC fad80 1b1 0 dtTileCacheHeaderSwapEndian
FUNC faf40 76 0 projectPoly
FUNC fafc0 4b0 0 dtClosestPtPointTriangle
FUNC fb470 150 0 dtIntersectSegmentPoly2D
FUNC fb5c0 e0 0 dtDistancePtSegSqr2D
FUNC fb6a0 ae 0 dtCalcPolyCenter
FUNC fb750 16a 0 dtClosestHeightPointTriangle
FUNC fb8c0 ba 0 dtPointInPolygon
FUNC fb980 dc 0 dtDistancePtPolyEdgesSqr
FUNC fba60 20d 0 dtOverlapPolyPoly2D
FUNC fbc70 199 0 dtRandomPointInConvexPoly
FUNC fbe10 cf 0 dtIntersectSegSeg2D
FUNC fbee0 26 0 compareItemX
FUNC fbf10 26 0 compareItemY
FUNC fbf40 26 0 compareItemZ
FUNC fbf70 a 0 __tcf_0
FUNC fbf80 26d 0 subdivide
FUNC fc1f0 100e 0 dtCreateNavMeshData
FUNC fd200 321 0 dtNavMeshHeaderSwapEndian
FUNC fd530 286 0 dtNavMeshDataSwapEndian
FUNC 13a590 84 0 google_breakpad::ExceptionHandler::MinidumpWriteDumpCallback
FUNC 13a620 30b 0 google_breakpad::ExceptionHandler::WriteMinidumpWithExceptionForProcess
FUNC 13a930 2d3 0 google_breakpad::ExceptionHandler::~ExceptionHandler
FUNC 13ac10 8 0 google_breakpad::ExceptionHandler::RequestUpload
FUNC 13ac20 d9 0 google_breakpad::ExceptionHandler::WriteMinidumpOnHandlerThread
FUNC 13ad00 ad 0 google_breakpad::ExceptionHandler::WriteMinidumpWithException
FUNC 13adb0 9d 0 google_breakpad::ExceptionHandler::ExceptionHandlerThreadMain
FUNC 13ae50 228 0 google_breakpad::ExceptionHandler::HandleException
FUNC 13b080 29b 0 google_breakpad::ExceptionHandler::HandlePureVirtualCall
FUNC 13b320 25 0 google_breakpad::ExceptionHandler::WriteMinidumpWithExceptionForProcess
FUNC 13b350 1b4 0 google_breakpad::ExceptionHandler::UpdateNextID
FUNC 13b510 6e 0 google_breakpad::ExceptionHandler::WriteMinidumpForException
FUNC 13b580 60 0 google_breakpad::ExceptionHandler::WriteMinidump
FUNC 13b5e0 7d 0 google_breakpad::ExceptionHandler::RegisterAppMemory
FUNC 13b660 70 0 google_breakpad::ExceptionHandler::UnregisterAppMemory
FUNC 13b6d0 5d5 0 google_breakpad::ExceptionHandler::Initialize
FUNC 13bcb0 184 0 google_breakpad::ExceptionHandler::ExceptionHandler
FUNC 13be40 184 0 google_breakpad::ExceptionHandler::ExceptionHandler
FUNC 13bfd0 186 0 google_breakpad::ExceptionHandler::ExceptionHandler
FUNC 13c160 187 0 google_breakpad::ExceptionHandler::ExceptionHandler
FUNC 13c2f0 da 0 google_breakpad::ExceptionHandler::WriteMinidump
FUNC 13c3d0 2d0 0 google_breakpad::ExceptionHandler::WriteMinidumpForChild
FUNC 13c6a0 87 0 google_breakpad::CrashGenerationClient::ConnectToPipe
FUNC 13c730 13a 0 google_breakpad::CrashGenerationClient::CrashGenerationClient
FUNC 13c870 9d 0 google_breakpad::CrashGenerationClient::CrashGenerationClient
FUNC 13c910 93 0 google_breakpad::CrashGenerationClient::~CrashGenerationClient
FUNC 13c9b0 80 0 google_breakpad::CrashGenerationClient::ConnectToServer
FUNC 13ca30 bf 0 google_breakpad::CrashGenerationClient::RequestUpload
FUNC 13caf0 218 0 google_breakpad::CrashGenerationClient::RegisterClient
FUNC 13cd10 53 0 google_breakpad::CrashGenerationClient::Register
FUNC 13cd70 2b 0 google_breakpad::CrashGenerationClient::ConnectToPipe
FUNC 13cda0 2f 0 google_breakpad::CrashGenerationClient::ValidateResponse
FUNC 13cdd0 9 0 google_breakpad::CrashGenerationClient::IsRegistered
FUNC 13cde0 73 0 google_breakpad::CrashGenerationClient::SignalCrashEventAndWait
FUNC 13ce60 86 0 google_breakpad::CrashGenerationClient::RequestDump
FUNC 13cef0 15 0 google_breakpad::CrashGenerationClient::RequestDump
FUNC 13cf10 35 0 google_breakpad::CrashGenerationClient::RequestDump
FUNC 13cf50 35 0 google_breakpad::CrashGenerationClient::RequestDump
FUNC 13cf90 f4 0 google_breakpad::CrashGenerationClient::DuplicatePipeToClientProcess
FUNC 13d090 c4 0 google_breakpad::GUIDString::GUIDToSymbolServerWString
FUNC 13d160 c4 0 google_breakpad::GUIDString::GUIDToWString
FUNC 13d230 83 0 ReadAll
FUNC 13d2c0 66 0 SkipHandles
FUNC 13d330 66 0 SkipFile
FUNC 13d3a0 83 0 WriteAll
FUNC 13d430 38e 0 ReceiveDatagram
FUNC 13d7c0 72 0 std::__cxx11::basic_string<wchar_t, std::char_traits<wchar_t>, std::allocator<wchar_t> >::_M_construct<char const*>
FUNC 13d840 6c 0 GetSocketName
FUNC 13d8b0 a 0 NaClSetBrokerDuplicateHandleFunc
FUNC 13d8c0 5b 0 NaClDuplicateNaClHandle
FUNC 13d920 18 0 NaClWouldBlock
FUNC 13d940 63 0 NaClGetLastErrorString
FUNC 13d9b0 143 0 NaClBoundSocket
FUNC 13db00 31e 0 NaClSocketPair
FUNC 13de20 2b 0 NaClClose
FUNC 13de50 357 0 NaClSendDatagram
FUNC 13e1b0 3a2 0 NaClSendDatagramTo
FUNC 13e560 1d0 0 NaClReceiveDatagram
FUNC 13e730 2 0 NaClSetCreateMemoryObjectFunc
FUNC 13e740 79 0 NaClCreateMemoryObject
FUNC 13e7c0 cf 0 NaClMap
FUNC 13e890 19 0 NaClUnmap
FUNC 13e8b0 46 0 NaClMessageSizeIsValid
FUNC 13e900 30 0 gai_strerrorA
FUNC 13e930 4c 0 gai_strerrorW
FUNC 13e980 5b 0 unz64local_getByte
FUNC 13e9e0 58 0 unz64local_getShort
FUNC 13ea40 94 0 unz64local_getLong
FUNC 13eae0 189 0 unz64local_getLong64
FUNC 13ec70 7b8 0 unz64local_GetCurrentFileInfoInternal
FUNC 13f430 8a 0 unzStringFileNameCompare
FUNC 13f4c0 2c 0 unzGetGlobalInfo64
FUNC 13f4f0 20 0 unzGetGlobalInfo
FUNC 13f510 41 0 unzGetCurrentFileInfo64
FUNC 13f560 104 0 unzGetCurrentFileInfo
FUNC 13f670 87 0 unzGoToFirstFile
FUNC 13f700 a7f 0 unzOpenInternal
FUNC 140180 42 0 unzOpen2
FUNC 1401d0 84 0 unzOpen2_64
FUNC 140260 d 0 unzOpen
FUNC 140270 10 0 unzOpen64
FUNC 140280 d0 0 unzGoToNextFile
FUNC 140350 15e 0 unzLocateFile
FUNC 1404b0 47 0 unzGetFilePos64
FUNC 140500 2e 0 unzGetFilePos
FUNC 140530 8a 0 unzGoToFilePos64
FUNC 1405c0 47 0 unzGoToFilePos
FUNC 140610 2a 0 unzGetCurrentFileZStreamPos64
FUNC 140640 3a7 0 unzReadCurrentFile
FUNC 1409f0 26 0 unztell
FUNC 140a20 2b 0 unztell64
FUNC 140a50 2b 0 unzeof
FUNC 140a80 fa 0 unzGetLocalExtrafield
FUNC 140b80 98 0 unzCloseCurrentFile
FUNC 140c20 44 0 unzClose
FUNC 140c70 63c 0 unzOpenCurrentFile3
FUNC 1412b0 33 0 unzOpenCurrentFile
FUNC 1412f0 33 0 unzOpenCurrentFilePassword
FUNC 141330 33 0 unzOpenCurrentFile2
FUNC 141370 be 0 unzGetGlobalComment
FUNC 141430 46 0 unzGetOffset64
FUNC 141480 3c 0 unzGetOffset
FUNC 1414c0 87 0 unzSetOffset64
FUNC 141550 23 0 unzSetOffset
FUNC 141580 d 0 ferror_file_func
FUNC 141590 d 0 fclose_file_func
FUNC 1415a0 37 0 fseek_file_func
FUNC 1415e0 d 0 ftell_file_func
FUNC 1415f0 25 0 fwrite_file_func
FUNC 141620 25 0 fread_file_func
FUNC 141650 53 0 fopen_file_func
FUNC 1416b0 53 0 fopen64_file_func
FUNC 141710 37 0 fseek64_file_func
FUNC 141750 14 0 ftell64_file_func
FUNC 141770 16 0 call_zopen64
FUNC 141790 3a 0 call_zseek64
FUNC 1417d0 41 0 call_ztell64
FUNC 141820 52 0 fill_zlib_filefunc64_32_def_from_filefunc32
FUNC 141880 3c 0 fill_fopen_filefunc
FUNC 1418c0 3c 0 fill_fopen64_filefunc
FUNC 141920 3b2 0 waddch
FUNC 141ce0 24 0 addch
FUNC 141d10 4c 0 mvaddch
FUNC 141d60 5c 0 mvwaddch
FUNC 141dc0 3c 0 wechochar
FUNC 141e00 24 0 echochar
FUNC 141e30 38 0 waddrawch
FUNC 141e70 47 0 addrawch
FUNC 141ec0 6b 0 mvaddrawch
FUNC 141f30 7c 0 mvwaddrawch
FUNC 141fb0 37 0 wadd_wch
FUNC 141ff0 37 0 add_wch
FUNC 142030 4e 0 mvadd_wch
FUNC 142080 5b 0 mvwadd_wch
FUNC 1420e0 4a 0 wecho_wchar
FUNC 142130 1c 0 echo_wchar
FUNC 142150 83 0 waddnstr
FUNC 1421e0 44 0 waddnwstr
FUNC 142230 1d 0 waddnstr
FUNC 142250 26 0 addstr
FUNC 142280 26 0 addnstr
FUNC 1422b0 26 0 waddstr
FUNC 1422e0 4a 0 mvaddstr
FUNC 142330 4c 0 mvaddnstr
FUNC 142380 50 0 mvwaddstr
FUNC 1423d0 5c 0 mvwaddnstr
FUNC 142430 1d 0 waddnwstr
FUNC 142450 26 0 addwstr
FUNC 142480 26 0 addnwstr
FUNC 1424b0 26 0 waddwstr
FUNC 1424e0 4a 0 mvaddwstr
FUNC 142530 4c 0 mvaddnwstr
FUNC 142580 50 0 mvwaddwstr
FUNC 1425d0 5c 0 mvwaddnwstr
FUNC 142630 29 0 wattroff
FUNC 142660 35 0 attroff
FUNC 1426a0 47 0 wattron
FUNC 1426f0 48 0 attron
FUNC 142740 25 0 wattrset
FUNC 142770 26 0 attrset
FUNC 1427a0 20 0 standend
FUNC 1427c0 20 0 standout
FUNC 1427e0 1f 0 wstandend
FUNC 142800 1f 0 wstandout
FUNC 142820 14 0 getattrs
FUNC 142840 29 0 wcolor_set
FUNC 142870 2b 0 color_set
FUNC 1428a0 40 0 wattr_get
FUNC 1428e0 42 0 attr_get
FUNC 142930 29 0 wattr_off
FUNC 142960 35 0 attr_off
FUNC 1429a0 47 0 wattr_on
FUNC 1429f0 48 0 attr_on
FUNC 142a40 36 0 wattr_set
FUNC 142a80 38 0 attr_set
FUNC 142ac0 c4 0 wchgat
FUNC 142b90 3d 0 chgat
FUNC 142bd0 7d 0 mvchgat
FUNC 142c50 7e 0 mvwchgat
FUNC 142cd0 7a 0 wclrtoeol
FUNC 142d50 14 0 clrtoeol
FUNC 142d70 52 0 wclrtobot
FUNC 142dd0 14 0 clrtobot
FUNC 142df0 3c 0 werase
FUNC 142e30 14 0 erase
FUNC 142e50 16 0 wclear
FUNC 142e70 26 0 clear
FUNC 142ea0 4a 0 _normalize
FUNC 142ef0 10b 0 init_pair
FUNC 143000 d 0 has_colors
FUNC 143010 7d 0 init_color
FUNC 143090 b7 0 color_content
FUNC 143150 5 0 can_change_color
FUNC 143160 36 0 pair_content
FUNC 1431a0 da 0 assume_default_colors
FUNC 143280 2d 0 use_default_colors
FUNC 1432b0 28 0 PDC_set_line_color
FUNC 1432e0 7d 0 PDC_init_atrtab
FUNC 143360 76 0 start_color
FUNC 1433e0 452 0 wgetch
FUNC 143840 39 0 mvgetch
FUNC 143880 3c 0 mvwgetch
FUNC 1438c0 29 0 PDC_ungetch
FUNC 1438f0 2c 0 flushinp
FUNC 143920 6 0 PDC_get_key_modifiers
FUNC 143930 f 0 PDC_save_key_modifiers
FUNC 143940 11 0 PDC_return_key_modifiers
FUNC 143960 47 0 wget_wch
FUNC 1439b0 1c 0 get_wch
FUNC 1439d0 4a 0 mvget_wch
FUNC 143a20 4b 0 mvwget_wch
FUNC 143a70 2a 0 unget_wch
FUNC 143aa0 12 0 getbegy
FUNC 143ac0 12 0 getbegx
FUNC 143ae0 11 0 getcury
FUNC 143b00 12 0 getcurx
FUNC 143b20 12 0 getpary
FUNC 143b40 12 0 getparx
FUNC 143b60 12 0 getmaxy
FUNC 143b80 12 0 getmaxx
FUNC 143ba0 3f 0 setsyx
FUNC 143be0 3df 0 Xinitscr
FUNC 143fc0 1b 0 initscr
FUNC 143fe0 1b 0 endwin
FUNC 144000 14 0 isendwin
FUNC 144020 29 0 newterm
FUNC 144050 12 0 set_term
FUNC 144070 78 0 delscreen
FUNC 1440f0 186 0 resize_term
FUNC 144280 a 0 is_termresized
FUNC 144290 6 0 curses_version
FUNC 1442a0 c 0 cbreak
FUNC 1442b0 18 0 nocbreak
FUNC 1442d0 c 0 echo
FUNC 1442e0 c 0 noecho
FUNC 1442f0 26 0 halfdelay
FUNC 144320 3 0 intrflush
FUNC 144330 18 0 keypad
FUNC 144350 f 0 meta
FUNC 144360 c 0 nl
FUNC 144370 c 0 nonl
FUNC 144380 18 0 nodelay
FUNC 1443b0 1e 0 raw
FUNC 1443d0 1e 0 noraw
FUNC 1443f0 2 0 noqiflush
FUNC 144410 3 0 typeahead
FUNC 144420 3c 0 wtimeout
FUNC 144460 3c 0 timeout
FUNC 1444c0 32 0 _save_mode
FUNC 144500 ea 0 _restore_mode
FUNC 1445f0 13 0 def_prog_mode
FUNC 144610 10 0 def_shell_mode
FUNC 144620 18 0 reset_prog_mode
FUNC 144640 15 0 reset_shell_mode
FUNC 144660 a 0 resetty
FUNC 144670 13 0 savetty
FUNC 144690 4c 0 curs_set
FUNC 1446e0 19 0 napms
FUNC 144700 47 0 ripoffline
FUNC 1447a0 36 0 move
FUNC 1447e0 47 0 wmove
FUNC 144830 18 0 clearok
FUNC 144850 3 0 idlok
FUNC 144860 2 0 idcok
FUNC 144870 11 0 immedok
FUNC 144890 37 0 leaveok
FUNC 1448d0 37 0 setscrreg
FUNC 144910 37 0 wsetscrreg
FUNC 144950 18 0 scrollok
FUNC 144970 f 0 raw_output
FUNC 144980 aa 0 newpad
FUNC 144a30 17a 0 subpad
FUNC 144bb0 207 0 pnoutrefresh
FUNC 144dc0 4f 0 prefresh
FUNC 144e10 7b 0 pechochar
FUNC 144e90 87 0 pecho_wchar
FUNC 144f20 1e1 0 wnoutrefresh
FUNC 145110 29e 0 doupdate
FUNC 1453b0 6e 0 wrefresh
FUNC 145420 14 0 refresh
FUNC 145440 5d 0 wredrawln
FUNC 1454a0 49 0 redrawwin
FUNC 1454f0 178 0 wscrl
FUNC 145670 1c 0 scrl
FUNC 145690 1b 0 scroll
FUNC 1456b0 e5 0 _drawone
FUNC 1457a0 13b 0 _redraw
FUNC 1458e0 29 0 slk_refresh
FUNC 145910 17 0 slk_noutrefresh
FUNC 145930 87 0 slk_label
FUNC 1459c0 2e 0 slk_clear
FUNC 1459f0 23 0 slk_restore
FUNC 145a20 17 0 slk_touch
FUNC 145a40 32 0 slk_attron
FUNC 145a80 32 0 slk_attr_on
FUNC 145ac0 32 0 slk_attroff
FUNC 145b00 32 0 slk_attr_off
FUNC 145b40 32 0 slk_attrset
FUNC 145b80 33 0 slk_color
FUNC 145bc0 39 0 slk_attr_set
FUNC 145c00 2dc 0 PDC_slk_initialize
FUNC 145ee0 16f 0 slk_init
FUNC 146050 82 0 PDC_slk_free
FUNC 1460e0 85 0 PDC_mouse_in_slk
FUNC 146170 184 0 slk_wset
FUNC 146300 3d 0 slk_set
FUNC 146340 64 0 slk_wlabel
FUNC 1463b0 3b 0 touchwin
FUNC 1463f0 5d 0 touchline
FUNC 146450 36 0 untouchwin
FUNC 146490 80 0 wtouchln
FUNC 146510 26 0 is_linetouched
FUNC 146540 37 0 is_wintouched
FUNC 146580 45 0 unctrl
FUNC 1465d0 2 0 filter
FUNC 1465e0 2 0 use_env
FUNC 1465f0 5 0 delay_output
FUNC 146600 69 0 getcchar
FUNC 146670 39 0 setcchar
FUNC 1466b0 56 0 wunctrl
FUNC 146710 9b 0 PDC_mbtowc
FUNC 1467b0 b4 0 PDC_mbstowcs
FUNC 146870 dc 0 PDC_wcstombs
FUNC 146950 fc 0 PDC_makenew
FUNC 146a50 ae 0 PDC_makelines
FUNC 146b00 3a 0 PDC_sync
FUNC 146b40 8b 0 newwin
FUNC 146bd0 82 0 delwin
FUNC 146c60 57 0 mvwin
FUNC 146cc0 14a 0 subwin
FUNC 146e10 1b 0 derwin
FUNC 146e30 8a 0 mvderwin
FUNC 146ec0 189 0 dupwin
FUNC 147050 29d 0 resize_window
FUNC 1472f0 2d 0 wresize
FUNC 147320 24 0 wsyncup
FUNC 147350 18 0 syncok
FUNC 147370 3e 0 wcursyncup
FUNC 1473b0 38 0 wsyncdown
FUNC 1473f0 57 0 PDC_current_cursor_state
FUNC 147450 18d 0 redraw_cursor
FUNC 1475e0 b9 0 PDC_get_logical_font
FUNC 1476a0 2e 0 PDC_get_font_handle
FUNC 1476d0 ce 0 PDC_choose_a_new_font
FUNC 1477a0 be9 0 PDC_transform_line_given_hdc
FUNC 148390 92 0 PDC_transform_line
FUNC 148430 ba 0 PDC_gotoyx
FUNC 1484f0 9 0 PDC_get_cursor_mode
FUNC 148500 6 0 PDC_get_rows
FUNC 148510 6 0 PDC_get_columns
FUNC 148520 3 0 PDC_get_input_fd
FUNC 148530 2 0 PDC_set_keyboard_binary
FUNC 148540 ec 0 PDC_add_clipboard_to_key_queue
FUNC 148630 30 0 PDC_check_key
FUNC 148660 d0 0 PDC_get_key
FUNC 148730 48 0 PDC_flushinp
FUNC 148790 3 0 PDC_modifiers_set
FUNC 1487a0 7d 0 rectangle_from_chars_to_pixels
FUNC 148820 109 0 fix_up_edges
FUNC 148930 5b 0 set_menu
FUNC 148990 5b 0 adjust_window_size
FUNC 1489f0 95 0 get_character_sizes
FUNC 148a90 77 0 debug_printf
FUNC 148b10 d0 0 final_cleanup
FUNC 148be0 6b9 0 set_up_window
FUNC 1492a0 16 0 PDC_scr_close
FUNC 1492c0 58 0 PDC_scr_free
FUNC 149320 120 0 PDC_find_ends_of_selected_text
FUNC 149440 46 0 PDC_set_resize_limits
FUNC 149490 b7 0 PDC_set_function_key
FUNC 149550 285 0 PDC_scr_open
FUNC 1497e0 130 0 PDC_resize_screen
FUNC 149910 19c 0 adjust_font_size
FUNC 149ab0 b3 0 add_key_to_queue
FUNC 149b70 297 0 set_mouse
FUNC 149e10 1cb0 0 WndProc
FUNC 14bac0 2 0 PDC_reset_prog_mode
FUNC 14bae0 2 0 PDC_restore_screen_mode
FUNC 14bb00 f4 0 PDC_init_pair
FUNC 14bc00 29 0 PDC_pair_content
FUNC 14bc30 6 0 PDC_can_change_color
FUNC 14bc40 68 0 PDC_color_content
FUNC 14bcb0 249 0 PDC_init_color
FUNC 14bf00 2d 0 PDC_curs_set
FUNC 14bf30 43 0 PDC_set_title
FUNC 14bf80 d 0 PDC_set_blink
FUNC 14bf90 17 0 PDC_beep
FUNC 14bfb0 ad 0 PDC_napms
FUNC 14c060 6 0 PDC_sysname
FUNC 14c070 64e 0 wborder
FUNC 14c6c0 ac 0 border
FUNC 14c770 85 0 box
FUNC 14c800 11a 0 whline
FUNC 14c920 2c 0 hline
FUNC 14c950 5c 0 mvhline
FUNC 14c9b0 5d 0 mvwhline
FUNC 14ca10 10b 0 wvline
FUNC 14cb20 2c 0 vline
FUNC 14cb50 5c 0 mvvline
FUNC 14cbb0 5d 0 mvwvline
FUNC 14cc10 1bb 0 wborder_set
FUNC 14cdd0 54 0 border_set
FUNC 14ce30 4b 0 box_set
FUNC 14ce80 37 0 whline_set
FUNC 14cec0 3b 0 hline_set
FUNC 14cf00 5b 0 mvhline_set
FUNC 14cf60 5f 0 mvwhline_set
FUNC 14cfc0 37 0 wvline_set
FUNC 14d000 3b 0 vline_set
FUNC 14d040 5b 0 mvvline_set
FUNC 14d0a0 5f 0 mvwvline_set
FUNC 14d100 de 0 PDC_debug
FUNC 14d1e0 8 0 traceon
FUNC 14d1f0 8 0 traceoff
FUNC 14d200 1ef 0 _copy_win
FUNC 14d3f0 f7 0 overlay
FUNC 14d4f0 f7 0 overwrite
FUNC 14d5f0 cd 0 copywin
FUNC 14d6c0 5d 0 vwprintw
FUNC 14d720 24 0 printw
FUNC 14d750 23 0 wprintw
FUNC 14d780 3d 0 mvprintw
FUNC 14d7c0 42 0 mvwprintw
FUNC 14d810 5 0 vw_printw
FUNC 14d820 4b 0 PDC_getclipboard_handle
FUNC 14d870 87 0 PDC_getclipboard
FUNC 14d900 f6 0 PDC_setclipboard_raw
FUNC 14da00 23 0 PDC_setclipboard
FUNC 14da30 19 0 PDC_freeclipboard
FUNC 14da50 f 0 PDC_clearclipboard
FUNC 14da60 b1 0 mingw_onexit
FUNC 14db20 1d 0 atexit
FUNC 14db40 32 0 __do_global_dtors
FUNC 14db80 46 0 __do_global_ctors
FUNC 14dbd0 1c 0 __main
FUNC 14dbf0 6 0 my_lconv_init
FUNC 14dc00 3 0 _setargv
FUNC 14dc10 ac 0 __security_init_cookie
FUNC 14dcc0 87 0 __report_gsfailure
FUNC 14dd50 43 0 __dyn_tls_dtor
FUNC 14dda0 89 0 __dyn_tls_init
FUNC 14de30 3 0 __tlregdtor
FUNC 14de40 4b 0 __mingw_raise_matherr
FUNC 14de90 e 0 __mingw_setusermatherr
FUNC 14dea0 5b 0 _matherr
FUNC 14df00 3 0 _fpreset
FUNC 14df20 5 0 _encode_pointer
FUNC 14df30 147 0 mark_section_writable
FUNC 14e080 280 0 _pei386_runtime_relocator
FUNC 14e300 194 0 _gnu_exception_handler
FUNC 14e4a0 6d 0 __mingwthr_run_key_dtors
FUNC 14e510 84 0 ___w64_mingwthr_add_key_dtor
FUNC 14e5a0 8c 0 ___w64_mingwthr_remove_key_dtor
FUNC 14e630 dc 0 __mingw_TLScallback
FUNC 14e710 1d 0 _ValidateImageBase
FUNC 14e730 12 0 _ValidateImageBase
FUNC 14e750 3d 0 _FindPESection
FUNC 14e790 8c 0 _FindPESectionByName
FUNC 14e820 65 0 __mingw_GetSectionForAddress
FUNC 14e890 2d 0 __mingw_GetSectionCount
FUNC 14e8c0 5b 0 _FindPESectionExec
FUNC 14e920 28 0 _GetPEImageBase
FUNC 14e950 7b 0 _IsNonwritableInCurrentImage
FUNC 14e9d0 a4 0 __mingw_enum_import_library_names
FUNC 14f210 fa 0 __strtod
FUNC 14f310 a4 0 __strtof
FUNC 14f3c0 1b 0 expf
FUNC 14f3e0 158 0 _wassert
FUNC 14f540 c4 0 _assert
FUNC 14f610 91 0 fstat
FUNC 14f6b0 1f4 0 stat
FUNC 14f8b0 2a 0 fseeko
FUNC 14f8e0 86 0 _flush
FUNC 14f970 a6 0 fseeko64
FUNC 14fa20 320 0 _ftelli64
FUNC 14fd40 b5 0 _fseeki64
FUNC 14fe00 96 0 mingw_dosmaperr
FUNC 14fea0 13 0 ftello
FUNC 14fec0 3c 0 ftello64
FUNC 14ff00 4b 0 __mingw_vfprintf
FUNC 14ff50 76 0 __mingw_vsnprintf
FUNC 14ffd0 5 0 __ms_vsnprintf
FUNC 14ffe0 13 0 acosf
FUNC 150000 11 0 asinf
FUNC 150020 b 0 atan2f
FUNC 150030 bd 0 cos
FUNC 1500f0 1b 0 cosf
FUNC 150140 1d7 0 exp
FUNC 150320 72b 0 pow
FUNC 150a50 bd 0 sin
FUNC 150b10 1b 0 sinf
FUNC 150b60 1b 0 tanf
FUNC 150b80 9f 0 __increment_D2A
FUNC 150c20 3dc 0 rvOK
FUNC 151000 32 0 __decrement_D2A
FUNC 151040 76 0 __set_ones_D2A
FUNC 1510c0 1b78 0 __strtodg
FUNC 152c40 15b 0 __sum_D2A
FUNC 152da0 253 0 __powi
FUNC 153000 fb 0 __pformat_cvt
FUNC 153100 52 0 __pformat_putc
FUNC 153160 115 0 __pformat_wputchars
FUNC 153280 b9 0 __pformat_putchars
FUNC 153340 58 0 __pformat_puts
FUNC 1533a0 98 0 __pformat_emit_inf_or_nan
FUNC 153440 e7 0 __pformat_emit_radix_point
FUNC 153530 36c 0 __pformat_emit_float
FUNC 1538a0 cb 0 __pformat_float
FUNC 153970 307 0 __pformat_int
FUNC 153c80 12c 0 __pformat_emit_efloat
FUNC 153db0 ab 0 __pformat_efloat
FUNC 153e60 185 0 __pformat_gfloat
FUNC 153ff0 363 0 __pformat_xint
FUNC 154360 5d9 0 __pformat_xldouble
FUNC 154940 8fd 0 __mingw_pformat
FUNC 155290 79 0 ldexp
FUNC 155360 32 0 __rv_alloc_D2A
FUNC 1553a0 74 0 __nrv_alloc_D2A
FUNC 155420 20 0 __freedtoa
FUNC 155440 20d 0 __quorem_D2A
FUNC 155650 157d 0 __gdtoa
FUNC 156bd0 a07 0 __gethex_D2A
FUNC 1575e0 10d 0 __rshift_D2A
FUNC 1576f0 44 0 __trailz_D2A
FUNC 157740 69 0 __mingw_hexdig_init_D2A
FUNC 1577b0 392 0 __hexnan_D2A
FUNC 157b50 c6 0 dtoa_lock
FUNC 157c20 39 0 dtoa_lock_cleanup
FUNC 157c60 cf 0 __Balloc_D2A
FUNC 157d30 62 0 __Bfree_D2A
FUNC 157da0 e2 0 __multadd_D2A
FUNC 157e90 25 0 __i2b_D2A
FUNC 157ec0 168 0 __mult_D2A
FUNC 158030 174 0 __pow5mult_D2A
FUNC 1581b0 117 0 __lshift_D2A
FUNC 1582d0 48 0 __cmp_D2A
FUNC 158320 1d2 0 __diff_D2A
FUNC 158500 fb 0 __b2d_D2A
FUNC 158600 f8 0 __d2b_D2A
FUNC 158700 26 0 __strcp_D2A
FUNC 158730 da 0 __s2b_D2A
FUNC 158810 b3 0 __ratio_D2A
FUNC 1588d0 47 0 __match_D2A
FUNC 158920 57 0 __copybits_D2A
FUNC 158980 84 0 __any_on_D2A
FUNC 158a10 180 0 __mbrtowc_cp
FUNC 158b90 5f 0 mbrtowc
FUNC 158bf0 10f 0 mbsrtowcs
FUNC 158d00 54 0 mbrlen
FUNC 158d60 36 0 strnlen
FUNC 158da0 9c 0 __wcrtomb_cp
FUNC 158e40 41 0 wcrtomb
FUNC 158e90 11d 0 wcsrtombs
FUNC 158fb0 34 0 wcsnlen
FUNC 159300 6 0 mingw_get_invalid_parameter_handler
FUNC 159310 b 0 mingw_set_invalid_parameter_handler
FUNC 159320 6 0 fake_get_output_format
FUNC 159330 b 0 fake_set_output_format
FUNC 159340 45 0 init_set_output_format
FUNC 159390 3b 0 init_get_output_format
FUNC 1593d0 6 0 _set_output_format
FUNC 1593e0 6 0 _get_output_format
FUNC 1593f0 b 0 _set_purecall_handler
FUNC 159400 50 0 _lock_file
FUNC 159450 4b 0 _unlock_file
FUNC 1594a0 8 0 msvcrt___lc_codepage_func
FUNC 1594b0 3e 0 setlocale_codepage_hack
FUNC 1594f0 72 0 init_codepage_func
FUNC 159570 6 0 ___lc_codepage_func
FUNC 1595c0 5 0 dtFreeCustom
FUNC 1595d0 d 0 dtAllocCustom
FUNC 1595e0 23 0 fprintf
FUNC 159610 2b 0 snprintf
FUNC 159640 af2 0 tinyformat::detail::formatImpl
FUNC 15a140 b76 0 tinyformat::detail::streamStateFromFormat
FUNC 15acc0 98 0 tinyformat::detail::FormatArg::formatImpl<char [1024]>
FUNC 15ad60 98 0 tinyformat::detail::FormatArg::formatImpl<char [128]>
FUNC 15ae00 98 0 tinyformat::detail::FormatArg::formatImpl<char [13]>
FUNC 15aea0 98 0 tinyformat::detail::FormatArg::formatImpl<char [14]>
FUNC 15af40 98 0 tinyformat::detail::FormatArg::formatImpl<char [15]>
FUNC 15afe0 98 0 tinyformat::detail::FormatArg::formatImpl<char [16]>
FUNC 15b080 98 0 tinyformat::detail::FormatArg::formatImpl<char [19]>
FUNC 15b120 98 0 tinyformat::detail::FormatArg::formatImpl<char [2048]>
FUNC 15b1c0 98 0 tinyformat::detail::FormatArg::formatImpl<char [21]>
FUNC 15b260 98 0 tinyformat::detail::FormatArg::formatImpl<char [22]>
FUNC 15b300 98 0 tinyformat::detail::FormatArg::formatImpl<char [23]>
FUNC 15b3a0 98 0 tinyformat::detail::FormatArg::formatImpl<char [256]>
FUNC 15b440 98 0 tinyformat::detail::FormatArg::formatImpl<char [25]>
FUNC 15b4e0 98 0 tinyformat::detail::FormatArg::formatImpl<char [26]>
FUNC 15b580 98 0 tinyformat::detail::FormatArg::formatImpl<char [28]>
FUNC 15b620 98 0 tinyformat::detail::FormatArg::formatImpl<char [31]>
FUNC 15b6c0 98 0 tinyformat::detail::FormatArg::formatImpl<char [33]>
FUNC 15b760 98 0 tinyformat::detail::FormatArg::formatImpl<char [34]>
FUNC 15b800 98 0 tinyformat::detail::FormatArg::formatImpl<char [4096]>
FUNC 15b8a0 98 0 tinyformat::detail::FormatArg::formatImpl<char [40]>
FUNC 15b940 98 0 tinyformat::detail::FormatArg::formatImpl<char [42]>
FUNC 15b9e0 98 0 tinyformat::detail::FormatArg::formatImpl<char [44]>
FUNC 15ba80 98 0 tinyformat::detail::FormatArg::formatImpl<char [48]>
FUNC 15bb20 98 0 tinyformat::detail::FormatArg::formatImpl<char [509]>
FUNC 15bbc0 98 0 tinyformat::detail::FormatArg::formatImpl<char [52]>
FUNC 15bc60 98 0 tinyformat::detail::FormatArg::formatImpl<char [5]>
FUNC 15bd00 98 0 tinyformat::detail::FormatArg::formatImpl<char [64]>
FUNC 15bda0 98 0 tinyformat::detail::FormatArg::formatImpl<char [6]>
FUNC 15be40 98 0 tinyformat::detail::FormatArg::formatImpl<char [8192]>
FUNC 15bee0 98 0 tinyformat::detail::FormatArg::formatImpl<char [8]>
FUNC 15bf80 98 0 tinyformat::detail::FormatArg::formatImpl<char [9]>
FUNC 15c020 649 0 tinyformat::detail::FormatArg::formatImpl<VM::vmType_t>
FUNC 15c670 25d 0 tinyformat::detail::FormatArg::formatImpl<IPC::SyncMessage<IPC::Message<IPC::Id<0, 0>, int> >::<unnamed enum> >
FUNC 15c8d0 25d 0 tinyformat::detail::FormatArg::formatImpl<IPC::SyncMessage<IPC::Message<IPC::Id<0, 10>, cgClientState_t> >::<unnamed enum> >
FUNC 15cb30 25d 0 tinyformat::detail::FormatArg::formatImpl<IPC::SyncMessage<IPC::Message<IPC::Id<0, 11>, std::__cxx11::basic_string<char, std::char_traits<char>, std::allocator<char> > > >::<unnamed enum> >
FUNC 15cd90 25d 0 tinyformat::detail::FormatArg::formatImpl<IPC::SyncMessage<IPC::Message<IPC::Id<0, 12>, bool> >::<unnamed enum> >
FUNC 15cff0 25d 0 tinyformat::detail::FormatArg::formatImpl<IPC::SyncMessage<IPC::Message<IPC::Id<0, 13>, IPC::SharedMemory, unsigned int, int> >::<unnamed enum> >
FUNC 15d250 25d 0 tinyformat::detail::FormatArg::formatImpl<IPC::SyncMessage<IPC::Message<IPC::Id<0, 14>, int, IPC::SharedMemory, unsigned int, int> >::<unnamed enum> >
FUNC 15d4b0 25d 0 tinyformat::detail::FormatArg::formatImpl<IPC::SyncMessage<IPC::Message<IPC::Id<0, 1>, int, int, glconfig_t, std::array<std::__cxx11::basic_string<char, std::char_traits<char>, std::allocator<char> >, 1024> > >::<unnamed enum> >
FUNC 15d710 25d 0 tinyformat::detail::FormatArg::formatImpl<IPC::SyncMessage<IPC::Message<IPC::Id<0, 1>, int, int, bool, bool> >::<unnamed enum> >
FUNC 15d970 25d 0 tinyformat::detail::FormatArg::formatImpl<IPC::SyncMessage<IPC::Message<IPC::Id<0, 2> > >::<unnamed enum> >
FUNC 15dbd0 25d 0 tinyformat::detail::FormatArg::formatImpl<IPC::SyncMessage<IPC::Message<IPC::Id<0, 2>, bool> >::<unnamed enum> >
FUNC 15de30 25d 0 tinyformat::detail::FormatArg::formatImpl<IPC::SyncMessage<IPC::Message<IPC::Id<0, 3>, int, bool> >::<unnamed enum> >
FUNC 15e090 25d 0 tinyformat::detail::FormatArg::formatImpl<IPC::SyncMessage<IPC::Message<IPC::Id<0, 3>, int, bool, int>, IPC::Reply<bool, std::__cxx11::basic_string<char, std::char_traits<char>, std::allocator<char> > > >::<unnamed enum> >
FUNC 15e2f0 25d 0 tinyformat::detail::FormatArg::formatImpl<IPC::SyncMessage<IPC::Message<IPC::Id<0, 4> >, IPC::Reply<int> >::<unnamed enum> >
FUNC 15e550 25d 0 tinyformat::detail::FormatArg::formatImpl<IPC::SyncMessage<IPC::Message<IPC::Id<0, 4>, int> >::<unnamed enum> >
FUNC 15e7b0 25d 0 tinyformat::detail::FormatArg::formatImpl<IPC::SyncMessage<IPC::Message<IPC::Id<0, 5>, Keyboard::Key, bool> >::<unnamed enum> >
FUNC 15ea10 25d 0 tinyformat::detail::FormatArg::formatImpl<IPC::SyncMessage<IPC::Message<IPC::Id<0, 5>, int> >::<unnamed enum> >
FUNC 15ec70 25d 0 tinyformat::detail::FormatArg::formatImpl<IPC::SyncMessage<IPC::Message<IPC::Id<0, 6>, int> >::<unnamed enum> >
FUNC 15eed0 25d 0 tinyformat::detail::FormatArg::formatImpl<IPC::SyncMessage<IPC::Message<IPC::Id<0, 6>, int, int> >::<unnamed enum> >
FUNC 15f130 25d 0 tinyformat::detail::FormatArg::formatImpl<IPC::SyncMessage<IPC::Message<IPC::Id<0, 7>, int, std::__cxx11::basic_string<char, std::char_traits<char>, std::allocator<char> > > >::<unnamed enum> >
FUNC 15f390 25d 0 tinyformat::detail::FormatArg::formatImpl<IPC::SyncMessage<IPC::Message<IPC::Id<0, 7>, int, int> >::<unnamed enum> >
FUNC 15f5f0 25d 0 tinyformat::detail::FormatArg::formatImpl<IPC::SyncMessage<IPC::Message<IPC::Id<0, 8>, int> >::<unnamed enum> >
FUNC 15f850 25d 0 tinyformat::detail::FormatArg::formatImpl<IPC::SyncMessage<IPC::Message<IPC::Id<0, 9>, glconfig_t> >::<unnamed enum> >
FUNC 15fab0 25d 0 tinyformat::detail::FormatArg::formatImpl<IPC::SyncMessage<IPC::Message<IPC::Id<0, 9>, int> >::<unnamed enum> >
FUNC 15fd10 649 0 tinyformat::detail::FormatArg::formatImpl<IPC::SyncMessage<IPC::Message<IPC::Id<3, 0>, std::__cxx11::basic_string<char, std::char_traits<char>, std::allocator<char> > > >::<unnamed enum> >
FUNC 160360 649 0 tinyformat::detail::FormatArg::formatImpl<IPC::SyncMessage<IPC::Message<IPC::Id<3, 1>, int, std::__cxx11::basic_string<char, std::char_traits<char>, std::allocator<char> >, std::__cxx11::basic_string<char, std::char_traits<char>, std::allocator<char> > >, IPC::Reply<std::vector<std::pair<std::__cxx11::basic_string<char, std::char_traits<char>, std::allocator<char> >, std::__cxx11::basic_string<char, std::char_traits<char>, std::allocator<char> > >, std::allocator<std::pair<std::__cxx11::basic_string<char, std::char_traits<char>, std::allocator<char> >, std::__cxx11::basic_string<char, std::char_traits<char>, std::allocator<char> > > > > > >::<unnamed enum> >
FUNC 1609b0 649 0 tinyformat::detail::FormatArg::formatImpl<IPC::SyncMessage<IPC::Message<IPC::Id<4, 0>, std::__cxx11::basic_string<char, std::char_traits<char>, std::allocator<char> >, std::__cxx11::basic_string<char, std::char_traits<char>, std::allocator<char> > >, IPC::Reply<bool, std::__cxx11::basic_string<char, std::char_traits<char>, std::allocator<char> > > >::<unnamed enum> >
FUNC 161000 6a9 0 tinyformat::detail::FormatArg::formatImpl<Str::BasicStringRef<char> >
FUNC 1616b0 619 0 tinyformat::detail::FormatArg::formatImpl<std::__cxx11::basic_string<char> >
FUNC 161cd0 609 0 tinyformat::detail::FormatArg::formatImpl<float (*)[3]>
FUNC 1622e0 20b 0 tinyformat::detail::FormatArg::formatImpl<char const*>
FUNC 1624f0 20b 0 tinyformat::detail::FormatArg::formatImpl<char*>
FUNC 162700 609 0 tinyformat::detail::FormatArg::formatImpl<int*>
FUNC 162d10 609 0 tinyformat::detail::FormatArg::formatImpl<void*>
FUNC 163320 260 0 tinyformat::detail::FormatArg::formatImpl<double>
FUNC 163580 659 0 tinyformat::detail::FormatArg::formatImpl<float>
FUNC 163be0 5f 0 tinyformat::detail::FormatArg::formatImpl<unsigned char>
FUNC 163c40 649 0 tinyformat::detail::FormatArg::formatImpl<int>
FUNC 164290 649 0 tinyformat::detail::FormatArg::formatImpl<unsigned int>
FUNC 1648e0 649 0 tinyformat::detail::FormatArg::formatImpl<long int>
FUNC 164f30 649 0 tinyformat::detail::FormatArg::formatImpl<long unsigned int>
FUNC 165580 649 0 tinyformat::detail::FormatArg::formatImpl<short int>
FUNC 165bd0 25e 0 tinyformat::detail::FormatArg::formatImpl<short unsigned int>
FUNC 165e30 659 0 tinyformat::detail::FormatArg::formatImpl<long long unsigned int>
FUNC 166490 ca 0 tinyformat::detail::FormatArg::toIntImpl<char [1024]>
FUNC 166560 ca 0 tinyformat::detail::FormatArg::toIntImpl<char [128]>
FUNC 166630 ca 0 tinyformat::detail::FormatArg::toIntImpl<char [13]>
FUNC 166700 ca 0 tinyformat::detail::FormatArg::toIntImpl<char [14]>
FUNC 1667d0 ca 0 tinyformat::detail::FormatArg::toIntImpl<char [15]>
FUNC 1668a0 ca 0 tinyformat::detail::FormatArg::toIntImpl<char [16]>
FUNC 166970 ca 0 tinyformat::detail::FormatArg::toIntImpl<char [19]>
FUNC 166a40 ca 0 tinyformat::detail::FormatArg::toIntImpl<char [2048]>
FUNC 166b10 ca 0 tinyformat::detail::FormatArg::toIntImpl<char [21]>
FUNC 166be0 ca 0 tinyformat::detail::FormatArg::toIntImpl<char [22]>
FUNC 166cb0 ca 0 tinyformat::detail::FormatArg::toIntImpl<char [23]>
FUNC 166d80 ca 0 tinyformat::detail::FormatArg::toIntImpl<char [256]>
FUNC 166e50 ca 0 tinyformat::detail::FormatArg::toIntImpl<char [25]>
FUNC 166f20 ca 0 tinyformat::detail::FormatArg::toIntImpl<char [26]>
FUNC 166ff0 ca 0 tinyformat::detail::FormatArg::toIntImpl<char [28]>
FUNC 1670c0 ca 0 tinyformat::detail::FormatArg::toIntImpl<char [31]>
FUNC 167190 ca 0 tinyformat::detail::FormatArg::toIntImpl<char [33]>
FUNC 167260 ca 0 tinyformat::detail::FormatArg::toIntImpl<char [34]>
FUNC 167330 ca 0 tinyformat::detail::FormatArg::toIntImpl<char [4096]>
FUNC 167400 ca 0 tinyformat::detail::FormatArg::toIntImpl<char [40]>
FUNC 1674d0 ca 0 tinyformat::detail::FormatArg::toIntImpl<char [42]>
FUNC 1675a0 ca 0 tinyformat::detail::FormatArg::toIntImpl<char [44]>
FUNC 167670 ca 0 tinyformat::detail::FormatArg::toIntImpl<char [48]>
FUNC 167740 ca 0 tinyformat::detail::FormatArg::toIntImpl<char [509]>
FUNC 167810 ca 0 tinyformat::detail::FormatArg::toIntImpl<char [52]>
FUNC 1678e0 ca 0 tinyformat::detail::FormatArg::toIntImpl<char [5]>
FUNC 1679b0 ca 0 tinyformat::detail::FormatArg::toIntImpl<char [64]>
FUNC 167a80 ca 0 tinyformat::detail::FormatArg::toIntImpl<char [6]>
FUNC 167b50 ca 0 tinyformat::detail::FormatArg::toIntImpl<char [8192]>
FUNC 167c20 ca 0 tinyformat::detail::FormatArg::toIntImpl<char [8]>
FUNC 167cf0 ca 0 tinyformat::detail::FormatArg::toIntImpl<char [9]>
FUNC 167dc0 7 0 tinyformat::detail::FormatArg::toIntImpl<VM::vmType_t>
FUNC 167dd0 7 0 tinyformat::detail::FormatArg::toIntImpl<IPC::SyncMessage<IPC::Message<IPC::Id<0, 0>, int> >::<unnamed enum> >
FUNC 167de0 7 0 tinyformat::detail::FormatArg::toIntImpl<IPC::SyncMessage<IPC::Message<IPC::Id<0, 10>, cgClientState_t> >::<unnamed enum> >
FUNC 167df0 7 0 tinyformat::detail::FormatArg::toIntImpl<IPC::SyncMessage<IPC::Message<IPC::Id<0, 11>, std::__cxx11::basic_string<char, std::char_traits<char>, std::allocator<char> > > >::<unnamed enum> >
FUNC 167e00 7 0 tinyformat::detail::FormatArg::toIntImpl<IPC::SyncMessage<IPC::Message<IPC::Id<0, 12>, bool> >::<unnamed enum> >
FUNC 167e10 7 0 tinyformat::detail::FormatArg::toIntImpl<IPC::SyncMessage<IPC::Message<IPC::Id<0, 13>, IPC::SharedMemory, unsigned int, int> >::<unnamed enum> >
FUNC 167e20 7 0 tinyformat::detail::FormatArg::toIntImpl<IPC::SyncMessage<IPC::Message<IPC::Id<0, 14>, int, IPC::SharedMemory, unsigned int, int> >::<unnamed enum> >
FUNC 167e30 7 0 tinyformat::detail::FormatArg::toIntImpl<IPC::SyncMessage<IPC::Message<IPC::Id<0, 1>, int, int, glconfig_t, std::array<std::__cxx11::basic_string<char, std::char_traits<char>, std::allocator<char> >, 1024> > >::<unnamed enum> >
FUNC 167e40 7 0 tinyformat::detail::FormatArg::toIntImpl<IPC::SyncMessage<IPC::Message<IPC::Id<0, 1>, int, int, bool, bool> >::<unnamed enum> >
FUNC 167e50 7 0 tinyformat::detail::FormatArg::toIntImpl<IPC::SyncMessage<IPC::Message<IPC::Id<0, 2> > >::<unnamed enum> >
FUNC 167e60 7 0 tinyformat::detail::FormatArg::toIntImpl<IPC::SyncMessage<IPC::Message<IPC::Id<0, 2>, bool> >::<unnamed enum> >
FUNC 167e70 7 0 tinyformat::detail::FormatArg::toIntImpl<IPC::SyncMessage<IPC::Message<IPC::Id<0, 3>, int, bool> >::<unnamed enum> >
FUNC 167e80 7 0 tinyformat::detail::FormatArg::toIntImpl<IPC::SyncMessage<IPC::Message<IPC::Id<0, 3>, int, bool, int>, IPC::Reply<bool, std::__cxx11::basic_string<char, std::char_traits<char>, std::allocator<char> > > >::<unnamed enum> >
FUNC 167e90 7 0 tinyformat::detail::FormatArg::toIntImpl<IPC::SyncMessage<IPC::Message<IPC::Id<0, 4> >, IPC::Reply<int> >::<unnamed enum> >
FUNC 167ea0 7 0 tinyformat::detail::FormatArg::toIntImpl<IPC::SyncMessage<IPC::Message<IPC::Id<0, 4>, int> >::<unnamed enum> >
FUNC 167eb0 7 0 tinyformat::detail::FormatArg::toIntImpl<IPC::SyncMessage<IPC::Message<IPC::Id<0, 5>, Keyboard::Key, bool> >::<unnamed enum> >
FUNC 167ec0 7 0 tinyformat::detail::FormatArg::toIntImpl<IPC::SyncMessage<IPC::Message<IPC::Id<0, 5>, int> >::<unnamed enum> >
FUNC 167ed0 7 0 tinyformat::detail::FormatArg::toIntImpl<IPC::SyncMessage<IPC::Message<IPC::Id<0, 6>, int> >::<unnamed enum> >
FUNC 167ee0 7 0 tinyformat::detail::FormatArg::toIntImpl<IPC::SyncMessage<IPC::Message<IPC::Id<0, 6>, int, int> >::<unnamed enum> >
FUNC 167ef0 7 0 tinyformat::detail::FormatArg::toIntImpl<IPC::SyncMessage<IPC::Message<IPC::Id<0, 7>, int, std::__cxx11::basic_string<char, std::char_traits<char>, std::allocator<char> > > >::<unnamed enum> >
FUNC 167f00 7 0 tinyformat::detail::FormatArg::toIntImpl<IPC::SyncMessage<IPC::Message<IPC::Id<0, 7>, int, int> >::<unnamed enum> >
FUNC 167f10 7 0 tinyformat::detail::FormatArg::toIntImpl<IPC::SyncMessage<IPC::Message<IPC::Id<0, 8>, int> >::<unnamed enum> >
FUNC 167f20 7 0 tinyformat::detail::FormatArg::toIntImpl<IPC::SyncMessage<IPC::Message<IPC::Id<0, 9>, glconfig_t> >::<unnamed enum> >
FUNC 167f30 7 0 tinyformat::detail::FormatArg::toIntImpl<IPC::SyncMessage<IPC::Message<IPC::Id<0, 9>, int> >::<unnamed enum> >
FUNC 167f40 7 0 tinyformat::detail::FormatArg::toIntImpl<IPC::SyncMessage<IPC::Message<IPC::Id<3, 0>, std::__cxx11::basic_string<char, std::char_traits<char>, std::allocator<char> > > >::<unnamed enum> >
FUNC 167f50 7 0 tinyformat::detail::FormatArg::toIntImpl<IPC::SyncMessage<IPC::Message<IPC::Id<3, 1>, int, std::__cxx11::basic_string<char, std::char_traits<char>, std::allocator<char> >, std::__cxx11::basic_string<char, std::char_traits<char>, std::allocator<char> > >, IPC::Reply<std::vector<std::pair<std::__cxx11::basic_string<char, std::char_traits<char>, std::allocator<char> >, std::__cxx11::basic_string<char, std::char_traits<char>, std::allocator<char> > >, std::allocator<std::pair<std::__cxx11::basic_string<char, std::char_traits<char>, std::allocator<char> >, std::__cxx11::basic_string<char, std::char_traits<char>, std::allocator<char> > > > > > >::<unnamed enum> >
FUNC 167f60 7 0 tinyformat::detail::FormatArg::toIntImpl<IPC::SyncMessage<IPC::Message<IPC::Id<4, 0>, std::__cxx11::basic_string<char, std::char_traits<char>, std::allocator<char> >, std::__cxx11::basic_string<char, std::char_traits<char>, std::allocator<char> > >, IPC::Reply<bool, std::__cxx11::basic_string<char, std::char_traits<char>, std::allocator<char> > > >::<unnamed enum> >
FUNC 167f70 ca 0 tinyformat::detail::FormatArg::toIntImpl<Str::BasicStringRef<char> >
FUNC 168040 ca 0 tinyformat::detail::FormatArg::toIntImpl<std::__cxx11::basic_string<char> >
FUNC 168110 ca 0 tinyformat::detail::FormatArg::toIntImpl<float (*)[3]>
FUNC 1681e0 ca 0 tinyformat::detail::FormatArg::toIntImpl<char const*>
FUNC 1682b0 ca 0 tinyformat::detail::FormatArg::toIntImpl<char*>
FUNC 168380 ca 0 tinyformat::detail::FormatArg::toIntImpl<int*>
FUNC 168450 ca 0 tinyformat::detail::FormatArg::toIntImpl<void*>
FUNC 168520 9 0 tinyformat::detail::FormatArg::toIntImpl<double>
FUNC 168530 9 0 tinyformat::detail::FormatArg::toIntImpl<float>
FUNC 168540 8 0 tinyformat::detail::FormatArg::toIntImpl<unsigned char>
FUNC 168550 7 0 tinyformat::detail::FormatArg::toIntImpl<int>
FUNC 168560 7 0 tinyformat::detail::FormatArg::toIntImpl<unsigned int>
FUNC 168570 7 0 tinyformat::detail::FormatArg::toIntImpl<long int>
FUNC 168580 7 0 tinyformat::detail::FormatArg::toIntImpl<long unsigned int>
FUNC 168590 8 0 tinyformat::detail::FormatArg::toIntImpl<short int>
FUNC 1685a0 8 0 tinyformat::detail::FormatArg::toIntImpl<short unsigned int>
FUNC 1685b0 7 0 tinyformat::detail::FormatArg::toIntImpl<long long unsigned int>
FUNC 1685c0 1033 0 tinyformat::format<char [1024]>
FUNC 169600 1033 0 tinyformat::format<char [128]>
FUNC 16a640 1033 0 tinyformat::format<char [256]>
FUNC 16b680 1073 0 tinyformat::format<char [6], char const*, char const*>
FUNC 16c700 1093 0 tinyformat::format<char [6], char const*, char const*, char const*>
FUNC 16d7a0 1033 0 tinyformat::format<Str::BasicStringRef<char> >
FUNC 16e7e0 1053 0 tinyformat::format<Str::BasicStringRef<char>, std::__cxx11::basic_string<char, std::char_traits<char>, std::allocator<char> > >
FUNC 16f840 1033 0 tinyformat::format<std::__cxx11::basic_string<char, std::char_traits<char>, std::allocator<char> > >
FUNC 170880 59e 0 tinyformat::format<std::__cxx11::basic_string<char, std::char_traits<char>, std::allocator<char> >, std::__cxx11::basic_string<char, std::char_traits<char>, std::allocator<char> > >
FUNC 170e20 1073 0 tinyformat::format<std::__cxx11::basic_string<char, std::char_traits<char>, std::allocator<char> >, std::__cxx11::basic_string<char, std::char_traits<char>, std::allocator<char> >, std::__cxx11::basic_string<char, std::char_traits<char>, std::allocator<char> > >
FUNC 171ea0 1093 0 tinyformat::format<std::__cxx11::basic_string<char, std::char_traits<char>, std::allocator<char> >, std::__cxx11::basic_string<char, std::char_traits<char>, std::allocator<char> >, std::__cxx11::basic_string<char, std::char_traits<char>, std::allocator<char> >, std::__cxx11::basic_string<char, std::char_traits<char>, std::allocator<char> > >
FUNC 172f40 1033 0 tinyformat::format<char const*>
FUNC 173f80 1053 0 tinyformat::format<char const*, char const*>
FUNC 174fe0 1073 0 tinyformat::format<char const*, char const*, char const*>
FUNC 176060 109c 0 tinyformat::format<char const*, char const*, int, int, long long unsigned int>
FUNC 177100 319 0 tinyformat::format<char*>
FUNC 177420 106c 0 tinyformat::format<char*, char const*, char const*>
FUNC 178490 104c 0 tinyformat::format<int, char [64]>
FUNC 1794e0 1033 0 tinyformat::format<int>
FUNC 17a520 59e 0 tinyformat::format<int, char const*>
FUNC 17aac0 104c 0 tinyformat::format<int, int>
FUNC 17bb10 1073 0 tinyformat::format<unsigned int, std::__cxx11::basic_string<char, std::char_traits<char>, std::allocator<char> >, int>
FUNC 17cb90 2 0 Application::Application::Frame
FUNC 17cba0 2b 0 Application::Application::~Application
FUNC 17cbd0 22 0 Application::Application::~Application
FUNC 17cc00 281 0 Application::ClientApplication::Initialize
FUNC 17ce90 ad 0 Application::ClientApplication::LoadInitialConfig
FUNC 17cf40 cd 0 Application::ClientApplication::OnUnhandledCommand
FUNC 17d010 5 0 Application::ClientApplication::Frame
FUNC 17d020 e9 0 Application::ClientApplication::OnDrop
FUNC 17d110 25f 0 Application::ClientApplication::Shutdown
FUNC 17d370 2b 0 Application::ClientApplication::~ClientApplication
FUNC 17d3a0 22 0 Application::ClientApplication::~ClientApplication
FUNC 17d3d0 135 0 DemoPlayCmd::DemoPlayCmd
FUNC 17d510 f 0 DemoPlayCmd::~DemoPlayCmd
FUNC 17d520 2 0 DemoPlayCmd::~DemoPlayCmd
FUNC 17d530 ab 0 MeshProcess::process
FUNC 17d5e0 f 0 MeshProcess::~MeshProcess
FUNC 17d5f0 2 0 MeshProcess::~MeshProcess
FUNC 17d600 135 0 DemoVideoCmd::DemoVideoCmd
FUNC 17d740 f 0 DemoVideoCmd::~DemoVideoCmd
FUNC 17d750 2 0 DemoVideoCmd::~DemoVideoCmd
FUNC 17d760 135 0 ListPathsCmd::ListPathsCmd
FUNC 17d8a0 f 0 ListPathsCmd::~ListPathsCmd
FUNC 17d8b0 2 0 ListPathsCmd::~ListPathsCmd
FUNC 17d8c0 4b 0 DaemonIstream::~DaemonIstream
FUNC 17d910 42 0 DaemonIstream::~DaemonIstream
FUNC 17d960 135 0 DemoRecordCmd::DemoRecordCmd
FUNC 17daa0 f 0 DemoRecordCmd::~DemoRecordCmd
FUNC 17dab0 2 0 DemoRecordCmd::~DemoRecordCmd
FUNC 17dac0 64 0 DaemonInputbuf::~DaemonInputbuf
FUNC 17db30 5c 0 DaemonInputbuf::~DaemonInputbuf
FUNC 17db90 3 0 DebugDrawQuake::texture
FUNC 17dba0 1e 0 DebugDrawQuake::~DebugDrawQuake
FUNC 17dbc0 b 0 DebugDrawQuake::~DebugDrawQuake
FUNC 17dbd0 137 0 GraphicalTarget::Process
FUNC 17dd10 f 0 GraphicalTarget::~GraphicalTarget
FUNC 17dd20 2 0 GraphicalTarget::~GraphicalTarget
FUNC 17dd30 3 0 LinearAllocator::free
FUNC 17dd40 29 0 LinearAllocator::alloc
FUNC 17dd70 15 0 LinearAllocator::reset
FUNC 17dd90 f 0 LinearAllocator::~LinearAllocator
FUNC 17dda0 2 0 LinearAllocator::~LinearAllocator
FUNC 17ddb0 135 0 RconDiscoverCmd::RconDiscoverCmd
FUNC 17def0 f 0 RconDiscoverCmd::~RconDiscoverCmd
FUNC 17df00 2 0 RconDiscoverCmd::~RconDiscoverCmd
FUNC 17df10 1cd 0 RconEnvironment::Print
FUNC 17e0e0 3d 0 RconEnvironment::~RconEnvironment
FUNC 17e120 35 0 RconEnvironment::~RconEnvironment
FUNC 17e160 1e 0 google_breakpad::scoped_ptr<google_breakpad::CrashGenerationClient>::~scoped_ptr
FUNC 17e180 69 0 google_breakpad::AutoExceptionHandler::~AutoExceptionHandler
FUNC 17e1f0 22a 0 DaemonFileSystem::open_directory
FUNC 17e420 1e2 0 DaemonFileSystem::open_file
FUNC 17e610 f 0 DaemonFileSystem::~DaemonFileSystem
FUNC 17e620 2 0 DaemonFileSystem::~DaemonFileSystem
FUNC 17e630 135 0 DemoStopVideoCmd::DemoStopVideoCmd
FUNC 17e770 f 0 DemoStopVideoCmd::~DemoStopVideoCmd
FUNC 17e780 2 0 DemoStopVideoCmd::~DemoStopVideoCmd
FUNC 17e790 40 0 FastLZCompressor::decompress
FUNC 17e7d0 19 0 FastLZCompressor::maxCompressedSize
FUNC 17e7f0 30 0 FastLZCompressor::compress
FUNC 17e820 f 0 FastLZCompressor::~FastLZCompressor
FUNC 17e830 2 0 FastLZCompressor::~FastLZCompressor
FUNC 17e840 15 0 dtTileCacheAlloc::free
FUNC 17e860 1d 0 dtTileCacheAlloc::alloc
FUNC 17e880 2 0 dtTileCacheAlloc::reset
FUNC 17e890 135 0 DemoRecordStopCmd::DemoRecordStopCmd
FUNC 17e9d0 f 0 DemoRecordStopCmd::~DemoRecordStopCmd
FUNC 17e9e0 2 0 DemoRecordStopCmd::~DemoRecordStopCmd
FUNC 17e9f0 49 0 dtCollectPolysQuery::process
FUNC 17ea40 f 0 dtCollectPolysQuery::~dtCollectPolysQuery
FUNC 17ea50 2 0 dtCollectPolysQuery::~dtCollectPolysQuery
FUNC 17ea60 11e 0 dtFindNearestPolyQuery::process
FUNC 17eb80 f 0 dtFindNearestPolyQuery::~dtFindNearestPolyQuery
FUNC 17eb90 2 0 dtFindNearestPolyQuery::~dtFindNearestPolyQuery
FUNC 17eba0 52 0 FS::LoadedPakInfo::~LoadedPakInfo
FUNC 17ec00 1e 0 FS::minizip_category_impl::~minizip_category_impl
FUNC 17ec20 b 0 FS::minizip_category_impl::~minizip_category_impl
FUNC 17ec30 1e 0 FS::filesystem_category_impl::~filesystem_category_impl
FUNC 17ec50 b 0 FS::filesystem_category_impl::~filesystem_category_impl
FUNC 17ec60 5b 0 FS::File::~File
FUNC 17ecc0 10a 0 FS::PakInfo::PakInfo
FUNC 17edd0 146 0 FS::PakInfo::PakInfo
FUNC 17ef20 40 0 FS::PakInfo::~PakInfo
FUNC 17ef60 7c 0 FS::PakInfo::operator=
FUNC 17efe0 2e 0 FS::PakPath::DirectoryRange::~DirectoryRange
FUNC 17f010 47 0 FS::RawPath::DirectoryRange::~DirectoryRange
FUNC 17f060 8c 0 FS::RawPath::RecursiveDirectoryRange::~RecursiveDirectoryRange
FUNC 17f0f0 24f 0 FS::my_open
FUNC 17f340 f 0 VM::CommonVMServices::ProxyCmd::~ProxyCmd
FUNC 17f350 2 0 VM::CommonVMServices::ProxyCmd::~ProxyCmd
FUNC 17f360 12d 0 VM::CommonVMServices::ProxyCvar::OnValueChanged
FUNC 17f490 82 0 VM::CommonVMServices::ProxyCvar::~ProxyCvar
FUNC 17f520 7a 0 VM::CommonVMServices::ProxyCvar::~ProxyCvar
FUNC 17f5a0 21e 0 VM::VMBase::~VMBase
FUNC 17f7c0 769 0 VM::VMParams::VMParams
FUNC 17ff30 f 0 Cmd::AliasProxy::~AliasProxy
FUNC 17ff40 2 0 Cmd::AliasProxy::~AliasProxy
FUNC 17ff50 135 0 Cmd::UnaliasCmd::UnaliasCmd
FUNC 180090 f 0 Cmd::UnaliasCmd::~UnaliasCmd
FUNC 1800a0 2 0 Cmd::UnaliasCmd::~UnaliasCmd
FUNC 1800b0 135 0 Cmd::UndelayCmd::UndelayCmd
FUNC 1801f0 f 0 Cmd::UndelayCmd::~UndelayCmd
FUNC 180200 2 0 Cmd::UndelayCmd::~UndelayCmd
FUNC 180210 1a2 0 Cmd::ListCmdsCmd::ListCmdsCmd
FUNC 1803c0 f 0 Cmd::ListCmdsCmd::~ListCmdsCmd
FUNC 1803d0 2 0 Cmd::ListCmdsCmd::~ListCmdsCmd
FUNC 1803e0 135 0 Cmd::UndelayAllCmd::UndelayAllCmd
FUNC 180520 f 0 Cmd::UndelayAllCmd::~UndelayAllCmd
FUNC 180530 2 0 Cmd::UndelayAllCmd::~UndelayAllCmd
FUNC 180540 2e 0 Cmd::delayRecord_t::~delayRecord_t
FUNC 180570 135 0 Cmd::ListAliasesCmd::ListAliasesCmd
FUNC 1806b0 f 0 Cmd::ListAliasesCmd::~ListAliasesCmd
FUNC 1806c0 2 0 Cmd::ListAliasesCmd::~ListAliasesCmd
FUNC 1806d0 135 0 Cmd::ClearAliasesCmd::ClearAliasesCmd
FUNC 180810 f 0 Cmd::ClearAliasesCmd::~ClearAliasesCmd
FUNC 180820 2 0 Cmd::ClearAliasesCmd::~ClearAliasesCmd
FUNC 180830 f 0 Cmd::DefaultEnvironment::~DefaultEnvironment
FUNC 180840 2 0 Cmd::DefaultEnvironment::~DefaultEnvironment
FUNC 180850 135 0 Cmd::IfCmd::IfCmd
FUNC 180990 f 0 Cmd::IfCmd::~IfCmd
FUNC 1809a0 2 0 Cmd::IfCmd::~IfCmd
FUNC 1809b0 135 0 Cmd::EchoCmd::EchoCmd
FUNC 180af0 f 0 Cmd::EchoCmd::~EchoCmd
FUNC 180b00 2 0 Cmd::EchoCmd::~EchoCmd
FUNC 180b10 14e 0 Cmd::ExecCmd::ExecCmd
FUNC 180c60 f 0 Cmd::ExecCmd::~ExecCmd
FUNC 180c70 2 0 Cmd::ExecCmd::~ExecCmd
FUNC 180c80 135 0 Cmd::MathCmd::MathCmd
FUNC 180dc0 f 0 Cmd::MathCmd::~MathCmd
FUNC 180dd0 2 0 Cmd::MathCmd::~MathCmd
FUNC 180de0 135 0 Cmd::VstrCmd::VstrCmd
FUNC 180f20 f 0 Cmd::VstrCmd::~VstrCmd
FUNC 180f30 2 0 Cmd::VstrCmd::~VstrCmd
FUNC 180f40 135 0 Cmd::AliasCmd::AliasCmd
FUNC 181080 f 0 Cmd::AliasCmd::~AliasCmd
FUNC 181090 2 0 Cmd::AliasCmd::~AliasCmd
FUNC 1810a0 135 0 Cmd::CycleCmd::CycleCmd
FUNC 1811e0 f 0 Cmd::CycleCmd::~CycleCmd
FUNC 1811f0 2 0 Cmd::CycleCmd::~CycleCmd
FUNC 181200 135 0 Cmd::DelayCmd::DelayCmd
FUNC 181340 f 0 Cmd::DelayCmd::~DelayCmd
FUNC 181350 2 0 Cmd::DelayCmd::~DelayCmd
FUNC 181360 135 0 Cmd::ConcatCmd::ConcatCmd
FUNC 1814a0 f 0 Cmd::ConcatCmd::~ConcatCmd
FUNC 1814b0 2 0 Cmd::ConcatCmd::~ConcatCmd
FUNC 1814c0 85 0 Cmd::LambdaCmd::~LambdaCmd
FUNC 181550 7d 0 Cmd::LambdaCmd::~LambdaCmd
FUNC 1815d0 135 0 Cmd::RandomCmd::RandomCmd
FUNC 181710 f 0 Cmd::RandomCmd::~RandomCmd
FUNC 181720 2 0 Cmd::RandomCmd::~RandomCmd
FUNC 181730 135 0 Cmd::ToggleCmd::ToggleCmd
FUNC 181870 f 0 Cmd::ToggleCmd::~ToggleCmd
FUNC 181880 2 0 Cmd::ToggleCmd::~ToggleCmd
FUNC 181890 857 0 IPC::detail::SendMsg<VM::VMBase::SendMsg(Args&& ...) [with Msg = IPC::SyncMessage<IPC::Message<IPC::Id<0, 0>, int> >; Args = {int}]::<lambda(uint32_t, Util::Reader)>&, IPC::Message<IPC::Id<0, 0>, int>, IPC::Reply<>, int>
FUNC 1820f0 845 0 IPC::detail::SendMsg<VM::VMBase::SendMsg(Args&& ...) [with Msg = IPC::SyncMessage<IPC::Message<IPC::Id<0, 10>, cgClientState_t> >; Args = {cgClientState_t&}]::<lambda(uint32_t, Util::Reader)>&, IPC::Message<IPC::Id<0, 10>, cgClientState_t>, IPC::Reply<>, cgClientState_t&>
FUNC 182940 875 0 IPC::detail::SendMsg<VM::VMBase::SendMsg(Args&& ...) [with Msg = IPC::SyncMessage<IPC::Message<IPC::Id<0, 11>, std::__cxx11::basic_string<char, std::char_traits<char>, std::allocator<char> > > >; Args = {const std::__cxx11::basic_string<char, std::char_traits<char>, std::allocator<char> >&}]::<lambda(uint32_t, Util::Reader)>&, IPC::Message<IPC::Id<0, 11>, std::__cxx11::basic_string<char, std::char_traits<char>, std::allocator<char> > >, IPC::Reply<>, const std::__cxx11::basic_string<char, std::char_traits<char>, std::allocator<char> >&>
FUNC 1831c0 845 0 IPC::detail::SendMsg<VM::VMBase::SendMsg(Args&& ...) [with Msg = IPC::SyncMessage<IPC::Message<IPC::Id<0, 12>, bool> >; Args = {bool&}]::<lambda(uint32_t, Util::Reader)>&, IPC::Message<IPC::Id<0, 12>, bool>, IPC::Reply<>, bool&>
FUNC 183a10 8ef 0 IPC::detail::SendMsg<VM::VMBase::SendMsg(Args&& ...) [with Msg = IPC::SyncMessage<IPC::Message<IPC::Id<0, 13>, IPC::SharedMemory, unsigned int, int> >; Args = {IPC::SharedMemory&, unsigned int&, int&}]::<lambda(uint32_t, Util::Reader)>&, IPC::Message<IPC::Id<0, 13>, IPC::SharedMemory, unsigned int, int>, IPC::Reply<>, IPC::SharedMemory&, unsigned int&, int&>
FUNC 184300 94b 0 IPC::detail::SendMsg<VM::VMBase::SendMsg(Args&& ...) [with Msg = IPC::SyncMessage<IPC::Message<IPC::Id<0, 14>, int, IPC::SharedMemory, unsigned int, int> >; Args = {int&, IPC::SharedMemory&, unsigned int&, int&}]::<lambda(uint32_t, Util::Reader)>&, IPC::Message<IPC::Id<0, 14>, int, IPC::SharedMemory, unsigned int, int>, IPC::Reply<>, int&, IPC::SharedMemory&, unsigned int&, int&>
FUNC 184c50 945 0 IPC::detail::SendMsg<VM::VMBase::SendMsg(Args&& ...) [with Msg = IPC::SyncMessage<IPC::Message<IPC::Id<0, 1>, int, int, glconfig_t, std::array<std::__cxx11::basic_string<char, std::char_traits<char>, std::allocator<char> >, 1024> > >; Args = {int&, int&, glconfig_t&, std::array<std::__cxx11::basic_string<char, std::char_traits<char>, std::allocator<char> >, 1024>&}]::<lambda(uint32_t, Util::Reader)>&, IPC::Message<IPC::Id<0, 1>, int, int, glconfig_t, std::array<std::__cxx11::basic_string<char, std::char_traits<char>, std::allocator<char> >, 1024> >, IPC::Reply<>, int&, int&, glconfig_t&, std::array<std::__cxx11::basic_string<char, std::char_traits<char>, std::allocator<char> >, 1024>&>
FUNC 1855a0 8d5 0 IPC::detail::SendMsg<VM::VMBase::SendMsg(Args&& ...) [with Msg = IPC::SyncMessage<IPC::Message<IPC::Id<0, 1>, int, int, bool, bool> >; Args = {int&, int&, bool, bool}]::<lambda(uint32_t, Util::Reader)>&, IPC::Message<IPC::Id<0, 1>, int, int, bool, bool>, IPC::Reply<>, int&, int&, bool, bool>
FUNC 185e80 815 0 IPC::detail::SendMsg<VM::VMBase::SendMsg(Args&& ...) [with Msg = IPC::SyncMessage<IPC::Message<IPC::Id<0, 2> > >; Args = {}]::<lambda(uint32_t, Util::Reader)>&, IPC::Message<IPC::Id<0, 2> >, IPC::Reply<> >
FUNC 1866a0 861 0 IPC::detail::SendMsg<VM::VMBase::SendMsg(Args&& ...) [with Msg = IPC::SyncMessage<IPC::Message<IPC::Id<0, 2>, bool> >; Args = {bool&}]::<lambda(uint32_t, Util::Reader)>&, IPC::Message<IPC::Id<0, 2>, bool>, IPC::Reply<>, bool&>
FUNC 186f10 865 0 IPC::detail::SendMsg<VM::VMBase::SendMsg(Args&& ...) [with Msg = IPC::SyncMessage<IPC::Message<IPC::Id<0, 3>, int, bool> >; Args = {int&, bool&}]::<lambda(uint32_t, Util::Reader)>&, IPC::Message<IPC::Id<0, 3>, int, bool>, IPC::Reply<>, int&, bool&>
FUNC 187780 a4f 0 IPC::detail::SendMsg<VM::VMBase::SendMsg(Args&& ...) [with Msg = IPC::SyncMessage<IPC::Message<IPC::Id<0, 3>, int, bool, int>, IPC::Reply<bool, std::__cxx11::basic_string<char, std::char_traits<char>, std::allocator<char> > > >; Args = {int&, bool&, bool&, bool&, std::__cxx11::basic_string<char, std::char_traits<char>, std::allocator<char> >&}]::<lambda(uint32_t, Util::Reader)>&, IPC::Message<IPC::Id<0, 3>, int, bool, int>, IPC::Reply<bool, std::__cxx11::basic_string<char, std::char_traits<char>, std::allocator<char> > >, int&, bool&, bool&, bool&, std::__cxx11::basic_string<char, std::char_traits<char>, std::allocator<char> >&>
FUNC 1881d0 849 0 IPC::detail::SendMsg<VM::VMBase::SendMsg(Args&& ...) [with Msg = IPC::SyncMessage<IPC::Message<IPC::Id<0, 4> >, IPC::Reply<int> >; Args = {int&}]::<lambda(uint32_t, Util::Reader)>&, IPC::Message<IPC::Id<0, 4> >, IPC::Reply<int>, int&>
FUNC 188a20 861 0 IPC::detail::SendMsg<VM::VMBase::SendMsg(Args&& ...) [with Msg = IPC::SyncMessage<IPC::Message<IPC::Id<0, 4>, int> >; Args = {int&}]::<lambda(uint32_t, Util::Reader)>&, IPC::Message<IPC::Id<0, 4>, int>, IPC::Reply<>, int&>
FUNC 189290 8a5 0 IPC::detail::SendMsg<VM::VMBase::SendMsg(Args&& ...) [with Msg = IPC::SyncMessage<IPC::Message<IPC::Id<0, 5>, Keyboard::Key, bool> >; Args = {Keyboard::Key&, bool&}]::<lambda(uint32_t, Util::Reader)>&, IPC::Message<IPC::Id<0, 5>, Keyboard::Key, bool>, IPC::Reply<>, Keyboard::Key&, bool&>
FUNC 189b40 861 0 IPC::detail::SendMsg<VM::VMBase::SendMsg(Args&& ...) [with Msg = IPC::SyncMessage<IPC::Message<IPC::Id<0, 5>, int> >; Args = {int&}]::<lambda(uint32_t, Util::Reader)>&, IPC::Message<IPC::Id<0, 5>, int>, IPC::Reply<>, int&>
FUNC 18a3b0 861 0 IPC::detail::SendMsg<VM::VMBase::SendMsg(Args&& ...) [with Msg = IPC::SyncMessage<IPC::Message<IPC::Id<0, 6>, int> >; Args = {int&}]::<lambda(uint32_t, Util::Reader)>&, IPC::Message<IPC::Id<0, 6>, int>, IPC::Reply<>, int&>
FUNC 18ac20 865 0 IPC::detail::SendMsg<VM::VMBase::SendMsg(Args&& ...) [with Msg = IPC::SyncMessage<IPC::Message<IPC::Id<0, 6>, int, int> >; Args = {int&, int&}]::<lambda(uint32_t, Util::Reader)>&, IPC::Message<IPC::Id<0, 6>, int, int>, IPC::Reply<>, int&, int&>
FUNC 18b490 8b5 0 IPC::detail::SendMsg<VM::VMBase::SendMsg(Args&& ...) [with Msg = IPC::SyncMessage<IPC::Message<IPC::Id<0, 7>, int, std::__cxx11::basic_string<char, std::char_traits<char>, std::allocator<char> > > >; Args = {int&, char const*&}]::<lambda(uint32_t, Util::Reader)>&, IPC::Message<IPC::Id<0, 7>, int, std::__cxx11::basic_string<char, std::char_traits<char>, std::allocator<char> > >, IPC::Reply<>, int&, char const*&>
FUNC 18bd50 865 0 IPC::detail::SendMsg<VM::VMBase::SendMsg(Args&& ...) [with Msg = IPC::SyncMessage<IPC::Message<IPC::Id<0, 7>, int, int> >; Args = {int&, int&}]::<lambda(uint32_t, Util::Reader)>&, IPC::Message<IPC::Id<0, 7>, int, int>, IPC::Reply<>, int&, int&>
FUNC 18c5c0 861 0 IPC::detail::SendMsg<VM::VMBase::SendMsg(Args&& ...) [with Msg = IPC::SyncMessage<IPC::Message<IPC::Id<0, 8>, int> >; Args = {int&}]::<lambda(uint32_t, Util::Reader)>&, IPC::Message<IPC::Id<0, 8>, int>, IPC::Reply<>, int&>
FUNC 18ce30 845 0 IPC::detail::SendMsg<VM::VMBase::SendMsg(Args&& ...) [with Msg = IPC::SyncMessage<IPC::Message<IPC::Id<0, 9>, glconfig_t> >; Args = {glconfig_t&}]::<lambda(uint32_t, Util::Reader)>&, IPC::Message<IPC::Id<0, 9>, glconfig_t>, IPC::Reply<>, glconfig_t&>
FUNC 18d680 861 0 IPC::detail::SendMsg<VM::VMBase::SendMsg(Args&& ...) [with Msg = IPC::SyncMessage<IPC::Message<IPC::Id<0, 9>, int> >; Args = {int&}]::<lambda(uint32_t, Util::Reader)>&, IPC::Message<IPC::Id<0, 9>, int>, IPC::Reply<>, int&>
FUNC 18def0 91a 0 IPC::detail::SendMsg<VM::VMBase::SendMsg(Args&& ...) [with Msg = IPC::SyncMessage<IPC::Message<IPC::Id<3, 0>, std::__cxx11::basic_string<char, std::char_traits<char>, std::allocator<char> > > >; Args = {std::__cxx11::basic_string<char, std::char_traits<char>, std::allocator<char> >}]::<lambda(uint32_t, Util::Reader)>&, IPC::Message<IPC::Id<3, 0>, std::__cxx11::basic_string<char, std::char_traits<char>, std::allocator<char> > >, IPC::Reply<>, std::__cxx11::basic_string<char, std::char_traits<char>, std::allocator<char> > >
FUNC 18e810 11ff 0 IPC::detail::SendMsg<VM::VMBase::SendMsg(Args&& ...) [with Msg = IPC::SyncMessage<IPC::Message<IPC::Id<3, 1>, int, std::__cxx11::basic_string<char, std::char_traits<char>, std::allocator<char> >, std::__cxx11::basic_string<char, std::char_traits<char>, std::allocator<char> > >, IPC::Reply<std::vector<std::pair<std::__cxx11::basic_string<char, std::char_traits<char>, std::allocator<char> >, std::__cxx11::basic_string<char, std::char_traits<char>, std::allocator<char> > >, std::allocator<std::pair<std::__cxx11::basic_string<char, std::char_traits<char>, std::allocator<char> >, std::__cxx11::basic_string<char, std::char_traits<char>, std::allocator<char> > > > > > >; Args = {int&, std::__cxx11::basic_string<char, std::char_traits<char>, std::allocator<char> >, Str::BasicStringRef<char>&, std::vector<std::pair<std::__cxx11::basic_string<char, std::char_traits<char>, std::allocator<char> >, std::__cxx11::basic_string<char, std::char_traits<char>, std::allocator<char> > >, std::allocator<std::pair<std::__cxx11::basic_string<char, std::char_traits<char>, std::allocator<char> >, std::__cxx11::basic_string<char, std::char_traits<char>, std::allocator<char> > > > >&}]::<lambda(uint32_t, Util::Reader)>&, IPC::Message<IPC::Id<3, 1>, int, std::__cxx11::basic_string<char, std::char_traits<char>, std::allocator<char> >, std::__cxx11::basic_string<char, std::char_traits<char>, std::allocator<char> > >, IPC::Reply<std::vector<std::pair<std::__cxx11::basic_string<char, std::char_traits<char>, std::allocator<char> >, std::__cxx11::basic_string<char, std::char_traits<char>, std::allocator<char> > >, std::allocator<std::pair<std::__cxx11::basic_string<char, std::char_traits<char>, std::allocator<char> >, std::__cxx11::basic_string<char, std::char_traits<char>, std::allocator<char> > > > > >, int&, std::__cxx11::basic_string<char, std::char_traits<char>, std::allocator<char> >, Str::BasicStringRef<char>&, std::vector<std::pair<std::__cxx11::basic_string<char, std::char_traits<char>, std::allocator<char> >, std::__cxx11::basic_string<char, std::char_traits<char>, std::allocator<char> > >, std::allocator<std::pair<std::__cxx11::basic_string<char, std::char_traits<char>, std::allocator<char> >, std::__cxx11::basic_string<char, std::char_traits<char>, std::allocator<char> > > > >&>
FUNC 18fa10 b48 0 IPC::detail::SendMsg<VM::VMBase::SendMsg(Args&& ...) [with Msg = IPC::SyncMessage<IPC::Message<IPC::Id<4, 0>, std::__cxx11::basic_string<char, std::char_traits<char>, std::allocator<char> >, std::__cxx11::basic_string<char, std::char_traits<char>, std::allocator<char> > >, IPC::Reply<bool, std::__cxx11::basic_string<char, std::char_traits<char>, std::allocator<char> > > >; Args = {std::__cxx11::basic_string<char, std::char_traits<char>, std::allocator<char> >&, Str::BasicStringRef<char>&, bool&, std::__cxx11::basic_string<char, std::char_traits<char>, std::allocator<char> >&}]::<lambda(uint32_t, Util::Reader)>&, IPC::Message<IPC::Id<4, 0>, std::__cxx11::basic_string<char, std::char_traits<char>, std::allocator<char> >, std::__cxx11::basic_string<char, std::char_traits<char>, std::allocator<char> > >, IPC::Reply<bool, std::__cxx11::basic_string<char, std::char_traits<char>, std::allocator<char> > >, std::__cxx11::basic_string<char, std::char_traits<char>, std::allocator<char> >&, Str::BasicStringRef<char>&, bool&, std::__cxx11::basic_string<char, std::char_traits<char>, std::allocator<char> >&>
FUNC 190560 110 0 IPC::Channel::RecvReplyMsg
FUNC 190670 1188 0 Log::LogFileTarget::Process
FUNC 191800 6a 0 Log::LogFileTarget::~LogFileTarget
FUNC 191870 62 0 Log::LogFileTarget::~LogFileTarget
FUNC 1918e0 15f 0 Log::Logger::Warn<>
FUNC 191a40 153 0 Log::Logger::Warn<std::__cxx11::basic_string<char, std::char_traits<char>, std::allocator<char> > >
FUNC 191ba0 11d2 0 Log::Logger::Warn<std::__cxx11::basic_string<char, std::char_traits<char>, std::allocator<char> >, char const*>
FUNC 192d80 15a 0 Log::Logger::Warn<std::__cxx11::basic_string<char, std::char_traits<char>, std::allocator<char> >, std::__cxx11::basic_string<char, std::char_traits<char>, std::allocator<char> > >
FUNC 192ee0 153 0 Log::Logger::Warn<char const*>
FUNC 193040 11d2 0 Log::Logger::Warn<char const*, char const*&>
FUNC 194220 153 0 Log::Logger::Warn<char (&)[1024]>
FUNC 194380 11f2 0 Log::Logger::Warn<char (&)[1024], int&, char (&)[4096]>
FUNC 195580 153 0 Log::Logger::Warn<char (&)[128]>
FUNC 1956e0 6e9 0 Log::Logger::Warn<char (&)[128], char (&)[64]>
FUNC 195dd0 2c3 0 Log::Logger::Warn<char const (&)[23]>
FUNC 1960a0 153 0 Log::Logger::Warn<const std::__cxx11::basic_string<char, std::char_traits<char>, std::allocator<char> >&>
FUNC 196200 15a 0 Log::Logger::Warn<Str::BasicStringRef<char>&, const std::__cxx11::basic_string<char, std::char_traits<char>, std::allocator<char> >&>
FUNC 196360 153 0 Log::Logger::Warn<std::__cxx11::basic_string<char, std::char_traits<char>, std::allocator<char> >&>
FUNC 1964c0 272 0 Log::Logger::Warn<std::__cxx11::basic_string<char, std::char_traits<char>, std::allocator<char> >&, char const*>
FUNC 196740 272 0 Log::Logger::Warn<std::__cxx11::basic_string<char, std::char_traits<char>, std::allocator<char> >&, const std::__cxx11::basic_string<char, std::char_traits<char>, std::allocator<char> >&>
FUNC 1969c0 15a 0 Log::Logger::Warn<std::__cxx11::basic_string<char, std::char_traits<char>, std::allocator<char> >&, std::__cxx11::basic_string<char, std::char_traits<char>, std::allocator<char> >&>
FUNC 196b20 153 0 Log::Logger::Warn<char const*&>
FUNC 196c80 11bc 0 Log::Logger::Warn<char*&>
FUNC 197e40 153 0 Log::Logger::Warn<int&>
FUNC 197fa0 272 0 Log::Logger::Warn<int&, std::__cxx11::basic_string<char, std::char_traits<char>, std::allocator<char> > >
FUNC 198220 11d2 0 Log::Logger::Warn<int&, int const&>
FUNC 199400 153 0 Log::Logger::Warn<int>
FUNC 199560 15f 0 Log::Logger::Debug<>
FUNC 1996c0 153 0 Log::Logger::Debug<std::__cxx11::basic_string<char, std::char_traits<char>, std::allocator<char> > >
FUNC 199820 15a 0 Log::Logger::Debug<std::__cxx11::basic_string<char, std::char_traits<char>, std::allocator<char> >, const std::__cxx11::basic_string<char, std::char_traits<char>, std::allocator<char> >&>
FUNC 199980 153 0 Log::Logger::Debug<char const*>
FUNC 199ae0 153 0 Log::Logger::Debug<char*>
FUNC 199c40 153 0 Log::Logger::Debug<char (&)[1024]>
FUNC 199da0 153 0 Log::Logger::Debug<char (&)[128]>
FUNC 199f00 6e9 0 Log::Logger::Debug<char (&)[128], char const*&>
FUNC 19a5f0 6f9 0 Log::Logger::Debug<char (&)[128], int&, char*&>
FUNC 19acf0 11c1 0 Log::Logger::Debug<char (&)[256]>
FUNC 19bec0 272 0 Log::Logger::Debug<char (&)[256], char (&)[64]>
FUNC 19c140 272 0 Log::Logger::Debug<char (&)[256], char const*&>
FUNC 19c3c0 11f7 0 Log::Logger::Debug<char (&)[256], int&, int&>
FUNC 19d5c0 11c7 0 Log::Logger::Debug<Str::BasicStringRef<char>&>
FUNC 19e790 153 0 Log::Logger::Debug<std::__cxx11::basic_string<char, std::char_traits<char>, std::allocator<char> >&>
FUNC 19e8f0 153 0 Log::Logger::Debug<char const*&>
FUNC 19ea50 15a 0 Log::Logger::Debug<char const*&, char const*>
FUNC 19ebb0 15a 0 Log::Logger::Debug<char const*&, char const*&>
FUNC 19ed10 272 0 Log::Logger::Debug<char*&, char const*>
FUNC 19ef90 153 0 Log::Logger::Debug<int&>
FUNC 19f0f0 11d7 0 Log::Logger::Debug<int&, std::__cxx11::basic_string<char, std::char_traits<char>, std::allocator<char> > >
FUNC 1a02d0 15a 0 Log::Logger::Debug<int&, char const*>
FUNC 1a0430 6e9 0 Log::Logger::Debug<int&, char (&)[1024]>
FUNC 1a0b20 11d7 0 Log::Logger::Debug<int&, char (&)[256]>
FUNC 1a1d00 6e9 0 Log::Logger::Debug<int&, char const*&>
FUNC 1a23f0 272 0 Log::Logger::Debug<int&, int&>
FUNC 1a2670 2ac 0 Log::Logger::Debug<int&, int&, int&, int&>
FUNC 1a2920 6e9 0 Log::Logger::Debug<int&, long int>
FUNC 1a3010 255 0 Log::Logger::Debug<unsigned int&>
FUNC 1a3270 255 0 Log::Logger::Debug<double>
FUNC 1a34d0 1267 0 Log::Logger::Debug<float, float&, int&, float&, int&, float&, float>
FUNC 1a4740 15a 0 Log::Logger::Debug<int, char (&)[64]>
FUNC 1a48a0 15a 0 Log::Logger::Debug<int, int&>
FUNC 1a4a00 11d7 0 Log::Logger::Debug<unsigned int, std::__cxx11::basic_string<char, std::char_traits<char>, std::allocator<char> >&>
FUNC 1a5be0 15f 0 Log::Logger::Notice<>
FUNC 1a5d40 6e9 0 Log::Logger::Notice<std::__cxx11::basic_string<char, std::char_traits<char>, std::allocator<char> >, char const*>
FUNC 1a6430 6f9 0 Log::Logger::Notice<std::__cxx11::basic_string<char, std::char_traits<char>, std::allocator<char> >, char const*, char const*>
FUNC 1a6b30 11bc 0 Log::Logger::Notice<char const*>
FUNC 1a7cf0 2e0 0 Log::Logger::Notice<char const*, char (&)[1024]>
FUNC 1a7fd0 11d2 0 Log::Logger::Notice<char const*, int&>
FUNC 1a91b0 11d2 0 Log::Logger::Notice<char const*, char const*>
FUNC 1aa390 161 0 Log::Logger::Notice<char const*, char const*, char const*>
FUNC 1aa500 1212 0 Log::Logger::Notice<char const*, char const*, char const*, char const*>
FUNC 1ab720 153 0 Log::Logger::Notice<char (&)[1024]>
FUNC 1ab880 11f2 0 Log::Logger::Notice<char (&)[1024], int&, char (&)[1024]>
FUNC 1aca80 6e9 0 Log::Logger::Notice<char (&)[128], char (&)[256]>
FUNC 1ad170 6e9 0 Log::Logger::Notice<char (&)[128], char*&>
FUNC 1ad860 6e9 0 Log::Logger::Notice<char (&)[128], int&>
FUNC 1adf50 11c2 0 Log::Logger::Notice<char const (&)[13]>
FUNC 1af120 6e9 0 Log::Logger::Notice<char const (&)[13], char (&)[509]>
FUNC 1af810 11bc 0 Log::Logger::Notice<char const (&)[14]>
FUNC 1b09d0 11c2 0 Log::Logger::Notice<char const (&)[15]>
FUNC 1b1ba0 11bc 0 Log::Logger::Notice<char const (&)[16]>
FUNC 1b2d60 6c9 0 Log::Logger::Notice<char (&)[16]>
FUNC 1b3430 11c2 0 Log::Logger::Notice<char const (&)[19]>
FUNC 1b4600 11c2 0 Log::Logger::Notice<char (&)[2048]>
FUNC 1b57d0 11c2 0 Log::Logger::Notice<char const (&)[21]>
FUNC 1b69a0 11bc 0 Log::Logger::Notice<char const (&)[22]>
FUNC 1b7b60 11bc 0 Log::Logger::Notice<char (&)[256]>
FUNC 1b8d20 11c2 0 Log::Logger::Notice<char const (&)[25]>
FUNC 1b9ef0 11c2 0 Log::Logger::Notice<char const (&)[26]>
FUNC 1bb0c0 6c9 0 Log::Logger::Notice<char const (&)[28]>
FUNC 1bb790 2c3 0 Log::Logger::Notice<char const (&)[31]>
FUNC 1bba60 11c2 0 Log::Logger::Notice<char const (&)[33]>
FUNC 1bcc30 11c2 0 Log::Logger::Notice<char const (&)[34]>
FUNC 1bde00 6c9 0 Log::Logger::Notice<char const (&)[40]>
FUNC 1be4d0 2c3 0 Log::Logger::Notice<char const (&)[42]>
FUNC 1be7a0 6c9 0 Log::Logger::Notice<char const (&)[44]>
FUNC 1bee70 11bc 0 Log::Logger::Notice<char (&)[48]>
FUNC 1c0030 2c3 0 Log::Logger::Notice<char const (&)[52]>
FUNC 1c0300 11bc 0 Log::Logger::Notice<char (&)[64]>
FUNC 1c14c0 11f2 0 Log::Logger::Notice<char const (&)[6], char const*, char const*&>
FUNC 1c26c0 11bc 0 Log::Logger::Notice<char (&)[8192]>
FUNC 1c3880 11bc 0 Log::Logger::Notice<char const (&)[8]>
FUNC 1c4a40 11bc 0 Log::Logger::Notice<char const (&)[9]>
FUNC 1c5c00 11bc 0 Log::Logger::Notice<const std::__cxx11::basic_string<char, std::char_traits<char>, std::allocator<char> >&>
FUNC 1c6dc0 11f2 0 Log::Logger::Notice<char const* const&, int&, int&>
FUNC 1c7fc0 1232 0 Log::Logger::Notice<char const* const&, int&, int&, int&, int&>
FUNC 1c9200 1212 0 Log::Logger::Notice<char const* const&, int&, int, int&>
FUNC 1ca420 153 0 Log::Logger::Notice<std::__cxx11::basic_string<char, std::char_traits<char>, std::allocator<char> >&>
FUNC 1ca580 11bc 0 Log::Logger::Notice<char const*&>
FUNC 1cb740 11d2 0 Log::Logger::Notice<char const*&, char*>
FUNC 1cc920 6e9 0 Log::Logger::Notice<char const*&, char (&)[128]>
FUNC 1cd010 11d2 0 Log::Logger::Notice<char const*&, float&>
FUNC 1ce1f0 11d2 0 Log::Logger::Notice<char const*&, int&>
FUNC 1cf3d0 15a 0 Log::Logger::Notice<char const*&, char const*>
FUNC 1cf530 11f2 0 Log::Logger::Notice<char const*&, char const*&, char const*>
FUNC 1d0730 6c9 0 Log::Logger::Notice<char*&>
FUNC 1d0e00 6e9 0 Log::Logger::Notice<char*&, std::__cxx11::basic_string<char, std::char_traits<char>, std::allocator<char> > >
FUNC 1d14f0 11d2 0 Log::Logger::Notice<float&, float&>
FUNC 1d26d0 1212 0 Log::Logger::Notice<float&, float&, float&, float&>
FUNC 1d38f0 11bc 0 Log::Logger::Notice<unsigned char&>
FUNC 1d4ab0 719 0 Log::Logger::Notice<unsigned char&, unsigned char&, unsigned char&, unsigned char&>
FUNC 1d51d0 153 0 Log::Logger::Notice<int&>
FUNC 1d5330 15a 0 Log::Logger::Notice<int&, char const*>
FUNC 1d5490 6e9 0 Log::Logger::Notice<int&, char const*&>
FUNC 1d5b80 11d2 0 Log::Logger::Notice<int&, int&>
FUNC 1d6d60 11f2 0 Log::Logger::Notice<int&, int&, char (&)[64]>
FUNC 1d7f60 11f2 0 Log::Logger::Notice<int&, int&, int&>
FUNC 1d9160 31a 0 Log::Logger::Notice<int&, int&, int&, char const*&>
FUNC 1d9480 1232 0 Log::Logger::Notice<int&, int&, int&, int&, int&>
FUNC 1da6c0 12a2 0 Log::Logger::Notice<int&, int&, int&, int&, int&, int&, int&, int&, int&>
FUNC 1db970 2fd 0 Log::Logger::Notice<int&, double, double>
FUNC 1dbc70 11d2 0 Log::Logger::Notice<int&, float>
FUNC 1dce50 15a 0 Log::Logger::Notice<int&, int>
FUNC 1dcfb0 11d2 0 Log::Logger::Notice<short int&, char const*>
FUNC 1de190 11bc 0 Log::Logger::Notice<int>
FUNC 1df350 15a 0 Log::Logger::Notice<int, char (&)[64]>
FUNC 1df4b0 11d2 0 Log::Logger::Notice<int, char const*&>
FUNC 1e0690 15a 0 Log::Logger::Notice<int, int&>
FUNC 1e07f0 11d2 0 Log::Logger::Notice<int, int>
FUNC 1e19d0 11d2 0 Log::Logger::Notice<long unsigned int, char const*>
FUNC 1e2bb0 153 0 Log::Logger::Verbose<std::__cxx11::basic_string<char, std::char_traits<char>, std::allocator<char> >&>
FUNC 1e2d10 4b 0 Log::Logger::~Logger
FUNC 1e2d60 5a 0 Log::TTYTarget::Process
FUNC 1e2dc0 f 0 Log::TTYTarget::~TTYTarget
FUNC 1e2dd0 2 0 Log::TTYTarget::~TTYTarget
FUNC 1e2de0 255 0 Net::OutOfBandPrint<>
FUNC 1e3040 7df 0 Net::OutOfBandPrint<std::__cxx11::basic_string<char, std::char_traits<char>, std::allocator<char> > >
FUNC 1e3820 255 0 Net::OutOfBandPrint<std::__cxx11::basic_string<char, std::char_traits<char>, std::allocator<char> >, std::__cxx11::basic_string<char, std::char_traits<char>, std::allocator<char> >&>
FUNC 1e3a80 246 0 Net::OutOfBandPrint<char (&)[1024]>
FUNC 1e3cd0 235 0 Net::OutOfBandPrint<const std::__cxx11::basic_string<char, std::char_traits<char>, std::allocator<char> >&>
FUNC 1e3f10 245 0 Net::OutOfBandPrint<const std::__cxx11::basic_string<char, std::char_traits<char>, std::allocator<char> >&, const std::__cxx11::basic_string<char, std::char_traits<char>, std::allocator<char> >&>
FUNC 1e4160 7df 0 Net::OutOfBandPrint<std::__cxx11::basic_string<char, std::char_traits<char>, std::allocator<char> >&>
FUNC 1e4940 246 0 Net::OutOfBandPrint<char const*&>
FUNC 1e4b90 7df 0 Net::OutOfBandPrint<char*&>
FUNC 1e5370 255 0 Net::OutOfBandPrint<int, int&>
FUNC 1e55d0 1f 0 Str::cisxdigit
FUNC 1e55f0 28 0 Sys::PacketEvent::~PacketEvent
FUNC 1e5620 22 0 Sys::PacketEvent::~PacketEvent
FUNC 1e5650 118 0 Sys::cmdlineArgs_t::~cmdlineArgs_t
FUNC 1e5770 2b 0 Sys::ConsoleInputEvent::~ConsoleInputEvent
FUNC 1e57a0 22 0 Sys::ConsoleInputEvent::~ConsoleInputEvent
FUNC 1e57d0 27 0 Sys::DropErr::~DropErr
FUNC 1e5800 b 0 Sys::DropErr::~DropErr
FUNC 1e5810 135 0 Sys::QuitCmd::QuitCmd
FUNC 1e5950 f 0 Sys::QuitCmd::~QuitCmd
FUNC 1e5960 2 0 Sys::QuitCmd::~QuitCmd
FUNC 1e5970 f 0 Cvar::CvarCommand::~CvarCommand
FUNC 1e5980 2 0 Cvar::CvarCommand::~CvarCommand
FUNC 1e5990 17a 0 Cvar::Cvar<ServerPrivate>::GetDescription
FUNC 1e5b10 24a 0 Cvar::Cvar<ServerPrivate>::OnValueChanged
FUNC 1e5d60 2b 0 Cvar::Cvar<ServerPrivate>::GetAdditionalDescription
FUNC 1e5d90 33 0 Cvar::Cvar<ServerPrivate>::Validate
FUNC 1e5dd0 257 0 Cvar::Cvar<ServerPrivate>::Cvar
FUNC 1e6030 55 0 Cvar::Cvar<ServerPrivate>::~Cvar
FUNC 1e6090 4d 0 Cvar::Cvar<ServerPrivate>::~Cvar
FUNC 1e60e0 11d4 0 Cvar::Cvar<Log::Level>::GetDescription
FUNC 1e72c0 2c4 0 Cvar::Cvar<Log::Level>::OnValueChanged
FUNC 1e7590 2b 0 Cvar::Cvar<Log::Level>::GetAdditionalDescription
FUNC 1e75c0 33 0 Cvar::Cvar<Log::Level>::Validate
FUNC 1e7600 262 0 Cvar::Cvar<Log::Level>::Cvar
FUNC 1e7870 55 0 Cvar::Cvar<Log::Level>::~Cvar
FUNC 1e78d0 4d 0 Cvar::Cvar<Log::Level>::~Cvar
FUNC 1e7920 1a0 0 Cvar::Cvar<std::__cxx11::basic_string<char, std::char_traits<char>, std::allocator<char> > >::GetDescription
FUNC 1e7ac0 2c7 0 Cvar::Cvar<std::__cxx11::basic_string<char, std::char_traits<char>, std::allocator<char> > >::OnValueChanged
FUNC 1e7d90 2b 0 Cvar::Cvar<std::__cxx11::basic_string<char, std::char_traits<char>, std::allocator<char> > >::GetAdditionalDescription
FUNC 1e7dc0 1bb 0 Cvar::Cvar<std::__cxx11::basic_string<char, std::char_traits<char>, std::allocator<char> > >::Set
FUNC 1e7f80 33 0 Cvar::Cvar<std::__cxx11::basic_string<char, std::char_traits<char>, std::allocator<char> > >::Validate
FUNC 1e7fc0 36f 0 Cvar::Cvar<std::__cxx11::basic_string<char, std::char_traits<char>, std::allocator<char> > >::Cvar
FUNC 1e8330 67 0 Cvar::Cvar<std::__cxx11::basic_string<char, std::char_traits<char>, std::allocator<char> > >::~Cvar
FUNC 1e83a0 5f 0 Cvar::Cvar<std::__cxx11::basic_string<char, std::char_traits<char>, std::allocator<char> > >::~Cvar
FUNC 1e8400 1a0 0 Cvar::Cvar<bool>::GetDescription
FUNC 1e85a0 239 0 Cvar::Cvar<bool>::OnValueChanged
FUNC 1e87e0 2b 0 Cvar::Cvar<bool>::GetAdditionalDescription
FUNC 1e8810 ae 0 Cvar::Cvar<bool>::Register
FUNC 1e88c0 33 0 Cvar::Cvar<bool>::Validate
FUNC 1e8900 200 0 Cvar::Cvar<bool>::Cvar
FUNC 1e8b00 55 0 Cvar::Cvar<bool>::~Cvar
FUNC 1e8b60 4d 0 Cvar::Cvar<bool>::~Cvar
FUNC 1e8bb0 1a0 0 Cvar::Cvar<int>::GetDescription
FUNC 1e8d50 239 0 Cvar::Cvar<int>::OnValueChanged
FUNC 1e8f90 2b 0 Cvar::Cvar<int>::GetAdditionalDescription
FUNC 1e8fc0 100 0 Cvar::Cvar<int>::Set
FUNC 1e90c0 33 0 Cvar::Cvar<int>::Validate
FUNC 1e9100 23a 0 Cvar::Cvar<int>::Cvar
FUNC 1e9340 55 0 Cvar::Cvar<int>::~Cvar
FUNC 1e93a0 4d 0 Cvar::Cvar<int>::~Cvar
FUNC 1e93f0 14f 0 Cvar::Cvar<unsigned int>::GetDescription
FUNC 1e9540 1fd 0 Cvar::Cvar<unsigned int>::OnValueChanged
FUNC 1e9740 2b 0 Cvar::Cvar<unsigned int>::GetAdditionalDescription
FUNC 1e9770 33 0 Cvar::Cvar<unsigned int>::Validate
FUNC 1e97b0 55 0 Cvar::Cvar<unsigned int>::~Cvar
FUNC 1e9810 4d 0 Cvar::Cvar<unsigned int>::~Cvar
FUNC 1e9860 143 0 Cvar::Range<Cvar::Cvar<int> >::GetAdditionalDescription
FUNC 1e99b0 219 0 Cvar::Range<Cvar::Cvar<int> >::Validate
FUNC 1e9bd0 38c 0 Cvar::Range<Cvar::Cvar<int> >::Range<>
FUNC 1e9f60 55 0 Cvar::Range<Cvar::Cvar<int> >::~Range
FUNC 1e9fc0 4d 0 Cvar::Range<Cvar::Cvar<int> >::~Range
FUNC 1ea010 143 0 Cvar::Range<Cvar::Cvar<unsigned int> >::GetAdditionalDescription
FUNC 1ea160 219 0 Cvar::Range<Cvar::Cvar<unsigned int> >::Validate
FUNC 1ea380 38c 0 Cvar::Range<Cvar::Cvar<unsigned int> >::Range<>
FUNC 1ea710 55 0 Cvar::Range<Cvar::Cvar<unsigned int> >::~Range
FUNC 1ea770 4d 0 Cvar::Range<Cvar::Cvar<unsigned int> >::~Range
FUNC 1ea7c0 147 0 Cvar::SetCmd::SetCmd
FUNC 1ea910 f 0 Cvar::SetCmd::~SetCmd
FUNC 1ea920 2 0 Cvar::SetCmd::~SetCmd
FUNC 1ea930 fc 0 Cvar::Callback<Cvar::Cvar<bool> >::OnValueChanged
FUNC 1eaa30 3d6 0 Cvar::Callback<Cvar::Cvar<bool> >::Callback<>
FUNC 1eae10 a4 0 Cvar::Callback<Cvar::Cvar<bool> >::~Callback
FUNC 1eaec0 9c 0 Cvar::Callback<Cvar::Cvar<bool> >::~Callback
FUNC 1eaf60 135 0 Cvar::ResetCmd::ResetCmd
FUNC 1eb0a0 f 0 Cvar::ResetCmd::~ResetCmd
FUNC 1eb0b0 2 0 Cvar::ResetCmd::~ResetCmd
FUNC 1eb0c0 35 0 Cvar::CvarProxy::~CvarProxy
FUNC 1eb100 135 0 Cvar::ListCvars::ListCvars
FUNC 1eb240 f 0 Cvar::ListCvars::~ListCvars
FUNC 1eb250 2 0 Cvar::ListCvars::~ListCvars
FUNC 1eb260 53 0 Rcon::Message::~Message
FUNC 1eb2c0 69 0 Util::SerializeTraits<std::__cxx11::basic_string<char, std::char_traits<char>, std::allocator<char> >, void>::Read
FUNC 1eb330 61 0 Util::SerializeTraits<std::__cxx11::basic_string<char, std::char_traits<char>, std::allocator<char> >, void>::Write
FUNC 1eb3a0 1e 0 Util::bad_optional_access::~bad_optional_access
FUNC 1eb3c0 b 0 Util::bad_optional_access::~bad_optional_access
FUNC 1eb3d0 47 0 Util::Reader::CheckEndRead
FUNC 1eb420 53 0 Util::Reader::ReadData
FUNC 1eb480 8f 0 Util::Reader::~Reader
FUNC 1eb510 28 0 Util::Writer::~Writer
FUNC 1eb540 be 0 Util::optional<float>::value
FUNC 1eb600 135 0 DirCmd::DirCmd
FUNC 1eb740 f 0 DirCmd::~DirCmd
FUNC 1eb750 2 0 DirCmd::~DirCmd
FUNC 1eb760 252 0 GameVM::~GameVM
FUNC 1eb9c0 24a 0 GameVM::~GameVM
FUNC 1ebc10 160 0 MapCmd::MapCmd
FUNC 1ebd70 f 0 MapCmd::~MapCmd
FUNC 1ebd80 2 0 MapCmd::~MapCmd
FUNC 1ebd90 9a 0 CGameVM::CmdBuffer::~CmdBuffer
FUNC 1ebe30 97 0 CGameVM::CmdBuffer::~CmdBuffer
FUNC 1ebed0 2c7 0 CGameVM::~CGameVM
FUNC 1ec1a0 2c3 0 CGameVM::~CGameVM
FUNC 1ec470 135 0 RconCmd::RconCmd
FUNC 1ec5b0 f 0 RconCmd::~RconCmd
FUNC 1ec5c0 2 0 RconCmd::~RconCmd
FUNC 1ec5d0 f 0 ProxyCmd::~ProxyCmd
FUNC 1ec5e0 2 0 ProxyCmd::~ProxyCmd
FUNC 1ec5f0 135 0 WhichCmd::WhichCmd
FUNC 1ec730 f 0 WhichCmd::~WhichCmd
FUNC 1ec740 2 0 WhichCmd::~WhichCmd
FUNC 1ec750 135 0 StatusCmd::StatusCmd
FUNC 1ec890 f 0 StatusCmd::~StatusCmd
FUNC 1ec8a0 2 0 StatusCmd::~StatusCmd
FUNC 1ec8b0 5b 0 __gnu_cxx::__to_xstring<std::__cxx11::basic_string<char>, char>
FUNC 1ec910 22b 0 DemoPlayCmd::Run
FUNC 1ecb40 86 0 DemoPlayCmd::Complete
FUNC 1ecbd0 517 0 DemoVideoCmd::Run
FUNC 1ed0f0 88 0 ListPathsCmd::Run
FUNC 1ed180 2c5 0 DemoRecordCmd::Run
FUNC 1ed450 c5 0 RconDiscoverCmd::Run
FUNC 1ed520 e 0 DemoStopVideoCmd::Run
FUNC 1ed530 42 0 DemoRecordStopCmd::Run
FUNC 1ed580 6 0 FS::minizip_category_impl::name
FUNC 1ed590 128 0 FS::minizip_category_impl::message
FUNC 1ed6c0 6 0 FS::filesystem_category_impl::name
FUNC 1ed6d0 da 0 FS::filesystem_category_impl::message
FUNC 1ed7b0 126 0 VM::CommonVMServices::ProxyCmd::Run
FUNC 1ed8e0 16e 0 VM::CommonVMServices::ProxyCmd::Complete
FUNC 1eda50 338 0 Cmd::AliasProxy::Run
FUNC 1edd90 97 0 Cmd::UnaliasCmd::Run
FUNC 1ede30 56 0 Cmd::UnaliasCmd::Complete
FUNC 1ede90 21b 0 Cmd::UndelayCmd::Run
FUNC 1ee0b0 56 0 Cmd::UndelayCmd::Complete
FUNC 1ee110 2522 0 Cmd::ListCmdsCmd::Run
FUNC 1f0640 56 0 Cmd::ListCmdsCmd::Complete
FUNC 1f06a0 59 0 Cmd::UndelayAllCmd::Run
FUNC 1f0700 2580 0 Cmd::ListAliasesCmd::Run
FUNC 1f2c80 1f 0 Cmd::ClearAliasesCmd::Run
FUNC 1f2ca0 574 0 Cmd::IfCmd::Run
FUNC 1f3220 56 0 Cmd::IfCmd::Complete
FUNC 1f3280 e8 0 Cmd::CmdBase::Print<>
FUNC 1f3370 1bf 0 Cmd::EchoCmd::Run
FUNC 1f3530 234e 0 Cmd::ExecCmd::SetExecArgs
FUNC 1f5880 63f 0 Cmd::ExecCmd::Run
FUNC 1f5ec0 121 0 Cmd::ExecCmd::Complete
FUNC 1f5ff0 c88 0 Cmd::MathCmd::Run
FUNC 1f6c80 b1 0 Cmd::MathCmd::Usage
FUNC 1f6d40 56 0 Cmd::MathCmd::Complete
FUNC 1f6da0 12d 0 Cmd::VstrCmd::Run
FUNC 1f6ed0 56 0 Cmd::VstrCmd::Complete
FUNC 1f6f30 15d6 0 Cmd::AliasCmd::Run
FUNC 1f8510 1fa 0 Cmd::AliasCmd::Complete
FUNC 1f8710 366 0 Cmd::CycleCmd::Run
FUNC 1f8a80 56 0 Cmd::CycleCmd::Complete
FUNC 1f8ae0 523 0 Cmd::DelayCmd::Run
FUNC 1f9010 56 0 Cmd::DelayCmd::Complete
FUNC 1f9070 1ae 0 Cmd::ConcatCmd::Run
FUNC 1f9220 51 0 Cmd::ConcatCmd::Complete
FUNC 1f9280 1f3 0 Cmd::RandomCmd::Run
FUNC 1f9480 56 0 Cmd::RandomCmd::Complete
FUNC 1f94e0 36e 0 Cmd::ToggleCmd::Run
FUNC 1f9850 56 0 Cmd::ToggleCmd::Complete
FUNC 1f98b0 3d 0 Str::BasicStringRef<char>::compare
FUNC 1f98f0 ae 0 Sys::QuitCmd::Run
FUNC 1f99a0 184 0 Cvar::CvarCommand::Run
FUNC 1f9b30 168 0 Cvar::SetCmd::Run
FUNC 1f9ca0 56 0 Cvar::SetCmd::Complete
FUNC 1f9d00 1d0 0 Cvar::ResetCmd::Run
FUNC 1f9ed0 56 0 Cvar::ResetCmd::Complete
FUNC 1f9f30 1df2 0 Cvar::ListCvars::Run
FUNC 1fbd30 254 0 Cvar::ListCvars::Complete
FUNC 1fbf90 5a2 0 DirCmd::Run
FUNC 1fc540 432 0 MapCmd::Run
FUNC 1fc980 4dd 0 MapCmd::Complete
FUNC 1fce60 66e 0 RconCmd::Run
FUNC 1fd4d0 2e 0 ProxyCmd::Run
FUNC 1fd500 769 0 ProxyCmd::Complete
FUNC 1fdc70 121c 0 WhichCmd::Run
FUNC 1fee90 86 0 WhichCmd::Complete
FUNC 1fef20 39b8 0 StatusCmd::Run
FUNC 2028e0 6b 0 std::_Hashtable<Keyboard::Key, std::pair<const Keyboard::Key, std::vector<std::__cxx11::basic_string<char, std::char_traits<char>, std::allocator<char> >, std::allocator<std::__cxx11::basic_string<char, std::char_traits<char>, std::allocator<char> > > > >, std::allocator<std::pair<const Keyboard::Key, std::vector<std::__cxx11::basic_string<char, std::char_traits<char>, std::allocator<char> >, std::allocator<std::__cxx11::basic_string<char, std::char_traits<char>, std::allocator<char> > > > > >, std::__detail::_Select1st, std::equal_to<Keyboard::Key>, Keyboard::Key::hash, std::__detail::_Mod_range_hashing, std::__detail::_Default_ranged_hash, std::__detail::_Prime_rehash_policy, std::__detail::_Hashtable_traits<true, false, true> >::_M_find_before_node
FUNC 202950 c4 0 std::_Hashtable<std::__cxx11::basic_string<char, std::char_traits<char>, std::allocator<char> >, std::pair<const std::__cxx11::basic_string<char, std::char_traits<char>, std::allocator<char> >, proxyInfo_t>, std::allocator<std::pair<const std::__cxx11::basic_string<char, std::char_traits<char>, std::allocator<char> >, proxyInfo_t> >, std::__detail::_Select1st, Str::IEqual, Str::IHash, std::__detail::_Mod_range_hashing, std::__detail::_Default_ranged_hash, std::__detail::_Prime_rehash_policy, std::__detail::_Hashtable_traits<true, false, true> >::_M_find_before_node
FUNC 202a20 c4 0 std::_Hashtable<std::__cxx11::basic_string<char, std::char_traits<char>, std::allocator<char> >, std::pair<const std::__cxx11::basic_string<char, std::char_traits<char>, std::allocator<char> >, Cmd::aliasRecord_t>, std::allocator<std::pair<const std::__cxx11::basic_string<char, std::char_traits<char>, std::allocator<char> >, Cmd::aliasRecord_t> >, std::__detail::_Select1st, Str::IEqual, Str::IHash, std::__detail::_Mod_range_hashing, std::__detail::_Default_ranged_hash, std::__detail::_Prime_rehash_policy, std::__detail::_Hashtable_traits<true, false, true> >::_M_find_before_node
FUNC 202af0 c4 0 std::_Hashtable<std::__cxx11::basic_string<char, std::char_traits<char>, std::allocator<char> >, std::pair<const std::__cxx11::basic_string<char, std::char_traits<char>, std::allocator<char> >, Cmd::commandRecord_t>, std::allocator<std::pair<const std::__cxx11::basic_string<char, std::char_traits<char>, std::allocator<char> >, Cmd::commandRecord_t> >, std::__detail::_Select1st, Str::IEqual, Str::IHash, std::__detail::_Mod_range_hashing, std::__detail::_Default_ranged_hash, std::__detail::_Prime_rehash_policy, std::__detail::_Hashtable_traits<true, false, true> >::_M_find_before_node
FUNC 202bc0 8e 0 std::_Hashtable<std::__cxx11::basic_string<char, std::char_traits<char>, std::allocator<char> >, std::pair<const std::__cxx11::basic_string<char, std::char_traits<char>, std::allocator<char> >, ircCmd_t (*)(bool, char const*)>, std::allocator<std::pair<const std::__cxx11::basic_string<char, std::char_traits<char>, std::allocator<char> >, ircCmd_t (*)(bool, char const*)> >, std::__detail::_Select1st, std::equal_to<std::__cxx11::basic_string<char, std::char_traits<char>, std::allocator<char> > >, std::hash<std::__cxx11::basic_string<char, std::char_traits<char>, std::allocator<char> > >, std::__detail::_Mod_range_hashing, std::__detail::_Default_ranged_hash, std::__detail::_Prime_rehash_policy, std::__detail::_Hashtable_traits<true, false, true> >::_M_find_before_node
FUNC 202c50 8e 0 std::_Hashtable<std::__cxx11::basic_string<char, std::char_traits<char>, std::allocator<char> >, std::pair<const std::__cxx11::basic_string<char, std::char_traits<char>, std::allocator<char> >, ircCmd_t (*)()>, std::allocator<std::pair<const std::__cxx11::basic_string<char, std::char_traits<char>, std::allocator<char> >, ircCmd_t (*)()> >, std::__detail::_Select1st, std::equal_to<std::__cxx11::basic_string<char, std::char_traits<char>, std::allocator<char> > >, std::hash<std::__cxx11::basic_string<char, std::char_traits<char>, std::allocator<char> > >, std::__detail::_Mod_range_hashing, std::__detail::_Default_ranged_hash, std::__detail::_Prime_rehash_policy, std::__detail::_Hashtable_traits<true, false, true> >::_M_find_before_node
FUNC 202ce0 c4 0 std::_Hashtable<std::__cxx11::basic_string<char, std::char_traits<char>, std::allocator<char> >, std::pair<const std::__cxx11::basic_string<char, std::char_traits<char>, std::allocator<char> >, Cvar::cvarRecord_t*>, std::allocator<std::pair<const std::__cxx11::basic_string<char, std::char_traits<char>, std::allocator<char> >, Cvar::cvarRecord_t*> >, std::__detail::_Select1st, Str::IEqual, Str::IHash, std::__detail::_Mod_range_hashing, std::__detail::_Default_ranged_hash, std::__detail::_Prime_rehash_policy, std::__detail::_Hashtable_traits<true, false, true> >::_M_find_before_node
FUNC 202db0 8e 0 std::_Hashtable<std::__cxx11::basic_string<char, std::char_traits<char>, std::allocator<char> >, std::pair<const std::__cxx11::basic_string<char, std::char_traits<char>, std::allocator<char> >, std::__cxx11::basic_string<char, std::char_traits<char>, std::allocator<char> > >, std::allocator<std::pair<const std::__cxx11::basic_string<char, std::char_traits<char>, std::allocator<char> >, std::__cxx11::basic_string<char, std::char_traits<char>, std::allocator<char> > > >, std::__detail::_Select1st, std::equal_to<std::__cxx11::basic_string<char, std::char_traits<char>, std::allocator<char> > >, std::hash<std::__cxx11::basic_string<char, std::char_traits<char>, std::allocator<char> > >, std::__detail::_Mod_range_hashing, std::__detail::_Default_ranged_hash, std::__detail::_Prime_rehash_policy, std::__detail::_Hashtable_traits<true, false, true> >::_M_find_before_node
FUNC 202e40 8e 0 std::_Hashtable<std::__cxx11::basic_string<char, std::char_traits<char>, std::allocator<char> >, std::pair<const std::__cxx11::basic_string<char, std::char_traits<char>, std::allocator<char> >, std::pair<unsigned int, long long int> >, std::allocator<std::pair<const std::__cxx11::basic_string<char, std::char_traits<char>, std::allocator<char> >, std::pair<unsigned int, long long int> > >, std::__detail::_Select1st, std::equal_to<std::__cxx11::basic_string<char, std::char_traits<char>, std::allocator<char> > >, std::hash<std::__cxx11::basic_string<char, std::char_traits<char>, std::allocator<char> > >, std::__detail::_Mod_range_hashing, std::__detail::_Default_ranged_hash, std::__detail::_Prime_rehash_policy, std::__detail::_Hashtable_traits<true, false, true> >::_M_find_before_node
FUNC 202ed0 8e 0 std::_Hashtable<std::__cxx11::basic_string<char, std::char_traits<char>, std::allocator<char> >, std::pair<const std::__cxx11::basic_string<char, std::char_traits<char>, std::allocator<char> >, long long unsigned int>, std::allocator<std::pair<const std::__cxx11::basic_string<char, std::char_traits<char>, std::allocator<char> >, long long unsigned int> >, std::__detail::_Select1st, std::equal_to<std::__cxx11::basic_string<char, std::char_traits<char>, std::allocator<char> > >, std::hash<std::__cxx11::basic_string<char, std::char_traits<char>, std::allocator<char> > >, std::__detail::_Mod_range_hashing, std::__detail::_Default_ranged_hash, std::__detail::_Prime_rehash_policy, std::__detail::_Hashtable_traits<true, false, true> >::_M_find_before_node
FUNC 202f60 8 0 std::ctype<char>::do_widen
FUNC 202f70 cd 0 std::_Rb_tree<std::__cxx11::basic_string<char, std::char_traits<char>, std::allocator<char> >, std::pair<const std::__cxx11::basic_string<char, std::char_traits<char>, std::allocator<char> >, std::vector<std::__cxx11::basic_string<char, std::char_traits<char>, std::allocator<char> >, std::allocator<std::__cxx11::basic_string<char, std::char_traits<char>, std::allocator<char> > > > >, std::_Select1st<std::pair<const std::__cxx11::basic_string<char, std::char_traits<char>, std::allocator<char> >, std::vector<std::__cxx11::basic_string<char, std::char_traits<char>, std::allocator<char> >, std::allocator<std::__cxx11::basic_string<char, std::char_traits<char>, std::allocator<char> > > > > >, std::less<std::__cxx11::basic_string<char, std::char_traits<char>, std::allocator<char> > >, std::allocator<std::pair<const std::__cxx11::basic_string<char, std::char_traits<char>, std::allocator<char> >, std::vector<std::__cxx11::basic_string<char, std::char_traits<char>, std::allocator<char> >, std::allocator<std::__cxx11::basic_string<char, std::char_traits<char>, std::allocator<char> > > > > > >::find
FUNC 203040 178 0 std::_Hashtable<Str::BasicStringRef<char>, std::pair<const Str::BasicStringRef<char>, keyNum_t>, std::allocator<std::pair<const Str::BasicStringRef<char>, keyNum_t> >, std::__detail::_Select1st, Str::IEqual, Str::IHash, std::__detail::_Mod_range_hashing, std::__detail::_Default_ranged_hash, std::__detail::_Prime_rehash_policy, std::__detail::_Hashtable_traits<true, false, true> >::_M_insert_unique_node
FUNC 2031c0 50 0 std::_Hashtable<Str::BasicStringRef<char>, std::pair<const Str::BasicStringRef<char>, keyNum_t>, std::allocator<std::pair<const Str::BasicStringRef<char>, keyNum_t> >, std::__detail::_Select1st, Str::IEqual, Str::IHash, std::__detail::_Mod_range_hashing, std::__detail::_Default_ranged_hash, std::__detail::_Prime_rehash_policy, std::__detail::_Hashtable_traits<true, false, true> >::clear
FUNC 203210 1e1 0 std::_Hashtable<Str::BasicStringRef<char>, std::pair<const Str::BasicStringRef<char>, keyNum_t>, std::allocator<std::pair<const Str::BasicStringRef<char>, keyNum_t> >, std::__detail::_Select1st, Str::IEqual, Str::IHash, std::__detail::_Mod_range_hashing, std::__detail::_Default_ranged_hash, std::__detail::_Prime_rehash_policy, std::__detail::_Hashtable_traits<true, false, true> >::_M_insert<const std::pair<const Str::BasicStringRef<char>, keyNum_t>&, std::__detail::_AllocNode<std::allocator<std::__detail::_Hash_node<std::pair<const Str::BasicStringRef<char>, keyNum_t>, true> > > >
FUNC 203400 1ac 0 std::_Hashtable<Str::BasicStringRef<char>, std::pair<const Str::BasicStringRef<char>, keyNum_t>, std::allocator<std::pair<const Str::BasicStringRef<char>, keyNum_t> >, std::__detail::_Select1st, Str::IEqual, Str::IHash, std::__detail::_Mod_range_hashing, std::__detail::_Default_ranged_hash, std::__detail::_Prime_rehash_policy, std::__detail::_Hashtable_traits<true, false, true> >::_M_rehash
FUNC 2035b0 22 0 std::_Hashtable<Str::BasicStringRef<char>, std::pair<const Str::BasicStringRef<char>, keyNum_t>, std::allocator<std::pair<const Str::BasicStringRef<char>, keyNum_t> >, std::__detail::_Select1st, Str::IEqual, Str::IHash, std::__detail::_Mod_range_hashing, std::__detail::_Default_ranged_hash, std::__detail::_Prime_rehash_policy, std::__detail::_Hashtable_traits<true, false, true> >::~_Hashtable
FUNC 2035e0 1bb 0 std::_Hashtable<Keyboard::Key, std::pair<const Keyboard::Key, std::vector<std::__cxx11::basic_string<char, std::char_traits<char>, std::allocator<char> >, std::allocator<std::__cxx11::basic_string<char, std::char_traits<char>, std::allocator<char> > > > >, std::allocator<std::pair<const Keyboard::Key, std::vector<std::__cxx11::basic_string<char, std::char_traits<char>, std::allocator<char> >, std::allocator<std::__cxx11::basic_string<char, std::char_traits<char>, std::allocator<char> > > > > >, std::__detail::_Select1st, std::equal_to<Keyboard::Key>, Keyboard::Key::hash, std::__detail::_Mod_range_hashing, std::__detail::_Default_ranged_hash, std::__detail::_Prime_rehash_policy, std::__detail::_Hashtable_traits<true, false, true> >::_M_insert_unique_node
FUNC 2037a0 a6 0 std::_Hashtable<Keyboard::Key, std::pair<const Keyboard::Key, std::vector<std::__cxx11::basic_string<char, std::char_traits<char>, std::allocator<char> >, std::allocator<std::__cxx11::basic_string<char, std::char_traits<char>, std::allocator<char> > > > >, std::allocator<std::pair<const Keyboard::Key, std::vector<std::__cxx11::basic_string<char, std::char_traits<char>, std::allocator<char> >, std::allocator<std::__cxx11::basic_string<char, std::char_traits<char>, std::allocator<char> > > > > >, std::__detail::_Select1st, std::equal_to<Keyboard::Key>, Keyboard::Key::hash, std::__detail::_Mod_range_hashing, std::__detail::_Default_ranged_hash, std::__detail::_Prime_rehash_policy, std::__detail::_Hashtable_traits<true, false, true> >::clear
FUNC 203850 129 0 std::_Hashtable<Keyboard::Key, std::pair<const Keyboard::Key, std::vector<std::__cxx11::basic_string<char, std::char_traits<char>, std::allocator<char> >, std::allocator<std::__cxx11::basic_string<char, std::char_traits<char>, std::allocator<char> > > > >, std::allocator<std::pair<const Keyboard::Key, std::vector<std::__cxx11::basic_string<char, std::char_traits<char>, std::allocator<char> >, std::allocator<std::__cxx11::basic_string<char, std::char_traits<char>, std::allocator<char> > > > > >, std::__detail::_Select1st, std::equal_to<Keyboard::Key>, Keyboard::Key::hash, std::__detail::_Mod_range_hashing, std::__detail::_Default_ranged_hash, std::__detail::_Prime_rehash_policy, std::__detail::_Hashtable_traits<true, false, true> >::erase
FUNC 203980 1e9 0 std::_Hashtable<Keyboard::Key, std::pair<const Keyboard::Key, std::vector<std::__cxx11::basic_string<char, std::char_traits<char>, std::allocator<char> >, std::allocator<std::__cxx11::basic_string<char, std::char_traits<char>, std::allocator<char> > > > >, std::allocator<std::pair<const Keyboard::Key, std::vector<std::__cxx11::basic_string<char, std::char_traits<char>, std::allocator<char> >, std::allocator<std::__cxx11::basic_string<char, std::char_traits<char>, std::allocator<char> > > > > >, std::__detail::_Select1st, std::equal_to<Keyboard::Key>, Keyboard::Key::hash, std::__detail::_Mod_range_hashing, std::__detail::_Default_ranged_hash, std::__detail::_Prime_rehash_policy, std::__detail::_Hashtable_traits<true, false, true> >::_M_rehash
FUNC 203b70 175 0 std::_Hashtable<std::__cxx11::basic_string<char, std::char_traits<char>, std::allocator<char> >, std::pair<const std::__cxx11::basic_string<char, std::char_traits<char>, std::allocator<char> >, proxyInfo_t>, std::allocator<std::pair<const std::__cxx11::basic_string<char, std::char_traits<char>, std::allocator<char> >, proxyInfo_t> >, std::__detail::_Select1st, Str::IEqual, Str::IHash, std::__detail::_Mod_range_hashing, std::__detail::_Default_ranged_hash, std::__detail::_Prime_rehash_policy, std::__detail::_Hashtable_traits<true, false, true> >::_M_insert_unique_node
FUNC 203cf0 1e9 0 std::_Hashtable<std::__cxx11::basic_string<char, std::char_traits<char>, std::allocator<char> >, std::pair<const std::__cxx11::basic_string<char, std::char_traits<char>, std::allocator<char> >, proxyInfo_t>, std::allocator<std::pair<const std::__cxx11::basic_string<char, std::char_traits<char>, std::allocator<char> >, proxyInfo_t> >, std::__detail::_Select1st, Str::IEqual, Str::IHash, std::__detail::_Mod_range_hashing, std::__detail::_Default_ranged_hash, std::__detail::_Prime_rehash_policy, std::__detail::_Hashtable_traits<true, false, true> >::_M_rehash
FUNC 203ee0 1a8 0 std::_Hashtable<std::__cxx11::basic_string<char, std::char_traits<char>, std::allocator<char> >, std::pair<const std::__cxx11::basic_string<char, std::char_traits<char>, std::allocator<char> >, Cmd::aliasRecord_t>, std::allocator<std::pair<const std::__cxx11::basic_string<char, std::char_traits<char>, std::allocator<char> >, Cmd::aliasRecord_t> >, std::__detail::_Select1st, Str::IEqual, Str::IHash, std::__detail::_Mod_range_hashing, std::__detail::_Default_ranged_hash, std::__detail::_Prime_rehash_policy, std::__detail::_Hashtable_traits<true, false, true> >::_M_insert_unique_node
FUNC 204090 c7 0 std::_Hashtable<std::__cxx11::basic_string<char, std::char_traits<char>, std::allocator<char> >, std::pair<const std::__cxx11::basic_string<char, std::char_traits<char>, std::allocator<char> >, Cmd::aliasRecord_t>, std::allocator<std::pair<const std::__cxx11::basic_string<char, std::char_traits<char>, std::allocator<char> >, Cmd::aliasRecord_t> >, std::__detail::_Select1st, Str::IEqual, Str::IHash, std::__detail::_Mod_range_hashing, std::__detail::_Default_ranged_hash, std::__detail::_Prime_rehash_policy, std::__detail::_Hashtable_traits<true, false, true> >::find
FUNC 204160 75 0 std::_Hashtable<std::__cxx11::basic_string<char, std::char_traits<char>, std::allocator<char> >, std::pair<const std::__cxx11::basic_string<char, std::char_traits<char>, std::allocator<char> >, Cmd::aliasRecord_t>, std::allocator<std::pair<const std::__cxx11::basic_string<char, std::char_traits<char>, std::allocator<char> >, Cmd::aliasRecord_t> >, std::__detail::_Select1st, Str::IEqual, Str::IHash, std::__detail::_Mod_range_hashing, std::__detail::_Default_ranged_hash, std::__detail::_Prime_rehash_policy, std::__detail::_Hashtable_traits<true, false, true> >::clear
FUNC 2041e0 e9 0 std::_Hashtable<std::__cxx11::basic_string<char, std::char_traits<char>, std::allocator<char> >, std::pair<const std::__cxx11::basic_string<char, std::char_traits<char>, std::allocator<char> >, Cmd::aliasRecord_t>, std::allocator<std::pair<const std::__cxx11::basic_string<char, std::char_traits<char>, std::allocator<char> >, Cmd::aliasRecord_t> >, std::__detail::_Select1st, Str::IEqual, Str::IHash, std::__detail::_Mod_range_hashing, std::__detail::_Default_ranged_hash, std::__detail::_Prime_rehash_policy, std::__detail::_Hashtable_traits<true, false, true> >::erase
FUNC 2042d0 1e9 0 std::_Hashtable<std::__cxx11::basic_string<char, std::char_traits<char>, std::allocator<char> >, std::pair<const std::__cxx11::basic_string<char, std::char_traits<char>, std::allocator<char> >, Cmd::aliasRecord_t>, std::allocator<std::pair<const std::__cxx11::basic_string<char, std::char_traits<char>, std::allocator<char> >, Cmd::aliasRecord_t> >, std::__detail::_Select1st, Str::IEqual, Str::IHash, std::__detail::_Mod_range_hashing, std::__detail::_Default_ranged_hash, std::__detail::_Prime_rehash_policy, std::__detail::_Hashtable_traits<true, false, true> >::_M_rehash
FUNC 2044c0 183 0 std::_Hashtable<std::__cxx11::basic_string<char, std::char_traits<char>, std::allocator<char> >, std::pair<const std::__cxx11::basic_string<char, std::char_traits<char>, std::allocator<char> >, Cmd::commandRecord_t>, std::allocator<std::pair<const std::__cxx11::basic_string<char, std::char_traits<char>, std::allocator<char> >, Cmd::commandRecord_t> >, std::__detail::_Select1st, Str::IEqual, Str::IHash, std::__detail::_Mod_range_hashing, std::__detail::_Default_ranged_hash, std::__detail::_Prime_rehash_policy, std::__detail::_Hashtable_traits<true, false, true> >::_M_insert_unique_node
FUNC 204650 c7 0 std::_Hashtable<std::__cxx11::basic_string<char, std::char_traits<char>, std::allocator<char> >, std::pair<const std::__cxx11::basic_string<char, std::char_traits<char>, std::allocator<char> >, Cmd::commandRecord_t>, std::allocator<std::pair<const std::__cxx11::basic_string<char, std::char_traits<char>, std::allocator<char> >, Cmd::commandRecord_t> >, std::__detail::_Select1st, Str::IEqual, Str::IHash, std::__detail::_Mod_range_hashing, std::__detail::_Default_ranged_hash, std::__detail::_Prime_rehash_policy, std::__detail::_Hashtable_traits<true, false, true> >::find
FUNC 204720 44 0 std::_Hashtable<std::__cxx11::basic_string<char, std::char_traits<char>, std::allocator<char> >, std::pair<const std::__cxx11::basic_string<char, std::char_traits<char>, std::allocator<char> >, Cmd::commandRecord_t>, std::allocator<std::pair<const std::__cxx11::basic_string<char, std::char_traits<char>, std::allocator<char> >, Cmd::commandRecord_t> >, std::__detail::_Select1st, Str::IEqual, Str::IHash, std::__detail::_Mod_range_hashing, std::__detail::_Default_ranged_hash, std::__detail::_Prime_rehash_policy, std::__detail::_Hashtable_traits<true, false, true> >::erase
FUNC 204770 d5 0 std::_Hashtable<std::__cxx11::basic_string<char, std::char_traits<char>, std::allocator<char> >, std::pair<const std::__cxx11::basic_string<char, std::char_traits<char>, std::allocator<char> >, Cmd::commandRecord_t>, std::allocator<std::pair<const std::__cxx11::basic_string<char, std::char_traits<char>, std::allocator<char> >, Cmd::commandRecord_t> >, std::__detail::_Select1st, Str::IEqual, Str::IHash, std::__detail::_Mod_range_hashing, std::__detail::_Default_ranged_hash, std::__detail::_Prime_rehash_policy, std::__detail::_Hashtable_traits<true, false, true> >::_M_erase
FUNC 204850 1e9 0 std::_Hashtable<std::__cxx11::basic_string<char, std::char_traits<char>, std::allocator<char> >, std::pair<const std::__cxx11::basic_string<char, std::char_traits<char>, std::allocator<char> >, Cmd::commandRecord_t>, std::allocator<std::pair<const std::__cxx11::basic_string<char, std::char_traits<char>, std::allocator<char> >, Cmd::commandRecord_t> >, std::__detail::_Select1st, Str::IEqual, Str::IHash, std::__detail::_Mod_range_hashing, std::__detail::_Default_ranged_hash, std::__detail::_Prime_rehash_policy, std::__detail::_Hashtable_traits<true, false, true> >::_M_rehash
FUNC 204a40 190 0 std::_Hashtable<std::__cxx11::basic_string<char, std::char_traits<char>, std::allocator<char> >, std::pair<const std::__cxx11::basic_string<char, std::char_traits<char>, std::allocator<char> >, ircCmd_t (*)(bool, char const*)>, std::allocator<std::pair<const std::__cxx11::basic_string<char, std::char_traits<char>, std::allocator<char> >, ircCmd_t (*)(bool, char const*)> >, std::__detail::_Select1st, std::equal_to<std::__cxx11::basic_string<char, std::char_traits<char>, std::allocator<char> > >, std::hash<std::__cxx11::basic_string<char, std::char_traits<char>, std::allocator<char> > >, std::__detail::_Mod_range_hashing, std::__detail::_Default_ranged_hash, std::__detail::_Prime_rehash_policy, std::__detail::_Hashtable_traits<true, false, true> >::_M_insert_unique_node
FUNC 204bd0 63 0 std::_Hashtable<std::__cxx11::basic_string<char, std::char_traits<char>, std::allocator<char> >, std::pair<const std::__cxx11::basic_string<char, std::char_traits<char>, std::allocator<char> >, ircCmd_t (*)(bool, char const*)>, std::allocator<std::pair<const std::__cxx11::basic_string<char, std::char_traits<char>, std::allocator<char> >, ircCmd_t (*)(bool, char const*)> >, std::__detail::_Select1st, std::equal_to<std::__cxx11::basic_string<char, std::char_traits<char>, std::allocator<char> > >, std::hash<std::__cxx11::basic_string<char, std::char_traits<char>, std::allocator<char> > >, std::__detail::_Mod_range_hashing, std::__detail::_Default_ranged_hash, std::__detail::_Prime_rehash_policy, std::__detail::_Hashtable_traits<true, false, true> >::clear
FUNC 204c40 1ac 0 std::_Hashtable<std::__cxx11::basic_string<char, std::char_traits<char>, std::allocator<char> >, std::pair<const std::__cxx11::basic_string<char, std::char_traits<char>, std::allocator<char> >, ircCmd_t (*)(bool, char const*)>, std::allocator<std::pair<const std::__cxx11::basic_string<char, std::char_traits<char>, std::allocator<char> >, ircCmd_t (*)(bool, char const*)> >, std::__detail::_Select1st, std::equal_to<std::__cxx11::basic_string<char, std::char_traits<char>, std::allocator<char> > >, std::hash<std::__cxx11::basic_string<char, std::char_traits<char>, std::allocator<char> > >, std::__detail::_Mod_range_hashing, std::__detail::_Default_ranged_hash, std::__detail::_Prime_rehash_policy, std::__detail::_Hashtable_traits<true, false, true> >::_M_rehash
FUNC 204df0 190 0 std::_Hashtable<std::__cxx11::basic_string<char, std::char_traits<char>, std::allocator<char> >, std::pair<const std::__cxx11::basic_string<char, std::char_traits<char>, std::allocator<char> >, ircCmd_t (*)()>, std::allocator<std::pair<const std::__cxx11::basic_string<char, std::char_traits<char>, std::allocator<char> >, ircCmd_t (*)()> >, std::__detail::_Select1st, std::equal_to<std::__cxx11::basic_string<char, std::char_traits<char>, std::allocator<char> > >, std::hash<std::__cxx11::basic_string<char, std::char_traits<char>, std::allocator<char> > >, std::__detail::_Mod_range_hashing, std::__detail::_Default_ranged_hash, std::__detail::_Prime_rehash_policy, std::__detail::_Hashtable_traits<true, false, true> >::_M_insert_unique_node
FUNC 204f80 63 0 std::_Hashtable<std::__cxx11::basic_string<char, std::char_traits<char>, std::allocator<char> >, std::pair<const std::__cxx11::basic_string<char, std::char_traits<char>, std::allocator<char> >, ircCmd_t (*)()>, std::allocator<std::pair<const std::__cxx11::basic_string<char, std::char_traits<char>, std::allocator<char> >, ircCmd_t (*)()> >, std::__detail::_Select1st, std::equal_to<std::__cxx11::basic_string<char, std::char_traits<char>, std::allocator<char> > >, std::hash<std::__cxx11::basic_string<char, std::char_traits<char>, std::allocator<char> > >, std::__detail::_Mod_range_hashing, std::__detail::_Default_ranged_hash, std::__detail::_Prime_rehash_policy, std::__detail::_Hashtable_traits<true, false, true> >::clear
FUNC 204ff0 1ac 0 std::_Hashtable<std::__cxx11::basic_string<char, std::char_traits<char>, std::allocator<char> >, std::pair<const std::__cxx11::basic_string<char, std::char_traits<char>, std::allocator<char> >, ircCmd_t (*)()>, std::allocator<std::pair<const std::__cxx11::basic_string<char, std::char_traits<char>, std::allocator<char> >, ircCmd_t (*)()> >, std::__detail::_Select1st, std::equal_to<std::__cxx11::basic_string<char, std::char_traits<char>, std::allocator<char> > >, std::hash<std::__cxx11::basic_string<char, std::char_traits<char>, std::allocator<char> > >, std::__detail::_Mod_range_hashing, std::__detail::_Default_ranged_hash, std::__detail::_Prime_rehash_policy, std::__detail::_Hashtable_traits<true, false, true> >::_M_rehash
FUNC 2051a0 190 0 std::_Hashtable<std::__cxx11::basic_string<char, std::char_traits<char>, std::allocator<char> >, std::pair<const std::__cxx11::basic_string<char, std::char_traits<char>, std::allocator<char> >, Cvar::cvarRecord_t*>, std::allocator<std::pair<const std::__cxx11::basic_string<char, std::char_traits<char>, std::allocator<char> >, Cvar::cvarRecord_t*> >, std::__detail::_Select1st, Str::IEqual, Str::IHash, std::__detail::_Mod_range_hashing, std::__detail::_Default_ranged_hash, std::__detail::_Prime_rehash_policy, std::__detail::_Hashtable_traits<true, false, true> >::_M_insert_unique_node
FUNC 205330 c7 0 std::_Hashtable<std::__cxx11::basic_string<char, std::char_traits<char>, std::allocator<char> >, std::pair<const std::__cxx11::basic_string<char, std::char_traits<char>, std::allocator<char> >, Cvar::cvarRecord_t*>, std::allocator<std::pair<const std::__cxx11::basic_string<char, std::char_traits<char>, std::allocator<char> >, Cvar::cvarRecord_t*> >, std::__detail::_Select1st, Str::IEqual, Str::IHash, std::__detail::_Mod_range_hashing, std::__detail::_Default_ranged_hash, std::__detail::_Prime_rehash_policy, std::__detail::_Hashtable_traits<true, false, true> >::find
FUNC 205400 1e9 0 std::_Hashtable<std::__cxx11::basic_string<char, std::char_traits<char>, std::allocator<char> >, std::pair<const std::__cxx11::basic_string<char, std::char_traits<char>, std::allocator<char> >, Cvar::cvarRecord_t*>, std::allocator<std::pair<const std::__cxx11::basic_string<char, std::char_traits<char>, std::allocator<char> >, Cvar::cvarRecord_t*> >, std::__detail::_Select1st, Str::IEqual, Str::IHash, std::__detail::_Mod_range_hashing, std::__detail::_Default_ranged_hash, std::__detail::_Prime_rehash_policy, std::__detail::_Hashtable_traits<true, false, true> >::_M_rehash
FUNC 2055f0 1a8 0 std::_Hashtable<std::__cxx11::basic_string<char, std::char_traits<char>, std::allocator<char> >, std::pair<const std::__cxx11::basic_string<char, std::char_traits<char>, std::allocator<char> >, std::__cxx11::basic_string<char, std::char_traits<char>, std::allocator<char> > >, std::allocator<std::pair<const std::__cxx11::basic_string<char, std::char_traits<char>, std::allocator<char> >, std::__cxx11::basic_string<char, std::char_traits<char>, std::allocator<char> > > >, std::__detail::_Select1st, std::equal_to<std::__cxx11::basic_string<char, std::char_traits<char>, std::allocator<char> > >, std::hash<std::__cxx11::basic_string<char, std::char_traits<char>, std::allocator<char> > >, std::__detail::_Mod_range_hashing, std::__detail::_Default_ranged_hash, std::__detail::_Prime_rehash_policy, std::__detail::_Hashtable_traits<true, false, true> >::_M_insert_unique_node
FUNC 2057a0 1e9 0 std::_Hashtable<std::__cxx11::basic_string<char, std::char_traits<char>, std::allocator<char> >, std::pair<const std::__cxx11::basic_string<char, std::char_traits<char>, std::allocator<char> >, std::__cxx11::basic_string<char, std::char_traits<char>, std::allocator<char> > >, std::allocator<std::pair<const std::__cxx11::basic_string<char, std::char_traits<char>, std::allocator<char> >, std::__cxx11::basic_string<char, std::char_traits<char>, std::allocator<char> > > >, std::__detail::_Select1st, std::equal_to<std::__cxx11::basic_string<char, std::char_traits<char>, std::allocator<char> > >, std::hash<std::__cxx11::basic_string<char, std::char_traits<char>, std::allocator<char> > >, std::__detail::_Mod_range_hashing, std::__detail::_Default_ranged_hash, std::__detail::_Prime_rehash_policy, std::__detail::_Hashtable_traits<true, false, true> >::_M_rehash
FUNC 205990 1be 0 std::_Hashtable<std::__cxx11::basic_string<char, std::char_traits<char>, std::allocator<char> >, std::pair<const std::__cxx11::basic_string<char, std::char_traits<char>, std::allocator<char> >, std::pair<unsigned int, long long int> >, std::allocator<std::pair<const std::__cxx11::basic_string<char, std::char_traits<char>, std::allocator<char> >, std::pair<unsigned int, long long int> > >, std::__detail::_Select1st, std::equal_to<std::__cxx11::basic_string<char, std::char_traits<char>, std::allocator<char> > >, std::hash<std::__cxx11::basic_string<char, std::char_traits<char>, std::allocator<char> > >, std::__detail::_Mod_range_hashing, std::__detail::_Default_ranged_hash, std::__detail::_Prime_rehash_policy, std::__detail::_Hashtable_traits<true, false, true> >::_M_emplace<Str::BasicStringRef<char>&, std::pair<unsigned int, long long int> >
FUNC 205b50 1ae 0 std::_Hashtable<std::__cxx11::basic_string<char, std::char_traits<char>, std::allocator<char> >, std::pair<const std::__cxx11::basic_string<char, std::char_traits<char>, std::allocator<char> >, std::pair<unsigned int, long long int> >, std::allocator<std::pair<const std::__cxx11::basic_string<char, std::char_traits<char>, std::allocator<char> >, std::pair<unsigned int, long long int> > >, std::__detail::_Select1st, std::equal_to<std::__cxx11::basic_string<char, std::char_traits<char>, std::allocator<char> > >, std::hash<std::__cxx11::basic_string<char, std::char_traits<char>, std::allocator<char> > >, std::__detail::_Mod_range_hashing, std::__detail::_Default_ranged_hash, std::__detail::_Prime_rehash_policy, std::__detail::_Hashtable_traits<true, false, true> >::_M_emplace<const std::__cxx11::basic_string<char, std::char_traits<char>, std::allocator<char> >&, std::pair<unsigned int, long long int> >
FUNC 205d00 175 0 std::_Hashtable<std::__cxx11::basic_string<char, std::char_traits<char>, std::allocator<char> >, std::pair<const std::__cxx11::basic_string<char, std::char_traits<char>, std::allocator<char> >, std::pair<unsigned int, long long int> >, std::allocator<std::pair<const std::__cxx11::basic_string<char, std::char_traits<char>, std::allocator<char> >, std::pair<unsigned int, long long int> > >, std::__detail::_Select1st, std::equal_to<std::__cxx11::basic_string<char, std::char_traits<char>, std::allocator<char> > >, std::hash<std::__cxx11::basic_string<char, std::char_traits<char>, std::allocator<char> > >, std::__detail::_Mod_range_hashing, std::__detail::_Default_ranged_hash, std::__detail::_Prime_rehash_policy, std::__detail::_Hashtable_traits<true, false, true> >::_M_insert_unique_node
FUNC 205e80 84 0 std::_Hashtable<std::__cxx11::basic_string<char, std::char_traits<char>, std::allocator<char> >, std::pair<const std::__cxx11::basic_string<char, std::char_traits<char>, std::allocator<char> >, std::pair<unsigned int, long long int> >, std::allocator<std::pair<const std::__cxx11::basic_string<char, std::char_traits<char>, std::allocator<char> >, std::pair<unsigned int, long long int> > >, std::__detail::_Select1st, std::equal_to<std::__cxx11::basic_string<char, std::char_traits<char>, std::allocator<char> > >, std::hash<std::__cxx11::basic_string<char, std::char_traits<char>, std::allocator<char> > >, std::__detail::_Mod_range_hashing, std::__detail::_Default_ranged_hash, std::__detail::_Prime_rehash_policy, std::__detail::_Hashtable_traits<true, false, true> >::find
FUNC 205f10 4d 0 std::_Hashtable<std::__cxx11::basic_string<char, std::char_traits<char>, std::allocator<char> >, std::pair<const std::__cxx11::basic_string<char, std::char_traits<char>, std::allocator<char> >, std::pair<unsigned int, long long int> >, std::allocator<std::pair<const std::__cxx11::basic_string<char, std::char_traits<char>, std::allocator<char> >, std::pair<unsigned int, long long int> > >, std::__detail::_Select1st, std::equal_to<std::__cxx11::basic_string<char, std::char_traits<char>, std::allocator<char> > >, std::hash<std::__cxx11::basic_string<char, std::char_traits<char>, std::allocator<char> > >, std::__detail::_Mod_range_hashing, std::__detail::_Default_ranged_hash, std::__detail::_Prime_rehash_policy, std::__detail::_Hashtable_traits<true, false, true> >::clear
FUNC 205f60 333 0 std::_Hashtable<std::__cxx11::basic_string<char, std::char_traits<char>, std::allocator<char> >, std::pair<const std::__cxx11::basic_string<char, std::char_traits<char>, std::allocator<char> >, std::pair<unsigned int, long long int> >, std::allocator<std::pair<const std::__cxx11::basic_string<char, std::char_traits<char>, std::allocator<char> >, std::pair<unsigned int, long long int> > >, std::__detail::_Select1st, std::equal_to<std::__cxx11::basic_string<char, std::char_traits<char>, std::allocator<char> > >, std::hash<std::__cxx11::basic_string<char, std::char_traits<char>, std::allocator<char> > >, std::__detail::_Mod_range_hashing, std::__detail::_Default_ranged_hash, std::__detail::_Prime_rehash_policy, std::__detail::_Hashtable_traits<true, false, true> >::_M_assign<std::_Hashtable<_Key, _Value, _Alloc, _ExtractKey, _Equal, _H1, _H2, _Hash, _RehashPolicy, _Traits>::operator=(const std::_Hashtable<_Key, _Value, _Alloc, _ExtractKey, _Equal, _H1, _H2, _Hash, _RehashPolicy, _Traits>&) [with _Key = std::__cxx11::basic_string<char>; _Value = std::pair<const std::__cxx11::basic_string<char>, std::pair<unsigned int, long long int> >; _Alloc = std::allocator<std::pair<const std::__cxx11::basic_string<char>, std::pair<unsigned int, long long int> > >; _ExtractKey = std::__detail::_Select1st; _Equal = std::equal_to<std::__cxx11::basic_string<char> >; _H1 = std::hash<std::__cxx11::basic_string<char> >; _H2 = std::__detail::_Mod_range_hashing; _Hash = std::__detail::_Default_ranged_hash; _RehashPolicy = std::__detail::_Prime_rehash_policy; _Traits = std::__detail::_Hashtable_traits<true, false, true>]::<lambda(const __node_type*)> >
FUNC 2062a0 1ac 0 std::_Hashtable<std::__cxx11::basic_string<char, std::char_traits<char>, std::allocator<char> >, std::pair<const std::__cxx11::basic_string<char, std::char_traits<char>, std::allocator<char> >, std::pair<unsigned int, long long int> >, std::allocator<std::pair<const std::__cxx11::basic_string<char, std::char_traits<char>, std::allocator<char> >, std::pair<unsigned int, long long int> > >, std::__detail::_Select1st, std::equal_to<std::__cxx11::basic_string<char, std::char_traits<char>, std::allocator<char> > >, std::hash<std::__cxx11::basic_string<char, std::char_traits<char>, std::allocator<char> > >, std::__detail::_Mod_range_hashing, std::__detail::_Default_ranged_hash, std::__detail::_Prime_rehash_policy, std::__detail::_Hashtable_traits<true, false, true> >::_M_rehash
FUNC 206450 22 0 std::_Hashtable<std::__cxx11::basic_string<char, std::char_traits<char>, std::allocator<char> >, std::pair<const std::__cxx11::basic_string<char, std::char_traits<char>, std::allocator<char> >, std::pair<unsigned int, long long int> >, std::allocator<std::pair<const std::__cxx11::basic_string<char, std::char_traits<char>, std::allocator<char> >, std::pair<unsigned int, long long int> > >, std::__detail::_Select1st, std::equal_to<std::__cxx11::basic_string<char, std::char_traits<char>, std::allocator<char> > >, std::hash<std::__cxx11::basic_string<char, std::char_traits<char>, std::allocator<char> > >, std::__detail::_Mod_range_hashing, std::__detail::_Default_ranged_hash, std::__detail::_Prime_rehash_policy, std::__detail::_Hashtable_traits<true, false, true> >::~_Hashtable
FUNC 206480 190 0 std::_Hashtable<std::__cxx11::basic_string<char, std::char_traits<char>, std::allocator<char> >, std::pair<const std::__cxx11::basic_string<char, std::char_traits<char>, std::allocator<char> >, long long unsigned int>, std::allocator<std::pair<const std::__cxx11::basic_string<char, std::char_traits<char>, std::allocator<char> >, long long unsigned int> >, std::__detail::_Select1st, std::equal_to<std::__cxx11::basic_string<char, std::char_traits<char>, std::allocator<char> > >, std::hash<std::__cxx11::basic_string<char, std::char_traits<char>, std::allocator<char> > >, std::__detail::_Mod_range_hashing, std::__detail::_Default_ranged_hash, std::__detail::_Prime_rehash_policy, std::__detail::_Hashtable_traits<true, false, true> >::_M_insert_unique_node
FUNC 206610 1e9 0 std::_Hashtable<std::__cxx11::basic_string<char, std::char_traits<char>, std::allocator<char> >, std::pair<const std::__cxx11::basic_string<char, std::char_traits<char>, std::allocator<char> >, long long unsigned int>, std::allocator<std::pair<const std::__cxx11::basic_string<char, std::char_traits<char>, std::allocator<char> >, long long unsigned int> >, std::__detail::_Select1st, std::equal_to<std::__cxx11::basic_string<char, std::char_traits<char>, std::allocator<char> > >, std::hash<std::__cxx11::basic_string<char, std::char_traits<char>, std::allocator<char> > >, std::__detail::_Mod_range_hashing, std::__detail::_Default_ranged_hash, std::__detail::_Prime_rehash_policy, std::__detail::_Hashtable_traits<true, false, true> >::_M_rehash
FUNC 206800 169 0 std::_Hashtable<char, std::pair<char const, Str::BasicStringRef<char> >, std::allocator<std::pair<char const, Str::BasicStringRef<char> > >, std::__detail::_Select1st, std::equal_to<char>, std::hash<char>, std::__detail::_Mod_range_hashing, std::__detail::_Default_ranged_hash, std::__detail::_Prime_rehash_policy, std::__detail::_Hashtable_traits<false, false, true> >::_M_insert_unique_node
FUNC 206970 50 0 std::_Hashtable<char, std::pair<char const, Str::BasicStringRef<char> >, std::allocator<std::pair<char const, Str::BasicStringRef<char> > >, std::__detail::_Select1st, std::equal_to<char>, std::hash<char>, std::__detail::_Mod_range_hashing, std::__detail::_Default_ranged_hash, std::__detail::_Prime_rehash_policy, std::__detail::_Hashtable_traits<false, false, true> >::clear
FUNC 2069c0 1ac 0 std::_Hashtable<char, std::pair<char const, Str::BasicStringRef<char> >, std::allocator<std::pair<char const, Str::BasicStringRef<char> > >, std::__detail::_Select1st, std::equal_to<char>, std::hash<char>, std::__detail::_Mod_range_hashing, std::__detail::_Default_ranged_hash, std::__detail::_Prime_rehash_policy, std::__detail::_Hashtable_traits<false, false, true> >::_M_rehash
FUNC 206b70 22 0 std::_Hashtable<char, std::pair<char const, Str::BasicStringRef<char> >, std::allocator<std::pair<char const, Str::BasicStringRef<char> > >, std::__detail::_Select1st, std::equal_to<char>, std::hash<char>, std::__detail::_Mod_range_hashing, std::__detail::_Default_ranged_hash, std::__detail::_Prime_rehash_policy, std::__detail::_Hashtable_traits<false, false, true> >::~_Hashtable
FUNC 206ba0 f4 0 std::_Hashtable<unsigned int, std::pair<unsigned int const, Util::Reader>, std::allocator<std::pair<unsigned int const, Util::Reader> >, std::__detail::_Select1st, std::equal_to<unsigned int>, std::hash<unsigned int>, std::__detail::_Mod_range_hashing, std::__detail::_Default_ranged_hash, std::__detail::_Prime_rehash_policy, std::__detail::_Hashtable_traits<false, false, true> >::~_Hashtable
FUNC 206ca0 1dd 0 std::_Deque_base<Challenge, std::allocator<Challenge> >::_M_initialize_map
FUNC 206e80 2e 0 std::_Tuple_impl<0, std::__cxx11::basic_string<char, std::char_traits<char>, std::allocator<char> >, std::__cxx11::basic_string<char, std::char_traits<char>, std::allocator<char> > >::~_Tuple_impl
FUNC 206eb0 150 0 std::_Tuple_impl<0, std::__cxx11::basic_string<char, std::char_traits<char>, std::allocator<char> >, std::__cxx11::basic_string<char, std::char_traits<char>, std::allocator<char> >, std::vector<FS::PakInfo, std::allocator<FS::PakInfo> >, std::vector<FS::LoadedPakInfo, std::allocator<FS::LoadedPakInfo> >, std::unordered_map<std::__cxx11::basic_string<char, std::char_traits<char>, std::allocator<char> >, std::pair<unsigned int, long long int>, std::hash<std::__cxx11::basic_string<char, std::char_traits<char>, std::allocator<char> > >, std::equal_to<std::__cxx11::basic_string<char, std::char_traits<char>, std::allocator<char> > >, std::allocator<std::pair<const std::__cxx11::basic_string<char, std::char_traits<char>, std::allocator<char> >, std::pair<unsigned int, long long int> > > > >::~_Tuple_impl
FUNC 207000 2f 0 std::_Tuple_impl<0, std::__cxx11::basic_string<char, std::char_traits<char>, std::allocator<char> >, std::__cxx11::basic_string<char, std::char_traits<char>, std::allocator<char> >, int>::~_Tuple_impl
FUNC 207030 2f 0 std::unique_lock<std::mutex>::unlock
FUNC 207060 3d 0 std::_Function_base::_Base_manager<void (*)(bool)>::_M_manager
FUNC 2070a0 f 0 std::_Sp_counted_ptr<Cvar::Cvar<Log::Level>*, (__gnu_cxx::_Lock_policy)2>::_M_destroy
FUNC 2070b0 12 0 std::_Sp_counted_ptr<Cvar::Cvar<Log::Level>*, (__gnu_cxx::_Lock_policy)2>::_M_dispose
FUNC 2070d0 5 0 std::_Sp_counted_ptr<Cvar::Cvar<Log::Level>*, (__gnu_cxx::_Lock_policy)2>::_M_get_deleter
FUNC 2070e0 f 0 std::_Sp_counted_ptr<Cvar::Cvar<Log::Level>*, (__gnu_cxx::_Lock_policy)2>::~_Sp_counted_ptr
FUNC 2070f0 2 0 std::_Sp_counted_ptr<Cvar::Cvar<Log::Level>*, (__gnu_cxx::_Lock_policy)2>::~_Sp_counted_ptr
FUNC 207100 3d 0 std::_Sp_counted_base<(__gnu_cxx::_Lock_policy)2>::_M_release
FUNC 207140 11 0 std::_Function_handler<void(bool), void (*)(bool)>::_M_invoke
FUNC 207160 e38 0 std::_V2::__rotate<__gnu_cxx::__normal_iterator<FS::PakInfo*, std::vector<FS::PakInfo> > >
FUNC 207fa0 221 0 std::map<std::__cxx11::basic_string<char, std::char_traits<char>, std::allocator<char> >, std::__cxx11::basic_string<char, std::char_traits<char>, std::allocator<char> >, std::less<std::__cxx11::basic_string<char, std::char_traits<char>, std::allocator<char> > >, std::allocator<std::pair<const std::__cxx11::basic_string<char, std::char_traits<char>, std::allocator<char> >, std::__cxx11::basic_string<char, std::char_traits<char>, std::allocator<char> > > > >::operator[]
FUNC 2081d0 2e 0 std::pair<const std::__cxx11::basic_string<char, std::char_traits<char>, std::allocator<char> >, Cmd::commandRecord_t>::~pair
FUNC 208200 2e 0 std::pair<std::__cxx11::basic_string<char, std::char_traits<char>, std::allocator<char> >, std::__cxx11::basic_string<char, std::char_traits<char>, std::allocator<char> > >::~pair
FUNC 208230 43 0 std::deque<Challenge, std::allocator<Challenge> >::_M_pop_front_aux
FUNC 208280 3ba 0 std::deque<Challenge, std::allocator<Challenge> >::_M_push_back_aux<const Challenge&>
FUNC 208640 683 0 std::deque<Challenge, std::allocator<Challenge> >::_M_erase
FUNC 208cd0 ae9 0 std::deque<Challenge, std::allocator<Challenge> >::_M_erase
FUNC 2097c0 13a 0 std::deque<Challenge, std::allocator<Challenge> >::~deque
FUNC 209900 3 0 std::thread::_State_impl<std::thread::_Invoker<std::tuple<void (*)()> > >::_M_run
FUNC 209910 1e 0 std::thread::_State_impl<std::thread::_Invoker<std::tuple<void (*)()> > >::~_State_impl
FUNC 209930 b 0 std::thread::_State_impl<std::thread::_Invoker<std::tuple<void (*)()> > >::~_State_impl
FUNC 209940 bf 0 std::thread::thread<void (&)()>
FUNC 209a00 22b 0 std::vector<polyVert_t, std::allocator<polyVert_t> >::_M_default_append
FUNC 209c30 133 0 std::vector<entityState_t, std::allocator<entityState_t> >::_M_realloc_insert<const entityState_t&>
FUNC 209d70 157 0 std::vector<entityState_t, std::allocator<entityState_t> >::operator=
FUNC 209ed0 132 0 std::vector<markFragment_t, std::allocator<markFragment_t> >::_M_default_append
FUNC 20a010 53a 0 std::vector<FS::LoadedPakInfo, std::allocator<FS::LoadedPakInfo> >::_M_realloc_insert<>
FUNC 20a550 749 0 std::vector<FS::LoadedPakInfo, std::allocator<FS::LoadedPakInfo> >::operator=
FUNC 20aca0 4df 0 std::vector<FS::PakInfo, std::allocator<FS::PakInfo> >::_M_realloc_insert<const FS::PakInfo&>
FUNC 20b180 40a 0 std::vector<FS::PakInfo, std::allocator<FS::PakInfo> >::_M_realloc_insert<FS::PakInfo>
FUNC 20b590 87 0 std::vector<FS::PakInfo, std::allocator<FS::PakInfo> >::~vector
FUNC 20b620 4e9 0 std::vector<FS::PakInfo, std::allocator<FS::PakInfo> >::operator=
FUNC 20bb10 78 0 std::vector<FS::RawPath::DirectoryRange, std::allocator<FS::RawPath::DirectoryRange> >::emplace_back<FS::RawPath::DirectoryRange>
FUNC 20bb90 29d 0 std::vector<FS::RawPath::DirectoryRange, std::allocator<FS::RawPath::DirectoryRange> >::_M_realloc_insert<FS::RawPath::DirectoryRange>
FUNC 20be30 27d 0 std::vector<Cmd::BufferEntry, std::allocator<Cmd::BufferEntry> >::_M_realloc_insert<Cmd::BufferEntry>
FUNC 20c0b0 fd 0 std::vector<Cmd::delayRecord_t, std::allocator<Cmd::delayRecord_t> >::emplace_back<Cmd::delayRecord_t>
FUNC 20c1b0 3cd 0 std::vector<Cmd::delayRecord_t, std::allocator<Cmd::delayRecord_t> >::_M_realloc_insert<Cmd::delayRecord_t>
FUNC 20c580 1c2 0 std::vector<Cmd::delayRecord_t, std::allocator<Cmd::delayRecord_t> >::_M_erase
FUNC 20c750 123 0 std::vector<IPC::FileDesc, std::allocator<IPC::FileDesc> >::_M_realloc_insert<>
FUNC 20c880 137 0 std::vector<IPC::FileDesc, std::allocator<IPC::FileDesc> >::_M_realloc_insert<const IPC::FileDesc&>
FUNC 20c9c0 339 0 std::vector<Log::Event, std::allocator<Log::Event> >::_M_realloc_insert<const Log::Event&>
FUNC 20cd00 757 0 std::vector<Rcon::Message, std::allocator<Rcon::Message> >::_M_realloc_insert<const Rcon::Message&>
FUNC 20d460 42 0 std::vector<std::__cxx11::basic_string<char, std::char_traits<char>, std::allocator<char> >, std::allocator<std::__cxx11::basic_string<char, std::char_traits<char>, std::allocator<char> > > >::emplace_back<>
FUNC 20d4b0 69 0 std::vector<std::__cxx11::basic_string<char, std::char_traits<char>, std::allocator<char> >, std::allocator<std::__cxx11::basic_string<char, std::char_traits<char>, std::allocator<char> > > >::emplace_back<char const*&, char const*>
FUNC 20d520 8a 0 std::vector<std::__cxx11::basic_string<char, std::char_traits<char>, std::allocator<char> >, std::allocator<std::__cxx11::basic_string<char, std::char_traits<char>, std::allocator<char> > > >::emplace_back<std::__cxx11::basic_string<char, std::char_traits<char>, std::allocator<char> > >
FUNC 20d5b0 21c 0 std::vector<std::__cxx11::basic_string<char, std::char_traits<char>, std::allocator<char> >, std::allocator<std::__cxx11::basic_string<char, std::char_traits<char>, std::allocator<char> > > >::_M_default_append
FUNC 20d7d0 21a 0 std::vector<std::__cxx11::basic_string<char, std::char_traits<char>, std::allocator<char> >, std::allocator<std::__cxx11::basic_string<char, std::char_traits<char>, std::allocator<char> > > >::_M_realloc_insert<>
FUNC 20d9f0 339 0 std::vector<std::__cxx11::basic_string<char, std::char_traits<char>, std::allocator<char> >, std::allocator<std::__cxx11::basic_string<char, std::char_traits<char>, std::allocator<char> > > >::_M_realloc_insert<const std::__cxx11::basic_string<char, std::char_traits<char>, std::allocator<char> >&>
FUNC 20dd30 339 0 std::vector<std::__cxx11::basic_string<char, std::char_traits<char>, std::allocator<char> >, std::allocator<std::__cxx11::basic_string<char, std::char_traits<char>, std::allocator<char> > > >::_M_realloc_insert<char const*&, char const*>
FUNC 20e070 37d 0 std::vector<std::__cxx11::basic_string<char, std::char_traits<char>, std::allocator<char> >, std::allocator<std::__cxx11::basic_string<char, std::char_traits<char>, std::allocator<char> > > >::_M_realloc_insert<std::__cxx11::basic_string<char, std::char_traits<char>, std::allocator<char> >&, unsigned int&, unsigned int>
FUNC 20e3f0 279 0 std::vector<std::__cxx11::basic_string<char, std::char_traits<char>, std::allocator<char> >, std::allocator<std::__cxx11::basic_string<char, std::char_traits<char>, std::allocator<char> > > >::_M_realloc_insert<std::__cxx11::basic_string<char, std::char_traits<char>, std::allocator<char> > >
FUNC 20e670 5f 0 std::vector<std::__cxx11::basic_string<char, std::char_traits<char>, std::allocator<char> >, std::allocator<std::__cxx11::basic_string<char, std::char_traits<char>, std::allocator<char> > > >::~vector
FUNC 20e6d0 41f 0 std::vector<std::__cxx11::basic_string<char, std::char_traits<char>, std::allocator<char> >, std::allocator<std::__cxx11::basic_string<char, std::char_traits<char>, std::allocator<char> > > >::operator=
FUNC 20eaf0 114 0 std::vector<const Cmd::aliasRecord_t*, std::allocator<const Cmd::aliasRecord_t*> >::_M_realloc_insert<const Cmd::aliasRecord_t*>
FUNC 20ec10 114 0 std::vector<const Cmd::commandRecord_t*, std::allocator<const Cmd::commandRecord_t*> >::_M_realloc_insert<const Cmd::commandRecord_t*>
FUNC 20ed30 114 0 std::vector<const std::__cxx11::basic_string<char, std::char_traits<char>, std::allocator<char> >*, std::allocator<const std::__cxx11::basic_string<char, std::char_traits<char>, std::allocator<char> >*> >::_M_realloc_insert<const std::__cxx11::basic_string<char, std::char_traits<char>, std::allocator<char> >*>
FUNC 20ee50 45 0 std::vector<char const*, std::allocator<char const*> >::emplace_back<char const*>
FUNC 20eea0 114 0 std::vector<char const*, std::allocator<char const*> >::_M_realloc_insert<char const*>
FUNC 20efc0 114 0 std::vector<tinygettext::LanguageSpec*, std::allocator<tinygettext::LanguageSpec*> >::_M_realloc_insert<tinygettext::LanguageSpec*>
FUNC 20f0e0 114 0 std::vector<google_breakpad::ExceptionHandler*, std::allocator<google_breakpad::ExceptionHandler*> >::_M_realloc_insert<google_breakpad::ExceptionHandler*>
FUNC 20f200 114 0 std::vector<Cvar::cvarRecord_t*, std::allocator<Cvar::cvarRecord_t*> >::_M_realloc_insert<Cvar::cvarRecord_t* const&>
FUNC 20f320 114 0 std::vector<char*, std::allocator<char*> >::_M_realloc_insert<char* const&>
FUNC 20f440 114 0 std::vector<void*, std::allocator<void*> >::_M_realloc_insert<void* const&>
FUNC 20f560 20e 0 std::vector<std::vector<Keyboard::Key, std::allocator<Keyboard::Key> >, std::allocator<std::vector<Keyboard::Key, std::allocator<Keyboard::Key> > > >::_M_realloc_insert<std::vector<Keyboard::Key, std::allocator<Keyboard::Key> > >
FUNC 20f770 20b 0 std::vector<std::unique_ptr<VM::CommonVMServices::ProxyCvar, std::default_delete<VM::CommonVMServices::ProxyCvar> >, std::allocator<std::unique_ptr<VM::CommonVMServices::ProxyCvar, std::default_delete<VM::CommonVMServices::ProxyCvar> > > >::_M_realloc_insert<VM::CommonVMServices::ProxyCvar*>
FUNC 20f980 107 0 std::vector<std::pair<std::__cxx11::basic_string<char, std::char_traits<char>, std::allocator<char> >, std::__cxx11::basic_string<char, std::char_traits<char>, std::allocator<char> > >, std::allocator<std::pair<std::__cxx11::basic_string<char, std::char_traits<char>, std::allocator<char> >, std::__cxx11::basic_string<char, std::char_traits<char>, std::allocator<char> > > > >::emplace_back<std::__cxx11::basic_string<char, std::char_traits<char>, std::allocator<char> >&, char const (&)[1]>
FUNC 20fa90 dd 0 std::vector<std::pair<std::__cxx11::basic_string<char, std::char_traits<char>, std::allocator<char> >, std::__cxx11::basic_string<char, std::char_traits<char>, std::allocator<char> > >, std::allocator<std::pair<std::__cxx11::basic_string<char, std::char_traits<char>, std::allocator<char> >, std::__cxx11::basic_string<char, std::char_traits<char>, std::allocator<char> > > > >::emplace_back<std::pair<std::__cxx11::basic_string<char, std::char_traits<char>, std::allocator<char> >, std::__cxx11::basic_string<char, std::char_traits<char>, std::allocator<char> > > >
FUNC 20fb70 2bc 0 std::vector<std::pair<std::__cxx11::basic_string<char, std::char_traits<char>, std::allocator<char> >, std::__cxx11::basic_string<char, std::char_traits<char>, std::allocator<char> > >, std::allocator<std::pair<std::__cxx11::basic_string<char, std::char_traits<char>, std::allocator<char> >, std::__cxx11::basic_string<char, std::char_traits<char>, std::allocator<char> > > > >::_M_default_append
FUNC 20fe30 455 0 std::vector<std::pair<std::__cxx11::basic_string<char, std::char_traits<char>, std::allocator<char> >, std::__cxx11::basic_string<char, std::char_traits<char>, std::allocator<char> > >, std::allocator<std::pair<std::__cxx11::basic_string<char, std::char_traits<char>, std::allocator<char> >, std::__cxx11::basic_string<char, std::char_traits<char>, std::allocator<char> > > > >::_M_realloc_insert<std::__cxx11::basic_string<char, std::char_traits<char>, std::allocator<char> >&, char const (&)[1]>
FUNC 210290 3ad 0 std::vector<std::pair<std::__cxx11::basic_string<char, std::char_traits<char>, std::allocator<char> >, std::__cxx11::basic_string<char, std::char_traits<char>, std::allocator<char> > >, std::allocator<std::pair<std::__cxx11::basic_string<char, std::char_traits<char>, std::allocator<char> >, std::__cxx11::basic_string<char, std::char_traits<char>, std::allocator<char> > > > >::_M_realloc_insert<std::pair<std::__cxx11::basic_string<char, std::char_traits<char>, std::allocator<char> >, std::__cxx11::basic_string<char, std::char_traits<char>, std::allocator<char> > > >
FUNC 210640 72 0 std::vector<std::pair<std::__cxx11::basic_string<char, std::char_traits<char>, std::allocator<char> >, std::__cxx11::basic_string<char, std::char_traits<char>, std::allocator<char> > >, std::allocator<std::pair<std::__cxx11::basic_string<char, std::char_traits<char>, std::allocator<char> >, std::__cxx11::basic_string<char, std::char_traits<char>, std::allocator<char> > > > >::~vector
FUNC 2106c0 156 0 std::vector<std::array<float, 3>, std::allocator<std::array<float, 3> > >::_M_default_append
FUNC 210820 ed 0 std::vector<std::tuple<std::__cxx11::basic_string<char, std::char_traits<char>, std::allocator<char> >, std::__cxx11::basic_string<char, std::char_traits<char>, std::allocator<char> >, unsigned int>, std::allocator<std::tuple<std::__cxx11::basic_string<char, std::char_traits<char>, std::allocator<char> >, std::__cxx11::basic_string<char, std::char_traits<char>, std::allocator<char> >, unsigned int> > >::emplace_back<std::__cxx11::basic_string<char, std::char_traits<char>, std::allocator<char> >, std::__cxx11::basic_string<char, std::char_traits<char>, std::allocator<char> >, unsigned int&>
FUNC 210910 3d1 0 std::vector<std::tuple<std::__cxx11::basic_string<char, std::char_traits<char>, std::allocator<char> >, std::__cxx11::basic_string<char, std::char_traits<char>, std::allocator<char> >, unsigned int>, std::allocator<std::tuple<std::__cxx11::basic_string<char, std::char_traits<char>, std::allocator<char> >, std::__cxx11::basic_string<char, std::char_traits<char>, std::allocator<char> >, unsigned int> > >::_M_realloc_insert<std::__cxx11::basic_string<char, std::char_traits<char>, std::allocator<char> >, std::__cxx11::basic_string<char, std::char_traits<char>, std::allocator<char> >, unsigned int&>
FUNC 210cf0 34e 0 std::vector<bool, std::allocator<bool> >::_M_insert_aux
FUNC 211040 245 0 std::vector<char, std::allocator<char> >::_M_range_insert<char const*>
FUNC 211290 245 0 std::vector<char, std::allocator<char> >::_M_range_insert<char*>
FUNC 2114e0 11a 0 std::vector<unsigned char, std::allocator<unsigned char> >::emplace_back<unsigned char>
FUNC 211600 213 0 std::vector<unsigned char, std::allocator<unsigned char> >::_M_fill_insert
FUNC 211820 57 0 std::vector<unsigned char, std::allocator<unsigned char> >::_M_erase
FUNC 211880 11b 0 std::vector<unsigned char, std::allocator<unsigned char> >::operator=
FUNC 2119a0 30f 0 std::__cxx11::basic_string<char32_t, std::char_traits<char32_t>, std::allocator<char32_t> >::_M_replace
FUNC 211cb0 6d 0 std::__cxx11::basic_string<char32_t, std::char_traits<char32_t>, std::allocator<char32_t> >::_M_erase
FUNC 211d20 131 0 std::__cxx11::basic_string<char32_t, std::char_traits<char32_t>, std::allocator<char32_t> >::_M_mutate
FUNC 211e60 2ae 0 std::__cxx11::basic_string<unsigned char, std::char_traits<unsigned char>, std::allocator<unsigned char> >::_M_replace
FUNC 212110 12e 0 std::__cxx11::basic_string<unsigned char, std::char_traits<unsigned char>, std::allocator<unsigned char> >::_M_mutate
FUNC 212240 a2 0 std::__cxx11::basic_string<wchar_t, std::char_traits<wchar_t>, std::allocator<wchar_t> >::_M_construct<wchar_t const*>
FUNC 2122f0 30 0 std::__cxx11::basic_stringbuf<char, std::char_traits<char>, std::allocator<char> >::~basic_stringbuf
FUNC 212320 3a 0 std::_Rb_tree<tinygettext::Language, tinygettext::Language, std::_Identity<tinygettext::Language>, std::less<tinygettext::Language>, std::allocator<tinygettext::Language> >::_M_erase
FUNC 212360 90 0 std::_Rb_tree<tinygettext::Language, std::pair<const tinygettext::Language, tinygettext::Dictionary*>, std::_Select1st<std::pair<const tinygettext::Language, tinygettext::Dictionary*> >, std::less<tinygettext::Language>, std::allocator<std::pair<const tinygettext::Language, tinygettext::Dictionary*> > >::_M_get_insert_unique_pos
FUNC 2123f0 db 0 std::_Rb_tree<tinygettext::Language, std::pair<const tinygettext::Language, tinygettext::Dictionary*>, std::_Select1st<std::pair<const tinygettext::Language, tinygettext::Dictionary*> >, std::less<tinygettext::Language>, std::allocator<std::pair<const tinygettext::Language, tinygettext::Dictionary*> > >::_M_get_insert_hint_unique_pos
FUNC 2124d0 3a 0 std::_Rb_tree<tinygettext::Language, std::pair<const tinygettext::Language, tinygettext::Dictionary*>, std::_Select1st<std::pair<const tinygettext::Language, tinygettext::Dictionary*> >, std::less<tinygettext::Language>, std::allocator<std::pair<const tinygettext::Language, tinygettext::Dictionary*> > >::_M_erase
FUNC 212510 4c 0 std::_Rb_tree<std::__cxx11::basic_string<char, std::char_traits<char>, std::allocator<char> >, std::__cxx11::basic_string<char, std::char_traits<char>, std::allocator<char> >, std::_Identity<std::__cxx11::basic_string<char, std::char_traits<char>, std::allocator<char> > >, std::less<std::__cxx11::basic_string<char, std::char_traits<char>, std::allocator<char> > >, std::allocator<std::__cxx11::basic_string<char, std::char_traits<char>, std::allocator<char> > > >::_M_erase
FUNC 212560 10e 0 std::_Rb_tree<std::__cxx11::basic_string<char, std::char_traits<char>, std::allocator<char> >, std::pair<const std::__cxx11::basic_string<char, std::char_traits<char>, std::allocator<char> >, tinygettext::PluralForms>, std::_Select1st<std::pair<const std::__cxx11::basic_string<char, std::char_traits<char>, std::allocator<char> >, tinygettext::PluralForms> >, std::less<std::__cxx11::basic_string<char, std::char_traits<char>, std::allocator<char> > >, std::allocator<std::pair<const std::__cxx11::basic_string<char, std::char_traits<char>, std::allocator<char> >, tinygettext::PluralForms> > >::_M_get_insert_unique_pos
FUNC 212670 209 0 std::_Rb_tree<std::__cxx11::basic_string<char, std::char_traits<char>, std::allocator<char> >, std::pair<const std::__cxx11::basic_string<char, std::char_traits<char>, std::allocator<char> >, tinygettext::PluralForms>, std::_Select1st<std::pair<const std::__cxx11::basic_string<char, std::char_traits<char>, std::allocator<char> >, tinygettext::PluralForms> >, std::less<std::__cxx11::basic_string<char, std::char_traits<char>, std::allocator<char> > >, std::allocator<std::pair<const std::__cxx11::basic_string<char, std::char_traits<char>, std::allocator<char> >, tinygettext::PluralForms> > >::_M_get_insert_hint_unique_pos
FUNC 212880 4c 0 std::_Rb_tree<std::__cxx11::basic_string<char, std::char_traits<char>, std::allocator<char> >, std::pair<const std::__cxx11::basic_string<char, std::char_traits<char>, std::allocator<char> >, tinygettext::PluralForms>, std::_Select1st<std::pair<const std::__cxx11::basic_string<char, std::char_traits<char>, std::allocator<char> >, tinygettext::PluralForms> >, std::less<std::__cxx11::basic_string<char, std::char_traits<char>, std::allocator<char> > >, std::allocator<std::pair<const std::__cxx11::basic_string<char, std::char_traits<char>, std::allocator<char> >, tinygettext::PluralForms> > >::_M_erase
FUNC 2128d0 174 0 std::_Rb_tree<std::__cxx11::basic_string<char, std::char_traits<char>, std::allocator<char> >, std::pair<const std::__cxx11::basic_string<char, std::char_traits<char>, std::allocator<char> >, std::__cxx11::basic_string<char, std::char_traits<char>, std::allocator<char> > >, std::_Select1st<std::pair<const std::__cxx11::basic_string<char, std::char_traits<char>, std::allocator<char> >, std::__cxx11::basic_string<char, std::char_traits<char>, std::allocator<char> > > >, std::less<std::__cxx11::basic_string<char, std::char_traits<char>, std::allocator<char> > >, std::allocator<std::pair<const std::__cxx11::basic_string<char, std::char_traits<char>, std::allocator<char> >, std::__cxx11::basic_string<char, std::char_traits<char>, std::allocator<char> > > > >::equal_range
FUNC 212a50 10e 0 std::_Rb_tree<std::__cxx11::basic_string<char, std::char_traits<char>, std::allocator<char> >, std::pair<const std::__cxx11::basic_string<char, std::char_traits<char>, std::allocator<char> >, std::__cxx11::basic_string<char, std::char_traits<char>, std::allocator<char> > >, std::_Select1st<std::pair<const std::__cxx11::basic_string<char, std::char_traits<char>, std::allocator<char> >, std::__cxx11::basic_string<char, std::char_traits<char>, std::allocator<char> > > >, std::less<std::__cxx11::basic_string<char, std::char_traits<char>, std::allocator<char> > >, std::allocator<std::pair<const std::__cxx11::basic_string<char, std::char_traits<char>, std::allocator<char> >, std::__cxx11::basic_string<char, std::char_traits<char>, std::allocator<char> > > > >::_M_get_insert_unique_pos
FUNC 212b60 209 0 std::_Rb_tree<std::__cxx11::basic_string<char, std::char_traits<char>, std::allocator<char> >, std::pair<const std::__cxx11::basic_string<char, std::char_traits<char>, std::allocator<char> >, std::__cxx11::basic_string<char, std::char_traits<char>, std::allocator<char> > >, std::_Select1st<std::pair<const std::__cxx11::basic_string<char, std::char_traits<char>, std::allocator<char> >, std::__cxx11::basic_string<char, std::char_traits<char>, std::allocator<char> > > >, std::less<std::__cxx11::basic_string<char, std::char_traits<char>, std::allocator<char> > >, std::allocator<std::pair<const std::__cxx11::basic_string<char, std::char_traits<char>, std::allocator<char> >, std::__cxx11::basic_string<char, std::char_traits<char>, std::allocator<char> > > > >::_M_get_insert_hint_unique_pos
FUNC 212d70 fb 0 std::_Rb_tree<std::__cxx11::basic_string<char, std::char_traits<char>, std::allocator<char> >, std::pair<const std::__cxx11::basic_string<char, std::char_traits<char>, std::allocator<char> >, std::__cxx11::basic_string<char, std::char_traits<char>, std::allocator<char> > >, std::_Select1st<std::pair<const std::__cxx11::basic_string<char, std::char_traits<char>, std::allocator<char> >, std::__cxx11::basic_string<char, std::char_traits<char>, std::allocator<char> > > >, std::less<std::__cxx11::basic_string<char, std::char_traits<char>, std::allocator<char> > >, std::allocator<std::pair<const std::__cxx11::basic_string<char, std::char_traits<char>, std::allocator<char> >, std::__cxx11::basic_string<char, std::char_traits<char>, std::allocator<char> > > > >::erase
FUNC 212e70 5e 0 std::_Rb_tree<std::__cxx11::basic_string<char, std::char_traits<char>, std::allocator<char> >, std::pair<const std::__cxx11::basic_string<char, std::char_traits<char>, std::allocator<char> >, std::__cxx11::basic_string<char, std::char_traits<char>, std::allocator<char> > >, std::_Select1st<std::pair<const std::__cxx11::basic_string<char, std::char_traits<char>, std::allocator<char> >, std::__cxx11::basic_string<char, std::char_traits<char>, std::allocator<char> > > >, std::less<std::__cxx11::basic_string<char, std::char_traits<char>, std::allocator<char> > >, std::allocator<std::pair<const std::__cxx11::basic_string<char, std::char_traits<char>, std::allocator<char> >, std::__cxx11::basic_string<char, std::char_traits<char>, std::allocator<char> > > > >::_M_erase
FUNC 212ed0 10e 0 std::_Rb_tree<std::__cxx11::basic_string<char, std::char_traits<char>, std::allocator<char> >, std::pair<const std::__cxx11::basic_string<char, std::char_traits<char>, std::allocator<char> >, std::map<std::__cxx11::basic_string<char, std::char_traits<char>, std::allocator<char> >, std::vector<std::__cxx11::basic_string<char, std::char_traits<char>, std::allocator<char> >, std::allocator<std::__cxx11::basic_string<char, std::char_traits<char>, std::allocator<char> > > >, std::less<std::__cxx11::basic_string<char, std::char_traits<char>, std::allocator<char> > >, std::allocator<std::pair<const std::__cxx11::basic_string<char, std::char_traits<char>, std::allocator<char> >, std::vector<std::__cxx11::basic_string<char, std::char_traits<char>, std::allocator<char> >, std::allocator<std::__cxx11::basic_string<char, std::char_traits<char>, std::allocator<char> > > > > > > >, std::_Select1st<std::pair<const std::__cxx11::basic_string<char, std::char_traits<char>, std::allocator<char> >, std::map<std::__cxx11::basic_string<char, std::char_traits<char>, std::allocator<char> >, std::vector<std::__cxx11::basic_string<char, std::char_traits<char>, std::allocator<char> >, std::allocator<std::__cxx11::basic_string<char, std::char_traits<char>, std::allocator<char> > > >, std::less<std::__cxx11::basic_string<char, std::char_traits<char>, std::allocator<char> > >, std::allocator<std::pair<const std::__cxx11::basic_string<char, std::char_traits<char>, std::allocator<char> >, std::vector<std::__cxx11::basic_string<char, std::char_traits<char>, std::allocator<char> >, std::allocator<std::__cxx11::basic_string<char, std::char_traits<char>, std::allocator<char> > > > > > > > >, std::less<std::__cxx11::basic_string<char, std::char_traits<char>, std::allocator<char> > >, std::allocator<std::pair<const std::__cxx11::basic_string<char, std::char_traits<char>, std::allocator<char> >, std::map<std::__cxx11::basic_string<char, std::char_traits<char>, std::allocator<char> >, std::vector<std::__cxx11::basic_string<char, std::char_traits<char>, std::allocator<char> >, std::allocator<std::__cxx11::basic_string<char, std::char_traits<char>, std::allocator<char> > > >, std::less<std::__cxx11::basic_string<char, std::char_traits<char>, std::allocator<char> > >, std::allocator<std::pair<const std::__cxx11::basic_string<char, std::char_traits<char>, std::allocator<char> >, std::vector<std::__cxx11::basic_string<char, std::char_traits<char>, std::allocator<char> >, std::allocator<std::__cxx11::basic_string<char, std::char_traits<char>, std::allocator<char> > > > > > > > > >::_M_get_insert_unique_pos
FUNC 212fe0 209 0 std::_Rb_tree<std::__cxx11::basic_string<char, std::char_traits<char>, std::allocator<char> >, std::pair<const std::__cxx11::basic_string<char, std::char_traits<char>, std::allocator<char> >, std::map<std::__cxx11::basic_string<char, std::char_traits<char>, std::allocator<char> >, std::vector<std::__cxx11::basic_string<char, std::char_traits<char>, std::allocator<char> >, std::allocator<std::__cxx11::basic_string<char, std::char_traits<char>, std::allocator<char> > > >, std::less<std::__cxx11::basic_string<char, std::char_traits<char>, std::allocator<char> > >, std::allocator<std::pair<const std::__cxx11::basic_string<char, std::char_traits<char>, std::allocator<char> >, std::vector<std::__cxx11::basic_string<char, std::char_traits<char>, std::allocator<char> >, std::allocator<std::__cxx11::basic_string<char, std::char_traits<char>, std::allocator<char> > > > > > > >, std::_Select1st<std::pair<const std::__cxx11::basic_string<char, std::char_traits<char>, std::allocator<char> >, std::map<std::__cxx11::basic_string<char, std::char_traits<char>, std::allocator<char> >, std::vector<std::__cxx11::basic_string<char, std::char_traits<char>, std::allocator<char> >, std::allocator<std::__cxx11::basic_string<char, std::char_traits<char>, std::allocator<char> > > >, std::less<std::__cxx11::basic_string<char, std::char_traits<char>, std::allocator<char> > >, std::allocator<std::pair<const std::__cxx11::basic_string<char, std::char_traits<char>, std::allocator<char> >, std::vector<std::__cxx11::basic_string<char, std::char_traits<char>, std::allocator<char> >, std::allocator<std::__cxx11::basic_string<char, std::char_traits<char>, std::allocator<char> > > > > > > > >, std::less<std::__cxx11::basic_string<char, std::char_traits<char>, std::allocator<char> > >, std::allocator<std::pair<const std::__cxx11::basic_string<char, std::char_traits<char>, std::allocator<char> >, std::map<std::__cxx11::basic_string<char, std::char_traits<char>, std::allocator<char> >, std::vector<std::__cxx11::basic_string<char, std::char_traits<char>, std::allocator<char> >, std::allocator<std::__cxx11::basic_string<char, std::char_traits<char>, std::allocator<char> > > >, std::less<std::__cxx11::basic_string<char, std::char_traits<char>, std::allocator<char> > >, std::allocator<std::pair<const std::__cxx11::basic_string<char, std::char_traits<char>, std::allocator<char> >, std::vector<std::__cxx11::basic_string<char, std::char_traits<char>, std::allocator<char> >, std::allocator<std::__cxx11::basic_string<char, std::char_traits<char>, std::allocator<char> > > > > > > > > >::_M_get_insert_hint_unique_pos
FUNC 2131f0 cd 0 std::_Rb_tree<std::__cxx11::basic_string<char, std::char_traits<char>, std::allocator<char> >, std::pair<const std::__cxx11::basic_string<char, std::char_traits<char>, std::allocator<char> >, std::map<std::__cxx11::basic_string<char, std::char_traits<char>, std::allocator<char> >, std::vector<std::__cxx11::basic_string<char, std::char_traits<char>, std::allocator<char> >, std::allocator<std::__cxx11::basic_string<char, std::char_traits<char>, std::allocator<char> > > >, std::less<std::__cxx11::basic_string<char, std::char_traits<char>, std::allocator<char> > >, std::allocator<std::pair<const std::__cxx11::basic_string<char, std::char_traits<char>, std::allocator<char> >, std::vector<std::__cxx11::basic_string<char, std::char_traits<char>, std::allocator<char> >, std::allocator<std::__cxx11::basic_string<char, std::char_traits<char>, std::allocator<char> > > > > > > >, std::_Select1st<std::pair<const std::__cxx11::basic_string<char, std::char_traits<char>, std::allocator<char> >, std::map<std::__cxx11::basic_string<char, std::char_traits<char>, std::allocator<char> >, std::vector<std::__cxx11::basic_string<char, std::char_traits<char>, std::allocator<char> >, std::allocator<std::__cxx11::basic_string<char, std::char_traits<char>, std::allocator<char> > > >, std::less<std::__cxx11::basic_string<char, std::char_traits<char>, std::allocator<char> > >, std::allocator<std::pair<const std::__cxx11::basic_string<char, std::char_traits<char>, std::allocator<char> >, std::vector<std::__cxx11::basic_string<char, std::char_traits<char>, std::allocator<char> >, std::allocator<std::__cxx11::basic_string<char, std::char_traits<char>, std::allocator<char> > > > > > > > >, std::less<std::__cxx11::basic_string<char, std::char_traits<char>, std::allocator<char> > >, std::allocator<std::pair<const std::__cxx11::basic_string<char, std::char_traits<char>, std::allocator<char> >, std::map<std::__cxx11::basic_string<char, std::char_traits<char>, std::allocator<char> >, std::vector<std::__cxx11::basic_string<char, std::char_traits<char>, std::allocator<char> >, std::allocator<std::__cxx11::basic_string<char, std::char_traits<char>, std::allocator<char> > > >, std::less<std::__cxx11::basic_string<char, std::char_traits<char>, std::allocator<char> > >, std::allocator<std::pair<const std::__cxx11::basic_string<char, std::char_traits<char>, std::allocator<char> >, std::vector<std::__cxx11::basic_string<char, std::char_traits<char>, std::allocator<char> >, std::allocator<std::__cxx11::basic_string<char, std::char_traits<char>, std::allocator<char> > > > > > > > > >::find
FUNC 2132c0 5d 0 std::_Rb_tree<std::__cxx11::basic_string<char, std::char_traits<char>, std::allocator<char> >, std::pair<const std::__cxx11::basic_string<char, std::char_traits<char>, std::allocator<char> >, std::map<std::__cxx11::basic_string<char, std::char_traits<char>, std::allocator<char> >, std::vector<std::__cxx11::basic_string<char, std::char_traits<char>, std::allocator<char> >, std::allocator<std::__cxx11::basic_string<char, std::char_traits<char>, std::allocator<char> > > >, std::less<std::__cxx11::basic_string<char, std::char_traits<char>, std::allocator<char> > >, std::allocator<std::pair<const std::__cxx11::basic_string<char, std::char_traits<char>, std::allocator<char> >, std::vector<std::__cxx11::basic_string<char, std::char_traits<char>, std::allocator<char> >, std::allocator<std::__cxx11::basic_string<char, std::char_traits<char>, std::allocator<char> > > > > > > >, std::_Select1st<std::pair<const std::__cxx11::basic_string<char, std::char_traits<char>, std::allocator<char> >, std::map<std::__cxx11::basic_string<char, std::char_traits<char>, std::allocator<char> >, std::vector<std::__cxx11::basic_string<char, std::char_traits<char>, std::allocator<char> >, std::allocator<std::__cxx11::basic_string<char, std::char_traits<char>, std::allocator<char> > > >, std::less<std::__cxx11::basic_string<char, std::char_traits<char>, std::allocator<char> > >, std::allocator<std::pair<const std::__cxx11::basic_string<char, std::char_traits<char>, std::allocator<char> >, std::vector<std::__cxx11::basic_string<char, std::char_traits<char>, std::allocator<char> >, std::allocator<std::__cxx11::basic_string<char, std::char_traits<char>, std::allocator<char> > > > > > > > >, std::less<std::__cxx11::basic_string<char, std::char_traits<char>, std::allocator<char> > >, std::allocator<std::pair<const std::__cxx11::basic_string<char, std::char_traits<char>, std::allocator<char> >, std::map<std::__cxx11::basic_string<char, std::char_traits<char>, std::allocator<char> >, std::vector<std::__cxx11::basic_string<char, std::char_traits<char>, std::allocator<char> >, std::allocator<std::__cxx11::basic_string<char, std::char_traits<char>, std::allocator<char> > > >, std::less<std::__cxx11::basic_string<char, std::char_traits<char>, std::allocator<char> > >, std::allocator<std::pair<const std::__cxx11::basic_string<char, std::char_traits<char>, std::allocator<char> >, std::vector<std::__cxx11::basic_string<char, std::char_traits<char>, std::allocator<char> >, std::allocator<std::__cxx11::basic_string<char, std::char_traits<char>, std::allocator<char> > > > > > > > > >::_M_erase
FUNC 213320 10e 0 std::_Rb_tree<std::__cxx11::basic_string<char, std::char_traits<char>, std::allocator<char> >, std::pair<const std::__cxx11::basic_string<char, std::char_traits<char>, std::allocator<char> >, std::vector<tinygettext::LanguageSpec*, std::allocator<tinygettext::LanguageSpec*> > >, std::_Select1st<std::pair<const std::__cxx11::basic_string<char, std::char_traits<char>, std::allocator<char> >, std::vector<tinygettext::LanguageSpec*, std::allocator<tinygettext::LanguageSpec*> > > >, std::less<std::__cxx11::basic_string<char, std::char_traits<char>, std::allocator<char> > >, std::allocator<std::pair<const std::__cxx11::basic_string<char, std::char_traits<char>, std::allocator<char> >, std::vector<tinygettext::LanguageSpec*, std::allocator<tinygettext::LanguageSpec*> > > > >::_M_get_insert_unique_pos
FUNC 213430 209 0 std::_Rb_tree<std::__cxx11::basic_string<char, std::char_traits<char>, std::allocator<char> >, std::pair<const std::__cxx11::basic_string<char, std::char_traits<char>, std::allocator<char> >, std::vector<tinygettext::LanguageSpec*, std::allocator<tinygettext::LanguageSpec*> > >, std::_Select1st<std::pair<const std::__cxx11::basic_string<char, std::char_traits<char>, std::allocator<char> >, std::vector<tinygettext::LanguageSpec*, std::allocator<tinygettext::LanguageSpec*> > > >, std::less<std::__cxx11::basic_string<char, std::char_traits<char>, std::allocator<char> > >, std::allocator<std::pair<const std::__cxx11::basic_string<char, std::char_traits<char>, std::allocator<char> >, std::vector<tinygettext::LanguageSpec*, std::allocator<tinygettext::LanguageSpec*> > > > >::_M_get_insert_hint_unique_pos
FUNC 213640 5b 0 std::_Rb_tree<std::__cxx11::basic_string<char, std::char_traits<char>, std::allocator<char> >, std::pair<const std::__cxx11::basic_string<char, std::char_traits<char>, std::allocator<char> >, std::vector<tinygettext::LanguageSpec*, std::allocator<tinygettext::LanguageSpec*> > >, std::_Select1st<std::pair<const std::__cxx11::basic_string<char, std::char_traits<char>, std::allocator<char> >, std::vector<tinygettext::LanguageSpec*, std::allocator<tinygettext::LanguageSpec*> > > >, std::less<std::__cxx11::basic_string<char, std::char_traits<char>, std::allocator<char> > >, std::allocator<std::pair<const std::__cxx11::basic_string<char, std::char_traits<char>, std::allocator<char> >, std::vector<tinygettext::LanguageSpec*, std::allocator<tinygettext::LanguageSpec*> > > > >::_M_erase
FUNC 2136a0 10e 0 std::_Rb_tree<std::__cxx11::basic_string<char, std::char_traits<char>, std::allocator<char> >, std::pair<const std::__cxx11::basic_string<char, std::char_traits<char>, std::allocator<char> >, std::vector<std::__cxx11::basic_string<char, std::char_traits<char>, std::allocator<char> >, std::allocator<std::__cxx11::basic_string<char, std::char_traits<char>, std::allocator<char> > > > >, std::_Select1st<std::pair<const std::__cxx11::basic_string<char, std::char_traits<char>, std::allocator<char> >, std::vector<std::__cxx11::basic_string<char, std::char_traits<char>, std::allocator<char> >, std::allocator<std::__cxx11::basic_string<char, std::char_traits<char>, std::allocator<char> > > > > >, std::less<std::__cxx11::basic_string<char, std::char_traits<char>, std::allocator<char> > >, std::allocator<std::pair<const std::__cxx11::basic_string<char, std::char_traits<char>, std::allocator<char> >, std::vector<std::__cxx11::basic_string<char, std::char_traits<char>, std::allocator<char> >, std::allocator<std::__cxx11::basic_string<char, std::char_traits<char>, std::allocator<char> > > > > > >::_M_get_insert_unique_pos
FUNC 2137b0 209 0 std::_Rb_tree<std::__cxx11::basic_string<char, std::char_traits<char>, std::allocator<char> >, std::pair<const std::__cxx11::basic_string<char, std::char_traits<char>, std::allocator<char> >, std::vector<std::__cxx11::basic_string<char, std::char_traits<char>, std::allocator<char> >, std::allocator<std::__cxx11::basic_string<char, std::char_traits<char>, std::allocator<char> > > > >, std::_Select1st<std::pair<const std::__cxx11::basic_string<char, std::char_traits<char>, std::allocator<char> >, std::vector<std::__cxx11::basic_string<char, std::char_traits<char>, std::allocator<char> >, std::allocator<std::__cxx11::basic_string<char, std::char_traits<char>, std::allocator<char> > > > > >, std::less<std::__cxx11::basic_string<char, std::char_traits<char>, std::allocator<char> > >, std::allocator<std::pair<const std::__cxx11::basic_string<char, std::char_traits<char>, std::allocator<char> >, std::vector<std::__cxx11::basic_string<char, std::char_traits<char>, std::allocator<char> >, std::allocator<std::__cxx11::basic_string<char, std::char_traits<char>, std::allocator<char> > > > > > >::_M_get_insert_hint_unique_pos
FUNC 2139c0 a7 0 std::_Rb_tree<std::__cxx11::basic_string<char, std::char_traits<char>, std::allocator<char> >, std::pair<const std::__cxx11::basic_string<char, std::char_traits<char>, std::allocator<char> >, std::vector<std::__cxx11::basic_string<char, std::char_traits<char>, std::allocator<char> >, std::allocator<std::__cxx11::basic_string<char, std::char_traits<char>, std::allocator<char> > > > >, std::_Select1st<std::pair<const std::__cxx11::basic_string<char, std::char_traits<char>, std::allocator<char> >, std::vector<std::__cxx11::basic_string<char, std::char_traits<char>, std::allocator<char> >, std::allocator<std::__cxx11::basic_string<char, std::char_traits<char>, std::allocator<char> > > > > >, std::less<std::__cxx11::basic_string<char, std::char_traits<char>, std::allocator<char> > >, std::allocator<std::pair<const std::__cxx11::basic_string<char, std::char_traits<char>, std::allocator<char> >, std::vector<std::__cxx11::basic_string<char, std::char_traits<char>, std::allocator<char> >, std::allocator<std::__cxx11::basic_string<char, std::char_traits<char>, std::allocator<char> > > > > > >::_M_erase
FUNC 213a70 186 0 std::__detail::_Map_base<std::__cxx11::basic_string<char, std::char_traits<char>, std::allocator<char> >, std::pair<const std::__cxx11::basic_string<char, std::char_traits<char>, std::allocator<char> >, proxyInfo_t>, std::allocator<std::pair<const std::__cxx11::basic_string<char, std::char_traits<char>, std::allocator<char> >, proxyInfo_t> >, std::__detail::_Select1st, Str::IEqual, Str::IHash, std::__detail::_Mod_range_hashing, std::__detail::_Default_ranged_hash, std::__detail::_Prime_rehash_policy, std::__detail::_Hashtable_traits<true, false, true>, true>::operator[]
FUNC 213c00 1ba 0 std::__detail::_Map_base<std::__cxx11::basic_string<char, std::char_traits<char>, std::allocator<char> >, std::pair<const std::__cxx11::basic_string<char, std::char_traits<char>, std::allocator<char> >, proxyInfo_t>, std::allocator<std::pair<const std::__cxx11::basic_string<char, std::char_traits<char>, std::allocator<char> >, proxyInfo_t> >, std::__detail::_Select1st, Str::IEqual, Str::IHash, std::__detail::_Mod_range_hashing, std::__detail::_Default_ranged_hash, std::__detail::_Prime_rehash_policy, std::__detail::_Hashtable_traits<true, false, true>, true>::operator[]
FUNC 213dc0 1d3 0 std::__detail::_Map_base<std::__cxx11::basic_string<char, std::char_traits<char>, std::allocator<char> >, std::pair<const std::__cxx11::basic_string<char, std::char_traits<char>, std::allocator<char> >, Cmd::aliasRecord_t>, std::allocator<std::pair<const std::__cxx11::basic_string<char, std::char_traits<char>, std::allocator<char> >, Cmd::aliasRecord_t> >, std::__detail::_Select1st, Str::IEqual, Str::IHash, std::__detail::_Mod_range_hashing, std::__detail::_Default_ranged_hash, std::__detail::_Prime_rehash_policy, std::__detail::_Hashtable_traits<true, false, true>, true>::operator[]
FUNC 213fa0 1b3 0 std::__detail::_Map_base<std::__cxx11::basic_string<char, std::char_traits<char>, std::allocator<char> >, std::pair<const std::__cxx11::basic_string<char, std::char_traits<char>, std::allocator<char> >, Cvar::cvarRecord_t*>, std::allocator<std::pair<const std::__cxx11::basic_string<char, std::char_traits<char>, std::allocator<char> >, Cvar::cvarRecord_t*> >, std::__detail::_Select1st, Str::IEqual, Str::IHash, std::__detail::_Mod_range_hashing, std::__detail::_Default_ranged_hash, std::__detail::_Prime_rehash_policy, std::__detail::_Hashtable_traits<true, false, true>, true>::operator[]
FUNC 214160 d6 0 std::function<std::vector<std::pair<std::__cxx11::basic_string<char, std::char_traits<char>, std::allocator<char> >, std::__cxx11::basic_string<char, std::char_traits<char>, std::allocator<char> > >, std::allocator<std::pair<std::__cxx11::basic_string<char, std::char_traits<char>, std::allocator<char> >, std::__cxx11::basic_string<char, std::char_traits<char>, std::allocator<char> > > > >(int, const Cmd::Args&, Str::BasicStringRef<char>)>::function
FUNC 214240 d6 0 std::function<void(const Cmd::Args&)>::function
FUNC 214320 98c 0 std::__adjust_heap<__gnu_cxx::__normal_iterator<std::pair<std::__cxx11::basic_string<char>, std::__cxx11::basic_string<char> >*, std::vector<std::pair<std::__cxx11::basic_string<char>, std::__cxx11::basic_string<char> > > >, int, std::pair<std::__cxx11::basic_string<char>, std::__cxx11::basic_string<char> >, __gnu_cxx::__ops::_Iter_less_iter>
FUNC 214cb0 4f1 0 std::__insertion_sort<__gnu_cxx::__normal_iterator<std::pair<std::__cxx11::basic_string<char>, std::__cxx11::basic_string<char> >*, std::vector<std::pair<std::__cxx11::basic_string<char>, std::__cxx11::basic_string<char> > > >, __gnu_cxx::__ops::_Iter_less_iter>
FUNC 2151b0 285 0 std::__rotate_adaptive<__gnu_cxx::__normal_iterator<FS::PakInfo*, std::vector<FS::PakInfo> >, FS::PakInfo*, int>
FUNC 215440 28b 0 std::__unique<__gnu_cxx::__normal_iterator<std::pair<std::__cxx11::basic_string<char>, std::__cxx11::basic_string<char> >*, std::vector<std::pair<std::__cxx11::basic_string<char>, std::__cxx11::basic_string<char> > > >, __gnu_cxx::__ops::_Iter_equal_to_iter>
FUNC 2156d0 ea 0 std::__find_if<__gnu_cxx::__normal_iterator<char const*, std::__cxx11::basic_string<char> >, __gnu_cxx::__ops::_Iter_negate<bool (*)(int)> >
FUNC 2157c0 548 0 std::__find_if<__gnu_cxx::__normal_iterator<Rcon::Message*, std::vector<Rcon::Message> >, __gnu_cxx::__ops::_Iter_pred<RconMessageQueue::Pop(const netadr_t&, const StringRef&)::<lambda(const Rcon::Message&)> > >
FUNC 215d10 1f3 0 std::__find_if<__gnu_cxx::__normal_iterator<std::__cxx11::basic_string<char>*, std::vector<std::__cxx11::basic_string<char> > >, __gnu_cxx::__ops::_Iter_equals_val<const Util::optional<std::__cxx11::basic_string<char> > > >
FUNC 215f10 ef 0 std::__find_if<char const*, __gnu_cxx::__ops::_Iter_equals_val<char const> >
FUNC 216000 47 0 std::operator==<char>
FUNC 216050 103 0 std::operator+<char, std::char_traits<char>, std::allocator<char> >
FUNC 216200 5 0 gmtime
FUNC 216210 5 0 localtime
FUNC 216220 5 0 vsnprintf
FUNC 216230 ea 0 _GLOBAL__sub_I__Z18Cmd_SaveCmdContextv
FUNC 216320 9 0 std::default_delete<Sys::EventBase>::operator()
FUNC 216330 3c 0 std::__cxx11::basic_string<char, std::char_traits<char>, std::allocator<char> >::basic_string
FUNC 216370 6ef 0 __static_initialization_and_destruction_0
FUNC 216a60 5 0 _GLOBAL__sub_I_com_crashed
FUNC 216a70 1d 0 _GLOBAL__sub_I__Z14qnettle_randomPvjPh
FUNC 216a90 1d 0 _GLOBAL__sub_I_cvar_vars
FUNC 216ab0 3c 0 std::__cxx11::basic_string<char, std::char_traits<char>, std::allocator<char> >::basic_string
FUNC 216af0 3c5 0 _GLOBAL__sub_I__Z13FS_FileExistsPKc
FUNC 216ec0 1d 0 _GLOBAL__sub_I__Z11Huff_putBitiPhPi
FUNC 216ee0 1d 0 _GLOBAL__sub_I__Z8MSG_InitP5msg_tPhi
FUNC 216f00 1d 0 _GLOBAL__sub_I_showpackets
FUNC 216f20 1d 0 _GLOBAL__sub_I_net_enabled
FUNC 216f40 1d 0 _GLOBAL__sub_I_numtokens
FUNC 216f60 3c 0 std::__cxx11::basic_string<char, std::char_traits<char>, std::allocator<char> >::basic_string
FUNC 216fa0 215 0 _GLOBAL__sub_I_trans_manager
FUNC 2171c0 1d 0 _GLOBAL__sub_I__ZN4rVecC2Efff
FUNC 2171e0 a9 0 _GLOBAL__sub_I_numNavData
FUNC 217290 1d 0 _GLOBAL__sub_I__Z15BotCalcSteerDirP5Bot_tR4rVec
FUNC 2172b0 f8 0 _GLOBAL__sub_I_agents
FUNC 2173b0 1d 0 _GLOBAL__sub_I__Z20SV_BotAllocateClientv
FUNC 2173d0 b3 0 _GLOBAL__sub_I__Z14SV_Heartbeat_fv
FUNC 217490 f6 0 _GLOBAL__sub_I__Z15SV_GetChallenge8netadr_t
FUNC 217590 1d 0 _GLOBAL__sub_I__Z18SV_SetConfigstringiPKc
FUNC 2175b0 419 0 _GLOBAL__sub_I_svs
FUNC 2179d0 1d 0 _GLOBAL__sub_I__Z20SV_Netchan_FreeQueueP8client_t
FUNC 2179f0 1d 0 _GLOBAL__sub_I__Z13SV_GentityNumi
FUNC 217a10 1d 0 _GLOBAL__sub_I__Z31SV_UpdateServerCommandsToClientP8client_tP5msg_t
FUNC 217a30 33 0 std::__cxx11::basic_string<char, std::char_traits<char>, std::allocator<char> >::basic_string
FUNC 217a70 3eb 0 _GLOBAL__sub_I__ZN9Challenge7TimeoutEv
FUNC 217e60 1d 0 _GLOBAL__sub_I__ZN14DebugDrawQuake4initEP19BotDebugInterface_t
FUNC 217e80 1d 0 _GLOBAL__sub_I__Z17GetPointPointedToP9NavData_tR4rVec
FUNC 217ea0 1d 0 _GLOBAL__sub_I__Z12Cin_OGM_InitPKc
FUNC 217ec0 1d 0 _GLOBAL__sub_I__Z17CL_WriteAVIHeaderv
FUNC 217ee0 ac 0 Sys::Drop<int&>
FUNC 217f90 1d 0 _GLOBAL__sub_I__Z13CL_GetUserCmdiP9usercmd_t
FUNC 217fb0 1d 0 _GLOBAL__sub_I__Z17CIN_StopCinematici
FUNC 217fd0 123 0 _GLOBAL__sub_I_g_console_field_width
FUNC 218100 9b 0 _GLOBAL__sub_I_frame_msec
FUNC 2181a0 c1 0 _GLOBAL__sub_I_cl_IRC_connect_at_startup
FUNC 218270 72e 0 __static_initialization_and_destruction_0
FUNC 2189a0 5 0 _GLOBAL__sub_I_cl_useMumble
FUNC 2189b0 1d 0 _GLOBAL__sub_I__Z14CL_DeltaEntityP5msg_tP12clSnapshot_tiRK13entityState_t
FUNC 2189d0 1d 0 _GLOBAL__sub_I_scr_initialized
FUNC 2189f0 1d 0 _GLOBAL__sub_I__Z15DL_InitDownloadv
FUNC 218a10 1d 0 _GLOBAL__sub_I__ZN11Application6GetAppEv
FUNC 218a30 1d 0 _GLOBAL__sub_I__ZN5Audio4InitEv
FUNC 218a50 1d 0 _GLOBAL__sub_I__ZN8Keyboard11StringToKeyEN3Str14BasicStringRefIcEE
FUNC 218a70 1d 0 _GLOBAL__sub_I__Z7IN_InitPv
FUNC 218a90 1d 0 _GLOBAL__sub_I__Z11RE_Shutdownb
FUNC 218ab0 1d 0 _GLOBAL__sub_I_SDLCompat.cpp
FUNC 218ad0 1d 0 _GLOBAL__sub_I__ZN5Color13StrlenNocolorEPKc
FUNC 218af0 1d 0 _GLOBAL__sub_I__ZN3Cmd6EscapeB5cxx11EN3Str14BasicStringRefIcEE
FUNC 218b10 1d 0 _GLOBAL__sub_I__ZN4Cvar9CvarProxyC2ENSt7__cxx1112basic_stringIcSt11char_traitsIcESaIcEEEiS6_
FUNC 218b30 ac 0 Sys::Error<std::__cxx11::basic_string<char, std::char_traits<char>, std::allocator<char> > >
FUNC 218be0 2ed 0 _GLOBAL__sub_I_fsLogs
FUNC 218ed0 1d 0 _GLOBAL__sub_I__ZNK3IPC8FileDesc5CloseEv
FUNC 218ef0 15a9 0 __static_initialization_and_destruction_0
FUNC 21a4a0 5 0 _GLOBAL__sub_I__ZN8Keyboard3Key4NONEE
FUNC 21a4b0 1d 0 _GLOBAL__sub_I__ZN4Util12LineEditDataC2Ejj
FUNC 21a4d0 b4 0 Sys::Error<Str::BasicStringRef<char>&, std::__cxx11::basic_string<char, std::char_traits<char>, std::allocator<char> >&>
FUNC 21a590 f6 0 _GLOBAL__sub_I__ZN3Log6LoggerC2EN3Str14BasicStringRefIcEENSt7__cxx1112basic_stringIcSt11char_traitsIcESaIcEEENS_5LevelE
FUNC 21a690 1d 0 _GLOBAL__sub_I__ZN3Str23AssertOnTinyFormatErrorENSt7__cxx1112basic_stringIcSt11char_traitsIcESaIcEEE
FUNC 21a6b0 1d 0 _GLOBAL__sub_I__ZN3Sys11SteadyClock3nowEv
FUNC 21a6d0 33 0 std::__cxx11::basic_string<char, std::char_traits<char>, std::allocator<char> >::basic_string
FUNC 21a710 1d9 0 _GLOBAL__sub_I_cm
FUNC 21a8f0 17 0 CMod_LoadNodes
FUNC 21a910 1d 0 _GLOBAL__sub_I_c_totalPatchBlocks
FUNC 21a930 1d 0 _GLOBAL__sub_I_numPlanes
FUNC 21a950 1d 0 _GLOBAL__sub_I_c_active_windings
FUNC 21a970 151 0 _GLOBAL__sub_I__Z17CM_PointLeafnum_rPKfi
FUNC 21aad0 151 0 _GLOBAL__sub_I_cm_noCurves
FUNC 21ac30 1d 0 _GLOBAL__sub_I__Z30CM_GenerateTriangleSoupCollideiPA3_fiPi
FUNC 21ac50 1d 0 _GLOBAL__sub_I_vec3_origin
FUNC 21ac70 c6 0 Sys::Drop<char*&, char const*&, char const*&>
FUNC 21ad40 1d 0 _GLOBAL__sub_I__Z16Com_InitGrowListP10growList_ti
FUNC 21ad60 1d 0 _GLOBAL__sub_I__Z12Q_UTF8_WidthPKc
FUNC 21ad80 1d 0 _GLOBAL__sub_I__ZN11Application6TraitsC2Ev
FUNC 21ada0 26d 0 _GLOBAL__sub_I__ZN3Cmd10DelayFrameEv
FUNC 21b010 1d 0 _GLOBAL__sub_I__ZN3IPC17CommandBufferHostC2ENSt7__cxx1112basic_stringIcSt11char_traitsIcESaIcEEE
FUNC 21b030 33 0 std::__cxx11::basic_string<char, std::char_traits<char>, std::allocator<char> >::basic_string
FUNC 21b070 69f 0 __static_initialization_and_destruction_0
FUNC 21b710 5 0 _GLOBAL__sub_I__ZN3Cmd10commandLogE
FUNC 21b720 1d 0 _GLOBAL__sub_I__ZN2VM16CommonVMServices17HandleMiscSyscallEiRN4Util6ReaderERN3IPC7ChannelE
FUNC 21b740 1d 0 _GLOBAL__sub_I__ZN7Console5FieldC2Ei
FUNC 21b760 9d 0 _GLOBAL__sub_I__ZN7Console7History5linesB5cxx11E
FUNC 21b800 33 0 std::__cxx11::basic_string<char, std::char_traits<char>, std::allocator<char> >::basic_string
FUNC 21b840 1bb 0 _GLOBAL__sub_I_crashDumpLogs
FUNC 21ba00 3c 0 std::__cxx11::basic_string<char, std::char_traits<char>, std::allocator<char> >::basic_string
FUNC 21ba40 32f 0 _GLOBAL__sub_I_cvar_modifiedFlags
FUNC 21bd70 33 0 std::__cxx11::basic_string<char, std::char_traits<char>, std::allocator<char> >::basic_string
FUNC 21bdb0 639 0 __static_initialization_and_destruction_0
FUNC 21c3f0 5 0 _GLOBAL__sub_I__ZN3Log8DispatchENS_5EventEi
FUNC 21c400 5a 0 _GLOBAL__sub_I__ZN3Sys22GetSingletonSocketPathB5cxx11Ev
FUNC 21c460 ac 0 Sys::Drop<std::__cxx11::basic_string<char, std::char_traits<char>, std::allocator<char> > >
FUNC 21c50c b8 0 Sys::Drop<std::__cxx11::basic_string<char, std::char_traits<char>, std::allocator<char> >&, std::__cxx11::basic_string<char, std::char_traits<char>, std::allocator<char> >&>
FUNC 21c5d0 1d 0 _GLOBAL__sub_I__ZN2VM12CreateNaClVMESt4pairIN3IPC6SocketES2_EN3Str14BasicStringRefIcEEbbi
FUNC 21c5f0 1d 0 _GLOBAL__sub_I__ZN6Crypto10RandomDataEj
FUNC 21c610 1d 0 _GLOBAL__sub_I__ZN4Rcon7MessageC2ERK8netadr_tNSt7__cxx1112basic_stringIcSt11char_traitsIcESaIcEEENS_6SecureES9_S9_
FUNC 21c630 1d 0 _GLOBAL__sub_I__ZN3Net13OutOfBandDataE8netsrc_tRK8netadr_tPhj
FUNC 21c650 1d 0 _GLOBAL__sub_I__Z13Com_MD5BufferPKciPci
FUNC 21c670 33 0 std::__cxx11::basic_string<char, std::char_traits<char>, std::allocator<char> >::basic_string
FUNC 21c6b0 25b 0 _GLOBAL__sub_I_com_ansiColor
FUNC 21c910 1d 0 _GLOBAL__sub_I__Z16CON_Shutdown_TTYv
FUNC 21c930 3d 0 _GLOBAL__sub_I__Z12CON_Shutdownv
FUNC 21c970 1d 0 _GLOBAL__sub_I__ZN3IPC13CommandBuffer4InitEPvj
FUNC 21c990 1d 0 _GLOBAL__sub_I__ZN11tinygettext3Log17log_info_callbackB5cxx11E
FUNC 21c9b0 3b 0 std::__cxx11::basic_string<char, std::char_traits<char>, std::allocator<char> >::basic_string
FUNC 21c9f0 1d 0 _GLOBAL__sub_I__ZN11tinygettext8POParser8pedanticE
FUNC 21ca10 1d 0 _GLOBAL__sub_I__Z14dtAllocNavMeshv
FUNC 21ca30 1d 0 _GLOBAL__sub_I__ZN13dtQueryFilterC2Ev
FUNC 21ca50 1d 0 _GLOBAL__sub_I__ZN10dtNodePoolC2Eii
FUNC 21ca70 1d 0 _GLOBAL__sub_I__Z25dtMergeCorridorStartMovedPjiiPKji
FUNC 21ca90 1d 0 _GLOBAL__sub_I__Z16dtAllocTileCachev
FUNC 21cab0 1d 0 _GLOBAL__sub_I__Z26dtAllocTileCacheContourSetP16dtTileCacheAlloc
FUNC 21cad0 1d 0 _GLOBAL__sub_I__Z19dtCreateNavMeshDataP21dtNavMeshCreateParamsPPhPi
FUNC 21caf0 48 0 main
FUNC 21cb40 51 0 __report_error
FUNC 21cba0 49 0 set_fast_math_sse
FUNC 21cbf0 43 0 set_fast_math
STACK CFI INIT 1000 2 .cfa: $esp 4 + .ra: .cfa -4 + ^
STACK CFI INIT 1010 11e .cfa: $esp 4 + .ra: .cfa -4 + ^
STACK CFI 1013 .cfa: $esp 32 +
STACK CFI 1098 .cfa: $esp 4 +
STACK CFI 10a0 .cfa: $esp 32 +
STACK CFI 1111 .cfa: $esp 4 +
STACK CFI 1112 .cfa: $esp 32 +
STACK CFI INIT 1130 3e .cfa: $esp 4 + .ra: .cfa -4 + ^
STACK CFI 1133 .cfa: $esp 48 +
STACK CFI 116d .cfa: $esp 4 +
STACK CFI INIT 1170 364 .cfa: $esp 4 + .ra: .cfa -4 + ^
STACK CFI 1171 $ebp: .cfa -8 + ^ .cfa: $esp 8 +
STACK CFI 117a .cfa: $ebp 8 +
STACK CFI 1180 $ebx: .cfa -20 + ^ $edi: .cfa -12 + ^ $esi: .cfa -16 + ^
STACK CFI 1416 $ebx: $ebx
STACK CFI 1417 $esi: $esi
STACK CFI 1418 $edi: $edi
STACK CFI 1419 $ebp: $ebp .cfa: $esp 4 +
STACK CFI 1420 $ebp: .cfa -8 + ^ $ebx: .cfa -20 + ^ $edi: .cfa -12 + ^ $esi: .cfa -16 + ^ .cfa: $ebp 8 +
STACK CFI INIT 14e0 1a .cfa: $esp 4 + .ra: .cfa -4 + ^
STACK CFI 14e3 .cfa: $esp 16 +
STACK CFI 14f5 .cfa: $esp 4 +
STACK CFI INIT 1500 1a .cfa: $esp 4 + .ra: .cfa -4 + ^
STACK CFI 1503 .cfa: $esp 16 +
STACK CFI 1515 .cfa: $esp 4 +
STACK CFI INIT 202f60 8 .cfa: $esp 4 + .ra: .cfa -4 + ^
STACK CFI INIT 1ec5e0 2 .cfa: $esp 4 + .ra: .cfa -4 + ^
STACK CFI INIT 1550 2 .cfa: $esp 4 + .ra: .cfa -4 + ^
STACK CFI INIT 1560 22 .cfa: $esp 4 + .ra: .cfa -4 + ^
STACK CFI 156f .cfa: $esp 32 +
STACK CFI 157a .cfa: $esp 4 +
STACK CFI INIT 1590 a .cfa: $esp 4 + .ra: .cfa -4 + ^
STACK CFI INIT 15a0 a2 .cfa: $esp 4 + .ra: .cfa -4 + ^
STACK CFI 15a1 $edi: .cfa -8 + ^ .cfa: $esp 8 +
STACK CFI 15a2 $esi: .cfa -12 + ^ .cfa: $esp 12 +
STACK CFI 15a5 $ebx: .cfa -16 + ^ .cfa: $esp 16 +
STACK CFI 15a8 .cfa: $esp 48 +
STACK CFI 15e1 .cfa: $esp 16 +
STACK CFI 15e2 $ebx: $ebx .cfa: $esp 12 +
STACK CFI 15e3 $esi: $esi .cfa: $esp 8 +
STACK CFI 15e4 $edi: $edi .cfa: $esp 4 +
STACK CFI 15f0 $ebx: .cfa -16 + ^ $edi: .cfa -8 + ^ $esi: .cfa -12 + ^ .cfa: $esp 48 +
STACK CFI 1606 .cfa: $esp 40 +
STACK CFI 1609 .cfa: $esp 48 +
STACK CFI INIT 1650 25 .cfa: $esp 4 + .ra: .cfa -4 + ^
STACK CFI 1651 $ebx: .cfa -8 + ^ .cfa: $esp 8 +
STACK CFI 1659 .cfa: $esp 32 +
STACK CFI 1673 .cfa: $esp 8 +
STACK CFI 1674 $ebx: $ebx .cfa: $esp 4 +
STACK CFI INIT 1680 6b .cfa: $esp 4 + .ra: .cfa -4 + ^
STACK CFI 1681 $ebx: .cfa -8 + ^ .cfa: $esp 8 +
STACK CFI 1684 .cfa: $esp 32 +
STACK CFI 16e9 .cfa: $esp 8 +
STACK CFI 16ea $ebx: $ebx .cfa: $esp 4 +
STACK CFI INIT 16f0 15c .cfa: $esp 4 + .ra: .cfa -4 + ^
STACK CFI 16f1 $ebp: .cfa -8 + ^ .cfa: $esp 8 +
STACK CFI 16f2 $edi: .cfa -12 + ^ .cfa: $esp 12 +
STACK CFI 16f3 $esi: .cfa -16 + ^ .cfa: $esp 16 +
STACK CFI 16f4 $ebx: .cfa -20 + ^ .cfa: $esp 20 +
STACK CFI 16f7 .cfa: $esp 64 +
STACK CFI 17ed .cfa: $esp 20 +
STACK CFI 17ee $ebx: $ebx .cfa: $esp 16 +
STACK CFI 17ef $esi: $esi .cfa: $esp 12 +
STACK CFI 17f0 $edi: $edi .cfa: $esp 8 +
STACK CFI 17f1 $ebp: $ebp .cfa: $esp 4 +
STACK CFI 17f2 $ebp: .cfa -8 + ^ $ebx: .cfa -20 + ^ $edi: .cfa -12 + ^ $esi: .cfa -16 + ^ .cfa: $esp 64 +
STACK CFI 1847 .cfa: $esp 20 +
STACK CFI 1848 $ebx: $ebx .cfa: $esp 16 +
STACK CFI 1849 $esi: $esi .cfa: $esp 12 +
STACK CFI 184a $edi: $edi .cfa: $esp 8 +
STACK CFI 184b $ebp: $ebp .cfa: $esp 4 +
STACK CFI INIT 1850 78 .cfa: $esp 4 + .ra: .cfa -4 + ^
STACK CFI 1851 $edi: .cfa -8 + ^ .cfa: $esp 8 +
STACK CFI 1852 $esi: .cfa -12 + ^ .cfa: $esp 12 +
STACK CFI 1853 $ebx: .cfa -16 + ^ .cfa: $esp 16 +
STACK CFI 1856 .cfa: $esp 32 +
STACK CFI 18c4 .cfa: $esp 16 +
STACK CFI 18c5 $ebx: $ebx .cfa: $esp 12 +
STACK CFI 18c6 $esi: $esi .cfa: $esp 8 +
STACK CFI 18c7 $edi: $edi .cfa: $esp 4 +
STACK CFI INIT 18d0 5 .cfa: $esp 4 + .ra: .cfa -4 + ^
STACK CFI INIT 18e0 5 .cfa: $esp 4 + .ra: .cfa -4 + ^
STACK CFI INIT 18f0 12 .cfa: $esp 4 + .ra: .cfa -4 + ^
STACK CFI 18f3 .cfa: $esp 16 +
STACK CFI 18fb .cfa: $esp 4 +
STACK CFI INIT 1910 68 .cfa: $esp 4 + .ra: .cfa -4 + ^
STACK CFI 1911 $ebx: .cfa -8 + ^ .cfa: $esp 8 +
STACK CFI 1914 .cfa: $esp 32 +
STACK CFI 1934 .cfa: $esp 8 +
STACK CFI 1937 $ebx: $ebx .cfa: $esp 4 +
STACK CFI 1940 $ebx: .cfa -8 + ^ .cfa: $esp 32 +
STACK CFI 1952 .cfa: $esp 28 +
STACK CFI 1955 .cfa: $esp 32 +
STACK CFI 1974 .cfa: $esp 8 +
STACK CFI 1977 $ebx: $ebx .cfa: $esp 4 +
STACK CFI INIT 1980 e1 .cfa: $esp 4 + .ra: .cfa -4 + ^
STACK CFI 1981 $ebp: .cfa -8 + ^ .cfa: $esp 8 +
STACK CFI 1984 .cfa: $esp 128 +
STACK CFI 19e0 .cfa: $esp 116 +
STACK CFI 19e3 .cfa: $esp 128 +
STACK CFI 1a2a .cfa: $esp 8 +
STACK CFI 1a30 $ebp: $ebp .cfa: $esp 4 +
STACK CFI 1a31 $ebp: .cfa -8 + ^ .cfa: $esp 128 +
STACK CFI INIT 1a70 13 .cfa: $esp 4 + .ra: .cfa -4 + ^
STACK CFI 1a73 .cfa: $esp 32 +
STACK CFI 1a82 .cfa: $esp 4 +
STACK CFI INIT 1a90 9 .cfa: $esp 4 + .ra: .cfa -4 + ^
STACK CFI INIT 1aa0 2c .cfa: $esp 4 + .ra: .cfa -4 + ^
STACK CFI 1aa1 $esi: .cfa -8 + ^ .cfa: $esp 8 +
STACK CFI 1aa2 $ebx: .cfa -12 + ^ .cfa: $esp 12 +
STACK CFI 1aa5 .cfa: $esp 16 +
STACK CFI 1ac5 .cfa: $esp 12 +
STACK CFI 1ac6 $ebx: $ebx .cfa: $esp 8 +
STACK CFI 1ac7 $esi: $esi .cfa: $esp 4 +
STACK CFI INIT 1ad0 18d .cfa: $esp 4 + .ra: .cfa -4 + ^
STACK CFI 1ad6 $edi: .cfa -8 + ^ .cfa: $esp 8 +
STACK CFI 1ad7 $esi: .cfa -12 + ^ .cfa: $esp 12 +
STACK CFI 1ad8 $ebx: .cfa -16 + ^ .cfa: $esp 16 +
STACK CFI 1bbb $ebx: $ebx .cfa: $esp 12 +
STACK CFI 1bbc $esi: $esi .cfa: $esp 8 +
STACK CFI 1bbd $edi: $edi .cfa: $esp 4 +
STACK CFI 1bc0 $ebx: .cfa -16 + ^ $edi: .cfa -8 + ^ $esi: .cfa -12 + ^ .cfa: $esp 16 +
STACK CFI INIT 1c60 10a .cfa: $esp 4 + .ra: .cfa -4 + ^
STACK CFI 1c61 $ebp: .cfa -8 + ^ .cfa: $esp 8 +
STACK CFI 1c64 .cfa: $esp 112 +
STACK CFI 1cbc .cfa: $esp 104 +
STACK CFI 1cbf .cfa: $esp 112 +
STACK CFI 1d43 .cfa: $esp 8 +
STACK CFI 1d44 $ebp: $ebp .cfa: $esp 4 +
STACK CFI 1d45 $ebp: .cfa -8 + ^ .cfa: $esp 112 +
STACK CFI INIT 1d70 125e .cfa: $esp 4 + .ra: .cfa -4 + ^
STACK CFI 1d71 $ebp: .cfa -8 + ^ .cfa: $esp 8 +
STACK CFI 1d73 .cfa: $ebp 8 +
STACK CFI 1d7e $ebx: .cfa -16 + ^ $esi: .cfa -12 + ^
STACK CFI 1dfa $ebx: $ebx
STACK CFI 1dfb $esi: $esi
STACK CFI 1dfc $ebp: $ebp .cfa: $esp 4 +
STACK CFI 1e00 $ebp: .cfa -8 + ^ $ebx: .cfa -16 + ^ $esi: .cfa -12 + ^ .cfa: $ebp 8 +
STACK CFI INIT 2fd0 244 .cfa: $esp 4 + .ra: .cfa -4 + ^
STACK CFI 2fd1 $ebp: .cfa -8 + ^ .cfa: $esp 8 +
STACK CFI 2fd3 .cfa: $ebp 8 +
STACK CFI 2fdd $ebx: .cfa -12 + ^
STACK CFI 3049 $ebp: $ebp $ebx: $ebx .cfa: $esp 4 +
STACK CFI 3050 $ebp: .cfa -8 + ^ $ebx: .cfa -12 + ^ .cfa: $ebp 8 +
STACK CFI 3164 $ebp: $ebp $ebx: $ebx .cfa: $esp 4 +
STACK CFI 3165 $ebp: .cfa -8 + ^ $ebx: .cfa -12 + ^ .cfa: $ebp 8 +
STACK CFI INIT 3220 2b5 .cfa: $esp 4 + .ra: .cfa -4 + ^
STACK CFI 3221 $ebp: .cfa -8 + ^ .cfa: $esp 8 +
STACK CFI 3222 $edi: .cfa -12 + ^ .cfa: $esp 12 +
STACK CFI 3223 $esi: .cfa -16 + ^ .cfa: $esp 16 +
STACK CFI 3224 $ebx: .cfa -20 + ^ .cfa: $esp 20 +
STACK CFI 322a .cfa: $esp 160 +
STACK CFI 32aa .cfa: $esp 152 +
STACK CFI 32ad .cfa: $esp 160 +
STACK CFI 3340 .cfa: $esp 148 +
STACK CFI 3343 .cfa: $esp 160 +
STACK CFI 33f2 .cfa: $esp 152 +
STACK CFI 33f5 .cfa: $esp 160 +
STACK CFI 342f .cfa: $esp 20 +
STACK CFI 3430 $ebx: $ebx .cfa: $esp 16 +
STACK CFI 3431 $esi: $esi .cfa: $esp 12 +
STACK CFI 3432 $edi: $edi .cfa: $esp 8 +
STACK CFI 3433 $ebp: $ebp .cfa: $esp 4 +
STACK CFI 3434 $ebp: .cfa -8 + ^ $ebx: .cfa -20 + ^ $edi: .cfa -12 + ^ $esi: .cfa -16 + ^ .cfa: $esp 160 +
STACK CFI INIT 34e0 241 .cfa: $esp 4 + .ra: .cfa -4 + ^
STACK CFI 34e1 $ebp: .cfa -8 + ^ .cfa: $esp 8 +
STACK CFI 34e3 .cfa: $ebp 8 +
STACK CFI 35fa $ebp: $ebp .cfa: $esp 4 +
STACK CFI 3600 $ebp: .cfa -8 + ^ .cfa: $ebp 8 +
STACK CFI 36b8 $ebp: $ebp .cfa: $esp 4 +
STACK CFI 36c0 $ebp: .cfa -8 + ^ .cfa: $ebp 8 +
STACK CFI INIT 3730 d9 .cfa: $esp 4 + .ra: .cfa -4 + ^
STACK CFI 3731 $ebp: .cfa -8 + ^ .cfa: $esp 8 +
STACK CFI 3733 .cfa: $ebp 8 +
STACK CFI 37d4 $ebp: $ebp .cfa: $esp 4 +
STACK CFI 37d5 $ebp: .cfa -8 + ^ .cfa: $ebp 8 +
STACK CFI INIT 216230 ea .cfa: $esp 4 + .ra: .cfa -4 + ^
STACK CFI 216233 .cfa: $esp 32 +
STACK CFI 2162fd .cfa: $esp 28 +
STACK CFI 216300 .cfa: $esp 32 +
STACK CFI 216319 .cfa: $esp 4 +
STACK CFI INIT 1ec5d0 f .cfa: $esp 4 + .ra: .cfa -4 + ^
STACK CFI 1ec5d3 .cfa: $esp 32 +
STACK CFI 1ec5de .cfa: $esp 4 +
STACK CFI INIT 15bda0 98 .cfa: $esp 4 + .ra: .cfa -4 + ^
STACK CFI 15bda1 $ebx: .cfa -8 + ^ .cfa: $esp 8 +
STACK CFI 15bda4 .cfa: $esp 32 +
STACK CFI 15bde9 .cfa: $esp 24 +
STACK CFI 15bdec .cfa: $esp 32 +
STACK CFI 15bdef .cfa: $esp 8 +
STACK CFI 15bdf0 $ebx: $ebx .cfa: $esp 4 +
STACK CFI 15bdf1 $ebx: .cfa -8 + ^ .cfa: $esp 32 +
STACK CFI 15be08 .cfa: $esp 8 +
STACK CFI 15be09 $ebx: $ebx .cfa: $esp 4 +
STACK CFI 15be10 $ebx: .cfa -8 + ^ .cfa: $esp 32 +
STACK CFI 15be18 .cfa: $esp 28 +
STACK CFI 15be1b .cfa: $esp 32 +
STACK CFI 15be1e .cfa: $esp 8 +
STACK CFI 15be1f $ebx: $ebx .cfa: $esp 4 +
STACK CFI 15be20 $ebx: .cfa -8 + ^ .cfa: $esp 32 +
STACK CFI 15be33 .cfa: $esp 28 +
STACK CFI 15be36 .cfa: $esp 32 +
STACK CFI INIT 167a80 ca .cfa: $esp 4 + .ra: .cfa -4 + ^
STACK CFI 167a81 $ebp: .cfa -8 + ^ .cfa: $esp 8 +
STACK CFI 167a84 .cfa: $esp 128 +
STACK CFI 167adc .cfa: $esp 120 +
STACK CFI 167adf .cfa: $esp 128 +
STACK CFI 167b16 .cfa: $esp 8 +
STACK CFI 167b19 $ebp: $ebp .cfa: $esp 4 +
STACK CFI 167b1a $ebp: .cfa -8 + ^ .cfa: $esp 128 +
STACK CFI INIT 1681e0 ca .cfa: $esp 4 + .ra: .cfa -4 + ^
STACK CFI 1681e1 $ebp: .cfa -8 + ^ .cfa: $esp 8 +
STACK CFI 1681e4 .cfa: $esp 128 +
STACK CFI 16823c .cfa: $esp 120 +
STACK CFI 16823f .cfa: $esp 128 +
STACK CFI 168276 .cfa: $esp 8 +
STACK CFI 168279 $ebp: $ebp .cfa: $esp 4 +
STACK CFI 16827a $ebp: .cfa -8 + ^ .cfa: $esp 128 +
STACK CFI INIT 1622e0 20b .cfa: $esp 4 + .ra: .cfa -4 + ^
STACK CFI 1622e1 $ebp: .cfa -8 + ^ .cfa: $esp 8 +
STACK CFI 1622e4 .cfa: $esp 128 +
STACK CFI 162398 .cfa: $esp 120 +
STACK CFI 16239b .cfa: $esp 128 +
STACK CFI 1623aa .cfa: $esp 8 +
STACK CFI 1623ab $ebp: $ebp .cfa: $esp 4 +
STACK CFI 1623b0 $ebp: .cfa -8 + ^ .cfa: $esp 128 +
STACK CFI 1623cb .cfa: $esp 124 +
STACK CFI 1623ce .cfa: $esp 128 +
STACK CFI 162429 .cfa: $esp 120 +
STACK CFI 16242c .cfa: $esp 128 +
STACK CFI 162499 .cfa: $esp 120 +
STACK CFI 16249c .cfa: $esp 128 +
STACK CFI INIT 15a140 b76 .cfa: $esp 4 + .ra: .cfa -4 + ^
STACK CFI 15a141 $ebp: .cfa -8 + ^ .cfa: $esp 8 +
STACK CFI 15a142 $edi: .cfa -12 + ^ .cfa: $esp 12 +
STACK CFI 15a143 $esi: .cfa -16 + ^ .cfa: $esp 16 +
STACK CFI 15a144 $ebx: .cfa -20 + ^ .cfa: $esp 20 +
STACK CFI 15a14a .cfa: $esp 160 +
STACK CFI 15a4f2 .cfa: $esp 20 +
STACK CFI 15a4f3 $ebx: $ebx .cfa: $esp 16 +
STACK CFI 15a4f4 $esi: $esi .cfa: $esp 12 +
STACK CFI 15a4f5 $edi: $edi .cfa: $esp 8 +
STACK CFI 15a4f6 $ebp: $ebp .cfa: $esp 4 +
STACK CFI 15a500 $ebp: .cfa -8 + ^ $ebx: .cfa -20 + ^ $edi: .cfa -12 + ^ $esi: .cfa -16 + ^ .cfa: $esp 160 +
STACK CFI 15a52c .cfa: $esp 152 +
STACK CFI 15a52f .cfa: $esp 160 +
STACK CFI 15a804 .cfa: $esp 156 +
STACK CFI 15a807 .cfa: $esp 160 +
STACK CFI 15a83c .cfa: $esp 156 +
STACK CFI 15a83f .cfa: $esp 160 +
STACK CFI 15a91f .cfa: $esp 152 +
STACK CFI 15a922 .cfa: $esp 160 +
STACK CFI 15a97d .cfa: $esp 152 +
STACK CFI 15a980 .cfa: $esp 160 +
STACK CFI 15aa06 .cfa: $esp 152 +
STACK CFI 15aa09 .cfa: $esp 160 +
STACK CFI 15ab32 .cfa: $esp 156 +
STACK CFI 15ab35 .cfa: $esp 160 +
STACK CFI 15ab66 .cfa: $esp 156 +
STACK CFI 15ab69 .cfa: $esp 160 +
STACK CFI 15ab97 .cfa: $esp 152 +
STACK CFI 15ab9a .cfa: $esp 160 +
STACK CFI 15abfd .cfa: $esp 156 +
STACK CFI 15ac00 .cfa: $esp 160 +
STACK CFI 15ac31 .cfa: $esp 152 +
STACK CFI 15ac34 .cfa: $esp 160 +
STACK CFI INIT 208200 2e .cfa: $esp 4 + .ra: .cfa -4 + ^
STACK CFI 208201 $ebx: .cfa -8 + ^ .cfa: $esp 8 +
STACK CFI 208209 .cfa: $esp 32 +
STACK CFI 20822c .cfa: $esp 8 +
STACK CFI 20822d $ebx: $ebx .cfa: $esp 4 +
STACK CFI INIT 2122f0 30 .cfa: $esp 4 + .ra: .cfa -4 + ^
STACK CFI 2122f1 $ebx: .cfa -8 + ^ .cfa: $esp 8 +
STACK CFI 2122f9 .cfa: $esp 32 +
STACK CFI 212317 .cfa: $esp 8 +
STACK CFI 21231b $ebx: $ebx .cfa: $esp 4 +
STACK CFI INIT 20e670 5f .cfa: $esp 4 + .ra: .cfa -4 + ^
STACK CFI 20e671 $edi: .cfa -8 + ^ .cfa: $esp 8 +
STACK CFI 20e672 $esi: .cfa -12 + ^ .cfa: $esp 12 +
STACK CFI 20e673 $ebx: .cfa -16 + ^ .cfa: $esp 16 +
STACK CFI 20e676 .cfa: $esp 32 +
STACK CFI 20e6cb .cfa: $esp 16 +
STACK CFI 20e6cc $ebx: $ebx .cfa: $esp 12 +
STACK CFI 20e6cd $esi: $esi .cfa: $esp 8 +
STACK CFI 20e6ce $edi: $edi .cfa: $esp 4 +
STACK CFI INIT 1c14c0 11f2 .cfa: $esp 4 + .ra: .cfa -4 + ^
STACK CFI 1c14c1 $ebp: .cfa -8 + ^ .cfa: $esp 8 +
STACK CFI 1c14c3 .cfa: $ebp 8 +
STACK CFI 1c14ce $ebx: .cfa -16 + ^ $esi: .cfa -12 + ^
STACK CFI 1c153e $ebx: $ebx
STACK CFI 1c153f $esi: $esi
STACK CFI 1c1540 $ebp: $ebp .cfa: $esp 4 +
STACK CFI 1c1543 $ebp: .cfa -8 + ^ $ebx: .cfa -16 + ^ $esi: .cfa -12 + ^ .cfa: $ebp 8 +
STACK CFI INIT 210290 3ad .cfa: $esp 4 + .ra: .cfa -4 + ^
STACK CFI 210291 $ebp: .cfa -8 + ^ .cfa: $esp 8 +
STACK CFI 210292 $edi: .cfa -12 + ^ .cfa: $esp 12 +
STACK CFI 210293 $esi: .cfa -16 + ^ .cfa: $esp 16 +
STACK CFI 210294 $ebx: .cfa -20 + ^ .cfa: $esp 20 +
STACK CFI 210299 .cfa: $esp 64 +
STACK CFI 210539 .cfa: $esp 20 +
STACK CFI 21053a $ebx: $ebx .cfa: $esp 16 +
STACK CFI 21053b $esi: $esi .cfa: $esp 12 +
STACK CFI 21053c $edi: $edi .cfa: $esp 8 +
STACK CFI 21053d $ebp: $ebp .cfa: $esp 4 +
STACK CFI 210540 $ebp: .cfa -8 + ^ $ebx: .cfa -20 + ^ $edi: .cfa -12 + ^ $esi: .cfa -16 + ^ .cfa: $esp 64 +
STACK CFI INIT 202950 c4 .cfa: $esp 4 + .ra: .cfa -4 + ^
STACK CFI 202951 $ebp: .cfa -8 + ^ .cfa: $esp 8 +
STACK CFI 202952 $edi: .cfa -12 + ^ .cfa: $esp 12 +
STACK CFI 202953 $esi: .cfa -16 + ^ .cfa: $esp 16 +
STACK CFI 202954 $ebx: .cfa -20 + ^ .cfa: $esp 20 +
STACK CFI 202957 .cfa: $esp 32 +
STACK CFI 202a0d .cfa: $esp 20 +
STACK CFI 202a0e $ebx: $ebx .cfa: $esp 16 +
STACK CFI 202a0f $esi: $esi .cfa: $esp 12 +
STACK CFI 202a10 $edi: $edi .cfa: $esp 8 +
STACK CFI 202a11 $ebp: $ebp .cfa: $esp 4 +
STACK CFI INIT 203cf0 1e9 .cfa: $esp 4 + .ra: .cfa -4 + ^
STACK CFI 203cf1 $ebp: .cfa -8 + ^ .cfa: $esp 8 +
STACK CFI 203cf2 $edi: .cfa -12 + ^ .cfa: $esp 12 +
STACK CFI 203cf3 $esi: .cfa -16 + ^ .cfa: $esp 16 +
STACK CFI 203cf4 $ebx: .cfa -20 + ^ .cfa: $esp 20 +
STACK CFI 203cf7 .cfa: $esp 128 +
STACK CFI 203e37 .cfa: $esp 20 +
STACK CFI 203e38 $ebx: $ebx .cfa: $esp 16 +
STACK CFI 203e39 $esi: $esi .cfa: $esp 12 +
STACK CFI 203e3a $edi: $edi .cfa: $esp 8 +
STACK CFI 203e3b $ebp: $ebp .cfa: $esp 4 +
STACK CFI 203e40 $ebp: .cfa -8 + ^ $ebx: .cfa -20 + ^ $edi: .cfa -12 + ^ $esi: .cfa -16 + ^ .cfa: $esp 128 +
STACK CFI INIT 203b70 175 .cfa: $esp 4 + .ra: .cfa -4 + ^
STACK CFI 203b71 $ebp: .cfa -8 + ^ .cfa: $esp 8 +
STACK CFI 203b73 .cfa: $ebp 8 +
STACK CFI 203b7a $ebx: .cfa -12 + ^
STACK CFI 203c53 $ebp: $ebp $ebx: $ebx .cfa: $esp 4 +
STACK CFI 203c60 $ebp: .cfa -8 + ^ $ebx: .cfa -12 + ^ .cfa: $ebp 8 +
STACK CFI INIT 213a70 186 .cfa: $esp 4 + .ra: .cfa -4 + ^
STACK CFI 213a71 $ebp: .cfa -8 + ^ .cfa: $esp 8 +
STACK CFI 213a72 $edi: .cfa -12 + ^ .cfa: $esp 12 +
STACK CFI 213a73 $esi: .cfa -16 + ^ .cfa: $esp 16 +
STACK CFI 213a74 $ebx: .cfa -20 + ^ .cfa: $esp 20 +
STACK CFI 213a79 .cfa: $esp 144 +
STACK CFI 213b14 .cfa: $esp 132 +
STACK CFI 213b17 .cfa: $esp 144 +
STACK CFI 213b37 .cfa: $esp 20 +
STACK CFI 213b38 $ebx: $ebx .cfa: $esp 16 +
STACK CFI 213b39 $esi: $esi .cfa: $esp 12 +
STACK CFI 213b3a $edi: $edi .cfa: $esp 8 +
STACK CFI 213b3b $ebp: $ebp .cfa: $esp 4 +
STACK CFI 213b40 $ebp: .cfa -8 + ^ $ebx: .cfa -20 + ^ $edi: .cfa -12 + ^ $esi: .cfa -16 + ^ .cfa: $esp 144 +
STACK CFI 213bbd .cfa: $esp 132 +
STACK CFI 213bc0 .cfa: $esp 144 +
STACK CFI INIT 213c00 1ba .cfa: $esp 4 + .ra: .cfa -4 + ^
STACK CFI 213c01 $ebp: .cfa -8 + ^ .cfa: $esp 8 +
STACK CFI 213c03 .cfa: $ebp 8 +
STACK CFI 213c0d $ebx: .cfa -12 + ^
STACK CFI 213cd7 $ebp: $ebp $ebx: $ebx .cfa: $esp 4 +
STACK CFI 213ce0 $ebp: .cfa -8 + ^ $ebx: .cfa -12 + ^ .cfa: $ebp 8 +
STACK CFI INIT 1fd500 769 .cfa: $esp 4 + .ra: .cfa -4 + ^
STACK CFI 1fd501 $ebp: .cfa -8 + ^ .cfa: $esp 8 +
STACK CFI 1fd503 .cfa: $ebp 8 +
STACK CFI 1fd50b $ebx: .cfa -16 + ^ $esi: .cfa -12 + ^
STACK CFI 1fd992 $ebx: $ebx
STACK CFI 1fd993 $esi: $esi
STACK CFI 1fd994 $ebp: $ebp .cfa: $esp 4 +
STACK CFI 1fd9a0 $ebp: .cfa -8 + ^ $ebx: .cfa -16 + ^ $esi: .cfa -12 + ^ .cfa: $ebp 8 +
STACK CFI INIT 1fd4d0 2e .cfa: $esp 4 + .ra: .cfa -4 + ^
STACK CFI 1fd4d3 .cfa: $esp 32 +
STACK CFI 1fd4e3 .cfa: $esp 28 +
STACK CFI 1fd4e6 .cfa: $esp 32 +
STACK CFI 1fd4f3 .cfa: $esp 28 +
STACK CFI 1fd4f6 .cfa: $esp 32 +
STACK CFI 1fd4fb .cfa: $esp 4 +
STACK CFI INIT 207140 11 .cfa: $esp 4 + .ra: .cfa -4 + ^
STACK CFI INIT 207060 3d .cfa: $esp 4 + .ra: .cfa -4 + ^
STACK CFI INIT 168550 7 .cfa: $esp 4 + .ra: .cfa -4 + ^
STACK CFI INIT 168530 9 .cfa: $esp 4 + .ra: .cfa -4 + ^
STACK CFI INIT 1e57a0 22 .cfa: $esp 4 + .ra: .cfa -4 + ^
STACK CFI 1e57b3 .cfa: $esp 32 +
STACK CFI 1e57be .cfa: $esp 4 +
STACK CFI INIT 1e5770 2b .cfa: $esp 4 + .ra: .cfa -4 + ^
STACK CFI 1e5771 $ebx: .cfa -8 + ^ .cfa: $esp 8 +
STACK CFI 1e5779 .cfa: $esp 32 +
STACK CFI 1e5799 .cfa: $esp 8 +
STACK CFI 1e579a $ebx: $ebx .cfa: $esp 4 +
STACK CFI INIT 1e5620 22 .cfa: $esp 4 + .ra: .cfa -4 + ^
STACK CFI 1e5630 .cfa: $esp 32 +
STACK CFI 1e563b .cfa: $esp 4 +
STACK CFI INIT 1e55f0 28 .cfa: $esp 4 + .ra: .cfa -4 + ^
STACK CFI 1e55f1 $ebx: .cfa -8 + ^ .cfa: $esp 8 +
STACK CFI 1e55f6 .cfa: $esp 32 +
STACK CFI 1e5616 .cfa: $esp 8 +
STACK CFI 1e5617 $ebx: $ebx .cfa: $esp 4 +
STACK CFI INIT 3810 e .cfa: $esp 4 + .ra: .cfa -4 + ^
STACK CFI INIT 3820 5 .cfa: $esp 4 + .ra: .cfa -4 + ^
STACK CFI INIT 3830 35 .cfa: $esp 4 + .ra: .cfa -4 + ^
STACK CFI 3833 .cfa: $esp 32 +
STACK CFI INIT 3870 c .cfa: $esp 4 + .ra: .cfa -4 + ^
STACK CFI INIT 3880 a .cfa: $esp 4 + .ra: .cfa -4 + ^
STACK CFI INIT 216320 9 .cfa: $esp 4 + .ra: .cfa -4 + ^
STACK CFI INIT 3890 a2 .cfa: $esp 4 + .ra: .cfa -4 + ^
STACK CFI 3891 $edi: .cfa -8 + ^ .cfa: $esp 8 +
STACK CFI 3892 $esi: .cfa -12 + ^ .cfa: $esp 12 +
STACK CFI 3895 $ebx: .cfa -16 + ^ .cfa: $esp 16 +
STACK CFI 3898 .cfa: $esp 48 +
STACK CFI 38d1 .cfa: $esp 16 +
STACK CFI 38d2 $ebx: $ebx .cfa: $esp 12 +
STACK CFI 38d3 $esi: $esi .cfa: $esp 8 +
STACK CFI 38d4 $edi: $edi .cfa: $esp 4 +
STACK CFI 38e0 $ebx: .cfa -16 + ^ $edi: .cfa -8 + ^ $esi: .cfa -12 + ^ .cfa: $esp 48 +
STACK CFI 38f6 .cfa: $esp 40 +
STACK CFI 38f9 .cfa: $esp 48 +
STACK CFI INIT 216330 3c .cfa: $esp 4 + .ra: .cfa -4 + ^
STACK CFI 216331 $ebx: .cfa -8 + ^ .cfa: $esp 8 +
STACK CFI 216337 .cfa: $esp 48 +
STACK CFI 216362 .cfa: $esp 40 +
STACK CFI 216365 .cfa: $esp 48 +
STACK CFI 216368 .cfa: $esp 8 +
STACK CFI 216369 $ebx: $ebx .cfa: $esp 4 +
STACK CFI INIT 3940 2b .cfa: $esp 4 + .ra: .cfa -4 + ^
STACK CFI 3941 $ebx: .cfa -8 + ^ .cfa: $esp 8 +
STACK CFI 3949 .cfa: $esp 16 +
STACK CFI 3969 .cfa: $esp 8 +
STACK CFI 396a $ebx: $ebx .cfa: $esp 4 +
STACK CFI INIT 3970 57 .cfa: $esp 4 + .ra: .cfa -4 + ^
STACK CFI 3973 .cfa: $esp 32 +
STACK CFI 39c6 .cfa: $esp 4 +
STACK CFI INIT 39d0 6b .cfa: $esp 4 + .ra: .cfa -4 + ^
STACK CFI 39d3 .cfa: $esp 32 +
STACK CFI 3a3a .cfa: $esp 4 +
STACK CFI INIT 3a40 57 .cfa: $esp 4 + .ra: .cfa -4 + ^
STACK CFI 3a43 .cfa: $esp 32 +
STACK CFI 3a96 .cfa: $esp 4 +
STACK CFI INIT 3aa0 57 .cfa: $esp 4 + .ra: .cfa -4 + ^
STACK CFI 3aa3 .cfa: $esp 32 +
STACK CFI 3af6 .cfa: $esp 4 +
STACK CFI INIT 3b00 57 .cfa: $esp 4 + .ra: .cfa -4 + ^
STACK CFI 3b03 .cfa: $esp 32 +
STACK CFI 3b56 .cfa: $esp 4 +
STACK CFI INIT 3b60 57 .cfa: $esp 4 + .ra: .cfa -4 + ^
STACK CFI 3b63 .cfa: $esp 32 +
STACK CFI 3bb6 .cfa: $esp 4 +
STACK CFI INIT 3bc0 57 .cfa: $esp 4 + .ra: .cfa -4 + ^
STACK CFI 3bc3 .cfa: $esp 32 +
STACK CFI 3c16 .cfa: $esp 4 +
STACK CFI INIT 3c20 57 .cfa: $esp 4 + .ra: .cfa -4 + ^
STACK CFI 3c23 .cfa: $esp 32 +
STACK CFI 3c76 .cfa: $esp 4 +
STACK CFI INIT 3c80 b1 .cfa: $esp 4 + .ra: .cfa -4 + ^
STACK CFI 3c81 $ebx: .cfa -8 + ^ .cfa: $esp 8 +
STACK CFI 3c84 .cfa: $esp 96 +
STACK CFI 3d2f .cfa: $esp 8 +
STACK CFI 3d30 $ebx: $ebx .cfa: $esp 4 +
STACK CFI INIT 3d40 5b .cfa: $esp 4 + .ra: .cfa -4 + ^
STACK CFI 3d41 $ebx: .cfa -8 + ^ .cfa: $esp 8 +
STACK CFI 3d9a $ebx: $ebx .cfa: $esp 4 +
STACK CFI INIT 3da0 298 .cfa: $esp 4 + .ra: .cfa -4 + ^
STACK CFI 3da1 $ebp: .cfa -8 + ^ .cfa: $esp 8 +
STACK CFI 3da3 .cfa: $ebp 8 +
STACK CFI 3dab $edi: .cfa -12 + ^ $esi: .cfa -16 + ^
STACK CFI 3f72 $esi: $esi
STACK CFI 3f73 $edi: $edi
STACK CFI 3f74 $ebp: $ebp .cfa: $esp 4 +
STACK CFI 3f75 $ebp: .cfa -8 + ^ $edi: .cfa -12 + ^ $esi: .cfa -16 + ^ .cfa: $ebp 8 +
STACK CFI INIT 4040 8 .cfa: $esp 4 + .ra: .cfa -4 + ^
STACK CFI INIT 4050 7d .cfa: $esp 4 + .ra: .cfa -4 + ^
STACK CFI 4051 $esi: .cfa -8 + ^ .cfa: $esp 8 +
STACK CFI 4052 $ebx: .cfa -12 + ^ .cfa: $esp 12 +
STACK CFI 4055 .cfa: $esp 64 +
STACK CFI 4093 .cfa: $esp 56 +
STACK CFI 409a .cfa: $esp 64 +
STACK CFI 40c8 .cfa: $esp 12 +
STACK CFI 40cb $ebx: $ebx .cfa: $esp 8 +
STACK CFI 40cc $esi: $esi .cfa: $esp 4 +
STACK CFI INIT 40d0 f .cfa: $esp 4 + .ra: .cfa -4 + ^
STACK CFI 40d3 .cfa: $esp 16 +
STACK CFI 40db .cfa: $esp 4 +
STACK CFI INIT 40e0 e .cfa: $esp 4 + .ra: .cfa -4 + ^
STACK CFI INIT 40f0 16 .cfa: $esp 4 + .ra: .cfa -4 + ^
STACK CFI INIT 4110 6 .cfa: $esp 4 + .ra: .cfa -4 + ^
STACK CFI INIT 4120 15 .cfa: $esp 4 + .ra: .cfa -4 + ^
STACK CFI INIT 4140 1f .cfa: $esp 4 + .ra: .cfa -4 + ^
STACK CFI INIT 4160 1e4 .cfa: $esp 4 + .ra: .cfa -4 + ^
STACK CFI 4161 $ebp: .cfa -8 + ^ .cfa: $esp 8 +
STACK CFI 4163 .cfa: $ebp 8 +
STACK CFI 424e $ebp: $ebp .cfa: $esp 4 +
STACK CFI 4250 $ebp: .cfa -8 + ^ .cfa: $ebp 8 +
STACK CFI 42f6 $ebp: $ebp .cfa: $esp 4 +
STACK CFI 42f7 $ebp: .cfa -8 + ^ .cfa: $ebp 8 +
STACK CFI INIT 4350 140 .cfa: $esp 4 + .ra: .cfa -4 + ^
STACK CFI 4351 $esi: .cfa -8 + ^ .cfa: $esp 8 +
STACK CFI 4352 $ebx: .cfa -12 + ^ .cfa: $esp 12 +
STACK CFI 4355 .cfa: $esp 32 +
STACK CFI 441f .cfa: $esp 12 +
STACK CFI 4422 $ebx: $ebx .cfa: $esp 8 +
STACK CFI 4423 $esi: $esi .cfa: $esp 4 +
STACK CFI 4424 $ebx: .cfa -12 + ^ $esi: .cfa -8 + ^ .cfa: $esp 32 +
STACK CFI INIT 4490 e4 .cfa: $esp 4 + .ra: .cfa -4 + ^
STACK CFI 4491 $ebp: .cfa -8 + ^ .cfa: $esp 8 +
STACK CFI 4492 $edi: .cfa -12 + ^ .cfa: $esp 12 +
STACK CFI 4493 $esi: .cfa -16 + ^ .cfa: $esp 16 +
STACK CFI 4494 $ebx: .cfa -20 + ^ .cfa: $esp 20 +
STACK CFI 4497 .cfa: $esp 48 +
STACK CFI 44fd .cfa: $esp 20 +
STACK CFI 44fe $ebx: $ebx .cfa: $esp 16 +
STACK CFI 4502 $esi: $esi .cfa: $esp 12 +
STACK CFI 4503 $edi: $edi .cfa: $esp 8 +
STACK CFI 4504 $ebp: $ebp .cfa: $esp 4 +
STACK CFI 4505 $ebp: .cfa -8 + ^ $ebx: .cfa -20 + ^ $edi: .cfa -12 + ^ $esi: .cfa -16 + ^ .cfa: $esp 48 +
STACK CFI 4557 .cfa: $esp 20 +
STACK CFI 4558 $ebx: $ebx .cfa: $esp 16 +
STACK CFI 4559 $esi: $esi .cfa: $esp 12 +
STACK CFI 455a $edi: $edi .cfa: $esp 8 +
STACK CFI 455b $ebp: $ebp .cfa: $esp 4 +
STACK CFI 455c $ebp: .cfa -8 + ^ $ebx: .cfa -20 + ^ $edi: .cfa -12 + ^ $esi: .cfa -16 + ^ .cfa: $esp 48 +
STACK CFI INIT 4580 5 .cfa: $esp 4 + .ra: .cfa -4 + ^
STACK CFI INIT 4590 2b .cfa: $esp 4 + .ra: .cfa -4 + ^
STACK CFI 4593 .cfa: $esp 32 +
STACK CFI 45b6 .cfa: $esp 4 +
STACK CFI INIT 45c0 ae .cfa: $esp 4 + .ra: .cfa -4 + ^
STACK CFI 45c1 $esi: .cfa -8 + ^ .cfa: $esp 8 +
STACK CFI 45c2 $ebx: .cfa -12 + ^ .cfa: $esp 12 +
STACK CFI 45c5 .cfa: $esp 32 +
STACK CFI 461b .cfa: $esp 24 +
STACK CFI 461e .cfa: $esp 32 +
STACK CFI 4621 .cfa: $esp 12 +
STACK CFI 4622 $ebx: $ebx .cfa: $esp 8 +
STACK CFI 4623 $esi: $esi .cfa: $esp 4 +
STACK CFI 4624 $ebx: .cfa -12 + ^ $esi: .cfa -8 + ^ .cfa: $esp 32 +
STACK CFI 462d .cfa: $esp 12 +
STACK CFI 462e $ebx: $ebx .cfa: $esp 8 +
STACK CFI 462f $esi: $esi .cfa: $esp 4 +
STACK CFI 4630 $ebx: .cfa -12 + ^ $esi: .cfa -8 + ^ .cfa: $esp 32 +
STACK CFI 4648 .cfa: $esp 12 +
STACK CFI 4649 $ebx: $ebx .cfa: $esp 8 +
STACK CFI 464a $esi: $esi .cfa: $esp 4 +
STACK CFI 4650 $ebx: .cfa -12 + ^ $esi: .cfa -8 + ^ .cfa: $esp 32 +
STACK CFI 4653 .cfa: $esp 12 +
STACK CFI 4654 $ebx: $ebx .cfa: $esp 8 +
STACK CFI 4655 $esi: $esi .cfa: $esp 4 +
STACK CFI 465a $ebx: .cfa -12 + ^ $esi: .cfa -8 + ^ .cfa: $esp 32 +
STACK CFI INIT 4670 8a .cfa: $esp 4 + .ra: .cfa -4 + ^
STACK CFI 4671 $esi: .cfa -8 + ^ .cfa: $esp 8 +
STACK CFI 4672 $ebx: .cfa -12 + ^ .cfa: $esp 12 +
STACK CFI 4675 .cfa: $esp 32 +
STACK CFI 46c5 .cfa: $esp 12 +
STACK CFI 46c6 $ebx: $ebx .cfa: $esp 8 +
STACK CFI 46c7 $esi: $esi .cfa: $esp 4 +
STACK CFI 46d0 $ebx: .cfa -12 + ^ $esi: .cfa -8 + ^ .cfa: $esp 32 +
STACK CFI 46e9 .cfa: $esp 24 +
STACK CFI 46f3 .cfa: $esp 32 +
STACK CFI INIT 4700 3c1 .cfa: $esp 4 + .ra: .cfa -4 + ^
STACK CFI 4701 $ebp: .cfa -8 + ^ .cfa: $esp 8 +
STACK CFI 4707 .cfa: $esp 192 +
STACK CFI 4789 .cfa: $esp 8 +
STACK CFI 478a $ebp: $ebp .cfa: $esp 4 +
STACK CFI 4790 $ebp: .cfa -8 + ^ .cfa: $esp 192 +
STACK CFI 47e4 .cfa: $esp 184 +
STACK CFI 47e7 .cfa: $esp 192 +
STACK CFI INIT 4ad0 da .cfa: $esp 4 + .ra: .cfa -4 + ^
STACK CFI 4ad3 .cfa: $esp 32 +
STACK CFI 4b13 .cfa: $esp 24 +
STACK CFI 4b16 .cfa: $esp 32 +
STACK CFI 4b51 .cfa: $esp 4 +
STACK CFI 4b52 .cfa: $esp 32 +
STACK CFI 4b6b .cfa: $esp 24 +
STACK CFI 4b6e .cfa: $esp 32 +
STACK CFI 4ba9 .cfa: $esp 4 +
STACK CFI INIT 4bb0 94 .cfa: $esp 4 + .ra: .cfa -4 + ^
STACK CFI 4bb1 $ebx: .cfa -8 + ^ .cfa: $esp 8 +
STACK CFI 4bb4 .cfa: $esp 48 +
STACK CFI 4bd7 .cfa: $esp 40 +
STACK CFI 4bda .cfa: $esp 48 +
STACK CFI 4bdd .cfa: $esp 8 +
STACK CFI 4bde $ebx: $ebx .cfa: $esp 4 +
STACK CFI 4be0 $ebx: .cfa -8 + ^ .cfa: $esp 48 +
STACK CFI 4c42 .cfa: $esp 8 +
STACK CFI 4c43 $ebx: $ebx .cfa: $esp 4 +
STACK CFI INIT 4c50 c2 .cfa: $esp 4 + .ra: .cfa -4 + ^
STACK CFI 4c53 .cfa: $esp 32 +
STACK CFI 4cb7 .cfa: $esp 4 +
STACK CFI 4cc0 .cfa: $esp 32 +
STACK CFI 4ce3 .cfa: $esp 24 +
STACK CFI 4ceb .cfa: $esp 32 +
STACK CFI INIT 4d20 392 .cfa: $esp 4 + .ra: .cfa -4 + ^
STACK CFI 4d23 .cfa: $esp 64 +
STACK CFI 5065 .cfa: $esp 56 +
STACK CFI 5068 .cfa: $esp 64 +
STACK CFI 5070 .cfa: $esp 4 +
STACK CFI 5071 .cfa: $esp 64 +
STACK CFI INIT 50c0 181 .cfa: $esp 4 + .ra: .cfa -4 + ^
STACK CFI 50c1 $ebp: .cfa -8 + ^ .cfa: $esp 8 +
STACK CFI 50c2 $edi: .cfa -12 + ^ .cfa: $esp 12 +
STACK CFI 50c8 $esi: .cfa -16 + ^ .cfa: $esp 16 +
STACK CFI 50c9 $ebx: .cfa -20 + ^ .cfa: $esp 20 +
STACK CFI 50d0 .cfa: $esp 16432 +
STACK CFI 517b .cfa: $esp 16424 +
STACK CFI 517e .cfa: $esp 16432 +
STACK CFI 51db .cfa: $esp 16420 +
STACK CFI 51e1 .cfa: $esp 16432 +
STACK CFI 51ef .cfa: $esp 20 +
STACK CFI 51f0 $ebx: $ebx .cfa: $esp 16 +
STACK CFI 51f1 $esi: $esi .cfa: $esp 12 +
STACK CFI 51f2 $edi: $edi .cfa: $esp 8 +
STACK CFI 51f3 $ebp: $ebp .cfa: $esp 4 +
STACK CFI 51f4 $ebp: .cfa -8 + ^ $ebx: .cfa -20 + ^ $edi: .cfa -12 + ^ $esi: .cfa -16 + ^ .cfa: $esp 16432 +
STACK CFI 5233 .cfa: $esp 16424 +
STACK CFI 5236 .cfa: $esp 16432 +
STACK CFI 523c .cfa: $esp 20 +
STACK CFI 523d $ebx: $ebx .cfa: $esp 16 +
STACK CFI 523e $esi: $esi .cfa: $esp 12 +
STACK CFI 523f $edi: $edi .cfa: $esp 8 +
STACK CFI 5240 $ebp: $ebp .cfa: $esp 4 +
STACK CFI INIT 5250 388 .cfa: $esp 4 + .ra: .cfa -4 + ^
STACK CFI 5251 $esi: .cfa -8 + ^ .cfa: $esp 8 +
STACK CFI 5256 $ebx: .cfa -12 + ^ .cfa: $esp 12 +
STACK CFI 525e .cfa: $esp 48 +
STACK CFI 5298 .cfa: $esp 32 +
STACK CFI 529b .cfa: $esp 48 +
STACK CFI 52b4 .cfa: $esp 40 +
STACK CFI 52bb .cfa: $esp 48 +
STACK CFI 52f6 .cfa: $esp 32 +
STACK CFI 52fd .cfa: $esp 48 +
STACK CFI 5338 .cfa: $esp 32 +
STACK CFI 5340 .cfa: $esp 48 +
STACK CFI 5383 .cfa: $esp 32 +
STACK CFI 5386 .cfa: $esp 48 +
STACK CFI 53c5 .cfa: $esp 32 +
STACK CFI 53c8 .cfa: $esp 48 +
STACK CFI 53e1 .cfa: $esp 40 +
STACK CFI 53e8 .cfa: $esp 48 +
STACK CFI 5423 .cfa: $esp 32 +
STACK CFI 542a .cfa: $esp 48 +
STACK CFI 5465 .cfa: $esp 32 +
STACK CFI 546d .cfa: $esp 48 +
STACK CFI 54b0 .cfa: $esp 32 +
STACK CFI 54b3 .cfa: $esp 48 +
STACK CFI 54f2 .cfa: $esp 32 +
STACK CFI 54f5 .cfa: $esp 48 +
STACK CFI 550e .cfa: $esp 40 +
STACK CFI 551c .cfa: $esp 48 +
STACK CFI 555b .cfa: $esp 32 +
STACK CFI 5564 .cfa: $esp 48 +
STACK CFI 55cf .cfa: $esp 32 +
STACK CFI 55d2 .cfa: $esp 48 +
STACK CFI 55d5 .cfa: $esp 12 +
STACK CFI 55d6 $ebx: $ebx .cfa: $esp 8 +
STACK CFI 55d7 $esi: $esi .cfa: $esp 4 +
STACK CFI INIT 55e0 89 .cfa: $esp 4 + .ra: .cfa -4 + ^
STACK CFI 55e1 $ebx: .cfa -8 + ^ .cfa: $esp 8 +
STACK CFI 55e4 .cfa: $esp 96 +
STACK CFI 5638 .cfa: $esp 8 +
STACK CFI 5639 $ebx: $ebx .cfa: $esp 4 +
STACK CFI 5640 $ebx: .cfa -8 + ^ .cfa: $esp 96 +
STACK CFI 5661 .cfa: $esp 84 +
STACK CFI 5664 .cfa: $esp 96 +
STACK CFI 5667 .cfa: $esp 8 +
STACK CFI 5668 $ebx: $ebx .cfa: $esp 4 +
STACK CFI INIT 5670 35 .cfa: $esp 4 + .ra: .cfa -4 + ^
STACK CFI 5683 .cfa: $esp 32 +
STACK CFI 56a4 .cfa: $esp 4 +
STACK CFI INIT 56b0 12 .cfa: $esp 4 + .ra: .cfa -4 + ^
STACK CFI INIT 56d0 a1 .cfa: $esp 4 + .ra: .cfa -4 + ^
STACK CFI 56d1 $ebx: .cfa -8 + ^ .cfa: $esp 8 +
STACK CFI 56d4 .cfa: $esp 96 +
STACK CFI 56f5 .cfa: $esp 8 +
STACK CFI 56f6 $ebx: $ebx .cfa: $esp 4 +
STACK CFI 5700 $ebx: .cfa -8 + ^ .cfa: $esp 96 +
STACK CFI 5759 .cfa: $esp 84 +
STACK CFI 575c .cfa: $esp 96 +
STACK CFI 576f .cfa: $esp 8 +
STACK CFI 5770 $ebx: $ebx .cfa: $esp 4 +
STACK CFI INIT 5780 c4 .cfa: $esp 4 + .ra: .cfa -4 + ^
STACK CFI 5781 $esi: .cfa -8 + ^ .cfa: $esp 8 +
STACK CFI 5782 $ebx: .cfa -12 + ^ .cfa: $esp 12 +
STACK CFI 5787 .cfa: $esp 96 +
STACK CFI 57ec .cfa: $esp 12 +
STACK CFI 57ed $ebx: $ebx .cfa: $esp 8 +
STACK CFI 57ee $esi: $esi .cfa: $esp 4 +
STACK CFI 57f0 $ebx: .cfa -12 + ^ $esi: .cfa -8 + ^ .cfa: $esp 96 +
STACK CFI 5827 .cfa: $esp 84 +
STACK CFI 582a .cfa: $esp 96 +
STACK CFI INIT 5850 1721 .cfa: $esp 4 + .ra: .cfa -4 + ^
STACK CFI 5851 $ebp: .cfa -8 + ^ .cfa: $esp 8 +
STACK CFI 5858 .cfa: $ebp 8 +
STACK CFI 5861 $ebx: .cfa -16 + ^ $esi: .cfa -12 + ^
STACK CFI 5d0b $ebx: $ebx
STACK CFI 5d0c $esi: $esi
STACK CFI 5d0d $ebp: $ebp .cfa: $esp 4 +
STACK CFI 5d10 $ebp: .cfa -8 + ^ $ebx: .cfa -16 + ^ $esi: .cfa -12 + ^ .cfa: $ebp 8 +
STACK CFI INIT 6f80 e3 .cfa: $esp 4 + .ra: .cfa -4 + ^
STACK CFI 6f81 $ebx: .cfa -8 + ^ .cfa: $esp 8 +
STACK CFI 6f84 .cfa: $esp 32 +
STACK CFI 6fbc .cfa: $esp 8 +
STACK CFI 6fbd $ebx: $ebx .cfa: $esp 4 +
STACK CFI 6fc0 $ebx: .cfa -8 + ^ .cfa: $esp 32 +
STACK CFI 6fe0 .cfa: $esp 8 +
STACK CFI 6fe1 $ebx: $ebx .cfa: $esp 4 +
STACK CFI 6fe2 $ebx: .cfa -8 + ^ .cfa: $esp 32 +
STACK CFI 7052 .cfa: $esp 20 +
STACK CFI 7055 .cfa: $esp 32 +
STACK CFI 7061 .cfa: $esp 8 +
STACK CFI 7062 $ebx: $ebx .cfa: $esp 4 +
STACK CFI INIT 7070 73e .cfa: $esp 4 + .ra: .cfa -4 + ^
STACK CFI 7071 $ebp: .cfa -8 + ^ .cfa: $esp 8 +
STACK CFI 7073 .cfa: $ebp 8 +
STACK CFI 707e $ebx: .cfa -16 + ^ $esi: .cfa -12 + ^
STACK CFI 7302 $ebx: $ebx
STACK CFI 7303 $esi: $esi
STACK CFI 7304 $ebp: $ebp .cfa: $esp 4 +
STACK CFI 7305 $ebp: .cfa -8 + ^ $ebx: .cfa -16 + ^ $esi: .cfa -12 + ^ .cfa: $ebp 8 +
STACK CFI INIT 216370 6ef .cfa: $esp 4 + .ra: .cfa -4 + ^
STACK CFI 216371 $ebp: .cfa -8 + ^ .cfa: $esp 8 +
STACK CFI 216373 .cfa: $ebp 8 +
STACK CFI 21699e $ebp: $ebp .cfa: $esp 4 +
STACK CFI 21699f $ebp: .cfa -8 + ^ .cfa: $ebp 8 +
STACK CFI INIT 216a60 5 .cfa: $esp 4 + .ra: .cfa -4 + ^
STACK CFI INIT 1e8330 67 .cfa: $esp 4 + .ra: .cfa -4 + ^
STACK CFI 1e8331 $ebx: .cfa -8 + ^ .cfa: $esp 8 +
STACK CFI 1e8339 .cfa: $esp 32 +
STACK CFI 1e8395 .cfa: $esp 8 +
STACK CFI 1e8396 $ebx: $ebx .cfa: $esp 4 +
STACK CFI INIT 1eae10 a4 .cfa: $esp 4 + .ra: .cfa -4 + ^
STACK CFI 1eae11 $esi: .cfa -8 + ^ .cfa: $esp 8 +
STACK CFI 1eae12 $ebx: .cfa -12 + ^ .cfa: $esp 12 +
STACK CFI 1eae17 .cfa: $esp 96 +
STACK CFI 1eaeb1 .cfa: $esp 12 +
STACK CFI 1eaeb2 $ebx: $ebx .cfa: $esp 8 +
STACK CFI 1eaeb3 $esi: $esi .cfa: $esp 4 +
STACK CFI INIT 1e9340 55 .cfa: $esp 4 + .ra: .cfa -4 + ^
STACK CFI 1e9341 $ebx: .cfa -8 + ^ .cfa: $esp 8 +
STACK CFI 1e9349 .cfa: $esp 32 +
STACK CFI 1e9393 .cfa: $esp 8 +
STACK CFI 1e9394 $ebx: $ebx .cfa: $esp 4 +
STACK CFI INIT 1e8b00 55 .cfa: $esp 4 + .ra: .cfa -4 + ^
STACK CFI 1e8b01 $ebx: .cfa -8 + ^ .cfa: $esp 8 +
STACK CFI 1e8b09 .cfa: $esp 32 +
STACK CFI 1e8b53 .cfa: $esp 8 +
STACK CFI 1e8b54 $ebx: $ebx .cfa: $esp 4 +
STACK CFI INIT 1e8b60 4d .cfa: $esp 4 + .ra: .cfa -4 + ^
STACK CFI 1e8b61 $ebx: .cfa -8 + ^ .cfa: $esp 8 +
STACK CFI 1e8b69 .cfa: $esp 32 +
STACK CFI 1e8bab .cfa: $esp 8 +
STACK CFI 1e8bac $ebx: $ebx .cfa: $esp 4 +
STACK CFI INIT 1e93a0 4d .cfa: $esp 4 + .ra: .cfa -4 + ^
STACK CFI 1e93a1 $ebx: .cfa -8 + ^ .cfa: $esp 8 +
STACK CFI 1e93a9 .cfa: $esp 32 +
STACK CFI 1e93eb .cfa: $esp 8 +
STACK CFI 1e93ec $ebx: $ebx .cfa: $esp 4 +
STACK CFI INIT 1eaec0 9c .cfa: $esp 4 + .ra: .cfa -4 + ^
STACK CFI 1eaec1 $esi: .cfa -8 + ^ .cfa: $esp 8 +
STACK CFI 1eaec2 $ebx: .cfa -12 + ^ .cfa: $esp 12 +
STACK CFI 1eaec7 .cfa: $esp 96 +
STACK CFI 1eaf59 .cfa: $esp 12 +
STACK CFI 1eaf5a $ebx: $ebx .cfa: $esp 8 +
STACK CFI 1eaf5b $esi: $esi .cfa: $esp 4 +
STACK CFI INIT 1e83a0 5f .cfa: $esp 4 + .ra: .cfa -4 + ^
STACK CFI 1e83a1 $ebx: .cfa -8 + ^ .cfa: $esp 8 +
STACK CFI 1e83a9 .cfa: $esp 32 +
STACK CFI 1e83fd .cfa: $esp 8 +
STACK CFI 1e83fe $ebx: $ebx .cfa: $esp 4 +
STACK CFI INIT 15be40 98 .cfa: $esp 4 + .ra: .cfa -4 + ^
STACK CFI 15be41 $ebx: .cfa -8 + ^ .cfa: $esp 8 +
STACK CFI 15be44 .cfa: $esp 32 +
STACK CFI 15be89 .cfa: $esp 24 +
STACK CFI 15be8c .cfa: $esp 32 +
STACK CFI 15be8f .cfa: $esp 8 +
STACK CFI 15be90 $ebx: $ebx .cfa: $esp 4 +
STACK CFI 15be91 $ebx: .cfa -8 + ^ .cfa: $esp 32 +
STACK CFI 15bea8 .cfa: $esp 8 +
STACK CFI 15bea9 $ebx: $ebx .cfa: $esp 4 +
STACK CFI 15beb0 $ebx: .cfa -8 + ^ .cfa: $esp 32 +
STACK CFI 15beb8 .cfa: $esp 28 +
STACK CFI 15bebb .cfa: $esp 32 +
STACK CFI 15bebe .cfa: $esp 8 +
STACK CFI 15bebf $ebx: $ebx .cfa: $esp 4 +
STACK CFI 15bec0 $ebx: .cfa -8 + ^ .cfa: $esp 32 +
STACK CFI 15bed3 .cfa: $esp 28 +
STACK CFI 15bed6 .cfa: $esp 32 +
STACK CFI INIT 15bd00 98 .cfa: $esp 4 + .ra: .cfa -4 + ^
STACK CFI 15bd01 $ebx: .cfa -8 + ^ .cfa: $esp 8 +
STACK CFI 15bd04 .cfa: $esp 32 +
STACK CFI 15bd49 .cfa: $esp 24 +
STACK CFI 15bd4c .cfa: $esp 32 +
STACK CFI 15bd4f .cfa: $esp 8 +
STACK CFI 15bd50 $ebx: $ebx .cfa: $esp 4 +
STACK CFI 15bd51 $ebx: .cfa -8 + ^ .cfa: $esp 32 +
STACK CFI 15bd68 .cfa: $esp 8 +
STACK CFI 15bd69 $ebx: $ebx .cfa: $esp 4 +
STACK CFI 15bd70 $ebx: .cfa -8 + ^ .cfa: $esp 32 +
STACK CFI 15bd78 .cfa: $esp 28 +
STACK CFI 15bd7b .cfa: $esp 32 +
STACK CFI 15bd7e .cfa: $esp 8 +
STACK CFI 15bd7f $ebx: $ebx .cfa: $esp 4 +
STACK CFI 15bd80 $ebx: .cfa -8 + ^ .cfa: $esp 32 +
STACK CFI 15bd93 .cfa: $esp 28 +
STACK CFI 15bd96 .cfa: $esp 32 +
STACK CFI INIT 1679b0 ca .cfa: $esp 4 + .ra: .cfa -4 + ^
STACK CFI 1679b1 $ebp: .cfa -8 + ^ .cfa: $esp 8 +
STACK CFI 1679b4 .cfa: $esp 128 +
STACK CFI 167a0c .cfa: $esp 120 +
STACK CFI 167a0f .cfa: $esp 128 +
STACK CFI 167a46 .cfa: $esp 8 +
STACK CFI 167a49 $ebp: $ebp .cfa: $esp 4 +
STACK CFI 167a4a $ebp: .cfa -8 + ^ .cfa: $esp 128 +
STACK CFI INIT 167b50 ca .cfa: $esp 4 + .ra: .cfa -4 + ^
STACK CFI 167b51 $ebp: .cfa -8 + ^ .cfa: $esp 8 +
STACK CFI 167b54 .cfa: $esp 128 +
STACK CFI 167bac .cfa: $esp 120 +
STACK CFI 167baf .cfa: $esp 128 +
STACK CFI 167be6 .cfa: $esp 8 +
STACK CFI 167be9 $ebp: $ebp .cfa: $esp 4 +
STACK CFI 167bea $ebp: .cfa -8 + ^ .cfa: $esp 128 +
STACK CFI INIT 167f70 ca .cfa: $esp 4 + .ra: .cfa -4 + ^
STACK CFI 167f71 $ebp: .cfa -8 + ^ .cfa: $esp 8 +
STACK CFI 167f74 .cfa: $esp 128 +
STACK CFI 167fcc .cfa: $esp 120 +
STACK CFI 167fcf .cfa: $esp 128 +
STACK CFI 168006 .cfa: $esp 8 +
STACK CFI 168009 $ebp: $ebp .cfa: $esp 4 +
STACK CFI 16800a $ebp: .cfa -8 + ^ .cfa: $esp 128 +
STACK CFI INIT 168040 ca .cfa: $esp 4 + .ra: .cfa -4 + ^
STACK CFI 168041 $ebp: .cfa -8 + ^ .cfa: $esp 8 +
STACK CFI 168044 .cfa: $esp 128 +
STACK CFI 16809c .cfa: $esp 120 +
STACK CFI 16809f .cfa: $esp 128 +
STACK CFI 1680d6 .cfa: $esp 8 +
STACK CFI 1680d9 $ebp: $ebp .cfa: $esp 4 +
STACK CFI 1680da $ebp: .cfa -8 + ^ .cfa: $esp 128 +
STACK CFI INIT 1e8f90 2b .cfa: $esp 4 + .ra: .cfa -4 + ^
STACK CFI 1e8f91 $ebx: .cfa -8 + ^ .cfa: $esp 8 +
STACK CFI 1e8f99 .cfa: $esp 32 +
STACK CFI 1e8faf .cfa: $esp 24 +
STACK CFI 1e8fb2 .cfa: $esp 32 +
STACK CFI 1e8fb7 .cfa: $esp 8 +
STACK CFI 1e8fb8 $ebx: $ebx .cfa: $esp 4 +
STACK CFI INIT 1e7d90 2b .cfa: $esp 4 + .ra: .cfa -4 + ^
STACK CFI 1e7d91 $ebx: .cfa -8 + ^ .cfa: $esp 8 +
STACK CFI 1e7d99 .cfa: $esp 32 +
STACK CFI 1e7daf .cfa: $esp 24 +
STACK CFI 1e7db2 .cfa: $esp 32 +
STACK CFI 1e7db7 .cfa: $esp 8 +
STACK CFI 1e7db8 $ebx: $ebx .cfa: $esp 4 +
STACK CFI INIT 1e87e0 2b .cfa: $esp 4 + .ra: .cfa -4 + ^
STACK CFI 1e87e1 $ebx: .cfa -8 + ^ .cfa: $esp 8 +
STACK CFI 1e87e9 .cfa: $esp 32 +
STACK CFI 1e87ff .cfa: $esp 24 +
STACK CFI 1e8802 .cfa: $esp 32 +
STACK CFI 1e8807 .cfa: $esp 8 +
STACK CFI 1e8808 $ebx: $ebx .cfa: $esp 4 +
STACK CFI INIT 1e90c0 33 .cfa: $esp 4 + .ra: .cfa -4 + ^
STACK CFI 1e90c1 $ebx: .cfa -8 + ^ .cfa: $esp 8 +
STACK CFI 1e90cc .cfa: $esp 32 +
STACK CFI 1e90e7 .cfa: $esp 24 +
STACK CFI 1e90ea .cfa: $esp 32 +
STACK CFI 1e90ef .cfa: $esp 8 +
STACK CFI 1e90f0 $ebx: $ebx .cfa: $esp 4 +
STACK CFI INIT 1e7f80 33 .cfa: $esp 4 + .ra: .cfa -4 + ^
STACK CFI 1e7f81 $ebx: .cfa -8 + ^ .cfa: $esp 8 +
STACK CFI 1e7f8c .cfa: $esp 32 +
STACK CFI 1e7fa7 .cfa: $esp 24 +
STACK CFI 1e7faa .cfa: $esp 32 +
STACK CFI 1e7faf .cfa: $esp 8 +
STACK CFI 1e7fb0 $ebx: $ebx .cfa: $esp 4 +
STACK CFI INIT 1e88c0 33 .cfa: $esp 4 + .ra: .cfa -4 + ^
STACK CFI 1e88c1 $ebx: .cfa -8 + ^ .cfa: $esp 8 +
STACK CFI 1e88cc .cfa: $esp 32 +
STACK CFI 1e88e7 .cfa: $esp 24 +
STACK CFI 1e88ea .cfa: $esp 32 +
STACK CFI 1e88ef .cfa: $esp 8 +
STACK CFI 1e88f0 $ebx: $ebx .cfa: $esp 4 +
STACK CFI INIT 1616b0 619 .cfa: $esp 4 + .ra: .cfa -4 + ^
STACK CFI 1616b1 $ebp: .cfa -8 + ^ .cfa: $esp 8 +
STACK CFI 1616b3 .cfa: $ebp 8 +
STACK CFI 1616be $ebx: .cfa -16 + ^ $esi: .cfa -12 + ^
STACK CFI 16199a $ebx: $ebx
STACK CFI 16199b $esi: $esi
STACK CFI 16199c $ebp: $ebp .cfa: $esp 4 +
STACK CFI 1619a0 $ebp: .cfa -8 + ^ $ebx: .cfa -16 + ^ $esi: .cfa -12 + ^ .cfa: $ebp 8 +
STACK CFI INIT 161000 6a9 .cfa: $esp 4 + .ra: .cfa -4 + ^
STACK CFI 161001 $ebp: .cfa -8 + ^ .cfa: $esp 8 +
STACK CFI 161003 .cfa: $ebp 8 +
STACK CFI 16100e $ebx: .cfa -16 + ^ $esi: .cfa -12 + ^
STACK CFI 1613e6 $ebx: $ebx
STACK CFI 1613e7 $esi: $esi
STACK CFI 1613e8 $ebp: $ebp .cfa: $esp 4 +
STACK CFI 1613f0 $ebp: .cfa -8 + ^ $ebx: .cfa -16 + ^ $esi: .cfa -12 + ^ .cfa: $ebp 8 +
STACK CFI INIT 163580 659 .cfa: $esp 4 + .ra: .cfa -4 + ^
STACK CFI 163581 $ebp: .cfa -8 + ^ .cfa: $esp 8 +
STACK CFI 163583 .cfa: $ebp 8 +
STACK CFI 16358e $ebx: .cfa -16 + ^ $esi: .cfa -12 + ^
STACK CFI 163869 $ebx: $ebx
STACK CFI 16386a $esi: $esi
STACK CFI 16386b $ebp: $ebp .cfa: $esp 4 +
STACK CFI 163870 $ebp: .cfa -8 + ^ $ebx: .cfa -16 + ^ $esi: .cfa -12 + ^ .cfa: $ebp 8 +
STACK CFI INIT 163c40 649 .cfa: $esp 4 + .ra: .cfa -4 + ^
STACK CFI 163c41 $ebp: .cfa -8 + ^ .cfa: $esp 8 +
STACK CFI 163c43 .cfa: $ebp 8 +
STACK CFI 163c4e $ebx: .cfa -16 + ^ $esi: .cfa -12 + ^
STACK CFI 163f1f $ebx: $ebx
STACK CFI 163f20 $esi: $esi
STACK CFI 163f21 $ebp: $ebp .cfa: $esp 4 +
STACK CFI 163f22 $ebp: .cfa -8 + ^ $ebx: .cfa -16 + ^ $esi: .cfa -12 + ^ .cfa: $ebp 8 +
STACK CFI INIT 1eb0c0 35 .cfa: $esp 4 + .ra: .cfa -4 + ^
STACK CFI 1eb0c1 $ebx: .cfa -8 + ^ .cfa: $esp 8 +
STACK CFI 1eb0c9 .cfa: $esp 32 +
STACK CFI 1eb0f3 .cfa: $esp 8 +
STACK CFI 1eb0f4 $ebx: $ebx .cfa: $esp 4 +
STACK CFI INIT 1a5be0 15f .cfa: $esp 4 + .ra: .cfa -4 + ^
STACK CFI 1a5be1 $ebp: .cfa -8 + ^ .cfa: $esp 8 +
STACK CFI 1a5be3 .cfa: $ebp 8 +
STACK CFI 1a5c38 $ebp: $ebp .cfa: $esp 4 +
STACK CFI 1a5c40 $ebp: .cfa -8 + ^ .cfa: $ebp 8 +
STACK CFI 1a5cef $ebp: $ebp .cfa: $esp 4 +
STACK CFI 1a5cf2 $ebp: .cfa -8 + ^ .cfa: $ebp 8 +
STACK CFI INIT 1c26c0 11bc .cfa: $esp 4 + .ra: .cfa -4 + ^
STACK CFI 1c26c1 $ebp: .cfa -8 + ^ .cfa: $esp 8 +
STACK CFI 1c26c3 .cfa: $ebp 8 +
STACK CFI 1c26ce $ebx: .cfa -16 + ^ $esi: .cfa -12 + ^
STACK CFI 1c273e $ebx: $ebx
STACK CFI 1c273f $esi: $esi
STACK CFI 1c2740 $ebp: $ebp .cfa: $esp 4 +
STACK CFI 1c2743 $ebp: .cfa -8 + ^ $ebx: .cfa -16 + ^ $esi: .cfa -12 + ^ .cfa: $ebp 8 +
STACK CFI INIT 1dbc70 11d2 .cfa: $esp 4 + .ra: .cfa -4 + ^
STACK CFI 1dbc71 $ebp: .cfa -8 + ^ .cfa: $esp 8 +
STACK CFI 1dbc73 .cfa: $ebp 8 +
STACK CFI 1dbc7e $ebx: .cfa -16 + ^ $esi: .cfa -12 + ^
STACK CFI 1dbcee $ebx: $ebx
STACK CFI 1dbcef $esi: $esi
STACK CFI 1dbcf0 $ebp: $ebp .cfa: $esp 4 +
STACK CFI 1dbcf3 $ebp: .cfa -8 + ^ $ebx: .cfa -16 + ^ $esi: .cfa -12 + ^ .cfa: $ebp 8 +
STACK CFI INIT 1ca580 11bc .cfa: $esp 4 + .ra: .cfa -4 + ^
STACK CFI 1ca581 $ebp: .cfa -8 + ^ .cfa: $esp 8 +
STACK CFI 1ca583 .cfa: $ebp 8 +
STACK CFI 1ca58e $ebx: .cfa -16 + ^ $esi: .cfa -12 + ^
STACK CFI 1ca5fe $ebx: $ebx
STACK CFI 1ca5ff $esi: $esi
STACK CFI 1ca600 $ebp: $ebp .cfa: $esp 4 +
STACK CFI 1ca603 $ebp: .cfa -8 + ^ $ebx: .cfa -16 + ^ $esi: .cfa -12 + ^ .cfa: $ebp 8 +
STACK CFI INIT 1c0300 11bc .cfa: $esp 4 + .ra: .cfa -4 + ^
STACK CFI 1c0301 $ebp: .cfa -8 + ^ .cfa: $esp 8 +
STACK CFI 1c0303 .cfa: $ebp 8 +
STACK CFI 1c030e $ebx: .cfa -16 + ^ $esi: .cfa -12 + ^
STACK CFI 1c037e $ebx: $ebx
STACK CFI 1c037f $esi: $esi
STACK CFI 1c0380 $ebp: $ebp .cfa: $esp 4 +
STACK CFI 1c0383 $ebp: .cfa -8 + ^ $ebx: .cfa -16 + ^ $esi: .cfa -12 + ^ .cfa: $ebp 8 +
STACK CFI INIT 1da6c0 12a2 .cfa: $esp 4 + .ra: .cfa -4 + ^
STACK CFI 1da6c1 $ebp: .cfa -8 + ^ .cfa: $esp 8 +
STACK CFI 1da6c3 .cfa: $ebp 8 +
STACK CFI 1da6ce $ebx: .cfa -16 + ^ $esi: .cfa -12 + ^
STACK CFI 1da73e $ebx: $ebx
STACK CFI 1da73f $esi: $esi
STACK CFI 1da740 $ebp: $ebp .cfa: $esp 4 +
STACK CFI 1da743 $ebp: .cfa -8 + ^ $ebx: .cfa -16 + ^ $esi: .cfa -12 + ^ .cfa: $ebp 8 +
STACK CFI INIT 1d9480 1232 .cfa: $esp 4 + .ra: .cfa -4 + ^
STACK CFI 1d9481 $ebp: .cfa -8 + ^ .cfa: $esp 8 +
STACK CFI 1d9483 .cfa: $ebp 8 +
STACK CFI 1d948e $ebx: .cfa -16 + ^ $esi: .cfa -12 + ^
STACK CFI 1d94fe $ebx: $ebx
STACK CFI 1d94ff $esi: $esi
STACK CFI 1d9500 $ebp: $ebp .cfa: $esp 4 +
STACK CFI 1d9503 $ebp: .cfa -8 + ^ $ebx: .cfa -16 + ^ $esi: .cfa -12 + ^ .cfa: $ebp 8 +
STACK CFI INIT 1794e0 1033 .cfa: $esp 4 + .ra: .cfa -4 + ^
STACK CFI 1794e1 $ebp: .cfa -8 + ^ .cfa: $esp 8 +
STACK CFI 1794e3 .cfa: $ebp 8 +
STACK CFI 1794ef $ebx: .cfa -20 + ^ $edi: .cfa -12 + ^ $esi: .cfa -16 + ^
STACK CFI 179b05 $ebx: $ebx
STACK CFI 179b06 $esi: $esi
STACK CFI 179b07 $edi: $edi
STACK CFI 179b08 $ebp: $ebp .cfa: $esp 4 +
STACK CFI 179b10 $ebp: .cfa -8 + ^ $ebx: .cfa -20 + ^ $edi: .cfa -12 + ^ $esi: .cfa -16 + ^ .cfa: $ebp 8 +
STACK CFI INIT 1d51d0 153 .cfa: $esp 4 + .ra: .cfa -4 + ^
STACK CFI 1d51d1 $ebp: .cfa -8 + ^ .cfa: $esp 8 +
STACK CFI 1d51d3 .cfa: $ebp 8 +
STACK CFI 1d5228 $ebp: $ebp .cfa: $esp 4 +
STACK CFI 1d5230 $ebp: .cfa -8 + ^ .cfa: $ebp 8 +
STACK CFI 1d52d3 $ebp: $ebp .cfa: $esp 4 +
STACK CFI 1d52d6 $ebp: .cfa -8 + ^ .cfa: $ebp 8 +
STACK CFI INIT 197e40 153 .cfa: $esp 4 + .ra: .cfa -4 + ^
STACK CFI 197e41 $ebp: .cfa -8 + ^ .cfa: $esp 8 +
STACK CFI 197e43 .cfa: $ebp 8 +
STACK CFI 197e98 $ebp: $ebp .cfa: $esp 4 +
STACK CFI 197ea0 $ebp: .cfa -8 + ^ .cfa: $ebp 8 +
STACK CFI 197f43 $ebp: $ebp .cfa: $esp 4 +
STACK CFI 197f46 $ebp: .cfa -8 + ^ .cfa: $ebp 8 +
STACK CFI INIT 170e20 1073 .cfa: $esp 4 + .ra: .cfa -4 + ^
STACK CFI 170e21 $ebp: .cfa -8 + ^ .cfa: $esp 8 +
STACK CFI 170e23 .cfa: $ebp 8 +
STACK CFI 170e2f $ebx: .cfa -20 + ^ $edi: .cfa -12 + ^ $esi: .cfa -16 + ^
STACK CFI 171487 $ebx: $ebx
STACK CFI 171488 $esi: $esi
STACK CFI 171489 $edi: $edi
STACK CFI 17148a $ebp: $ebp .cfa: $esp 4 +
STACK CFI 171490 $ebp: .cfa -8 + ^ $ebx: .cfa -20 + ^ $edi: .cfa -12 + ^ $esi: .cfa -16 + ^ .cfa: $ebp 8 +
STACK CFI INIT 1e8400 1a0 .cfa: $esp 4 + .ra: .cfa -4 + ^
STACK CFI 1e8401 $ebp: .cfa -8 + ^ .cfa: $esp 8 +
STACK CFI 1e8407 .cfa: $esp 160 +
STACK CFI 1e8486 .cfa: $esp 152 +
STACK CFI 1e8489 .cfa: $esp 160 +
STACK CFI 1e8520 .cfa: $esp 8 +
STACK CFI 1e8521 $ebp: $ebp .cfa: $esp 4 +
STACK CFI 1e8524 $ebp: .cfa -8 + ^ .cfa: $esp 160 +
STACK CFI 1e8542 .cfa: $esp 156 +
STACK CFI 1e8545 .cfa: $esp 160 +
STACK CFI INIT 1e8810 ae .cfa: $esp 4 + .ra: .cfa -4 + ^
STACK CFI 1e8811 $ebp: .cfa -8 + ^ .cfa: $esp 8 +
STACK CFI 1e8813 .cfa: $ebp 8 +
STACK CFI 1e8890 $ebp: $ebp .cfa: $esp 4 +
STACK CFI 1e8891 $ebp: .cfa -8 + ^ .cfa: $ebp 8 +
STACK CFI INIT 1eaa30 3d6 .cfa: $esp 4 + .ra: .cfa -4 + ^
STACK CFI 1eaa31 $ebp: .cfa -8 + ^ .cfa: $esp 8 +
STACK CFI 1eaa33 .cfa: $ebp 8 +
STACK CFI 1eaa3d $ebx: .cfa -12 + ^
STACK CFI 1eac8f $ebp: $ebp $ebx: $ebx .cfa: $esp 4 +
STACK CFI 1eac92 $ebp: .cfa -8 + ^ $ebx: .cfa -12 + ^ .cfa: $ebp 8 +
STACK CFI INIT 1e8900 200 .cfa: $esp 4 + .ra: .cfa -4 + ^
STACK CFI 1e8901 $ebp: .cfa -8 + ^ .cfa: $esp 8 +
STACK CFI 1e8903 .cfa: $ebp 8 +
STACK CFI 1e8a42 $ebp: $ebp .cfa: $esp 4 +
STACK CFI 1e8a45 $ebp: .cfa -8 + ^ .cfa: $ebp 8 +
STACK CFI INIT 1e7920 1a0 .cfa: $esp 4 + .ra: .cfa -4 + ^
STACK CFI 1e7921 $ebp: .cfa -8 + ^ .cfa: $esp 8 +
STACK CFI 1e7927 .cfa: $esp 160 +
STACK CFI 1e79a6 .cfa: $esp 152 +
STACK CFI 1e79a9 .cfa: $esp 160 +
STACK CFI 1e7a40 .cfa: $esp 8 +
STACK CFI 1e7a41 $ebp: $ebp .cfa: $esp 4 +
STACK CFI 1e7a44 $ebp: .cfa -8 + ^ .cfa: $esp 160 +
STACK CFI 1e7a62 .cfa: $esp 156 +
STACK CFI 1e7a65 .cfa: $esp 160 +
STACK CFI INIT 1e7fc0 36f .cfa: $esp 4 + .ra: .cfa -4 + ^
STACK CFI 1e7fc1 $ebp: .cfa -8 + ^ .cfa: $esp 8 +
STACK CFI 1e7fc3 .cfa: $ebp 8 +
STACK CFI 1e7fce $ebx: .cfa -16 + ^ $esi: .cfa -12 + ^
STACK CFI 1e81eb $ebx: $ebx
STACK CFI 1e81ec $esi: $esi
STACK CFI 1e81ed $ebp: $ebp .cfa: $esp 4 +
STACK CFI 1e81f0 $ebp: .cfa -8 + ^ $ebx: .cfa -16 + ^ $esi: .cfa -12 + ^ .cfa: $ebp 8 +
STACK CFI INIT 1e8bb0 1a0 .cfa: $esp 4 + .ra: .cfa -4 + ^
STACK CFI 1e8bb1 $ebp: .cfa -8 + ^ .cfa: $esp 8 +
STACK CFI 1e8bb7 .cfa: $esp 160 +
STACK CFI 1e8c36 .cfa: $esp 152 +
STACK CFI 1e8c39 .cfa: $esp 160 +
STACK CFI 1e8cd0 .cfa: $esp 8 +
STACK CFI 1e8cd1 $ebp: $ebp .cfa: $esp 4 +
STACK CFI 1e8cd4 $ebp: .cfa -8 + ^ .cfa: $esp 160 +
STACK CFI 1e8cf2 .cfa: $esp 156 +
STACK CFI 1e8cf5 .cfa: $esp 160 +
STACK CFI INIT 1e9100 23a .cfa: $esp 4 + .ra: .cfa -4 + ^
STACK CFI 1e9101 $ebp: .cfa -8 + ^ .cfa: $esp 8 +
STACK CFI 1e9103 .cfa: $ebp 8 +
STACK CFI 1e9270 $ebp: $ebp .cfa: $esp 4 +
STACK CFI 1e9273 $ebp: .cfa -8 + ^ .cfa: $ebp 8 +
STACK CFI INIT 16e7e0 1053 .cfa: $esp 4 + .ra: .cfa -4 + ^
STACK CFI 16e7e1 $ebp: .cfa -8 + ^ .cfa: $esp 8 +
STACK CFI 16e7e3 .cfa: $ebp 8 +
STACK CFI 16e7ef $ebx: .cfa -20 + ^ $edi: .cfa -12 + ^ $esi: .cfa -16 + ^
STACK CFI 16ee27 $ebx: $ebx
STACK CFI 16ee28 $esi: $esi
STACK CFI 16ee29 $edi: $edi
STACK CFI 16ee2a $ebp: $ebp .cfa: $esp 4 +
STACK CFI 16ee30 $ebp: .cfa -8 + ^ $ebx: .cfa -20 + ^ $edi: .cfa -12 + ^ $esi: .cfa -16 + ^ .cfa: $ebp 8 +
STACK CFI INIT 1e85a0 239 .cfa: $esp 4 + .ra: .cfa -4 + ^
STACK CFI 1e85a1 $ebp: .cfa -8 + ^ .cfa: $esp 8 +
STACK CFI 1e85a3 .cfa: $ebp 8 +
STACK CFI 1e85aa $ebx: .cfa -12 + ^
STACK CFI 1e86cc $ebp: $ebp $ebx: $ebx .cfa: $esp 4 +
STACK CFI 1e86d0 $ebp: .cfa -8 + ^ $ebx: .cfa -12 + ^ .cfa: $ebp 8 +
STACK CFI INIT 1ea930 fc .cfa: $esp 4 + .ra: .cfa -4 + ^
STACK CFI 1ea931 $ebp: .cfa -8 + ^ .cfa: $esp 8 +
STACK CFI 1ea934 .cfa: $esp 112 +
STACK CFI 1ea990 .cfa: $esp 100 +
STACK CFI 1ea993 .cfa: $esp 112 +
STACK CFI 1ea9e9 .cfa: $esp 8 +
STACK CFI 1ea9ea $ebp: $ebp .cfa: $esp 4 +
STACK CFI 1ea9ed $ebp: .cfa -8 + ^ .cfa: $esp 112 +
STACK CFI INIT 1e7ac0 2c7 .cfa: $esp 4 + .ra: .cfa -4 + ^
STACK CFI 1e7ac1 $ebp: .cfa -8 + ^ .cfa: $esp 8 +
STACK CFI 1e7ac3 .cfa: $ebp 8 +
STACK CFI 1e7acd $ebx: .cfa -12 + ^
STACK CFI 1e7c3a $ebp: $ebp $ebx: $ebx .cfa: $esp 4 +
STACK CFI 1e7c40 $ebp: .cfa -8 + ^ $ebx: .cfa -12 + ^ .cfa: $ebp 8 +
STACK CFI INIT 1e8d50 239 .cfa: $esp 4 + .ra: .cfa -4 + ^
STACK CFI 1e8d51 $ebp: .cfa -8 + ^ .cfa: $esp 8 +
STACK CFI 1e8d53 .cfa: $ebp 8 +
STACK CFI 1e8d5a $ebx: .cfa -12 + ^
STACK CFI 1e8e7c $ebp: $ebp $ebx: $ebx .cfa: $esp 4 +
STACK CFI 1e8e80 $ebp: .cfa -8 + ^ $ebx: .cfa -12 + ^ .cfa: $ebp 8 +
STACK CFI INIT 77b0 a .cfa: $esp 4 + .ra: .cfa -4 + ^
STACK CFI INIT 77c0 d .cfa: $esp 4 + .ra: .cfa -4 + ^
STACK CFI INIT 216a70 1d .cfa: $esp 4 + .ra: .cfa -4 + ^
STACK CFI 216a73 .cfa: $esp 32 +
STACK CFI 216a8c .cfa: $esp 4 +
STACK CFI INIT 77d0 a .cfa: $esp 4 + .ra: .cfa -4 + ^
STACK CFI INIT 77e0 16e .cfa: $esp 4 + .ra: .cfa -4 + ^
STACK CFI 77e1 $ebp: .cfa -8 + ^ .cfa: $esp 8 +
STACK CFI 77e4 .cfa: $esp 128 +
STACK CFI 78a0 .cfa: $esp 8 +
STACK CFI 78a1 $ebp: $ebp .cfa: $esp 4 +
STACK CFI 78a2 $ebp: .cfa -8 + ^ .cfa: $esp 128 +
STACK CFI 78c2 .cfa: $esp 120 +
STACK CFI 78c5 .cfa: $esp 128 +
STACK CFI INIT 7950 27 .cfa: $esp 4 + .ra: .cfa -4 + ^
STACK CFI 7953 .cfa: $esp 32 +
STACK CFI 7976 .cfa: $esp 4 +
STACK CFI INIT 7980 1b .cfa: $esp 4 + .ra: .cfa -4 + ^
STACK CFI 7983 .cfa: $esp 16 +
STACK CFI 799a .cfa: $esp 4 +
STACK CFI INIT 79a0 1e .cfa: $esp 4 + .ra: .cfa -4 + ^
STACK CFI 79a3 .cfa: $esp 16 +
STACK CFI 79bd .cfa: $esp 4 +
STACK CFI INIT 79c0 3c .cfa: $esp 4 + .ra: .cfa -4 + ^
STACK CFI 79c1 $esi: .cfa -8 + ^ .cfa: $esp 8 +
STACK CFI 79c2 $ebx: .cfa -12 + ^ .cfa: $esp 12 +
STACK CFI 79c5 .cfa: $esp 16 +
STACK CFI 79ec .cfa: $esp 12 +
STACK CFI 79ed $ebx: $ebx .cfa: $esp 8 +
STACK CFI 79ee $esi: $esi .cfa: $esp 4 +
STACK CFI 79f3 $ebx: .cfa -12 + ^ $esi: .cfa -8 + ^ .cfa: $esp 16 +
STACK CFI 79f9 .cfa: $esp 12 +
STACK CFI 79fa $ebx: $ebx .cfa: $esp 8 +
STACK CFI 79fb $esi: $esi .cfa: $esp 4 +
STACK CFI INIT 7a00 2d3 .cfa: $esp 4 + .ra: .cfa -4 + ^
STACK CFI 7a01 $ebp: .cfa -8 + ^ .cfa: $esp 8 +
STACK CFI 7a03 .cfa: $ebp 8 +
STACK CFI 7b78 $ebp: $ebp .cfa: $esp 4 +
STACK CFI 7b80 $ebp: .cfa -8 + ^ .cfa: $ebp 8 +
STACK CFI INIT 7ce0 19e .cfa: $esp 4 + .ra: .cfa -4 + ^
STACK CFI 7ce1 $ebp: .cfa -8 + ^ .cfa: $esp 8 +
STACK CFI 7ce4 .cfa: $esp 128 +
STACK CFI 7dcf .cfa: $esp 8 +
STACK CFI 7dd0 $ebp: $ebp .cfa: $esp 4 +
STACK CFI 7dd1 $ebp: .cfa -8 + ^ .cfa: $esp 128 +
STACK CFI 7df1 .cfa: $esp 120 +
STACK CFI 7df4 .cfa: $esp 128 +
STACK CFI INIT 7e80 269 .cfa: $esp 4 + .ra: .cfa -4 + ^
STACK CFI 7e81 $ebp: .cfa -8 + ^ .cfa: $esp 8 +
STACK CFI 7e83 .cfa: $ebp 8 +
STACK CFI 7f95 $ebp: $ebp .cfa: $esp 4 +
STACK CFI 7fa0 $ebp: .cfa -8 + ^ .cfa: $ebp 8 +
STACK CFI 800e $ebp: $ebp .cfa: $esp 4 +
STACK CFI 8010 $ebp: .cfa -8 + ^ .cfa: $ebp 8 +
STACK CFI INIT 80f0 62 .cfa: $esp 4 + .ra: .cfa -4 + ^
STACK CFI 80f1 $ebx: .cfa -8 + ^ .cfa: $esp 8 +
STACK CFI 80f8 .cfa: $esp 32 +
STACK CFI 8130 .cfa: $esp 8 +
STACK CFI 8131 $ebx: $ebx .cfa: $esp 4 +
STACK CFI 8140 $ebx: .cfa -8 + ^ .cfa: $esp 32 +
STACK CFI INIT 8160 c4 .cfa: $esp 4 + .ra: .cfa -4 + ^
STACK CFI 8161 $ebp: .cfa -8 + ^ .cfa: $esp 8 +
STACK CFI 8164 .cfa: $esp 128 +
STACK CFI 81f2 .cfa: $esp 8 +
STACK CFI 81f3 $ebp: $ebp .cfa: $esp 4 +
STACK CFI 81f4 $ebp: .cfa -8 + ^ .cfa: $esp 128 +
STACK CFI INIT 8230 e .cfa: $esp 4 + .ra: .cfa -4 + ^
STACK CFI INIT 216a90 1d .cfa: $esp 4 + .ra: .cfa -4 + ^
STACK CFI 216a93 .cfa: $esp 32 +
STACK CFI 216aac .cfa: $esp 4 +
STACK CFI INIT 1eb750 2 .cfa: $esp 4 + .ra: .cfa -4 + ^
STACK CFI INIT 17d8b0 2 .cfa: $esp 4 + .ra: .cfa -4 + ^
STACK CFI INIT 1ec740 2 .cfa: $esp 4 + .ra: .cfa -4 + ^
STACK CFI INIT 8240 2 .cfa: $esp 4 + .ra: .cfa -4 + ^
STACK CFI INIT 8250 a .cfa: $esp 4 + .ra: .cfa -4 + ^
STACK CFI INIT 8260 17 .cfa: $esp 4 + .ra: .cfa -4 + ^
STACK CFI 8263 .cfa: $esp 32 +
STACK CFI INIT 8280 64 .cfa: $esp 4 + .ra: .cfa -4 + ^
STACK CFI 8283 .cfa: $esp 32 +
STACK CFI 82a7 .cfa: $esp 4 +
STACK CFI 82a8 .cfa: $esp 32 +
STACK CFI INIT 82f0 a2 .cfa: $esp 4 + .ra: .cfa -4 + ^
STACK CFI 82f1 $edi: .cfa -8 + ^ .cfa: $esp 8 +
STACK CFI 82f2 $esi: .cfa -12 + ^ .cfa: $esp 12 +
STACK CFI 82f5 $ebx: .cfa -16 + ^ .cfa: $esp 16 +
STACK CFI 82f8 .cfa: $esp 48 +
STACK CFI 8331 .cfa: $esp 16 +
STACK CFI 8332 $ebx: $ebx .cfa: $esp 12 +
STACK CFI 8333 $esi: $esi .cfa: $esp 8 +
STACK CFI 8334 $edi: $edi .cfa: $esp 4 +
STACK CFI 8340 $ebx: .cfa -16 + ^ $edi: .cfa -8 + ^ $esi: .cfa -12 + ^ .cfa: $esp 48 +
STACK CFI 8356 .cfa: $esp 40 +
STACK CFI 8359 .cfa: $esp 48 +
STACK CFI INIT 216ab0 3c .cfa: $esp 4 + .ra: .cfa -4 + ^
STACK CFI 216ab1 $ebx: .cfa -8 + ^ .cfa: $esp 8 +
STACK CFI 216ab7 .cfa: $esp 48 +
STACK CFI 216ae2 .cfa: $esp 40 +
STACK CFI 216ae5 .cfa: $esp 48 +
STACK CFI 216ae8 .cfa: $esp 8 +
STACK CFI 216ae9 $ebx: $ebx .cfa: $esp 4 +
STACK CFI INIT 83a0 2 .cfa: $esp 4 + .ra: .cfa -4 + ^
STACK CFI INIT 83b0 2 .cfa: $esp 4 + .ra: .cfa -4 + ^
STACK CFI INIT 83c0 9a .cfa: $esp 4 + .ra: .cfa -4 + ^
STACK CFI 83c1 $ebp: .cfa -8 + ^ .cfa: $esp 8 +
STACK CFI 83c2 $edi: .cfa -12 + ^ .cfa: $esp 12 +
STACK CFI 83c3 $esi: .cfa -16 + ^ .cfa: $esp 16 +
STACK CFI 83c4 $ebx: .cfa -20 + ^ .cfa: $esp 20 +
STACK CFI 83cc .cfa: $esp 128 +
STACK CFI 8424 .cfa: $esp 124 +
STACK CFI 8427 .cfa: $esp 128 +
STACK CFI 8455 .cfa: $esp 20 +
STACK CFI 8456 $ebx: $ebx .cfa: $esp 16 +
STACK CFI 8457 $esi: $esi .cfa: $esp 12 +
STACK CFI 8458 $edi: $edi .cfa: $esp 8 +
STACK CFI 8459 $ebp: $ebp .cfa: $esp 4 +
STACK CFI INIT 8460 7b .cfa: $esp 4 + .ra: .cfa -4 + ^
STACK CFI 8461 $edi: .cfa -8 + ^ .cfa: $esp 8 +
STACK CFI 8462 $esi: .cfa -12 + ^ .cfa: $esp 12 +
STACK CFI 8463 $ebx: .cfa -16 + ^ .cfa: $esp 16 +
STACK CFI 8466 .cfa: $esp 32 +
STACK CFI 84d7 .cfa: $esp 16 +
STACK CFI 84d8 $ebx: $ebx .cfa: $esp 12 +
STACK CFI 84d9 $esi: $esi .cfa: $esp 8 +
STACK CFI 84da $edi: $edi .cfa: $esp 4 +
STACK CFI INIT 84e0 57 .cfa: $esp 4 + .ra: .cfa -4 + ^
STACK CFI 84e3 .cfa: $esp 32 +
STACK CFI 8536 .cfa: $esp 4 +
STACK CFI INIT 8540 6b .cfa: $esp 4 + .ra: .cfa -4 + ^
STACK CFI 8543 .cfa: $esp 32 +
STACK CFI 85aa .cfa: $esp 4 +
STACK CFI INIT 85b0 6b .cfa: $esp 4 + .ra: .cfa -4 + ^
STACK CFI 85b3 .cfa: $esp 32 +
STACK CFI 861a .cfa: $esp 4 +
STACK CFI INIT 8620 39 .cfa: $esp 4 + .ra: .cfa -4 + ^
STACK CFI 8621 $ebx: .cfa -8 + ^ .cfa: $esp 8 +
STACK CFI 8624 .cfa: $esp 32 +
STACK CFI 8657 .cfa: $esp 8 +
STACK CFI 8658 $ebx: $ebx .cfa: $esp 4 +
STACK CFI INIT 8660 40 .cfa: $esp 4 + .ra: .cfa -4 + ^
STACK CFI 8661 $ebx: .cfa -8 + ^ .cfa: $esp 8 +
STACK CFI 8666 .cfa: $esp 16 +
STACK CFI 8686 .cfa: $esp 8 +
STACK CFI 8687 $ebx: $ebx .cfa: $esp 4 +
STACK CFI 8690 $ebx: .cfa -8 + ^ .cfa: $esp 16 +
STACK CFI 869e .cfa: $esp 8 +
STACK CFI 869f $ebx: $ebx .cfa: $esp 4 +
STACK CFI INIT 86a0 23 .cfa: $esp 4 + .ra: .cfa -4 + ^
STACK CFI 86a1 $ebx: .cfa -8 + ^ .cfa: $esp 8 +
STACK CFI 86a9 .cfa: $esp 16 +
STACK CFI 86c1 .cfa: $esp 8 +
STACK CFI 86c2 $ebx: $ebx .cfa: $esp 4 +
STACK CFI INIT 86d0 12 .cfa: $esp 4 + .ra: .cfa -4 + ^
STACK CFI INIT 86f0 3a .cfa: $esp 4 + .ra: .cfa -4 + ^
STACK CFI 86f1 $esi: .cfa -8 + ^ .cfa: $esp 8 +
STACK CFI 86f2 $ebx: .cfa -12 + ^ .cfa: $esp 12 +
STACK CFI 86f5 .cfa: $esp 32 +
STACK CFI 871d .cfa: $esp 12 +
STACK CFI 871e $ebx: $ebx .cfa: $esp 8 +
STACK CFI 871f $esi: $esi .cfa: $esp 4 +
STACK CFI 8724 $ebx: .cfa -12 + ^ $esi: .cfa -8 + ^ .cfa: $esp 32 +
STACK CFI 8727 .cfa: $esp 12 +
STACK CFI 8728 $ebx: $ebx .cfa: $esp 8 +
STACK CFI 8729 $esi: $esi .cfa: $esp 4 +
STACK CFI INIT 8730 598 .cfa: $esp 4 + .ra: .cfa -4 + ^
STACK CFI 8731 $ebp: .cfa -8 + ^ .cfa: $esp 8 +
STACK CFI 8733 .cfa: $ebp 8 +
STACK CFI 8739 $ebx: .cfa -20 + ^ $edi: .cfa -12 + ^ $esi: .cfa -16 + ^
STACK CFI 8b1e $ebx: $ebx
STACK CFI 8b1f $esi: $esi
STACK CFI 8b20 $edi: $edi
STACK CFI 8b21 $ebp: $ebp .cfa: $esp 4 +
STACK CFI 8b22 $ebp: .cfa -8 + ^ $ebx: .cfa -20 + ^ $edi: .cfa -12 + ^ $esi: .cfa -16 + ^ .cfa: $ebp 8 +
STACK CFI INIT 8cd0 598 .cfa: $esp 4 + .ra: .cfa -4 + ^
STACK CFI 8cd1 $ebp: .cfa -8 + ^ .cfa: $esp 8 +
STACK CFI 8cd3 .cfa: $ebp 8 +
STACK CFI 8cd9 $ebx: .cfa -20 + ^ $edi: .cfa -12 + ^ $esi: .cfa -16 + ^
STACK CFI 90be $ebx: $ebx
STACK CFI 90bf $esi: $esi
STACK CFI 90c0 $edi: $edi
STACK CFI 90c1 $ebp: $ebp .cfa: $esp 4 +
STACK CFI 90c2 $ebp: .cfa -8 + ^ $ebx: .cfa -20 + ^ $edi: .cfa -12 + ^ $esi: .cfa -16 + ^ .cfa: $ebp 8 +
STACK CFI INIT 9270 19a .cfa: $esp 4 + .ra: .cfa -4 + ^
STACK CFI 9271 $ebp: .cfa -8 + ^ .cfa: $esp 8 +
STACK CFI 9272 $ebx: .cfa -12 + ^ .cfa: $esp 12 +
STACK CFI 9278 .cfa: $esp 144 +
STACK CFI 93d2 .cfa: $esp 12 +
STACK CFI 93d8 $ebx: $ebx .cfa: $esp 8 +
STACK CFI 93d9 $ebp: $ebp .cfa: $esp 4 +
STACK CFI 93da $ebp: .cfa -8 + ^ $ebx: .cfa -12 + ^ .cfa: $esp 144 +
STACK CFI INIT 9410 30a .cfa: $esp 4 + .ra: .cfa -4 + ^
STACK CFI 9411 $ebp: .cfa -8 + ^ .cfa: $esp 8 +
STACK CFI 9413 .cfa: $ebp 8 +
STACK CFI 941f $ebx: .cfa -20 + ^ $edi: .cfa -12 + ^ $esi: .cfa -16 + ^
STACK CFI 95f3 $ebx: $ebx
STACK CFI 95f4 $esi: $esi
STACK CFI 95f5 $edi: $edi
STACK CFI 95f6 $ebp: $ebp .cfa: $esp 4 +
STACK CFI 95f7 $ebp: .cfa -8 + ^ $ebx: .cfa -20 + ^ $edi: .cfa -12 + ^ $esi: .cfa -16 + ^ .cfa: $ebp 8 +
STACK CFI INIT 9720 164 .cfa: $esp 4 + .ra: .cfa -4 + ^
STACK CFI 9721 $ebp: .cfa -8 + ^ .cfa: $esp 8 +
STACK CFI 9723 .cfa: $ebp 8 +
STACK CFI 978b $ebp: $ebp .cfa: $esp 4 +
STACK CFI 9790 $ebp: .cfa -8 + ^ .cfa: $ebp 8 +
STACK CFI 97d6 $ebp: $ebp .cfa: $esp 4 +
STACK CFI 97e0 $ebp: .cfa -8 + ^ .cfa: $ebp 8 +
STACK CFI 9856 $ebp: $ebp .cfa: $esp 4 +
STACK CFI 9857 $ebp: .cfa -8 + ^ .cfa: $ebp 8 +
STACK CFI INIT 9890 23e .cfa: $esp 4 + .ra: .cfa -4 + ^
STACK CFI 9891 $ebp: .cfa -8 + ^ .cfa: $esp 8 +
STACK CFI 9893 .cfa: $ebp 8 +
STACK CFI 989c $ebx: .cfa -20 + ^ $edi: .cfa -12 + ^ $esi: .cfa -16 + ^
STACK CFI 997f $ebx: $ebx
STACK CFI 9980 $esi: $esi
STACK CFI 9981 $edi: $edi
STACK CFI 9982 $ebp: $ebp .cfa: $esp 4 +
STACK CFI 9983 $ebp: .cfa -8 + ^ $ebx: .cfa -20 + ^ $edi: .cfa -12 + ^ $esi: .cfa -16 + ^ .cfa: $ebp 8 +
STACK CFI INIT 9ad0 fe .cfa: $esp 4 + .ra: .cfa -4 + ^
STACK CFI 9ad1 $ebp: .cfa -8 + ^ .cfa: $esp 8 +
STACK CFI 9ad3 .cfa: $ebp 8 +
STACK CFI 9adc $ebx: .cfa -20 + ^ $edi: .cfa -12 + ^ $esi: .cfa -16 + ^
STACK CFI 9b48 $ebx: $ebx
STACK CFI 9b49 $esi: $esi
STACK CFI 9b4a $edi: $edi
STACK CFI 9b4b $ebp: $ebp .cfa: $esp 4 +
STACK CFI 9b4c $ebp: .cfa -8 + ^ $ebx: .cfa -20 + ^ $edi: .cfa -12 + ^ $esi: .cfa -16 + ^ .cfa: $ebp 8 +
STACK CFI INIT 9bd0 147 .cfa: $esp 4 + .ra: .cfa -4 + ^
STACK CFI 9bd1 $ebp: .cfa -8 + ^ .cfa: $esp 8 +
STACK CFI 9bd3 .cfa: $ebp 8 +
STACK CFI 9bdc $ebx: .cfa -20 + ^ $edi: .cfa -12 + ^ $esi: .cfa -16 + ^
STACK CFI 9c69 $ebx: $ebx
STACK CFI 9c6a $esi: $esi
STACK CFI 9c6b $edi: $edi
STACK CFI 9c6c $ebp: $ebp .cfa: $esp 4 +
STACK CFI 9c70 $ebp: .cfa -8 + ^ $ebx: .cfa -20 + ^ $edi: .cfa -12 + ^ $esi: .cfa -16 + ^ .cfa: $ebp 8 +
STACK CFI INIT 9d20 8b .cfa: $esp 4 + .ra: .cfa -4 + ^
STACK CFI 9d21 $ebx: .cfa -8 + ^ .cfa: $esp 8 +
STACK CFI 9d2d .cfa: $esp 4128 +
STACK CFI 9da9 .cfa: $esp 8 +
STACK CFI 9daa $ebx: $ebx .cfa: $esp 4 +
STACK CFI INIT 9db0 19f .cfa: $esp 4 + .ra: .cfa -4 + ^
STACK CFI 9db1 $ebp: .cfa -8 + ^ .cfa: $esp 8 +
STACK CFI 9db3 .cfa: $ebp 8 +
STACK CFI 9dbc $ebx: .cfa -20 + ^ $edi: .cfa -12 + ^ $esi: .cfa -16 + ^
STACK CFI 9e73 $ebx: $ebx
STACK CFI 9e74 $esi: $esi
STACK CFI 9e75 $edi: $edi
STACK CFI 9e76 $ebp: $ebp .cfa: $esp 4 +
STACK CFI 9e80 $ebp: .cfa -8 + ^ $ebx: .cfa -20 + ^ $edi: .cfa -12 + ^ $esi: .cfa -16 + ^ .cfa: $ebp 8 +
STACK CFI INIT 9f50 129 .cfa: $esp 4 + .ra: .cfa -4 + ^
STACK CFI 9f51 $ebp: .cfa -8 + ^ .cfa: $esp 8 +
STACK CFI 9f53 .cfa: $ebp 8 +
STACK CFI 9f5f $ebx: .cfa -20 + ^ $edi: .cfa -12 + ^ $esi: .cfa -16 + ^
STACK CFI 9fe2 $ebx: $ebx
STACK CFI 9fe3 $esi: $esi
STACK CFI 9fe4 $edi: $edi
STACK CFI 9fe5 $ebp: $ebp .cfa: $esp 4 +
STACK CFI 9fe6 $ebp: .cfa -8 + ^ $ebx: .cfa -20 + ^ $edi: .cfa -12 + ^ $esi: .cfa -16 + ^ .cfa: $ebp 8 +
STACK CFI INIT a080 5 .cfa: $esp 4 + .ra: .cfa -4 + ^
STACK CFI INIT a090 5c5 .cfa: $esp 4 + .ra: .cfa -4 + ^
STACK CFI a091 $ebp: .cfa -8 + ^ .cfa: $esp 8 +
STACK CFI a093 .cfa: $ebp 8 +
STACK CFI a09f $ebx: .cfa -20 + ^ $edi: .cfa -12 + ^ $esi: .cfa -16 + ^
STACK CFI a3b9 $ebx: $ebx
STACK CFI a3ba $esi: $esi
STACK CFI a3bb $edi: $edi
STACK CFI a3bc $ebp: $ebp .cfa: $esp 4 +
STACK CFI a3c0 $ebp: .cfa -8 + ^ $ebx: .cfa -20 + ^ $edi: .cfa -12 + ^ $esi: .cfa -16 + ^ .cfa: $ebp 8 +
STACK CFI INIT a660 64a .cfa: $esp 4 + .ra: .cfa -4 + ^
STACK CFI a661 $ebp: .cfa -8 + ^ .cfa: $esp 8 +
STACK CFI a662 $edi: .cfa -12 + ^ .cfa: $esp 12 +
STACK CFI a663 $esi: .cfa -16 + ^ .cfa: $esp 16 +
STACK CFI a664 $ebx: .cfa -20 + ^ .cfa: $esp 20 +
STACK CFI a66a .cfa: $esp 208 +
STACK CFI abc3 .cfa: $esp 20 +
STACK CFI abc4 $ebx: $ebx .cfa: $esp 16 +
STACK CFI abc5 $esi: $esi .cfa: $esp 12 +
STACK CFI abc6 $edi: $edi .cfa: $esp 8 +
STACK CFI abc7 $ebp: $ebp .cfa: $esp 4 +
STACK CFI abc8 $ebp: .cfa -8 + ^ $ebx: .cfa -20 + ^ $edi: .cfa -12 + ^ $esi: .cfa -16 + ^ .cfa: $esp 208 +
STACK CFI INIT acb0 d0 .cfa: $esp 4 + .ra: .cfa -4 + ^
STACK CFI acb1 $ebp: .cfa -8 + ^ .cfa: $esp 8 +
STACK CFI acb3 .cfa: $ebp 8 +
STACK CFI ad50 $ebp: $ebp .cfa: $esp 4 +
STACK CFI ad53 $ebp: .cfa -8 + ^ .cfa: $ebp 8 +
STACK CFI INIT ad80 3dd .cfa: $esp 4 + .ra: .cfa -4 + ^
STACK CFI ad81 $ebp: .cfa -8 + ^ .cfa: $esp 8 +
STACK CFI ad83 .cfa: $ebp 8 +
STACK CFI ad8f $ebx: .cfa -20 + ^ $edi: .cfa -12 + ^ $esi: .cfa -16 + ^
STACK CFI af42 $ebx: $ebx
STACK CFI af43 $esi: $esi
STACK CFI af44 $edi: $edi
STACK CFI af45 $ebp: $ebp .cfa: $esp 4 +
STACK CFI af50 $ebp: .cfa -8 + ^ $ebx: .cfa -20 + ^ $edi: .cfa -12 + ^ $esi: .cfa -16 + ^ .cfa: $ebp 8 +
STACK CFI INIT b160 249 .cfa: $esp 4 + .ra: .cfa -4 + ^
STACK CFI b161 $ebp: .cfa -8 + ^ .cfa: $esp 8 +
STACK CFI b163 .cfa: $ebp 8 +
STACK CFI b2db $ebp: $ebp .cfa: $esp 4 +
STACK CFI b2e0 $ebp: .cfa -8 + ^ .cfa: $ebp 8 +
STACK CFI b32e $ebp: $ebp .cfa: $esp 4 +
STACK CFI b330 $ebp: .cfa -8 + ^ .cfa: $ebp 8 +
STACK CFI b369 $ebp: $ebp .cfa: $esp 4 +
STACK CFI b370 $ebp: .cfa -8 + ^ .cfa: $ebp 8 +
STACK CFI INIT b3b0 58c .cfa: $esp 4 + .ra: .cfa -4 + ^
STACK CFI b3b1 $ebp: .cfa -8 + ^ .cfa: $esp 8 +
STACK CFI b3b3 .cfa: $ebp 8 +
STACK CFI b3bc $ebx: .cfa -20 + ^ $edi: .cfa -12 + ^ $esi: .cfa -16 + ^
STACK CFI b587 $ebx: $ebx
STACK CFI b588 $esi: $esi
STACK CFI b589 $edi: $edi
STACK CFI b58a $ebp: $ebp .cfa: $esp 4 +
STACK CFI b590 $ebp: .cfa -8 + ^ $ebx: .cfa -20 + ^ $edi: .cfa -12 + ^ $esi: .cfa -16 + ^ .cfa: $ebp 8 +
STACK CFI INIT b940 b .cfa: $esp 4 + .ra: .cfa -4 + ^
STACK CFI INIT b950 2 .cfa: $esp 4 + .ra: .cfa -4 + ^
STACK CFI INIT b960 e .cfa: $esp 4 + .ra: .cfa -4 + ^
STACK CFI INIT b970 19f .cfa: $esp 4 + .ra: .cfa -4 + ^
STACK CFI b971 $ebp: .cfa -8 + ^ .cfa: $esp 8 +
STACK CFI b973 .cfa: $ebp 8 +
STACK CFI b97c $ebx: .cfa -20 + ^ $edi: .cfa -12 + ^ $esi: .cfa -16 + ^
STACK CFI ba68 $ebx: $ebx
STACK CFI ba69 $esi: $esi
STACK CFI ba6a $edi: $edi
STACK CFI ba6b $ebp: $ebp .cfa: $esp 4 +
STACK CFI ba70 $ebp: .cfa -8 + ^ $ebx: .cfa -20 + ^ $edi: .cfa -12 + ^ $esi: .cfa -16 + ^ .cfa: $ebp 8 +
STACK CFI INIT bb10 346 .cfa: $esp 4 + .ra: .cfa -4 + ^
STACK CFI bb11 $ebp: .cfa -8 + ^ .cfa: $esp 8 +
STACK CFI bb17 .cfa: $esp 144 +
STACK CFI bc2b .cfa: $esp 8 +
STACK CFI bc2c $ebp: $ebp .cfa: $esp 4 +
STACK CFI bc30 $ebp: .cfa -8 + ^ .cfa: $esp 144 +
STACK CFI INIT be60 102 .cfa: $esp 4 + .ra: .cfa -4 + ^
STACK CFI be61 $ebp: .cfa -8 + ^ .cfa: $esp 8 +
STACK CFI be63 .cfa: $ebp 8 +
STACK CFI be6c $ebx: .cfa -20 + ^ $edi: .cfa -12 + ^ $esi: .cfa -16 + ^
STACK CFI bed2 $ebx: $ebx
STACK CFI bed3 $esi: $esi
STACK CFI bed4 $edi: $edi
STACK CFI bed5 $ebp: $ebp .cfa: $esp 4 +
STACK CFI bed6 $ebp: .cfa -8 + ^ $ebx: .cfa -20 + ^ $edi: .cfa -12 + ^ $esi: .cfa -16 + ^ .cfa: $ebp 8 +
STACK CFI INIT bf70 199 .cfa: $esp 4 + .ra: .cfa -4 + ^
STACK CFI bf71 $ebp: .cfa -8 + ^ .cfa: $esp 8 +
STACK CFI bf73 .cfa: $ebp 8 +
STACK CFI bf7c $ebx: .cfa -20 + ^ $edi: .cfa -12 + ^ $esi: .cfa -16 + ^
STACK CFI c047 $ebx: $ebx
STACK CFI c048 $esi: $esi
STACK CFI c049 $edi: $edi
STACK CFI c04a $ebp: $ebp .cfa: $esp 4 +
STACK CFI c04b $ebp: .cfa -8 + ^ $ebx: .cfa -20 + ^ $edi: .cfa -12 + ^ $esi: .cfa -16 + ^ .cfa: $ebp 8 +
STACK CFI INIT c110 126 .cfa: $esp 4 + .ra: .cfa -4 + ^
STACK CFI c111 $ebp: .cfa -8 + ^ .cfa: $esp 8 +
STACK CFI c113 .cfa: $ebp 8 +
STACK CFI c11c $ebx: .cfa -20 + ^ $edi: .cfa -12 + ^ $esi: .cfa -16 + ^
STACK CFI c19b $ebx: $ebx
STACK CFI c19c $esi: $esi
STACK CFI c19d $edi: $edi
STACK CFI c19e $ebp: $ebp .cfa: $esp 4 +
STACK CFI c1a0 $ebp: .cfa -8 + ^ $ebx: .cfa -20 + ^ $edi: .cfa -12 + ^ $esi: .cfa -16 + ^ .cfa: $ebp 8 +
STACK CFI INIT c240 2c7 .cfa: $esp 4 + .ra: .cfa -4 + ^
STACK CFI c241 $ebp: .cfa -8 + ^ .cfa: $esp 8 +
STACK CFI c243 .cfa: $ebp 8 +
STACK CFI c46c $ebp: $ebp .cfa: $esp 4 +
STACK CFI c46d $ebp: .cfa -8 + ^ .cfa: $ebp 8 +
STACK CFI INIT c510 633 .cfa: $esp 4 + .ra: .cfa -4 + ^
STACK CFI c511 $ebp: .cfa -8 + ^ .cfa: $esp 8 +
STACK CFI c513 .cfa: $ebp 8 +
STACK CFI c51c $ebx: .cfa -20 + ^ $edi: .cfa -12 + ^ $esi: .cfa -16 + ^
STACK CFI c9e2 $ebx: $ebx
STACK CFI c9e3 $esi: $esi
STACK CFI c9e4 $edi: $edi
STACK CFI c9e5 $ebp: $ebp .cfa: $esp 4 +
STACK CFI c9e6 $ebp: .cfa -8 + ^ $ebx: .cfa -20 + ^ $edi: .cfa -12 + ^ $esi: .cfa -16 + ^ .cfa: $ebp 8 +
STACK CFI INIT cb50 3aa .cfa: $esp 4 + .ra: .cfa -4 + ^
STACK CFI cb51 $ebp: .cfa -8 + ^ .cfa: $esp 8 +
STACK CFI cb53 .cfa: $ebp 8 +
STACK CFI cb5f $ebx: .cfa -20 + ^ $edi: .cfa -12 + ^ $esi: .cfa -16 + ^
STACK CFI cbb7 $ebx: $ebx
STACK CFI cbb8 $esi: $esi
STACK CFI cbb9 $edi: $edi
STACK CFI cbba $ebp: $ebp .cfa: $esp 4 +
STACK CFI cbc0 $ebp: .cfa -8 + ^ $ebx: .cfa -20 + ^ $edi: .cfa -12 + ^ $esi: .cfa -16 + ^ .cfa: $ebp 8 +
STACK CFI INIT cf00 88 .cfa: $esp 4 + .ra: .cfa -4 + ^
STACK CFI cf01 $edi: .cfa -8 + ^ .cfa: $esp 8 +
STACK CFI cf02 $esi: .cfa -12 + ^ .cfa: $esp 12 +
STACK CFI cf03 $ebx: .cfa -16 + ^ .cfa: $esp 16 +
STACK CFI cf06 .cfa: $esp 48 +
STACK CFI cf66 .cfa: $esp 16 +
STACK CFI cf69 $ebx: $ebx .cfa: $esp 12 +
STACK CFI cf6a $esi: $esi .cfa: $esp 8 +
STACK CFI cf6b $edi: $edi .cfa: $esp 4 +
STACK CFI cf70 $ebx: .cfa -16 + ^ $edi: .cfa -8 + ^ $esi: .cfa -12 + ^ .cfa: $esp 48 +
STACK CFI cf82 .cfa: $esp 16 +
STACK CFI cf85 $ebx: $ebx .cfa: $esp 12 +
STACK CFI cf86 $esi: $esi .cfa: $esp 8 +
STACK CFI cf87 $edi: $edi .cfa: $esp 4 +
STACK CFI INIT 216af0 3c5 .cfa: $esp 4 + .ra: .cfa -4 + ^
STACK CFI 216af1 $ebp: .cfa -8 + ^ .cfa: $esp 8 +
STACK CFI 216af3 .cfa: $ebp 8 +
STACK CFI 216e21 $ebp: $ebp .cfa: $esp 4 +
STACK CFI 216e22 $ebp: .cfa -8 + ^ .cfa: $ebp 8 +
STACK CFI INIT 1eb740 f .cfa: $esp 4 + .ra: .cfa -4 + ^
STACK CFI 1eb743 .cfa: $esp 32 +
STACK CFI 1eb74e .cfa: $esp 4 +
STACK CFI INIT 17d8a0 f .cfa: $esp 4 + .ra: .cfa -4 + ^
STACK CFI 17d8a3 .cfa: $esp 32 +
STACK CFI 17d8ae .cfa: $esp 4 +
STACK CFI INIT 1ec730 f .cfa: $esp 4 + .ra: .cfa -4 + ^
STACK CFI 1ec733 .cfa: $esp 32 +
STACK CFI 1ec73e .cfa: $esp 4 +
STACK CFI INIT 1fee90 86 .cfa: $esp 4 + .ra: .cfa -4 + ^
STACK CFI 1fee93 .cfa: $esp 80 +
STACK CFI 1feeb3 .cfa: $esp 4 +
STACK CFI 1feec0 .cfa: $esp 80 +
STACK CFI 1fef13 .cfa: $esp 4 +
STACK CFI INIT 17efe0 2e .cfa: $esp 4 + .ra: .cfa -4 + ^
STACK CFI 17efe1 $ebx: .cfa -8 + ^ .cfa: $esp 8 +
STACK CFI 17efe9 .cfa: $esp 32 +
STACK CFI 17f00c .cfa: $esp 8 +
STACK CFI 17f00d $ebx: $ebx .cfa: $esp 4 +
STACK CFI INIT 17f010 47 .cfa: $esp 4 + .ra: .cfa -4 + ^
STACK CFI 17f011 $esi: .cfa -8 + ^ .cfa: $esp 8 +
STACK CFI 17f012 $ebx: .cfa -12 + ^ .cfa: $esp 12 +
STACK CFI 17f017 .cfa: $esp 32 +
STACK CFI 17f039 .cfa: $esp 12 +
STACK CFI 17f03a $ebx: $ebx .cfa: $esp 8 +
STACK CFI 17f03b $esi: $esi .cfa: $esp 4 +
STACK CFI 17f040 $ebx: .cfa -12 + ^ $esi: .cfa -8 + ^ .cfa: $esp 32 +
STACK CFI INIT 1ec5f0 135 .cfa: $esp 4 + .ra: .cfa -4 + ^
STACK CFI 1ec5f1 $ebp: .cfa -8 + ^ .cfa: $esp 8 +
STACK CFI 1ec5f3 .cfa: $ebp 8 +
STACK CFI 1ec6d7 $ebp: $ebp .cfa: $esp 4 +
STACK CFI 1ec6d8 $ebp: .cfa -8 + ^ .cfa: $ebp 8 +
STACK CFI INIT 17d760 135 .cfa: $esp 4 + .ra: .cfa -4 + ^
STACK CFI 17d761 $ebp: .cfa -8 + ^ .cfa: $esp 8 +
STACK CFI 17d763 .cfa: $ebp 8 +
STACK CFI 17d847 $ebp: $ebp .cfa: $esp 4 +
STACK CFI 17d848 $ebp: .cfa -8 + ^ .cfa: $ebp 8 +
STACK CFI INIT 1eb600 135 .cfa: $esp 4 + .ra: .cfa -4 + ^
STACK CFI 1eb601 $ebp: .cfa -8 + ^ .cfa: $esp 8 +
STACK CFI 1eb603 .cfa: $ebp 8 +
STACK CFI 1eb6e7 $ebp: $ebp .cfa: $esp 4 +
STACK CFI 1eb6e8 $ebp: .cfa -8 + ^ .cfa: $ebp 8 +
STACK CFI INIT 1f3280 e8 .cfa: $esp 4 + .ra: .cfa -4 + ^
STACK CFI 1f3281 $ebp: .cfa -8 + ^ .cfa: $esp 8 +
STACK CFI 1f3283 .cfa: $ebp 8 +
STACK CFI 1f3338 $ebp: $ebp .cfa: $esp 4 +
STACK CFI 1f333b $ebp: .cfa -8 + ^ .cfa: $ebp 8 +
STACK CFI INIT 1fbf90 5a2 .cfa: $esp 4 + .ra: .cfa -4 + ^
STACK CFI 1fbf91 $ebp: .cfa -8 + ^ .cfa: $esp 8 +
STACK CFI 1fbf93 .cfa: $ebp 8 +
STACK CFI 1fbf9f $ebx: .cfa -20 + ^ $edi: .cfa -12 + ^ $esi: .cfa -16 + ^
STACK CFI 1fc3a1 $ebx: $ebx
STACK CFI 1fc3a2 $esi: $esi
STACK CFI 1fc3a3 $edi: $edi
STACK CFI 1fc3a4 $ebp: $ebp .cfa: $esp 4 +
STACK CFI 1fc3b0 $ebp: .cfa -8 + ^ $ebx: .cfa -20 + ^ $edi: .cfa -12 + ^ $esi: .cfa -16 + ^ .cfa: $ebp 8 +
STACK CFI INIT 1a6b30 11bc .cfa: $esp 4 + .ra: .cfa -4 + ^
STACK CFI 1a6b31 $ebp: .cfa -8 + ^ .cfa: $esp 8 +
STACK CFI 1a6b33 .cfa: $ebp 8 +
STACK CFI 1a6b3e $ebx: .cfa -16 + ^ $esi: .cfa -12 + ^
STACK CFI 1a6bae $ebx: $ebx
STACK CFI 1a6baf $esi: $esi
STACK CFI 1a6bb0 $ebp: $ebp .cfa: $esp 4 +
STACK CFI 1a6bb3 $ebp: .cfa -8 + ^ $ebx: .cfa -16 + ^ $esi: .cfa -12 + ^ .cfa: $ebp 8 +
STACK CFI INIT 1cf530 11f2 .cfa: $esp 4 + .ra: .cfa -4 + ^
STACK CFI 1cf531 $ebp: .cfa -8 + ^ .cfa: $esp 8 +
STACK CFI 1cf533 .cfa: $ebp 8 +
STACK CFI 1cf53e $ebx: .cfa -16 + ^ $esi: .cfa -12 + ^
STACK CFI 1cf5ae $ebx: $ebx
STACK CFI 1cf5af $esi: $esi
STACK CFI 1cf5b0 $ebp: $ebp .cfa: $esp 4 +
STACK CFI 1cf5b3 $ebp: .cfa -8 + ^ $ebx: .cfa -16 + ^ $esi: .cfa -12 + ^ .cfa: $ebp 8 +
STACK CFI INIT 20f320 114 .cfa: $esp 4 + .ra: .cfa -4 + ^
STACK CFI 20f321 $ebp: .cfa -8 + ^ .cfa: $esp 8 +
STACK CFI 20f322 $edi: .cfa -12 + ^ .cfa: $esp 12 +
STACK CFI 20f323 $esi: .cfa -16 + ^ .cfa: $esp 16 +
STACK CFI 20f324 $ebx: .cfa -20 + ^ .cfa: $esp 20 +
STACK CFI 20f329 .cfa: $esp 64 +
STACK CFI 20f3f3 .cfa: $esp 20 +
STACK CFI 20f3f4 $ebx: $ebx .cfa: $esp 16 +
STACK CFI 20f3f5 $esi: $esi .cfa: $esp 12 +
STACK CFI 20f3f6 $edi: $edi .cfa: $esp 8 +
STACK CFI 20f3f7 $ebp: $ebp .cfa: $esp 4 +
STACK CFI 20f400 $ebp: .cfa -8 + ^ $ebx: .cfa -20 + ^ $edi: .cfa -12 + ^ $esi: .cfa -16 + ^ .cfa: $esp 64 +
STACK CFI INIT 210910 3d1 .cfa: $esp 4 + .ra: .cfa -4 + ^
STACK CFI 210911 $ebp: .cfa -8 + ^ .cfa: $esp 8 +
STACK CFI 210912 $edi: .cfa -12 + ^ .cfa: $esp 12 +
STACK CFI 210913 $esi: .cfa -16 + ^ .cfa: $esp 16 +
STACK CFI 210914 $ebx: .cfa -20 + ^ .cfa: $esp 20 +
STACK CFI 210919 .cfa: $esp 64 +
STACK CFI 210bda .cfa: $esp 20 +
STACK CFI 210bdb $ebx: $ebx .cfa: $esp 16 +
STACK CFI 210bdc $esi: $esi .cfa: $esp 12 +
STACK CFI 210bdd $edi: $edi .cfa: $esp 8 +
STACK CFI 210bde $ebp: $ebp .cfa: $esp 4 +
STACK CFI 210be1 $ebp: .cfa -8 + ^ $ebx: .cfa -20 + ^ $edi: .cfa -12 + ^ $esi: .cfa -16 + ^ .cfa: $esp 64 +
STACK CFI INIT 210820 ed .cfa: $esp 4 + .ra: .cfa -4 + ^
STACK CFI 210821 $ebp: .cfa -8 + ^ .cfa: $esp 8 +
STACK CFI 210822 $edi: .cfa -12 + ^ .cfa: $esp 12 +
STACK CFI 210823 $esi: .cfa -16 + ^ .cfa: $esp 16 +
STACK CFI 210824 $ebx: .cfa -20 + ^ .cfa: $esp 20 +
STACK CFI 210827 .cfa: $esp 48 +
STACK CFI 2108a9 .cfa: $esp 20 +
STACK CFI 2108aa $ebx: $ebx .cfa: $esp 16 +
STACK CFI 2108ab $esi: $esi .cfa: $esp 12 +
STACK CFI 2108ac $edi: $edi .cfa: $esp 8 +
STACK CFI 2108ad $ebp: $ebp .cfa: $esp 4 +
STACK CFI 2108b0 $ebp: .cfa -8 + ^ $ebx: .cfa -20 + ^ $edi: .cfa -12 + ^ $esi: .cfa -16 + ^ .cfa: $esp 48 +
STACK CFI 2108c4 .cfa: $esp 32 +
STACK CFI 2108c7 .cfa: $esp 48 +
STACK CFI 2108ca .cfa: $esp 20 +
STACK CFI 2108cb $ebx: $ebx .cfa: $esp 16 +
STACK CFI 2108cc $esi: $esi .cfa: $esp 12 +
STACK CFI 2108cd $edi: $edi .cfa: $esp 8 +
STACK CFI 2108ce $ebp: $ebp .cfa: $esp 4 +
STACK CFI 2108d1 $ebp: .cfa -8 + ^ $ebx: .cfa -20 + ^ $edi: .cfa -12 + ^ $esi: .cfa -16 + ^ .cfa: $esp 48 +
STACK CFI INIT 16f840 1033 .cfa: $esp 4 + .ra: .cfa -4 + ^
STACK CFI 16f841 $ebp: .cfa -8 + ^ .cfa: $esp 8 +
STACK CFI 16f843 .cfa: $ebp 8 +
STACK CFI 16f84f $ebx: .cfa -20 + ^ $edi: .cfa -12 + ^ $esi: .cfa -16 + ^
STACK CFI 16fe65 $ebx: $ebx
STACK CFI 16fe66 $esi: $esi
STACK CFI 16fe67 $edi: $edi
STACK CFI 16fe68 $ebp: $ebp .cfa: $esp 4 +
STACK CFI 16fe70 $ebp: .cfa -8 + ^ $ebx: .cfa -20 + ^ $edi: .cfa -12 + ^ $esi: .cfa -16 + ^ .cfa: $ebp 8 +
STACK CFI INIT 1ed0f0 88 .cfa: $esp 4 + .ra: .cfa -4 + ^
STACK CFI 1ed0f1 $edi: .cfa -8 + ^ .cfa: $esp 8 +
STACK CFI 1ed0f2 $esi: .cfa -12 + ^ .cfa: $esp 12 +
STACK CFI 1ed0f5 $ebx: .cfa -16 + ^ .cfa: $esp 16 +
STACK CFI 1ed0f8 .cfa: $esp 32 +
STACK CFI 1ed10f .cfa: $esp 24 +
STACK CFI 1ed112 .cfa: $esp 32 +
STACK CFI 1ed168 .cfa: $esp 24 +
STACK CFI 1ed16b .cfa: $esp 32 +
STACK CFI 1ed172 .cfa: $esp 16 +
STACK CFI 1ed173 $ebx: $ebx .cfa: $esp 12 +
STACK CFI 1ed174 $esi: $esi .cfa: $esp 8 +
STACK CFI 1ed175 $edi: $edi .cfa: $esp 4 +
STACK CFI INIT 1fdc70 121c .cfa: $esp 4 + .ra: .cfa -4 + ^
STACK CFI 1fdc71 $ebp: .cfa -8 + ^ .cfa: $esp 8 +
STACK CFI 1fdc73 .cfa: $ebp 8 +
STACK CFI 1fdc7e $ebx: .cfa -16 + ^ $esi: .cfa -12 + ^
STACK CFI 1fdd19 $ebx: $ebx
STACK CFI 1fdd1a $esi: $esi
STACK CFI 1fdd1b $ebp: $ebp .cfa: $esp 4 +
STACK CFI 1fdd20 $ebp: .cfa -8 + ^ $ebx: .cfa -16 + ^ $esi: .cfa -12 + ^ .cfa: $ebp 8 +
STACK CFI INIT 173f80 1053 .cfa: $esp 4 + .ra: .cfa -4 + ^
STACK CFI 173f81 $ebp: .cfa -8 + ^ .cfa: $esp 8 +
STACK CFI 173f83 .cfa: $ebp 8 +
STACK CFI 173f8f $ebx: .cfa -20 + ^ $edi: .cfa -12 + ^ $esi: .cfa -16 + ^
STACK CFI 1745c7 $ebx: $ebx
STACK CFI 1745c8 $esi: $esi
STACK CFI 1745c9 $edi: $edi
STACK CFI 1745ca $ebp: $ebp .cfa: $esp 4 +
STACK CFI 1745d0 $ebp: .cfa -8 + ^ $ebx: .cfa -20 + ^ $edi: .cfa -12 + ^ $esi: .cfa -16 + ^ .cfa: $ebp 8 +
STACK CFI INIT 19ea50 15a .cfa: $esp 4 + .ra: .cfa -4 + ^
STACK CFI 19ea51 $ebp: .cfa -8 + ^ .cfa: $esp 8 +
STACK CFI 19ea53 .cfa: $ebp 8 +
STACK CFI 19eaa9 $ebp: $ebp .cfa: $esp 4 +
STACK CFI 19eab0 $ebp: .cfa -8 + ^ .cfa: $ebp 8 +
STACK CFI 19eb5a $ebp: $ebp .cfa: $esp 4 +
STACK CFI 19eb5d $ebp: .cfa -8 + ^ .cfa: $ebp 8 +
STACK CFI INIT 1cf3d0 15a .cfa: $esp 4 + .ra: .cfa -4 + ^
STACK CFI 1cf3d1 $ebp: .cfa -8 + ^ .cfa: $esp 8 +
STACK CFI 1cf3d3 .cfa: $ebp 8 +
STACK CFI 1cf428 $ebp: $ebp .cfa: $esp 4 +
STACK CFI 1cf430 $ebp: .cfa -8 + ^ .cfa: $ebp 8 +
STACK CFI 1cf4da $ebp: $ebp .cfa: $esp 4 +
STACK CFI 1cf4dd $ebp: .cfa -8 + ^ .cfa: $ebp 8 +
STACK CFI INIT cf90 5d .cfa: $esp 4 + .ra: .cfa -4 + ^
STACK CFI cf91 $ebx: .cfa -8 + ^ .cfa: $esp 8 +
STACK CFI cfdc $ebx: $ebx .cfa: $esp 4 +
STACK CFI cfe0 $ebx: .cfa -8 + ^ .cfa: $esp 8 +
STACK CFI INIT cff0 154 .cfa: $esp 4 + .ra: .cfa -4 + ^
STACK CFI cff9 $esi: .cfa -8 + ^ .cfa: $esp 8 +
STACK CFI cffa $ebx: .cfa -12 + ^ .cfa: $esp 12 +
STACK CFI d001 .cfa: $esp 16 +
STACK CFI d07b .cfa: $esp 12 +
STACK CFI d07c $ebx: $ebx .cfa: $esp 8 +
STACK CFI d07d $esi: $esi .cfa: $esp 4 +
STACK CFI d082 $ebx: .cfa -12 + ^ $esi: .cfa -8 + ^ .cfa: $esp 16 +
STACK CFI INIT d150 a .cfa: $esp 4 + .ra: .cfa -4 + ^
STACK CFI INIT d160 80 .cfa: $esp 4 + .ra: .cfa -4 + ^
STACK CFI d161 $edi: .cfa -8 + ^ .cfa: $esp 8 +
STACK CFI d162 $esi: .cfa -12 + ^ .cfa: $esp 12 +
STACK CFI d165 $ebx: .cfa -16 + ^ .cfa: $esp 16 +
STACK CFI d199 $ebx: $ebx .cfa: $esp 12 +
STACK CFI d19a $esi: $esi .cfa: $esp 8 +
STACK CFI d19b $edi: $edi .cfa: $esp 4 +
STACK CFI d1a0 $ebx: .cfa -16 + ^ $edi: .cfa -8 + ^ $esi: .cfa -12 + ^ .cfa: $esp 16 +
STACK CFI d1c4 $ebx: $ebx .cfa: $esp 12 +
STACK CFI d1c5 $esi: $esi .cfa: $esp 8 +
STACK CFI d1c6 $edi: $edi .cfa: $esp 4 +
STACK CFI d1d0 $ebx: .cfa -16 + ^ $edi: .cfa -8 + ^ $esi: .cfa -12 + ^ .cfa: $esp 16 +
STACK CFI INIT d1e0 45 .cfa: $esp 4 + .ra: .cfa -4 + ^
STACK CFI d1e1 $edi: .cfa -8 + ^ .cfa: $esp 8 +
STACK CFI d1e2 $esi: .cfa -12 + ^ .cfa: $esp 12 +
STACK CFI d1e3 $ebx: .cfa -16 + ^ .cfa: $esp 16 +
STACK CFI d215 $ebx: $ebx .cfa: $esp 12 +
STACK CFI d216 $esi: $esi .cfa: $esp 8 +
STACK CFI d217 $edi: $edi .cfa: $esp 4 +
STACK CFI d220 $ebx: .cfa -16 + ^ $edi: .cfa -8 + ^ $esi: .cfa -12 + ^ .cfa: $esp 16 +
STACK CFI INIT d230 2b .cfa: $esp 4 + .ra: .cfa -4 + ^
STACK CFI d231 $ebx: .cfa -8 + ^ .cfa: $esp 8 +
STACK CFI d255 $ebx: $ebx .cfa: $esp 4 +
STACK CFI INIT d260 252 .cfa: $esp 4 + .ra: .cfa -4 + ^
STACK CFI d261 $ebp: .cfa -8 + ^ .cfa: $esp 8 +
STACK CFI d262 $edi: .cfa -12 + ^ .cfa: $esp 12 +
STACK CFI d263 $esi: .cfa -16 + ^ .cfa: $esp 16 +
STACK CFI d264 $ebx: .cfa -20 + ^ .cfa: $esp 20 +
STACK CFI d267 .cfa: $esp 48 +
STACK CFI d285 .cfa: $esp 20 +
STACK CFI d286 $ebx: $ebx .cfa: $esp 16 +
STACK CFI d287 $esi: $esi .cfa: $esp 12 +
STACK CFI d288 $edi: $edi .cfa: $esp 8 +
STACK CFI d289 $ebp: $ebp .cfa: $esp 4 +
STACK CFI d290 $ebp: .cfa -8 + ^ $ebx: .cfa -20 + ^ $edi: .cfa -12 + ^ $esi: .cfa -16 + ^ .cfa: $esp 48 +
STACK CFI d405 .cfa: $esp 20 +
STACK CFI d406 $ebx: $ebx .cfa: $esp 16 +
STACK CFI d407 $esi: $esi .cfa: $esp 12 +
STACK CFI d408 $edi: $edi .cfa: $esp 8 +
STACK CFI d409 $ebp: $ebp .cfa: $esp 4 +
STACK CFI d410 $ebp: .cfa -8 + ^ $ebx: .cfa -20 + ^ $edi: .cfa -12 + ^ $esi: .cfa -16 + ^ .cfa: $esp 48 +
STACK CFI INIT d4c0 6f .cfa: $esp 4 + .ra: .cfa -4 + ^
STACK CFI d4c1 $esi: .cfa -8 + ^ .cfa: $esp 8 +
STACK CFI d4c2 $ebx: .cfa -12 + ^ .cfa: $esp 12 +
STACK CFI d514 $ebx: $ebx .cfa: $esp 8 +
STACK CFI d515 $esi: $esi .cfa: $esp 4 +
STACK CFI d520 $ebx: .cfa -12 + ^ $esi: .cfa -8 + ^ .cfa: $esp 12 +
STACK CFI d52d $ebx: $ebx .cfa: $esp 8 +
STACK CFI d52e $esi: $esi .cfa: $esp 4 +
STACK CFI INIT d530 80 .cfa: $esp 4 + .ra: .cfa -4 + ^
STACK CFI d531 $ebp: .cfa -8 + ^ .cfa: $esp 8 +
STACK CFI d532 $edi: .cfa -12 + ^ .cfa: $esp 12 +
STACK CFI d533 $esi: .cfa -16 + ^ .cfa: $esp 16 +
STACK CFI d534 $ebx: .cfa -20 + ^ .cfa: $esp 20 +
STACK CFI d59b $ebx: $ebx .cfa: $esp 16 +
STACK CFI d59c $esi: $esi .cfa: $esp 12 +
STACK CFI d59d $edi: $edi .cfa: $esp 8 +
STACK CFI d59e $ebp: $ebp .cfa: $esp 4 +
STACK CFI d5a0 $ebp: .cfa -8 + ^ $ebx: .cfa -20 + ^ $edi: .cfa -12 + ^ $esi: .cfa -16 + ^ .cfa: $esp 20 +
STACK CFI d5ac $ebx: $ebx .cfa: $esp 16 +
STACK CFI d5ad $esi: $esi .cfa: $esp 12 +
STACK CFI d5ae $edi: $edi .cfa: $esp 8 +
STACK CFI d5af $ebp: $ebp .cfa: $esp 4 +
STACK CFI INIT d5b0 a6 .cfa: $esp 4 + .ra: .cfa -4 + ^
STACK CFI d5b1 $ebp: .cfa -8 + ^ .cfa: $esp 8 +
STACK CFI d5b2 $edi: .cfa -12 + ^ .cfa: $esp 12 +
STACK CFI d5b3 $esi: .cfa -16 + ^ .cfa: $esp 16 +
STACK CFI d5b4 $ebx: .cfa -20 + ^ .cfa: $esp 20 +
STACK CFI d5b7 .cfa: $esp 64 +
STACK CFI d5d5 .cfa: $esp 20 +
STACK CFI d5d8 $ebx: $ebx .cfa: $esp 16 +
STACK CFI d5d9 $esi: $esi .cfa: $esp 12 +
STACK CFI d5da $edi: $edi .cfa: $esp 8 +
STACK CFI d5db $ebp: $ebp .cfa: $esp 4 +
STACK CFI d5e0 $ebp: .cfa -8 + ^ $ebx: .cfa -20 + ^ $edi: .cfa -12 + ^ $esi: .cfa -16 + ^ .cfa: $esp 64 +
STACK CFI d651 .cfa: $esp 20 +
STACK CFI d652 $ebx: $ebx .cfa: $esp 16 +
STACK CFI d653 $esi: $esi .cfa: $esp 12 +
STACK CFI d654 $edi: $edi .cfa: $esp 8 +
STACK CFI d655 $ebp: $ebp .cfa: $esp 4 +
STACK CFI INIT d660 39 .cfa: $esp 4 + .ra: .cfa -4 + ^
STACK CFI d661 $ebx: .cfa -8 + ^ .cfa: $esp 8 +
STACK CFI d664 .cfa: $esp 16 +
STACK CFI d697 .cfa: $esp 8 +
STACK CFI d698 $ebx: $ebx .cfa: $esp 4 +
STACK CFI INIT d6a0 215 .cfa: $esp 4 + .ra: .cfa -4 + ^
STACK CFI d6a1 $ebp: .cfa -8 + ^ .cfa: $esp 8 +
STACK CFI d6a2 $edi: .cfa -12 + ^ .cfa: $esp 12 +
STACK CFI d6a8 $esi: .cfa -16 + ^ .cfa: $esp 16 +
STACK CFI d6a9 $ebx: .cfa -20 + ^ .cfa: $esp 20 +
STACK CFI d6b0 .cfa: $esp 94304 +
STACK CFI d6cf .cfa: $esp 20 +
STACK CFI d6d0 $ebx: $ebx .cfa: $esp 16 +
STACK CFI d6d1 $esi: $esi .cfa: $esp 12 +
STACK CFI d6d2 $edi: $edi .cfa: $esp 8 +
STACK CFI d6d3 $ebp: $ebp .cfa: $esp 4 +
STACK CFI d6d4 $ebp: .cfa -8 + ^ $ebx: .cfa -20 + ^ $edi: .cfa -12 + ^ $esi: .cfa -16 + ^ .cfa: $esp 94304 +
STACK CFI d872 .cfa: $esp 20 +
STACK CFI d873 $ebx: $ebx .cfa: $esp 16 +
STACK CFI d874 $esi: $esi .cfa: $esp 12 +
STACK CFI d875 $edi: $edi .cfa: $esp 8 +
STACK CFI d876 $ebp: $ebp .cfa: $esp 4 +
STACK CFI d880 $ebp: .cfa -8 + ^ $ebx: .cfa -20 + ^ $edi: .cfa -12 + ^ $esi: .cfa -16 + ^ .cfa: $esp 94304 +
STACK CFI INIT d8c0 132 .cfa: $esp 4 + .ra: .cfa -4 + ^
STACK CFI d8c1 $ebp: .cfa -8 + ^ .cfa: $esp 8 +
STACK CFI d8c2 $edi: .cfa -12 + ^ .cfa: $esp 12 +
STACK CFI d8c8 $esi: .cfa -16 + ^ .cfa: $esp 16 +
STACK CFI d8c9 $ebx: .cfa -20 + ^ .cfa: $esp 20 +
STACK CFI d8d0 .cfa: $esp 94304 +
STACK CFI d8f1 .cfa: $esp 20 +
STACK CFI d8f2 $ebx: $ebx .cfa: $esp 16 +
STACK CFI d8f3 $esi: $esi .cfa: $esp 12 +
STACK CFI d8f4 $edi: $edi .cfa: $esp 8 +
STACK CFI d8f5 $ebp: $ebp .cfa: $esp 4 +
STACK CFI d900 $ebp: .cfa -8 + ^ $ebx: .cfa -20 + ^ $edi: .cfa -12 + ^ $esi: .cfa -16 + ^ .cfa: $esp 94304 +
STACK CFI d9ed .cfa: $esp 20 +
STACK CFI d9ee $ebx: $ebx .cfa: $esp 16 +
STACK CFI d9ef $esi: $esi .cfa: $esp 12 +
STACK CFI d9f0 $edi: $edi .cfa: $esp 8 +
STACK CFI d9f1 $ebp: $ebp .cfa: $esp 4 +
STACK CFI INIT da00 12e .cfa: $esp 4 + .ra: .cfa -4 + ^
STACK CFI da01 $ebx: .cfa -8 + ^ .cfa: $esp 8 +
STACK CFI da04 .cfa: $esp 32 +
STACK CFI db2c .cfa: $esp 8 +
STACK CFI db2d $ebx: $ebx .cfa: $esp 4 +
STACK CFI INIT 216ec0 1d .cfa: $esp 4 + .ra: .cfa -4 + ^
STACK CFI 216ec3 .cfa: $esp 32 +
STACK CFI 216edc .cfa: $esp 4 +
STACK CFI INIT db30 36 .cfa: $esp 4 + .ra: .cfa -4 + ^
STACK CFI INIT db70 36 .cfa: $esp 4 + .ra: .cfa -4 + ^
STACK CFI INIT dbb0 a .cfa: $esp 4 + .ra: .cfa -4 + ^
STACK CFI INIT dbc0 a2 .cfa: $esp 4 + .ra: .cfa -4 + ^
STACK CFI dbc1 $edi: .cfa -8 + ^ .cfa: $esp 8 +
STACK CFI dbc2 $esi: .cfa -12 + ^ .cfa: $esp 12 +
STACK CFI dbc5 $ebx: .cfa -16 + ^ .cfa: $esp 16 +
STACK CFI dbc8 .cfa: $esp 48 +
STACK CFI dc01 .cfa: $esp 16 +
STACK CFI dc02 $ebx: $ebx .cfa: $esp 12 +
STACK CFI dc03 $esi: $esi .cfa: $esp 8 +
STACK CFI dc04 $edi: $edi .cfa: $esp 4 +
STACK CFI dc10 $ebx: .cfa -16 + ^ $edi: .cfa -8 + ^ $esi: .cfa -12 + ^ .cfa: $esp 48 +
STACK CFI dc26 .cfa: $esp 40 +
STACK CFI dc29 .cfa: $esp 48 +
STACK CFI INIT dc70 17 .cfa: $esp 4 + .ra: .cfa -4 + ^
STACK CFI INIT dc90 9 .cfa: $esp 4 + .ra: .cfa -4 + ^
STACK CFI INIT dca0 15 .cfa: $esp 4 + .ra: .cfa -4 + ^
STACK CFI INIT dcc0 17 .cfa: $esp 4 + .ra: .cfa -4 + ^
STACK CFI INIT dce0 17 .cfa: $esp 4 + .ra: .cfa -4 + ^
STACK CFI INIT dd00 2 .cfa: $esp 4 + .ra: .cfa -4 + ^
STACK CFI INIT dd10 7f .cfa: $esp 4 + .ra: .cfa -4 + ^
STACK CFI dd11 $esi: .cfa -8 + ^ .cfa: $esp 8 +
STACK CFI dd12 $ebx: .cfa -12 + ^ .cfa: $esp 12 +
STACK CFI dd15 .cfa: $esp 32 +
STACK CFI dd6c .cfa: $esp 12 +
STACK CFI dd6d $ebx: $ebx .cfa: $esp 8 +
STACK CFI dd6e $esi: $esi .cfa: $esp 4 +
STACK CFI dd73 $ebx: .cfa -12 + ^ $esi: .cfa -8 + ^ .cfa: $esp 32 +
STACK CFI INIT dd90 19b .cfa: $esp 4 + .ra: .cfa -4 + ^
STACK CFI dd91 $ebp: .cfa -8 + ^ .cfa: $esp 8 +
STACK CFI dd92 $edi: .cfa -12 + ^ .cfa: $esp 12 +
STACK CFI dd93 $esi: .cfa -16 + ^ .cfa: $esp 16 +
STACK CFI dd94 $ebx: .cfa -20 + ^ .cfa: $esp 20 +
STACK CFI dd97 .cfa: $esp 64 +
STACK CFI de04 .cfa: $esp 20 +
STACK CFI de05 $ebx: $ebx .cfa: $esp 16 +
STACK CFI de06 $esi: $esi .cfa: $esp 12 +
STACK CFI de07 $edi: $edi .cfa: $esp 8 +
STACK CFI de08 $ebp: $ebp .cfa: $esp 4 +
STACK CFI de10 $ebp: .cfa -8 + ^ $ebx: .cfa -20 + ^ $edi: .cfa -12 + ^ $esi: .cfa -16 + ^ .cfa: $esp 64 +
STACK CFI de7e .cfa: $esp 20 +
STACK CFI de7f $ebx: $ebx .cfa: $esp 16 +
STACK CFI de80 $esi: $esi .cfa: $esp 12 +
STACK CFI de81 $edi: $edi .cfa: $esp 8 +
STACK CFI de82 $ebp: $ebp .cfa: $esp 4 +
STACK CFI de83 $ebp: .cfa -8 + ^ $ebx: .cfa -20 + ^ $edi: .cfa -12 + ^ $esi: .cfa -16 + ^ .cfa: $esp 64 +
STACK CFI de8a .cfa: $esp 20 +
STACK CFI de8b $ebx: $ebx .cfa: $esp 16 +
STACK CFI de8c $esi: $esi .cfa: $esp 12 +
STACK CFI de8d $edi: $edi .cfa: $esp 8 +
STACK CFI de8e $ebp: $ebp .cfa: $esp 4 +
STACK CFI de90 $ebp: .cfa -8 + ^ $ebx: .cfa -20 + ^ $edi: .cfa -12 + ^ $esi: .cfa -16 + ^ .cfa: $esp 64 +
STACK CFI INIT df30 19e .cfa: $esp 4 + .ra: .cfa -4 + ^
STACK CFI df31 $ebp: .cfa -8 + ^ .cfa: $esp 8 +
STACK CFI df32 $edi: .cfa -12 + ^ .cfa: $esp 12 +
STACK CFI df33 $esi: .cfa -16 + ^ .cfa: $esp 16 +
STACK CFI df34 $ebx: .cfa -20 + ^ .cfa: $esp 20 +
STACK CFI df37 .cfa: $esp 80 +
STACK CFI df91 .cfa: $esp 20 +
STACK CFI df94 $ebx: $ebx .cfa: $esp 16 +
STACK CFI df95 $esi: $esi .cfa: $esp 12 +
STACK CFI df96 $edi: $edi .cfa: $esp 8 +
STACK CFI df97 $ebp: $ebp .cfa: $esp 4 +
STACK CFI dfa0 $ebp: .cfa -8 + ^ $ebx: .cfa -20 + ^ $edi: .cfa -12 + ^ $esi: .cfa -16 + ^ .cfa: $esp 80 +
STACK CFI e070 .cfa: $esp 20 +
STACK CFI e075 $ebx: $ebx .cfa: $esp 16 +
STACK CFI e078 $esi: $esi .cfa: $esp 12 +
STACK CFI e079 $edi: $edi .cfa: $esp 8 +
STACK CFI e07a $ebp: $ebp .cfa: $esp 4 +
STACK CFI e080 $ebp: .cfa -8 + ^ $ebx: .cfa -20 + ^ $edi: .cfa -12 + ^ $esi: .cfa -16 + ^ .cfa: $esp 80 +
STACK CFI INIT e0d0 23 .cfa: $esp 4 + .ra: .cfa -4 + ^
STACK CFI e0d3 .cfa: $esp 32 +
STACK CFI e0f2 .cfa: $esp 4 +
STACK CFI INIT e100 2 .cfa: $esp 4 + .ra: .cfa -4 + ^
STACK CFI INIT e110 45 .cfa: $esp 4 + .ra: .cfa -4 + ^
STACK CFI e111 $edi: .cfa -8 + ^ .cfa: $esp 8 +
STACK CFI e112 $esi: .cfa -12 + ^ .cfa: $esp 12 +
STACK CFI e113 $ebx: .cfa -16 + ^ .cfa: $esp 16 +
STACK CFI e116 .cfa: $esp 32 +
STACK CFI e151 .cfa: $esp 16 +
STACK CFI e152 $ebx: $ebx .cfa: $esp 12 +
STACK CFI e153 $esi: $esi .cfa: $esp 8 +
STACK CFI e154 $edi: $edi .cfa: $esp 4 +
STACK CFI INIT e160 23 .cfa: $esp 4 + .ra: .cfa -4 + ^
STACK CFI e163 .cfa: $esp 32 +
STACK CFI e182 .cfa: $esp 4 +
STACK CFI INIT e190 23 .cfa: $esp 4 + .ra: .cfa -4 + ^
STACK CFI e193 .cfa: $esp 32 +
STACK CFI e1b2 .cfa: $esp 4 +
STACK CFI INIT e1c0 23 .cfa: $esp 4 + .ra: .cfa -4 + ^
STACK CFI e1c3 .cfa: $esp 32 +
STACK CFI e1e2 .cfa: $esp 4 +
STACK CFI INIT e1f0 34 .cfa: $esp 4 + .ra: .cfa -4 + ^
STACK CFI e1f3 .cfa: $esp 32 +
STACK CFI e223 .cfa: $esp 4 +
STACK CFI INIT e230 34 .cfa: $esp 4 + .ra: .cfa -4 + ^
STACK CFI e233 .cfa: $esp 32 +
STACK CFI e263 .cfa: $esp 4 +
STACK CFI INIT e270 2e .cfa: $esp 4 + .ra: .cfa -4 + ^
STACK CFI e271 $ebx: .cfa -8 + ^ .cfa: $esp 8 +
STACK CFI e274 .cfa: $esp 32 +
STACK CFI e299 .cfa: $esp 8 +
STACK CFI e29d $ebx: $ebx .cfa: $esp 4 +
STACK CFI INIT e2a0 2e .cfa: $esp 4 + .ra: .cfa -4 + ^
STACK CFI e2a1 $ebx: .cfa -8 + ^ .cfa: $esp 8 +
STACK CFI e2a4 .cfa: $esp 32 +
STACK CFI e2cc .cfa: $esp 8 +
STACK CFI e2cd $ebx: $ebx .cfa: $esp 4 +
STACK CFI INIT e2d0 2c .cfa: $esp 4 + .ra: .cfa -4 + ^
STACK CFI e2d1 $ebx: .cfa -8 + ^ .cfa: $esp 8 +
STACK CFI e2d4 .cfa: $esp 32 +
STACK CFI e2f9 .cfa: $esp 8 +
STACK CFI e2fb $ebx: $ebx .cfa: $esp 4 +
STACK CFI INIT e300 2b .cfa: $esp 4 + .ra: .cfa -4 + ^
STACK CFI e301 $ebx: .cfa -8 + ^ .cfa: $esp 8 +
STACK CFI e304 .cfa: $esp 32 +
STACK CFI e329 .cfa: $esp 8 +
STACK CFI e32a $ebx: $ebx .cfa: $esp 4 +
STACK CFI INIT e330 41 .cfa: $esp 4 + .ra: .cfa -4 + ^
STACK CFI e331 $ebx: .cfa -8 + ^ .cfa: $esp 8 +
STACK CFI e334 .cfa: $esp 48 +
STACK CFI e36f .cfa: $esp 8 +
STACK CFI e370 $ebx: $ebx .cfa: $esp 4 +
STACK CFI INIT e380 57 .cfa: $esp 4 + .ra: .cfa -4 + ^
STACK CFI e381 $esi: .cfa -8 + ^ .cfa: $esp 8 +
STACK CFI e382 $ebx: .cfa -12 + ^ .cfa: $esp 12 +
STACK CFI e387 .cfa: $esp 32 +
STACK CFI e3b2 .cfa: $esp 12 +
STACK CFI e3b8 $ebx: $ebx .cfa: $esp 8 +
STACK CFI e3b9 $esi: $esi .cfa: $esp 4 +
STACK CFI e3c0 $ebx: .cfa -12 + ^ $esi: .cfa -8 + ^ .cfa: $esp 32 +
STACK CFI INIT e3e0 57 .cfa: $esp 4 + .ra: .cfa -4 + ^
STACK CFI e3e1 $esi: .cfa -8 + ^ .cfa: $esp 8 +
STACK CFI e3e2 $ebx: .cfa -12 + ^ .cfa: $esp 12 +
STACK CFI e3e7 .cfa: $esp 32 +
STACK CFI e412 .cfa: $esp 12 +
STACK CFI e418 $ebx: $ebx .cfa: $esp 8 +
STACK CFI e419 $esi: $esi .cfa: $esp 4 +
STACK CFI e420 $ebx: .cfa -12 + ^ $esi: .cfa -8 + ^ .cfa: $esp 32 +
STACK CFI INIT e440 5f .cfa: $esp 4 + .ra: .cfa -4 + ^
STACK CFI e441 $esi: .cfa -8 + ^ .cfa: $esp 8 +
STACK CFI e442 $ebx: .cfa -12 + ^ .cfa: $esp 12 +
STACK CFI e447 .cfa: $esp 32 +
STACK CFI e472 .cfa: $esp 12 +
STACK CFI e478 $ebx: $ebx .cfa: $esp 8 +
STACK CFI e479 $esi: $esi .cfa: $esp 4 +
STACK CFI e480 $ebx: .cfa -12 + ^ $esi: .cfa -8 + ^ .cfa: $esp 32 +
STACK CFI INIT e4a0 4c .cfa: $esp 4 + .ra: .cfa -4 + ^
STACK CFI e4a1 $ebx: .cfa -8 + ^ .cfa: $esp 8 +
STACK CFI e4a4 .cfa: $esp 48 +
STACK CFI e4ea .cfa: $esp 8 +
STACK CFI e4eb $ebx: $ebx .cfa: $esp 4 +
STACK CFI INIT e4f0 4b .cfa: $esp 4 + .ra: .cfa -4 + ^
STACK CFI e4f1 $ebp: .cfa -8 + ^ .cfa: $esp 8 +
STACK CFI e4f2 $edi: .cfa -12 + ^ .cfa: $esp 12 +
STACK CFI e4f3 $esi: .cfa -16 + ^ .cfa: $esp 16 +
STACK CFI e4f4 $ebx: .cfa -20 + ^ .cfa: $esp 20 +
STACK CFI e4f7 .cfa: $esp 48 +
STACK CFI e536 .cfa: $esp 20 +
STACK CFI e537 $ebx: $ebx .cfa: $esp 16 +
STACK CFI e538 $esi: $esi .cfa: $esp 12 +
STACK CFI e539 $edi: $edi .cfa: $esp 8 +
STACK CFI e53a $ebp: $ebp .cfa: $esp 4 +
STACK CFI INIT e540 59 .cfa: $esp 4 + .ra: .cfa -4 + ^
STACK CFI e541 $esi: .cfa -8 + ^ .cfa: $esp 8 +
STACK CFI e542 $ebx: .cfa -12 + ^ .cfa: $esp 12 +
STACK CFI e592 $ebx: $ebx .cfa: $esp 8 +
STACK CFI e593 $esi: $esi .cfa: $esp 4 +
STACK CFI e594 $ebx: .cfa -12 + ^ $esi: .cfa -8 + ^ .cfa: $esp 12 +
STACK CFI e597 $ebx: $ebx .cfa: $esp 8 +
STACK CFI e598 $esi: $esi .cfa: $esp 4 +
STACK CFI INIT e5a0 6b .cfa: $esp 4 + .ra: .cfa -4 + ^
STACK CFI e5a1 $edi: .cfa -8 + ^ .cfa: $esp 8 +
STACK CFI e5a2 $esi: .cfa -12 + ^ .cfa: $esp 12 +
STACK CFI e5a3 $ebx: .cfa -16 + ^ .cfa: $esp 16 +
STACK CFI e5a6 .cfa: $esp 32 +
STACK CFI e5df .cfa: $esp 16 +
STACK CFI e5e0 $ebx: $ebx .cfa: $esp 12 +
STACK CFI e5e1 $esi: $esi .cfa: $esp 8 +
STACK CFI e5e2 $edi: $edi .cfa: $esp 4 +
STACK CFI e5f0 $ebx: .cfa -16 + ^ $edi: .cfa -8 + ^ $esi: .cfa -12 + ^ .cfa: $esp 32 +
STACK CFI e603 .cfa: $esp 16 +
STACK CFI e604 $ebx: $ebx .cfa: $esp 12 +
STACK CFI e605 $esi: $esi .cfa: $esp 8 +
STACK CFI e606 $edi: $edi .cfa: $esp 4 +
STACK CFI INIT e610 43 .cfa: $esp 4 + .ra: .cfa -4 + ^
STACK CFI e611 $edi: .cfa -8 + ^ .cfa: $esp 8 +
STACK CFI e612 $esi: .cfa -12 + ^ .cfa: $esp 12 +
STACK CFI e613 $ebx: .cfa -16 + ^ .cfa: $esp 16 +
STACK CFI e616 .cfa: $esp 32 +
STACK CFI e639 .cfa: $esp 16 +
STACK CFI e63c $ebx: $ebx .cfa: $esp 12 +
STACK CFI e63d $esi: $esi .cfa: $esp 8 +
STACK CFI e63e $edi: $edi .cfa: $esp 4 +
STACK CFI e640 $ebx: .cfa -16 + ^ $edi: .cfa -8 + ^ $esi: .cfa -12 + ^ .cfa: $esp 32 +
STACK CFI e64b .cfa: $esp 16 +
STACK CFI e64c $ebx: $ebx .cfa: $esp 12 +
STACK CFI e64d $esi: $esi .cfa: $esp 8 +
STACK CFI e64e $edi: $edi .cfa: $esp 4 +
STACK CFI INIT e660 79 .cfa: $esp 4 + .ra: .cfa -4 + ^
STACK CFI e661 $ebx: .cfa -8 + ^ .cfa: $esp 8 +
STACK CFI e664 .cfa: $esp 48 +
STACK CFI e6b2 .cfa: $esp 8 +
STACK CFI e6b3 $ebx: $ebx .cfa: $esp 4 +
STACK CFI e6c0 $ebx: .cfa -8 + ^ .cfa: $esp 48 +
STACK CFI e6d3 .cfa: $esp 8 +
STACK CFI e6d4 $ebx: $ebx .cfa: $esp 4 +
STACK CFI INIT e6e0 39 .cfa: $esp 4 + .ra: .cfa -4 + ^
STACK CFI e6e1 $ebx: .cfa -8 + ^ .cfa: $esp 8 +
STACK CFI e6e4 .cfa: $esp 32 +
STACK CFI e717 .cfa: $esp 8 +
STACK CFI e718 $ebx: $ebx .cfa: $esp 4 +
STACK CFI INIT e720 6c .cfa: $esp 4 + .ra: .cfa -4 + ^
STACK CFI e721 $ebp: .cfa -8 + ^ .cfa: $esp 8 +
STACK CFI e722 $edi: .cfa -12 + ^ .cfa: $esp 12 +
STACK CFI e723 $esi: .cfa -16 + ^ .cfa: $esp 16 +
STACK CFI e724 $ebx: .cfa -20 + ^ .cfa: $esp 20 +
STACK CFI e727 .cfa: $esp 48 +
STACK CFI e766 .cfa: $esp 20 +
STACK CFI e767 $ebx: $ebx .cfa: $esp 16 +
STACK CFI e768 $esi: $esi .cfa: $esp 12 +
STACK CFI e769 $edi: $edi .cfa: $esp 8 +
STACK CFI e76a $ebp: $ebp .cfa: $esp 4 +
STACK CFI e770 $ebp: .cfa -8 + ^ $ebx: .cfa -20 + ^ $edi: .cfa -12 + ^ $esi: .cfa -16 + ^ .cfa: $esp 48 +
STACK CFI e783 .cfa: $esp 20 +
STACK CFI e784 $ebx: $ebx .cfa: $esp 16 +
STACK CFI e785 $esi: $esi .cfa: $esp 12 +
STACK CFI e786 $edi: $edi .cfa: $esp 8 +
STACK CFI e787 $ebp: $ebp .cfa: $esp 4 +
STACK CFI INIT e790 4a .cfa: $esp 4 + .ra: .cfa -4 + ^
STACK CFI e791 $esi: .cfa -8 + ^ .cfa: $esp 8 +
STACK CFI e792 $ebx: .cfa -12 + ^ .cfa: $esp 12 +
STACK CFI e795 .cfa: $esp 32 +
STACK CFI e7d5 .cfa: $esp 12 +
STACK CFI e7d8 $ebx: $ebx .cfa: $esp 8 +
STACK CFI e7d9 $esi: $esi .cfa: $esp 4 +
STACK CFI INIT e7e0 7c .cfa: $esp 4 + .ra: .cfa -4 + ^
STACK CFI e7e1 $esi: .cfa -8 + ^ .cfa: $esp 8 +
STACK CFI e7e2 $ebx: .cfa -12 + ^ .cfa: $esp 12 +
STACK CFI e7e5 .cfa: $esp 48 +
STACK CFI e83b .cfa: $esp 12 +
STACK CFI e83c $ebx: $ebx .cfa: $esp 8 +
STACK CFI e83d $esi: $esi .cfa: $esp 4 +
STACK CFI e842 $ebx: .cfa -12 + ^ $esi: .cfa -8 + ^ .cfa: $esp 48 +
STACK CFI e855 .cfa: $esp 12 +
STACK CFI e856 $ebx: $ebx .cfa: $esp 8 +
STACK CFI e857 $esi: $esi .cfa: $esp 4 +
STACK CFI INIT e860 3d .cfa: $esp 4 + .ra: .cfa -4 + ^
STACK CFI e861 $ebx: .cfa -8 + ^ .cfa: $esp 8 +
STACK CFI e864 .cfa: $esp 32 +
STACK CFI e89b .cfa: $esp 8 +
STACK CFI e89c $ebx: $ebx .cfa: $esp 4 +
STACK CFI INIT e8a0 25b .cfa: $esp 4 + .ra: .cfa -4 + ^
STACK CFI e8a1 $edi: .cfa -8 + ^ .cfa: $esp 8 +
STACK CFI e8a2 $esi: .cfa -12 + ^ .cfa: $esp 12 +
STACK CFI e8a3 $ebx: .cfa -16 + ^ .cfa: $esp 16 +
STACK CFI e8a6 .cfa: $esp 32 +
STACK CFI e94a .cfa: $esp 16 +
STACK CFI e94b $ebx: $ebx .cfa: $esp 12 +
STACK CFI e94c $esi: $esi .cfa: $esp 8 +
STACK CFI e94d $edi: $edi .cfa: $esp 4 +
STACK CFI e952 $ebx: .cfa -16 + ^ $edi: .cfa -8 + ^ $esi: .cfa -12 + ^ .cfa: $esp 32 +
STACK CFI eac7 .cfa: $esp 16 +
STACK CFI eac8 $ebx: $ebx .cfa: $esp 12 +
STACK CFI eac9 $esi: $esi .cfa: $esp 8 +
STACK CFI eaca $edi: $edi .cfa: $esp 4 +
STACK CFI ead0 $ebx: .cfa -16 + ^ $edi: .cfa -8 + ^ $esi: .cfa -12 + ^ .cfa: $esp 32 +
STACK CFI INIT eb00 201 .cfa: $esp 4 + .ra: .cfa -4 + ^
STACK CFI eb01 $ebp: .cfa -8 + ^ .cfa: $esp 8 +
STACK CFI eb02 $edi: .cfa -12 + ^ .cfa: $esp 12 +
STACK CFI eb03 $esi: .cfa -16 + ^ .cfa: $esp 16 +
STACK CFI eb04 $ebx: .cfa -20 + ^ .cfa: $esp 20 +
STACK CFI eb07 .cfa: $esp 48 +
STACK CFI eb98 .cfa: $esp 20 +
STACK CFI eb99 $ebx: $ebx .cfa: $esp 16 +
STACK CFI eb9a $esi: $esi .cfa: $esp 12 +
STACK CFI eb9b $edi: $edi .cfa: $esp 8 +
STACK CFI eb9c $ebp: $ebp .cfa: $esp 4 +
STACK CFI eba0 $ebp: .cfa -8 + ^ $ebx: .cfa -20 + ^ $edi: .cfa -12 + ^ $esi: .cfa -16 + ^ .cfa: $esp 48 +
STACK CFI ecfc .cfa: $esp 20 +
STACK CFI ecfd $ebx: $ebx .cfa: $esp 16 +
STACK CFI ecfe $esi: $esi .cfa: $esp 12 +
STACK CFI ecff $edi: $edi .cfa: $esp 8 +
STACK CFI ed00 $ebp: $ebp .cfa: $esp 4 +
STACK CFI INIT ed10 72 .cfa: $esp 4 + .ra: .cfa -4 + ^
STACK CFI ed11 $edi: .cfa -8 + ^ .cfa: $esp 8 +
STACK CFI ed12 $esi: .cfa -12 + ^ .cfa: $esp 12 +
STACK CFI ed18 $ebx: .cfa -16 + ^ .cfa: $esp 16 +
STACK CFI ed1d .cfa: $esp 32 +
STACK CFI ed7e .cfa: $esp 16 +
STACK CFI ed7f $ebx: $ebx .cfa: $esp 12 +
STACK CFI ed80 $esi: $esi .cfa: $esp 8 +
STACK CFI ed81 $edi: $edi .cfa: $esp 4 +
STACK CFI INIT ed90 56 .cfa: $esp 4 + .ra: .cfa -4 + ^
STACK CFI ed91 $esi: .cfa -8 + ^ .cfa: $esp 8 +
STACK CFI ed92 $ebx: .cfa -12 + ^ .cfa: $esp 12 +
STACK CFI ed95 .cfa: $esp 16 +
STACK CFI ede3 .cfa: $esp 12 +
STACK CFI ede4 $ebx: $ebx .cfa: $esp 8 +
STACK CFI ede5 $esi: $esi .cfa: $esp 4 +
STACK CFI INIT edf0 5a .cfa: $esp 4 + .ra: .cfa -4 + ^
STACK CFI edf1 $esi: .cfa -8 + ^ .cfa: $esp 8 +
STACK CFI edf2 $ebx: .cfa -12 + ^ .cfa: $esp 12 +
STACK CFI edf5 .cfa: $esp 16 +
STACK CFI ee47 .cfa: $esp 12 +
STACK CFI ee48 $ebx: $ebx .cfa: $esp 8 +
STACK CFI ee49 $esi: $esi .cfa: $esp 4 +
STACK CFI INIT ee50 be .cfa: $esp 4 + .ra: .cfa -4 + ^
STACK CFI ee51 $edi: .cfa -8 + ^ .cfa: $esp 8 +
STACK CFI ee52 $esi: .cfa -12 + ^ .cfa: $esp 12 +
STACK CFI ee53 $ebx: .cfa -16 + ^ .cfa: $esp 16 +
STACK CFI ee59 .cfa: $esp 1056 +
STACK CFI eec4 .cfa: $esp 16 +
STACK CFI eec5 $ebx: $ebx .cfa: $esp 12 +
STACK CFI eec6 $esi: $esi .cfa: $esp 8 +
STACK CFI eec7 $edi: $edi .cfa: $esp 4 +
STACK CFI eed0 $ebx: .cfa -16 + ^ $edi: .cfa -8 + ^ $esi: .cfa -12 + ^ .cfa: $esp 1056 +
STACK CFI eee9 .cfa: $esp 1048 +
STACK CFI eeec .cfa: $esp 1056 +
STACK CFI ef0a .cfa: $esp 16 +
STACK CFI ef0b $ebx: $ebx .cfa: $esp 12 +
STACK CFI ef0c $esi: $esi .cfa: $esp 8 +
STACK CFI ef0d $edi: $edi .cfa: $esp 4 +
STACK CFI INIT ef10 be .cfa: $esp 4 + .ra: .cfa -4 + ^
STACK CFI ef11 $edi: .cfa -8 + ^ .cfa: $esp 8 +
STACK CFI ef12 $esi: .cfa -12 + ^ .cfa: $esp 12 +
STACK CFI ef18 $ebx: .cfa -16 + ^ .cfa: $esp 16 +
STACK CFI ef1f .cfa: $esp 8224 +
STACK CFI ef84 .cfa: $esp 16 +
STACK CFI ef85 $ebx: $ebx .cfa: $esp 12 +
STACK CFI ef86 $esi: $esi .cfa: $esp 8 +
STACK CFI ef87 $edi: $edi .cfa: $esp 4 +
STACK CFI ef90 $ebx: .cfa -16 + ^ $edi: .cfa -8 + ^ $esi: .cfa -12 + ^ .cfa: $esp 8224 +
STACK CFI efa9 .cfa: $esp 8216 +
STACK CFI efac .cfa: $esp 8224 +
STACK CFI efca .cfa: $esp 16 +
STACK CFI efcb $ebx: $ebx .cfa: $esp 12 +
STACK CFI efcc $esi: $esi .cfa: $esp 8 +
STACK CFI efcd $edi: $edi .cfa: $esp 4 +
STACK CFI INIT efd0 e0 .cfa: $esp 4 + .ra: .cfa -4 + ^
STACK CFI efd1 $esi: .cfa -8 + ^ .cfa: $esp 8 +
STACK CFI efd2 $ebx: .cfa -12 + ^ .cfa: $esp 12 +
STACK CFI efda .cfa: $esp 288 +
STACK CFI f024 .cfa: $esp 280 +
STACK CFI f027 .cfa: $esp 288 +
STACK CFI f040 .cfa: $esp 280 +
STACK CFI f043 .cfa: $esp 288 +
STACK CFI f084 .cfa: $esp 272 +
STACK CFI f087 .cfa: $esp 288 +
STACK CFI f0a4 .cfa: $esp 280 +
STACK CFI f0a7 .cfa: $esp 288 +
STACK CFI f0ad .cfa: $esp 12 +
STACK CFI f0ae $ebx: $ebx .cfa: $esp 8 +
STACK CFI f0af $esi: $esi .cfa: $esp 4 +
STACK CFI INIT f0b0 e0 .cfa: $esp 4 + .ra: .cfa -4 + ^
STACK CFI f0b1 $esi: .cfa -8 + ^ .cfa: $esp 8 +
STACK CFI f0b2 $ebx: .cfa -12 + ^ .cfa: $esp 12 +
STACK CFI f0ba .cfa: $esp 256 +
STACK CFI f104 .cfa: $esp 248 +
STACK CFI f107 .cfa: $esp 256 +
STACK CFI f120 .cfa: $esp 248 +
STACK CFI f123 .cfa: $esp 256 +
STACK CFI f164 .cfa: $esp 240 +
STACK CFI f167 .cfa: $esp 256 +
STACK CFI f184 .cfa: $esp 248 +
STACK CFI f187 .cfa: $esp 256 +
STACK CFI f18d .cfa: $esp 12 +
STACK CFI f18e $ebx: $ebx .cfa: $esp 8 +
STACK CFI f18f $esi: $esi .cfa: $esp 4 +
STACK CFI INIT f190 32b .cfa: $esp 4 + .ra: .cfa -4 + ^
STACK CFI f191 $ebp: .cfa -8 + ^ .cfa: $esp 8 +
STACK CFI f192 $edi: .cfa -12 + ^ .cfa: $esp 12 +
STACK CFI f193 $esi: .cfa -16 + ^ .cfa: $esp 16 +
STACK CFI f194 $ebx: .cfa -20 + ^ .cfa: $esp 20 +
STACK CFI f197 .cfa: $esp 64 +
STACK CFI f20a .cfa: $esp 20 +
STACK CFI f20b $ebx: $ebx .cfa: $esp 16 +
STACK CFI f20c $esi: $esi .cfa: $esp 12 +
STACK CFI f20d $edi: $edi .cfa: $esp 8 +
STACK CFI f20e $ebp: $ebp .cfa: $esp 4 +
STACK CFI f20f $ebp: .cfa -8 + ^ $ebx: .cfa -20 + ^ $edi: .cfa -12 + ^ $esi: .cfa -16 + ^ .cfa: $esp 64 +
STACK CFI f423 .cfa: $esp 20 +
STACK CFI f424 $ebx: $ebx .cfa: $esp 16 +
STACK CFI f425 $esi: $esi .cfa: $esp 12 +
STACK CFI f426 $edi: $edi .cfa: $esp 8 +
STACK CFI f427 $ebp: $ebp .cfa: $esp 4 +
STACK CFI f42c $ebp: .cfa -8 + ^ $ebx: .cfa -20 + ^ $edi: .cfa -12 + ^ $esi: .cfa -16 + ^ .cfa: $esp 64 +
STACK CFI f450 .cfa: $esp 48 +
STACK CFI f453 .cfa: $esp 64 +
STACK CFI f49a .cfa: $esp 20 +
STACK CFI f49b $ebx: $ebx .cfa: $esp 16 +
STACK CFI f49c $esi: $esi .cfa: $esp 12 +
STACK CFI f49d $edi: $edi .cfa: $esp 8 +
STACK CFI f49e $ebp: $ebp .cfa: $esp 4 +
STACK CFI f4a3 $ebp: .cfa -8 + ^ $ebx: .cfa -20 + ^ $edi: .cfa -12 + ^ $esi: .cfa -16 + ^ .cfa: $esp 64 +
STACK CFI INIT f4c0 426 .cfa: $esp 4 + .ra: .cfa -4 + ^
STACK CFI f4c1 $ebp: .cfa -8 + ^ .cfa: $esp 8 +
STACK CFI f4c2 $edi: .cfa -12 + ^ .cfa: $esp 12 +
STACK CFI f4c3 $esi: .cfa -16 + ^ .cfa: $esp 16 +
STACK CFI f4c4 $ebx: .cfa -20 + ^ .cfa: $esp 20 +
STACK CFI f4c7 .cfa: $esp 96 +
STACK CFI f535 .cfa: $esp 20 +
STACK CFI f536 $ebx: $ebx .cfa: $esp 16 +
STACK CFI f537 $esi: $esi .cfa: $esp 12 +
STACK CFI f538 $edi: $edi .cfa: $esp 8 +
STACK CFI f539 $ebp: $ebp .cfa: $esp 4 +
STACK CFI f540 $ebp: .cfa -8 + ^ $ebx: .cfa -20 + ^ $edi: .cfa -12 + ^ $esi: .cfa -16 + ^ .cfa: $esp 96 +
STACK CFI f5c9 .cfa: $esp 80 +
STACK CFI f5cc .cfa: $esp 96 +
STACK CFI f743 .cfa: $esp 84 +
STACK CFI f746 .cfa: $esp 96 +
STACK CFI f749 .cfa: $esp 20 +
STACK CFI f74a $ebx: $ebx .cfa: $esp 16 +
STACK CFI f74b $esi: $esi .cfa: $esp 12 +
STACK CFI f74c $edi: $edi .cfa: $esp 8 +
STACK CFI f74d $ebp: $ebp .cfa: $esp 4 +
STACK CFI f750 $ebp: .cfa -8 + ^ $ebx: .cfa -20 + ^ $edi: .cfa -12 + ^ $esi: .cfa -16 + ^ .cfa: $esp 96 +
STACK CFI f808 .cfa: $esp 80 +
STACK CFI f80b .cfa: $esp 96 +
STACK CFI f866 .cfa: $esp 80 +
STACK CFI f869 .cfa: $esp 96 +
STACK CFI f898 .cfa: $esp 80 +
STACK CFI f89b .cfa: $esp 96 +
STACK CFI INIT f8f0 58b .cfa: $esp 4 + .ra: .cfa -4 + ^
STACK CFI f8f1 $ebp: .cfa -8 + ^ .cfa: $esp 8 +
STACK CFI f8f2 $edi: .cfa -12 + ^ .cfa: $esp 12 +
STACK CFI f8f3 $esi: .cfa -16 + ^ .cfa: $esp 16 +
STACK CFI f8f4 $ebx: .cfa -20 + ^ .cfa: $esp 20 +
STACK CFI f8fa .cfa: $esp 528 +
STACK CFI fc80 .cfa: $esp 516 +
STACK CFI fc83 .cfa: $esp 528 +
STACK CFI fc89 .cfa: $esp 20 +
STACK CFI fc8a $ebx: $ebx .cfa: $esp 16 +
STACK CFI fc8b $esi: $esi .cfa: $esp 12 +
STACK CFI fc8c $edi: $edi .cfa: $esp 8 +
STACK CFI fc8d $ebp: $ebp .cfa: $esp 4 +
STACK CFI fc90 $ebp: .cfa -8 + ^ $ebx: .cfa -20 + ^ $edi: .cfa -12 + ^ $esi: .cfa -16 + ^ .cfa: $esp 528 +
STACK CFI fe55 .cfa: $esp 516 +
STACK CFI fe58 .cfa: $esp 528 +
STACK CFI INIT fe80 561 .cfa: $esp 4 + .ra: .cfa -4 + ^
STACK CFI fe81 $ebp: .cfa -8 + ^ .cfa: $esp 8 +
STACK CFI fe82 $edi: .cfa -12 + ^ .cfa: $esp 12 +
STACK CFI fe83 $esi: .cfa -16 + ^ .cfa: $esp 16 +
STACK CFI fe84 $ebx: .cfa -20 + ^ .cfa: $esp 20 +
STACK CFI fe8a .cfa: $esp 512 +
STACK CFI 10006 .cfa: $esp 496 +
STACK CFI 10009 .cfa: $esp 512 +
STACK CFI 100b4 .cfa: $esp 500 +
STACK CFI 100b7 .cfa: $esp 512 +
STACK CFI 100bd .cfa: $esp 20 +
STACK CFI 100be $ebx: $ebx .cfa: $esp 16 +
STACK CFI 100bf $esi: $esi .cfa: $esp 12 +
STACK CFI 100c0 $edi: $edi .cfa: $esp 8 +
STACK CFI 100c1 $ebp: $ebp .cfa: $esp 4 +
STACK CFI 100c2 $ebp: .cfa -8 + ^ $ebx: .cfa -20 + ^ $edi: .cfa -12 + ^ $esi: .cfa -16 + ^ .cfa: $esp 512 +
STACK CFI 100f2 .cfa: $esp 500 +
STACK CFI 100f5 .cfa: $esp 512 +
STACK CFI 10164 .cfa: $esp 496 +
STACK CFI 10167 .cfa: $esp 512 +
STACK CFI 10387 .cfa: $esp 500 +
STACK CFI 1038a .cfa: $esp 512 +
STACK CFI 103b0 .cfa: $esp 500 +
STACK CFI 103b3 .cfa: $esp 512 +
STACK CFI 103d9 .cfa: $esp 500 +
STACK CFI 103dc .cfa: $esp 512 +
STACK CFI INIT 216ee0 1d .cfa: $esp 4 + .ra: .cfa -4 + ^
STACK CFI 216ee3 .cfa: $esp 32 +
STACK CFI 216efc .cfa: $esp 4 +
STACK CFI INIT 15bf80 98 .cfa: $esp 4 + .ra: .cfa -4 + ^
STACK CFI 15bf81 $ebx: .cfa -8 + ^ .cfa: $esp 8 +
STACK CFI 15bf84 .cfa: $esp 32 +
STACK CFI 15bfc9 .cfa: $esp 24 +
STACK CFI 15bfcc .cfa: $esp 32 +
STACK CFI 15bfcf .cfa: $esp 8 +
STACK CFI 15bfd0 $ebx: $ebx .cfa: $esp 4 +
STACK CFI 15bfd1 $ebx: .cfa -8 + ^ .cfa: $esp 32 +
STACK CFI 15bfe8 .cfa: $esp 8 +
STACK CFI 15bfe9 $ebx: $ebx .cfa: $esp 4 +
STACK CFI 15bff0 $ebx: .cfa -8 + ^ .cfa: $esp 32 +
STACK CFI 15bff8 .cfa: $esp 28 +
STACK CFI 15bffb .cfa: $esp 32 +
STACK CFI 15bffe .cfa: $esp 8 +
STACK CFI 15bfff $ebx: $ebx .cfa: $esp 4 +
STACK CFI 15c000 $ebx: .cfa -8 + ^ .cfa: $esp 32 +
STACK CFI 15c013 .cfa: $esp 28 +
STACK CFI 15c016 .cfa: $esp 32 +
STACK CFI INIT 15bee0 98 .cfa: $esp 4 + .ra: .cfa -4 + ^
STACK CFI 15bee1 $ebx: .cfa -8 + ^ .cfa: $esp 8 +
STACK CFI 15bee4 .cfa: $esp 32 +
STACK CFI 15bf29 .cfa: $esp 24 +
STACK CFI 15bf2c .cfa: $esp 32 +
STACK CFI 15bf2f .cfa: $esp 8 +
STACK CFI 15bf30 $ebx: $ebx .cfa: $esp 4 +
STACK CFI 15bf31 $ebx: .cfa -8 + ^ .cfa: $esp 32 +
STACK CFI 15bf48 .cfa: $esp 8 +
STACK CFI 15bf49 $ebx: $ebx .cfa: $esp 4 +
STACK CFI 15bf50 $ebx: .cfa -8 + ^ .cfa: $esp 32 +
STACK CFI 15bf58 .cfa: $esp 28 +
STACK CFI 15bf5b .cfa: $esp 32 +
STACK CFI 15bf5e .cfa: $esp 8 +
STACK CFI 15bf5f $ebx: $ebx .cfa: $esp 4 +
STACK CFI 15bf60 $ebx: .cfa -8 + ^ .cfa: $esp 32 +
STACK CFI 15bf73 .cfa: $esp 28 +
STACK CFI 15bf76 .cfa: $esp 32 +
STACK CFI INIT 15aea0 98 .cfa: $esp 4 + .ra: .cfa -4 + ^
STACK CFI 15aea1 $ebx: .cfa -8 + ^ .cfa: $esp 8 +
STACK CFI 15aea4 .cfa: $esp 32 +
STACK CFI 15aee9 .cfa: $esp 24 +
STACK CFI 15aeec .cfa: $esp 32 +
STACK CFI 15aeef .cfa: $esp 8 +
STACK CFI 15aef0 $ebx: $ebx .cfa: $esp 4 +
STACK CFI 15aef1 $ebx: .cfa -8 + ^ .cfa: $esp 32 +
STACK CFI 15af08 .cfa: $esp 8 +
STACK CFI 15af09 $ebx: $ebx .cfa: $esp 4 +
STACK CFI 15af10 $ebx: .cfa -8 + ^ .cfa: $esp 32 +
STACK CFI 15af18 .cfa: $esp 28 +
STACK CFI 15af1b .cfa: $esp 32 +
STACK CFI 15af1e .cfa: $esp 8 +
STACK CFI 15af1f $ebx: $ebx .cfa: $esp 4 +
STACK CFI 15af20 $ebx: .cfa -8 + ^ .cfa: $esp 32 +
STACK CFI 15af33 .cfa: $esp 28 +
STACK CFI 15af36 .cfa: $esp 32 +
STACK CFI INIT 167cf0 ca .cfa: $esp 4 + .ra: .cfa -4 + ^
STACK CFI 167cf1 $ebp: .cfa -8 + ^ .cfa: $esp 8 +
STACK CFI 167cf4 .cfa: $esp 128 +
STACK CFI 167d4c .cfa: $esp 120 +
STACK CFI 167d4f .cfa: $esp 128 +
STACK CFI 167d86 .cfa: $esp 8 +
STACK CFI 167d89 $ebp: $ebp .cfa: $esp 4 +
STACK CFI 167d8a $ebp: .cfa -8 + ^ .cfa: $esp 128 +
STACK CFI INIT 166700 ca .cfa: $esp 4 + .ra: .cfa -4 + ^
STACK CFI 166701 $ebp: .cfa -8 + ^ .cfa: $esp 8 +
STACK CFI 166704 .cfa: $esp 128 +
STACK CFI 16675c .cfa: $esp 120 +
STACK CFI 16675f .cfa: $esp 128 +
STACK CFI 166796 .cfa: $esp 8 +
STACK CFI 166799 $ebp: $ebp .cfa: $esp 4 +
STACK CFI 16679a $ebp: .cfa -8 + ^ .cfa: $esp 128 +
STACK CFI INIT 167c20 ca .cfa: $esp 4 + .ra: .cfa -4 + ^
STACK CFI 167c21 $ebp: .cfa -8 + ^ .cfa: $esp 8 +
STACK CFI 167c24 .cfa: $esp 128 +
STACK CFI 167c7c .cfa: $esp 120 +
STACK CFI 167c7f .cfa: $esp 128 +
STACK CFI 167cb6 .cfa: $esp 8 +
STACK CFI 167cb9 $ebp: $ebp .cfa: $esp 4 +
STACK CFI 167cba $ebp: .cfa -8 + ^ .cfa: $esp 128 +
STACK CFI INIT 1ce1f0 11d2 .cfa: $esp 4 + .ra: .cfa -4 + ^
STACK CFI 1ce1f1 $ebp: .cfa -8 + ^ .cfa: $esp 8 +
STACK CFI 1ce1f3 .cfa: $ebp 8 +
STACK CFI 1ce1fe $ebx: .cfa -16 + ^ $esi: .cfa -12 + ^
STACK CFI 1ce26e $ebx: $ebx
STACK CFI 1ce26f $esi: $esi
STACK CFI 1ce270 $ebp: $ebp .cfa: $esp 4 +
STACK CFI 1ce273 $ebp: .cfa -8 + ^ $ebx: .cfa -16 + ^ $esi: .cfa -12 + ^ .cfa: $ebp 8 +
STACK CFI INIT 1d5b80 11d2 .cfa: $esp 4 + .ra: .cfa -4 + ^
STACK CFI 1d5b81 $ebp: .cfa -8 + ^ .cfa: $esp 8 +
STACK CFI 1d5b83 .cfa: $ebp 8 +
STACK CFI 1d5b8e $ebx: .cfa -16 + ^ $esi: .cfa -12 + ^
STACK CFI 1d5bfe $ebx: $ebx
STACK CFI 1d5bff $esi: $esi
STACK CFI 1d5c00 $ebp: $ebp .cfa: $esp 4 +
STACK CFI 1d5c03 $ebp: .cfa -8 + ^ $ebx: .cfa -16 + ^ $esi: .cfa -12 + ^ .cfa: $ebp 8 +
STACK CFI INIT 1cd010 11d2 .cfa: $esp 4 + .ra: .cfa -4 + ^
STACK CFI 1cd011 $ebp: .cfa -8 + ^ .cfa: $esp 8 +
STACK CFI 1cd013 .cfa: $ebp 8 +
STACK CFI 1cd01e $ebx: .cfa -16 + ^ $esi: .cfa -12 + ^
STACK CFI 1cd08e $ebx: $ebx
STACK CFI 1cd08f $esi: $esi
STACK CFI 1cd090 $ebp: $ebp .cfa: $esp 4 +
STACK CFI 1cd093 $ebp: .cfa -8 + ^ $ebx: .cfa -16 + ^ $esi: .cfa -12 + ^ .cfa: $ebp 8 +
STACK CFI INIT 1de190 11bc .cfa: $esp 4 + .ra: .cfa -4 + ^
STACK CFI 1de191 $ebp: .cfa -8 + ^ .cfa: $esp 8 +
STACK CFI 1de193 .cfa: $ebp 8 +
STACK CFI 1de19e $ebx: .cfa -16 + ^ $esi: .cfa -12 + ^
STACK CFI 1de20e $ebx: $ebx
STACK CFI 1de20f $esi: $esi
STACK CFI 1de210 $ebp: $ebp .cfa: $esp 4 +
STACK CFI 1de213 $ebp: .cfa -8 + ^ $ebx: .cfa -16 + ^ $esi: .cfa -12 + ^ .cfa: $ebp 8 +
STACK CFI INIT 1c4a40 11bc .cfa: $esp 4 + .ra: .cfa -4 + ^
STACK CFI 1c4a41 $ebp: .cfa -8 + ^ .cfa: $esp 8 +
STACK CFI 1c4a43 .cfa: $ebp 8 +
STACK CFI 1c4a4e $ebx: .cfa -16 + ^ $esi: .cfa -12 + ^
STACK CFI 1c4abe $ebx: $ebx
STACK CFI 1c4abf $esi: $esi
STACK CFI 1c4ac0 $ebp: $ebp .cfa: $esp 4 +
STACK CFI 1c4ac3 $ebp: .cfa -8 + ^ $ebx: .cfa -16 + ^ $esi: .cfa -12 + ^ .cfa: $ebp 8 +
STACK CFI INIT 1af810 11bc .cfa: $esp 4 + .ra: .cfa -4 + ^
STACK CFI 1af811 $ebp: .cfa -8 + ^ .cfa: $esp 8 +
STACK CFI 1af813 .cfa: $ebp 8 +
STACK CFI 1af81e $ebx: .cfa -16 + ^ $esi: .cfa -12 + ^
STACK CFI 1af88e $ebx: $ebx
STACK CFI 1af88f $esi: $esi
STACK CFI 1af890 $ebp: $ebp .cfa: $esp 4 +
STACK CFI 1af893 $ebp: .cfa -8 + ^ $ebx: .cfa -16 + ^ $esi: .cfa -12 + ^ .cfa: $ebp 8 +
STACK CFI INIT 1c3880 11bc .cfa: $esp 4 + .ra: .cfa -4 + ^
STACK CFI 1c3881 $ebp: .cfa -8 + ^ .cfa: $esp 8 +
STACK CFI 1c3883 .cfa: $ebp 8 +
STACK CFI 1c388e $ebx: .cfa -16 + ^ $esi: .cfa -12 + ^
STACK CFI 1c38fe $ebx: $ebx
STACK CFI 1c38ff $esi: $esi
STACK CFI 1c3900 $ebp: $ebp .cfa: $esp 4 +
STACK CFI 1c3903 $ebp: .cfa -8 + ^ $ebx: .cfa -16 + ^ $esi: .cfa -12 + ^ .cfa: $ebp 8 +
STACK CFI INIT 103f0 f6 .cfa: $esp 4 + .ra: .cfa -4 + ^
STACK CFI 103f1 $ebp: .cfa -8 + ^ .cfa: $esp 8 +
STACK CFI 103f2 $edi: .cfa -12 + ^ .cfa: $esp 12 +
STACK CFI 103f5 $esi: .cfa -16 + ^ .cfa: $esp 16 +
STACK CFI 103f6 $ebx: .cfa -20 + ^ .cfa: $esp 20 +
STACK CFI 103fb .cfa: $esp 48 +
STACK CFI 104cd .cfa: $esp 20 +
STACK CFI 104ce $ebx: $ebx .cfa: $esp 16 +
STACK CFI 104cf $esi: $esi .cfa: $esp 12 +
STACK CFI 104d0 $edi: $edi .cfa: $esp 8 +
STACK CFI 104d1 $ebp: $ebp .cfa: $esp 4 +
STACK CFI 104d2 $ebp: .cfa -8 + ^ $ebx: .cfa -20 + ^ $edi: .cfa -12 + ^ $esi: .cfa -16 + ^ .cfa: $esp 48 +
STACK CFI 104db .cfa: $esp 20 +
STACK CFI 104dc $ebx: $ebx .cfa: $esp 16 +
STACK CFI 104dd $esi: $esi .cfa: $esp 12 +
STACK CFI 104de $edi: $edi .cfa: $esp 8 +
STACK CFI 104df $ebp: $ebp .cfa: $esp 4 +
STACK CFI 104e0 $ebp: .cfa -8 + ^ $ebx: .cfa -20 + ^ $edi: .cfa -12 + ^ $esi: .cfa -16 + ^ .cfa: $esp 48 +
STACK CFI INIT 104f0 a .cfa: $esp 4 + .ra: .cfa -4 + ^
STACK CFI INIT 10500 a2 .cfa: $esp 4 + .ra: .cfa -4 + ^
STACK CFI 10501 $edi: .cfa -8 + ^ .cfa: $esp 8 +
STACK CFI 10502 $esi: .cfa -12 + ^ .cfa: $esp 12 +
STACK CFI 10505 $ebx: .cfa -16 + ^ .cfa: $esp 16 +
STACK CFI 10508 .cfa: $esp 48 +
STACK CFI 10541 .cfa: $esp 16 +
STACK CFI 10542 $ebx: $ebx .cfa: $esp 12 +
STACK CFI 10543 $esi: $esi .cfa: $esp 8 +
STACK CFI 10544 $edi: $edi .cfa: $esp 4 +
STACK CFI 10550 $ebx: .cfa -16 + ^ $edi: .cfa -8 + ^ $esi: .cfa -12 + ^ .cfa: $esp 48 +
STACK CFI 10566 .cfa: $esp 40 +
STACK CFI 10569 .cfa: $esp 48 +
STACK CFI INIT 105b0 7b .cfa: $esp 4 + .ra: .cfa -4 + ^
STACK CFI 105b3 .cfa: $esp 32 +
STACK CFI 1062a .cfa: $esp 4 +
STACK CFI INIT 10630 7f .cfa: $esp 4 + .ra: .cfa -4 + ^
STACK CFI 10631 $ebx: .cfa -8 + ^ .cfa: $esp 8 +
STACK CFI 10634 .cfa: $esp 32 +
STACK CFI 106ad .cfa: $esp 8 +
STACK CFI 106ae $ebx: $ebx .cfa: $esp 4 +
STACK CFI INIT 106b0 d0 .cfa: $esp 4 + .ra: .cfa -4 + ^
STACK CFI 106b1 $ebp: .cfa -8 + ^ .cfa: $esp 8 +
STACK CFI 106b2 $edi: .cfa -12 + ^ .cfa: $esp 12 +
STACK CFI 106b3 $esi: .cfa -16 + ^ .cfa: $esp 16 +
STACK CFI 106b4 $ebx: .cfa -20 + ^ .cfa: $esp 20 +
STACK CFI 106b7 .cfa: $esp 48 +
STACK CFI 106f5 .cfa: $esp 20 +
STACK CFI 106f6 $ebx: $ebx .cfa: $esp 16 +
STACK CFI 106f7 $esi: $esi .cfa: $esp 12 +
STACK CFI 106f8 $edi: $edi .cfa: $esp 8 +
STACK CFI 106f9 $ebp: $ebp .cfa: $esp 4 +
STACK CFI 10700 $ebp: .cfa -8 + ^ $ebx: .cfa -20 + ^ $edi: .cfa -12 + ^ $esi: .cfa -16 + ^ .cfa: $esp 48 +
STACK CFI INIT 10780 57 .cfa: $esp 4 + .ra: .cfa -4 + ^
STACK CFI 10781 $esi: .cfa -8 + ^ .cfa: $esp 8 +
STACK CFI 10782 $ebx: .cfa -12 + ^ .cfa: $esp 12 +
STACK CFI 10785 .cfa: $esp 32 +
STACK CFI 107d4 .cfa: $esp 12 +
STACK CFI 107d5 $ebx: $ebx .cfa: $esp 8 +
STACK CFI 107d6 $esi: $esi .cfa: $esp 4 +
STACK CFI INIT 107e0 b2 .cfa: $esp 4 + .ra: .cfa -4 + ^
STACK CFI 107ef $ebx: .cfa -8 + ^ .cfa: $esp 8 +
STACK CFI 107f2 .cfa: $esp 64 +
STACK CFI 10885 .cfa: $esp 8 +
STACK CFI 10886 $ebx: $ebx .cfa: $esp 4 +
STACK CFI INIT 108a0 1ec .cfa: $esp 4 + .ra: .cfa -4 + ^
STACK CFI 108a1 $edi: .cfa -8 + ^ .cfa: $esp 8 +
STACK CFI 108a2 $esi: .cfa -12 + ^ .cfa: $esp 12 +
STACK CFI 108a8 $ebx: .cfa -16 + ^ .cfa: $esp 16 +
STACK CFI 108b3 .cfa: $esp 1056 +
STACK CFI 10969 .cfa: $esp 16 +
STACK CFI 1096a $ebx: $ebx .cfa: $esp 12 +
STACK CFI 1096b $esi: $esi .cfa: $esp 8 +
STACK CFI 1096c $edi: $edi .cfa: $esp 4 +
STACK CFI 10970 $ebx: .cfa -16 + ^ $edi: .cfa -8 + ^ $esi: .cfa -12 + ^ .cfa: $esp 1056 +
STACK CFI 10a1b .cfa: $esp 16 +
STACK CFI 10a1e $ebx: $ebx .cfa: $esp 12 +
STACK CFI 10a1f $esi: $esi .cfa: $esp 8 +
STACK CFI 10a20 $edi: $edi .cfa: $esp 4 +
STACK CFI 10a21 $ebx: .cfa -16 + ^ $edi: .cfa -8 + ^ $esi: .cfa -12 + ^ .cfa: $esp 1056 +
STACK CFI INIT 10a90 537 .cfa: $esp 4 + .ra: .cfa -4 + ^
STACK CFI 10a91 $ebp: .cfa -8 + ^ .cfa: $esp 8 +
STACK CFI 10a92 $edi: .cfa -12 + ^ .cfa: $esp 12 +
STACK CFI 10a93 $esi: .cfa -16 + ^ .cfa: $esp 16 +
STACK CFI 10a94 $ebx: .cfa -20 + ^ .cfa: $esp 20 +
STACK CFI 10a97 .cfa: $esp 112 +
STACK CFI 10b8a .cfa: $esp 92 +
STACK CFI 10b8d .cfa: $esp 112 +
STACK CFI 10b92 .cfa: $esp 20 +
STACK CFI 10b93 $ebx: $ebx .cfa: $esp 16 +
STACK CFI 10b94 $esi: $esi .cfa: $esp 12 +
STACK CFI 10b95 $edi: $edi .cfa: $esp 8 +
STACK CFI 10b96 $ebp: $ebp .cfa: $esp 4 +
STACK CFI 10ba0 $ebp: .cfa -8 + ^ $ebx: .cfa -20 + ^ $edi: .cfa -12 + ^ $esi: .cfa -16 + ^ .cfa: $esp 112 +
STACK CFI 10c41 .cfa: $esp 92 +
STACK CFI 10c44 .cfa: $esp 112 +
STACK CFI 10c59 .cfa: $esp 20 +
STACK CFI 10c5c $ebx: $ebx .cfa: $esp 16 +
STACK CFI 10c5d $esi: $esi .cfa: $esp 12 +
STACK CFI 10c5e $edi: $edi .cfa: $esp 8 +
STACK CFI 10c5f $ebp: $ebp .cfa: $esp 4 +
STACK CFI 10c60 $ebp: .cfa -8 + ^ $ebx: .cfa -20 + ^ $edi: .cfa -12 + ^ $esi: .cfa -16 + ^ .cfa: $esp 112 +
STACK CFI 10c95 .cfa: $esp 92 +
STACK CFI 10c98 .cfa: $esp 112 +
STACK CFI 10d45 .cfa: $esp 100 +
STACK CFI 10d48 .cfa: $esp 112 +
STACK CFI 10d4d .cfa: $esp 20 +
STACK CFI 10d4e $ebx: $ebx .cfa: $esp 16 +
STACK CFI 10d4f $esi: $esi .cfa: $esp 12 +
STACK CFI 10d50 $edi: $edi .cfa: $esp 8 +
STACK CFI 10d51 $ebp: $ebp .cfa: $esp 4 +
STACK CFI 10d52 $ebp: .cfa -8 + ^ $ebx: .cfa -20 + ^ $edi: .cfa -12 + ^ $esi: .cfa -16 + ^ .cfa: $esp 112 +
STACK CFI 10e2f .cfa: $esp 96 +
STACK CFI 10e32 .cfa: $esp 112 +
STACK CFI 10e35 .cfa: $esp 20 +
STACK CFI 10e38 $ebx: $ebx .cfa: $esp 16 +
STACK CFI 10e3b $esi: $esi .cfa: $esp 12 +
STACK CFI 10e3c $edi: $edi .cfa: $esp 8 +
STACK CFI 10e3d $ebp: $ebp .cfa: $esp 4 +
STACK CFI 10e40 $ebp: .cfa -8 + ^ $ebx: .cfa -20 + ^ $edi: .cfa -12 + ^ $esi: .cfa -16 + ^ .cfa: $esp 112 +
STACK CFI 10ebf .cfa: $esp 84 +
STACK CFI 10ec2 .cfa: $esp 112 +
STACK CFI 10f66 .cfa: $esp 100 +
STACK CFI 10f69 .cfa: $esp 112 +
STACK CFI INIT 10fd0 1af .cfa: $esp 4 + .ra: .cfa -4 + ^
STACK CFI 10fd1 $esi: .cfa -8 + ^ .cfa: $esp 8 +
STACK CFI 10fd2 $ebx: .cfa -12 + ^ .cfa: $esp 12 +
STACK CFI 10fd5 .cfa: $esp 64 +
STACK CFI 11003 .cfa: $esp 12 +
STACK CFI 11004 $ebx: $ebx .cfa: $esp 8 +
STACK CFI 11005 $esi: $esi .cfa: $esp 4 +
STACK CFI 11010 $ebx: .cfa -12 + ^ $esi: .cfa -8 + ^ .cfa: $esp 64 +
STACK CFI 1108b .cfa: $esp 12 +
STACK CFI 1108c $ebx: $ebx .cfa: $esp 8 +
STACK CFI 1108d $esi: $esi .cfa: $esp 4 +
STACK CFI 11090 $ebx: .cfa -12 + ^ $esi: .cfa -8 + ^ .cfa: $esp 64 +
STACK CFI 110f4 .cfa: $esp 12 +
STACK CFI 110f5 $ebx: $ebx .cfa: $esp 8 +
STACK CFI 110f6 $esi: $esi .cfa: $esp 4 +
STACK CFI 11100 $ebx: .cfa -12 + ^ $esi: .cfa -8 + ^ .cfa: $esp 64 +
STACK CFI 11121 .cfa: $esp 52 +
STACK CFI 11124 .cfa: $esp 64 +
STACK CFI 1117c .cfa: $esp 12 +
STACK CFI 1117d $ebx: $ebx .cfa: $esp 8 +
STACK CFI 1117e $esi: $esi .cfa: $esp 4 +
STACK CFI INIT 11180 1bc .cfa: $esp 4 + .ra: .cfa -4 + ^
STACK CFI 11181 $esi: .cfa -8 + ^ .cfa: $esp 8 +
STACK CFI 11182 $ebx: .cfa -12 + ^ .cfa: $esp 12 +
STACK CFI 11188 .cfa: $esp 1504 +
STACK CFI 112b7 .cfa: $esp 12 +
STACK CFI 112b8 $ebx: $ebx .cfa: $esp 8 +
STACK CFI 112b9 $esi: $esi .cfa: $esp 4 +
STACK CFI 112c0 $ebx: .cfa -12 + ^ $esi: .cfa -8 + ^ .cfa: $esp 1504 +
STACK CFI 112d1 .cfa: $esp 12 +
STACK CFI 112d2 $ebx: $ebx .cfa: $esp 8 +
STACK CFI 112d3 $esi: $esi .cfa: $esp 4 +
STACK CFI 112d4 $ebx: .cfa -12 + ^ $esi: .cfa -8 + ^ .cfa: $esp 1504 +
STACK CFI 1131b .cfa: $esp 1476 +
STACK CFI 1131e .cfa: $esp 1504 +
STACK CFI INIT 11340 1c6 .cfa: $esp 4 + .ra: .cfa -4 + ^
STACK CFI 11341 $edi: .cfa -8 + ^ .cfa: $esp 8 +
STACK CFI 11342 $esi: .cfa -12 + ^ .cfa: $esp 12 +
STACK CFI 11343 $ebx: .cfa -16 + ^ .cfa: $esp 16 +
STACK CFI 11349 .cfa: $esp 1504 +
STACK CFI 11434 .cfa: $esp 16 +
STACK CFI 11435 $ebx: $ebx .cfa: $esp 12 +
STACK CFI 11436 $esi: $esi .cfa: $esp 8 +
STACK CFI 11437 $edi: $edi .cfa: $esp 4 +
STACK CFI 11440 $ebx: .cfa -16 + ^ $edi: .cfa -8 + ^ $esi: .cfa -12 + ^ .cfa: $esp 1504 +
STACK CFI 11478 .cfa: $esp 16 +
STACK CFI 11479 $ebx: $ebx .cfa: $esp 12 +
STACK CFI 1147a $esi: $esi .cfa: $esp 8 +
STACK CFI 1147b $edi: $edi .cfa: $esp 4 +
STACK CFI 11480 $ebx: .cfa -16 + ^ $edi: .cfa -8 + ^ $esi: .cfa -12 + ^ .cfa: $esp 1504 +
STACK CFI 114c8 .cfa: $esp 1480 +
STACK CFI 114cb .cfa: $esp 1504 +
STACK CFI 114d1 .cfa: $esp 16 +
STACK CFI 114d2 $ebx: $ebx .cfa: $esp 12 +
STACK CFI 114d3 $esi: $esi .cfa: $esp 8 +
STACK CFI 114d4 $edi: $edi .cfa: $esp 4 +
STACK CFI 114d5 $ebx: .cfa -16 + ^ $edi: .cfa -8 + ^ $esi: .cfa -12 + ^ .cfa: $esp 1504 +
STACK CFI INIT 216f00 1d .cfa: $esp 4 + .ra: .cfa -4 + ^
STACK CFI 216f03 .cfa: $esp 32 +
STACK CFI 216f1c .cfa: $esp 4 +
STACK CFI INIT 1c7fc0 1232 .cfa: $esp 4 + .ra: .cfa -4 + ^
STACK CFI 1c7fc1 $ebp: .cfa -8 + ^ .cfa: $esp 8 +
STACK CFI 1c7fc3 .cfa: $ebp 8 +
STACK CFI 1c7fce $ebx: .cfa -16 + ^ $esi: .cfa -12 + ^
STACK CFI 1c803e $ebx: $ebx
STACK CFI 1c803f $esi: $esi
STACK CFI 1c8040 $ebp: $ebp .cfa: $esp 4 +
STACK CFI 1c8043 $ebp: .cfa -8 + ^ $ebx: .cfa -16 + ^ $esi: .cfa -12 + ^ .cfa: $ebp 8 +
STACK CFI INIT 1c9200 1212 .cfa: $esp 4 + .ra: .cfa -4 + ^
STACK CFI 1c9201 $ebp: .cfa -8 + ^ .cfa: $esp 8 +
STACK CFI 1c9203 .cfa: $ebp 8 +
STACK CFI 1c920e $ebx: .cfa -16 + ^ $esi: .cfa -12 + ^
STACK CFI 1c927e $ebx: $ebx
STACK CFI 1c927f $esi: $esi
STACK CFI 1c9280 $ebp: $ebp .cfa: $esp 4 +
STACK CFI 1c9283 $ebp: .cfa -8 + ^ $ebx: .cfa -16 + ^ $esi: .cfa -12 + ^ .cfa: $ebp 8 +
STACK CFI INIT 1c6dc0 11f2 .cfa: $esp 4 + .ra: .cfa -4 + ^
STACK CFI 1c6dc1 $ebp: .cfa -8 + ^ .cfa: $esp 8 +
STACK CFI 1c6dc3 .cfa: $ebp 8 +
STACK CFI 1c6dce $ebx: .cfa -16 + ^ $esi: .cfa -12 + ^
STACK CFI 1c6e3e $ebx: $ebx
STACK CFI 1c6e3f $esi: $esi
STACK CFI 1c6e40 $ebp: $ebp .cfa: $esp 4 +
STACK CFI 1c6e43 $ebp: .cfa -8 + ^ $ebx: .cfa -16 + ^ $esi: .cfa -12 + ^ .cfa: $ebp 8 +
STACK CFI INIT 1a7fd0 11d2 .cfa: $esp 4 + .ra: .cfa -4 + ^
STACK CFI 1a7fd1 $ebp: .cfa -8 + ^ .cfa: $esp 8 +
STACK CFI 1a7fd3 .cfa: $ebp 8 +
STACK CFI 1a7fde $ebx: .cfa -16 + ^ $esi: .cfa -12 + ^
STACK CFI 1a804e $ebx: $ebx
STACK CFI 1a804f $esi: $esi
STACK CFI 1a8050 $ebp: $ebp .cfa: $esp 4 +
STACK CFI 1a8053 $ebp: .cfa -8 + ^ $ebx: .cfa -16 + ^ $esi: .cfa -12 + ^ .cfa: $ebp 8 +
STACK CFI INIT 168590 8 .cfa: $esp 4 + .ra: .cfa -4 + ^
STACK CFI INIT 168540 8 .cfa: $esp 4 + .ra: .cfa -4 + ^
STACK CFI INIT 163be0 5f .cfa: $esp 4 + .ra: .cfa -4 + ^
STACK CFI 163be3 .cfa: $esp 48 +
STACK CFI 163c2f .cfa: $esp 4 +
STACK CFI 163c30 .cfa: $esp 48 +
STACK CFI 163c38 .cfa: $esp 44 +
STACK CFI 163c3b .cfa: $esp 48 +
STACK CFI 163c3e .cfa: $esp 4 +
STACK CFI INIT 11510 a .cfa: $esp 4 + .ra: .cfa -4 + ^
STACK CFI INIT 11520 31 .cfa: $esp 4 + .ra: .cfa -4 + ^
STACK CFI 11521 $esi: .cfa -8 + ^ .cfa: $esp 8 +
STACK CFI 11528 $ebx: .cfa -12 + ^ .cfa: $esp 12 +
STACK CFI 11545 $ebx: $ebx .cfa: $esp 8 +
STACK CFI 11546 $esi: $esi .cfa: $esp 4 +
STACK CFI INIT 11560 a2 .cfa: $esp 4 + .ra: .cfa -4 + ^
STACK CFI 11561 $edi: .cfa -8 + ^ .cfa: $esp 8 +
STACK CFI 11562 $esi: .cfa -12 + ^ .cfa: $esp 12 +
STACK CFI 11565 $ebx: .cfa -16 + ^ .cfa: $esp 16 +
STACK CFI 11568 .cfa: $esp 48 +
STACK CFI 115a1 .cfa: $esp 16 +
STACK CFI 115a2 $ebx: $ebx .cfa: $esp 12 +
STACK CFI 115a3 $esi: $esi .cfa: $esp 8 +
STACK CFI 115a4 $edi: $edi .cfa: $esp 4 +
STACK CFI 115b0 $ebx: .cfa -16 + ^ $edi: .cfa -8 + ^ $esi: .cfa -12 + ^ .cfa: $esp 48 +
STACK CFI 115c6 .cfa: $esp 40 +
STACK CFI 115c9 .cfa: $esp 48 +
STACK CFI INIT 11610 10a .cfa: $esp 4 + .ra: .cfa -4 + ^
STACK CFI 1161c $ebp: .cfa -8 + ^ .cfa: $esp 8 +
STACK CFI 1161d $edi: .cfa -12 + ^ .cfa: $esp 12 +
STACK CFI 1161e $esi: .cfa -16 + ^ .cfa: $esp 16 +
STACK CFI 1161f $ebx: .cfa -20 + ^ .cfa: $esp 20 +
STACK CFI 11622 .cfa: $esp 64 +
STACK CFI 11638 .cfa: $esp 20 +
STACK CFI 11639 $ebx: $ebx .cfa: $esp 16 +
STACK CFI 1163a $esi: $esi .cfa: $esp 12 +
STACK CFI 1163b $edi: $edi .cfa: $esp 8 +
STACK CFI 1163c $ebp: $ebp .cfa: $esp 4 +
STACK CFI 11642 $ebp: .cfa -8 + ^ $ebx: .cfa -20 + ^ $edi: .cfa -12 + ^ $esi: .cfa -16 + ^ .cfa: $esp 64 +
STACK CFI INIT 11720 42a .cfa: $esp 4 + .ra: .cfa -4 + ^
STACK CFI 11723 .cfa: $esp 16 +
STACK CFI 1178c .cfa: $esp 4 +
STACK CFI 11790 .cfa: $esp 16 +
STACK CFI INIT 11b50 127 .cfa: $esp 4 + .ra: .cfa -4 + ^
STACK CFI INIT 11c80 63 .cfa: $esp 4 + .ra: .cfa -4 + ^
STACK CFI 11c81 $esi: .cfa -8 + ^ .cfa: $esp 8 +
STACK CFI 11c82 $ebx: .cfa -12 + ^ .cfa: $esp 12 +
STACK CFI 11c8f .cfa: $esp 48 +
STACK CFI 11ccf .cfa: $esp 20 +
STACK CFI 11cd2 .cfa: $esp 48 +
STACK CFI 11ce0 .cfa: $esp 12 +
STACK CFI 11ce1 $ebx: $ebx .cfa: $esp 8 +
STACK CFI 11ce2 $esi: $esi .cfa: $esp 4 +
STACK CFI INIT 11cf0 da .cfa: $esp 4 + .ra: .cfa -4 + ^
STACK CFI 11cf1 $edi: .cfa -8 + ^ .cfa: $esp 8 +
STACK CFI 11cf2 $ebx: .cfa -12 + ^ .cfa: $esp 12 +
STACK CFI 11cf8 .cfa: $esp 160 +
STACK CFI 11d1a .cfa: $esp 12 +
STACK CFI 11d20 $ebx: $ebx .cfa: $esp 8 +
STACK CFI 11d21 $edi: $edi .cfa: $esp 4 +
STACK CFI 11d22 $ebx: .cfa -12 + ^ $edi: .cfa -8 + ^ .cfa: $esp 160 +
STACK CFI 11d62 .cfa: $esp 12 +
STACK CFI 11d68 $ebx: $ebx .cfa: $esp 8 +
STACK CFI 11d69 $edi: $edi .cfa: $esp 4 +
STACK CFI 11d70 $ebx: .cfa -12 + ^ $edi: .cfa -8 + ^ .cfa: $esp 160 +
STACK CFI 11d92 .cfa: $esp 12 +
STACK CFI 11d98 $ebx: $ebx .cfa: $esp 8 +
STACK CFI 11d99 $edi: $edi .cfa: $esp 4 +
STACK CFI 11da0 $ebx: .cfa -12 + ^ $edi: .cfa -8 + ^ .cfa: $esp 160 +
STACK CFI 11dc2 .cfa: $esp 12 +
STACK CFI 11dc8 $ebx: $ebx .cfa: $esp 8 +
STACK CFI 11dc9 $edi: $edi .cfa: $esp 4 +
STACK CFI INIT 11dd0 1f1 .cfa: $esp 4 + .ra: .cfa -4 + ^
STACK CFI 11dd1 $ebx: .cfa -8 + ^ .cfa: $esp 8 +
STACK CFI 11dd4 .cfa: $esp 64 +
STACK CFI 11e12 .cfa: $esp 60 +
STACK CFI 11e15 .cfa: $esp 64 +
STACK CFI 11e8b .cfa: $esp 8 +
STACK CFI 11e91 $ebx: $ebx .cfa: $esp 4 +
STACK CFI 11e92 $ebx: .cfa -8 + ^ .cfa: $esp 64 +
STACK CFI 11ebe .cfa: $esp 60 +
STACK CFI 11ec1 .cfa: $esp 64 +
STACK CFI 11f37 .cfa: $esp 8 +
STACK CFI 11f3d $ebx: $ebx .cfa: $esp 4 +
STACK CFI 11f40 $ebx: .cfa -8 + ^ .cfa: $esp 64 +
STACK CFI 11f5f .cfa: $esp 8 +
STACK CFI 11f65 $ebx: $ebx .cfa: $esp 4 +
STACK CFI 11f70 $ebx: .cfa -8 + ^ .cfa: $esp 64 +
STACK CFI 11f8f .cfa: $esp 8 +
STACK CFI 11f95 $ebx: $ebx .cfa: $esp 4 +
STACK CFI 11fa0 $ebx: .cfa -8 + ^ .cfa: $esp 64 +
STACK CFI INIT 11fd0 9 .cfa: $esp 4 + .ra: .cfa -4 + ^
STACK CFI INIT 11fe0 121 .cfa: $esp 4 + .ra: .cfa -4 + ^
STACK CFI 11fe1 $ebp: .cfa -8 + ^ .cfa: $esp 8 +
STACK CFI 11fe2 $edi: .cfa -12 + ^ .cfa: $esp 12 +
STACK CFI 11fe8 $esi: .cfa -16 + ^ .cfa: $esp 16 +
STACK CFI 11fe9 $ebx: .cfa -20 + ^ .cfa: $esp 20 +
STACK CFI 11fec .cfa: $esp 28 +
STACK CFI 1206e .cfa: $esp 20 +
STACK CFI 1206f $ebx: $ebx .cfa: $esp 16 +
STACK CFI 12070 $esi: $esi .cfa: $esp 12 +
STACK CFI 12071 $edi: $edi .cfa: $esp 8 +
STACK CFI 12072 $ebp: $ebp .cfa: $esp 4 +
STACK CFI 12073 $ebp: .cfa -8 + ^ $ebx: .cfa -20 + ^ $edi: .cfa -12 + ^ $esi: .cfa -16 + ^ .cfa: $esp 28 +
STACK CFI 120a3 .cfa: $esp 20 +
STACK CFI 120a6 $ebx: $ebx .cfa: $esp 16 +
STACK CFI 120a7 $esi: $esi .cfa: $esp 12 +
STACK CFI 120a8 $edi: $edi .cfa: $esp 8 +
STACK CFI 120a9 $ebp: $ebp .cfa: $esp 4 +
STACK CFI 120b0 $ebp: .cfa -8 + ^ $ebx: .cfa -20 + ^ $edi: .cfa -12 + ^ $esi: .cfa -16 + ^ .cfa: $esp 28 +
STACK CFI INIT 12110 72 .cfa: $esp 4 + .ra: .cfa -4 + ^
STACK CFI 1211d .cfa: $esp 48 +
STACK CFI 1212e .cfa: $esp 44 +
STACK CFI 12131 .cfa: $esp 48 +
STACK CFI 1213e .cfa: $esp 4 +
STACK CFI 12140 .cfa: $esp 48 +
STACK CFI 12169 .cfa: $esp 28 +
STACK CFI 1216c .cfa: $esp 48 +
STACK CFI 12179 .cfa: $esp 4 +
STACK CFI INIT 12190 7e .cfa: $esp 4 + .ra: .cfa -4 + ^
STACK CFI 12193 .cfa: $esp 48 +
STACK CFI 121d4 .cfa: $esp 4 +
STACK CFI 121d5 .cfa: $esp 48 +
STACK CFI 121da .cfa: $esp 4 +
STACK CFI 121e0 .cfa: $esp 48 +
STACK CFI 121f6 .cfa: $esp 44 +
STACK CFI 121f9 .cfa: $esp 48 +
STACK CFI 1220d .cfa: $esp 4 +
STACK CFI INIT 12210 e8 .cfa: $esp 4 + .ra: .cfa -4 + ^
STACK CFI 12211 $ebx: .cfa -8 + ^ .cfa: $esp 8 +
STACK CFI 12217 .cfa: $esp 320 +
STACK CFI 122be .cfa: $esp 300 +
STACK CFI 122c1 .cfa: $esp 320 +
STACK CFI 122c7 .cfa: $esp 8 +
STACK CFI 122c8 $ebx: $ebx .cfa: $esp 4 +
STACK CFI 122d0 $ebx: .cfa -8 + ^ .cfa: $esp 320 +
STACK CFI INIT 12300 1e1 .cfa: $esp 4 + .ra: .cfa -4 + ^
STACK CFI 12301 $edi: .cfa -8 + ^ .cfa: $esp 8 +
STACK CFI 12302 $esi: .cfa -12 + ^ .cfa: $esp 12 +
STACK CFI 12303 $ebx: .cfa -16 + ^ .cfa: $esp 16 +
STACK CFI 12306 .cfa: $esp 32 +
STACK CFI 12322 .cfa: $esp 16 +
STACK CFI 12323 $ebx: $ebx .cfa: $esp 12 +
STACK CFI 12324 $esi: $esi .cfa: $esp 8 +
STACK CFI 12325 $edi: $edi .cfa: $esp 4 +
STACK CFI 12330 $ebx: .cfa -16 + ^ $edi: .cfa -8 + ^ $esi: .cfa -12 + ^ .cfa: $esp 32 +
STACK CFI 12393 .cfa: $esp 24 +
STACK CFI 12398 .cfa: $esp 32 +
STACK CFI INIT 124f0 c1 .cfa: $esp 4 + .ra: .cfa -4 + ^
STACK CFI 124f3 .cfa: $esp 96 +
STACK CFI 125b0 .cfa: $esp 4 +
STACK CFI INIT 125c0 10a .cfa: $esp 4 + .ra: .cfa -4 + ^
STACK CFI 125c1 $edi: .cfa -8 + ^ .cfa: $esp 8 +
STACK CFI 125c2 $esi: .cfa -12 + ^ .cfa: $esp 12 +
STACK CFI 125c3 $ebx: .cfa -16 + ^ .cfa: $esp 16 +
STACK CFI 125c9 .cfa: $esp 176 +
STACK CFI 126c6 .cfa: $esp 16 +
STACK CFI 126c7 $ebx: $ebx .cfa: $esp 12 +
STACK CFI 126c8 $esi: $esi .cfa: $esp 8 +
STACK CFI 126c9 $edi: $edi .cfa: $esp 4 +
STACK CFI INIT 126d0 b2 .cfa: $esp 4 + .ra: .cfa -4 + ^
STACK CFI 126de $edi: .cfa -8 + ^ .cfa: $esp 8 +
STACK CFI 126df $esi: .cfa -12 + ^ .cfa: $esp 12 +
STACK CFI 126e2 $ebx: .cfa -16 + ^ .cfa: $esp 16 +
STACK CFI 126ea .cfa: $esp 80 +
STACK CFI 1273f .cfa: $esp 68 +
STACK CFI 12742 .cfa: $esp 80 +
STACK CFI 12761 .cfa: $esp 68 +
STACK CFI 12764 .cfa: $esp 80 +
STACK CFI 12773 .cfa: $esp 16 +
STACK CFI 12774 $ebx: $ebx .cfa: $esp 12 +
STACK CFI 12775 $esi: $esi .cfa: $esp 8 +
STACK CFI 12776 $edi: $edi .cfa: $esp 4 +
STACK CFI INIT 12790 1a2 .cfa: $esp 4 + .ra: .cfa -4 + ^
STACK CFI 12791 $ebx: .cfa -8 + ^ .cfa: $esp 8 +
STACK CFI 12797 .cfa: $esp 368 +
STACK CFI 127be .cfa: $esp 360 +
STACK CFI 127c1 .cfa: $esp 368 +
STACK CFI 127cc .cfa: $esp 8 +
STACK CFI 127cd $ebx: $ebx .cfa: $esp 4 +
STACK CFI 127d0 $ebx: .cfa -8 + ^ .cfa: $esp 368 +
STACK CFI 127ed .cfa: $esp 356 +
STACK CFI 127f2 .cfa: $esp 368 +
STACK CFI 12829 .cfa: $esp 352 +
STACK CFI 1282c .cfa: $esp 368 +
STACK CFI 12841 .cfa: $esp 364 +
STACK CFI 12844 .cfa: $esp 368 +
STACK CFI 1284a .cfa: $esp 8 +
STACK CFI 1284b $ebx: $ebx .cfa: $esp 4 +
STACK CFI 12850 $ebx: .cfa -8 + ^ .cfa: $esp 368 +
STACK CFI INIT 12940 2be .cfa: $esp 4 + .ra: .cfa -4 + ^
STACK CFI 12941 $ebp: .cfa -8 + ^ .cfa: $esp 8 +
STACK CFI 12942 $edi: .cfa -12 + ^ .cfa: $esp 12 +
STACK CFI 12943 $esi: .cfa -16 + ^ .cfa: $esp 16 +
STACK CFI 12944 $ebx: .cfa -20 + ^ .cfa: $esp 20 +
STACK CFI 12949 .cfa: $esp 112 +
STACK CFI 129be .cfa: $esp 96 +
STACK CFI 129c1 .cfa: $esp 112 +
STACK CFI 12a41 .cfa: $esp 100 +
STACK CFI 12a44 .cfa: $esp 112 +
STACK CFI 12a5b .cfa: $esp 108 +
STACK CFI 12a5e .cfa: $esp 112 +
STACK CFI 12a66 .cfa: $esp 20 +
STACK CFI 12a67 $ebx: $ebx .cfa: $esp 16 +
STACK CFI 12a68 $esi: $esi .cfa: $esp 12 +
STACK CFI 12a69 $edi: $edi .cfa: $esp 8 +
STACK CFI 12a6a $ebp: $ebp .cfa: $esp 4 +
STACK CFI 12a70 $ebp: .cfa -8 + ^ $ebx: .cfa -20 + ^ $edi: .cfa -12 + ^ $esi: .cfa -16 + ^ .cfa: $esp 112 +
STACK CFI 12abf .cfa: $esp 108 +
STACK CFI 12ac2 .cfa: $esp 112 +
STACK CFI 12aca .cfa: $esp 20 +
STACK CFI 12acb $ebx: $ebx .cfa: $esp 16 +
STACK CFI 12acc $esi: $esi .cfa: $esp 12 +
STACK CFI 12acd $edi: $edi .cfa: $esp 8 +
STACK CFI 12ace $ebp: $ebp .cfa: $esp 4 +
STACK CFI 12ad0 $ebp: .cfa -8 + ^ $ebx: .cfa -20 + ^ $edi: .cfa -12 + ^ $esi: .cfa -16 + ^ .cfa: $esp 112 +
STACK CFI 12b05 .cfa: $esp 96 +
STACK CFI 12b08 .cfa: $esp 112 +
STACK CFI INIT 12c00 a2 .cfa: $esp 4 + .ra: .cfa -4 + ^
STACK CFI 12c01 $ebx: .cfa -8 + ^ .cfa: $esp 8 +
STACK CFI 12c0c .cfa: $esp 160 +
STACK CFI 12c5d .cfa: $esp 8 +
STACK CFI 12c60 $ebx: $ebx .cfa: $esp 4 +
STACK CFI 12c61 $ebx: .cfa -8 + ^ .cfa: $esp 160 +
STACK CFI 12c8b .cfa: $esp 8 +
STACK CFI 12c8e $ebx: $ebx .cfa: $esp 4 +
STACK CFI 12c90 $ebx: .cfa -8 + ^ .cfa: $esp 160 +
STACK CFI INIT 12cb0 ce .cfa: $esp 4 + .ra: .cfa -4 + ^
STACK CFI 12cb3 .cfa: $esp 64 +
STACK CFI 12d16 .cfa: $esp 4 +
STACK CFI 12d20 .cfa: $esp 64 +
STACK CFI 12d43 .cfa: $esp 52 +
STACK CFI 12d50 .cfa: $esp 64 +
STACK CFI 12d6d .cfa: $esp 4 +
STACK CFI 12d70 .cfa: $esp 64 +
STACK CFI 12d7d .cfa: $esp 4 +
STACK CFI INIT 12d80 336 .cfa: $esp 4 + .ra: .cfa -4 + ^
STACK CFI 12d81 $ebp: .cfa -8 + ^ .cfa: $esp 8 +
STACK CFI 12d82 $edi: .cfa -12 + ^ .cfa: $esp 12 +
STACK CFI 12d83 $esi: .cfa -16 + ^ .cfa: $esp 16 +
STACK CFI 12d84 $ebx: .cfa -20 + ^ .cfa: $esp 20 +
STACK CFI 12d8a .cfa: $esp 208 +
STACK CFI 12e76 .cfa: $esp 192 +
STACK CFI 12e79 .cfa: $esp 208 +
STACK CFI 12e7f .cfa: $esp 20 +
STACK CFI 12e80 $ebx: $ebx .cfa: $esp 16 +
STACK CFI 12e81 $esi: $esi .cfa: $esp 12 +
STACK CFI 12e82 $edi: $edi .cfa: $esp 8 +
STACK CFI 12e83 $ebp: $ebp .cfa: $esp 4 +
STACK CFI 12e84 $ebp: .cfa -8 + ^ $ebx: .cfa -20 + ^ $edi: .cfa -12 + ^ $esi: .cfa -16 + ^ .cfa: $esp 208 +
STACK CFI 12ef2 .cfa: $esp 184 +
STACK CFI 12ef5 .cfa: $esp 208 +
STACK CFI 12f04 .cfa: $esp 20 +
STACK CFI 12f05 $ebx: $ebx .cfa: $esp 16 +
STACK CFI 12f06 $esi: $esi .cfa: $esp 12 +
STACK CFI 12f07 $edi: $edi .cfa: $esp 8 +
STACK CFI 12f08 $ebp: $ebp .cfa: $esp 4 +
STACK CFI 12f10 $ebp: .cfa -8 + ^ $ebx: .cfa -20 + ^ $edi: .cfa -12 + ^ $esi: .cfa -16 + ^ .cfa: $esp 208 +
STACK CFI 12fa6 .cfa: $esp 184 +
STACK CFI 12fa9 .cfa: $esp 208 +
STACK CFI 12fda .cfa: $esp 196 +
STACK CFI 12fdd .cfa: $esp 208 +
STACK CFI 13059 .cfa: $esp 184 +
STACK CFI 1305c .cfa: $esp 208 +
STACK CFI 1309a .cfa: $esp 196 +
STACK CFI 1309d .cfa: $esp 208 +
STACK CFI INIT 130c0 446 .cfa: $esp 4 + .ra: .cfa -4 + ^
STACK CFI 130c1 $ebp: .cfa -8 + ^ .cfa: $esp 8 +
STACK CFI 130c2 $edi: .cfa -12 + ^ .cfa: $esp 12 +
STACK CFI 130c3 $esi: .cfa -16 + ^ .cfa: $esp 16 +
STACK CFI 130c4 $ebx: .cfa -20 + ^ .cfa: $esp 20 +
STACK CFI 130ca .cfa: $esp 240 +
STACK CFI 13106 .cfa: $esp 20 +
STACK CFI 13107 $ebx: $ebx .cfa: $esp 16 +
STACK CFI 13108 $esi: $esi .cfa: $esp 12 +
STACK CFI 13109 $edi: $edi .cfa: $esp 8 +
STACK CFI 1310a $ebp: $ebp .cfa: $esp 4 +
STACK CFI 13110 $ebp: .cfa -8 + ^ $ebx: .cfa -20 + ^ $edi: .cfa -12 + ^ $esi: .cfa -16 + ^ .cfa: $esp 240 +
STACK CFI 1314d .cfa: $esp 216 +
STACK CFI 13150 .cfa: $esp 240 +
STACK CFI 1318d .cfa: $esp 20 +
STACK CFI 13193 $ebx: $ebx .cfa: $esp 16 +
STACK CFI 13194 $esi: $esi .cfa: $esp 12 +
STACK CFI 13195 $edi: $edi .cfa: $esp 8 +
STACK CFI 13196 $ebp: $ebp .cfa: $esp 4 +
STACK CFI 131a0 $ebp: .cfa -8 + ^ $ebx: .cfa -20 + ^ $edi: .cfa -12 + ^ $esi: .cfa -16 + ^ .cfa: $esp 240 +
STACK CFI 131d7 .cfa: $esp 216 +
STACK CFI 131da .cfa: $esp 240 +
STACK CFI 132d9 .cfa: $esp 216 +
STACK CFI 132dc .cfa: $esp 240 +
STACK CFI 13319 .cfa: $esp 20 +
STACK CFI 1331f $ebx: $ebx .cfa: $esp 16 +
STACK CFI 13320 $esi: $esi .cfa: $esp 12 +
STACK CFI 13321 $edi: $edi .cfa: $esp 8 +
STACK CFI 13322 $ebp: $ebp .cfa: $esp 4 +
STACK CFI 13323 $ebp: .cfa -8 + ^ $ebx: .cfa -20 + ^ $edi: .cfa -12 + ^ $esi: .cfa -16 + ^ .cfa: $esp 240 +
STACK CFI 13386 .cfa: $esp 228 +
STACK CFI 13389 .cfa: $esp 240 +
STACK CFI 133f7 .cfa: $esp 228 +
STACK CFI 133fa .cfa: $esp 240 +
STACK CFI 13462 .cfa: $esp 228 +
STACK CFI 13465 .cfa: $esp 240 +
STACK CFI 134e6 .cfa: $esp 228 +
STACK CFI 134eb .cfa: $esp 240 +
STACK CFI INIT 13510 32b .cfa: $esp 4 + .ra: .cfa -4 + ^
STACK CFI 13511 $ebp: .cfa -8 + ^ .cfa: $esp 8 +
STACK CFI 13512 $edi: .cfa -12 + ^ .cfa: $esp 12 +
STACK CFI 13513 $esi: .cfa -16 + ^ .cfa: $esp 16 +
STACK CFI 13514 $ebx: .cfa -20 + ^ .cfa: $esp 20 +
STACK CFI 13517 .cfa: $esp 112 +
STACK CFI 13581 .cfa: $esp 96 +
STACK CFI 13584 .cfa: $esp 112 +
STACK CFI 135a1 .cfa: $esp 100 +
STACK CFI 135a4 .cfa: $esp 112 +
STACK CFI 135c8 .cfa: $esp 100 +
STACK CFI 135cb .cfa: $esp 112 +
STACK CFI 135fd .cfa: $esp 92 +
STACK CFI 13600 .cfa: $esp 112 +
STACK CFI 1364d .cfa: $esp 108 +
STACK CFI 13650 .cfa: $esp 112 +
STACK CFI 1366a .cfa: $esp 100 +
STACK CFI 1366d .cfa: $esp 112 +
STACK CFI 136ac .cfa: $esp 20 +
STACK CFI 136af $ebx: $ebx .cfa: $esp 16 +
STACK CFI 136b0 $esi: $esi .cfa: $esp 12 +
STACK CFI 136b1 $edi: $edi .cfa: $esp 8 +
STACK CFI 136b2 $ebp: $ebp .cfa: $esp 4 +
STACK CFI 136b3 $ebp: .cfa -8 + ^ $ebx: .cfa -20 + ^ $edi: .cfa -12 + ^ $esi: .cfa -16 + ^ .cfa: $esp 112 +
STACK CFI 136fb .cfa: $esp 108 +
STACK CFI 136fe .cfa: $esp 112 +
STACK CFI 13732 .cfa: $esp 100 +
STACK CFI 13735 .cfa: $esp 112 +
STACK CFI 1373a .cfa: $esp 20 +
STACK CFI 1373b $ebx: $ebx .cfa: $esp 16 +
STACK CFI 1373c $esi: $esi .cfa: $esp 12 +
STACK CFI 1373d $edi: $edi .cfa: $esp 8 +
STACK CFI 1373e $ebp: $ebp .cfa: $esp 4 +
STACK CFI 13740 $ebp: .cfa -8 + ^ $ebx: .cfa -20 + ^ $edi: .cfa -12 + ^ $esi: .cfa -16 + ^ .cfa: $esp 112 +
STACK CFI 13766 .cfa: $esp 100 +
STACK CFI 13769 .cfa: $esp 112 +
STACK CFI 13783 .cfa: $esp 108 +
STACK CFI 13786 .cfa: $esp 112 +
STACK CFI 1378b .cfa: $esp 20 +
STACK CFI 1378c $ebx: $ebx .cfa: $esp 16 +
STACK CFI 1378d $esi: $esi .cfa: $esp 12 +
STACK CFI 1378e $edi: $edi .cfa: $esp 8 +
STACK CFI 1378f $ebp: $ebp .cfa: $esp 4 +
STACK CFI 13790 $ebp: .cfa -8 + ^ $ebx: .cfa -20 + ^ $edi: .cfa -12 + ^ $esi: .cfa -16 + ^ .cfa: $esp 112 +
STACK CFI 137ad .cfa: $esp 100 +
STACK CFI 137b0 .cfa: $esp 112 +
STACK CFI 137f9 .cfa: $esp 100 +
STACK CFI 137fc .cfa: $esp 112 +
STACK CFI 13827 .cfa: $esp 100 +
STACK CFI 1382a .cfa: $esp 112 +
STACK CFI INIT 13840 44e .cfa: $esp 4 + .ra: .cfa -4 + ^
STACK CFI 13841 $ebp: .cfa -8 + ^ .cfa: $esp 8 +
STACK CFI 13842 $edi: .cfa -12 + ^ .cfa: $esp 12 +
STACK CFI 13843 $esi: .cfa -16 + ^ .cfa: $esp 16 +
STACK CFI 13844 $ebx: .cfa -20 + ^ .cfa: $esp 20 +
STACK CFI 13847 .cfa: $esp 144 +
STACK CFI 138ed .cfa: $esp 120 +
STACK CFI 138f0 .cfa: $esp 144 +
STACK CFI 1390d .cfa: $esp 132 +
STACK CFI 13910 .cfa: $esp 144 +
STACK CFI 13934 .cfa: $esp 132 +
STACK CFI 13937 .cfa: $esp 144 +
STACK CFI 1396d .cfa: $esp 124 +
STACK CFI 13970 .cfa: $esp 144 +
STACK CFI 139e9 .cfa: $esp 140 +
STACK CFI 139ec .cfa: $esp 144 +
STACK CFI 13a06 .cfa: $esp 132 +
STACK CFI 13a09 .cfa: $esp 144 +
STACK CFI 13a63 .cfa: $esp 20 +
STACK CFI 13a66 $ebx: $ebx .cfa: $esp 16 +
STACK CFI 13a67 $esi: $esi .cfa: $esp 12 +
STACK CFI 13a68 $edi: $edi .cfa: $esp 8 +
STACK CFI 13a69 $ebp: $ebp .cfa: $esp 4 +
STACK CFI 13a70 $ebp: .cfa -8 + ^ $ebx: .cfa -20 + ^ $edi: .cfa -12 + ^ $esi: .cfa -16 + ^ .cfa: $esp 144 +
STACK CFI 13b45 .cfa: $esp 132 +
STACK CFI 13b48 .cfa: $esp 144 +
STACK CFI 13b4d .cfa: $esp 20 +
STACK CFI 13b4e $ebx: $ebx .cfa: $esp 16 +
STACK CFI 13b4f $esi: $esi .cfa: $esp 12 +
STACK CFI 13b50 $edi: $edi .cfa: $esp 8 +
STACK CFI 13b51 $ebp: $ebp .cfa: $esp 4 +
STACK CFI 13b52 $ebp: .cfa -8 + ^ $ebx: .cfa -20 + ^ $edi: .cfa -12 + ^ $esi: .cfa -16 + ^ .cfa: $esp 144 +
STACK CFI 13b7d .cfa: $esp 140 +
STACK CFI 13b80 .cfa: $esp 144 +
STACK CFI 13bab .cfa: $esp 132 +
STACK CFI 13bae .cfa: $esp 144 +
STACK CFI 13bcb .cfa: $esp 140 +
STACK CFI 13bce .cfa: $esp 144 +
STACK CFI 13bd3 .cfa: $esp 20 +
STACK CFI 13bd4 $ebx: $ebx .cfa: $esp 16 +
STACK CFI 13bd5 $esi: $esi .cfa: $esp 12 +
STACK CFI 13bd6 $edi: $edi .cfa: $esp 8 +
STACK CFI 13bd7 $ebp: $ebp .cfa: $esp 4 +
STACK CFI 13be0 $ebp: .cfa -8 + ^ $ebx: .cfa -20 + ^ $edi: .cfa -12 + ^ $esi: .cfa -16 + ^ .cfa: $esp 144 +
STACK CFI 13bfd .cfa: $esp 132 +
STACK CFI 13c00 .cfa: $esp 144 +
STACK CFI 13c49 .cfa: $esp 132 +
STACK CFI 13c4c .cfa: $esp 144 +
STACK CFI 13c77 .cfa: $esp 132 +
STACK CFI 13c7a .cfa: $esp 144 +
STACK CFI INIT 13c90 219 .cfa: $esp 4 + .ra: .cfa -4 + ^
STACK CFI 13cb2 $ebx: .cfa -8 + ^ .cfa: $esp 8 +
STACK CFI 13cb5 .cfa: $esp 64 +
STACK CFI 13d30 .cfa: $esp 60 +
STACK CFI 13d33 .cfa: $esp 64 +
STACK CFI 13d9f .cfa: $esp 44 +
STACK CFI 13da2 .cfa: $esp 64 +
STACK CFI 13dd0 .cfa: $esp 44 +
STACK CFI 13dd3 .cfa: $esp 64 +
STACK CFI 13dda .cfa: $esp 8 +
STACK CFI 13ddb $ebx: $ebx .cfa: $esp 4 +
STACK CFI 13de0 $ebx: .cfa -8 + ^ .cfa: $esp 64 +
STACK CFI 13e1a .cfa: $esp 52 +
STACK CFI 13e28 .cfa: $esp 64 +
STACK CFI 13e39 .cfa: $esp 60 +
STACK CFI 13e46 .cfa: $esp 64 +
STACK CFI 13e7a .cfa: $esp 52 +
STACK CFI 13e82 .cfa: $esp 64 +
STACK CFI 13e97 .cfa: $esp 60 +
STACK CFI 13ea4 .cfa: $esp 64 +
STACK CFI INIT 13eb0 5ad .cfa: $esp 4 + .ra: .cfa -4 + ^
STACK CFI 13eb1 $ebp: .cfa -8 + ^ .cfa: $esp 8 +
STACK CFI 13eb2 $edi: .cfa -12 + ^ .cfa: $esp 12 +
STACK CFI 13eb8 $esi: .cfa -16 + ^ .cfa: $esp 16 +
STACK CFI 13eb9 $ebx: .cfa -20 + ^ .cfa: $esp 20 +
STACK CFI 13ebf .cfa: $esp 160 +
STACK CFI 13eda .cfa: $esp 152 +
STACK CFI 13edd .cfa: $esp 160 +
STACK CFI 13efa .cfa: $esp 148 +
STACK CFI 13efd .cfa: $esp 160 +
STACK CFI 13f18 .cfa: $esp 156 +
STACK CFI 13f1b .cfa: $esp 160 +
STACK CFI 13f43 .cfa: $esp 152 +
STACK CFI 13f46 .cfa: $esp 160 +
STACK CFI 13f4c .cfa: $esp 20 +
STACK CFI 13f4d $ebx: $ebx .cfa: $esp 16 +
STACK CFI 13f4e $esi: $esi .cfa: $esp 12 +
STACK CFI 13f4f $edi: $edi .cfa: $esp 8 +
STACK CFI 13f50 $ebp: $ebp .cfa: $esp 4 +
STACK CFI 13f51 $ebp: .cfa -8 + ^ $ebx: .cfa -20 + ^ $edi: .cfa -12 + ^ $esi: .cfa -16 + ^ .cfa: $esp 160 +
STACK CFI 13f7b .cfa: $esp 148 +
STACK CFI 13f7e .cfa: $esp 160 +
STACK CFI 13f84 .cfa: $esp 20 +
STACK CFI 13f85 $ebx: $ebx .cfa: $esp 16 +
STACK CFI 13f86 $esi: $esi .cfa: $esp 12 +
STACK CFI 13f87 $edi: $edi .cfa: $esp 8 +
STACK CFI 13f88 $ebp: $ebp .cfa: $esp 4 +
STACK CFI 13f90 $ebp: .cfa -8 + ^ $ebx: .cfa -20 + ^ $edi: .cfa -12 + ^ $esi: .cfa -16 + ^ .cfa: $esp 160 +
STACK CFI 13fdc .cfa: $esp 156 +
STACK CFI 13fdf .cfa: $esp 160 +
STACK CFI 13ffe .cfa: $esp 148 +
STACK CFI 14001 .cfa: $esp 160 +
STACK CFI 14060 .cfa: $esp 144 +
STACK CFI 14063 .cfa: $esp 160 +
STACK CFI 14090 .cfa: $esp 144 +
STACK CFI 14093 .cfa: $esp 160 +
STACK CFI 140d6 .cfa: $esp 152 +
STACK CFI 140d9 .cfa: $esp 160 +
STACK CFI 140f9 .cfa: $esp 152 +
STACK CFI 140fc .cfa: $esp 160 +
STACK CFI 1412b .cfa: $esp 148 +
STACK CFI 1412e .cfa: $esp 160 +
STACK CFI 14134 .cfa: $esp 20 +
STACK CFI 14135 $ebx: $ebx .cfa: $esp 16 +
STACK CFI 14136 $esi: $esi .cfa: $esp 12 +
STACK CFI 14137 $edi: $edi .cfa: $esp 8 +
STACK CFI 14138 $ebp: $ebp .cfa: $esp 4 +
STACK CFI 14140 $ebp: .cfa -8 + ^ $ebx: .cfa -20 + ^ $edi: .cfa -12 + ^ $esi: .cfa -16 + ^ .cfa: $esp 160 +
STACK CFI 1416a .cfa: $esp 148 +
STACK CFI 1416d .cfa: $esp 160 +
STACK CFI 141ba .cfa: $esp 148 +
STACK CFI 141bd .cfa: $esp 160 +
STACK CFI 141ec .cfa: $esp 148 +
STACK CFI 141ef .cfa: $esp 160 +
STACK CFI 14211 .cfa: $esp 156 +
STACK CFI 14214 .cfa: $esp 160 +
STACK CFI 14237 .cfa: $esp 144 +
STACK CFI 1423a .cfa: $esp 160 +
STACK CFI 14261 .cfa: $esp 144 +
STACK CFI 14264 .cfa: $esp 160 +
STACK CFI 142b8 .cfa: $esp 148 +
STACK CFI 142bb .cfa: $esp 160 +
STACK CFI 1432e .cfa: $esp 144 +
STACK CFI 14331 .cfa: $esp 160 +
STACK CFI 14358 .cfa: $esp 144 +
STACK CFI 1435b .cfa: $esp 160 +
STACK CFI 1439c .cfa: $esp 152 +
STACK CFI 1439d .cfa: $esp 156 +
STACK CFI 1439e .cfa: $esp 160 +
STACK CFI 1441c .cfa: $esp 148 +
STACK CFI 1441f .cfa: $esp 160 +
STACK CFI INIT 14460 666 .cfa: $esp 4 + .ra: .cfa -4 + ^
STACK CFI 14461 $ebp: .cfa -8 + ^ .cfa: $esp 8 +
STACK CFI 14462 $edi: .cfa -12 + ^ .cfa: $esp 12 +
STACK CFI 14463 $esi: .cfa -16 + ^ .cfa: $esp 16 +
STACK CFI 14464 $ebx: .cfa -20 + ^ .cfa: $esp 20 +
STACK CFI 14467 .cfa: $esp 96 +
STACK CFI 146ef .cfa: $esp 92 +
STACK CFI 146fc .cfa: $esp 96 +
STACK CFI 1472c .cfa: $esp 92 +
STACK CFI 14739 .cfa: $esp 96 +
STACK CFI 1474c .cfa: $esp 92 +
STACK CFI 14759 .cfa: $esp 96 +
STACK CFI 1476c .cfa: $esp 20 +
STACK CFI 1476d $ebx: $ebx .cfa: $esp 16 +
STACK CFI 1476e $esi: $esi .cfa: $esp 12 +
STACK CFI 1476f $edi: $edi .cfa: $esp 8 +
STACK CFI 14770 $ebp: $ebp .cfa: $esp 4 +
STACK CFI 14771 $ebp: .cfa -8 + ^ $ebx: .cfa -20 + ^ $edi: .cfa -12 + ^ $esi: .cfa -16 + ^ .cfa: $esp 96 +
STACK CFI 1486a .cfa: $esp 92 +
STACK CFI 14872 .cfa: $esp 96 +
STACK CFI 149b2 .cfa: $esp 20 +
STACK CFI 149b3 $ebx: $ebx .cfa: $esp 16 +
STACK CFI 149b4 $esi: $esi .cfa: $esp 12 +
STACK CFI 149b5 $edi: $edi .cfa: $esp 8 +
STACK CFI 149b6 $ebp: $ebp .cfa: $esp 4 +
STACK CFI 149c0 $ebp: .cfa -8 + ^ $ebx: .cfa -20 + ^ $edi: .cfa -12 + ^ $esi: .cfa -16 + ^ .cfa: $esp 96 +
STACK CFI 14a00 .cfa: $esp 92 +
STACK CFI 14a03 .cfa: $esp 96 +
STACK CFI 14a3e .cfa: $esp 92 +
STACK CFI 14a41 .cfa: $esp 96 +
STACK CFI 14a6a .cfa: $esp 88 +
STACK CFI 14a6f .cfa: $esp 96 +
STACK CFI 14a8d .cfa: $esp 88 +
STACK CFI 14a95 .cfa: $esp 96 +
STACK CFI INIT 14ad0 63 .cfa: $esp 4 + .ra: .cfa -4 + ^
STACK CFI 14ae3 .cfa: $esp 32 +
STACK CFI 14b2d .cfa: $esp 4 +
STACK CFI INIT 14b40 13 .cfa: $esp 4 + .ra: .cfa -4 + ^
STACK CFI 14b43 .cfa: $esp 32 +
STACK CFI 14b52 .cfa: $esp 4 +
STACK CFI INIT 14b60 2ea .cfa: $esp 4 + .ra: .cfa -4 + ^
STACK CFI 14b61 $ebp: .cfa -8 + ^ .cfa: $esp 8 +
STACK CFI 14b67 .cfa: $esp 144 +
STACK CFI 14bb7 .cfa: $esp 136 +
STACK CFI 14bba .cfa: $esp 144 +
STACK CFI 14be7 .cfa: $esp 136 +
STACK CFI 14bef .cfa: $esp 144 +
STACK CFI 14c53 .cfa: $esp 128 +
STACK CFI 14c56 .cfa: $esp 144 +
STACK CFI 14c88 .cfa: $esp 8 +
STACK CFI 14c89 $ebp: $ebp .cfa: $esp 4 +
STACK CFI 14c90 $ebp: .cfa -8 + ^ .cfa: $esp 144 +
STACK CFI 14cb1 .cfa: $esp 132 +
STACK CFI 14cb4 .cfa: $esp 144 +
STACK CFI INIT 216f20 1d .cfa: $esp 4 + .ra: .cfa -4 + ^
STACK CFI 216f23 .cfa: $esp 32 +
STACK CFI 216f3c .cfa: $esp 4 +
STACK CFI INIT 166d80 ca .cfa: $esp 4 + .ra: .cfa -4 + ^
STACK CFI 166d81 $ebp: .cfa -8 + ^ .cfa: $esp 8 +
STACK CFI 166d84 .cfa: $esp 128 +
STACK CFI 166ddc .cfa: $esp 120 +
STACK CFI 166ddf .cfa: $esp 128 +
STACK CFI 166e16 .cfa: $esp 8 +
STACK CFI 166e19 $ebp: $ebp .cfa: $esp 4 +
STACK CFI 166e1a $ebp: .cfa -8 + ^ .cfa: $esp 128 +
STACK CFI INIT 15ba80 98 .cfa: $esp 4 + .ra: .cfa -4 + ^
STACK CFI 15ba81 $ebx: .cfa -8 + ^ .cfa: $esp 8 +
STACK CFI 15ba84 .cfa: $esp 32 +
STACK CFI 15bac9 .cfa: $esp 24 +
STACK CFI 15bacc .cfa: $esp 32 +
STACK CFI 15bacf .cfa: $esp 8 +
STACK CFI 15bad0 $ebx: $ebx .cfa: $esp 4 +
STACK CFI 15bad1 $ebx: .cfa -8 + ^ .cfa: $esp 32 +
STACK CFI 15bae8 .cfa: $esp 8 +
STACK CFI 15bae9 $ebx: $ebx .cfa: $esp 4 +
STACK CFI 15baf0 $ebx: .cfa -8 + ^ .cfa: $esp 32 +
STACK CFI 15baf8 .cfa: $esp 28 +
STACK CFI 15bafb .cfa: $esp 32 +
STACK CFI 15bafe .cfa: $esp 8 +
STACK CFI 15baff $ebx: $ebx .cfa: $esp 4 +
STACK CFI 15bb00 $ebx: .cfa -8 + ^ .cfa: $esp 32 +
STACK CFI 15bb13 .cfa: $esp 28 +
STACK CFI 15bb16 .cfa: $esp 32 +
STACK CFI INIT 15b3a0 98 .cfa: $esp 4 + .ra: .cfa -4 + ^
STACK CFI 15b3a1 $ebx: .cfa -8 + ^ .cfa: $esp 8 +
STACK CFI 15b3a4 .cfa: $esp 32 +
STACK CFI 15b3e9 .cfa: $esp 24 +
STACK CFI 15b3ec .cfa: $esp 32 +
STACK CFI 15b3ef .cfa: $esp 8 +
STACK CFI 15b3f0 $ebx: $ebx .cfa: $esp 4 +
STACK CFI 15b3f1 $ebx: .cfa -8 + ^ .cfa: $esp 32 +
STACK CFI 15b408 .cfa: $esp 8 +
STACK CFI 15b409 $ebx: $ebx .cfa: $esp 4 +
STACK CFI 15b410 $ebx: .cfa -8 + ^ .cfa: $esp 32 +
STACK CFI 15b418 .cfa: $esp 28 +
STACK CFI 15b41b .cfa: $esp 32 +
STACK CFI 15b41e .cfa: $esp 8 +
STACK CFI 15b41f $ebx: $ebx .cfa: $esp 4 +
STACK CFI 15b420 $ebx: .cfa -8 + ^ .cfa: $esp 32 +
STACK CFI 15b433 .cfa: $esp 28 +
STACK CFI 15b436 .cfa: $esp 32 +
STACK CFI INIT 1682b0 ca .cfa: $esp 4 + .ra: .cfa -4 + ^
STACK CFI 1682b1 $ebp: .cfa -8 + ^ .cfa: $esp 8 +
STACK CFI 1682b4 .cfa: $esp 128 +
STACK CFI 16830c .cfa: $esp 120 +
STACK CFI 16830f .cfa: $esp 128 +
STACK CFI 168346 .cfa: $esp 8 +
STACK CFI 168349 $ebp: $ebp .cfa: $esp 4 +
STACK CFI 16834a $ebp: .cfa -8 + ^ .cfa: $esp 128 +
STACK CFI INIT 167670 ca .cfa: $esp 4 + .ra: .cfa -4 + ^
STACK CFI 167671 $ebp: .cfa -8 + ^ .cfa: $esp 8 +
STACK CFI 167674 .cfa: $esp 128 +
STACK CFI 1676cc .cfa: $esp 120 +
STACK CFI 1676cf .cfa: $esp 128 +
STACK CFI 167706 .cfa: $esp 8 +
STACK CFI 167709 $ebp: $ebp .cfa: $esp 4 +
STACK CFI 16770a $ebp: .cfa -8 + ^ .cfa: $esp 128 +
STACK CFI INIT 1624f0 20b .cfa: $esp 4 + .ra: .cfa -4 + ^
STACK CFI 1624f1 $ebp: .cfa -8 + ^ .cfa: $esp 8 +
STACK CFI 1624f4 .cfa: $esp 128 +
STACK CFI 1625a8 .cfa: $esp 120 +
STACK CFI 1625ab .cfa: $esp 128 +
STACK CFI 1625ba .cfa: $esp 8 +
STACK CFI 1625bb $ebp: $ebp .cfa: $esp 4 +
STACK CFI 1625c0 $ebp: .cfa -8 + ^ .cfa: $esp 128 +
STACK CFI 1625db .cfa: $esp 124 +
STACK CFI 1625de .cfa: $esp 128 +
STACK CFI 162639 .cfa: $esp 120 +
STACK CFI 16263c .cfa: $esp 128 +
STACK CFI 1626a9 .cfa: $esp 120 +
STACK CFI 1626ac .cfa: $esp 128 +
STACK CFI INIT 165580 649 .cfa: $esp 4 + .ra: .cfa -4 + ^
STACK CFI 165581 $ebp: .cfa -8 + ^ .cfa: $esp 8 +
STACK CFI 165583 .cfa: $ebp 8 +
STACK CFI 16558e $ebx: .cfa -16 + ^ $esi: .cfa -12 + ^
STACK CFI 165860 $ebx: $ebx
STACK CFI 165861 $esi: $esi
STACK CFI 165862 $ebp: $ebp .cfa: $esp 4 +
STACK CFI 165863 $ebp: .cfa -8 + ^ $ebx: .cfa -16 + ^ $esi: .cfa -12 + ^ .cfa: $ebp 8 +
STACK CFI INIT 1cb740 11d2 .cfa: $esp 4 + .ra: .cfa -4 + ^
STACK CFI 1cb741 $ebp: .cfa -8 + ^ .cfa: $esp 8 +
STACK CFI 1cb743 .cfa: $ebp 8 +
STACK CFI 1cb74e $ebx: .cfa -16 + ^ $esi: .cfa -12 + ^
STACK CFI 1cb7be $ebx: $ebx
STACK CFI 1cb7bf $esi: $esi
STACK CFI 1cb7c0 $ebp: $ebp .cfa: $esp 4 +
STACK CFI 1cb7c3 $ebp: .cfa -8 + ^ $ebx: .cfa -16 + ^ $esi: .cfa -12 + ^ .cfa: $ebp 8 +
STACK CFI INIT 1dcfb0 11d2 .cfa: $esp 4 + .ra: .cfa -4 + ^
STACK CFI 1dcfb1 $ebp: .cfa -8 + ^ .cfa: $esp 8 +
STACK CFI 1dcfb3 .cfa: $ebp 8 +
STACK CFI 1dcfbe $ebx: .cfa -16 + ^ $esi: .cfa -12 + ^
STACK CFI 1dd02e $ebx: $ebx
STACK CFI 1dd02f $esi: $esi
STACK CFI 1dd030 $ebp: $ebp .cfa: $esp 4 +
STACK CFI 1dd033 $ebp: .cfa -8 + ^ $ebx: .cfa -16 + ^ $esi: .cfa -12 + ^ .cfa: $ebp 8 +
STACK CFI INIT 1bee70 11bc .cfa: $esp 4 + .ra: .cfa -4 + ^
STACK CFI 1bee71 $ebp: .cfa -8 + ^ .cfa: $esp 8 +
STACK CFI 1bee73 .cfa: $ebp 8 +
STACK CFI 1bee7e $ebx: .cfa -16 + ^ $esi: .cfa -12 + ^
STACK CFI 1beeee $ebx: $ebx
STACK CFI 1beeef $esi: $esi
STACK CFI 1beef0 $ebp: $ebp .cfa: $esp 4 +
STACK CFI 1beef3 $ebp: .cfa -8 + ^ $ebx: .cfa -16 + ^ $esi: .cfa -12 + ^ .cfa: $ebp 8 +
STACK CFI INIT 1a91b0 11d2 .cfa: $esp 4 + .ra: .cfa -4 + ^
STACK CFI 1a91b1 $ebp: .cfa -8 + ^ .cfa: $esp 8 +
STACK CFI 1a91b3 .cfa: $ebp 8 +
STACK CFI 1a91be $ebx: .cfa -16 + ^ $esi: .cfa -12 + ^
STACK CFI 1a922e $ebx: $ebx
STACK CFI 1a922f $esi: $esi
STACK CFI 1a9230 $ebp: $ebp .cfa: $esp 4 +
STACK CFI 1a9233 $ebp: .cfa -8 + ^ $ebx: .cfa -16 + ^ $esi: .cfa -12 + ^ .cfa: $ebp 8 +
STACK CFI INIT 1aa500 1212 .cfa: $esp 4 + .ra: .cfa -4 + ^
STACK CFI 1aa501 $ebp: .cfa -8 + ^ .cfa: $esp 8 +
STACK CFI 1aa503 .cfa: $ebp 8 +
STACK CFI 1aa50e $ebx: .cfa -16 + ^ $esi: .cfa -12 + ^
STACK CFI 1aa57e $ebx: $ebx
STACK CFI 1aa57f $esi: $esi
STACK CFI 1aa580 $ebp: $ebp .cfa: $esp 4 +
STACK CFI 1aa583 $ebp: .cfa -8 + ^ $ebx: .cfa -16 + ^ $esi: .cfa -12 + ^ .cfa: $ebp 8 +
STACK CFI INIT 196c80 11bc .cfa: $esp 4 + .ra: .cfa -4 + ^
STACK CFI 196c81 $ebp: .cfa -8 + ^ .cfa: $esp 8 +
STACK CFI 196c83 .cfa: $ebp 8 +
STACK CFI 196c8e $ebx: .cfa -16 + ^ $esi: .cfa -12 + ^
STACK CFI 196cfe $ebx: $ebx
STACK CFI 196cff $esi: $esi
STACK CFI 196d00 $ebp: $ebp .cfa: $esp 4 +
STACK CFI 196d03 $ebp: .cfa -8 + ^ $ebx: .cfa -16 + ^ $esi: .cfa -12 + ^ .cfa: $ebp 8 +
STACK CFI INIT 1918e0 15f .cfa: $esp 4 + .ra: .cfa -4 + ^
STACK CFI 1918e1 $ebp: .cfa -8 + ^ .cfa: $esp 8 +
STACK CFI 1918e3 .cfa: $ebp 8 +
STACK CFI 191938 $ebp: $ebp .cfa: $esp 4 +
STACK CFI 191940 $ebp: .cfa -8 + ^ .cfa: $ebp 8 +
STACK CFI 1919ef $ebp: $ebp .cfa: $esp 4 +
STACK CFI 1919f2 $ebp: .cfa -8 + ^ .cfa: $ebp 8 +
STACK CFI INIT 1d38f0 11bc .cfa: $esp 4 + .ra: .cfa -4 + ^
STACK CFI 1d38f1 $ebp: .cfa -8 + ^ .cfa: $esp 8 +
STACK CFI 1d38f3 .cfa: $ebp 8 +
STACK CFI 1d38fe $ebx: .cfa -16 + ^ $esi: .cfa -12 + ^
STACK CFI 1d396e $ebx: $ebx
STACK CFI 1d396f $esi: $esi
STACK CFI 1d3970 $ebp: $ebp .cfa: $esp 4 +
STACK CFI 1d3973 $ebp: .cfa -8 + ^ $ebx: .cfa -16 + ^ $esi: .cfa -12 + ^ .cfa: $ebp 8 +
STACK CFI INIT 1b7b60 11bc .cfa: $esp 4 + .ra: .cfa -4 + ^
STACK CFI 1b7b61 $ebp: .cfa -8 + ^ .cfa: $esp 8 +
STACK CFI 1b7b63 .cfa: $ebp 8 +
STACK CFI 1b7b6e $ebx: .cfa -16 + ^ $esi: .cfa -12 + ^
STACK CFI 1b7bde $ebx: $ebx
STACK CFI 1b7bdf $esi: $esi
STACK CFI 1b7be0 $ebp: $ebp .cfa: $esp 4 +
STACK CFI 1b7be3 $ebp: .cfa -8 + ^ $ebx: .cfa -16 + ^ $esi: .cfa -12 + ^ .cfa: $ebp 8 +
STACK CFI INIT 1e07f0 11d2 .cfa: $esp 4 + .ra: .cfa -4 + ^
STACK CFI 1e07f1 $ebp: .cfa -8 + ^ .cfa: $esp 8 +
STACK CFI 1e07f3 .cfa: $ebp 8 +
STACK CFI 1e07fe $ebx: .cfa -16 + ^ $esi: .cfa -12 + ^
STACK CFI 1e086e $ebx: $ebx
STACK CFI 1e086f $esi: $esi
STACK CFI 1e0870 $ebp: $ebp .cfa: $esp 4 +
STACK CFI 1e0873 $ebp: .cfa -8 + ^ $ebx: .cfa -16 + ^ $esi: .cfa -12 + ^ .cfa: $ebp 8 +
STACK CFI INIT 172f40 1033 .cfa: $esp 4 + .ra: .cfa -4 + ^
STACK CFI 172f41 $ebp: .cfa -8 + ^ .cfa: $esp 8 +
STACK CFI 172f43 .cfa: $ebp 8 +
STACK CFI 172f4f $ebx: .cfa -20 + ^ $edi: .cfa -12 + ^ $esi: .cfa -16 + ^
STACK CFI 173565 $ebx: $ebx
STACK CFI 173566 $esi: $esi
STACK CFI 173567 $edi: $edi
STACK CFI 173568 $ebp: $ebp .cfa: $esp 4 +
STACK CFI 173570 $ebp: .cfa -8 + ^ $ebx: .cfa -20 + ^ $edi: .cfa -12 + ^ $esi: .cfa -16 + ^ .cfa: $ebp 8 +
STACK CFI INIT 192ee0 153 .cfa: $esp 4 + .ra: .cfa -4 + ^
STACK CFI 192ee1 $ebp: .cfa -8 + ^ .cfa: $esp 8 +
STACK CFI 192ee3 .cfa: $ebp 8 +
STACK CFI 192f38 $ebp: $ebp .cfa: $esp 4 +
STACK CFI 192f40 $ebp: .cfa -8 + ^ .cfa: $ebp 8 +
STACK CFI 192fe3 $ebp: $ebp .cfa: $esp 4 +
STACK CFI 192fe6 $ebp: .cfa -8 + ^ .cfa: $ebp 8 +
STACK CFI INIT 14e50 46 .cfa: $esp 4 + .ra: .cfa -4 + ^
STACK CFI 14e51 $edi: .cfa -8 + ^ .cfa: $esp 8 +
STACK CFI 14e54 $esi: .cfa -12 + ^ .cfa: $esp 12 +
STACK CFI 14e55 $ebx: .cfa -16 + ^ .cfa: $esp 16 +
STACK CFI 14e8e $ebx: $ebx .cfa: $esp 12 +
STACK CFI 14e8f $esi: $esi .cfa: $esp 8 +
STACK CFI 14e95 $edi: $edi .cfa: $esp 4 +
STACK CFI INIT 14ea0 66 .cfa: $esp 4 + .ra: .cfa -4 + ^
STACK CFI 14ea1 $esi: .cfa -8 + ^ .cfa: $esp 8 +
STACK CFI 14ea2 $ebx: .cfa -12 + ^ .cfa: $esp 12 +
STACK CFI 14ea7 .cfa: $esp 32 +
STACK CFI 14f01 .cfa: $esp 12 +
STACK CFI 14f04 $ebx: $ebx .cfa: $esp 8 +
STACK CFI 14f05 $esi: $esi .cfa: $esp 4 +
STACK CFI INIT 14f10 5f .cfa: $esp 4 + .ra: .cfa -4 + ^
STACK CFI 14f11 $esi: .cfa -8 + ^ .cfa: $esp 8 +
STACK CFI 14f12 $ebx: .cfa -12 + ^ .cfa: $esp 12 +
STACK CFI 14f15 .cfa: $esp 32 +
STACK CFI 14f39 .cfa: $esp 12 +
STACK CFI 14f3a $ebx: $ebx .cfa: $esp 8 +
STACK CFI 14f3b $esi: $esi .cfa: $esp 4 +
STACK CFI 14f40 $ebx: .cfa -12 + ^ $esi: .cfa -8 + ^ .cfa: $esp 32 +
STACK CFI 14f6c .cfa: $esp 12 +
STACK CFI 14f6d $ebx: $ebx .cfa: $esp 8 +
STACK CFI 14f6e $esi: $esi .cfa: $esp 4 +
STACK CFI INIT 14f70 25 .cfa: $esp 4 + .ra: .cfa -4 + ^
STACK CFI 14f71 $ebx: .cfa -8 + ^ .cfa: $esp 8 +
STACK CFI 14f76 .cfa: $esp 32 +
STACK CFI 14f93 .cfa: $esp 8 +
STACK CFI 14f94 $ebx: $ebx .cfa: $esp 4 +
STACK CFI INIT 14fa0 5b .cfa: $esp 4 + .ra: .cfa -4 + ^
STACK CFI 14fa1 $esi: .cfa -8 + ^ .cfa: $esp 8 +
STACK CFI 14fa2 $ebx: .cfa -12 + ^ .cfa: $esp 12 +
STACK CFI 14fa7 .cfa: $esp 32 +
STACK CFI 14ff8 .cfa: $esp 12 +
STACK CFI 14ff9 $ebx: $ebx .cfa: $esp 8 +
STACK CFI 14ffa $esi: $esi .cfa: $esp 4 +
STACK CFI INIT 15000 4a .cfa: $esp 4 + .ra: .cfa -4 + ^
STACK CFI 15001 $edi: .cfa -8 + ^ .cfa: $esp 8 +
STACK CFI 15002 $esi: .cfa -12 + ^ .cfa: $esp 12 +
STACK CFI 15005 $ebx: .cfa -16 + ^ .cfa: $esp 16 +
STACK CFI 1500c .cfa: $esp 32 +
STACK CFI 15046 .cfa: $esp 16 +
STACK CFI 15047 $ebx: $ebx .cfa: $esp 12 +
STACK CFI 15048 $esi: $esi .cfa: $esp 8 +
STACK CFI 15049 $edi: $edi .cfa: $esp 4 +
STACK CFI INIT 15050 44 .cfa: $esp 4 + .ra: .cfa -4 + ^
STACK CFI 15051 $ebx: .cfa -8 + ^ .cfa: $esp 8 +
STACK CFI 15056 .cfa: $esp 32 +
STACK CFI 15072 .cfa: $esp 8 +
STACK CFI 15073 $ebx: $ebx .cfa: $esp 4 +
STACK CFI 15074 $ebx: .cfa -8 + ^ .cfa: $esp 32 +
STACK CFI INIT 150a0 61 .cfa: $esp 4 + .ra: .cfa -4 + ^
STACK CFI 150a1 $esi: .cfa -8 + ^ .cfa: $esp 8 +
STACK CFI 150a2 $ebx: .cfa -12 + ^ .cfa: $esp 12 +
STACK CFI 150a7 .cfa: $esp 32 +
STACK CFI 150d6 .cfa: $esp 12 +
STACK CFI 150d7 $ebx: $ebx .cfa: $esp 8 +
STACK CFI 150d8 $esi: $esi .cfa: $esp 4 +
STACK CFI 150e0 $ebx: .cfa -12 + ^ $esi: .cfa -8 + ^ .cfa: $esp 32 +
STACK CFI INIT 15110 a .cfa: $esp 4 + .ra: .cfa -4 + ^
STACK CFI INIT 15120 ec .cfa: $esp 4 + .ra: .cfa -4 + ^
STACK CFI 15121 $esi: .cfa -8 + ^ .cfa: $esp 8 +
STACK CFI 15122 $ebx: .cfa -12 + ^ .cfa: $esp 12 +
STACK CFI 15196 $ebx: $ebx .cfa: $esp 8 +
STACK CFI 15197 $esi: $esi .cfa: $esp 4 +
STACK CFI 151a0 $ebx: .cfa -12 + ^ $esi: .cfa -8 + ^ .cfa: $esp 12 +
STACK CFI INIT 15210 53 .cfa: $esp 4 + .ra: .cfa -4 + ^
STACK CFI 15211 $edi: .cfa -8 + ^ .cfa: $esp 8 +
STACK CFI 15212 $esi: .cfa -12 + ^ .cfa: $esp 12 +
STACK CFI 15217 .cfa: $esp 32 +
STACK CFI 1524c .cfa: $esp 12 +
STACK CFI 1524d $esi: $esi .cfa: $esp 8 +
STACK CFI 1524e $edi: $edi .cfa: $esp 4 +
STACK CFI 1524f $edi: .cfa -8 + ^ $esi: .cfa -12 + ^ .cfa: $esp 32 +
STACK CFI INIT 15270 81 .cfa: $esp 4 + .ra: .cfa -4 + ^
STACK CFI 15271 $ebx: .cfa -8 + ^ .cfa: $esp 8 +
STACK CFI 15279 .cfa: $esp 1088 +
STACK CFI 152ef .cfa: $esp 8 +
STACK CFI 152f0 $ebx: $ebx .cfa: $esp 4 +
STACK CFI INIT 15300 a2 .cfa: $esp 4 + .ra: .cfa -4 + ^
STACK CFI 15301 $edi: .cfa -8 + ^ .cfa: $esp 8 +
STACK CFI 15302 $esi: .cfa -12 + ^ .cfa: $esp 12 +
STACK CFI 15305 $ebx: .cfa -16 + ^ .cfa: $esp 16 +
STACK CFI 15308 .cfa: $esp 48 +
STACK CFI 15341 .cfa: $esp 16 +
STACK CFI 15342 $ebx: $ebx .cfa: $esp 12 +
STACK CFI 15343 $esi: $esi .cfa: $esp 8 +
STACK CFI 15344 $edi: $edi .cfa: $esp 4 +
STACK CFI 15350 $ebx: .cfa -16 + ^ $edi: .cfa -8 + ^ $esi: .cfa -12 + ^ .cfa: $esp 48 +
STACK CFI 15366 .cfa: $esp 40 +
STACK CFI 15369 .cfa: $esp 48 +
STACK CFI INIT 153b0 108 .cfa: $esp 4 + .ra: .cfa -4 + ^
STACK CFI 153b1 $ebp: .cfa -8 + ^ .cfa: $esp 8 +
STACK CFI 153b2 $edi: .cfa -12 + ^ .cfa: $esp 12 +
STACK CFI 153b3 $esi: .cfa -16 + ^ .cfa: $esp 16 +
STACK CFI 153b4 $ebx: .cfa -20 + ^ .cfa: $esp 20 +
STACK CFI 153b7 .cfa: $esp 64 +
STACK CFI 15456 .cfa: $esp 20 +
STACK CFI 15457 $ebx: $ebx .cfa: $esp 16 +
STACK CFI 15458 $esi: $esi .cfa: $esp 12 +
STACK CFI 15459 $edi: $edi .cfa: $esp 8 +
STACK CFI 1545a $ebp: $ebp .cfa: $esp 4 +
STACK CFI 15460 $ebp: .cfa -8 + ^ $ebx: .cfa -20 + ^ $edi: .cfa -12 + ^ $esi: .cfa -16 + ^ .cfa: $esp 64 +
STACK CFI INIT 154c0 c0 .cfa: $esp 4 + .ra: .cfa -4 + ^
STACK CFI 154c1 $edi: .cfa -8 + ^ .cfa: $esp 8 +
STACK CFI 154c2 $esi: .cfa -12 + ^ .cfa: $esp 12 +
STACK CFI 154c5 $ebx: .cfa -16 + ^ .cfa: $esp 16 +
STACK CFI 154d0 .cfa: $esp 32 +
STACK CFI 1557a .cfa: $esp 16 +
STACK CFI 1557d $ebx: $ebx .cfa: $esp 12 +
STACK CFI 1557e $esi: $esi .cfa: $esp 8 +
STACK CFI 1557f $edi: $edi .cfa: $esp 4 +
STACK CFI INIT 15580 fb .cfa: $esp 4 + .ra: .cfa -4 + ^
STACK CFI 15581 $edi: .cfa -8 + ^ .cfa: $esp 8 +
STACK CFI 15582 $esi: .cfa -12 + ^ .cfa: $esp 12 +
STACK CFI 15585 $ebx: .cfa -16 + ^ .cfa: $esp 16 +
STACK CFI 15588 .cfa: $esp 48 +
STACK CFI 1566a .cfa: $esp 16 +
STACK CFI 1566d $ebx: $ebx .cfa: $esp 12 +
STACK CFI 1566e $esi: $esi .cfa: $esp 8 +
STACK CFI 1566f $edi: $edi .cfa: $esp 4 +
STACK CFI 15670 $ebx: .cfa -16 + ^ $edi: .cfa -8 + ^ $esi: .cfa -12 + ^ .cfa: $esp 48 +
STACK CFI 15673 .cfa: $esp 16 +
STACK CFI 15678 $ebx: $ebx .cfa: $esp 12 +
STACK CFI 15679 $esi: $esi .cfa: $esp 8 +
STACK CFI 1567a $edi: $edi .cfa: $esp 4 +
STACK CFI INIT 15680 1fd .cfa: $esp 4 + .ra: .cfa -4 + ^
STACK CFI 15681 $ebp: .cfa -8 + ^ .cfa: $esp 8 +
STACK CFI 15682 $edi: .cfa -12 + ^ .cfa: $esp 12 +
STACK CFI 15683 $esi: .cfa -16 + ^ .cfa: $esp 16 +
STACK CFI 15684 $ebx: .cfa -20 + ^ .cfa: $esp 20 +
STACK CFI 1568c .cfa: $esp 64 +
STACK CFI 1586a .cfa: $esp 20 +
STACK CFI 1586d $ebx: $ebx .cfa: $esp 16 +
STACK CFI 1586e $esi: $esi .cfa: $esp 12 +
STACK CFI 1586f $edi: $edi .cfa: $esp 8 +
STACK CFI 15870 $ebp: $ebp .cfa: $esp 4 +
STACK CFI 15871 $ebp: .cfa -8 + ^ $ebx: .cfa -20 + ^ $edi: .cfa -12 + ^ $esi: .cfa -16 + ^ .cfa: $esp 64 +
STACK CFI 15874 .cfa: $esp 20 +
STACK CFI 15879 $ebx: $ebx .cfa: $esp 16 +
STACK CFI 1587a $esi: $esi .cfa: $esp 12 +
STACK CFI 1587b $edi: $edi .cfa: $esp 8 +
STACK CFI 1587c $ebp: $ebp .cfa: $esp 4 +
STACK CFI INIT 15880 ee .cfa: $esp 4 + .ra: .cfa -4 + ^
STACK CFI 15881 $edi: .cfa -8 + ^ .cfa: $esp 8 +
STACK CFI 15882 $esi: .cfa -12 + ^ .cfa: $esp 12 +
STACK CFI 15885 $ebx: .cfa -16 + ^ .cfa: $esp 16 +
STACK CFI 15888 .cfa: $esp 32 +
STACK CFI 158a2 .cfa: $esp 16 +
STACK CFI 158a3 $ebx: $ebx .cfa: $esp 12 +
STACK CFI 158a4 $esi: $esi .cfa: $esp 8 +
STACK CFI 158a5 $edi: $edi .cfa: $esp 4 +
STACK CFI 158a6 $ebx: .cfa -16 + ^ $edi: .cfa -8 + ^ $esi: .cfa -12 + ^ .cfa: $esp 32 +
STACK CFI 15965 .cfa: $esp 16 +
STACK CFI 1596b $ebx: $ebx .cfa: $esp 12 +
STACK CFI 1596c $esi: $esi .cfa: $esp 8 +
STACK CFI 1596d $edi: $edi .cfa: $esp 4 +
STACK CFI INIT 15970 68 .cfa: $esp 4 + .ra: .cfa -4 + ^
STACK CFI 15971 $ebx: .cfa -8 + ^ .cfa: $esp 8 +
STACK CFI 15976 .cfa: $esp 32 +
STACK CFI 159c2 .cfa: $esp 8 +
STACK CFI 159c3 $ebx: $ebx .cfa: $esp 4 +
STACK CFI 159c4 $ebx: .cfa -8 + ^ .cfa: $esp 32 +
STACK CFI 159d1 .cfa: $esp 8 +
STACK CFI 159d7 $ebx: $ebx .cfa: $esp 4 +
STACK CFI INIT 159e0 6c .cfa: $esp 4 + .ra: .cfa -4 + ^
STACK CFI 159e1 $ebx: .cfa -8 + ^ .cfa: $esp 8 +
STACK CFI 159e7 .cfa: $esp 1072 +
STACK CFI 15a41 .cfa: $esp 1052 +
STACK CFI 15a44 .cfa: $esp 1072 +
STACK CFI 15a4a .cfa: $esp 8 +
STACK CFI 15a4b $ebx: $ebx .cfa: $esp 4 +
STACK CFI INIT 15a50 bb0 .cfa: $esp 4 + .ra: .cfa -4 + ^
STACK CFI 15a51 $ebp: .cfa -8 + ^ .cfa: $esp 8 +
STACK CFI 15a53 .cfa: $ebp 8 +
STACK CFI 15a5f $ebx: .cfa -20 + ^ $edi: .cfa -12 + ^ $esi: .cfa -16 + ^
STACK CFI 15b86 $ebx: $ebx
STACK CFI 15b87 $esi: $esi
STACK CFI 15b88 $edi: $edi
STACK CFI 15b89 $ebp: $ebp .cfa: $esp 4 +
STACK CFI 15b8a $ebp: .cfa -8 + ^ $ebx: .cfa -20 + ^ $edi: .cfa -12 + ^ $esi: .cfa -16 + ^ .cfa: $ebp 8 +
STACK CFI 15bc8 $ebx: $ebx
STACK CFI 15bc9 $esi: $esi
STACK CFI 15bca $edi: $edi
STACK CFI 15bcb $ebp: $ebp .cfa: $esp 4 +
STACK CFI 15bd0 $ebp: .cfa -8 + ^ $ebx: .cfa -20 + ^ $edi: .cfa -12 + ^ $esi: .cfa -16 + ^ .cfa: $ebp 8 +
STACK CFI INIT 16600 1d .cfa: $esp 4 + .ra: .cfa -4 + ^
STACK CFI 16603 .cfa: $esp 32 +
STACK CFI 1661c .cfa: $esp 4 +
STACK CFI INIT 16620 6e .cfa: $esp 4 + .ra: .cfa -4 + ^
STACK CFI 16621 $edi: .cfa -8 + ^ .cfa: $esp 8 +
STACK CFI 16622 $esi: .cfa -12 + ^ .cfa: $esp 12 +
STACK CFI 16625 $ebx: .cfa -16 + ^ .cfa: $esp 16 +
STACK CFI 1662a .cfa: $esp 32 +
STACK CFI 16671 .cfa: $esp 16 +
STACK CFI 16672 $ebx: $ebx .cfa: $esp 12 +
STACK CFI 16673 $esi: $esi .cfa: $esp 8 +
STACK CFI 16674 $edi: $edi .cfa: $esp 4 +
STACK CFI 16675 $ebx: .cfa -16 + ^ $edi: .cfa -8 + ^ $esi: .cfa -12 + ^ .cfa: $esp 32 +
STACK CFI 1668a .cfa: $esp 16 +
STACK CFI 1668b $ebx: $ebx .cfa: $esp 12 +
STACK CFI 1668c $esi: $esi .cfa: $esp 8 +
STACK CFI 1668d $edi: $edi .cfa: $esp 4 +
STACK CFI INIT 16690 4d .cfa: $esp 4 + .ra: .cfa -4 + ^
STACK CFI 16691 $ebx: .cfa -8 + ^ .cfa: $esp 8 +
STACK CFI 16694 .cfa: $esp 64 +
STACK CFI 166b2 .cfa: $esp 8 +
STACK CFI 166b8 $ebx: $ebx .cfa: $esp 4 +
STACK CFI 166c0 $ebx: .cfa -8 + ^ .cfa: $esp 64 +
STACK CFI 166db .cfa: $esp 8 +
STACK CFI 166dc $ebx: $ebx .cfa: $esp 4 +
STACK CFI INIT 166e0 7d .cfa: $esp 4 + .ra: .cfa -4 + ^
STACK CFI 166e1 $ebx: .cfa -8 + ^ .cfa: $esp 8 +
STACK CFI 166e4 .cfa: $esp 64 +
STACK CFI 1671e .cfa: $esp 8 +
STACK CFI 16724 $ebx: $ebx .cfa: $esp 4 +
STACK CFI 16725 $ebx: .cfa -8 + ^ .cfa: $esp 64 +
STACK CFI 16738 .cfa: $esp 8 +
STACK CFI 1673b $ebx: $ebx .cfa: $esp 4 +
STACK CFI 16740 $ebx: .cfa -8 + ^ .cfa: $esp 64 +
STACK CFI 1675b .cfa: $esp 8 +
STACK CFI 1675c $ebx: $ebx .cfa: $esp 4 +
STACK CFI INIT 16760 7a .cfa: $esp 4 + .ra: .cfa -4 + ^
STACK CFI 16761 $esi: .cfa -8 + ^ .cfa: $esp 8 +
STACK CFI 16762 $ebx: .cfa -12 + ^ .cfa: $esp 12 +
STACK CFI 16768 .cfa: $esp 1072 +
STACK CFI 1677e .cfa: $esp 12 +
STACK CFI 1677f $ebx: $ebx .cfa: $esp 8 +
STACK CFI 16780 $esi: $esi .cfa: $esp 4 +
STACK CFI 16781 $ebx: .cfa -12 + ^ $esi: .cfa -8 + ^ .cfa: $esp 1072 +
STACK CFI 167ce .cfa: $esp 1052 +
STACK CFI 167d1 .cfa: $esp 1072 +
STACK CFI 167d7 .cfa: $esp 12 +
STACK CFI 167d8 $ebx: $ebx .cfa: $esp 8 +
STACK CFI 167d9 $esi: $esi .cfa: $esp 4 +
STACK CFI INIT 167e0 77 .cfa: $esp 4 + .ra: .cfa -4 + ^
STACK CFI 167e1 $esi: .cfa -8 + ^ .cfa: $esp 8 +
STACK CFI 167e2 $ebx: .cfa -12 + ^ .cfa: $esp 12 +
STACK CFI 167e8 .cfa: $esp 1072 +
STACK CFI 167fe .cfa: $esp 12 +
STACK CFI 167ff $ebx: $ebx .cfa: $esp 8 +
STACK CFI 16800 $esi: $esi .cfa: $esp 4 +
STACK CFI 16801 $ebx: .cfa -12 + ^ $esi: .cfa -8 + ^ .cfa: $esp 1072 +
STACK CFI 1684b .cfa: $esp 1052 +
STACK CFI 1684e .cfa: $esp 1072 +
STACK CFI 16854 .cfa: $esp 12 +
STACK CFI 16855 $ebx: $ebx .cfa: $esp 8 +
STACK CFI 16856 $esi: $esi .cfa: $esp 4 +
STACK CFI INIT 16860 321 .cfa: $esp 4 + .ra: .cfa -4 + ^
STACK CFI 16861 $ebp: .cfa -8 + ^ .cfa: $esp 8 +
STACK CFI 16862 $edi: .cfa -12 + ^ .cfa: $esp 12 +
STACK CFI 16865 $esi: .cfa -16 + ^ .cfa: $esp 16 +
STACK CFI 16866 $ebx: .cfa -20 + ^ .cfa: $esp 20 +
STACK CFI 16872 .cfa: $esp 80 +
STACK CFI 16966 .cfa: $esp 20 +
STACK CFI 16969 $ebx: $ebx .cfa: $esp 16 +
STACK CFI 1696a $esi: $esi .cfa: $esp 12 +
STACK CFI 1696b $edi: $edi .cfa: $esp 8 +
STACK CFI 1696c $ebp: $ebp .cfa: $esp 4 +
STACK CFI 16970 $ebp: .cfa -8 + ^ $ebx: .cfa -20 + ^ $edi: .cfa -12 + ^ $esi: .cfa -16 + ^ .cfa: $esp 80 +
STACK CFI 169e4 .cfa: $esp 20 +
STACK CFI 169ea $ebx: $ebx .cfa: $esp 16 +
STACK CFI 169eb $esi: $esi .cfa: $esp 12 +
STACK CFI 169ec $edi: $edi .cfa: $esp 8 +
STACK CFI 169ed $ebp: $ebp .cfa: $esp 4 +
STACK CFI 169ee $ebp: .cfa -8 + ^ $ebx: .cfa -20 + ^ $edi: .cfa -12 + ^ $esi: .cfa -16 + ^ .cfa: $esp 80 +
STACK CFI 16b4b .cfa: $esp 20 +
STACK CFI 16b4e $ebx: $ebx .cfa: $esp 16 +
STACK CFI 16b4f $esi: $esi .cfa: $esp 12 +
STACK CFI 16b50 $edi: $edi .cfa: $esp 8 +
STACK CFI 16b51 $ebp: $ebp .cfa: $esp 4 +
STACK CFI 16b52 $ebp: .cfa -8 + ^ $ebx: .cfa -20 + ^ $edi: .cfa -12 + ^ $esi: .cfa -16 + ^ .cfa: $esp 80 +
STACK CFI 16b71 .cfa: $esp 20 +
STACK CFI 16b74 $ebx: $ebx .cfa: $esp 16 +
STACK CFI 16b75 $esi: $esi .cfa: $esp 12 +
STACK CFI 16b76 $edi: $edi .cfa: $esp 8 +
STACK CFI 16b77 $ebp: $ebp .cfa: $esp 4 +
STACK CFI 16b78 $ebp: .cfa -8 + ^ $ebx: .cfa -20 + ^ $edi: .cfa -12 + ^ $esi: .cfa -16 + ^ .cfa: $esp 80 +
STACK CFI INIT 16b90 b12 .cfa: $esp 4 + .ra: .cfa -4 + ^
STACK CFI 16b91 $ebp: .cfa -8 + ^ .cfa: $esp 8 +
STACK CFI 16b93 .cfa: $ebp 8 +
STACK CFI 16b96 $ebx: .cfa -20 + ^ $edi: .cfa -12 + ^ $esi: .cfa -16 + ^
STACK CFI 16e6d $ebx: $ebx
STACK CFI 16e6e $esi: $esi
STACK CFI 16e6f $edi: $edi
STACK CFI 16e70 $ebp: $ebp .cfa: $esp 4 +
STACK CFI 16e71 $ebp: .cfa -8 + ^ $ebx: .cfa -20 + ^ $edi: .cfa -12 + ^ $esi: .cfa -16 + ^ .cfa: $ebp 8 +
STACK CFI 1706c $ebx: $ebx
STACK CFI 1706d $esi: $esi
STACK CFI 1706e $edi: $edi
STACK CFI 1706f $ebp: $ebp .cfa: $esp 4 +
STACK CFI 17070 $ebp: .cfa -8 + ^ $ebx: .cfa -20 + ^ $edi: .cfa -12 + ^ $esi: .cfa -16 + ^ .cfa: $ebp 8 +
STACK CFI INIT 176b0 80 .cfa: $esp 4 + .ra: .cfa -4 + ^
STACK CFI 176b1 $ebp: .cfa -8 + ^ .cfa: $esp 8 +
STACK CFI 176b2 $edi: .cfa -12 + ^ .cfa: $esp 12 +
STACK CFI 176b5 $esi: .cfa -16 + ^ .cfa: $esp 16 +
STACK CFI 176b6 $ebx: .cfa -20 + ^ .cfa: $esp 20 +
STACK CFI 176bd .cfa: $esp 32 +
STACK CFI 176f5 .cfa: $esp 20 +
STACK CFI 176f6 $ebx: $ebx .cfa: $esp 16 +
STACK CFI 176f7 $esi: $esi .cfa: $esp 12 +
STACK CFI 176f8 $edi: $edi .cfa: $esp 8 +
STACK CFI 176f9 $ebp: $ebp .cfa: $esp 4 +
STACK CFI 17700 $ebp: .cfa -8 + ^ $ebx: .cfa -20 + ^ $edi: .cfa -12 + ^ $esi: .cfa -16 + ^ .cfa: $esp 32 +
STACK CFI 1771c .cfa: $esp 20 +
STACK CFI 1771d $ebx: $ebx .cfa: $esp 16 +
STACK CFI 17720 $esi: $esi .cfa: $esp 12 +
STACK CFI 17721 $edi: $edi .cfa: $esp 8 +
STACK CFI 17722 $ebp: $ebp .cfa: $esp 4 +
STACK CFI 17723 $ebp: .cfa -8 + ^ $ebx: .cfa -20 + ^ $edi: .cfa -12 + ^ $esi: .cfa -16 + ^ .cfa: $esp 32 +
STACK CFI 17726 .cfa: $esp 20 +
STACK CFI 1772c $ebx: $ebx .cfa: $esp 16 +
STACK CFI 1772d $esi: $esi .cfa: $esp 12 +
STACK CFI 1772e $edi: $edi .cfa: $esp 8 +
STACK CFI 1772f $ebp: $ebp .cfa: $esp 4 +
STACK CFI INIT 17730 3c .cfa: $esp 4 + .ra: .cfa -4 + ^
STACK CFI 17731 $ebx: .cfa -8 + ^ .cfa: $esp 8 +
STACK CFI 17737 .cfa: $esp 1104 +
STACK CFI 17765 .cfa: $esp 8 +
STACK CFI 1776b $ebx: $ebx .cfa: $esp 4 +
STACK CFI INIT 17770 17b .cfa: $esp 4 + .ra: .cfa -4 + ^
STACK CFI 17771 $ebp: .cfa -8 + ^ .cfa: $esp 8 +
STACK CFI 17772 $edi: .cfa -12 + ^ .cfa: $esp 12 +
STACK CFI 17773 $esi: .cfa -16 + ^ .cfa: $esp 16 +
STACK CFI 17774 $ebx: .cfa -20 + ^ .cfa: $esp 20 +
STACK CFI 1777c .cfa: $esp 1136 +
STACK CFI 17839 .cfa: $esp 20 +
STACK CFI 1783f $ebx: $ebx .cfa: $esp 16 +
STACK CFI 17840 $esi: $esi .cfa: $esp 12 +
STACK CFI 17841 $edi: $edi .cfa: $esp 8 +
STACK CFI 17842 $ebp: $ebp .cfa: $esp 4 +
STACK CFI 17843 $ebp: .cfa -8 + ^ $ebx: .cfa -20 + ^ $edi: .cfa -12 + ^ $esi: .cfa -16 + ^ .cfa: $esp 1136 +
STACK CFI 17878 .cfa: $esp 20 +
STACK CFI 17879 $ebx: $ebx .cfa: $esp 16 +
STACK CFI 1787a $esi: $esi .cfa: $esp 12 +
STACK CFI 1787b $edi: $edi .cfa: $esp 8 +
STACK CFI 1787c $ebp: $ebp .cfa: $esp 4 +
STACK CFI 17880 $ebp: .cfa -8 + ^ $ebx: .cfa -20 + ^ $edi: .cfa -12 + ^ $esi: .cfa -16 + ^ .cfa: $esp 1136 +
STACK CFI 1789e .cfa: $esp 20 +
STACK CFI 1789f $ebx: $ebx .cfa: $esp 16 +
STACK CFI 178a0 $esi: $esi .cfa: $esp 12 +
STACK CFI 178a1 $edi: $edi .cfa: $esp 8 +
STACK CFI 178a2 $ebp: $ebp .cfa: $esp 4 +
STACK CFI 178a3 $ebp: .cfa -8 + ^ $ebx: .cfa -20 + ^ $edi: .cfa -12 + ^ $esi: .cfa -16 + ^ .cfa: $esp 1136 +
STACK CFI 178a9 .cfa: $esp 20 +
STACK CFI 178af $ebx: $ebx .cfa: $esp 16 +
STACK CFI 178b0 $esi: $esi .cfa: $esp 12 +
STACK CFI 178b1 $edi: $edi .cfa: $esp 8 +
STACK CFI 178b2 $ebp: $ebp .cfa: $esp 4 +
STACK CFI 178b3 $ebp: .cfa -8 + ^ $ebx: .cfa -20 + ^ $edi: .cfa -12 + ^ $esi: .cfa -16 + ^ .cfa: $esp 1136 +
STACK CFI INIT 178f0 19 .cfa: $esp 4 + .ra: .cfa -4 + ^
STACK CFI INIT 17910 c1 .cfa: $esp 4 + .ra: .cfa -4 + ^
STACK CFI 17911 $esi: .cfa -8 + ^ .cfa: $esp 8 +
STACK CFI 17912 $ebx: .cfa -12 + ^ .cfa: $esp 12 +
STACK CFI 1791c .cfa: $esp 1120 +
STACK CFI 17970 .cfa: $esp 12 +
STACK CFI 17973 $ebx: $ebx .cfa: $esp 8 +
STACK CFI 17974 $esi: $esi .cfa: $esp 4 +
STACK CFI 17975 $ebx: .cfa -12 + ^ $esi: .cfa -8 + ^ .cfa: $esp 1120 +
STACK CFI 179a3 .cfa: $esp 12 +
STACK CFI 179a9 $ebx: $ebx .cfa: $esp 8 +
STACK CFI 179aa $esi: $esi .cfa: $esp 4 +
STACK CFI 179b0 $ebx: .cfa -12 + ^ $esi: .cfa -8 + ^ .cfa: $esp 1120 +
STACK CFI 179ce .cfa: $esp 12 +
STACK CFI 179cf $ebx: $ebx .cfa: $esp 8 +
STACK CFI 179d0 $esi: $esi .cfa: $esp 4 +
STACK CFI INIT 179e0 e .cfa: $esp 4 + .ra: .cfa -4 + ^
STACK CFI INIT 179f0 e .cfa: $esp 4 + .ra: .cfa -4 + ^
STACK CFI INIT 17a00 40 .cfa: $esp 4 + .ra: .cfa -4 + ^
STACK CFI 17a01 $esi: .cfa -8 + ^ .cfa: $esp 8 +
STACK CFI 17a02 $ebx: .cfa -12 + ^ .cfa: $esp 12 +
STACK CFI 17a08 .cfa: $esp 1104 +
STACK CFI 17a3b .cfa: $esp 12 +
STACK CFI 17a3e $ebx: $ebx .cfa: $esp 8 +
STACK CFI 17a3f $esi: $esi .cfa: $esp 4 +
STACK CFI INIT 17a40 1d0 .cfa: $esp 4 + .ra: .cfa -4 + ^
STACK CFI 17a41 $esi: .cfa -8 + ^ .cfa: $esp 8 +
STACK CFI 17a42 $ebx: .cfa -12 + ^ .cfa: $esp 12 +
STACK CFI 17a4a .cfa: $esp 1168 +
STACK CFI 17a98 .cfa: $esp 12 +
STACK CFI 17a99 $ebx: $ebx .cfa: $esp 8 +
STACK CFI 17a9a $esi: $esi .cfa: $esp 4 +
STACK CFI 17aa0 $ebx: .cfa -12 + ^ $esi: .cfa -8 + ^ .cfa: $esp 1168 +
STACK CFI 17ad2 .cfa: $esp 12 +
STACK CFI 17ad8 $ebx: $ebx .cfa: $esp 8 +
STACK CFI 17ad9 $esi: $esi .cfa: $esp 4 +
STACK CFI 17ae0 $ebx: .cfa -12 + ^ $esi: .cfa -8 + ^ .cfa: $esp 1168 +
STACK CFI INIT 17c10 19 .cfa: $esp 4 + .ra: .cfa -4 + ^
STACK CFI INIT 17c30 8db .cfa: $esp 4 + .ra: .cfa -4 + ^
STACK CFI 17c31 $ebp: .cfa -8 + ^ .cfa: $esp 8 +
STACK CFI 17c32 $edi: .cfa -12 + ^ .cfa: $esp 12 +
STACK CFI 17c33 $esi: .cfa -16 + ^ .cfa: $esp 16 +
STACK CFI 17c34 $ebx: .cfa -20 + ^ .cfa: $esp 20 +
STACK CFI 17c3a .cfa: $esp 1664 +
STACK CFI 17eb5 .cfa: $esp 20 +
STACK CFI 17eb6 $ebx: $ebx .cfa: $esp 16 +
STACK CFI 17eb7 $esi: $esi .cfa: $esp 12 +
STACK CFI 17eb8 $edi: $edi .cfa: $esp 8 +
STACK CFI 17eb9 $ebp: $ebp .cfa: $esp 4 +
STACK CFI 17ec0 $ebp: .cfa -8 + ^ $ebx: .cfa -20 + ^ $edi: .cfa -12 + ^ $esi: .cfa -16 + ^ .cfa: $esp 1664 +
STACK CFI 18169 .cfa: $esp 20 +
STACK CFI 1816a $ebx: $ebx .cfa: $esp 16 +
STACK CFI 1816b $esi: $esi .cfa: $esp 12 +
STACK CFI 1816c $edi: $edi .cfa: $esp 8 +
STACK CFI 1816d $ebp: $ebp .cfa: $esp 4 +
STACK CFI 18170 $ebp: .cfa -8 + ^ $ebx: .cfa -20 + ^ $edi: .cfa -12 + ^ $esi: .cfa -16 + ^ .cfa: $esp 1664 +
STACK CFI INIT 18510 4e .cfa: $esp 4 + .ra: .cfa -4 + ^
STACK CFI 18511 $ebx: .cfa -8 + ^ .cfa: $esp 8 +
STACK CFI 18516 .cfa: $esp 48 +
STACK CFI 1855c .cfa: $esp 8 +
STACK CFI 1855d $ebx: $ebx .cfa: $esp 4 +
STACK CFI INIT 18560 3a8 .cfa: $esp 4 + .ra: .cfa -4 + ^
STACK CFI 18561 $ebp: .cfa -8 + ^ .cfa: $esp 8 +
STACK CFI 18562 $edi: .cfa -12 + ^ .cfa: $esp 12 +
STACK CFI 18563 $esi: .cfa -16 + ^ .cfa: $esp 16 +
STACK CFI 18564 $ebx: .cfa -20 + ^ .cfa: $esp 20 +
STACK CFI 1856a .cfa: $esp 1152 +
STACK CFI 186fd .cfa: $esp 20 +
STACK CFI 186fe $ebx: $ebx .cfa: $esp 16 +
STACK CFI 186ff $esi: $esi .cfa: $esp 12 +
STACK CFI 18700 $edi: $edi .cfa: $esp 8 +
STACK CFI 18701 $ebp: $ebp .cfa: $esp 4 +
STACK CFI 18702 $ebp: .cfa -8 + ^ $ebx: .cfa -20 + ^ $edi: .cfa -12 + ^ $esi: .cfa -16 + ^ .cfa: $esp 1152 +
STACK CFI 187da .cfa: $esp 20 +
STACK CFI 187db $ebx: $ebx .cfa: $esp 16 +
STACK CFI 187dc $esi: $esi .cfa: $esp 12 +
STACK CFI 187dd $edi: $edi .cfa: $esp 8 +
STACK CFI 187de $ebp: $ebp .cfa: $esp 4 +
STACK CFI 187e0 $ebp: .cfa -8 + ^ $ebx: .cfa -20 + ^ $edi: .cfa -12 + ^ $esi: .cfa -16 + ^ .cfa: $esp 1152 +
STACK CFI 187fe .cfa: $esp 20 +
STACK CFI 187ff $ebx: $ebx .cfa: $esp 16 +
STACK CFI 18800 $esi: $esi .cfa: $esp 12 +
STACK CFI 18801 $edi: $edi .cfa: $esp 8 +
STACK CFI 18802 $ebp: $ebp .cfa: $esp 4 +
STACK CFI 18803 $ebp: .cfa -8 + ^ $ebx: .cfa -20 + ^ $edi: .cfa -12 + ^ $esi: .cfa -16 + ^ .cfa: $esp 1152 +
STACK CFI 1883d .cfa: $esp 20 +
STACK CFI 1883e $ebx: $ebx .cfa: $esp 16 +
STACK CFI 1883f $esi: $esi .cfa: $esp 12 +
STACK CFI 18840 $edi: $edi .cfa: $esp 8 +
STACK CFI 18841 $ebp: $ebp .cfa: $esp 4 +
STACK CFI 18842 $ebp: .cfa -8 + ^ $ebx: .cfa -20 + ^ $edi: .cfa -12 + ^ $esi: .cfa -16 + ^ .cfa: $esp 1152 +
STACK CFI INIT 18910 121 .cfa: $esp 4 + .ra: .cfa -4 + ^
STACK CFI 18911 $ebp: .cfa -8 + ^ .cfa: $esp 8 +
STACK CFI 18915 .cfa: $ebp 8 +
STACK CFI 18920 $ebx: .cfa -16 + ^ $esi: .cfa -12 + ^
STACK CFI 1893d $ebx: $ebx
STACK CFI 1893e $esi: $esi
STACK CFI 1893f $ebp: $ebp .cfa: $esp 4 +
STACK CFI 18940 $ebp: .cfa -8 + ^ $ebx: .cfa -16 + ^ $esi: .cfa -12 + ^ .cfa: $ebp 8 +
STACK CFI INIT 18a40 fb .cfa: $esp 4 + .ra: .cfa -4 + ^
STACK CFI 18a41 $esi: .cfa -8 + ^ .cfa: $esp 8 +
STACK CFI 18a42 $ebx: .cfa -12 + ^ .cfa: $esp 12 +
STACK CFI 18a4a .cfa: $esp 1120 +
STACK CFI 18a6f .cfa: $esp 12 +
STACK CFI 18a72 $ebx: $ebx .cfa: $esp 8 +
STACK CFI 18a73 $esi: $esi .cfa: $esp 4 +
STACK CFI 18a74 $ebx: .cfa -12 + ^ $esi: .cfa -8 + ^ .cfa: $esp 1120 +
STACK CFI INIT 18b40 33c .cfa: $esp 4 + .ra: .cfa -4 + ^
STACK CFI 18b41 $ebp: .cfa -8 + ^ .cfa: $esp 8 +
STACK CFI 18b42 $edi: .cfa -12 + ^ .cfa: $esp 12 +
STACK CFI 18b43 $esi: .cfa -16 + ^ .cfa: $esp 16 +
STACK CFI 18b44 $ebx: .cfa -20 + ^ .cfa: $esp 20 +
STACK CFI 18b4a .cfa: $esp 1152 +
STACK CFI 18cae .cfa: $esp 20 +
STACK CFI 18caf $ebx: $ebx .cfa: $esp 16 +
STACK CFI 18cb0 $esi: $esi .cfa: $esp 12 +
STACK CFI 18cb1 $edi: $edi .cfa: $esp 8 +
STACK CFI 18cb2 $ebp: $ebp .cfa: $esp 4 +
STACK CFI 18cb3 $ebp: .cfa -8 + ^ $ebx: .cfa -20 + ^ $edi: .cfa -12 + ^ $esi: .cfa -16 + ^ .cfa: $esp 1152 +
STACK CFI 18d22 .cfa: $esp 20 +
STACK CFI 18d23 $ebx: $ebx .cfa: $esp 16 +
STACK CFI 18d24 $esi: $esi .cfa: $esp 12 +
STACK CFI 18d25 $edi: $edi .cfa: $esp 8 +
STACK CFI 18d26 $ebp: $ebp .cfa: $esp 4 +
STACK CFI 18d30 $ebp: .cfa -8 + ^ $ebx: .cfa -20 + ^ $edi: .cfa -12 + ^ $esi: .cfa -16 + ^ .cfa: $esp 1152 +
STACK CFI 18dce .cfa: $esp 20 +
STACK CFI 18dcf $ebx: $ebx .cfa: $esp 16 +
STACK CFI 18dd0 $esi: $esi .cfa: $esp 12 +
STACK CFI 18dd1 $edi: $edi .cfa: $esp 8 +
STACK CFI 18dd2 $ebp: $ebp .cfa: $esp 4 +
STACK CFI 18dd3 $ebp: .cfa -8 + ^ $ebx: .cfa -20 + ^ $edi: .cfa -12 + ^ $esi: .cfa -16 + ^ .cfa: $esp 1152 +
STACK CFI 18e29 .cfa: $esp 20 +
STACK CFI 18e2a $ebx: $ebx .cfa: $esp 16 +
STACK CFI 18e2b $esi: $esi .cfa: $esp 12 +
STACK CFI 18e2c $edi: $edi .cfa: $esp 8 +
STACK CFI 18e2d $ebp: $ebp .cfa: $esp 4 +
STACK CFI 18e2e $ebp: .cfa -8 + ^ $ebx: .cfa -20 + ^ $edi: .cfa -12 + ^ $esi: .cfa -16 + ^ .cfa: $esp 1152 +
STACK CFI INIT 18e80 db .cfa: $esp 4 + .ra: .cfa -4 + ^
STACK CFI 18e81 $esi: .cfa -8 + ^ .cfa: $esp 8 +
STACK CFI 18e82 $ebx: .cfa -12 + ^ .cfa: $esp 12 +
STACK CFI 18e8a .cfa: $esp 1120 +
STACK CFI 18ead .cfa: $esp 12 +
STACK CFI 18eae $ebx: $ebx .cfa: $esp 8 +
STACK CFI 18eaf $esi: $esi .cfa: $esp 4 +
STACK CFI 18eb0 $ebx: .cfa -12 + ^ $esi: .cfa -8 + ^ .cfa: $esp 1120 +
STACK CFI INIT 18f60 df .cfa: $esp 4 + .ra: .cfa -4 + ^
STACK CFI 18f61 $esi: .cfa -8 + ^ .cfa: $esp 8 +
STACK CFI 18f62 $ebx: .cfa -12 + ^ .cfa: $esp 12 +
STACK CFI 18f6a .cfa: $esp 1120 +
STACK CFI 18f8f .cfa: $esp 12 +
STACK CFI 18f92 $ebx: $ebx .cfa: $esp 8 +
STACK CFI 18f93 $esi: $esi .cfa: $esp 4 +
STACK CFI 18f94 $ebx: .cfa -12 + ^ $esi: .cfa -8 + ^ .cfa: $esp 1120 +
STACK CFI INIT 19040 82 .cfa: $esp 4 + .ra: .cfa -4 + ^
STACK CFI 19041 $esi: .cfa -8 + ^ .cfa: $esp 8 +
STACK CFI 19042 $ebx: .cfa -12 + ^ .cfa: $esp 12 +
STACK CFI 19045 .cfa: $esp 48 +
STACK CFI 19074 .cfa: $esp 12 +
STACK CFI 19077 $ebx: $ebx .cfa: $esp 8 +
STACK CFI 19078 $esi: $esi .cfa: $esp 4 +
STACK CFI 19080 $ebx: .cfa -12 + ^ $esi: .cfa -8 + ^ .cfa: $esp 48 +
STACK CFI 190bd .cfa: $esp 12 +
STACK CFI 190c0 $ebx: $ebx .cfa: $esp 8 +
STACK CFI 190c1 $esi: $esi .cfa: $esp 4 +
STACK CFI INIT 190d0 41 .cfa: $esp 4 + .ra: .cfa -4 + ^
STACK CFI 190d1 $ebx: .cfa -8 + ^ .cfa: $esp 8 +
STACK CFI 190d6 .cfa: $esp 48 +
STACK CFI 1910f .cfa: $esp 8 +
STACK CFI 19110 $ebx: $ebx .cfa: $esp 4 +
STACK CFI INIT 19120 6e7 .cfa: $esp 4 + .ra: .cfa -4 + ^
STACK CFI 19121 $ebp: .cfa -8 + ^ .cfa: $esp 8 +
STACK CFI 19122 $edi: .cfa -12 + ^ .cfa: $esp 12 +
STACK CFI 19125 $esi: .cfa -16 + ^ .cfa: $esp 16 +
STACK CFI 19126 $ebx: .cfa -20 + ^ .cfa: $esp 20 +
STACK CFI 1912e .cfa: $esp 2208 +
STACK CFI 1919a .cfa: $esp 20 +
STACK CFI 1919d $ebx: $ebx .cfa: $esp 16 +
STACK CFI 1919e $esi: $esi .cfa: $esp 12 +
STACK CFI 1919f $edi: $edi .cfa: $esp 8 +
STACK CFI 191a0 $ebp: $ebp .cfa: $esp 4 +
STACK CFI 191a1 $ebp: .cfa -8 + ^ $ebx: .cfa -20 + ^ $edi: .cfa -12 + ^ $esi: .cfa -16 + ^ .cfa: $esp 2208 +
STACK CFI INIT 19810 a4 .cfa: $esp 4 + .ra: .cfa -4 + ^
STACK CFI 19811 $ebp: .cfa -8 + ^ .cfa: $esp 8 +
STACK CFI 19812 $edi: .cfa -12 + ^ .cfa: $esp 12 +
STACK CFI 19813 $esi: .cfa -16 + ^ .cfa: $esp 16 +
STACK CFI 19814 $ebx: .cfa -20 + ^ .cfa: $esp 20 +
STACK CFI 1981c .cfa: $esp 1120 +
STACK CFI 19892 .cfa: $esp 20 +
STACK CFI 19895 $ebx: $ebx .cfa: $esp 16 +
STACK CFI 19896 $esi: $esi .cfa: $esp 12 +
STACK CFI 19897 $edi: $edi .cfa: $esp 8 +
STACK CFI 19898 $ebp: $ebp .cfa: $esp 4 +
STACK CFI 198a0 $ebp: .cfa -8 + ^ $ebx: .cfa -20 + ^ $edi: .cfa -12 + ^ $esi: .cfa -16 + ^ .cfa: $esp 1120 +
STACK CFI 198ad .cfa: $esp 20 +
STACK CFI 198b0 $ebx: $ebx .cfa: $esp 16 +
STACK CFI 198b1 $esi: $esi .cfa: $esp 12 +
STACK CFI 198b2 $edi: $edi .cfa: $esp 8 +
STACK CFI 198b3 $ebp: $ebp .cfa: $esp 4 +
STACK CFI INIT 198c0 4cf .cfa: $esp 4 + .ra: .cfa -4 + ^
STACK CFI 198c1 $ebp: .cfa -8 + ^ .cfa: $esp 8 +
STACK CFI 198c2 $edi: .cfa -12 + ^ .cfa: $esp 12 +
STACK CFI 198c5 $esi: .cfa -16 + ^ .cfa: $esp 16 +
STACK CFI 198c6 $ebx: .cfa -20 + ^ .cfa: $esp 20 +
STACK CFI 198cc .cfa: $esp 2208 +
STACK CFI 1991e .cfa: $esp 20 +
STACK CFI 1991f $ebx: $ebx .cfa: $esp 16 +
STACK CFI 19920 $esi: $esi .cfa: $esp 12 +
STACK CFI 19921 $edi: $edi .cfa: $esp 8 +
STACK CFI 19922 $ebp: $ebp .cfa: $esp 4 +
STACK CFI 19923 $ebp: .cfa -8 + ^ $ebx: .cfa -20 + ^ $edi: .cfa -12 + ^ $esi: .cfa -16 + ^ .cfa: $esp 2208 +
STACK CFI 19ad1 .cfa: $esp 20 +
STACK CFI 19ad2 $ebx: $ebx .cfa: $esp 16 +
STACK CFI 19ad3 $esi: $esi .cfa: $esp 12 +
STACK CFI 19ad4 $edi: $edi .cfa: $esp 8 +
STACK CFI 19ad5 $ebp: $ebp .cfa: $esp 4 +
STACK CFI 19ae0 $ebp: .cfa -8 + ^ $ebx: .cfa -20 + ^ $edi: .cfa -12 + ^ $esi: .cfa -16 + ^ .cfa: $esp 2208 +
STACK CFI 19af6 .cfa: $esp 20 +
STACK CFI 19af9 $ebx: $ebx .cfa: $esp 16 +
STACK CFI 19afa $esi: $esi .cfa: $esp 12 +
STACK CFI 19afb $edi: $edi .cfa: $esp 8 +
STACK CFI 19afc $ebp: $ebp .cfa: $esp 4 +
STACK CFI 19b00 $ebp: .cfa -8 + ^ $ebx: .cfa -20 + ^ $edi: .cfa -12 + ^ $esi: .cfa -16 + ^ .cfa: $esp 2208 +
STACK CFI 19b5a .cfa: $esp 20 +
STACK CFI 19b60 $ebx: $ebx .cfa: $esp 16 +
STACK CFI 19b61 $esi: $esi .cfa: $esp 12 +
STACK CFI 19b62 $edi: $edi .cfa: $esp 8 +
STACK CFI 19b63 $ebp: $ebp .cfa: $esp 4 +
STACK CFI 19b64 $ebp: .cfa -8 + ^ $ebx: .cfa -20 + ^ $edi: .cfa -12 + ^ $esi: .cfa -16 + ^ .cfa: $esp 2208 +
STACK CFI INIT 19d90 19 .cfa: $esp 4 + .ra: .cfa -4 + ^
STACK CFI INIT 19db0 12e .cfa: $esp 4 + .ra: .cfa -4 + ^
STACK CFI 19db1 $edi: .cfa -8 + ^ .cfa: $esp 8 +
STACK CFI 19db2 $esi: .cfa -12 + ^ .cfa: $esp 12 +
STACK CFI 19db3 $ebx: .cfa -16 + ^ .cfa: $esp 16 +
STACK CFI 19dbb .cfa: $esp 1264 +
STACK CFI 19e96 .cfa: $esp 16 +
STACK CFI 19e99 $ebx: $ebx .cfa: $esp 12 +
STACK CFI 19e9a $esi: $esi .cfa: $esp 8 +
STACK CFI 19e9b $edi: $edi .cfa: $esp 4 +
STACK CFI 19ea0 $ebx: .cfa -16 + ^ $edi: .cfa -8 + ^ $esi: .cfa -12 + ^ .cfa: $esp 1264 +
STACK CFI 19eba .cfa: $esp 16 +
STACK CFI 19ebd $ebx: $ebx .cfa: $esp 12 +
STACK CFI 19ebe $esi: $esi .cfa: $esp 8 +
STACK CFI 19ebf $edi: $edi .cfa: $esp 4 +
STACK CFI 19ec0 $ebx: .cfa -16 + ^ $edi: .cfa -8 + ^ $esi: .cfa -12 + ^ .cfa: $esp 1264 +
STACK CFI 19ed6 .cfa: $esp 16 +
STACK CFI 19edb $ebx: $ebx .cfa: $esp 12 +
STACK CFI 19edc $esi: $esi .cfa: $esp 8 +
STACK CFI 19edd $edi: $edi .cfa: $esp 4 +
STACK CFI INIT 19ee0 8a .cfa: $esp 4 + .ra: .cfa -4 + ^
STACK CFI 19ee1 $ebp: .cfa -8 + ^ .cfa: $esp 8 +
STACK CFI 19ee2 $edi: .cfa -12 + ^ .cfa: $esp 12 +
STACK CFI 19ee3 $esi: .cfa -16 + ^ .cfa: $esp 16 +
STACK CFI 19ee4 $ebx: .cfa -20 + ^ .cfa: $esp 20 +
STACK CFI 19ee7 .cfa: $esp 64 +
STACK CFI 19f47 .cfa: $esp 20 +
STACK CFI 19f48 $ebx: $ebx .cfa: $esp 16 +
STACK CFI 19f49 $esi: $esi .cfa: $esp 12 +
STACK CFI 19f4a $edi: $edi .cfa: $esp 8 +
STACK CFI 19f4b $ebp: $ebp .cfa: $esp 4 +
STACK CFI 19f50 $ebp: .cfa -8 + ^ $ebx: .cfa -20 + ^ $edi: .cfa -12 + ^ $esi: .cfa -16 + ^ .cfa: $esp 64 +
STACK CFI 19f60 .cfa: $esp 20 +
STACK CFI 19f66 $ebx: $ebx .cfa: $esp 16 +
STACK CFI 19f67 $esi: $esi .cfa: $esp 12 +
STACK CFI 19f68 $edi: $edi .cfa: $esp 8 +
STACK CFI 19f69 $ebp: $ebp .cfa: $esp 4 +
STACK CFI INIT 216f40 1d .cfa: $esp 4 + .ra: .cfa -4 + ^
STACK CFI 216f43 .cfa: $esp 32 +
STACK CFI 216f5c .cfa: $esp 4 +
STACK CFI INIT 15acc0 98 .cfa: $esp 4 + .ra: .cfa -4 + ^
STACK CFI 15acc1 $ebx: .cfa -8 + ^ .cfa: $esp 8 +
STACK CFI 15acc4 .cfa: $esp 32 +
STACK CFI 15ad09 .cfa: $esp 24 +
STACK CFI 15ad0c .cfa: $esp 32 +
STACK CFI 15ad0f .cfa: $esp 8 +
STACK CFI 15ad10 $ebx: $ebx .cfa: $esp 4 +
STACK CFI 15ad11 $ebx: .cfa -8 + ^ .cfa: $esp 32 +
STACK CFI 15ad28 .cfa: $esp 8 +
STACK CFI 15ad29 $ebx: $ebx .cfa: $esp 4 +
STACK CFI 15ad30 $ebx: .cfa -8 + ^ .cfa: $esp 32 +
STACK CFI 15ad38 .cfa: $esp 28 +
STACK CFI 15ad3b .cfa: $esp 32 +
STACK CFI 15ad3e .cfa: $esp 8 +
STACK CFI 15ad3f $ebx: $ebx .cfa: $esp 4 +
STACK CFI 15ad40 $ebx: .cfa -8 + ^ .cfa: $esp 32 +
STACK CFI 15ad53 .cfa: $esp 28 +
STACK CFI 15ad56 .cfa: $esp 32 +
STACK CFI INIT 166490 ca .cfa: $esp 4 + .ra: .cfa -4 + ^
STACK CFI 166491 $ebp: .cfa -8 + ^ .cfa: $esp 8 +
STACK CFI 166494 .cfa: $esp 128 +
STACK CFI 1664ec .cfa: $esp 120 +
STACK CFI 1664ef .cfa: $esp 128 +
STACK CFI 166526 .cfa: $esp 8 +
STACK CFI 166529 $ebp: $ebp .cfa: $esp 4 +
STACK CFI 16652a $ebp: .cfa -8 + ^ .cfa: $esp 128 +
STACK CFI INIT 1ab880 11f2 .cfa: $esp 4 + .ra: .cfa -4 + ^
STACK CFI 1ab881 $ebp: .cfa -8 + ^ .cfa: $esp 8 +
STACK CFI 1ab883 .cfa: $ebp 8 +
STACK CFI 1ab88e $ebx: .cfa -16 + ^ $esi: .cfa -12 + ^
STACK CFI 1ab8fe $ebx: $ebx
STACK CFI 1ab8ff $esi: $esi
STACK CFI 1ab900 $ebp: $ebp .cfa: $esp 4 +
STACK CFI 1ab903 $ebp: .cfa -8 + ^ $ebx: .cfa -16 + ^ $esi: .cfa -12 + ^ .cfa: $ebp 8 +
STACK CFI INIT 168580 7 .cfa: $esp 4 + .ra: .cfa -4 + ^
STACK CFI INIT 17e620 2 .cfa: $esp 4 + .ra: .cfa -4 + ^
STACK CFI INIT 17e610 f .cfa: $esp 4 + .ra: .cfa -4 + ^
STACK CFI 17e613 .cfa: $esp 32 +
STACK CFI 17e61e .cfa: $esp 4 +
STACK CFI INIT 19f70 2a .cfa: $esp 4 + .ra: .cfa -4 + ^
STACK CFI 19f71 $ebx: .cfa -8 + ^ .cfa: $esp 8 +
STACK CFI 19f79 .cfa: $esp 32 +
STACK CFI 19f98 .cfa: $esp 8 +
STACK CFI 19f99 $ebx: $ebx .cfa: $esp 4 +
STACK CFI INIT 19fa0 a .cfa: $esp 4 + .ra: .cfa -4 + ^
STACK CFI INIT 19fb0 a .cfa: $esp 4 + .ra: .cfa -4 + ^
STACK CFI INIT 19fc0 a .cfa: $esp 4 + .ra: .cfa -4 + ^
STACK CFI INIT 19fd0 4b .cfa: $esp 4 + .ra: .cfa -4 + ^
STACK CFI 19fd1 $ebx: .cfa -8 + ^ .cfa: $esp 8 +
STACK CFI 19fd4 .cfa: $esp 32 +
STACK CFI 19ffc .cfa: $esp 8 +
STACK CFI 19ffd $ebx: $ebx .cfa: $esp 4 +
STACK CFI 1a000 $ebx: .cfa -8 + ^ .cfa: $esp 32 +
STACK CFI 1a018 .cfa: $esp 8 +
STACK CFI 1a019 $ebx: $ebx .cfa: $esp 4 +
STACK CFI INIT 1a020 a2 .cfa: $esp 4 + .ra: .cfa -4 + ^
STACK CFI 1a021 $edi: .cfa -8 + ^ .cfa: $esp 8 +
STACK CFI 1a022 $esi: .cfa -12 + ^ .cfa: $esp 12 +
STACK CFI 1a025 $ebx: .cfa -16 + ^ .cfa: $esp 16 +
STACK CFI 1a028 .cfa: $esp 48 +
STACK CFI 1a061 .cfa: $esp 16 +
STACK CFI 1a062 $ebx: $ebx .cfa: $esp 12 +
STACK CFI 1a063 $esi: $esi .cfa: $esp 8 +
STACK CFI 1a064 $edi: $edi .cfa: $esp 4 +
STACK CFI 1a070 $ebx: .cfa -16 + ^ $edi: .cfa -8 + ^ $esi: .cfa -12 + ^ .cfa: $esp 48 +
STACK CFI 1a086 .cfa: $esp 40 +
STACK CFI 1a089 .cfa: $esp 48 +
STACK CFI INIT 216f60 3c .cfa: $esp 4 + .ra: .cfa -4 + ^
STACK CFI 216f61 $ebx: .cfa -8 + ^ .cfa: $esp 8 +
STACK CFI 216f67 .cfa: $esp 48 +
STACK CFI 216f92 .cfa: $esp 40 +
STACK CFI 216f95 .cfa: $esp 48 +
STACK CFI 216f98 .cfa: $esp 8 +
STACK CFI 216f99 $ebx: $ebx .cfa: $esp 4 +
STACK CFI INIT 1a0d0 1e2 .cfa: $esp 4 + .ra: .cfa -4 + ^
STACK CFI 1a0d1 $ebp: .cfa -8 + ^ .cfa: $esp 8 +
STACK CFI 1a0d3 .cfa: $ebp 8 +
STACK CFI 1a0df $ebx: .cfa -20 + ^ $edi: .cfa -12 + ^ $esi: .cfa -16 + ^
STACK CFI 1a22f $ebx: $ebx
STACK CFI 1a230 $esi: $esi
STACK CFI 1a231 $edi: $edi
STACK CFI 1a232 $ebp: $ebp .cfa: $esp 4 +
STACK CFI 1a233 $ebp: .cfa -8 + ^ $ebx: .cfa -20 + ^ $edi: .cfa -12 + ^ $esi: .cfa -16 + ^ .cfa: $ebp 8 +
STACK CFI INIT 1a2c0 27c .cfa: $esp 4 + .ra: .cfa -4 + ^
STACK CFI 1a2c1 $ebp: .cfa -8 + ^ .cfa: $esp 8 +
STACK CFI 1a2c3 .cfa: $ebp 8 +
STACK CFI 1a2cf $ebx: .cfa -20 + ^ $edi: .cfa -12 + ^ $esi: .cfa -16 + ^
STACK CFI 1a491 $ebx: $ebx
STACK CFI 1a492 $esi: $esi
STACK CFI 1a493 $edi: $edi
STACK CFI 1a494 $ebp: $ebp .cfa: $esp 4 +
STACK CFI 1a495 $ebp: .cfa -8 + ^ $ebx: .cfa -20 + ^ $edi: .cfa -12 + ^ $esi: .cfa -16 + ^ .cfa: $ebp 8 +
STACK CFI INIT 1a540 29c .cfa: $esp 4 + .ra: .cfa -4 + ^
STACK CFI 1a541 $ebp: .cfa -8 + ^ .cfa: $esp 8 +
STACK CFI 1a543 .cfa: $ebp 8 +
STACK CFI 1a54f $ebx: .cfa -20 + ^ $edi: .cfa -12 + ^ $esi: .cfa -16 + ^
STACK CFI 1a5b3 $ebx: $ebx
STACK CFI 1a5b4 $esi: $esi
STACK CFI 1a5b5 $edi: $edi
STACK CFI 1a5b6 $ebp: $ebp .cfa: $esp 4 +
STACK CFI 1a5c0 $ebp: .cfa -8 + ^ $ebx: .cfa -20 + ^ $edi: .cfa -12 + ^ $esi: .cfa -16 + ^ .cfa: $ebp 8 +
STACK CFI INIT 1a7e0 1b .cfa: $esp 4 + .ra: .cfa -4 + ^
STACK CFI 1a7e3 .cfa: $esp 32 +
STACK CFI 1a7fa .cfa: $esp 4 +
STACK CFI INIT 1a800 23 .cfa: $esp 4 + .ra: .cfa -4 + ^
STACK CFI 1a803 .cfa: $esp 32 +
STACK CFI 1a822 .cfa: $esp 4 +
STACK CFI INIT 1a830 2b .cfa: $esp 4 + .ra: .cfa -4 + ^
STACK CFI 1a833 .cfa: $esp 32 +
STACK CFI 1a85a .cfa: $esp 4 +
STACK CFI INIT 1a860 1b .cfa: $esp 4 + .ra: .cfa -4 + ^
STACK CFI 1a863 .cfa: $esp 32 +
STACK CFI 1a87a .cfa: $esp 4 +
STACK CFI INIT 1a880 23 .cfa: $esp 4 + .ra: .cfa -4 + ^
STACK CFI 1a883 .cfa: $esp 32 +
STACK CFI 1a8a2 .cfa: $esp 4 +
STACK CFI INIT 1a8b0 2b .cfa: $esp 4 + .ra: .cfa -4 + ^
STACK CFI 1a8b3 .cfa: $esp 32 +
STACK CFI 1a8da .cfa: $esp 4 +
STACK CFI INIT 1a8e0 35 .cfa: $esp 4 + .ra: .cfa -4 + ^
STACK CFI 1a8e3 .cfa: $esp 48 +
STACK CFI 1a90e .cfa: $esp 36 +
STACK CFI 1a911 .cfa: $esp 48 +
STACK CFI 1a914 .cfa: $esp 4 +
STACK CFI INIT 1a920 45 .cfa: $esp 4 + .ra: .cfa -4 + ^
STACK CFI 1a933 .cfa: $esp 48 +
STACK CFI 1a95e .cfa: $esp 36 +
STACK CFI 1a961 .cfa: $esp 48 +
STACK CFI 1a964 .cfa: $esp 4 +
STACK CFI INIT 1a970 3b .cfa: $esp 4 + .ra: .cfa -4 + ^
STACK CFI 1a981 $ebx: .cfa -8 + ^ .cfa: $esp 8 +
STACK CFI 1a984 .cfa: $esp 32 +
STACK CFI 1a9a3 .cfa: $esp 24 +
STACK CFI 1a9a6 .cfa: $esp 32 +
STACK CFI 1a9a9 .cfa: $esp 8 +
STACK CFI 1a9aa $ebx: $ebx .cfa: $esp 4 +
STACK CFI INIT 1a9b0 3fc .cfa: $esp 4 + .ra: .cfa -4 + ^
STACK CFI 1a9b1 $ebp: .cfa -8 + ^ .cfa: $esp 8 +
STACK CFI 1a9b3 .cfa: $ebp 8 +
STACK CFI 1acf6 $ebp: $ebp .cfa: $esp 4 +
STACK CFI 1ad00 $ebp: .cfa -8 + ^ .cfa: $ebp 8 +
STACK CFI INIT 1adb0 17 .cfa: $esp 4 + .ra: .cfa -4 + ^
STACK CFI 1adb3 .cfa: $esp 32 +
STACK CFI 1adc6 .cfa: $esp 4 +
STACK CFI INIT 1add0 ae .cfa: $esp 4 + .ra: .cfa -4 + ^
STACK CFI 1add1 $ebx: .cfa -8 + ^ .cfa: $esp 8 +
STACK CFI 1add4 .cfa: $esp 48 +
STACK CFI 1adec .cfa: $esp 8 +
STACK CFI 1aded $ebx: $ebx .cfa: $esp 4 +
STACK CFI 1adf0 $ebx: .cfa -8 + ^ .cfa: $esp 48 +
STACK CFI 1ae42 .cfa: $esp 8 +
STACK CFI 1ae43 $ebx: $ebx .cfa: $esp 4 +
STACK CFI 1ae44 $ebx: .cfa -8 + ^ .cfa: $esp 48 +
STACK CFI INIT 1ae80 641 .cfa: $esp 4 + .ra: .cfa -4 + ^
STACK CFI 1ae81 $ebp: .cfa -8 + ^ .cfa: $esp 8 +
STACK CFI 1ae83 .cfa: $ebp 8 +
STACK CFI 1ae87 $edi: .cfa -12 + ^
STACK CFI 1b432 $ebp: $ebp $edi: $edi .cfa: $esp 4 +
STACK CFI 1b433 $ebp: .cfa -8 + ^ $edi: .cfa -12 + ^ .cfa: $ebp 8 +
STACK CFI INIT 216fa0 215 .cfa: $esp 4 + .ra: .cfa -4 + ^
STACK CFI 216fa1 $ebp: .cfa -8 + ^ .cfa: $esp 8 +
STACK CFI 216fa3 .cfa: $ebp 8 +
STACK CFI 217174 $ebp: $ebp .cfa: $esp 4 +
STACK CFI 217175 $ebp: .cfa -8 + ^ .cfa: $ebp 8 +
STACK CFI INIT 17d910 42 .cfa: $esp 4 + .ra: .cfa -4 + ^
STACK CFI 17d911 $ebx: .cfa -8 + ^ .cfa: $esp 8 +
STACK CFI 17d916 .cfa: $esp 16 +
STACK CFI 17d94c .cfa: $esp 8 +
STACK CFI 17d94d $ebx: $ebx .cfa: $esp 4 +
STACK CFI INIT 17db30 5c .cfa: $esp 4 + .ra: .cfa -4 + ^
STACK CFI 17db31 $esi: .cfa -8 + ^ .cfa: $esp 8 +
STACK CFI 17db32 $ebx: .cfa -12 + ^ .cfa: $esp 12 +
STACK CFI 17db37 .cfa: $esp 96 +
STACK CFI 17db89 .cfa: $esp 12 +
STACK CFI 17db8a $ebx: $ebx .cfa: $esp 8 +
STACK CFI 17db8b $esi: $esi .cfa: $esp 4 +
STACK CFI INIT 17e420 1e2 .cfa: $esp 4 + .ra: .cfa -4 + ^
STACK CFI 17e421 $ebp: .cfa -8 + ^ .cfa: $esp 8 +
STACK CFI 17e423 .cfa: $ebp 8 +
STACK CFI 17e59d $ebp: $ebp .cfa: $esp 4 +
STACK CFI 17e5a0 $ebp: .cfa -8 + ^ .cfa: $ebp 8 +
STACK CFI INIT 17dac0 64 .cfa: $esp 4 + .ra: .cfa -4 + ^
STACK CFI 17dac1 $esi: .cfa -8 + ^ .cfa: $esp 8 +
STACK CFI 17dac2 $ebx: .cfa -12 + ^ .cfa: $esp 12 +
STACK CFI 17dac7 .cfa: $esp 96 +
STACK CFI 17db21 .cfa: $esp 12 +
STACK CFI 17db22 $ebx: $ebx .cfa: $esp 8 +
STACK CFI 17db23 $esi: $esi .cfa: $esp 4 +
STACK CFI INIT 216160 50 .cfa: $esp 4 + .ra: .cfa -4 + ^
STACK CFI 216161 $ebx: .cfa -8 + ^ .cfa: $esp 8 +
STACK CFI 216164 .cfa: $esp 32 +
STACK CFI 2161ae .cfa: $esp 8 +
STACK CFI 2161af $ebx: $ebx .cfa: $esp 4 +
STACK CFI INIT 17d8c0 4b .cfa: $esp 4 + .ra: .cfa -4 + ^
STACK CFI 17d8c1 $ebx: .cfa -8 + ^ .cfa: $esp 8 +
STACK CFI 17d8c6 .cfa: $esp 32 +
STACK CFI 17d909 .cfa: $esp 8 +
STACK CFI 17d90a $ebx: $ebx .cfa: $esp 4 +
STACK CFI INIT 2161b0 47 .cfa: $esp 4 + .ra: .cfa -4 + ^
STACK CFI 2161b1 $ebx: .cfa -8 + ^ .cfa: $esp 8 +
STACK CFI 2161b4 .cfa: $esp 16 +
STACK CFI 2161f1 .cfa: $esp 8 +
STACK CFI 2161f2 $ebx: $ebx .cfa: $esp 4 +
STACK CFI INIT 164f30 649 .cfa: $esp 4 + .ra: .cfa -4 + ^
STACK CFI 164f31 $ebp: .cfa -8 + ^ .cfa: $esp 8 +
STACK CFI 164f33 .cfa: $ebp 8 +
STACK CFI 164f3e $ebx: .cfa -16 + ^ $esi: .cfa -12 + ^
STACK CFI 16520f $ebx: $ebx
STACK CFI 165210 $esi: $esi
STACK CFI 165211 $ebp: $ebp .cfa: $esp 4 +
STACK CFI 165212 $ebp: .cfa -8 + ^ $ebx: .cfa -16 + ^ $esi: .cfa -12 + ^ .cfa: $ebp 8 +
STACK CFI INIT 193040 11d2 .cfa: $esp 4 + .ra: .cfa -4 + ^
STACK CFI 193041 $ebp: .cfa -8 + ^ .cfa: $esp 8 +
STACK CFI 193043 .cfa: $ebp 8 +
STACK CFI 19304e $ebx: .cfa -16 + ^ $esi: .cfa -12 + ^
STACK CFI 1930be $ebx: $ebx
STACK CFI 1930bf $esi: $esi
STACK CFI 1930c0 $ebp: $ebp .cfa: $esp 4 +
STACK CFI 1930c3 $ebp: .cfa -8 + ^ $ebx: .cfa -16 + ^ $esi: .cfa -12 + ^ .cfa: $ebp 8 +
STACK CFI INIT 1e19d0 11d2 .cfa: $esp 4 + .ra: .cfa -4 + ^
STACK CFI 1e19d1 $ebp: .cfa -8 + ^ .cfa: $esp 8 +
STACK CFI 1e19d3 .cfa: $ebp 8 +
STACK CFI 1e19de $ebx: .cfa -16 + ^ $esi: .cfa -12 + ^
STACK CFI 1e1a4e $ebx: $ebx
STACK CFI 1e1a4f $esi: $esi
STACK CFI 1e1a50 $ebp: $ebp .cfa: $esp 4 +
STACK CFI 1e1a53 $ebp: .cfa -8 + ^ $ebx: .cfa -16 + ^ $esi: .cfa -12 + ^ .cfa: $ebp 8 +
STACK CFI INIT 212320 3a .cfa: $esp 4 + .ra: .cfa -4 + ^
STACK CFI 212321 $edi: .cfa -8 + ^ .cfa: $esp 8 +
STACK CFI 212322 $esi: .cfa -12 + ^ .cfa: $esp 12 +
STACK CFI 212323 $ebx: .cfa -16 + ^ .cfa: $esp 16 +
STACK CFI 212326 .cfa: $esp 32 +
STACK CFI 21233d .cfa: $esp 28 +
STACK CFI 212343 .cfa: $esp 32 +
STACK CFI 212354 .cfa: $esp 16 +
STACK CFI 212355 $ebx: $ebx .cfa: $esp 12 +
STACK CFI 212356 $esi: $esi .cfa: $esp 8 +
STACK CFI 212357 $edi: $edi .cfa: $esp 4 +
STACK CFI INIT 20e3f0 279 .cfa: $esp 4 + .ra: .cfa -4 + ^
STACK CFI 20e3f1 $ebp: .cfa -8 + ^ .cfa: $esp 8 +
STACK CFI 20e3f2 $edi: .cfa -12 + ^ .cfa: $esp 12 +
STACK CFI 20e3f3 $esi: .cfa -16 + ^ .cfa: $esp 16 +
STACK CFI 20e3f4 $ebx: .cfa -20 + ^ .cfa: $esp 20 +
STACK CFI 20e3f9 .cfa: $esp 80 +
STACK CFI 20e5b6 .cfa: $esp 20 +
STACK CFI 20e5b7 $ebx: $ebx .cfa: $esp 16 +
STACK CFI 20e5b8 $esi: $esi .cfa: $esp 12 +
STACK CFI 20e5b9 $edi: $edi .cfa: $esp 8 +
STACK CFI 20e5ba $ebp: $ebp .cfa: $esp 4 +
STACK CFI 20e5c0 $ebp: .cfa -8 + ^ $ebx: .cfa -20 + ^ $edi: .cfa -12 + ^ $esi: .cfa -16 + ^ .cfa: $esp 80 +
STACK CFI INIT 17e1f0 22a .cfa: $esp 4 + .ra: .cfa -4 + ^
STACK CFI 17e1f1 $ebp: .cfa -8 + ^ .cfa: $esp 8 +
STACK CFI 17e1f3 .cfa: $ebp 8 +
STACK CFI 17e381 $ebp: $ebp .cfa: $esp 4 +
STACK CFI 17e384 $ebp: .cfa -8 + ^ .cfa: $ebp 8 +
STACK CFI INIT 1b4d0 a .cfa: $esp 4 + .ra: .cfa -4 + ^
STACK CFI INIT 1b4e0 23 .cfa: $esp 4 + .ra: .cfa -4 + ^
STACK CFI INIT 1b510 23 .cfa: $esp 4 + .ra: .cfa -4 + ^
STACK CFI INIT 1b540 23 .cfa: $esp 4 + .ra: .cfa -4 + ^
STACK CFI INIT 1b570 23 .cfa: $esp 4 + .ra: .cfa -4 + ^
STACK CFI INIT 1b5a0 23 .cfa: $esp 4 + .ra: .cfa -4 + ^
STACK CFI INIT 1b5d0 23 .cfa: $esp 4 + .ra: .cfa -4 + ^
STACK CFI INIT 1b600 8d .cfa: $esp 4 + .ra: .cfa -4 + ^
STACK CFI INIT 1b690 2c .cfa: $esp 4 + .ra: .cfa -4 + ^
STACK CFI 1b691 $ebx: .cfa -8 + ^ .cfa: $esp 8 +
STACK CFI 1b6b9 $ebx: $ebx .cfa: $esp 4 +
STACK CFI INIT 1b6c0 55 .cfa: $esp 4 + .ra: .cfa -4 + ^
STACK CFI INIT 1b720 2e .cfa: $esp 4 + .ra: .cfa -4 + ^
STACK CFI INIT 1b750 5b .cfa: $esp 4 + .ra: .cfa -4 + ^
STACK CFI 1b751 $ebp: .cfa -8 + ^ .cfa: $esp 8 +
STACK CFI 1b753 .cfa: $ebp 8 +
STACK CFI 1b757 $ebp: $ebp .cfa: $esp 4 +
STACK CFI INIT 2171c0 1d .cfa: $esp 4 + .ra: .cfa -4 + ^
STACK CFI 2171c3 .cfa: $esp 32 +
STACK CFI 2171dc .cfa: $esp 4 +
STACK CFI INIT 17e7d0 19 .cfa: $esp 4 + .ra: .cfa -4 + ^
STACK CFI INIT 17d530 ab .cfa: $esp 4 + .ra: .cfa -4 + ^
STACK CFI 17d531 $edi: .cfa -8 + ^ .cfa: $esp 8 +
STACK CFI 17d532 $esi: .cfa -12 + ^ .cfa: $esp 12 +
STACK CFI 17d533 $ebx: .cfa -16 + ^ .cfa: $esp 16 +
STACK CFI 17d5c6 $ebx: $ebx .cfa: $esp 12 +
STACK CFI 17d5c7 $esi: $esi .cfa: $esp 8 +
STACK CFI 17d5c8 $edi: $edi .cfa: $esp 4 +
STACK CFI 17d5d0 $ebx: .cfa -16 + ^ $edi: .cfa -8 + ^ $esi: .cfa -12 + ^ .cfa: $esp 16 +
STACK CFI INIT 17dda0 2 .cfa: $esp 4 + .ra: .cfa -4 + ^
STACK CFI INIT 17dd70 15 .cfa: $esp 4 + .ra: .cfa -4 + ^
STACK CFI INIT 17dd40 29 .cfa: $esp 4 + .ra: .cfa -4 + ^
STACK CFI 17dd48 $ebx: .cfa -8 + ^ .cfa: $esp 8 +
STACK CFI 17dd5c $ebx: $ebx .cfa: $esp 4 +
STACK CFI 17dd60 $ebx: .cfa -8 + ^ .cfa: $esp 8 +
STACK CFI 17dd64 $ebx: $ebx .cfa: $esp 4 +
STACK CFI INIT 17dd30 3 .cfa: $esp 4 + .ra: .cfa -4 + ^
STACK CFI INIT 17d5f0 2 .cfa: $esp 4 + .ra: .cfa -4 + ^
STACK CFI INIT 17e830 2 .cfa: $esp 4 + .ra: .cfa -4 + ^
STACK CFI INIT 1b7b0 2 .cfa: $esp 4 + .ra: .cfa -4 + ^
STACK CFI INIT 1b7c0 a .cfa: $esp 4 + .ra: .cfa -4 + ^
STACK CFI INIT 1b7d0 a2 .cfa: $esp 4 + .ra: .cfa -4 + ^
STACK CFI 1b7d1 $edi: .cfa -8 + ^ .cfa: $esp 8 +
STACK CFI 1b7d2 $esi: .cfa -12 + ^ .cfa: $esp 12 +
STACK CFI 1b7d5 $ebx: .cfa -16 + ^ .cfa: $esp 16 +
STACK CFI 1b7d8 .cfa: $esp 48 +
STACK CFI 1b811 .cfa: $esp 16 +
STACK CFI 1b812 $ebx: $ebx .cfa: $esp 12 +
STACK CFI 1b813 $esi: $esi .cfa: $esp 8 +
STACK CFI 1b814 $edi: $edi .cfa: $esp 4 +
STACK CFI 1b820 $ebx: .cfa -16 + ^ $edi: .cfa -8 + ^ $esi: .cfa -12 + ^ .cfa: $esp 48 +
STACK CFI 1b836 .cfa: $esp 40 +
STACK CFI 1b839 .cfa: $esp 48 +
STACK CFI INIT 1b880 2 .cfa: $esp 4 + .ra: .cfa -4 + ^
STACK CFI INIT 1b890 2 .cfa: $esp 4 + .ra: .cfa -4 + ^
STACK CFI INIT 1b8a0 228 .cfa: $esp 4 + .ra: .cfa -4 + ^
STACK CFI 1b8a1 $ebp: .cfa -8 + ^ .cfa: $esp 8 +
STACK CFI 1b8a2 $edi: .cfa -12 + ^ .cfa: $esp 12 +
STACK CFI 1b8a3 $esi: .cfa -16 + ^ .cfa: $esp 16 +
STACK CFI 1b8a4 $ebx: .cfa -20 + ^ .cfa: $esp 20 +
STACK CFI 1b8aa .cfa: $esp 224 +
STACK CFI 1b90c .cfa: $esp 20 +
STACK CFI 1b90d $ebx: $ebx .cfa: $esp 16 +
STACK CFI 1b90e $esi: $esi .cfa: $esp 12 +
STACK CFI 1b90f $edi: $edi .cfa: $esp 8 +
STACK CFI 1b910 $ebp: $ebp .cfa: $esp 4 +
STACK CFI 1b911 $ebp: .cfa -8 + ^ $ebx: .cfa -20 + ^ $edi: .cfa -12 + ^ $esi: .cfa -16 + ^ .cfa: $esp 224 +
STACK CFI 1bac3 .cfa: $esp 20 +
STACK CFI 1bac4 $ebx: $ebx .cfa: $esp 16 +
STACK CFI 1bac5 $esi: $esi .cfa: $esp 12 +
STACK CFI 1bac6 $edi: $edi .cfa: $esp 8 +
STACK CFI 1bac7 $ebp: $ebp .cfa: $esp 4 +
STACK CFI INIT 1bad0 1a3 .cfa: $esp 4 + .ra: .cfa -4 + ^
STACK CFI 1bad1 $edi: .cfa -8 + ^ .cfa: $esp 8 +
STACK CFI 1bad2 $esi: .cfa -12 + ^ .cfa: $esp 12 +
STACK CFI 1bad3 $ebx: .cfa -16 + ^ .cfa: $esp 16 +
STACK CFI 1bad9 .cfa: $esp 192 +
STACK CFI 1bb4e .cfa: $esp 16 +
STACK CFI 1bb4f $ebx: $ebx .cfa: $esp 12 +
STACK CFI 1bb50 $esi: $esi .cfa: $esp 8 +
STACK CFI 1bb51 $edi: $edi .cfa: $esp 4 +
STACK CFI 1bb52 $ebx: .cfa -16 + ^ $edi: .cfa -8 + ^ $esi: .cfa -12 + ^ .cfa: $esp 192 +
STACK CFI 1bc6f .cfa: $esp 16 +
STACK CFI 1bc70 $ebx: $ebx .cfa: $esp 12 +
STACK CFI 1bc71 $esi: $esi .cfa: $esp 8 +
STACK CFI 1bc72 $edi: $edi .cfa: $esp 4 +
STACK CFI INIT 1bc80 c8 .cfa: $esp 4 + .ra: .cfa -4 + ^
STACK CFI 1bc81 $ebp: .cfa -8 + ^ .cfa: $esp 8 +
STACK CFI 1bc82 $edi: .cfa -12 + ^ .cfa: $esp 12 +
STACK CFI 1bc83 $esi: .cfa -16 + ^ .cfa: $esp 16 +
STACK CFI 1bc84 $ebx: .cfa -20 + ^ .cfa: $esp 20 +
STACK CFI 1bc87 .cfa: $esp 48 +
STACK CFI 1bd43 .cfa: $esp 20 +
STACK CFI 1bd44 $ebx: $ebx .cfa: $esp 16 +
STACK CFI 1bd45 $esi: $esi .cfa: $esp 12 +
STACK CFI 1bd46 $edi: $edi .cfa: $esp 8 +
STACK CFI 1bd47 $ebp: $ebp .cfa: $esp 4 +
STACK CFI INIT 1bd50 4db .cfa: $esp 4 + .ra: .cfa -4 + ^
STACK CFI 1bd51 $ebp: .cfa -8 + ^ .cfa: $esp 8 +
STACK CFI 1bd52 $edi: .cfa -12 + ^ .cfa: $esp 12 +
STACK CFI 1bd53 $esi: .cfa -16 + ^ .cfa: $esp 16 +
STACK CFI 1bd54 $ebx: .cfa -20 + ^ .cfa: $esp 20 +
STACK CFI 1bd5a .cfa: $esp 1328 +
STACK CFI 1bdf8 .cfa: $esp 1316 +
STACK CFI 1bdfb .cfa: $esp 1328 +
STACK CFI 1be8d .cfa: $esp 1312 +
STACK CFI 1be90 .cfa: $esp 1328 +
STACK CFI 1bea2 .cfa: $esp 20 +
STACK CFI 1bea5 $ebx: $ebx .cfa: $esp 16 +
STACK CFI 1bea6 $esi: $esi .cfa: $esp 12 +
STACK CFI 1bea7 $edi: $edi .cfa: $esp 8 +
STACK CFI 1bea8 $ebp: $ebp .cfa: $esp 4 +
STACK CFI 1beb0 $ebp: .cfa -8 + ^ $ebx: .cfa -20 + ^ $edi: .cfa -12 + ^ $esi: .cfa -16 + ^ .cfa: $esp 1328 +
STACK CFI 1bec9 .cfa: $esp 1320 +
STACK CFI 1bece .cfa: $esp 1328 +
STACK CFI 1bed4 .cfa: $esp 20 +
STACK CFI 1bed5 $ebx: $ebx .cfa: $esp 16 +
STACK CFI 1bed6 $esi: $esi .cfa: $esp 12 +
STACK CFI 1bed7 $edi: $edi .cfa: $esp 8 +
STACK CFI 1bed8 $ebp: $ebp .cfa: $esp 4 +
STACK CFI 1bee0 $ebp: .cfa -8 + ^ $ebx: .cfa -20 + ^ $edi: .cfa -12 + ^ $esi: .cfa -16 + ^ .cfa: $esp 1328 +
STACK CFI 1bef9 .cfa: $esp 1320 +
STACK CFI 1befc .cfa: $esp 1328 +
STACK CFI 1bf04 .cfa: $esp 20 +
STACK CFI 1bf05 $ebx: $ebx .cfa: $esp 16 +
STACK CFI 1bf06 $esi: $esi .cfa: $esp 12 +
STACK CFI 1bf07 $edi: $edi .cfa: $esp 8 +
STACK CFI 1bf08 $ebp: $ebp .cfa: $esp 4 +
STACK CFI 1bf10 $ebp: .cfa -8 + ^ $ebx: .cfa -20 + ^ $edi: .cfa -12 + ^ $esi: .cfa -16 + ^ .cfa: $esp 1328 +
STACK CFI 1bf29 .cfa: $esp 1320 +
STACK CFI 1bf2c .cfa: $esp 1328 +
STACK CFI 1bf40 .cfa: $esp 20 +
STACK CFI 1bf41 $ebx: $ebx .cfa: $esp 16 +
STACK CFI 1bf42 $esi: $esi .cfa: $esp 12 +
STACK CFI 1bf43 $edi: $edi .cfa: $esp 8 +
STACK CFI 1bf44 $ebp: $ebp .cfa: $esp 4 +
STACK CFI 1bf45 $ebp: .cfa -8 + ^ $ebx: .cfa -20 + ^ $edi: .cfa -12 + ^ $esi: .cfa -16 + ^ .cfa: $esp 1328 +
STACK CFI 1bf66 .cfa: $esp 1324 +
STACK CFI 1bf69 .cfa: $esp 1328 +
STACK CFI 1bfab .cfa: $esp 1312 +
STACK CFI 1bfae .cfa: $esp 1328 +
STACK CFI 1c084 .cfa: $esp 1312 +
STACK CFI 1c087 .cfa: $esp 1328 +
STACK CFI 1c0ac .cfa: $esp 1320 +
STACK CFI 1c0af .cfa: $esp 1328 +
STACK CFI 1c0cd .cfa: $esp 1320 +
STACK CFI 1c0d3 .cfa: $esp 1328 +
STACK CFI 1c13a .cfa: $esp 1320 +
STACK CFI 1c140 .cfa: $esp 1328 +
STACK CFI 1c18b .cfa: $esp 1320 +
STACK CFI 1c191 .cfa: $esp 1328 +
STACK CFI 1c206 .cfa: $esp 1320 +
STACK CFI 1c209 .cfa: $esp 1328 +
STACK CFI INIT 1c230 26e .cfa: $esp 4 + .ra: .cfa -4 + ^
STACK CFI 1c231 $ebp: .cfa -8 + ^ .cfa: $esp 8 +
STACK CFI 1c232 $edi: .cfa -12 + ^ .cfa: $esp 12 +
STACK CFI 1c233 $esi: .cfa -16 + ^ .cfa: $esp 16 +
STACK CFI 1c234 $ebx: .cfa -20 + ^ .cfa: $esp 20 +
STACK CFI 1c237 .cfa: $esp 80 +
STACK CFI 1c2de .cfa: $esp 72 +
STACK CFI 1c2e1 .cfa: $esp 80 +
STACK CFI 1c31d .cfa: $esp 20 +
STACK CFI 1c31e $ebx: $ebx .cfa: $esp 16 +
STACK CFI 1c321 $esi: $esi .cfa: $esp 12 +
STACK CFI 1c322 $edi: $edi .cfa: $esp 8 +
STACK CFI 1c323 $ebp: $ebp .cfa: $esp 4 +
STACK CFI 1c324 $ebp: .cfa -8 + ^ $ebx: .cfa -20 + ^ $edi: .cfa -12 + ^ $esi: .cfa -16 + ^ .cfa: $esp 80 +
STACK CFI 1c32c .cfa: $esp 20 +
STACK CFI 1c32f $ebx: $ebx .cfa: $esp 16 +
STACK CFI 1c330 $esi: $esi .cfa: $esp 12 +
STACK CFI 1c331 $edi: $edi .cfa: $esp 8 +
STACK CFI 1c332 $ebp: $ebp .cfa: $esp 4 +
STACK CFI 1c333 $ebp: .cfa -8 + ^ $ebx: .cfa -20 + ^ $edi: .cfa -12 + ^ $esi: .cfa -16 + ^ .cfa: $esp 80 +
STACK CFI 1c388 .cfa: $esp 72 +
STACK CFI 1c3cd .cfa: $esp 80 +
STACK CFI 1c3ef .cfa: $esp 76 +
STACK CFI 1c3f2 .cfa: $esp 80 +
STACK CFI 1c3fd .cfa: $esp 20 +
STACK CFI 1c400 $ebx: $ebx .cfa: $esp 16 +
STACK CFI 1c403 $esi: $esi .cfa: $esp 12 +
STACK CFI 1c404 $edi: $edi .cfa: $esp 8 +
STACK CFI 1c405 $ebp: $ebp .cfa: $esp 4 +
STACK CFI 1c410 $ebp: .cfa -8 + ^ $ebx: .cfa -20 + ^ $edi: .cfa -12 + ^ $esi: .cfa -16 + ^ .cfa: $esp 80 +
STACK CFI 1c429 .cfa: $esp 72 +
STACK CFI 1c42c .cfa: $esp 80 +
STACK CFI 1c431 .cfa: $esp 20 +
STACK CFI 1c434 $ebx: $ebx .cfa: $esp 16 +
STACK CFI 1c435 $esi: $esi .cfa: $esp 12 +
STACK CFI 1c436 $edi: $edi .cfa: $esp 8 +
STACK CFI 1c437 $ebp: $ebp .cfa: $esp 4 +
STACK CFI 1c440 $ebp: .cfa -8 + ^ $ebx: .cfa -20 + ^ $edi: .cfa -12 + ^ $esi: .cfa -16 + ^ .cfa: $esp 80 +
STACK CFI 1c473 .cfa: $esp 68 +
STACK CFI 1c476 .cfa: $esp 80 +
STACK CFI 1c47e .cfa: $esp 20 +
STACK CFI 1c481 $ebx: $ebx .cfa: $esp 16 +
STACK CFI 1c482 $esi: $esi .cfa: $esp 12 +
STACK CFI 1c483 $edi: $edi .cfa: $esp 8 +
STACK CFI 1c484 $ebp: $ebp .cfa: $esp 4 +
STACK CFI 1c485 $ebp: .cfa -8 + ^ $ebx: .cfa -20 + ^ $edi: .cfa -12 + ^ $esi: .cfa -16 + ^ .cfa: $esp 80 +
STACK CFI INIT 2171e0 a9 .cfa: $esp 4 + .ra: .cfa -4 + ^
STACK CFI 2171e1 $ebx: .cfa -8 + ^ .cfa: $esp 8 +
STACK CFI 2171ee .cfa: $esp 32 +
STACK CFI 217287 .cfa: $esp 8 +
STACK CFI 217288 $ebx: $ebx .cfa: $esp 4 +
STACK CFI INIT 17e790 40 .cfa: $esp 4 + .ra: .cfa -4 + ^
STACK CFI 17e793 .cfa: $esp 32 +
STACK CFI 17e7c3 .cfa: $esp 4 +
STACK CFI INIT 17e7f0 30 .cfa: $esp 4 + .ra: .cfa -4 + ^
STACK CFI 17e7f3 .cfa: $esp 32 +
STACK CFI 17e81d .cfa: $esp 4 +
STACK CFI INIT 17d5e0 f .cfa: $esp 4 + .ra: .cfa -4 + ^
STACK CFI 17d5e3 .cfa: $esp 32 +
STACK CFI 17d5ee .cfa: $esp 4 +
STACK CFI INIT 17dd90 f .cfa: $esp 4 + .ra: .cfa -4 + ^
STACK CFI 17dd93 .cfa: $esp 32 +
STACK CFI 17dd9e .cfa: $esp 4 +
STACK CFI INIT 17e820 f .cfa: $esp 4 + .ra: .cfa -4 + ^
STACK CFI 17e823 .cfa: $esp 32 +
STACK CFI 17e82e .cfa: $esp 4 +
STACK CFI INIT 1595c0 5 .cfa: $esp 4 + .ra: .cfa -4 + ^
STACK CFI INIT 1595d0 d .cfa: $esp 4 + .ra: .cfa -4 + ^
STACK CFI INIT 198220 11d2 .cfa: $esp 4 + .ra: .cfa -4 + ^
STACK CFI 198221 $ebp: .cfa -8 + ^ .cfa: $esp 8 +
STACK CFI 198223 .cfa: $ebp 8 +
STACK CFI 19822e $ebx: .cfa -16 + ^ $esi: .cfa -12 + ^
STACK CFI 19829e $ebx: $ebx
STACK CFI 19829f $esi: $esi
STACK CFI 1982a0 $ebp: $ebp .cfa: $esp 4 +
STACK CFI 1982a3 $ebp: .cfa -8 + ^ $ebx: .cfa -16 + ^ $esi: .cfa -12 + ^ .cfa: $ebp 8 +
STACK CFI INIT 1c4a0 a .cfa: $esp 4 + .ra: .cfa -4 + ^
STACK CFI INIT 1c4b0 14e .cfa: $esp 4 + .ra: .cfa -4 + ^
STACK CFI 1c4b1 $esi: .cfa -8 + ^ .cfa: $esp 8 +
STACK CFI 1c4b2 $ebx: .cfa -12 + ^ .cfa: $esp 12 +
STACK CFI 1c4bf .cfa: $esp 80 +
STACK CFI 1c5ec .cfa: $esp 12 +
STACK CFI 1c5ed $ebx: $ebx .cfa: $esp 8 +
STACK CFI 1c5ee $esi: $esi .cfa: $esp 4 +
STACK CFI 1c5f0 $ebx: .cfa -12 + ^ $esi: .cfa -8 + ^ .cfa: $esp 80 +
STACK CFI INIT 1c600 96 .cfa: $esp 4 + .ra: .cfa -4 + ^
STACK CFI 1c603 .cfa: $esp 64 +
STACK CFI 1c628 .cfa: $esp 52 +
STACK CFI 1c62d .cfa: $esp 64 +
STACK CFI 1c695 .cfa: $esp 4 +
STACK CFI INIT 1c6a0 6c .cfa: $esp 4 + .ra: .cfa -4 + ^
STACK CFI 1c6a1 $ebx: .cfa -8 + ^ .cfa: $esp 8 +
STACK CFI 1c6a4 .cfa: $esp 64 +
STACK CFI 1c6c4 .cfa: $esp 60 +
STACK CFI 1c6c7 .cfa: $esp 64 +
STACK CFI 1c70a .cfa: $esp 8 +
STACK CFI 1c70b $ebx: $ebx .cfa: $esp 4 +
STACK CFI INIT 1c710 e4 .cfa: $esp 4 + .ra: .cfa -4 + ^
STACK CFI 1c711 $ebp: .cfa -8 + ^ .cfa: $esp 8 +
STACK CFI 1c712 $edi: .cfa -12 + ^ .cfa: $esp 12 +
STACK CFI 1c713 $esi: .cfa -16 + ^ .cfa: $esp 16 +
STACK CFI 1c714 $ebx: .cfa -20 + ^ .cfa: $esp 20 +
STACK CFI 1c717 .cfa: $esp 96 +
STACK CFI 1c755 .cfa: $esp 84 +
STACK CFI 1c758 .cfa: $esp 96 +
STACK CFI 1c78a .cfa: $esp 76 +
STACK CFI 1c78d .cfa: $esp 96 +
STACK CFI 1c7d6 .cfa: $esp 76 +
STACK CFI 1c7db .cfa: $esp 96 +
STACK CFI 1c7ed .cfa: $esp 20 +
STACK CFI 1c7f0 $ebx: $ebx .cfa: $esp 16 +
STACK CFI 1c7f1 $esi: $esi .cfa: $esp 12 +
STACK CFI 1c7f2 $edi: $edi .cfa: $esp 8 +
STACK CFI 1c7f3 $ebp: $ebp .cfa: $esp 4 +
STACK CFI INIT 1c800 291 .cfa: $esp 4 + .ra: .cfa -4 + ^
STACK CFI 1c801 $ebp: .cfa -8 + ^ .cfa: $esp 8 +
STACK CFI 1c802 $edi: .cfa -12 + ^ .cfa: $esp 12 +
STACK CFI 1c803 $esi: .cfa -16 + ^ .cfa: $esp 16 +
STACK CFI 1c804 $ebx: .cfa -20 + ^ .cfa: $esp 20 +
STACK CFI 1c80a .cfa: $esp 2176 +
STACK CFI 1c84a .cfa: $esp 2168 +
STACK CFI 1c84d .cfa: $esp 2176 +
STACK CFI 1c868 .cfa: $esp 2168 +
STACK CFI 1c86b .cfa: $esp 2176 +
STACK CFI 1c8dd .cfa: $esp 20 +
STACK CFI 1c8e0 $ebx: $ebx .cfa: $esp 16 +
STACK CFI 1c8e1 $esi: $esi .cfa: $esp 12 +
STACK CFI 1c8e2 $edi: $edi .cfa: $esp 8 +
STACK CFI 1c8e3 $ebp: $ebp .cfa: $esp 4 +
STACK CFI 1c8e4 $ebp: .cfa -8 + ^ $ebx: .cfa -20 + ^ $edi: .cfa -12 + ^ $esi: .cfa -16 + ^ .cfa: $esp 2176 +
STACK CFI 1c91a .cfa: $esp 2156 +
STACK CFI 1c91d .cfa: $esp 2176 +
STACK CFI 1c9bf .cfa: $esp 2144 +
STACK CFI 1c9c4 .cfa: $esp 2176 +
STACK CFI 1ca5d .cfa: $esp 2168 +
STACK CFI 1ca60 .cfa: $esp 2176 +
STACK CFI 1ca7e .cfa: $esp 2164 +
STACK CFI 1ca85 .cfa: $esp 2176 +
STACK CFI INIT 1caa0 7c .cfa: $esp 4 + .ra: .cfa -4 + ^
STACK CFI 1caa3 .cfa: $esp 48 +
STACK CFI 1cae5 .cfa: $esp 24 +
STACK CFI 1cae8 .cfa: $esp 48 +
STACK CFI 1caf1 .cfa: $esp 4 +
STACK CFI 1caf2 .cfa: $esp 48 +
STACK CFI 1cb0b .cfa: $esp 40 +
STACK CFI 1cb0e .cfa: $esp 48 +
STACK CFI 1cb1b .cfa: $esp 4 +
STACK CFI INIT 217290 1d .cfa: $esp 4 + .ra: .cfa -4 + ^
STACK CFI 217293 .cfa: $esp 32 +
STACK CFI 2172ac .cfa: $esp 4 +
STACK CFI INIT 1cb20 26 .cfa: $esp 4 + .ra: .cfa -4 + ^
STACK CFI 1cb23 .cfa: $esp 32 +
STACK CFI 1cb45 .cfa: $esp 4 +
STACK CFI INIT 1cb50 a .cfa: $esp 4 + .ra: .cfa -4 + ^
STACK CFI INIT 1cb60 2b .cfa: $esp 4 + .ra: .cfa -4 + ^
STACK CFI 1cb61 $ebx: .cfa -8 + ^ .cfa: $esp 8 +
STACK CFI 1cb69 .cfa: $esp 16 +
STACK CFI 1cb89 .cfa: $esp 8 +
STACK CFI 1cb8a $ebx: $ebx .cfa: $esp 4 +
STACK CFI INIT 1cb90 286 .cfa: $esp 4 + .ra: .cfa -4 + ^
STACK CFI 1cb91 $ebp: .cfa -8 + ^ .cfa: $esp 8 +
STACK CFI 1cb92 $edi: .cfa -12 + ^ .cfa: $esp 12 +
STACK CFI 1cb93 $esi: .cfa -16 + ^ .cfa: $esp 16 +
STACK CFI 1cb94 $ebx: .cfa -20 + ^ .cfa: $esp 20 +
STACK CFI 1cb9a .cfa: $esp 496 +
STACK CFI 1cd03 .cfa: $esp 484 +
STACK CFI 1cd06 .cfa: $esp 496 +
STACK CFI 1cd26 .cfa: $esp 484 +
STACK CFI 1cd29 .cfa: $esp 496 +
STACK CFI 1cdc4 .cfa: $esp 472 +
STACK CFI 1cdc7 .cfa: $esp 496 +
STACK CFI 1cde5 .cfa: $esp 488 +
STACK CFI 1cde8 .cfa: $esp 496 +
STACK CFI 1ce11 .cfa: $esp 20 +
STACK CFI 1ce12 $ebx: $ebx .cfa: $esp 16 +
STACK CFI 1ce13 $esi: $esi .cfa: $esp 12 +
STACK CFI 1ce14 $edi: $edi .cfa: $esp 8 +
STACK CFI 1ce15 $ebp: $ebp .cfa: $esp 4 +
STACK CFI INIT 1ce20 94 .cfa: $esp 4 + .ra: .cfa -4 + ^
STACK CFI 1ce23 .cfa: $esp 112 +
STACK CFI 1ce33 .cfa: $esp 108 +
STACK CFI 1ce36 .cfa: $esp 112 +
STACK CFI 1ce46 .cfa: $esp 108 +
STACK CFI 1ce49 .cfa: $esp 112 +
STACK CFI 1ce59 .cfa: $esp 108 +
STACK CFI 1ce5c .cfa: $esp 112 +
STACK CFI 1ceb3 .cfa: $esp 4 +
STACK CFI INIT 1cec0 94 .cfa: $esp 4 + .ra: .cfa -4 + ^
STACK CFI 1cec3 .cfa: $esp 112 +
STACK CFI 1ced3 .cfa: $esp 108 +
STACK CFI 1ced6 .cfa: $esp 112 +
STACK CFI 1cee6 .cfa: $esp 108 +
STACK CFI 1cee9 .cfa: $esp 112 +
STACK CFI 1cef9 .cfa: $esp 108 +
STACK CFI 1cefc .cfa: $esp 112 +
STACK CFI 1cf53 .cfa: $esp 4 +
STACK CFI INIT 1cf60 1d0 .cfa: $esp 4 + .ra: .cfa -4 + ^
STACK CFI 1cf61 $ebp: .cfa -8 + ^ .cfa: $esp 8 +
STACK CFI 1cf63 .cfa: $ebp 8 +
STACK CFI 1cfd0 $ebp: $ebp .cfa: $esp 4 +
STACK CFI 1cfd1 $ebp: .cfa -8 + ^ .cfa: $ebp 8 +
STACK CFI 1d0e2 $ebp: $ebp .cfa: $esp 4 +
STACK CFI 1d0e3 $ebp: .cfa -8 + ^ .cfa: $ebp 8 +
STACK CFI INIT 1d130 62 .cfa: $esp 4 + .ra: .cfa -4 + ^
STACK CFI 1d131 $ebx: .cfa -8 + ^ .cfa: $esp 8 +
STACK CFI 1d134 .cfa: $esp 64 +
STACK CFI 1d153 .cfa: $esp 60 +
STACK CFI 1d156 .cfa: $esp 64 +
STACK CFI 1d176 .cfa: $esp 52 +
STACK CFI 1d179 .cfa: $esp 64 +
STACK CFI 1d190 .cfa: $esp 8 +
STACK CFI 1d191 $ebx: $ebx .cfa: $esp 4 +
STACK CFI INIT 1d1a0 3f .cfa: $esp 4 + .ra: .cfa -4 + ^
STACK CFI 1d1a1 $ebx: .cfa -8 + ^ .cfa: $esp 8 +
STACK CFI 1d1a4 .cfa: $esp 48 +
STACK CFI 1d1c3 .cfa: $esp 44 +
STACK CFI 1d1c6 .cfa: $esp 48 +
STACK CFI 1d1dd .cfa: $esp 8 +
STACK CFI 1d1de $ebx: $ebx .cfa: $esp 4 +
STACK CFI INIT 1d1e0 a3 .cfa: $esp 4 + .ra: .cfa -4 + ^
STACK CFI 1d1e1 $esi: .cfa -8 + ^ .cfa: $esp 8 +
STACK CFI 1d1e2 $ebx: .cfa -12 + ^ .cfa: $esp 12 +
STACK CFI 1d1e5 .cfa: $esp 112 +
STACK CFI 1d213 .cfa: $esp 108 +
STACK CFI 1d218 .cfa: $esp 112 +
STACK CFI 1d280 .cfa: $esp 12 +
STACK CFI 1d281 $ebx: $ebx .cfa: $esp 8 +
STACK CFI 1d282 $esi: $esi .cfa: $esp 4 +
STACK CFI INIT 1d290 f6 .cfa: $esp 4 + .ra: .cfa -4 + ^
STACK CFI 1d291 $edi: .cfa -8 + ^ .cfa: $esp 8 +
STACK CFI 1d292 $esi: .cfa -12 + ^ .cfa: $esp 12 +
STACK CFI 1d293 $ebx: .cfa -16 + ^ .cfa: $esp 16 +
STACK CFI 1d296 .cfa: $esp 48 +
STACK CFI 1d2bb .cfa: $esp 36 +
STACK CFI 1d2be .cfa: $esp 48 +
STACK CFI 1d2e7 .cfa: $esp 36 +
STACK CFI 1d2ea .cfa: $esp 48 +
STACK CFI 1d314 .cfa: $esp 32 +
STACK CFI 1d31b .cfa: $esp 48 +
STACK CFI 1d34d .cfa: $esp 16 +
STACK CFI 1d34e $ebx: $ebx .cfa: $esp 12 +
STACK CFI 1d34f $esi: $esi .cfa: $esp 8 +
STACK CFI 1d350 $edi: $edi .cfa: $esp 4 +
STACK CFI 1d351 $ebx: .cfa -16 + ^ $edi: .cfa -8 + ^ $esi: .cfa -12 + ^ .cfa: $esp 48 +
STACK CFI 1d37e .cfa: $esp 36 +
STACK CFI 1d381 .cfa: $esp 48 +
STACK CFI INIT 1d390 887 .cfa: $esp 4 + .ra: .cfa -4 + ^
STACK CFI 1d391 $ebp: .cfa -8 + ^ .cfa: $esp 8 +
STACK CFI 1d392 $edi: .cfa -12 + ^ .cfa: $esp 12 +
STACK CFI 1d393 $esi: .cfa -16 + ^ .cfa: $esp 16 +
STACK CFI 1d394 $ebx: .cfa -20 + ^ .cfa: $esp 20 +
STACK CFI 1d39a .cfa: $esp 256 +
STACK CFI 1d3b6 .cfa: $esp 20 +
STACK CFI 1d3b7 $ebx: $ebx .cfa: $esp 16 +
STACK CFI 1d3b8 $esi: $esi .cfa: $esp 12 +
STACK CFI 1d3b9 $edi: $edi .cfa: $esp 8 +
STACK CFI 1d3ba $ebp: $ebp .cfa: $esp 4 +
STACK CFI 1d3c0 $ebp: .cfa -8 + ^ $ebx: .cfa -20 + ^ $edi: .cfa -12 + ^ $esi: .cfa -16 + ^ .cfa: $esp 256 +
STACK CFI 1d3fe .cfa: $esp 252 +
STACK CFI 1d401 .cfa: $esp 256 +
STACK CFI 1d63f .cfa: $esp 20 +
STACK CFI 1d640 $ebx: $ebx .cfa: $esp 16 +
STACK CFI 1d641 $esi: $esi .cfa: $esp 12 +
STACK CFI 1d642 $edi: $edi .cfa: $esp 8 +
STACK CFI 1d643 $ebp: $ebp .cfa: $esp 4 +
STACK CFI 1d644 $ebp: .cfa -8 + ^ $ebx: .cfa -20 + ^ $edi: .cfa -12 + ^ $esi: .cfa -16 + ^ .cfa: $esp 256 +
STACK CFI 1d67a .cfa: $esp 244 +
STACK CFI 1d683 .cfa: $esp 256 +
STACK CFI 1d6a6 .cfa: $esp 244 +
STACK CFI 1d6a9 .cfa: $esp 256 +
STACK CFI 1d7f3 .cfa: $esp 244 +
STACK CFI 1d7f6 .cfa: $esp 256 +
STACK CFI 1d878 .cfa: $esp 252 +
STACK CFI 1d87b .cfa: $esp 256 +
STACK CFI 1d942 .cfa: $esp 244 +
STACK CFI 1d945 .cfa: $esp 256 +
STACK CFI 1d9c5 .cfa: $esp 252 +
STACK CFI 1d9ce .cfa: $esp 256 +
STACK CFI 1d9fb .cfa: $esp 252 +
STACK CFI 1d9fe .cfa: $esp 256 +
STACK CFI 1da8f .cfa: $esp 236 +
STACK CFI 1da92 .cfa: $esp 256 +
STACK CFI INIT 1dc20 118 .cfa: $esp 4 + .ra: .cfa -4 + ^
STACK CFI 1dc21 $ebp: .cfa -8 + ^ .cfa: $esp 8 +
STACK CFI 1dc22 $edi: .cfa -12 + ^ .cfa: $esp 12 +
STACK CFI 1dc23 $esi: .cfa -16 + ^ .cfa: $esp 16 +
STACK CFI 1dc24 $ebx: .cfa -20 + ^ .cfa: $esp 20 +
STACK CFI 1dc27 .cfa: $esp 96 +
STACK CFI 1dc3d .cfa: $esp 92 +
STACK CFI 1dc40 .cfa: $esp 96 +
STACK CFI 1dc60 .cfa: $esp 84 +
STACK CFI 1dc63 .cfa: $esp 96 +
STACK CFI 1dcba .cfa: $esp 20 +
STACK CFI 1dcbd $ebx: $ebx .cfa: $esp 16 +
STACK CFI 1dcc0 $esi: $esi .cfa: $esp 12 +
STACK CFI 1dcc1 $edi: $edi .cfa: $esp 8 +
STACK CFI 1dcc2 $ebp: $ebp .cfa: $esp 4 +
STACK CFI 1dcc3 $ebp: .cfa -8 + ^ $ebx: .cfa -20 + ^ $edi: .cfa -12 + ^ $esi: .cfa -16 + ^ .cfa: $esp 96 +
STACK CFI 1dd07 .cfa: $esp 68 +
STACK CFI 1dd0a .cfa: $esp 96 +
STACK CFI 1dd33 .cfa: $esp 20 +
STACK CFI 1dd34 $ebx: $ebx .cfa: $esp 16 +
STACK CFI 1dd35 $esi: $esi .cfa: $esp 12 +
STACK CFI 1dd36 $edi: $edi .cfa: $esp 8 +
STACK CFI 1dd37 $ebp: $ebp .cfa: $esp 4 +
STACK CFI INIT 1dd40 6d .cfa: $esp 4 + .ra: .cfa -4 + ^
STACK CFI 1dd41 $edi: .cfa -8 + ^ .cfa: $esp 8 +
STACK CFI 1dd42 $esi: .cfa -12 + ^ .cfa: $esp 12 +
STACK CFI 1dd43 $ebx: .cfa -16 + ^ .cfa: $esp 16 +
STACK CFI 1dd46 .cfa: $esp 48 +
STACK CFI 1dd67 .cfa: $esp 44 +
STACK CFI 1dd6a .cfa: $esp 48 +
STACK CFI 1dda9 .cfa: $esp 16 +
STACK CFI 1ddaa $ebx: $ebx .cfa: $esp 12 +
STACK CFI 1ddab $esi: $esi .cfa: $esp 8 +
STACK CFI 1ddac $edi: $edi .cfa: $esp 4 +
STACK CFI INIT 1ddb0 1ea .cfa: $esp 4 + .ra: .cfa -4 + ^
STACK CFI 1ddb1 $ebp: .cfa -8 + ^ .cfa: $esp 8 +
STACK CFI 1ddb2 $edi: .cfa -12 + ^ .cfa: $esp 12 +
STACK CFI 1ddb3 $esi: .cfa -16 + ^ .cfa: $esp 16 +
STACK CFI 1ddb4 $ebx: .cfa -20 + ^ .cfa: $esp 20 +
STACK CFI 1ddb7 .cfa: $esp 128 +
STACK CFI 1dde4 .cfa: $esp 116 +
STACK CFI 1dde7 .cfa: $esp 128 +
STACK CFI 1ddfc .cfa: $esp 124 +
STACK CFI 1ddff .cfa: $esp 128 +
STACK CFI 1de21 .cfa: $esp 116 +
STACK CFI 1de24 .cfa: $esp 128 +
STACK CFI 1de35 .cfa: $esp 124 +
STACK CFI 1de38 .cfa: $esp 128 +
STACK CFI 1de58 .cfa: $esp 116 +
STACK CFI 1de5b .cfa: $esp 128 +
STACK CFI 1dea9 .cfa: $esp 108 +
STACK CFI 1deac .cfa: $esp 128 +
STACK CFI 1deff .cfa: $esp 108 +
STACK CFI 1df02 .cfa: $esp 128 +
STACK CFI 1df64 .cfa: $esp 92 +
STACK CFI 1df67 .cfa: $esp 128 +
STACK CFI 1df87 .cfa: $esp 20 +
STACK CFI 1df88 $ebx: $ebx .cfa: $esp 16 +
STACK CFI 1df89 $esi: $esi .cfa: $esp 12 +
STACK CFI 1df8a $edi: $edi .cfa: $esp 8 +
STACK CFI 1df8b $ebp: $ebp .cfa: $esp 4 +
STACK CFI 1df90 $ebp: .cfa -8 + ^ $ebx: .cfa -20 + ^ $edi: .cfa -12 + ^ $esi: .cfa -16 + ^ .cfa: $esp 128 +
STACK CFI 1df93 .cfa: $esp 20 +
STACK CFI 1df96 $ebx: $ebx .cfa: $esp 16 +
STACK CFI 1df97 $esi: $esi .cfa: $esp 12 +
STACK CFI 1df98 $edi: $edi .cfa: $esp 8 +
STACK CFI 1df99 $ebp: $ebp .cfa: $esp 4 +
STACK CFI INIT 1dfa0 155 .cfa: $esp 4 + .ra: .cfa -4 + ^
STACK CFI 1dfa1 $ebp: .cfa -8 + ^ .cfa: $esp 8 +
STACK CFI 1dfa2 $edi: .cfa -12 + ^ .cfa: $esp 12 +
STACK CFI 1dfa3 $esi: .cfa -16 + ^ .cfa: $esp 16 +
STACK CFI 1dfa4 $ebx: .cfa -20 + ^ .cfa: $esp 20 +
STACK CFI 1dfa7 .cfa: $esp 144 +
STACK CFI 1dfba .cfa: $esp 140 +
STACK CFI 1dfbd .cfa: $esp 144 +
STACK CFI 1dfd0 .cfa: $esp 140 +
STACK CFI 1dfd3 .cfa: $esp 144 +
STACK CFI 1e00b .cfa: $esp 120 +
STACK CFI 1e013 .cfa: $esp 144 +
STACK CFI 1e0d1 .cfa: $esp 132 +
STACK CFI 1e0d4 .cfa: $esp 144 +
STACK CFI 1e0f0 .cfa: $esp 20 +
STACK CFI 1e0f1 $ebx: $ebx .cfa: $esp 16 +
STACK CFI 1e0f2 $esi: $esi .cfa: $esp 12 +
STACK CFI 1e0f3 $edi: $edi .cfa: $esp 8 +
STACK CFI 1e0f4 $ebp: $ebp .cfa: $esp 4 +
STACK CFI INIT 1e100 4c .cfa: $esp 4 + .ra: .cfa -4 + ^
STACK CFI 1e101 $edi: .cfa -8 + ^ .cfa: $esp 8 +
STACK CFI 1e102 $esi: .cfa -12 + ^ .cfa: $esp 12 +
STACK CFI 1e103 $ebx: .cfa -16 + ^ .cfa: $esp 16 +
STACK CFI 1e106 .cfa: $esp 32 +
STACK CFI 1e131 .cfa: $esp 28 +
STACK CFI 1e134 .cfa: $esp 32 +
STACK CFI 1e148 .cfa: $esp 16 +
STACK CFI 1e149 $ebx: $ebx .cfa: $esp 12 +
STACK CFI 1e14a $esi: $esi .cfa: $esp 8 +
STACK CFI 1e14b $edi: $edi .cfa: $esp 4 +
STACK CFI INIT 1e150 52 .cfa: $esp 4 + .ra: .cfa -4 + ^
STACK CFI 1e15a $esi: .cfa -8 + ^ .cfa: $esp 8 +
STACK CFI 1e15b $ebx: .cfa -12 + ^ .cfa: $esp 12 +
STACK CFI 1e165 .cfa: $esp 32 +
STACK CFI 1e18b .cfa: $esp 20 +
STACK CFI 1e18e .cfa: $esp 32 +
STACK CFI 1e199 .cfa: $esp 12 +
STACK CFI 1e19a $ebx: $ebx .cfa: $esp 8 +
STACK CFI 1e19b $esi: $esi .cfa: $esp 4 +
STACK CFI INIT 2172b0 f8 .cfa: $esp 4 + .ra: .cfa -4 + ^
STACK CFI 2172b1 $ebp: .cfa -8 + ^ .cfa: $esp 8 +
STACK CFI 2172b4 .cfa: $esp 96 +
STACK CFI 217354 .cfa: $esp 8 +
STACK CFI 217355 $ebp: $ebp .cfa: $esp 4 +
STACK CFI 217356 $ebp: .cfa -8 + ^ .cfa: $esp 96 +
STACK CFI INIT 1e1b0 a .cfa: $esp 4 + .ra: .cfa -4 + ^
STACK CFI INIT 1e1c0 ad .cfa: $esp 4 + .ra: .cfa -4 + ^
STACK CFI 1e1c1 $esi: .cfa -8 + ^ .cfa: $esp 8 +
STACK CFI 1e1c2 $ebx: .cfa -12 + ^ .cfa: $esp 12 +
STACK CFI 1e1ca .cfa: $esp 32 +
STACK CFI 1e221 .cfa: $esp 12 +
STACK CFI 1e224 $ebx: $ebx .cfa: $esp 8 +
STACK CFI 1e225 $esi: $esi .cfa: $esp 4 +
STACK CFI 1e230 $ebx: .cfa -12 + ^ $esi: .cfa -8 + ^ .cfa: $esp 32 +
STACK CFI 1e268 .cfa: $esp 12 +
STACK CFI 1e26b $ebx: $ebx .cfa: $esp 8 +
STACK CFI 1e26c $esi: $esi .cfa: $esp 4 +
STACK CFI INIT 1e270 4b .cfa: $esp 4 + .ra: .cfa -4 + ^
STACK CFI 1e273 .cfa: $esp 32 +
STACK CFI 1e2a2 .cfa: $esp 4 +
STACK CFI 1e2a3 .cfa: $esp 32 +
STACK CFI INIT 1e2c0 18 .cfa: $esp 4 + .ra: .cfa -4 + ^
STACK CFI INIT 1e2e0 47 .cfa: $esp 4 + .ra: .cfa -4 + ^
STACK CFI INIT 2173b0 1d .cfa: $esp 4 + .ra: .cfa -4 + ^
STACK CFI 2173b3 .cfa: $esp 32 +
STACK CFI 2173cc .cfa: $esp 4 +
STACK CFI INIT 1e330 b .cfa: $esp 4 + .ra: .cfa -4 + ^
STACK CFI INIT 1e340 2 .cfa: $esp 4 + .ra: .cfa -4 + ^
STACK CFI INIT 1e350 10 .cfa: $esp 4 + .ra: .cfa -4 + ^
STACK CFI 1e353 .cfa: $esp 16 +
STACK CFI 1e35b .cfa: $esp 4 +
STACK CFI INIT 1e360 a .cfa: $esp 4 + .ra: .cfa -4 + ^
STACK CFI INIT 1e370 a2 .cfa: $esp 4 + .ra: .cfa -4 + ^
STACK CFI 1e371 $edi: .cfa -8 + ^ .cfa: $esp 8 +
STACK CFI 1e372 $esi: .cfa -12 + ^ .cfa: $esp 12 +
STACK CFI 1e375 $ebx: .cfa -16 + ^ .cfa: $esp 16 +
STACK CFI 1e378 .cfa: $esp 48 +
STACK CFI 1e3b1 .cfa: $esp 16 +
STACK CFI 1e3b2 $ebx: $ebx .cfa: $esp 12 +
STACK CFI 1e3b3 $esi: $esi .cfa: $esp 8 +
STACK CFI 1e3b4 $edi: $edi .cfa: $esp 4 +
STACK CFI 1e3c0 $ebx: .cfa -16 + ^ $edi: .cfa -8 + ^ $esi: .cfa -12 + ^ .cfa: $esp 48 +
STACK CFI 1e3d6 .cfa: $esp 40 +
STACK CFI 1e3d9 .cfa: $esp 48 +
STACK CFI INIT 1e420 2 .cfa: $esp 4 + .ra: .cfa -4 + ^
STACK CFI INIT 1e430 2 .cfa: $esp 4 + .ra: .cfa -4 + ^
STACK CFI INIT 1e440 7b .cfa: $esp 4 + .ra: .cfa -4 + ^
STACK CFI 1e453 .cfa: $esp 32 +
STACK CFI 1e4ba .cfa: $esp 4 +
STACK CFI INIT 1e4c0 4f .cfa: $esp 4 + .ra: .cfa -4 + ^
STACK CFI 1e4c3 .cfa: $esp 32 +
STACK CFI 1e50e .cfa: $esp 4 +
STACK CFI INIT 1e510 23 .cfa: $esp 4 + .ra: .cfa -4 + ^
STACK CFI 1e513 .cfa: $esp 32 +
STACK CFI 1e52c .cfa: $esp 24 +
STACK CFI 1e52f .cfa: $esp 32 +
STACK CFI 1e532 .cfa: $esp 4 +
STACK CFI INIT 1e540 55 .cfa: $esp 4 + .ra: .cfa -4 + ^
STACK CFI 1e54f .cfa: $esp 32 +
STACK CFI 1e568 .cfa: $esp 24 +
STACK CFI 1e56b .cfa: $esp 32 +
STACK CFI 1e58a .cfa: $esp 4 +
STACK CFI INIT 1e5a0 55 .cfa: $esp 4 + .ra: .cfa -4 + ^
STACK CFI 1e5af .cfa: $esp 32 +
STACK CFI 1e5c8 .cfa: $esp 24 +
STACK CFI 1e5cb .cfa: $esp 32 +
STACK CFI 1e5ea .cfa: $esp 4 +
STACK CFI INIT 1e600 505 .cfa: $esp 4 + .ra: .cfa -4 + ^
STACK CFI 1e601 $ebp: .cfa -8 + ^ .cfa: $esp 8 +
STACK CFI 1e603 .cfa: $ebp 8 +
STACK CFI 1e817 $ebp: $ebp .cfa: $esp 4 +
STACK CFI 1e820 $ebp: .cfa -8 + ^ .cfa: $ebp 8 +
STACK CFI 1e855 $ebp: $ebp .cfa: $esp 4 +
STACK CFI 1e860 $ebp: .cfa -8 + ^ .cfa: $ebp 8 +
STACK CFI 1ea9c $ebp: $ebp .cfa: $esp 4 +
STACK CFI 1ea9d $ebp: .cfa -8 + ^ .cfa: $ebp 8 +
STACK CFI INIT 2173d0 b3 .cfa: $esp 4 + .ra: .cfa -4 + ^
STACK CFI 2173d3 .cfa: $esp 48 +
STACK CFI 21741a .cfa: $esp 28 +
STACK CFI 21741d .cfa: $esp 48 +
STACK CFI 21745a .cfa: $esp 28 +
STACK CFI 21745d .cfa: $esp 48 +
STACK CFI 217482 .cfa: $esp 4 +
STACK CFI INIT 1ec8a0 2 .cfa: $esp 4 + .ra: .cfa -4 + ^
STACK CFI INIT 1ebd80 2 .cfa: $esp 4 + .ra: .cfa -4 + ^
STACK CFI INIT 1ec890 f .cfa: $esp 4 + .ra: .cfa -4 + ^
STACK CFI 1ec893 .cfa: $esp 32 +
STACK CFI 1ec89e .cfa: $esp 4 +
STACK CFI INIT 1ebd70 f .cfa: $esp 4 + .ra: .cfa -4 + ^
STACK CFI 1ebd73 .cfa: $esp 32 +
STACK CFI 1ebd7e .cfa: $esp 4 +
STACK CFI INIT 216220 5 .cfa: $esp 4 + .ra: .cfa -4 + ^
STACK CFI INIT 15b8a0 98 .cfa: $esp 4 + .ra: .cfa -4 + ^
STACK CFI 15b8a1 $ebx: .cfa -8 + ^ .cfa: $esp 8 +
STACK CFI 15b8a4 .cfa: $esp 32 +
STACK CFI 15b8e9 .cfa: $esp 24 +
STACK CFI 15b8ec .cfa: $esp 32 +
STACK CFI 15b8ef .cfa: $esp 8 +
STACK CFI 15b8f0 $ebx: $ebx .cfa: $esp 4 +
STACK CFI 15b8f1 $ebx: .cfa -8 + ^ .cfa: $esp 32 +
STACK CFI 15b908 .cfa: $esp 8 +
STACK CFI 15b909 $ebx: $ebx .cfa: $esp 4 +
STACK CFI 15b910 $ebx: .cfa -8 + ^ .cfa: $esp 32 +
STACK CFI 15b918 .cfa: $esp 28 +
STACK CFI 15b91b .cfa: $esp 32 +
STACK CFI 15b91e .cfa: $esp 8 +
STACK CFI 15b91f $ebx: $ebx .cfa: $esp 4 +
STACK CFI 15b920 $ebx: .cfa -8 + ^ .cfa: $esp 32 +
STACK CFI 15b933 .cfa: $esp 28 +
STACK CFI 15b936 .cfa: $esp 32 +
STACK CFI INIT 15ad60 98 .cfa: $esp 4 + .ra: .cfa -4 + ^
STACK CFI 15ad61 $ebx: .cfa -8 + ^ .cfa: $esp 8 +
STACK CFI 15ad64 .cfa: $esp 32 +
STACK CFI 15ada9 .cfa: $esp 24 +
STACK CFI 15adac .cfa: $esp 32 +
STACK CFI 15adaf .cfa: $esp 8 +
STACK CFI 15adb0 $ebx: $ebx .cfa: $esp 4 +
STACK CFI 15adb1 $ebx: .cfa -8 + ^ .cfa: $esp 32 +
STACK CFI 15adc8 .cfa: $esp 8 +
STACK CFI 15adc9 $ebx: $ebx .cfa: $esp 4 +
STACK CFI 15add0 $ebx: .cfa -8 + ^ .cfa: $esp 32 +
STACK CFI 15add8 .cfa: $esp 28 +
STACK CFI 15addb .cfa: $esp 32 +
STACK CFI 15adde .cfa: $esp 8 +
STACK CFI 15addf $ebx: $ebx .cfa: $esp 4 +
STACK CFI 15ade0 $ebx: .cfa -8 + ^ .cfa: $esp 32 +
STACK CFI 15adf3 .cfa: $esp 28 +
STACK CFI 15adf6 .cfa: $esp 32 +
STACK CFI INIT 167400 ca .cfa: $esp 4 + .ra: .cfa -4 + ^
STACK CFI 167401 $ebp: .cfa -8 + ^ .cfa: $esp 8 +
STACK CFI 167404 .cfa: $esp 128 +
STACK CFI 16745c .cfa: $esp 120 +
STACK CFI 16745f .cfa: $esp 128 +
STACK CFI 167496 .cfa: $esp 8 +
STACK CFI 167499 $ebp: $ebp .cfa: $esp 4 +
STACK CFI 16749a $ebp: .cfa -8 + ^ .cfa: $esp 128 +
STACK CFI INIT 166560 ca .cfa: $esp 4 + .ra: .cfa -4 + ^
STACK CFI 166561 $ebp: .cfa -8 + ^ .cfa: $esp 8 +
STACK CFI 166564 .cfa: $esp 128 +
STACK CFI 1665bc .cfa: $esp 120 +
STACK CFI 1665bf .cfa: $esp 128 +
STACK CFI 1665f6 .cfa: $esp 8 +
STACK CFI 1665f9 $ebp: $ebp .cfa: $esp 4 +
STACK CFI 1665fa $ebp: .cfa -8 + ^ .cfa: $esp 128 +
STACK CFI INIT 1ebc10 160 .cfa: $esp 4 + .ra: .cfa -4 + ^
STACK CFI 1ebc11 $ebp: .cfa -8 + ^ .cfa: $esp 8 +
STACK CFI 1ebc13 .cfa: $ebp 8 +
STACK CFI 1ebd20 $ebp: $ebp .cfa: $esp 4 +
STACK CFI 1ebd23 $ebp: .cfa -8 + ^ .cfa: $ebp 8 +
STACK CFI INIT 1ec750 135 .cfa: $esp 4 + .ra: .cfa -4 + ^
STACK CFI 1ec751 $ebp: .cfa -8 + ^ .cfa: $esp 8 +
STACK CFI 1ec753 .cfa: $ebp 8 +
STACK CFI 1ec837 $ebp: $ebp .cfa: $esp 4 +
STACK CFI 1ec838 $ebp: .cfa -8 + ^ .cfa: $ebp 8 +
STACK CFI INIT 1ec8b0 5b .cfa: $esp 4 + .ra: .cfa -4 + ^
STACK CFI 1ec8b1 $ebp: .cfa -8 + ^ .cfa: $esp 8 +
STACK CFI 1ec8b3 .cfa: $ebp 8 +
STACK CFI 1ec8b8 $ebx: .cfa -16 + ^ $esi: .cfa -12 + ^
STACK CFI 1ec908 $ebx: $ebx
STACK CFI 1ec909 $esi: $esi
STACK CFI 1ec90a $ebp: $ebp .cfa: $esp 4 +
STACK CFI INIT 212510 4c .cfa: $esp 4 + .ra: .cfa -4 + ^
STACK CFI 212511 $edi: .cfa -8 + ^ .cfa: $esp 8 +
STACK CFI 212512 $esi: .cfa -12 + ^ .cfa: $esp 12 +
STACK CFI 212513 $ebx: .cfa -16 + ^ .cfa: $esp 16 +
STACK CFI 212516 .cfa: $esp 32 +
STACK CFI 21252d .cfa: $esp 28 +
STACK CFI 212536 .cfa: $esp 32 +
STACK CFI 212556 .cfa: $esp 16 +
STACK CFI 212557 $ebx: $ebx .cfa: $esp 12 +
STACK CFI 212558 $esi: $esi .cfa: $esp 8 +
STACK CFI 212559 $edi: $edi .cfa: $esp 4 +
STACK CFI INIT 1fc540 432 .cfa: $esp 4 + .ra: .cfa -4 + ^
STACK CFI 1fc541 $ebp: .cfa -8 + ^ .cfa: $esp 8 +
STACK CFI 1fc543 .cfa: $ebp 8 +
STACK CFI 1fc7ce $ebp: $ebp .cfa: $esp 4 +
STACK CFI 1fc7d1 $ebp: .cfa -8 + ^ .cfa: $ebp 8 +
STACK CFI INIT 1fef20 39b8 .cfa: $esp 4 + .ra: .cfa -4 + ^
STACK CFI 1fef21 $ebp: .cfa -8 + ^ .cfa: $esp 8 +
STACK CFI 1fef23 .cfa: $ebp 8 +
