MODULE windows x86 86418E274ADEA25804430394404C03B51 daemonded.exe
FUNC 1000 2 0 __mingw_invalidParameterHandler
FUNC 1010 11e 0 pre_c_init
FUNC 1130 3e 0 pre_cpp_init
FUNC 1170 364 0 __tmainCRTStartup
FUNC 14e0 1a 0 WinMainCRTStartup
FUNC 1500 1a 0 mainCRTStartup
FUNC 1550 2 0 __tcf_4
FUNC 1560 22 0 __tcf_3
FUNC 1590 a 0 __tcf_0
FUNC 15a0 a2 0 std::__cxx11::basic_string<char, std::char_traits<char>, std::allocator<char> >::_M_construct<char const*>
FUNC 1650 25 0 std::__detail::_Hashtable_alloc<std::allocator<std::__detail::_Hash_node<std::pair<const std::__cxx11::basic_string<char, std::char_traits<char>, std::allocator<char> >, proxyInfo_t>, true> > >::_M_deallocate_node
FUNC 1680 6b 0 __tcf_1
FUNC 16f0 15c 0 EscapeString
FUNC 1850 78 0 __tcf_2
FUNC 18d0 5 0 Cmd_SaveCmdContext
FUNC 18e0 5 0 Cmd_RestoreCmdContext
FUNC 18f0 12 0 Cmd_Argc
FUNC 1910 68 0 Cmd_Argv
FUNC 1980 e1 0 Cmd_ArgsFrom
FUNC 1a70 13 0 Cmd_Args
FUNC 1a90 9 0 Cmd_QuoteString
FUNC 1aa0 2c 0 Cmd_QuoteStringBuffer
FUNC 1ad0 18d 0 Cmd_UnquoteString
FUNC 1c60 10a 0 Cmd_TokenizeString
FUNC 1d70 125e 0 Cmd_PrintUsage
FUNC 2fd0 244 0 Cmd_OnCompleteMatch
FUNC 3220 2b5 0 Cmd_RemoveCommand
FUNC 34e0 241 0 Cmd_AddCommand
FUNC 3730 d9 0 Cmd_SetCommandCompletionFunc
FUNC 3810 e 0 SetCheatMode
FUNC 3820 5 0 Com_In_Restart_f
FUNC 3830 35 0 Com_Error_f
FUNC 3870 c 0 Com_Crash_f
FUNC 3880 a 0 __tcf_0
FUNC 3890 a2 0 std::__cxx11::basic_string<char, std::char_traits<char>, std::allocator<char> >::_M_construct<char const*>
FUNC 3940 2b 0 __tcf_3
FUNC 3970 57 0 __tcf_8
FUNC 39d0 6b 0 __tcf_9
FUNC 3a40 57 0 __tcf_1
FUNC 3aa0 57 0 __tcf_4
FUNC 3b00 57 0 __tcf_7
FUNC 3b60 57 0 __tcf_5
FUNC 3bc0 57 0 __tcf_6
FUNC 3c20 57 0 __tcf_10
FUNC 3c80 b1 0 __tcf_2
FUNC 3d40 5b 0 Com_ParseCommandLine
FUNC 3da0 298 0 Com_StartupVariable
FUNC 4040 8 0 Com_AreCheatsAllowed
FUNC 4050 7d 0 Com_IsClient
FUNC 40d0 f 0 Com_IsDedicatedServer
FUNC 40e0 e 0 Com_ServerRunning
FUNC 40f0 16 0 Com_Allocate_Aligned
FUNC 4110 6 0 Com_Free_Aligned
FUNC 4120 15 0 Hunk_SetMark
FUNC 4140 1f 0 Hunk_ClearToMark
FUNC 4160 1e4 0 Hunk_Clear
FUNC 4350 140 0 Hunk_Alloc
FUNC 4490 e4 0 Hunk_AllocateTempMemory
FUNC 4580 5 0 Com_Milliseconds
FUNC 4590 2b 0 Com_Shutdown
FUNC 45c0 ae 0 Hunk_FreeTempMemory
FUNC 4670 8a 0 Com_QueueEvent
FUNC 4700 3c1 0 Com_GetEvent
FUNC 4ad0 da 0 Com_SetRecommended
FUNC 4bb0 94 0 Com_Freeze_f
FUNC 4c50 c2 0 Com_InitHunkMemory
FUNC 4d20 392 0 Com_Init
FUNC 50c0 181 0 Info_Print
FUNC 5250 388 0 Com_Meminfo_f
FUNC 55e0 89 0 Com_WriteConfigToFile
FUNC 5670 35 0 Com_WriteConfiguration
FUNC 56b0 12 0 Com_WriteConfiguration
FUNC 56d0 a1 0 Com_WriteConfig_f
FUNC 5780 c4 0 Com_RunAndTimeServerPacket
FUNC 5850 1721 0 Com_EventLoop
FUNC 6f80 e3 0 Com_ModifyMsec
FUNC 7070 73e 0 Com_Frame
FUNC 77b0 a 0 __tcf_0
FUNC 77c0 d 0 qnettle_random
FUNC 77d0 a 0 __tcf_0
FUNC 77e0 16e 0 Cvar_FindVar
FUNC 7950 27 0 Cvar_VariableValue
FUNC 7980 1b 0 Cvar_VariableIntegerValue
FUNC 79a0 1e 0 Cvar_VariableString
FUNC 79c0 3c 0 Cvar_VariableStringBuffer
FUNC 7a00 2d3 0 Cvar_Get
FUNC 7ce0 19e 0 Cvar_Reset
FUNC 7e80 269 0 Cvar_Set
FUNC 80f0 62 0 Cvar_SetValue
FUNC 8160 c4 0 Cvar_WriteVariables
FUNC 8230 e 0 Cvar_InfoString
FUNC 8240 2 0 __tcf_6
FUNC 8250 a 0 __tcf_0
FUNC 8260 17 0 FS_AllocHandle
FUNC 8280 64 0 FS_CheckHandle
FUNC 82f0 a2 0 std::__cxx11::basic_string<char, std::char_traits<char>, std::allocator<char> >::_M_construct<char const*>
FUNC 83c0 9a 0 __tcf_3
FUNC 8460 7b 0 __tcf_4
FUNC 84e0 57 0 __tcf_5
FUNC 8540 6b 0 __tcf_2
FUNC 85b0 6b 0 __tcf_1
FUNC 8620 39 0 FS_FileExists
FUNC 8660 40 0 FS_FTell
FUNC 86a0 23 0 FS_ForceFlush
FUNC 86d0 12 0 FS_FreeFile
FUNC 86f0 3a 0 FS_FreeFileList
FUNC 8730 598 0 FS_GetFileList
FUNC 8cd0 598 0 FS_GetFileListRecursive
FUNC 9270 19a 0 FS_LoadedPaks
FUNC 9410 30a 0 FS_LoadAllMapMetadata
FUNC 9720 164 0 FS_filelength
FUNC 9890 23e 0 FS_Seek
FUNC 9ad0 fe 0 FS_Flush
FUNC 9bd0 147 0 FS_Write
FUNC 9d20 8b 0 FS_Printf
FUNC 9db0 19f 0 FS_Read
FUNC 9f50 129 0 FS_Rename
FUNC a080 5 0 FS_SV_Rename
FUNC a090 5c5 0 FS_ListFiles
FUNC a660 4a0 0 FS_ComparePaks
FUNC ab00 d0 0 Cmd::CmdBase::Print<const std::__cxx11::basic_string<char, std::char_traits<char>, std::allocator<char> >&>
FUNC abd0 3dd 0 FS_FOpenFileRead
FUNC afb0 249 0 FS_SV_FOpenFileRead
FUNC b200 58c 0 FS_FOpenFileWrite_internal
FUNC b790 b 0 FS_FOpenFileWrite
FUNC b7b0 e 0 FS_FOpenFileWriteViaTemporary
FUNC b7c0 19f 0 FS_FOpenFileAppend
FUNC b960 346 0 FS_Game_FOpenFileByMode
FUNC bcb0 102 0 FS_Delete
FUNC bdc0 199 0 FS_WriteFile
FUNC bf60 126 0 FS_LoadPak
FUNC c090 2c7 0 FS_LoadBasePak
FUNC c360 633 0 FS_LoadServerPaks
FUNC c9a0 3aa 0 FS_FCloseFile
FUNC cd50 88 0 FS_ReadFile
FUNC cde0 5d 0 swaplist
FUNC ce40 154 0 increment
FUNC cfa0 a 0 __tcf_0
FUNC cfb0 80 0 send
FUNC d030 45 0 Huff_putBit
FUNC d080 2b 0 Huff_getBit
FUNC d0b0 252 0 Huff_addRef
FUNC d310 6f 0 Huff_Receive
FUNC d380 80 0 Huff_offsetReceive
FUNC d400 a6 0 Huff_transmit
FUNC d4b0 39 0 Huff_offsetTransmit
FUNC d4f0 215 0 Huff_Decompress
FUNC d710 132 0 Huff_Compress
FUNC d850 12e 0 Huff_Init
FUNC d980 36 0 qsort_entitystatefields
FUNC d9c0 36 0 qsort_playerstatefields
FUNC da00 a 0 __tcf_0
FUNC da10 a2 0 std::__cxx11::basic_string<char, std::char_traits<char>, std::allocator<char> >::_M_construct<char const*>
FUNC dac0 17 0 MSG_Clear
FUNC dae0 9 0 MSG_Bitstream
FUNC daf0 15 0 MSG_Uncompressed
FUNC db10 17 0 MSG_BeginReading
FUNC db30 17 0 MSG_BeginReadingOOB
FUNC db60 7f 0 MSG_Copy
FUNC dbe0 19b 0 MSG_WriteBits
FUNC dd80 19e 0 MSG_ReadBits
FUNC df20 23 0 MSG_WriteChar
FUNC df60 45 0 MSG_WriteData
FUNC dfb0 23 0 MSG_WriteShort
FUNC dfe0 23 0 MSG_WriteLong
FUNC e010 23 0 MSG_WriteFloat
FUNC e040 34 0 MSG_WriteAngle
FUNC e080 34 0 MSG_WriteAngle16
FUNC e0c0 2e 0 MSG_ReadChar
FUNC e0f0 2e 0 MSG_ReadByte
FUNC e120 2c 0 MSG_ReadShort
FUNC e150 2b 0 MSG_ReadLong
FUNC e180 41 0 MSG_ReadFloat
FUNC e1d0 57 0 MSG_ReadString
FUNC e230 57 0 MSG_ReadBigString
FUNC e290 5f 0 MSG_ReadStringLine
FUNC e2f0 4c 0 MSG_ReadAngle16
FUNC e340 4b 0 MSG_ReadData
FUNC e390 59 0 MSG_HashKey
FUNC e3f0 6b 0 MSG_WriteDelta
FUNC e460 43 0 MSG_ReadDelta
FUNC e4b0 79 0 MSG_WriteDeltaFloat
FUNC e530 39 0 MSG_ReadDeltaFloat
FUNC e570 6c 0 MSG_WriteDeltaKey
FUNC e5e0 4a 0 MSG_ReadDeltaKey
FUNC e630 7c 0 MSG_WriteDeltaKeyFloat
FUNC e6b0 3d 0 MSG_ReadDeltaKeyFloat
FUNC e6f0 25b 0 MSG_WriteDeltaUsercmd
FUNC e950 201 0 MSG_ReadDeltaUsercmd
FUNC eb60 72 0 MSG_initHuffman
FUNC ebe0 56 0 MSG_Init
FUNC ec40 5a 0 MSG_InitOOB
FUNC eca0 be 0 MSG_WriteString
FUNC ed60 be 0 MSG_WriteBigString
FUNC ee20 e0 0 MSG_PrioritiseEntitystateFields
FUNC ef00 e0 0 MSG_PrioritisePlayerStateFields
FUNC efe0 32b 0 MSG_WriteDeltaEntity
FUNC f310 426 0 MSG_ReadDeltaEntity
FUNC f740 58b 0 MSG_WriteDeltaPlayerstate
FUNC fcd0 561 0 MSG_ReadDeltaPlayerstate
FUNC 10240 a 0 __tcf_0
FUNC 10250 a2 0 std::__cxx11::basic_string<char, std::char_traits<char>, std::allocator<char> >::_M_construct<char const*>
FUNC 10300 7b 0 Netchan_Init
FUNC 10380 7f 0 Netchan_Setup
FUNC 10400 d0 0 NET_GetLoopPacket
FUNC 104d0 57 0 NET_SendLoopPacket
FUNC 10530 b2 0 NET_FlushPacketQueue
FUNC 105f0 1ec 0 NET_StringToAdr
FUNC 107e0 537 0 Netchan_Process
FUNC 10d20 2c4 0 NET_SendPacket
FUNC 10ff0 1bc 0 Netchan_TransmitNextFragment
FUNC 111b0 1c6 0 Netchan_Transmit
FUNC 11380 a 0 __tcf_0
FUNC 11390 31 0 SockadrToNetadr
FUNC 113d0 a2 0 std::__cxx11::basic_string<char, std::char_traits<char>, std::allocator<char> >::_M_construct<char const*>
FUNC 11480 10a 0 NET_AddLocalAddress
FUNC 11590 42a 0 NET_ErrorString
FUNC 119c0 127 0 NetadrToSockadr
FUNC 11af0 63 0 Sys_SockaddrToString
FUNC 11b60 da 0 NET_AdrToString
FUNC 11c40 1f1 0 NET_AdrToStringwPort
FUNC 11e40 9 0 NET_IsLocalAddress
FUNC 11e50 121 0 Sys_IsLANAddress
FUNC 11f80 72 0 NET_LeaveMulticast6
FUNC 12000 7e 0 NET_GeoIP_Country
FUNC 12080 e8 0 NET_Sleep
FUNC 12170 1e1 0 NET_CompareBaseAdrMask
FUNC 12360 c1 0 NET_CompareBaseAdr
FUNC 12430 10a 0 NET_CompareAdr
FUNC 12540 b2 0 Sys_ShowIP
FUNC 12600 1a2 0 NET_GetLocalAddress
FUNC 127b0 2be 0 Sys_StringToSockaddr
FUNC 12a70 a2 0 Sys_StringToAdr
FUNC 12b20 ce 0 NET_SetMulticast6
FUNC 12bf0 336 0 Sys_SendPacket
FUNC 12f30 446 0 Sys_GetPacket
FUNC 13380 32b 0 NET_IPSocket
FUNC 136b0 44e 0 NET_IP6Socket
FUNC 13b00 219 0 NET_JoinMulticast6
FUNC 13d20 5ad 0 NET_OpenSocks
FUNC 142d0 614 0 NET_Config
FUNC 148f0 63 0 NET_Shutdown
FUNC 14960 13 0 NET_Restart_f
FUNC 14980 2ea 0 NET_Init
FUNC 14c70 46 0 Parse_AddDefineToHash
FUNC 14cc0 66 0 Parse_FindHashedDefine
FUNC 14d30 5f 0 Parse_PopIndent
FUNC 14d90 25 0 Parse_FreeScript
FUNC 14dc0 5b 0 Parse_FreeDefine
FUNC 14e20 4a 0 Parse_PushIndent
FUNC 14e70 44 0 Parse_StripDoubleQuotes
FUNC 14ec0 61 0 Parse_ConvertPath
FUNC 14f30 a 0 __tcf_0
FUNC 14f40 ec 0 Parse_ReadWhiteSpace
FUNC 15030 53 0 Parse_CopyToken
FUNC 15090 81 0 Parse_UnreadSignToken
FUNC 15120 a2 0 std::__cxx11::basic_string<char, std::char_traits<char>, std::allocator<char> >::_M_construct<char const*>
FUNC 151d0 108 0 Parse_CreatePunctuationTable
FUNC 152e0 c0 0 Parse_LoadScriptMemory
FUNC 153a0 fb 0 Parse_LoadScriptFile
FUNC 154a0 1fd 0 Parse_LoadSourceHandle
FUNC 156a0 ee 0 Parse_FreeSourceHandle
FUNC 15790 68 0 Parse_SourceFileAndLine
FUNC 15800 6c 0 Parse_SourceError
FUNC 15870 bb0 0 Parse_EvaluateTokens
FUNC 16420 1d 0 Parse_Directive_line
FUNC 16440 6e 0 Parse_PushScript
FUNC 164b0 4d 0 Parse_Directive_endif
FUNC 16500 7d 0 Parse_Directive_else
FUNC 16580 7a 0 Parse_ScriptError
FUNC 16600 77 0 Parse_ScriptWarning
FUNC 16680 321 0 Parse_ReadString
FUNC 169b0 b12 0 Parse_ReadSourceToken
FUNC 174d0 80 0 Parse_ReadLine
FUNC 17550 3c 0 Parse_Directive_pragma
FUNC 17590 17b 0 Parse_Directive_undef
FUNC 17710 19 0 Parse_Directive_undef
FUNC 17730 c1 0 Parse_Directive_if_def
FUNC 17800 e 0 Parse_Directive_ifndef
FUNC 17810 e 0 Parse_Directive_ifdef
FUNC 17820 40 0 Parse_Directive_error
FUNC 17860 1d0 0 Parse_Directive_include
FUNC 17a30 19 0 Parse_Directive_include
FUNC 17a50 8db 0 Parse_ExpandDefine
FUNC 18330 4e 0 Parse_ExpandDefineIntoSource
FUNC 18380 3a8 0 Parse_DollarEvaluate
FUNC 18730 121 0 Parse_DollarDirective_evalfloat
FUNC 18860 fb 0 Parse_DollarDirective_evalint
FUNC 18960 33c 0 Parse_Evaluate
FUNC 18ca0 db 0 Parse_Directive_evalfloat
FUNC 18d80 df 0 Parse_Directive_eval
FUNC 18e60 82 0 Parse_Directive_elif
FUNC 18ef0 41 0 Parse_Directive_if
FUNC 18f40 6e7 0 Parse_ReadToken
FUNC 19630 a4 0 Parse_ReadTokenHandle
FUNC 196e0 4cf 0 Parse_Directive_define
FUNC 19bb0 19 0 Parse_Directive_define
FUNC 19bd0 12e 0 Parse_DefineFromString
FUNC 19d00 8a 0 Parse_AddGlobalDefine
FUNC 19d90 2a 0 __tcf_2
FUNC 19dc0 a 0 __tcf_4
FUNC 19dd0 a 0 __tcf_3
FUNC 19de0 a 0 __tcf_0
FUNC 19df0 4b 0 __tcf_1
FUNC 19e40 a2 0 std::__cxx11::basic_string<char, std::char_traits<char>, std::allocator<char> >::_M_construct<char const*>
FUNC 19ef0 1e2 0 Trans_Gettext_Internal
FUNC 1a0e0 27c 0 Trans_Pgettext_Internal
FUNC 1a360 29c 0 Trans_GettextPlural_Internal
FUNC 1a600 1b 0 Trans_Gettext
FUNC 1a620 23 0 Trans_Pgettext
FUNC 1a650 2b 0 Trans_GettextPlural
FUNC 1a680 1b 0 Trans_GettextGame
FUNC 1a6a0 23 0 Trans_PgettextGame
FUNC 1a6d0 2b 0 Trans_GettextGamePlural
FUNC 1a700 35 0 Trans_Error
FUNC 1a740 45 0 Trans_Warning
FUNC 1a790 3b 0 Trans_Info
FUNC 1a7d0 3fc 0 Trans_SetLanguage
FUNC 1abd0 17 0 Trans_UpdateLanguage_f
FUNC 1abf0 ae 0 Trans_LoadDefaultLanguage
FUNC 1aca0 641 0 Trans_Init
FUNC 1b2f0 a 0 __tcf_0
FUNC 1b300 23 0 rVec::rVec
FUNC 1b330 23 0 rVec::rVec
FUNC 1b360 23 0 rVec::rVec
FUNC 1b390 23 0 qVec::qVec
FUNC 1b3c0 23 0 qVec::qVec
FUNC 1b3f0 23 0 qVec::qVec
FUNC 1b420 8d 0 rBounds::rBounds
FUNC 1b4b0 2c 0 rBounds::rBounds
FUNC 1b4e0 55 0 rBounds::addPoint
FUNC 1b540 2e 0 rBounds::clear
FUNC 1b570 5b 0 botRouteTargetInternal::botRouteTargetInternal
FUNC 1b5d0 2 0 __tcf_1
FUNC 1b5e0 a 0 __tcf_0
FUNC 1b5f0 a2 0 std::__cxx11::basic_string<char, std::char_traits<char>, std::allocator<char> >::_M_construct<char const*>
FUNC 1b6c0 228 0 BotSaveOffMeshConnections
FUNC 1b8f0 1a3 0 BotLoadOffMeshConnections
FUNC 1baa0 ce 0 BotShutdownNav
FUNC 1bb70 4db 0 BotLoadNavMesh
FUNC 1c050 269 0 BotSetupNav
FUNC 1c2c0 a 0 __tcf_0
FUNC 1c2d0 14e 0 BotCalcSteerDir
FUNC 1c420 96 0 PointInPolyExtents
FUNC 1c4c0 6c 0 PointInPoly
FUNC 1c530 e4 0 BotFindNearestPoly
FUNC 1c620 291 0 FindRoute
FUNC 1c8c0 7c 0 FindWaypoints
FUNC 1c940 26 0 frand
FUNC 1c970 a 0 __tcf_0
FUNC 1c980 2b 0 __tcf_1
FUNC 1c9b0 286 0 BotSetPolyFlags
FUNC 1cc40 94 0 BotDisableArea
FUNC 1cce0 94 0 BotEnableArea
FUNC 1cd80 1d0 0 BotSetNavMesh
FUNC 1cf50 62 0 GetEntPosition
FUNC 1cfc0 3f 0 GetEntPosition
FUNC 1d000 a3 0 BotFindRouteExt
FUNC 1d0b0 f6 0 UpdatePathCorridor
FUNC 1d1b0 887 0 BotUpdateCorridor
FUNC 1da40 118 0 BotFindRandomPointInRadius
FUNC 1db60 6d 0 BotFindRandomPoint
FUNC 1dbd0 1ea 0 BotNavTrace
FUNC 1ddc0 155 0 BotAddObstacle
FUNC 1df20 4c 0 BotRemoveObstacle
FUNC 1df70 52 0 BotUpdateObstacles
FUNC 1dfd0 a 0 __tcf_0
FUNC 1dfe0 ad 0 SV_BotAllocateClient
FUNC 1e090 4b 0 SV_BotFreeClient
FUNC 1e0e0 18 0 SV_IsBot
FUNC 1e100 47 0 SV_BotGetConsoleMessage
FUNC 1e150 b 0 SV_Heartbeat_f
FUNC 1e160 2 0 __tcf_1
FUNC 1e170 10 0 SV_FieldInfo_f
FUNC 1e180 a 0 __tcf_0
FUNC 1e190 a2 0 std::__cxx11::basic_string<char, std::char_traits<char>, std::allocator<char> >::_M_construct<char const*>
FUNC 1e270 7b 0 SV_AddOperatorCommands
FUNC 1e2f0 4f 0 SV_RemoveOperatorCommands
FUNC 1e340 23 0 SV_Systeminfo_f
FUNC 1e370 55 0 SV_Systeminfo_f
FUNC 1e3d0 55 0 SV_Serverinfo_f
FUNC 1e430 505 0 SV_MapRestart_f
FUNC 1e940 22 0 __tcf_0
FUNC 1e970 a 0 __tcf_1
FUNC 1e980 4b 0 __tcf_2
FUNC 1e9d0 a2 0 std::__cxx11::basic_string<char, std::char_traits<char>, std::allocator<char> >::_M_construct<char const*>
FUNC 1ea80 aa 0 SV_CloseDownload
FUNC 1eb30 8c 0 SV_BeginDownload_f
FUNC 1ebc0 1b 0 SV_FreeClient
FUNC 1ebe0 48 0 SV_BadDownload
FUNC 1ec30 2b8 0 SV_UserinfoChanged
FUNC 1eef0 70 0 SV_UpdateUserinfo_f
FUNC 1ef60 73 0 SV_ClientThink
FUNC 1efe0 171 0 SV_GetChallenge
FUNC 1f160 327 0 SV_ExecuteClientCommand
FUNC 1f490 15f 0 SV_DropClient
FUNC 1f5f0 14 0 SV_DropClient
FUNC 1f610 15 0 SV_Disconnect_f
FUNC 1f630 24c 0 SV_ClientCommand
FUNC 1f880 cb 0 SV_ClientEnterWorld
FUNC 1f950 1e7 0 SV_UserMove
FUNC 1fb40 1e31 0 SV_DirectConnect
FUNC 21980 212 0 SV_SendClientGameState
FUNC 21ba0 45 0 SV_DoneDownload_f
FUNC 21bf0 27b 0 SV_ExecuteClientMessage
FUNC 21e70 236 0 SV_WWWDownload_f
FUNC 220b0 64 0 SV_StopDownload_f
FUNC 22120 142 0 SV_NextDownload_f
FUNC 22270 1100 0 SV_WriteDownloadToClient
FUNC 23370 a 0 __tcf_0
FUNC 23380 a2 0 std::__cxx11::basic_string<char, std::char_traits<char>, std::allocator<char> >::_M_construct<char const*>
FUNC 23430 7c 0 SV_SetConfigstring
FUNC 234b0 196 0 SV_UpdateConfigStrings
FUNC 23650 6c 0 SV_GetConfigstring
FUNC 236c0 98 0 SV_SetUserinfo
FUNC 23760 71 0 SV_GetUserinfo
FUNC 237e0 73 0 SV_GetPlayerPubkey
FUNC 23860 52 0 SV_CreateBaseline
FUNC 238c0 76 0 SV_BoundMaxClients
FUNC 23940 95 0 SV_Startup
FUNC 239e0 183 0 SV_ChangeMaxClients
FUNC 23b70 4a 0 SV_ClearServer
FUNC 23bc0 4c8 0 SV_Init
FUNC 24090 bc 0 SV_FinalCommand
FUNC 24150 42a 0 SV_SpawnServer
FUNC 24580 13c 0 SV_Shutdown
FUNC 246c0 22 0 __tcf_0
FUNC 246f0 2b 0 __tcf_5
FUNC 24720 a 0 __tcf_1
FUNC 24730 a2 0 std::__cxx11::basic_string<char, std::char_traits<char>, std::allocator<char> >::_M_construct<char const*>
FUNC 247e0 3c 0 std::__cxx11::basic_string<char, std::char_traits<char>, std::allocator<char> >::basic_string
FUNC 24820 6b 0 __tcf_6
FUNC 24890 57 0 __tcf_4
FUNC 248f0 57 0 __tcf_3
FUNC 24950 57 0 __tcf_7
FUNC 249b0 2fa 0 __tcf_2
FUNC 24cb0 2d 0 Cvar::GetCvarTypeName<ServerPrivate>
FUNC 24ce0 4a 0 ParseCvarValue
FUNC 24d30 d 0 SV_Private
FUNC 24d40 3f 0 SV_NET_Config
FUNC 24d80 fe 0 SV_CalcPings
FUNC 24e80 b3 0 SV_CheckPaused
FUNC 24f40 36 0 SV_FrameMsec
FUNC 24f80 37 0 SerializeCvarValue
FUNC 24fc0 3b 0 SVC_Ping
FUNC 25000 264 0 SV_AddServerCommand
FUNC 25270 427 0 SV_ResolveMasterServers
FUNC 256a0 38a 0 TranslateText_Internal
FUNC 25a30 394 0 SV_CheckDRDoS
FUNC 25dd0 11f 0 SV_CheckTimeouts
FUNC 25ef0 76 0 SV_PrintTranslatedText
FUNC 25f70 1bd 0 SV_SendServerCommand
FUNC 26130 10a 0 SV_MasterHeartbeat
FUNC 26240 1d 0 SV_MasterShutdown
FUNC 26260 493 0 SV_Frame
FUNC 26700 1b35 0 SVC_RemoteCommand
FUNC 28240 98a 0 SVC_Status
FUNC 28bd0 13a6 0 SVC_Info
FUNC 29f80 e95 0 SV_ConnectionlessPacket
FUNC 2ae20 24b 0 SV_PacketEvent
FUNC 2b070 a 0 __tcf_0
FUNC 2b080 41 0 SV_Netchan_FreeQueue
FUNC 2b0d0 77 0 SV_Netchan_TransmitNextFragment
FUNC 2b150 13c 0 SV_Netchan_Transmit
FUNC 2b290 3f 0 __tcf_0
FUNC 2b2d0 a 0 __tcf_1
FUNC 2b2e0 a2 0 std::__cxx11::basic_string<char, std::char_traits<char>, std::allocator<char> >::_M_construct<char const*>
FUNC 2b390 33 0 std::__cxx11::basic_string<char, std::char_traits<char>, std::allocator<char> >::basic_string
FUNC 2b3d0 365 0 IPC::HandleMsg<IPC::Message<IPC::Id<0, 5>, int, std::__cxx11::basic_string<char, std::char_traits<char>, std::allocator<char> > >, GameVM::QVMSyscall(int, Util::Reader&, IPC::Channel&)::<lambda(int, std::__cxx11::string)> >
FUNC 2b740 365 0 IPC::HandleMsg<IPC::Message<IPC::Id<0, 8>, int, std::__cxx11::basic_string<char, std::char_traits<char>, std::allocator<char> > >, GameVM::QVMSyscall(int, Util::Reader&, IPC::Channel&)::<lambda(int, std::__cxx11::string)> >
FUNC 2bab0 2aa 0 IPC::HandleMsg<IPC::Message<IPC::Id<0, 13>, int, std::vector<unsigned char, std::allocator<unsigned char> > >, GameVM::QVMSyscall(int, Util::Reader&, IPC::Channel&)::<lambda(int, std::vector<unsigned char>)> >
FUNC 2bd60 37 0 SV_GentityNum
FUNC 2bda0 37 0 SV_GameClientNum
FUNC 2bde0 37 0 SV_SvEntityForGentity
FUNC 2be20 90 0 SV_GameSendServerCommand
FUNC 2beb0 2a 0 SV_GameDropClient
FUNC 2bee0 101 0 SV_RSAGenMsg
FUNC 2bff0 51 0 SV_GetServerinfo
FUNC 2c050 99 0 SV_LocateGameData
FUNC 2c0f0 77 0 SV_GetUsercmd
FUNC 2c170 17 0 GameVM::GameSnapshotCallback
FUNC 2c190 17 0 GameVM::BotAIStartFrame
FUNC 2c1b0 487 0 IPC::HandleMsg<IPC::SyncMessage<IPC::Message<IPC::Id<0, 3>, int, std::__cxx11::basic_string<char, std::char_traits<char>, std::allocator<char> > > >, GameVM::QVMSyscall(int, Util::Reader&, IPC::Channel&)::<lambda(int, std::__cxx11::string)> >
FUNC 2c640 437 0 IPC::HandleMsg<IPC::SyncMessage<IPC::Message<IPC::Id<0, 4>, int, std::__cxx11::basic_string<char, std::char_traits<char>, std::allocator<char> > > >, GameVM::QVMSyscall(int, Util::Reader&, IPC::Channel&)::<lambda(int, std::__cxx11::string)> >
FUNC 2ca80 3a0 0 IPC::HandleMsg<IPC::SyncMessage<IPC::Message<IPC::Id<0, 27>, int, std::array<float, 3>, std::array<float, 3> >, IPC::Reply<int, botTrace_t> >, GameVM::QVMSyscall(int, Util::Reader&, IPC::Channel&)::<lambda(int, std::array<float, 3>, std::array<float, 3>, int&, botTrace_t&)> >
FUNC 2ce20 334 0 IPC::HandleMsg<IPC::SyncMessage<IPC::Message<IPC::Id<0, 29>, int, std::array<float, 3>, float>, IPC::Reply<int, std::array<float, 3> > >, GameVM::QVMSyscall(int, Util::Reader&, IPC::Channel&)::<lambda(int, std::array<float, 3>, float, int&, std::array<float, 3>&)> >
FUNC 2d160 694 0 IPC::HandleMsg<IPC::SyncMessage<IPC::Message<IPC::Id<0, 18>, int, std::__cxx11::basic_string<char, std::char_traits<char>, std::allocator<char> >, qtime_t>, IPC::Reply<std::__cxx11::basic_string<char, std::char_traits<char>, std::allocator<char> > > >, GameVM::QVMSyscall(int, Util::Reader&, IPC::Channel&)::<lambda(int, std::__cxx11::string, const qtime_t&, std::__cxx11::string&)> >
FUNC 2d800 477 0 IPC::HandleMsg<IPC::SyncMessage<IPC::Message<IPC::Id<0, 16>, int, std::vector<char, std::allocator<char> >, int>, IPC::Reply<std::__cxx11::basic_string<char, std::char_traits<char>, std::allocator<char> > > >, GameVM::QVMSyscall(int, Util::Reader&, IPC::Channel&)::<lambda(int, const std::vector<char>&, int, std::__cxx11::string&)> >
FUNC 2dc80 35e 0 IPC::HandleMsg<IPC::SyncMessage<IPC::Message<IPC::Id<0, 9>, int, int>, IPC::Reply<std::__cxx11::basic_string<char, std::char_traits<char>, std::allocator<char> > > >, GameVM::QVMSyscall(int, Util::Reader&, IPC::Channel&)::<lambda(int, int, std::__cxx11::string&)> >
FUNC 2dfe0 389 0 IPC::HandleMsg<IPC::SyncMessage<IPC::Message<IPC::Id<0, 21>, int, int>, IPC::Reply<int, std::__cxx11::basic_string<char, std::char_traits<char>, std::allocator<char> > > >, GameVM::QVMSyscall(int, Util::Reader&, IPC::Channel&)::<lambda(int, int, int&, std::__cxx11::string&)> >
FUNC 2e370 35e 0 IPC::HandleMsg<IPC::SyncMessage<IPC::Message<IPC::Id<0, 17>, int, int>, IPC::Reply<std::__cxx11::basic_string<char, std::char_traits<char>, std::allocator<char> > > >, GameVM::QVMSyscall(int, Util::Reader&, IPC::Channel&)::<lambda(int, int, std::__cxx11::string&)> >
FUNC 2e6d0 693 0 IPC::detail::HandleMsg<GameVM::QVMSyscall(int, Util::Reader&, IPC::Channel&)::<lambda(std::__cxx11::string, int&, std::__cxx11::string&, std::__cxx11::string&)>, IPC::Message<IPC::Id<0, 15>, std::__cxx11::basic_string<char, std::char_traits<char>, std::allocator<char> > >, IPC::Reply<int, std::__cxx11::basic_string<char, std::char_traits<char>, std::allocator<char> >, std::__cxx11::basic_string<char, std::char_traits<char>, std::allocator<char> > > >
FUNC 2ed70 37c3 0 GameVM::QVMSyscall
FUNC 32540 16b 0 GameVM::Syscall
FUNC 326b0 187 0 GameVM::Start
FUNC 32840 7a 0 GameVM::GameStaticInit
FUNC 328c0 9d 0 GameVM::GameInit
FUNC 32960 65 0 SV_InitGameVM
FUNC 329d0 29 0 SV_InitGameProgs
FUNC 32a00 145 0 GameVM::GameShutdown
FUNC 32b50 42 0 SV_ShutdownGameProgs
FUNC 32ba0 42 0 SV_RestartGameProgs
FUNC 32bf0 161 0 GameVM::GameClientConnect
FUNC 32d60 71 0 GameVM::GameClientBegin
FUNC 32de0 71 0 GameVM::GameClientUserInfoChanged
FUNC 32e60 71 0 GameVM::GameClientDisconnect
FUNC 32ee0 79 0 GameVM::GameClientCommand
FUNC 32f60 71 0 GameVM::GameClientThink
FUNC 32fe0 71 0 GameVM::GameRunFrame
FUNC 33060 184 0 GameVM::GameMessageRecieved
FUNC 331f0 33 0 SV_GameBinaryMessageReceived
FUNC 33230 268 0 GameVM::GameVM
FUNC 334a0 a 0 __tcf_0
FUNC 334b0 87 0 SV_RateMsec
FUNC 33540 33 0 SV_QsortEntityNumbers
FUNC 33580 62 0 SV_AddEntToSnapshot
FUNC 335f0 a2 0 std::__cxx11::basic_string<char, std::char_traits<char>, std::allocator<char> >::_M_construct<char const*>
FUNC 336a0 70 0 SV_UpdateServerCommandsToClient
FUNC 33710 149 0 SV_SendMessageToClient
FUNC 33860 5a1 0 SV_AddEntitiesVisibleFromPoint
FUNC 33e10 e7 0 SV_SendClientIdle
FUNC 33f00 7da 0 SV_SendClientSnapshot
FUNC 346e0 298 0 SV_SendClientMessages
FUNC 34980 a 0 __tcf_0
FUNC 34990 a2 0 std::__cxx11::basic_string<char, std::char_traits<char>, std::allocator<char> >::_M_construct<char const*>
FUNC 34a40 76 0 std::__cxx11::basic_string<char, std::char_traits<char>, std::allocator<char> >::_M_construct<__gnu_cxx::__normal_iterator<unsigned char const*, std::vector<unsigned char> > >
FUNC 34ac0 57 0 __tcf_1
FUNC 34b20 57 0 __tcf_3
FUNC 34b80 57 0 __tcf_2
FUNC 34be0 14a 0 __tcf_4
FUNC 34d30 c 0 Challenge::Timeout
FUNC 34d40 6 0 Challenge::Bytes
FUNC 34d50 166 0 Challenge::GenerateString
FUNC 34ec0 6 0 ChallengeManager::MaxChallenges
FUNC 34ed0 168 0 ChallengeManager::Clear
FUNC 35040 431 0 Cleanup
FUNC 35480 195 0 ChallengeManager::Push
FUNC 35620 305 0 ChallengeManager::GenerateChallenge
FUNC 35930 7d4 0 ChallengeManager::Match
FUNC 36110 2fe 0 ChallengeManager::MatchString
FUNC 36410 48 0 Challenge::ValidString
FUNC 36460 a 0 __tcf_0
FUNC 36470 5 0 Keyboard::StringToKey
FUNC 36480 37 0 Keyboard::KeyToString
FUNC 364c0 3 0 Keyboard::GetCharForScancode
FUNC 364d0 3 0 Keyboard::ScancodeToAscii
FUNC 364e0 2 0 Keyboard::CompleteKeyName
FUNC 364f0 3 0 Keyboard::IsDown
FUNC 36500 2 0 Keyboard::SetBinding
FUNC 36510 9 0 Keyboard::GetBinding
FUNC 36520 19 0 Keyboard::GetKeysBoundTo
FUNC 36540 2 0 Keyboard::WriteBindings
FUNC 36560 3 0 Keyboard::GetTeam
FUNC 36570 3 0 Keyboard::AnyKeyDown
FUNC 36590 2 0 Field_Draw
FUNC 365a0 2 0 Field_KeyDownEvent
FUNC 365b0 2 0 Field_CharEvent
FUNC 365c0 5 0 Key_GetKeyNumber
FUNC 365d0 3 0 Key_GetKeyTime
FUNC 36600 2 0 CL_KeyEvent
FUNC 36620 2 0 Key_ClearStates
FUNC 36630 a 0 __tcf_0
FUNC 36640 a2 0 std::__cxx11::basic_string<char, std::char_traits<char>, std::allocator<char> >::_M_construct<char const*>
FUNC 366f0 2 0 CL_Shutdown
FUNC 36700 28 0 CL_Init
FUNC 36730 2 0 CL_MouseEvent
FUNC 36760 2 0 CL_Frame
FUNC 36770 2 0 CL_PacketEvent
FUNC 36780 2 0 CL_Disconnect
FUNC 367a0 2 0 CL_ConsolePrint
FUNC 367f0 2b 0 CL_ForwardCommandToServer
FUNC 36820 a 0 __tcf_0
FUNC 36830 2 0 IN_Init
FUNC 36840 2 0 IN_Frame
FUNC 368a0 3 0 IN_IsNumLockDown
FUNC 368b0 2 0 IN_SetMouseMode
FUNC 368c0 27 0 __tcf_0
FUNC 368f0 a 0 __tcf_1
FUNC 36900 a2 0 std::__cxx11::basic_string<char, std::char_traits<char>, std::allocator<char> >::_M_construct<char const*>
FUNC 369b0 12d 0 Application::GetApp
FUNC 36ae0 a 0 __tcf_0
FUNC 36af0 9a 0 Cmd::SkipSpaces
FUNC 36b90 19 0 Cmd::CmdBase::Complete
FUNC 36bb0 26 0 Cmd::LambdaCmd::Run
FUNC 36be0 60 0 Cmd::LambdaCmd::Complete
FUNC 36c40 a 0 __tcf_0
FUNC 36c50 a2 0 std::__cxx11::basic_string<char, std::char_traits<char>, std::allocator<char> >::_M_construct<char const*>
FUNC 36d00 3e9 0 Cmd::Escape
FUNC 370f0 1b4 0 Cmd::SplitCommand
FUNC 372b0 4fd 0 Cmd::SubstituteCvars
FUNC 377b0 4e 0 Cmd::IsValidCvarName
FUNC 37800 57 0 Cmd::IsValidCmdName
FUNC 37860 102 0 Cmd::IsSwitch
FUNC 37970 15 0 Cmd::Args::Args
FUNC 37990 2b 0 Cmd::Args::Args
FUNC 379c0 f 0 Cmd::Args::Argc
FUNC 379d0 f 0 Cmd::Args::Argv
FUNC 379e0 1a7 0 Cmd::Args::EscapedArgs
FUNC 37b90 13f 0 Cmd::Args::ConcatArgs
FUNC 37cd0 3 0 Cmd::Args::ArgVector
FUNC 37d00 3 0 Cmd::Args::begin
FUNC 37d10 4 0 Cmd::Args::end
FUNC 37d20 10 0 Cmd::CmdBase::CmdBase
FUNC 37d30 4 0 Cmd::CmdBase::GetFlags
FUNC 37d40 2f 0 Cmd::CmdBase::ExecuteAfter
FUNC 37d70 5 0 Cmd::CmdBase::GetEnv
FUNC 37d80 138 0 Cmd::StaticCmd::StaticCmd
FUNC 37ec0 148 0 Cmd::StaticCmd::StaticCmd
FUNC 38010 19 0 Cmd::NoopComplete
FUNC 38030 1f7 0 Cmd::LambdaCmd::LambdaCmd
FUNC 38230 1f7 0 Cmd::LambdaCmd::LambdaCmd
FUNC 38430 458 0 Cmd::Args::Args
FUNC 38890 195 0 Cmd::CmdBase::PrintUsage
FUNC 38a30 26d 0 Cmd::AddToCompletion
FUNC 38ca0 113 0 Cmd::FilterCompletion
FUNC 38dc0 a 0 __tcf_0
FUNC 38dd0 a2 0 std::__cxx11::basic_string<char, std::char_traits<char>, std::allocator<char> >::_M_construct<char const*>
FUNC 38e80 aa 0 Cvar::CvarProxy::CvarProxy
FUNC 38f30 1c 0 Cvar::CvarProxy::SetValue
FUNC 38f50 16d 0 Cvar::CvarProxy::Register
FUNC 390c0 1f2 0 Cvar::ParseCvarValue
FUNC 392c0 43 0 Cvar::SerializeCvarValue
FUNC 39310 2d 0 Cvar::GetCvarTypeName<bool>
FUNC 39340 1d 0 Cvar::ParseCvarValue
FUNC 39360 2d 0 Cvar::GetCvarTypeName<int>
FUNC 39390 5 0 Cvar::ParseCvarValue
FUNC 393a0 2d 0 Cvar::GetCvarTypeName<float>
FUNC 393d0 bb 0 Cvar::ParseCvarValue
FUNC 39490 5a 0 Cvar::SerializeCvarValue
FUNC 394f0 2d 0 Cvar::GetCvarTypeName<std::__cxx11::basic_string<char> >
FUNC 39520 2d 0 Cvar::GetCvarTypeName<unsigned int>
FUNC 39550 1f0 0 Cvar::ParseCvarValue
FUNC 39740 37 0 Cvar::SerializeCvarValue
FUNC 39780 3f 0 Cvar::SerializeCvarValue
FUNC 397c0 37 0 Cvar::SerializeCvarValue
FUNC 39860 2 0 std::_Sp_counted_deleter<void*, FS::RawPath::ListFiles(Str::StringRef, std::error_code&)::<lambda(void*)>, std::allocator<void>, (__gnu_cxx::_Lock_policy)2>::~_Sp_counted_deleter
FUNC 39890 f 0 std::_Sp_counted_deleter<void*, FS::RawPath::ListFiles(Str::StringRef, std::error_code&)::<lambda(void*)>, std::allocator<void>, (__gnu_cxx::_Lock_policy)2>::~_Sp_counted_deleter
FUNC 398a0 22 0 __tcf_2
FUNC 398d0 22 0 __tcf_8
FUNC 39900 22 0 __tcf_7
FUNC 39930 f 0 std::_Sp_counted_deleter<void*, FS::RawPath::ListFiles(Str::StringRef, std::error_code&)::<lambda(void*)>, std::allocator<void>, (__gnu_cxx::_Lock_policy)2>::_M_destroy
FUNC 39940 12d 0 FS::SetErrorCode
FUNC 39a70 24 0 FS::SetErrorCodeSystem
FUNC 39aa0 45 0 FS::filesystem_category
FUNC 39af0 14 0 __tcf_0
FUNC 39b10 14 0 __tcf_1
FUNC 39b30 2d 0 std::_Sp_counted_deleter<void*, FS::RawPath::ListFiles(Str::StringRef, std::error_code&)::<lambda(void*)>, std::allocator<void>, (__gnu_cxx::_Lock_policy)2>::_M_get_deleter
FUNC 39b60 48 0 std::_Sp_counted_deleter<void*, FS::RawPath::ListFiles(Str::StringRef, std::error_code&)::<lambda(void*)>, std::allocator<void>, (__gnu_cxx::_Lock_policy)2>::_M_dispose
FUNC 39bb0 a 0 __tcf_3
FUNC 39c50 227 0 FS::VersionCmp
FUNC 39e80 90 0 __tcf_11
FUNC 39f10 65 0 FS::SetErrorCodeZlib
FUNC 39f80 12b 0 FS::::ZipArchive::Open
FUNC 3a0b0 81 0 FS::::ZipArchive::OpenFile
FUNC 3a140 b5 0 FS::::ZipArchive::ReadFile
FUNC 3a200 a2 0 std::__cxx11::basic_string<char, std::char_traits<char>, std::allocator<char> >::_M_construct<char const*>
FUNC 3a2b0 3e 0 std::__cxx11::basic_string<char, std::char_traits<char>, std::allocator<char> >::basic_string
FUNC 3a2f0 35b 0 FS::GetRealPath
FUNC 3a650 25 0 std::__detail::_Hashtable_alloc<std::allocator<std::__detail::_Hash_node<std::pair<const std::__cxx11::basic_string<char, std::char_traits<char>, std::allocator<char> >, std::pair<unsigned int, long long int> >, true> > >::_M_deallocate_node
FUNC 3a680 3e 0 std::__detail::_Hashtable_alloc<std::allocator<std::__detail::_Hash_node<std::pair<const std::__cxx11::basic_string<char, std::char_traits<char>, std::allocator<char> >, std::pair<unsigned int, long long int> >, true> > >::_M_allocate_buckets
FUNC 3a6c0 fe 0 std::__detail::_Hashtable_alloc<std::allocator<std::__detail::_Hash_node<std::pair<const std::__cxx11::basic_string<char, std::char_traits<char>, std::allocator<char> >, std::pair<unsigned int, long long int> >, true> > >::_M_allocate_node<const std::pair<const std::__cxx11::basic_string<char, std::char_traits<char>, std::allocator<char> >, std::pair<unsigned int, long long int> >&>
FUNC 3a7c0 57 0 __tcf_5
FUNC 3aae0 8c 0 __tcf_9
FUNC 3ab70 ac 0 __tcf_10
FUNC 3acc0 61 0 __tcf_6
FUNC 3ad30 4b 0 __tcf_4
FUNC 3ad80 11f 0 std::__upper_bound<__gnu_cxx::__normal_iterator<FS::PakInfo*, std::vector<FS::PakInfo> >, FS::PakInfo, __gnu_cxx::__ops::_Val_comp_iter<FS::RefreshPaks()::<lambda(const FS::PakInfo&, const FS::PakInfo&)> > >
FUNC 3aea0 11f 0 std::__lower_bound<__gnu_cxx::__normal_iterator<FS::PakInfo*, std::vector<FS::PakInfo> >, FS::PakInfo, __gnu_cxx::__ops::_Iter_comp_val<FS::RefreshPaks()::<lambda(const FS::PakInfo&, const FS::PakInfo&)> > >
FUNC 3afc0 12f 0 Util::Reader::FillTuple<0, std::__cxx11::basic_string<char>, std::tuple<std::__cxx11::basic_string<char, std::char_traits<char>, std::allocator<char> > > >
FUNC 3b0f0 852 0 std::__move_merge<__gnu_cxx::__normal_iterator<FS::PakInfo*, std::vector<FS::PakInfo> >, FS::PakInfo*, __gnu_cxx::__ops::_Iter_comp_iter<FS::RefreshPaks()::<lambda(const FS::PakInfo&, const FS::PakInfo&)> > >
FUNC 3b950 8 0 FS::UseLegacyPaks
FUNC 3b960 83 0 FS::Path::IsValid
FUNC 3b9f0 1fc 0 FS::Path::Build
FUNC 3bbf0 87 0 FS::Path::DirName
FUNC 3bc80 89 0 FS::Path::BaseName
FUNC 3bd10 99 0 FS::Path::Extension
FUNC 3bdb0 cc 0 FS::Path::StripExtension
FUNC 3be80 c4 0 FS::Path::BaseNameStripExtension
FUNC 3bf50 4e 0 FS::File::Close
FUNC 3bfa0 62 0 FS::File::Length
FUNC 3c010 72 0 FS::File::Timestamp
FUNC 3c090 5e 0 FS::File::SeekCur
FUNC 3c0f0 5e 0 FS::File::SeekSet
FUNC 3c150 5e 0 FS::File::SeekEnd
FUNC 3c1b0 11 0 FS::File::Tell
FUNC 3c1d0 82 0 FS::File::Read
FUNC 3c260 5f 0 FS::File::Write
FUNC 3c2c0 41 0 FS::File::Flush
FUNC 3c310 106 0 FS::File::ReadAll
FUNC 3c420 7b 0 FS::File::CopyTo
FUNC 3c4a0 62 0 FS::File::SetLineBuffered
FUNC 3c510 6 0 FS::PakPath::GetLoadedPaks
FUNC 3c520 20f 0 FS::PakPath::DirectoryRange::InternalAdvance
FUNC 3c730 3a 0 FS::PakPath::DirectoryRange::Advance
FUNC 3c770 19e 0 FS::PakPath::ListFiles
FUNC 3c910 19e 0 FS::PakPath::ListFilesRecursive
FUNC 3cab0 230 0 FS::RawPath::CreatePathTo
FUNC 3cce0 3fe 0 FS::RawPath::OpenMode
FUNC 3d0e0 15c 0 FS::HomePath::OpenMode
FUNC 3d240 2d 0 FS::RawPath::OpenRead
FUNC 3d270 2d 0 FS::RawPath::OpenWrite
FUNC 3d2a0 2d 0 FS::RawPath::OpenAppend
FUNC 3d2d0 2d 0 FS::RawPath::OpenEdit
FUNC 3d300 ed 0 FS::RawPath::FileExists
FUNC 3d3f0 15a 0 FS::RawPath::FileTimestamp
FUNC 3d550 16e 0 FS::RawPath::MoveFile
FUNC 3d6c0 10c 0 FS::RawPath::DeleteFile
FUNC 3d7d0 254 0 FS::RawPath::DirectoryRange::Advance
FUNC 3da30 5ea 0 FS::RawPath::ListFiles
FUNC 3e020 2d 0 FS::HomePath::OpenRead
FUNC 3e050 2d 0 FS::HomePath::OpenWrite
FUNC 3e080 2d 0 FS::HomePath::OpenAppend
FUNC 3e0b0 2d 0 FS::HomePath::OpenEdit
FUNC 3e0e0 19b 0 FS::HomePath::FileExists
FUNC 3e280 163 0 FS::HomePath::FileTimestamp
FUNC 3e3f0 20d 0 FS::HomePath::MoveFile
FUNC 3e600 143 0 FS::HomePath::DeleteFile
FUNC 3e750 18b 0 FS::HomePath::ListFiles
FUNC 3e8e0 91 0 FS::DefaultBasePath
FUNC 3e980 199 0 FS::DefaultHomePath
FUNC 3eb20 2 0 FS::MigrateHomePath
FUNC 3eb30 13 0 FS::FlushAll
FUNC 3eb50 8 0 FS::IsInitialized
FUNC 3eb60 f7 0 FS::FindPak
FUNC 3ec60 16c 0 FS::FindPak
FUNC 3edd0 327 0 FS::MakePakName
FUNC 3f100 6 0 FS::GetAvailablePaks
FUNC 3f110 6 0 FS::GetHomePath
FUNC 3f120 6 0 FS::GetLibPath
FUNC 3f130 2ef 0 FS::FindPak
FUNC 3f420 a 0 __tcf_12
FUNC 3f430 917 0 FS::PakPath::CompleteFilename
FUNC 3fd50 786 0 FS::HomePath::CompleteFilename
FUNC 404e0 3e2 0 FS::ParsePakName
FUNC 408d0 2fb 0 FS::RawPath::RecursiveDirectoryRange::Advance
FUNC 40bd0 334 0 FS::RawPath::ListFilesRecursive
FUNC 40f10 182 0 FS::HomePath::ListFilesRecursive
FUNC 410a0 3ca 0 FS::AddPak
FUNC 41470 4d1 0 FS::FindPaksInPath
FUNC 41950 21c 0 FS::GetAvailableMapPaks
FUNC 41b70 1173 0 IPC::detail::HandleMsg<FS::HandleFileSystemSyscall(int, Util::Reader&, IPC::Channel&, Str::StringRef)::<lambda(std::__cxx11::string&, std::__cxx11::string&, std::vector<FS::PakInfo>&, std::vector<FS::LoadedPakInfo>&, std::unordered_map<std::__cxx11::basic_string<char>, std::pair<unsigned int, long long int> >&)>, IPC::Message<IPC::Id<6, 0> >, IPC::Reply<std::__cxx11::basic_string<char, std::char_traits<char>, std::allocator<char> >, std::__cxx11::basic_string<char, std::char_traits<char>, std::allocator<char> >, std::vector<FS::PakInfo, std::allocator<FS::PakInfo> >, std::vector<FS::LoadedPakInfo, std::allocator<FS::LoadedPakInfo> >, std::unordered_map<std::__cxx11::basic_string<char, std::char_traits<char>, std::allocator<char> >, std::pair<unsigned int, long long int>, std::hash<std::__cxx11::basic_string<char, std::char_traits<char>, std::allocator<char> > >, std::equal_to<std::__cxx11::basic_string<char, std::char_traits<char>, std::allocator<char> > >, std::allocator<std::pair<const std::__cxx11::basic_string<char, std::char_traits<char>, std::allocator<char> >, std::pair<unsigned int, long long int> > > > > >
FUNC 42cf0 61b 0 FS::PakPath::ReadFile
FUNC 43310 47e 0 FS::PakPath::CopyFile
FUNC 43790 60 0 FS::PakPath::FileExists
FUNC 437f0 69 0 FS::PakPath::LocateFile
FUNC 43860 1e9 0 FS::PakPath::FileTimestamp
FUNC 43a50 c42 0 std::__insertion_sort<__gnu_cxx::__normal_iterator<FS::PakInfo*, std::vector<FS::PakInfo> >, __gnu_cxx::__ops::_Iter_comp_iter<FS::RefreshPaks()::<lambda(const FS::PakInfo&, const FS::PakInfo&)> > >
FUNC 446a0 5fd 0 std::__move_merge<FS::PakInfo*, __gnu_cxx::__normal_iterator<FS::PakInfo*, std::vector<FS::PakInfo> >, __gnu_cxx::__ops::_Iter_comp_iter<FS::RefreshPaks()::<lambda(const FS::PakInfo&, const FS::PakInfo&)> > >
FUNC 44ca0 1d3 0 std::__merge_sort_with_buffer<__gnu_cxx::__normal_iterator<FS::PakInfo*, std::vector<FS::PakInfo> >, FS::PakInfo*, __gnu_cxx::__ops::_Iter_comp_iter<FS::RefreshPaks()::<lambda(const FS::PakInfo&, const FS::PakInfo&)> > >
FUNC 44e80 389 0 FS::::ZipArchive::ForEachFile<FS::PakPath::InternalLoadPak(const FS::PakInfo&, Util::optional<unsigned int>, Str::StringRef, std::error_code&)::<lambda(Str::StringRef, FS::offset_t, uint32_t)> >
FUNC 45210 1348 0 FS::PakPath::InternalLoadPak
FUNC 46560 30 0 FS::PakPath::LoadPak
FUNC 46590 30 0 FS::PakPath::LoadPakPrefix
FUNC 465c0 38 0 FS::PakPath::LoadPakExplicit
FUNC 46600 3a2f 0 FS::HandleFileSystemSyscall
FUNC 4a030 1a6 0 std::__merge_without_buffer<__gnu_cxx::__normal_iterator<FS::PakInfo*, std::vector<FS::PakInfo> >, int, __gnu_cxx::__ops::_Iter_comp_iter<FS::RefreshPaks()::<lambda(const FS::PakInfo&, const FS::PakInfo&)> > >
FUNC 4a1e0 8b 0 std::__inplace_stable_sort<__gnu_cxx::__normal_iterator<FS::PakInfo*, std::vector<FS::PakInfo> >, __gnu_cxx::__ops::_Iter_comp_iter<FS::RefreshPaks()::<lambda(const FS::PakInfo&, const FS::PakInfo&)> > >
FUNC 4a270 39a 0 std::__merge_adaptive<__gnu_cxx::__normal_iterator<FS::PakInfo*, std::vector<FS::PakInfo> >, int, FS::PakInfo*, __gnu_cxx::__ops::_Iter_comp_iter<FS::RefreshPaks()::<lambda(const FS::PakInfo&, const FS::PakInfo&)> > >
FUNC 4a610 d0 0 std::__stable_sort_adaptive<__gnu_cxx::__normal_iterator<FS::PakInfo*, std::vector<FS::PakInfo> >, FS::PakInfo*, int, __gnu_cxx::__ops::_Iter_comp_iter<FS::RefreshPaks()::<lambda(const FS::PakInfo&, const FS::PakInfo&)> > >
FUNC 4a6e0 371 0 FS::RefreshPaks
FUNC 4aa60 102 0 FS::PakPath::ClearPaks
FUNC 4ab70 80f 0 FS::Initialize
FUNC 4b380 616 0 FS::GetAvailableMaps
FUNC 4b9a0 2c 0 IPC::FreeHandles
FUNC 4b9d0 a 0 __tcf_0
FUNC 4b9e0 a2 0 std::__cxx11::basic_string<char, std::char_traits<char>, std::allocator<char> >::_M_construct<char const*>
FUNC 4ba90 11 0 IPC::FileDesc::Close
FUNC 4bab0 85 0 IPC::FileHandle::GetDesc
FUNC 4bb40 a9 0 IPC::FileHandle::FromDesc
FUNC 4bbf0 43 0 IPC::OwnedFileHandle::~OwnedFileHandle
FUNC 4bc40 2e 0 IPC::Socket::Close
FUNC 4bc70 14 0 IPC::Socket::GetDesc
FUNC 4bc90 13 0 IPC::Socket::FromDesc
FUNC 4bcb0 b 0 IPC::Socket::FromHandle
FUNC 4bcc0 3 0 IPC::Socket::SetRecvTimeout
FUNC 4bcd0 34 0 IPC::SharedMemory::Close
FUNC 4bd10 21 0 IPC::SharedMemory::GetDesc
FUNC 4bd40 104a 0 Sys::Drop<char (&)[256]>
FUNC 4cd90 32c 0 IPC::InternalSendMsg
FUNC 4d0c0 ca 0 IPC::Socket::SendMsg
FUNC 4d190 55 0 IPC::Socket::CreatePair
FUNC 4d1f0 1076 0 Sys::Drop<unsigned int&, std::__cxx11::basic_string<char, std::char_traits<char>, std::allocator<char> > >
FUNC 4e270 f5 0 IPC::MapSharedMemory
FUNC 4e370 ae 0 IPC::SharedMemory::FromDesc
FUNC 4e420 283 0 IPC::SharedMemory::Create
FUNC 4e6b0 1474 0 IPC::InternalRecvMsg
FUNC 4fb30 134 0 IPC::Socket::RecvMsg
FUNC 4fc70 a 0 __tcf_1
FUNC 4fc80 a2 0 std::__cxx11::basic_string<char, std::char_traits<char>, std::allocator<char> >::_M_construct<char const*>
FUNC 4fd30 89 0 __tcf_0
FUNC 4fdc0 4b 0 __tcf_2
FUNC 4fe10 1ee 0 Log::Logger::Prefix
FUNC 50000 f0 0 Log::ParseCvarValue
FUNC 500f0 e4 0 Log::SerializeCvarValue
FUNC 501e0 2d 0 Cvar::GetCvarTypeName<Log::Level>
FUNC 50210 492 0 Log::DispatchByLevel
FUNC 506b0 118 0 Log::CommandInteractionMessage
FUNC 507d0 c5 0 Log::Logger::WithoutSuppression
FUNC 508a0 462 0 Log::Logger::Logger
FUNC 50d10 155 0 Log::GetCvarOrDie<int>
FUNC 50e70 a36 0 Log::DispatchWithSuppression
FUNC 518b0 1e5 0 Log::Logger::Dispatch
FUNC 51aa0 171 0 Str::UTF8_DecodeSequence
FUNC 51c20 a 0 __tcf_0
FUNC 51c30 1c3 0 Str::UTF8_Append
FUNC 51e00 1a 0 Str::AssertOnTinyFormatError
FUNC 51e20 cd 0 Str::ParseInt
FUNC 51ef0 2f 0 Str::ToFloat
FUNC 51f20 41 0 Str::ToFloat
FUNC 51f70 1d 0 Str::GetHex
FUNC 51f90 11 0 Str::HexDigit
FUNC 51fb0 16d 0 Str::ToUpper
FUNC 52120 16d 0 Str::ToLower
FUNC 52290 46 0 Str::IsPrefix
FUNC 522e0 47 0 Str::IsSuffix
FUNC 52330 46 0 Str::LongestPrefixSize
FUNC 52380 142 0 Str::IsIPrefix
FUNC 524d0 15a 0 Str::LongestIPrefixSize
FUNC 52630 8d 0 Str::IsIEqual
FUNC 526c0 275 0 Str::UTF8To32
FUNC 52940 db 0 Str::UTF32To8
FUNC 52a20 1b0 0 Str::UTF8To16
FUNC 52bd0 1d7 0 Str::UTF16To8
FUNC 52db0 a 0 __tcf_0
FUNC 52dc0 a2 0 std::__cxx11::basic_string<char, std::char_traits<char>, std::allocator<char> >::_M_construct<char const*>
FUNC 52e70 db 0 Sys::SteadyClock::now
FUNC 52f50 6e 0 Sys::Milliseconds
FUNC 52fc0 116 0 Sys::Drop
FUNC 530e0 17 0 Sys::SetupCrashHandler
FUNC 53100 25 0 Sys::DynamicLib::Close
FUNC 53130 16 0 Sys::OSExit
FUNC 53150 8 0 Sys::IsProcessTerminating
FUNC 53160 2b 0 operator new
FUNC 53190 15 0 operator delete
FUNC 531b0 67 0 Com_Error
FUNC 53220 603 0 Sys::Error<std::__cxx11::basic_string<char, std::char_traits<char>, std::allocator<char> >&>
FUNC 53830 61b 0 Sys::Error<long unsigned int&, char const*>
FUNC 53e50 1b4 0 Sys::CrashHandler
FUNC 54010 88f 0 Sys::Win32StrError
FUNC 548a0 1b3 0 Sys::DynamicLib::Open
FUNC 54a60 10e 0 Sys::DynamicLib::InternalLoadSym
FUNC 54b70 32 0 Sys::DynamicLib::InternalLoadSym
FUNC 54bb0 329 0 Sys::SleepFor
FUNC 54ee0 4d 0 Sys::SleepUntil
FUNC 54f30 17c 0 Sys::GenRandomBytes
FUNC 550b0 22 0 __tcf_3
FUNC 550e0 a 0 __tcf_0
FUNC 550f0 4b 0 __tcf_2
FUNC 55140 a2 0 std::__cxx11::basic_string<char, std::char_traits<char>, std::allocator<char> >::_M_construct<char const*>
FUNC 551f0 57 0 __tcf_1
FUNC 55250 38 0 CM_FreeAll
FUNC 55290 69 0 CM_BoundBrush
FUNC 55300 17 0 CM_ClearMap
FUNC 55320 2b 0 CM_InlineModel
FUNC 55350 6 0 CM_NumInlineModels
FUNC 55360 6 0 CM_EntityString
FUNC 55370 39 0 CM_LeafCluster
FUNC 553b0 3a 0 CM_LeafArea
FUNC 553f0 568 0 CM_TempBoxModel
FUNC 55960 104a 0 Sys::Drop<int&>
FUNC 569b0 70 0 CM_Alloc
FUNC 56a20 81 0 CMod_LoadShaders
FUNC 56ab0 16e 0 CMod_LoadSubmodels
FUNC 56c20 9a 0 CMod_LoadNodes
FUNC 56cc0 f7 0 CMod_LoadBrushes
FUNC 56dc0 125 0 CMod_LoadLeafs
FUNC 56ef0 10c 0 CMod_LoadPlanes
FUNC 57000 58 0 CMod_LoadLeafBrushes
FUNC 57060 58 0 CMod_LoadLeafSurfaces
FUNC 570c0 d4 0 CMod_LoadBrushSides
FUNC 571a0 9d 0 CMod_LoadVisibility
FUNC 57240 324 0 CMod_LoadSurfaces
FUNC 57570 142 0 CM_InitBoxHull
FUNC 576c0 451 0 CMod_LoadEntityString
FUNC 57b20 1780 0 CM_LoadMap
FUNC 592a0 116 0 CM_ClipHandleToModel
FUNC 593c0 58 0 CM_ModelBounds
FUNC 59420 7d 0 CM_SetGridWrapWidth
FUNC 594a0 1c8 0 CM_RemoveDegenerateColumns
FUNC 59670 40a 0 CM_SubdivideGridColumns
FUNC 59a80 a 0 __tcf_0
FUNC 59a90 a2 0 std::__cxx11::basic_string<char, std::char_traits<char>, std::allocator<char> >::_M_construct<char const*>
FUNC 59b40 4bd 0 CM_SetBorderInward
FUNC 5a000 143 0 CM_GridPlane
FUNC 5a150 15 0 CM_ClearLevelPatches
FUNC 5a170 1531 0 CM_GeneratePatchCollide
FUNC 5b6b0 a 0 __tcf_0
FUNC 5b6c0 cb 0 CM_CreateNewFloatPlane
FUNC 5b790 a2 0 std::__cxx11::basic_string<char, std::char_traits<char>, std::allocator<char> >::_M_construct<char const*>
FUNC 5b840 37 0 CM_ResetPlaneCounts
FUNC 5b880 25 0 CM_SignbitsForNormal
FUNC 5b8b0 e4 0 CM_PlaneFromPoints
FUNC 5b9a0 11d 0 CM_PlaneEqual
FUNC 5bac0 9c 0 CM_SnapVector
FUNC 5bb60 9e 0 CM_FindPlane2
FUNC 5bc00 1be 0 CM_FindPlane
FUNC 5bdc0 59 0 CM_GenerateBoundaryForPoints
FUNC 5be20 77 0 CM_PointOnPlaneSide
FUNC 5bea0 1e2 0 CM_ValidateFacet
FUNC 5c090 ac9 0 CM_AddFacetBevels
FUNC 5cb60 be 0 CM_GenerateFacetFor3Points
FUNC 5cc20 a 0 __tcf_0
FUNC 5cc30 4c 0 AllocWinding
FUNC 5cc80 38 0 FreeWinding
FUNC 5ccc0 79 0 WindingBounds
FUNC 5cd40 2e1 0 BaseWindingForPlane
FUNC 5d030 39 0 CopyWinding
FUNC 5d070 33b 0 ChopWindingInPlace
FUNC 5d3b0 3c 0 CM_StoreLeafs
FUNC 5d3f0 a 0 __tcf_0
FUNC 5d400 a2 0 std::__cxx11::basic_string<char, std::char_traits<char>, std::allocator<char> >::_M_construct<char const*>
FUNC 5d4b0 57 0 __tcf_1
FUNC 5d510 8b 0 CM_PointLeafnum_r
FUNC 5d5a0 2b 0 CM_PointLeafnum
FUNC 5d5d0 76 0 CM_BoxLeafnums_r
FUNC 5d650 a5 0 CM_BoxLeafnums
FUNC 5d700 29 0 CM_ClusterPVS
FUNC 5d730 88 0 CM_FloodArea_r
FUNC 5d7c0 5c 0 CM_FloodAreaConnections
FUNC 5d820 e0 0 CM_AdjustAreaPortalState
FUNC 5d900 57 0 CM_AreasConnected
FUNC 5d960 a2 0 CM_WriteAreaBits
FUNC 5da10 c5 0 CM_BoundsIntersect
FUNC 5dae0 af 0 CM_BoundsIntersectPoint
FUNC 5db90 138 0 CM_PointContents
FUNC 5dcd0 23 0 CM_PointContents
FUNC 5dd00 133 0 CM_TransformedPointContents
FUNC 5de40 a 0 __tcf_0
FUNC 5de50 a2 0 std::__cxx11::basic_string<char, std::char_traits<char>, std::allocator<char> >::_M_construct<char const*>
FUNC 5df00 104b 0 Sys::Error<int&>
FUNC 5ef50 10b5 0 Sys::Drop<int&, float (*&)[3], int&, int*&>
FUNC 60010 73c 0 CM_GenerateTriangleSoupCollide
FUNC 60750 5f 0 m3_det
FUNC 607b0 98 0 m4_submat
FUNC 60850 a 0 __tcf_0
FUNC 60860 10 0 Q_rand
FUNC 60870 31 0 Q_random
FUNC 608b0 47 0 Q_crandom
FUNC 60900 1a 0 ClampByte
FUNC 60920 1b 0 ClampChar
FUNC 60940 5f 0 DirToByte
FUNC 609a0 67 0 ByteToDir
FUNC 60a10 d0 0 PlaneNormalize
FUNC 60ae0 152 0 RotatePointAroundVector
FUNC 60c40 1ad 0 vectoangles
FUNC 60df0 45 0 AxisClear
FUNC 60e40 61 0 AxisCopy
FUNC 60eb0 6e 0 ProjectPointOnPlane
FUNC 60f20 8c 0 ProjectPointOntoRectangleOutwards
FUNC 60fb0 4d 0 ExponentialFade
FUNC 61000 64 0 LerpAngle
FUNC 61070 7b 0 AngleSubtract
FUNC 610f0 138 0 AnglesSubtract
FUNC 61230 3e 0 AngleMod
FUNC 61280 4f 0 AngleNormalize180
FUNC 612d0 55 0 AngleDelta
FUNC 61330 f0 0 AngleBetweenVectors
FUNC 61420 26 0 SetPlaneSignbits
FUNC 61450 d3 0 BoxOnPlaneSide
FUNC 61530 83 0 RadiusFromBounds
FUNC 615c0 31 0 ZeroBounds
FUNC 61600 35 0 ClearBounds
FUNC 61640 68 0 AddPointToBounds
FUNC 616b0 6d 0 BoundsAdd
FUNC 61720 53 0 BoundsIntersect
FUNC 61780 69 0 BoundsIntersectSphere
FUNC 617f0 42 0 BoundsIntersectPoint
FUNC 61840 bb 0 BoundsMaxExtent
FUNC 61900 2e 0 VectorCompare
FUNC 61930 9d 0 VectorNormalize
FUNC 619d0 de 0 PlaneFromPoints
FUNC 61ab0 101 0 PlaneFromPointsOrder
FUNC 61bc0 f1 0 MakeNormalVectors
FUNC 61cc0 7f 0 VectorNormalizeFast
FUNC 61d40 ca 0 VectorNormalize2
FUNC 61e10 bb 0 PlaneIntersectRay
FUNC 61ed0 262 0 PlanesGetIntersectionPoint
FUNC 62140 5f 0 CrossProduct
FUNC 621a0 39 0 VectorLength
FUNC 621e0 35 0 VectorLengthSquared
FUNC 62220 4b 0 Distance
FUNC 62270 47 0 DistanceSquared
FUNC 622c0 35 0 VectorInverse
FUNC 62300 22 0 NearestPowerOfTwo
FUNC 62330 189 0 AxisMultiply
FUNC 624c0 1d2 0 AngleVectors
FUNC 626a0 65 0 AnglesToAxis
FUNC 62710 98 0 PerpendicularVector
FUNC 627b0 be 0 RotateAroundDirection
FUNC 62870 f7 0 GetPerpendicularViewVector
FUNC 62970 e7 0 ProjectPointOntoVector
FUNC 62a60 375 0 DistanceBetweenLineSegmentsSquared
FUNC 62de0 1a1 0 ProjectPointOntoVectorBounded
FUNC 62f90 120 0 DistanceFromLineSquared
FUNC 630b0 243 0 AxisToAngles
FUNC 63310 74 0 MatrixIdentity
FUNC 63390 74 0 MatrixClear
FUNC 63410 a7 0 MatrixCopy
FUNC 634c0 d3 0 MatrixCompare
FUNC 635a0 a7 0 MatrixTranspose
FUNC 63650 197 0 MatrixInverse
FUNC 637f0 c8 0 MatrixSetupXRotation
FUNC 638c0 c2 0 MatrixSetupYRotation
FUNC 63990 cc 0 MatrixSetupZRotation
FUNC 63a60 80 0 MatrixSetupTranslation
FUNC 63ae0 80 0 MatrixSetupScale
FUNC 63b60 7c 0 MatrixSetupShear
FUNC 63be0 6a 0 MatrixMultiply
FUNC 63c50 d2 0 MatrixMultiply2
FUNC 63d30 138 0 MatrixMultiplyZRotation
FUNC 63e70 be 0 MatrixMultiplyTranslation
FUNC 63f30 b1 0 MatrixMultiplyScale
FUNC 63ff0 a2 0 MatrixMultiplyShear
FUNC 640a0 1c3 0 MatrixToAngles
FUNC 64270 228 0 MatrixFromAngles
FUNC 644a0 114 0 MatrixMultiplyRotation
FUNC 645c0 9a 0 MatrixFromVectorsFLU
FUNC 64660 ab 0 MatrixFromVectorsFRU
FUNC 64710 14b 0 MatrixFromQuat
FUNC 64860 174 0 MatrixFromPlanes
FUNC 649e0 75 0 MatrixToVectorsFLU
FUNC 64a60 86 0 MatrixToVectorsFRU
FUNC 64af0 a8 0 MatrixSetupTransformFromVectorsFLU
FUNC 64ba0 b8 0 MatrixSetupTransformFromVectorsFRU
FUNC 64c60 9e 0 MatrixSetupTransformFromRotation
FUNC 64d00 c0 0 MatrixSetupTransformFromQuat
FUNC 64dc0 fd 0 MatrixAffineInverse
FUNC 64ec0 89 0 MatrixTransformNormal
FUNC 64f50 81 0 MatrixTransformNormal2
FUNC 64fe0 98 0 MatrixTransformPoint
FUNC 65080 90 0 MatrixTransformPoint2
FUNC 65110 eb 0 MatrixTransform4
FUNC 65200 76 0 MatrixTransformPlane
FUNC 65280 50 0 MatrixTransformPlane2
FUNC 652d0 264 0 MatrixTransformBounds
FUNC 65540 d8 0 MatrixPerspectiveProjection
FUNC 65620 ec 0 MatrixPerspectiveProjectionLH
FUNC 65710 d0 0 MatrixPerspectiveProjectionRH
FUNC 657e0 fe 0 MatrixPerspectiveProjectionFovYAspectLH
FUNC 658e0 131 0 MatrixPerspectiveProjectionFovXYLH
FUNC 65a20 11f 0 MatrixPerspectiveProjectionFovXYRH
FUNC 65b40 103 0 MatrixPerspectiveProjectionFovXYInfiniteRH
FUNC 65c50 f2 0 MatrixOrthogonalProjection
FUNC 65d50 fa 0 MatrixOrthogonalProjectionLH
FUNC 65e50 df 0 MatrixOrthogonalProjectionRH
FUNC 65f30 12b 0 MatrixPlaneReflection
FUNC 66060 1dd 0 MatrixLookAtLH
FUNC 66240 1e9 0 MatrixLookAtRH
FUNC 66430 ef 0 MatrixScaleTranslateToUnitCube
FUNC 66520 f9 0 MatrixCrop
FUNC 66620 b6 0 QuatNormalize
FUNC 666e0 22d 0 QuatFromMatrix
FUNC 66910 49 0 QuatFromAngles
FUNC 66960 a8 0 QuatToVectorsFLU
FUNC 66a20 91 0 QuatToAxis
FUNC 66ac0 258 0 QuatToAngles
FUNC 66d20 e8 0 QuatMultiply
FUNC 66e10 4e 0 QuatMultiply2
FUNC 66e60 29c 0 QuatSlerp
FUNC 67100 ff 0 QuatTransformVector
FUNC 67200 107 0 QuatTransformVectorInverse
FUNC 67310 68 0 internalTime
FUNC 67380 a 0 __tcf_0
FUNC 67390 77 0 Q_strnicmp
FUNC 67410 a2 0 std::__cxx11::basic_string<char, std::char_traits<char>, std::allocator<char> >::_M_construct<char const*>
FUNC 674c0 29 0 Com_InitGrowList
FUNC 674f0 33 0 Com_DestroyGrowList
FUNC 67530 29 0 Com_Clamp
FUNC 67560 24 0 COM_FixPath
FUNC 67590 24 0 COM_SkipPath
FUNC 675c0 c9 0 Com_SkipTokens
FUNC 67690 4b 0 COM_GetExtension
FUNC 676e0 29 0 COM_StripExtension
FUNC 67710 42 0 COM_StripExtension2
FUNC 67760 55 0 Com_HashKey
FUNC 677c0 151 0 Com_EntityTypeName
FUNC 67920 2 0 COM_BackupParseSession
FUNC 67930 b0 0 COM_Compress
FUNC 679e0 250 0 COM_ParseExt
FUNC 67c30 1b 0 COM_Parse
FUNC 67c50 433 0 COM_ParseExt2
FUNC 68090 1b 0 COM_Parse2
FUNC 680b0 5b 0 SkipBracedSection_Depth
FUNC 68110 5b 0 SkipBracedSection
FUNC 68170 2d 0 SkipRestOfLine
FUNC 681a0 80 0 Com_HexStrToInt
FUNC 68220 1a8 0 Com_ClearForeignCharacters
FUNC 683d0 3c 0 Q_strtoi
FUNC 68410 8a 0 Q_strncpyz
FUNC 684a0 78 0 COM_StripExtension3
FUNC 68520 62 0 Q_strncmp
FUNC 68590 89 0 Q_stricmp
FUNC 68620 29 0 Q_strlwr
FUNC 68650 29 0 Q_strupr
FUNC 68680 4d 0 Q_strcat
FUNC 686d0 36 0 Q_strnicmp
FUNC 68710 89 0 Q_stristr
FUNC 687a0 a0 0 Com_StringContains
FUNC 68840 367 0 Com_Filter
FUNC 68bb0 69 0 Q_isBadDirChar
FUNC 68c20 29 0 Q_CountChar
FUNC 68c50 cc 0 va
FUNC 68d20 28 0 InfoValidItem
FUNC 68d50 86 0 Info_NextPair
FUNC 68de0 3a 0 Info_Validate
FUNC 68e20 43 0 Com_ClientListContains
FUNC 68e70 2f 0 Com_ClientListAdd
FUNC 68ea0 2f 0 Com_ClientListRemove
FUNC 68ed0 56 0 Com_ClientListParse
FUNC 68f30 89 0 VectorMatrixMultiply
FUNC 68fc0 7d 0 Q_ParseNewlines
FUNC 69040 e 0 Com_RealTime
FUNC 69050 e 0 Com_GMTime
FUNC 69060 3a9 0 Info_ValueForKey
FUNC 69410 1085 0 Sys::Drop<char*&, char const*&>
FUNC 6a4a0 45 0 COM_MatchToken
FUNC 6a4f0 141 0 Info_RemoveKey
FUNC 6a640 60 0 COM_ParseError
FUNC 6a6a0 60 0 COM_ParseWarning
FUNC 6a700 38f 0 InfoMapToString
FUNC 6aa90 1ef 0 Com_AddToGrowList
FUNC 6ac80 b0 0 Com_sprintf
FUNC 6ad30 82 0 COM_DefaultExtension
FUNC 6adc0 35 0 COM_BeginParseSession
FUNC 6ae00 44 0 Com_ClientListString
FUNC 6ae50 f2 0 Com_GrowListElement
FUNC 6af50 162 0 Info_SetValueForKeyRocket
FUNC 6b0c0 24b 0 Info_SetValueForKey
FUNC 6b310 170 0 Com_ParseInfos
FUNC 6b480 919 0 InfoStringToMap
FUNC 6bda0 26 0 CmpHalfOpenInterval
FUNC 6bdd0 1b 0 CmpFirstElement
FUNC 6bdf0 a 0 __tcf_0
FUNC 6be00 81 0 Q_UTF8_Width
FUNC 6be90 38 0 Q_UTF8_WidthCP
FUNC 6bed0 2a 0 Q_UTF8_Strlen
FUNC 6bf00 12 0 Q_UTF8_ContByte
FUNC 6bf20 245 0 Q_UTF8_CodePoint
FUNC 6c170 f9 0 Q_UTF8_Encode
FUNC 6c270 40 0 Q_Unicode_IsAlpha
FUNC 6c2b0 40 0 Q_Unicode_IsUpper
FUNC 6c2f0 40 0 Q_Unicode_IsLower
FUNC 6c330 40 0 Q_Unicode_IsIdeo
FUNC 6c370 40 0 Q_Unicode_IsDigit
FUNC 6c3b0 8c 0 Q_Unicode_IsAlphaOrIdeo
FUNC 6c440 bb 0 Q_Unicode_IsAlphaOrIdeoOrDigit
FUNC 6c500 24 0 Q_Unicode_IsPrivateUse
FUNC 6c530 4a 0 Q_Unicode_ToUpper
FUNC 6c580 4a 0 Q_Unicode_ToLower
FUNC 6c5d0 3 0 Application::Application::LoadInitialConfig
FUNC 6c5e0 3 0 Application::Application::Initialize
FUNC 6c5f0 3 0 Application::Application::Shutdown
FUNC 6c600 a 0 __tcf_0
FUNC 6c610 a2 0 std::__cxx11::basic_string<char, std::char_traits<char>, std::allocator<char> >::_M_construct<char const*>
FUNC 6c6c0 25 0 Application::Traits::Traits
FUNC 6c6f0 2c 0 Application::Application::Application
FUNC 6c720 4 0 Application::Application::GetTraits
FUNC 6c730 32 0 Application::LoadInitialConfig
FUNC 6c770 3b 0 Application::Initialize
FUNC 6c7b0 27 0 Application::Frame
FUNC 6c7e0 3b 0 Application::OnDrop
FUNC 6c820 47 0 Application::Shutdown
FUNC 6c870 1d 0 Application::OnUnhandledCommand
FUNC 6c890 f 0 Application::GetTraits
FUNC 6c8a0 3c 0 Application::Application::OnUnhandledCommand
FUNC 6c8e0 2 0 __tcf_1
FUNC 6c8f0 a 0 __tcf_0
FUNC 6c900 a2 0 std::__cxx11::basic_string<char, std::char_traits<char>, std::allocator<char> >::_M_construct<char const*>
FUNC 6cac0 57 0 __tcf_11
FUNC 6cb20 62e 0 Cmd::GetAliasConfigText
FUNC 6d150 110d 0 Cmd::CmdBase::Print<char const*>
FUNC 6e260 d0 0 Cmd::CmdBase::Print<const std::__cxx11::basic_string<char, std::char_traits<char>, std::allocator<char> >&>
FUNC 6e330 99 0 Cmd::DelayFrame
FUNC 6e3d0 25 0 __tcf_15
FUNC 6e400 19c 0 Cmd::CompleteDelayName
FUNC 6e5a0 19a 0 Cmd::CompleteAliasName
FUNC 6e740 2 0 __tcf_6
FUNC 6e750 45 0 __tcf_2
FUNC 6e7a0 41 0 __tcf_3
FUNC 6e7f0 a 0 __tcf_0
FUNC 6e800 4b 0 __tcf_1
FUNC 6e850 a2 0 std::__cxx11::basic_string<char, std::char_traits<char>, std::allocator<char> >::_M_construct<char const*>
FUNC 6e900 e2 0 Cmd::DefaultEnvironment::Print
FUNC 6ea80 61 0 __tcf_5
FUNC 6eaf0 61 0 __tcf_4
FUNC 6eb60 109 0 Cmd::GetCommandMap
FUNC 6ec70 6 0 Cmd::GetCurrentArgs
FUNC 6ec80 6 0 Cmd::GetEnv
FUNC 6ec90 1b 0 Cmd::SetCurrentArgs
FUNC 6ecb0 1b 0 Cmd::SaveArgs
FUNC 6ecd0 1b 0 Cmd::LoadArgs
FUNC 6ecf0 555 0 Cmd::BufferCommandTextInternal
FUNC 6f250 34 0 Cmd::BufferCommandText
FUNC 6f290 34 0 Cmd::BufferCommandTextAfter
FUNC 6f2d0 32 0 Cmd::DefaultEnvironment::ExecuteAfter
FUNC 6f310 4f 0 Cmd::RemoveFlaggedCommands
FUNC 6f360 47 0 Cmd::RemoveSameCommands
FUNC 6f3b0 2d7 0 Cmd::CompleteCommandNames
FUNC 6f690 d7 0 Cmd::ChangeDescription
FUNC 6f770 22 0 Cmd::CommandExists
FUNC 6f7a0 391 0 Cmd::ExecuteCommand
FUNC 6fb40 319 0 Cmd::ExecuteCommandBuffer
FUNC 6fe60 234 0 Cmd::CompleteArgument
FUNC 700a0 db 0 Cmd::RemoveCommand
FUNC 70180 436 0 Cmd::AddCommand
FUNC 705c0 a 0 __tcf_0
FUNC 705d0 a2 0 std::__cxx11::basic_string<char, std::char_traits<char>, std::allocator<char> >::_M_construct<char const*>
FUNC 70680 12f 0 Util::Reader::FillTuple<0, std::__cxx11::basic_string<char>, std::tuple<std::__cxx11::basic_string<char, std::char_traits<char>, std::allocator<char> > > >
FUNC 707b0 51d 0 VM::CommonVMServices::EnvPrint
FUNC 70cd0 553 0 VM::CommonVMServices::EnvExecuteAfter
FUNC 71230 14e 0 VM::CommonVMServices::CommonVMServices
FUNC 71380 184 0 VM::CommonVMServices::~CommonVMServices
FUNC 71510 4 0 VM::CommonVMServices::GetVM
FUNC 71520 1085 0 Sys::Drop<int&, std::__cxx11::basic_string<char, std::char_traits<char>, std::allocator<char> >&>
FUNC 725b0 5d1 0 VM::CommonVMServices::HandleLogSyscall
FUNC 72b90 76d 0 VM::CommonVMServices::SetCvar
FUNC 73300 562 0 VM::CommonVMServices::AddCvarFlags
FUNC 73870 f5d 0 VM::CommonVMServices::RegisterCvar
FUNC 747d0 904 0 VM::CommonVMServices::HandleMiscSyscall
FUNC 750e0 6d1 0 VM::CommonVMServices::GetCvar
FUNC 757c0 97 0 VM::CommonVMServices::HandleCvarSyscall
FUNC 75860 3e46 0 VM::CommonVMServices::HandleCommonQVMSyscall
FUNC 796b0 570 0 VM::CommonVMServices::RemoveCommand
FUNC 79c20 9ab 0 VM::CommonVMServices::AddCommand
FUNC 7a5d0 97 0 VM::CommonVMServices::HandleCommandSyscall
FUNC 7a670 344 0 VM::CommonVMServices::Syscall
FUNC 7a9c0 37 0 Sys::CrashDumpPath
FUNC 7aa00 a 0 __tcf_0
FUNC 7aa10 4b 0 __tcf_1
FUNC 7aa60 a2 0 std::__cxx11::basic_string<char, std::char_traits<char>, std::allocator<char> >::_M_construct<char const*>
FUNC 7ab10 22 0 __tcf_3
FUNC 7ab40 57 0 __tcf_2
FUNC 7aba0 233 0 Sys::CreateCrashDumpPath
FUNC 7ade0 bf0 0 Sys::BreakpadInitInternal
FUNC 7b9d0 157 0 Sys::BreakpadInit
FUNC 7bb30 443 0 Sys::NaclCrashDump
FUNC 7bf80 2 0 __tcf_2
FUNC 7bf90 a 0 __tcf_1
FUNC 7bfa0 a2 0 std::__cxx11::basic_string<char, std::char_traits<char>, std::allocator<char> >::_M_construct<char const*>
FUNC 7c0b0 2f 0 __tcf_0
FUNC 7c0e0 109 0 Cvar::GetCvarMap
FUNC 7c1f0 b3 0 Cvar::Shutdown
FUNC 7c2b0 6d 0 Cvar::InfoString
FUNC 7c320 1e7 0 Cvar::Raw
FUNC 7c510 16a4 0 Cvar::GetCvarConfigText
FUNC 7dbc0 2417 0 Cvar::SetCStyleDescription
FUNC 7ffe0 2dc 0 Cvar::SetCCvar
FUNC 802c0 15d 0 Cvar::GetCCvar
FUNC 80420 12bf 0 Cvar::ChangeCvarDescription
FUNC 816e0 213 0 Cvar::SetCheatsAllowed
FUNC 81900 299 0 Cvar::Complete
FUNC 81ba0 e9 0 Cmd::CmdBase::Print<const std::__cxx11::basic_string<char, std::char_traits<char>, std::allocator<char> >&, std::__cxx11::basic_string<char, std::char_traits<char>, std::allocator<char> >&, std::__cxx11::basic_string<char, std::char_traits<char>, std::allocator<char> >&, std::__cxx11::basic_string<char, std::char_traits<char>, std::allocator<char> > >
FUNC 81c90 d7 0 Cvar::GetValue
FUNC 81d70 32 0 Cvar::Unregister
FUNC 81db0 8d 0 Cvar::AddFlags
FUNC 81e40 40 0 Cvar::ClearFlags
FUNC 81e80 34 0 Cvar::FindCCvar
FUNC 81ec0 481 0 Cvar::InternalSetValue
FUNC 82350 101 0 Cvar::SetValue
FUNC 82460 101 0 Cvar::SetValueForce
FUNC 82570 101 0 Cvar::SetValueCProxy
FUNC 82680 69e 0 Cvar::Register
FUNC 82d20 31a 0 Cvar::PopulateInfoMap
FUNC 83040 2 0 __tcf_6
FUNC 83050 67 0 __tcf_0
FUNC 830c0 a 0 __tcf_1
FUNC 830d0 a2 0 std::__cxx11::basic_string<char, std::char_traits<char>, std::allocator<char> >::_M_construct<char const*>
FUNC 83180 64 0 __tcf_11
FUNC 831f0 57 0 __tcf_9
FUNC 83250 57 0 __tcf_2
FUNC 832b0 57 0 __tcf_10
FUNC 83310 57 0 __tcf_7
FUNC 83370 6b 0 __tcf_8
FUNC 833e0 57 0 __tcf_3
FUNC 83440 57 0 __tcf_4
FUNC 834a0 57 0 __tcf_5
FUNC 83500 10 0 Log::RegisterTarget
FUNC 83510 7 0 Log::Target::Target
FUNC 83520 e 0 Log::Target::Register
FUNC 83530 489 0 Log::OpenLogFile
FUNC 839c0 2f9 0 Log::Dispatch
FUNC 83cc0 2 0 __tcf_2
FUNC 83cd0 22 0 __tcf_1
FUNC 83d00 a 0 __tcf_0
FUNC 83d10 a2 0 std::__cxx11::basic_string<char, std::char_traits<char>, std::allocator<char> >::_M_construct<char const*>
FUNC 83dc0 34c 0 Sys::GetSingletonSocketPath
FUNC 84110 35 0 Sys::Quit
FUNC 84150 92 0 Sys::Error
FUNC 841f0 104d 0 Sys::Error<char const*>
FUNC 85240 1076 0 Sys::Error<char const*, char const*>
FUNC 862c0 280 0 Sys::ReadSingletonSocketCommands
FUNC 86540 115 0 Sys::ReadSingletonSocket
FUNC 86660 f1 0 Sys::EarlyCvar
FUNC 86760 1937 0 Sys::Init
FUNC 880a0 2e8 0 SDL_main
FUNC 88390 b 0 std::thread::_State_impl<std::thread::_Invoker<std::tuple<VM::CreateInProcessNativeVM(std::pair<IPC::Socket, IPC::Socket>, Str::StringRef, VM::VMBase::InProcessInfo&)::<lambda()> > > >::~_State_impl
FUNC 883a0 1e 0 std::thread::_State_impl<std::thread::_Invoker<std::tuple<VM::CreateInProcessNativeVM(std::pair<IPC::Socket, IPC::Socket>, Str::StringRef, VM::VMBase::InProcessInfo&)::<lambda()> > > >::~_State_impl
FUNC 883c0 a 0 __tcf_0
FUNC 883d0 a2 0 std::__cxx11::basic_string<char, std::char_traits<char>, std::allocator<char> >::_M_construct<char const*>
FUNC 88480 82 0 std::thread::_State_impl<std::thread::_Invoker<std::tuple<VM::CreateInProcessNativeVM(std::pair<IPC::Socket, IPC::Socket>, Str::StringRef, VM::VMBase::InProcessInfo&)::<lambda()> > > >::_M_run
FUNC 88510 21e 0 VM::VMBase::FreeInProcessVM
FUNC 88730 2fa 0 VM::VMBase::Free
FUNC 88a30 a7b 0 VM::InternalLoadModule
FUNC 894b0 1b03 0 VM::CreateNaClVM
FUNC 8afc0 4f4 0 VM::CreateNativeVM
FUNC 8b4c0 571 0 VM::CreateInProcessNativeVM
FUNC 8ba40 f82 0 VM::VMBase::Create
FUNC 8c9d0 21c 0 VM::VMBase::LogMessage
FUNC 8cbf0 a 0 __tcf_0
FUNC 8cc00 111 0 Crypto::RandomData
FUNC 8cd20 14d 0 Crypto::Hash::Sha256
FUNC 8ce70 130 0 Crypto::Hash::Md5
FUNC 8cfa0 1d5 0 Crypto::Encoding::HexDecode
FUNC 8d180 148 0 Crypto::Encoding::HexEncode
FUNC 8d2d0 173 0 Crypto::Encoding::Base64Encode
FUNC 8d450 199 0 Crypto::Encoding::Base64Decode
FUNC 8d5f0 105 0 Crypto::Aes256Decrypt
FUNC 8d700 6f 0 Crypto::AddPadding
FUNC 8d770 165 0 Crypto::Aes256Encrypt
FUNC 8d8e0 a 0 __tcf_1
FUNC 8d8f0 16d 0 Rcon::Message::Message
FUNC 8da60 90 0 Rcon::Message::Message
FUNC 8daf0 e6 0 Rcon::Message::Valid
FUNC 8dbe0 22 0 __tcf_0
FUNC 8dc10 a 0 __tcf_1
FUNC 8dc20 7a 0 std::__cxx11::basic_string<char, std::char_traits<char>, std::allocator<char> >::_M_construct<char const*>
FUNC 8dca0 63 0 std::__cxx11::basic_string<unsigned char, std::char_traits<unsigned char>, std::allocator<unsigned char> >::_M_create
FUNC 8dd10 3a 0 Net::GetPort
FUNC 8dd50 6b7 0 Net::AddressToString
FUNC 8e410 5fc 0 Net::OutOfBandData
FUNC 8ea10 6c9 0 MD5Transform
FUNC 8f0e0 143 0 MD5Final
FUNC 8f230 a 0 __tcf_0
FUNC 8f240 10f 0 MD5Update
FUNC 8f350 a5 0 Com_MD5Buffer
FUNC 8f400 65 0 Com_BlockChecksum
FUNC 8f470 a 0 __tcf_0
FUNC 8f480 a2 0 std::__cxx11::basic_string<char, std::char_traits<char>, std::allocator<char> >::_M_construct<char const*>
FUNC 8f530 57 0 __tcf_1
FUNC 8f590 6b 0 __tcf_2
FUNC 8f600 1e2 0 Color::To4bit
FUNC 8f7f0 a 0 __tcf_0
FUNC 8f810 2 0 CON_Init_TTY
FUNC 8f820 3 0 CON_Input_TTY
FUNC 8f830 1f 0 CON_Print_TTY
FUNC 8f850 2f 0 __tcf_1
FUNC 8f880 a 0 __tcf_0
FUNC 8f890 4f 0 CON_SetColor
FUNC 8f8e0 a2 0 std::__cxx11::basic_string<char, std::char_traits<char>, std::allocator<char> >::_M_construct<char const*>
FUNC 8f990 47c 0 CON_ColorPrint
FUNC 8fe10 70 0 CON_UpdateClock
FUNC 8fe80 456 0 CON_Redraw
FUNC 902e0 35 0 CON_Shutdown
FUNC 90320 ee 0 CON_Init
FUNC 90410 1b4 0 CON_Print
FUNC 905d0 1bef 0 CON_Input
FUNC 921c0 a 0 __tcf_0
FUNC 921d0 15 0 Color::detail::Indexed
FUNC 921f0 6d7 0 Color::detail::ToString
FUNC 928d0 381 0 Color::TokenIterator::NextToken
FUNC 92c60 11c 0 Color::StrlenNocolor
FUNC 92d80 131 0 Color::StripColors
FUNC 92ec0 29a 0 Color::StripColors
FUNC 93160 298 0 Color::StripColors
FUNC 93400 a 0 __tcf_0
FUNC 93410 6c 0 std::__cxx11::basic_string<char32_t, std::char_traits<char32_t>, std::allocator<char32_t> >::_M_create
FUNC 93480 32 0 Util::LineEditData::LineEditData
FUNC 934c0 3 0 Util::LineEditData::GetText
FUNC 934e0 9 0 Util::LineEditData::GetViewText
FUNC 934f0 4 0 Util::LineEditData::GetViewStartPos
FUNC 93500 4 0 Util::LineEditData::GetCursorPos
FUNC 93510 7 0 Util::LineEditData::GetViewCursorPos
FUNC 93520 187 0 Util::LineEditData::SetText
FUNC 936b0 f 0 Util::LineEditData::CursorStart
FUNC 936c0 42 0 Util::LineEditData::SwapWithNext
FUNC 93710 1e 0 Util::LineEditData::Clear
FUNC 93730 4 0 Util::LineEditData::GetWidth
FUNC 93740 41 0 Util::LineEditData::UpdateScroll
FUNC 93790 f 0 Util::LineEditData::SetCursor
FUNC 937a0 1a 0 Util::LineEditData::CursorRight
FUNC 937c0 b 0 Util::LineEditData::CursorEnd
FUNC 937d0 20 0 Util::LineEditData::CursorLeft
FUNC 937f0 19 0 Util::LineEditData::SetWidth
FUNC 93810 191 0 Util::LineEditData::AddChar
FUNC 939b0 85 0 Util::LineEditData::DeletePrev
FUNC 93a40 6f 0 Util::LineEditData::DeleteNext
FUNC 93ab0 a 0 __tcf_0
FUNC 93ac0 a2 0 std::__cxx11::basic_string<char, std::char_traits<char>, std::allocator<char> >::_M_construct<char const*>
FUNC 93b70 6c 0 std::__cxx11::basic_string<char32_t, std::char_traits<char32_t>, std::allocator<char32_t> >::_M_create
FUNC 93be0 52d 0 std::__unguarded_linear_insert<__gnu_cxx::__normal_iterator<std::pair<std::__cxx11::basic_string<char>, std::__cxx11::basic_string<char> >*, std::vector<std::pair<std::__cxx11::basic_string<char>, std::__cxx11::basic_string<char> > > >, __gnu_cxx::__ops::_Val_less_iter>
FUNC 94110 b3 0 Console::Field::Field
FUNC 941d0 126 0 Console::Field::HistoryPrev
FUNC 94300 126 0 Console::Field::HistoryNext
FUNC 94430 430 0 Console::Field::RunCommand
FUNC 94860 c9f 0 std::__introsort_loop<__gnu_cxx::__normal_iterator<std::pair<std::__cxx11::basic_string<char>, std::__cxx11::basic_string<char> >*, std::vector<std::pair<std::__cxx11::basic_string<char>, std::__cxx11::basic_string<char> > > >, int, __gnu_cxx::__ops::_Iter_less_iter>
FUNC 95500 31ce 0 Console::Field::AutoComplete
FUNC 986d0 61 0 __tcf_1
FUNC 98740 41 0 __tcf_2
FUNC 98790 a 0 __tcf_0
FUNC 987a0 a2 0 std::__cxx11::basic_string<char, std::char_traits<char>, std::allocator<char> >::_M_construct<char const*>
FUNC 98850 18 0 Console::History::History
FUNC 98870 2b 0 Console::History::GetFilename
FUNC 988a0 1d3 0 Console::History::PrevLine
FUNC 98a80 167 0 Console::History::NextLine
FUNC 98bf0 318 0 Console::History::Save
FUNC 98f10 537 0 Console::History::Load
FUNC 99450 211 0 Console::History::Add
FUNC 99670 259 0 accumulate_locstring
FUNC 998d0 1ab 0 FL_FindLocale
FUNC 99a80 53 0 FL_FreeLocale
FUNC 99ae0 a2 0 std::__cxx11::basic_string<char, std::char_traits<char>, std::allocator<char> >::_M_construct<char*>
FUNC 99b90 31 0 tinygettext::Dictionary::get_charset
FUNC 99bd0 12 0 tinygettext::Dictionary::set_plural_forms
FUNC 99bf0 7 0 tinygettext::Dictionary::get_plural_forms
FUNC 99c00 100 0 tinygettext::Dictionary::Dictionary
FUNC 99d00 3e 0 tinygettext::Dictionary::~Dictionary
FUNC 99d40 57e 0 tinygettext::Dictionary::translate_plural
FUNC 9a2c0 3a 0 tinygettext::Dictionary::translate_plural
FUNC 9a300 242 0 tinygettext::Dictionary::translate
FUNC 9a550 2a 0 tinygettext::Dictionary::translate
FUNC 9a580 252 0 tinygettext::Dictionary::translate_ctxt
FUNC 9a7e0 277 0 tinygettext::Dictionary::translate_ctxt_plural
FUNC 9aa60 243 0 std::_Rb_tree<std::__cxx11::basic_string<char, std::char_traits<char>, std::allocator<char> >, std::pair<const std::__cxx11::basic_string<char, std::char_traits<char>, std::allocator<char> >, std::vector<std::__cxx11::basic_string<char, std::char_traits<char>, std::allocator<char> >, std::allocator<std::__cxx11::basic_string<char, std::char_traits<char>, std::allocator<char> > > > >, std::_Select1st<std::pair<const std::__cxx11::basic_string<char, std::char_traits<char>, std::allocator<char> >, std::vector<std::__cxx11::basic_string<char, std::char_traits<char>, std::allocator<char> >, std::allocator<std::__cxx11::basic_string<char, std::char_traits<char>, std::allocator<char> > > > > >, std::less<std::__cxx11::basic_string<char, std::char_traits<char>, std::allocator<char> > >, std::allocator<std::pair<const std::__cxx11::basic_string<char, std::char_traits<char>, std::allocator<char> >, std::vector<std::__cxx11::basic_string<char, std::char_traits<char>, std::allocator<char> >, std::allocator<std::__cxx11::basic_string<char, std::char_traits<char>, std::allocator<char> > > > > > >::_M_emplace_hint_unique<const std::piecewise_construct_t&, std::tuple<const std::__cxx11::basic_string<char, std::char_traits<char>, std::allocator<char> >&>, std::tuple<> >
FUNC 9acb0 1f8 0 tinygettext::Dictionary::add_translation
FUNC 9aeb0 49e 0 tinygettext::Dictionary::add_translation
FUNC 9b350 204 0 std::_Rb_tree<std::__cxx11::basic_string<char, std::char_traits<char>, std::allocator<char> >, std::pair<const std::__cxx11::basic_string<char, std::char_traits<char>, std::allocator<char> >, std::map<std::__cxx11::basic_string<char, std::char_traits<char>, std::allocator<char> >, std::vector<std::__cxx11::basic_string<char, std::char_traits<char>, std::allocator<char> >, std::allocator<std::__cxx11::basic_string<char, std::char_traits<char>, std::allocator<char> > > >, std::less<std::__cxx11::basic_string<char, std::char_traits<char>, std::allocator<char> > >, std::allocator<std::pair<const std::__cxx11::basic_string<char, std::char_traits<char>, std::allocator<char> >, std::vector<std::__cxx11::basic_string<char, std::char_traits<char>, std::allocator<char> >, std::allocator<std::__cxx11::basic_string<char, std::char_traits<char>, std::allocator<char> > > > > > > >, std::_Select1st<std::pair<const std::__cxx11::basic_string<char, std::char_traits<char>, std::allocator<char> >, std::map<std::__cxx11::basic_string<char, std::char_traits<char>, std::allocator<char> >, std::vector<std::__cxx11::basic_string<char, std::char_traits<char>, std::allocator<char> >, std::allocator<std::__cxx11::basic_string<char, std::char_traits<char>, std::allocator<char> > > >, std::less<std::__cxx11::basic_string<char, std::char_traits<char>, std::allocator<char> > >, std::allocator<std::pair<const std::__cxx11::basic_string<char, std::char_traits<char>, std::allocator<char> >, std::vector<std::__cxx11::basic_string<char, std::char_traits<char>, std::allocator<char> >, std::allocator<std::__cxx11::basic_string<char, std::char_traits<char>, std::allocator<char> > > > > > > > >, std::less<std::__cxx11::basic_string<char, std::char_traits<char>, std::allocator<char> > >, std::allocator<std::pair<const std::__cxx11::basic_string<char, std::char_traits<char>, std::allocator<char> >, std::map<std::__cxx11::basic_string<char, std::char_traits<char>, std::allocator<char> >, std::vector<std::__cxx11::basic_string<char, std::char_traits<char>, std::allocator<char> >, std::allocator<std::__cxx11::basic_string<char, std::char_traits<char>, std::allocator<char> > > >, std::less<std::__cxx11::basic_string<char, std::char_traits<char>, std::allocator<char> > >, std::allocator<std::pair<const std::__cxx11::basic_string<char, std::char_traits<char>, std::allocator<char> >, std::vector<std::__cxx11::basic_string<char, std::char_traits<char>, std::allocator<char> >, std::allocator<std::__cxx11::basic_string<char, std::char_traits<char>, std::allocator<char> > > > > > > > > >::_M_emplace_hint_unique<const std::piecewise_construct_t&, std::tuple<const std::__cxx11::basic_string<char, std::char_traits<char>, std::allocator<char> >&>, std::tuple<> >
FUNC 9b560 592 0 tinygettext::Dictionary::add_translation
FUNC 9bb00 5de 0 tinygettext::Dictionary::add_translation
FUNC 9c0e0 a2 0 std::__cxx11::basic_string<char, std::char_traits<char>, std::allocator<char> >::_M_construct<char*>
FUNC 9c190 31 0 tinygettext::DictionaryManager::set_language
FUNC 9c1d0 4 0 tinygettext::DictionaryManager::get_language
FUNC 9c1e0 5 0 tinygettext::DictionaryManager::get_use_fuzzy
FUNC 9c1f0 2c 0 tinygettext::DictionaryManager::set_filesystem
FUNC 9c220 c2 0 tinygettext::DictionaryManager::~DictionaryManager
FUNC 9c2f0 6a 0 tinygettext::DictionaryManager::clear_cache
FUNC 9c360 21 0 tinygettext::DictionaryManager::set_charset
FUNC 9c390 1d 0 tinygettext::DictionaryManager::set_use_fuzzy
FUNC 9c3b0 192 0 tinygettext::DictionaryManager::DictionaryManager
FUNC 9c550 37e 0 tinygettext::DictionaryManager::get_languages
FUNC 9c8d0 6c 0 tinygettext::DictionaryManager::add_directory
FUNC 9c940 c2e 0 tinygettext::DictionaryManager::get_dictionary
FUNC 9d570 36 0 tinygettext::DictionaryManager::get_dictionary
FUNC 9d5b0 a2 0 std::__cxx11::basic_string<char, std::char_traits<char>, std::allocator<char> >::_M_construct<char const*>
FUNC 9d660 9 0 tinygettext::Language::Language
FUNC 9d670 7 0 tinygettext::Language::Language
FUNC 9d680 73 0 tinygettext::Language::get_language
FUNC 9d700 67 0 tinygettext::Language::get_country
FUNC 9d770 67 0 tinygettext::Language::get_modifier
FUNC 9d7e0 529 0 tinygettext::Language::match
FUNC 9dd10 73 0 tinygettext::Language::get_name
FUNC 9dd90 251 0 tinygettext::Language::str
FUNC 9dff0 e 0 tinygettext::Language::operator==
FUNC 9e000 e 0 tinygettext::Language::operator!=
FUNC 9e010 1c 0 __tcf_0
FUNC 9e030 1c 0 __tcf_1
FUNC 9e050 28c7 0 tinygettext::resolve_language_alias
FUNC a0920 592 0 tinygettext::Language::from_spec
FUNC a0ec0 75c 0 tinygettext::Language::from_env
FUNC a1620 c4 0 tinygettext::Language::from_name
FUNC a16f0 42 0 tinygettext::Log::default_log_callback
FUNC a1740 a 0 __tcf_0
FUNC a1750 a2 0 std::__cxx11::basic_string<char, std::char_traits<char>, std::allocator<char> >::_M_construct<char*>
FUNC a1800 a 0 tinygettext::Log::set_log_info_callback
FUNC a1810 a 0 tinygettext::Log::set_log_warning_callback
FUNC a1820 a 0 tinygettext::Log::set_log_error_callback
FUNC a1830 1ed 0 tinygettext::Log::Log
FUNC a1a20 2f0 0 tinygettext::Log::~Log
FUNC a1d10 4 0 tinygettext::Log::get
FUNC a1d20 a 0 __tcf_0
FUNC a1d30 a2 0 std::__cxx11::basic_string<char, std::char_traits<char>, std::allocator<char> >::_M_construct<char*>
FUNC a1de0 11b 0 tinygettext::POParser::POParser
FUNC a1f00 36 0 tinygettext::POParser::~POParser
FUNC a1f40 24f 0 tinygettext::POParser::warning
FUNC a2190 83 0 tinygettext::POParser::next_line
FUNC a2220 7a5 0 tinygettext::POParser::parse_header
FUNC a29d0 7c 0 tinygettext::POParser::is_empty_line
FUNC a2a50 200 0 tinygettext::POParser::error
FUNC a2c50 3a 0 tinygettext::POParser::prefix
FUNC a2c90 c03 0 tinygettext::POParser::get_string_line
FUNC a38a0 8c1 0 tinygettext::POParser::get_string
FUNC a4170 e9d 0 tinygettext::POParser::parse
FUNC a5010 c9 0 tinygettext::POParser::parse
FUNC a50e0 a2 0 std::__cxx11::basic_string<char, std::char_traits<char>, std::allocator<char> >::_M_construct<char*>
FUNC a5190 29 0 tinygettext::IConv::IConv
FUNC a51c0 6b 0 tinygettext::IConv::~IConv
FUNC a5230 43b 0 tinygettext::IConv::convert
FUNC a5670 d04 0 tinygettext::IConv::set_charsets
FUNC a6380 ce 0 tinygettext::IConv::IConv
FUNC a6450 3 0 tinygettext::plural1
FUNC a6460 b 0 tinygettext::plural2_1
FUNC a6470 b 0 tinygettext::plural2_2
FUNC a6480 2f 0 tinygettext::plural2_mk
FUNC a64b0 52 0 tinygettext::plural3_lv
FUNC a6510 18 0 tinygettext::plural3_ga
FUNC a6530 77 0 tinygettext::plural3_lt
FUNC a65b0 77 0 tinygettext::plural3_1
FUNC a6630 1b 0 tinygettext::plural3_sk
FUNC a6650 3f 0 tinygettext::plural3_sl
FUNC a6690 58 0 tinygettext::plural3_pl
FUNC a66f0 25 0 tinygettext::plural4_ar
FUNC a6720 1c 0 __tcf_0
FUNC a6740 293f 0 tinygettext::PluralForms::from_string
FUNC a9080 483 0 fastlz1_compress
FUNC a9510 551 0 fastlz2_compress
FUNC a9a70 25 0 fastlz_compress
FUNC a9aa0 507 0 fastlz_decompress
FUNC a9fb0 36 0 fastlz_compress_level
FUNC a9ff0 5 0 dtFreeDefault
FUNC aa000 5 0 dtAllocDefault
FUNC aa010 28 0 dtAllocSetCustom
FUNC aa040 6 0 dtAlloc
FUNC aa050 12 0 dtFree
FUNC aa070 a 0 __tcf_0
FUNC aa080 c7 0 calcSlabEndPoints
FUNC aa150 12b 0 dtNavMesh::unconnectLinks
FUNC aa280 335 0 dtNavMesh::findConnectingPolys
FUNC aa5c0 22c 0 dtNavMesh::connectExtLinks
FUNC aa7f0 92 0 dtNavMesh::dtNavMesh
FUNC aa890 2c 0 dtAllocNavMesh
FUNC aa8c0 aa 0 dtNavMesh::~dtNavMesh
FUNC aa970 25 0 dtFreeNavMesh
FUNC aa9a0 29b 0 dtNavMesh::init
FUNC aac40 3 0 dtNavMesh::getParams
FUNC aac50 15 0 dtNavMesh::findConnectingPolys
FUNC aac70 18 0 dtNavMesh::unconnectLinks
FUNC aac90 10 0 dtNavMesh::connectExtLinks
FUNC aaca0 d6 0 dtNavMesh::connectIntLinks
FUNC aad80 464 0 dtNavMesh::closestPointOnPoly
FUNC ab1f0 361 0 dtNavMesh::queryPolygonsInTile
FUNC ab560 22e 0 dtNavMesh::findNearestPolyInTile
FUNC ab790 249 0 dtNavMesh::connectExtOffMeshLinks
FUNC ab9e0 1aa 0 dtNavMesh::baseOffMeshLinks
FUNC abb90 56 0 dtNavMesh::getTileAt
FUNC abbf0 64 0 dtNavMesh::getTilesAt
FUNC abc60 88 0 dtNavMesh::getNeighbourTilesAt
FUNC abcf0 451 0 dtNavMesh::addTile
FUNC ac150 c5 0 dtNavMesh::init
FUNC ac230 79 0 dtNavMesh::getTileRefAt
FUNC ac2b0 6d 0 dtNavMesh::getTileByRef
FUNC ac320 4 0 dtNavMesh::getMaxTiles
FUNC ac340 b 0 dtNavMesh::getTile
FUNC ac350 b0 0 dtNavMesh::calcTileLoc
FUNC ac400 aa 0 dtNavMesh::getTileAndPolyByRef
FUNC ac4b0 50 0 dtNavMesh::getTileAndPolyByRefUnsafe
FUNC ac500 7e 0 dtNavMesh::isValidPolyRef
FUNC ac580 2c7 0 dtNavMesh::removeTile
FUNC ac850 33 0 dtNavMesh::getTileRef
FUNC ac8a0 1a 0 dtNavMesh::getTileStateSize
FUNC ac8c0 a5 0 dtNavMesh::storeTileState
FUNC ac970 bd 0 dtNavMesh::restoreTileState
FUNC aca30 134 0 dtNavMesh::getOffMeshConnectionPolyEndPoints
FUNC acb70 9a 0 dtNavMesh::getOffMeshConnectionByRef
FUNC acc10 9c 0 dtNavMesh::setPolyFlags
FUNC accb0 8e 0 dtNavMesh::getPolyFlags
FUNC acd40 a9 0 dtNavMesh::setPolyArea
FUNC acdf0 90 0 dtNavMesh::getPolyArea
FUNC ace80 a 0 __tcf_0
FUNC ace90 99 0 insertInterval
FUNC acf30 2d 0 dtQueryFilter::dtQueryFilter
FUNC acf60 63 0 dtAllocNavMeshQuery
FUNC acfd0 41 0 dtNavMeshQuery::dtNavMeshQuery
FUNC ad020 7e 0 dtNavMeshQuery::~dtNavMeshQuery
FUNC ad0a0 25 0 dtFreeNavMeshQuery
FUNC ad0d0 1c1 0 dtNavMeshQuery::init
FUNC ad2a0 475 0 dtNavMeshQuery::closestPointOnPoly
FUNC ad720 234 0 dtNavMeshQuery::closestPointOnPolyBoundary
FUNC ad960 215 0 dtNavMeshQuery::getPolyHeight
FUNC adb80 369 0 dtNavMeshQuery::findRandomPoint
FUNC adef0 513 0 dtNavMeshQuery::queryPolygonsInTile
FUNC ae410 1d2 0 dtNavMeshQuery::queryPolygons
FUNC ae5f0 cd 0 dtNavMeshQuery::findNearestPoly
FUNC ae6c0 9e 0 dtNavMeshQuery::queryPolygons
FUNC ae760 d8 0 dtNavMeshQuery::getPathToNode
FUNC ae840 21c 0 dtNavMeshQuery::initSlicedFindPath
FUNC aea60 167 0 dtNavMeshQuery::appendVertex
FUNC aebd0 75d 0 dtNavMeshQuery::moveAlongSurface
FUNC af330 31c 0 dtNavMeshQuery::getPortalPoints
FUNC af650 ee 0 dtNavMeshQuery::getPortalPoints
FUNC af740 7d1 0 dtNavMeshQuery::findRandomPointAroundCircle
FUNC aff20 27f 0 dtNavMeshQuery::appendPortals
FUNC b01a0 bfa 0 dtNavMeshQuery::findStraightPath
FUNC b0da0 9c 0 dtNavMeshQuery::getEdgeMidPoint
FUNC b0e40 ac 0 dtNavMeshQuery::getEdgeMidPoint
FUNC b0ef0 650 0 dtNavMeshQuery::findPath
FUNC b1540 850 0 dtNavMeshQuery::raycast
FUNC b1d90 7a3 0 dtNavMeshQuery::updateSlicedFindPath
FUNC b2540 a3 0 dtNavMeshQuery::raycast
FUNC b25f0 2a3 0 dtNavMeshQuery::finalizeSlicedFindPath
FUNC b28a0 329 0 dtNavMeshQuery::finalizeSlicedFindPathPartial
FUNC b2bd0 5b6 0 dtNavMeshQuery::findPolysAroundCircle
FUNC b3190 66d 0 dtNavMeshQuery::findPolysAroundShape
FUNC b3800 9f 0 dtNavMeshQuery::getPathFromDijkstraSearch
FUNC b38a0 628 0 dtNavMeshQuery::findLocalNeighbourhood
FUNC b3ed0 5de 0 dtNavMeshQuery::getPolyWallSegments
FUNC b44b0 7dd 0 dtNavMeshQuery::findDistanceToWall
FUNC b4c90 63 0 dtNavMeshQuery::isValidPolyRef
FUNC b4d00 75 0 dtNavMeshQuery::isInClosedList
FUNC b4d80 a 0 __tcf_0
FUNC b4d90 b0 0 dtNodePool::dtNodePool
FUNC b4e40 59 0 dtNodePool::~dtNodePool
FUNC b4ea0 2e 0 dtNodePool::clear
FUNC b4ed0 91 0 dtNodePool::findNodes
FUNC b4f70 8a 0 dtNodePool::findNode
FUNC b5000 fc 0 dtNodePool::getNode
FUNC b5100 3a 0 dtNodeQueue::dtNodeQueue
FUNC b5140 43 0 dtNodeQueue::~dtNodeQueue
FUNC b5190 6d 0 dtNodeQueue::bubbleUp
FUNC b5200 94 0 dtNodeQueue::trickleDown
FUNC b52a0 a 0 __tcf_0
FUNC b52b0 13b 0 dtMergeCorridorStartMoved
FUNC b53f0 e9 0 dtMergeCorridorEndMoved
FUNC b54e0 137 0 dtMergeCorridorStartShortcut
FUNC b5620 16 0 dtPathCorridor::dtPathCorridor
FUNC b5640 44 0 dtPathCorridor::~dtPathCorridor
FUNC b5690 44 0 dtPathCorridor::init
FUNC b56e0 50 0 dtPathCorridor::reset
FUNC b5730 181 0 dtPathCorridor::findCorners
FUNC b58c0 15f 0 dtPathCorridor::optimizePathVisibility
FUNC b5a20 101 0 dtPathCorridor::optimizePathTopology
FUNC b5b30 113 0 dtPathCorridor::moveOverOffmeshConnection
FUNC b5c50 f5 0 dtPathCorridor::movePosition
FUNC b5d50 c9 0 dtPathCorridor::moveTargetPosition
FUNC b5e20 55 0 dtPathCorridor::setCorridor
FUNC b5e80 7a 0 dtPathCorridor::fixPathStart
FUNC b5f00 f8 0 dtPathCorridor::trimInvalidPath
FUNC b6000 5f 0 dtPathCorridor::isValid
FUNC b6060 a 0 __tcf_0
FUNC b6070 b7 0 dtTileCache::dtTileCache
FUNC b6130 2c 0 dtAllocTileCache
FUNC b6160 b5 0 dtTileCache::~dtTileCache
FUNC b6220 25 0 dtFreeTileCache
FUNC b6250 57 0 dtTileCache::getTileByRef
FUNC b62b0 294 0 dtTileCache::init
FUNC b6550 8e 0 dtTileCache::getTilesAt
FUNC b65e0 56 0 dtTileCache::getTileAt
FUNC b6640 1e 0 dtTileCache::getTileRef
FUNC b6660 24 0 dtTileCache::getObstacleRef
FUNC b6690 35 0 dtTileCache::getObstacleByRef
FUNC b66d0 e1 0 dtTileCache::addTile
FUNC b67c0 180 0 dtTileCache::removeTile
FUNC b6940 ee 0 dtTileCache::addObstacle
FUNC b6a30 10a 0 dtTileCache::addBoxObstacle
FUNC b6b40 4c 0 dtTileCache::removeObstacle
FUNC b6b90 7c2 0 dtTileCache::buildNavMeshTile
FUNC b7360 92 0 dtTileCache::buildNavMeshTilesAt
FUNC b7400 98 0 dtTileCache::calcTightTileBounds
FUNC b74a0 353 0 dtTileCache::queryTiles
FUNC b7800 b5 0 dtTileCache::getObstacleBounds
FUNC b78c0 3c4 0 dtTileCache::update
FUNC b7c90 b8 0 getNeighbourReg
FUNC b7d50 c5 0 between
FUNC b7e20 286 0 getPolyMergeValue
FUNC b80b0 137 0 mergePolys
FUNC b81f0 a 0 __tcf_0
FUNC b8200 46c 0 diagonal
FUNC b8670 36d 0 triangulate
FUNC b89e0 4e 0 dtAllocTileCacheContourSet
FUNC b8a30 b9 0 dtFreeTileCacheContourSet
FUNC b8af0 6e 0 dtAllocTileCachePolyMesh
FUNC b8b60 d9 0 dtFreeTileCachePolyMesh
FUNC b8c40 b3b 0 dtBuildTileCacheRegions
FUNC b9780 d82 0 dtBuildTileCacheContours
FUNC ba510 21fe 0 dtBuildTileCachePolyMesh
FUNC bc710 3ab 0 dtMarkCylinderArea
FUNC bcac0 2e7 0 dtMarkBoxArea
FUNC bcdb0 1da 0 dtBuildTileCacheLayer
FUNC bcf90 2f 0 dtFreeTileCacheLayer
FUNC bcfc0 1b8 0 dtDecompressTileCacheLayer
FUNC bd180 1b1 0 dtTileCacheHeaderSwapEndian
FUNC bd340 76 0 projectPoly
FUNC bd3c0 4b0 0 dtClosestPtPointTriangle
FUNC bd870 150 0 dtIntersectSegmentPoly2D
FUNC bd9c0 e0 0 dtDistancePtSegSqr2D
FUNC bdaa0 ae 0 dtCalcPolyCenter
FUNC bdb50 16a 0 dtClosestHeightPointTriangle
FUNC bdcc0 ba 0 dtPointInPolygon
FUNC bdd80 dc 0 dtDistancePtPolyEdgesSqr
FUNC bde60 20d 0 dtOverlapPolyPoly2D
FUNC be070 199 0 dtRandomPointInConvexPoly
FUNC be210 cf 0 dtIntersectSegSeg2D
FUNC be2e0 26 0 compareItemX
FUNC be310 26 0 compareItemY
FUNC be340 26 0 compareItemZ
FUNC be370 a 0 __tcf_0
FUNC be380 26d 0 subdivide
FUNC be5f0 100e 0 dtCreateNavMeshData
FUNC bf600 321 0 dtNavMeshHeaderSwapEndian
FUNC bf930 286 0 dtNavMeshDataSwapEndian
FUNC f1ea0 84 0 google_breakpad::ExceptionHandler::MinidumpWriteDumpCallback
FUNC f1f30 30b 0 google_breakpad::ExceptionHandler::WriteMinidumpWithExceptionForProcess
FUNC f2240 2d3 0 google_breakpad::ExceptionHandler::~ExceptionHandler
FUNC f2520 8 0 google_breakpad::ExceptionHandler::RequestUpload
FUNC f2530 d9 0 google_breakpad::ExceptionHandler::WriteMinidumpOnHandlerThread
FUNC f2610 ad 0 google_breakpad::ExceptionHandler::WriteMinidumpWithException
FUNC f26c0 9d 0 google_breakpad::ExceptionHandler::ExceptionHandlerThreadMain
FUNC f2760 228 0 google_breakpad::ExceptionHandler::HandleException
FUNC f2990 29b 0 google_breakpad::ExceptionHandler::HandlePureVirtualCall
FUNC f2c30 25 0 google_breakpad::ExceptionHandler::WriteMinidumpWithExceptionForProcess
FUNC f2c60 1b4 0 google_breakpad::ExceptionHandler::UpdateNextID
FUNC f2e20 6e 0 google_breakpad::ExceptionHandler::WriteMinidumpForException
FUNC f2e90 60 0 google_breakpad::ExceptionHandler::WriteMinidump
FUNC f2ef0 7d 0 google_breakpad::ExceptionHandler::RegisterAppMemory
FUNC f2f70 70 0 google_breakpad::ExceptionHandler::UnregisterAppMemory
FUNC f2fe0 5d5 0 google_breakpad::ExceptionHandler::Initialize
FUNC f35c0 184 0 google_breakpad::ExceptionHandler::ExceptionHandler
FUNC f3750 184 0 google_breakpad::ExceptionHandler::ExceptionHandler
FUNC f38e0 186 0 google_breakpad::ExceptionHandler::ExceptionHandler
FUNC f3a70 187 0 google_breakpad::ExceptionHandler::ExceptionHandler
FUNC f3c00 da 0 google_breakpad::ExceptionHandler::WriteMinidump
FUNC f3ce0 2d0 0 google_breakpad::ExceptionHandler::WriteMinidumpForChild
FUNC f3fb0 87 0 google_breakpad::CrashGenerationClient::ConnectToPipe
FUNC f4040 13a 0 google_breakpad::CrashGenerationClient::CrashGenerationClient
FUNC f4180 9d 0 google_breakpad::CrashGenerationClient::CrashGenerationClient
FUNC f4220 93 0 google_breakpad::CrashGenerationClient::~CrashGenerationClient
FUNC f42c0 80 0 google_breakpad::CrashGenerationClient::ConnectToServer
FUNC f4340 bf 0 google_breakpad::CrashGenerationClient::RequestUpload
FUNC f4400 218 0 google_breakpad::CrashGenerationClient::RegisterClient
FUNC f4620 53 0 google_breakpad::CrashGenerationClient::Register
FUNC f4680 2b 0 google_breakpad::CrashGenerationClient::ConnectToPipe
FUNC f46b0 2f 0 google_breakpad::CrashGenerationClient::ValidateResponse
FUNC f46e0 9 0 google_breakpad::CrashGenerationClient::IsRegistered
FUNC f46f0 73 0 google_breakpad::CrashGenerationClient::SignalCrashEventAndWait
FUNC f4770 86 0 google_breakpad::CrashGenerationClient::RequestDump
FUNC f4800 15 0 google_breakpad::CrashGenerationClient::RequestDump
FUNC f4820 35 0 google_breakpad::CrashGenerationClient::RequestDump
FUNC f4860 35 0 google_breakpad::CrashGenerationClient::RequestDump
FUNC f48a0 f4 0 google_breakpad::CrashGenerationClient::DuplicatePipeToClientProcess
FUNC f49a0 c4 0 google_breakpad::GUIDString::GUIDToSymbolServerWString
FUNC f4a70 c4 0 google_breakpad::GUIDString::GUIDToWString
FUNC f4b40 83 0 ReadAll
FUNC f4bd0 66 0 SkipHandles
FUNC f4c40 66 0 SkipFile
FUNC f4cb0 83 0 WriteAll
FUNC f4d40 38e 0 ReceiveDatagram
FUNC f50d0 72 0 std::__cxx11::basic_string<wchar_t, std::char_traits<wchar_t>, std::allocator<wchar_t> >::_M_construct<char const*>
FUNC f5150 6c 0 GetSocketName
FUNC f51c0 a 0 NaClSetBrokerDuplicateHandleFunc
FUNC f51d0 5b 0 NaClDuplicateNaClHandle
FUNC f5230 18 0 NaClWouldBlock
FUNC f5250 63 0 NaClGetLastErrorString
FUNC f52c0 143 0 NaClBoundSocket
FUNC f5410 31e 0 NaClSocketPair
FUNC f5730 2b 0 NaClClose
FUNC f5760 357 0 NaClSendDatagram
FUNC f5ac0 3a2 0 NaClSendDatagramTo
FUNC f5e70 1d0 0 NaClReceiveDatagram
FUNC f6040 2 0 NaClSetCreateMemoryObjectFunc
FUNC f6050 79 0 NaClCreateMemoryObject
FUNC f60d0 cf 0 NaClMap
FUNC f61a0 19 0 NaClUnmap
FUNC f61c0 46 0 NaClMessageSizeIsValid
FUNC f6210 30 0 gai_strerrorA
FUNC f6240 4c 0 gai_strerrorW
FUNC f6290 5b 0 unz64local_getByte
FUNC f62f0 58 0 unz64local_getShort
FUNC f6350 94 0 unz64local_getLong
FUNC f63f0 189 0 unz64local_getLong64
FUNC f6580 7b8 0 unz64local_GetCurrentFileInfoInternal
FUNC f6d40 8a 0 unzStringFileNameCompare
FUNC f6dd0 2c 0 unzGetGlobalInfo64
FUNC f6e00 20 0 unzGetGlobalInfo
FUNC f6e20 41 0 unzGetCurrentFileInfo64
FUNC f6e70 104 0 unzGetCurrentFileInfo
FUNC f6f80 87 0 unzGoToFirstFile
FUNC f7010 a7f 0 unzOpenInternal
FUNC f7a90 42 0 unzOpen2
FUNC f7ae0 84 0 unzOpen2_64
FUNC f7b70 d 0 unzOpen
FUNC f7b80 10 0 unzOpen64
FUNC f7b90 d0 0 unzGoToNextFile
FUNC f7c60 15e 0 unzLocateFile
FUNC f7dc0 47 0 unzGetFilePos64
FUNC f7e10 2e 0 unzGetFilePos
FUNC f7e40 8a 0 unzGoToFilePos64
FUNC f7ed0 47 0 unzGoToFilePos
FUNC f7f20 2a 0 unzGetCurrentFileZStreamPos64
FUNC f7f50 3a7 0 unzReadCurrentFile
FUNC f8300 26 0 unztell
FUNC f8330 2b 0 unztell64
FUNC f8360 2b 0 unzeof
FUNC f8390 fa 0 unzGetLocalExtrafield
FUNC f8490 98 0 unzCloseCurrentFile
FUNC f8530 44 0 unzClose
FUNC f8580 63c 0 unzOpenCurrentFile3
FUNC f8bc0 33 0 unzOpenCurrentFile
FUNC f8c00 33 0 unzOpenCurrentFilePassword
FUNC f8c40 33 0 unzOpenCurrentFile2
FUNC f8c80 be 0 unzGetGlobalComment
FUNC f8d40 46 0 unzGetOffset64
FUNC f8d90 3c 0 unzGetOffset
FUNC f8dd0 87 0 unzSetOffset64
FUNC f8e60 23 0 unzSetOffset
FUNC f8e90 d 0 ferror_file_func
FUNC f8ea0 d 0 fclose_file_func
FUNC f8eb0 37 0 fseek_file_func
FUNC f8ef0 d 0 ftell_file_func
FUNC f8f00 25 0 fwrite_file_func
FUNC f8f30 25 0 fread_file_func
FUNC f8f60 53 0 fopen_file_func
FUNC f8fc0 53 0 fopen64_file_func
FUNC f9020 37 0 fseek64_file_func
FUNC f9060 14 0 ftell64_file_func
FUNC f9080 16 0 call_zopen64
FUNC f90a0 3a 0 call_zseek64
FUNC f90e0 41 0 call_ztell64
FUNC f9130 52 0 fill_zlib_filefunc64_32_def_from_filefunc32
FUNC f9190 3c 0 fill_fopen_filefunc
FUNC f91d0 3c 0 fill_fopen64_filefunc
FUNC f9230 3b2 0 waddch
FUNC f95f0 24 0 addch
FUNC f9620 4c 0 mvaddch
FUNC f9670 5c 0 mvwaddch
FUNC f96d0 3c 0 wechochar
FUNC f9710 24 0 echochar
FUNC f9740 38 0 waddrawch
FUNC f9780 47 0 addrawch
FUNC f97d0 6b 0 mvaddrawch
FUNC f9840 7c 0 mvwaddrawch
FUNC f98c0 37 0 wadd_wch
FUNC f9900 37 0 add_wch
FUNC f9940 4e 0 mvadd_wch
FUNC f9990 5b 0 mvwadd_wch
FUNC f99f0 4a 0 wecho_wchar
FUNC f9a40 1c 0 echo_wchar
FUNC f9a60 83 0 waddnstr
FUNC f9af0 44 0 waddnwstr
FUNC f9b40 1d 0 waddnstr
FUNC f9b60 26 0 addstr
FUNC f9b90 26 0 addnstr
FUNC f9bc0 26 0 waddstr
FUNC f9bf0 4a 0 mvaddstr
FUNC f9c40 4c 0 mvaddnstr
FUNC f9c90 50 0 mvwaddstr
FUNC f9ce0 5c 0 mvwaddnstr
FUNC f9d40 1d 0 waddnwstr
FUNC f9d60 26 0 addwstr
FUNC f9d90 26 0 addnwstr
FUNC f9dc0 26 0 waddwstr
FUNC f9df0 4a 0 mvaddwstr
FUNC f9e40 4c 0 mvaddnwstr
FUNC f9e90 50 0 mvwaddwstr
FUNC f9ee0 5c 0 mvwaddnwstr
FUNC f9f40 29 0 wattroff
FUNC f9f70 35 0 attroff
FUNC f9fb0 47 0 wattron
FUNC fa000 48 0 attron
FUNC fa050 25 0 wattrset
FUNC fa080 26 0 attrset
FUNC fa0b0 20 0 standend
FUNC fa0d0 20 0 standout
FUNC fa0f0 1f 0 wstandend
FUNC fa110 1f 0 wstandout
FUNC fa130 14 0 getattrs
FUNC fa150 29 0 wcolor_set
FUNC fa180 2b 0 color_set
FUNC fa1b0 40 0 wattr_get
FUNC fa1f0 42 0 attr_get
FUNC fa240 29 0 wattr_off
FUNC fa270 35 0 attr_off
FUNC fa2b0 47 0 wattr_on
FUNC fa300 48 0 attr_on
FUNC fa350 36 0 wattr_set
FUNC fa390 38 0 attr_set
FUNC fa3d0 c4 0 wchgat
FUNC fa4a0 3d 0 chgat
FUNC fa4e0 7d 0 mvchgat
FUNC fa560 7e 0 mvwchgat
FUNC fa5e0 7a 0 wclrtoeol
FUNC fa660 14 0 clrtoeol
FUNC fa680 52 0 wclrtobot
FUNC fa6e0 14 0 clrtobot
FUNC fa700 3c 0 werase
FUNC fa740 14 0 erase
FUNC fa760 16 0 wclear
FUNC fa780 26 0 clear
FUNC fa7b0 4a 0 _normalize
FUNC fa800 10b 0 init_pair
FUNC fa910 d 0 has_colors
FUNC fa920 7d 0 init_color
FUNC fa9a0 b7 0 color_content
FUNC faa60 5 0 can_change_color
FUNC faa70 36 0 pair_content
FUNC faab0 da 0 assume_default_colors
FUNC fab90 2d 0 use_default_colors
FUNC fabc0 28 0 PDC_set_line_color
FUNC fabf0 7d 0 PDC_init_atrtab
FUNC fac70 76 0 start_color
FUNC facf0 452 0 wgetch
FUNC fb150 39 0 mvgetch
FUNC fb190 3c 0 mvwgetch
FUNC fb1d0 29 0 PDC_ungetch
FUNC fb200 2c 0 flushinp
FUNC fb230 6 0 PDC_get_key_modifiers
FUNC fb240 f 0 PDC_save_key_modifiers
FUNC fb250 11 0 PDC_return_key_modifiers
FUNC fb270 47 0 wget_wch
FUNC fb2c0 1c 0 get_wch
FUNC fb2e0 4a 0 mvget_wch
FUNC fb330 4b 0 mvwget_wch
FUNC fb380 2a 0 unget_wch
FUNC fb3b0 12 0 getbegy
FUNC fb3d0 12 0 getbegx
FUNC fb3f0 11 0 getcury
FUNC fb410 12 0 getcurx
FUNC fb430 12 0 getpary
FUNC fb450 12 0 getparx
FUNC fb470 12 0 getmaxy
FUNC fb490 12 0 getmaxx
FUNC fb4b0 3f 0 setsyx
FUNC fb4f0 3df 0 Xinitscr
FUNC fb8d0 1b 0 initscr
FUNC fb8f0 1b 0 endwin
FUNC fb910 14 0 isendwin
FUNC fb930 29 0 newterm
FUNC fb960 12 0 set_term
FUNC fb980 78 0 delscreen
FUNC fba00 186 0 resize_term
FUNC fbb90 a 0 is_termresized
FUNC fbba0 6 0 curses_version
FUNC fbbb0 c 0 cbreak
FUNC fbbc0 18 0 nocbreak
FUNC fbbe0 c 0 echo
FUNC fbbf0 c 0 noecho
FUNC fbc00 26 0 halfdelay
FUNC fbc30 3 0 intrflush
FUNC fbc40 18 0 keypad
FUNC fbc60 f 0 meta
FUNC fbc70 c 0 nl
FUNC fbc80 c 0 nonl
FUNC fbc90 18 0 nodelay
FUNC fbcc0 1e 0 raw
FUNC fbce0 1e 0 noraw
FUNC fbd00 2 0 noqiflush
FUNC fbd20 3 0 typeahead
FUNC fbd30 3c 0 wtimeout
FUNC fbd70 3c 0 timeout
FUNC fbdd0 32 0 _save_mode
FUNC fbe10 ea 0 _restore_mode
FUNC fbf00 13 0 def_prog_mode
FUNC fbf20 10 0 def_shell_mode
FUNC fbf30 18 0 reset_prog_mode
FUNC fbf50 15 0 reset_shell_mode
FUNC fbf70 a 0 resetty
FUNC fbf80 13 0 savetty
FUNC fbfa0 4c 0 curs_set
FUNC fbff0 19 0 napms
FUNC fc010 47 0 ripoffline
FUNC fc0b0 36 0 move
FUNC fc0f0 47 0 wmove
FUNC fc140 18 0 clearok
FUNC fc160 3 0 idlok
FUNC fc170 2 0 idcok
FUNC fc180 11 0 immedok
FUNC fc1a0 37 0 leaveok
FUNC fc1e0 37 0 setscrreg
FUNC fc220 37 0 wsetscrreg
FUNC fc260 18 0 scrollok
FUNC fc280 f 0 raw_output
FUNC fc290 aa 0 newpad
FUNC fc340 17a 0 subpad
FUNC fc4c0 207 0 pnoutrefresh
FUNC fc6d0 4f 0 prefresh
FUNC fc720 7b 0 pechochar
FUNC fc7a0 87 0 pecho_wchar
FUNC fc830 1e1 0 wnoutrefresh
FUNC fca20 29e 0 doupdate
FUNC fccc0 6e 0 wrefresh
FUNC fcd30 14 0 refresh
FUNC fcd50 5d 0 wredrawln
FUNC fcdb0 49 0 redrawwin
FUNC fce00 178 0 wscrl
FUNC fcf80 1c 0 scrl
FUNC fcfa0 1b 0 scroll
FUNC fcfc0 e5 0 _drawone
FUNC fd0b0 13b 0 _redraw
FUNC fd1f0 29 0 slk_refresh
FUNC fd220 17 0 slk_noutrefresh
FUNC fd240 87 0 slk_label
FUNC fd2d0 2e 0 slk_clear
FUNC fd300 23 0 slk_restore
FUNC fd330 17 0 slk_touch
FUNC fd350 32 0 slk_attron
FUNC fd390 32 0 slk_attr_on
FUNC fd3d0 32 0 slk_attroff
FUNC fd410 32 0 slk_attr_off
FUNC fd450 32 0 slk_attrset
FUNC fd490 33 0 slk_color
FUNC fd4d0 39 0 slk_attr_set
FUNC fd510 2dc 0 PDC_slk_initialize
FUNC fd7f0 16f 0 slk_init
FUNC fd960 82 0 PDC_slk_free
FUNC fd9f0 85 0 PDC_mouse_in_slk
FUNC fda80 184 0 slk_wset
FUNC fdc10 3d 0 slk_set
FUNC fdc50 64 0 slk_wlabel
FUNC fdcc0 3b 0 touchwin
FUNC fdd00 5d 0 touchline
FUNC fdd60 36 0 untouchwin
FUNC fdda0 80 0 wtouchln
FUNC fde20 26 0 is_linetouched
FUNC fde50 37 0 is_wintouched
FUNC fde90 45 0 unctrl
FUNC fdee0 2 0 filter
FUNC fdef0 2 0 use_env
FUNC fdf00 5 0 delay_output
FUNC fdf10 69 0 getcchar
FUNC fdf80 39 0 setcchar
FUNC fdfc0 56 0 wunctrl
FUNC fe020 9b 0 PDC_mbtowc
FUNC fe0c0 b4 0 PDC_mbstowcs
FUNC fe180 dc 0 PDC_wcstombs
FUNC fe260 fc 0 PDC_makenew
FUNC fe360 ae 0 PDC_makelines
FUNC fe410 3a 0 PDC_sync
FUNC fe450 8b 0 newwin
FUNC fe4e0 82 0 delwin
FUNC fe570 57 0 mvwin
FUNC fe5d0 14a 0 subwin
FUNC fe720 1b 0 derwin
FUNC fe740 8a 0 mvderwin
FUNC fe7d0 189 0 dupwin
FUNC fe960 29d 0 resize_window
FUNC fec00 2d 0 wresize
FUNC fec30 24 0 wsyncup
FUNC fec60 18 0 syncok
FUNC fec80 3e 0 wcursyncup
FUNC fecc0 38 0 wsyncdown
FUNC fed00 57 0 PDC_current_cursor_state
FUNC fed60 18d 0 redraw_cursor
FUNC feef0 b9 0 PDC_get_logical_font
FUNC fefb0 2e 0 PDC_get_font_handle
FUNC fefe0 ce 0 PDC_choose_a_new_font
FUNC ff0b0 be9 0 PDC_transform_line_given_hdc
FUNC ffca0 92 0 PDC_transform_line
FUNC ffd40 ba 0 PDC_gotoyx
FUNC ffe00 9 0 PDC_get_cursor_mode
FUNC ffe10 6 0 PDC_get_rows
FUNC ffe20 6 0 PDC_get_columns
FUNC ffe30 3 0 PDC_get_input_fd
FUNC ffe40 2 0 PDC_set_keyboard_binary
FUNC ffe50 ec 0 PDC_add_clipboard_to_key_queue
FUNC fff40 30 0 PDC_check_key
FUNC fff70 d0 0 PDC_get_key
FUNC 100040 48 0 PDC_flushinp
FUNC 1000a0 3 0 PDC_modifiers_set
FUNC 1000b0 7d 0 rectangle_from_chars_to_pixels
FUNC 100130 109 0 fix_up_edges
FUNC 100240 5b 0 set_menu
FUNC 1002a0 5b 0 adjust_window_size
FUNC 100300 95 0 get_character_sizes
FUNC 1003a0 77 0 debug_printf
FUNC 100420 d0 0 final_cleanup
FUNC 1004f0 6b9 0 set_up_window
FUNC 100bb0 16 0 PDC_scr_close
FUNC 100bd0 58 0 PDC_scr_free
FUNC 100c30 120 0 PDC_find_ends_of_selected_text
FUNC 100d50 46 0 PDC_set_resize_limits
FUNC 100da0 b7 0 PDC_set_function_key
FUNC 100e60 285 0 PDC_scr_open
FUNC 1010f0 130 0 PDC_resize_screen
FUNC 101220 19c 0 adjust_font_size
FUNC 1013c0 b3 0 add_key_to_queue
FUNC 101480 297 0 set_mouse
FUNC 101720 1cb0 0 WndProc
FUNC 1033d0 2 0 PDC_reset_prog_mode
FUNC 1033f0 2 0 PDC_restore_screen_mode
FUNC 103410 f4 0 PDC_init_pair
FUNC 103510 29 0 PDC_pair_content
FUNC 103540 6 0 PDC_can_change_color
FUNC 103550 68 0 PDC_color_content
FUNC 1035c0 249 0 PDC_init_color
FUNC 103810 2d 0 PDC_curs_set
FUNC 103840 43 0 PDC_set_title
FUNC 103890 d 0 PDC_set_blink
FUNC 1038a0 17 0 PDC_beep
FUNC 1038c0 ad 0 PDC_napms
FUNC 103970 6 0 PDC_sysname
FUNC 103980 64e 0 wborder
FUNC 103fd0 ac 0 border
FUNC 104080 85 0 box
FUNC 104110 11a 0 whline
FUNC 104230 2c 0 hline
FUNC 104260 5c 0 mvhline
FUNC 1042c0 5d 0 mvwhline
FUNC 104320 10b 0 wvline
FUNC 104430 2c 0 vline
FUNC 104460 5c 0 mvvline
FUNC 1044c0 5d 0 mvwvline
FUNC 104520 1bb 0 wborder_set
FUNC 1046e0 54 0 border_set
FUNC 104740 4b 0 box_set
FUNC 104790 37 0 whline_set
FUNC 1047d0 3b 0 hline_set
FUNC 104810 5b 0 mvhline_set
FUNC 104870 5f 0 mvwhline_set
FUNC 1048d0 37 0 wvline_set
FUNC 104910 3b 0 vline_set
FUNC 104950 5b 0 mvvline_set
FUNC 1049b0 5f 0 mvwvline_set
FUNC 104a10 de 0 PDC_debug
FUNC 104af0 8 0 traceon
FUNC 104b00 8 0 traceoff
FUNC 104b10 1ef 0 _copy_win
FUNC 104d00 f7 0 overlay
FUNC 104e00 f7 0 overwrite
FUNC 104f00 cd 0 copywin
FUNC 104fd0 5d 0 vwprintw
FUNC 105030 24 0 printw
FUNC 105060 23 0 wprintw
FUNC 105090 3d 0 mvprintw
FUNC 1050d0 42 0 mvwprintw
FUNC 105120 5 0 vw_printw
FUNC 105130 4b 0 PDC_getclipboard_handle
FUNC 105180 87 0 PDC_getclipboard
FUNC 105210 f6 0 PDC_setclipboard_raw
FUNC 105310 23 0 PDC_setclipboard
FUNC 105340 19 0 PDC_freeclipboard
FUNC 105360 f 0 PDC_clearclipboard
FUNC 105370 b1 0 mingw_onexit
FUNC 105430 1d 0 atexit
FUNC 105450 32 0 __do_global_dtors
FUNC 105490 46 0 __do_global_ctors
FUNC 1054e0 1c 0 __main
FUNC 105500 6 0 my_lconv_init
FUNC 105510 3 0 _setargv
FUNC 105520 ac 0 __security_init_cookie
FUNC 1055d0 87 0 __report_gsfailure
FUNC 105660 43 0 __dyn_tls_dtor
FUNC 1056b0 89 0 __dyn_tls_init
FUNC 105740 3 0 __tlregdtor
FUNC 105750 4b 0 __mingw_raise_matherr
FUNC 1057a0 e 0 __mingw_setusermatherr
FUNC 1057b0 5b 0 _matherr
FUNC 105810 3 0 _fpreset
FUNC 105830 5 0 _encode_pointer
FUNC 105840 147 0 mark_section_writable
FUNC 105990 280 0 _pei386_runtime_relocator
FUNC 105c10 194 0 _gnu_exception_handler
FUNC 105db0 6d 0 __mingwthr_run_key_dtors
FUNC 105e20 84 0 ___w64_mingwthr_add_key_dtor
FUNC 105eb0 8c 0 ___w64_mingwthr_remove_key_dtor
FUNC 105f40 dc 0 __mingw_TLScallback
FUNC 106020 1d 0 _ValidateImageBase
FUNC 106040 12 0 _ValidateImageBase
FUNC 106060 3d 0 _FindPESection
FUNC 1060a0 8c 0 _FindPESectionByName
FUNC 106130 65 0 __mingw_GetSectionForAddress
FUNC 1061a0 2d 0 __mingw_GetSectionCount
FUNC 1061d0 5b 0 _FindPESectionExec
FUNC 106230 28 0 _GetPEImageBase
FUNC 106260 7b 0 _IsNonwritableInCurrentImage
FUNC 1062e0 a4 0 __mingw_enum_import_library_names
FUNC 106b00 fa 0 __strtod
FUNC 106c00 a4 0 __strtof
FUNC 106cb0 1b 0 expf
FUNC 106cd0 158 0 _wassert
FUNC 106e30 c4 0 _assert
FUNC 106f00 91 0 fstat
FUNC 106fa0 1f4 0 stat
FUNC 1071a0 2a 0 fseeko
FUNC 1071d0 86 0 _flush
FUNC 107260 a6 0 fseeko64
FUNC 107310 320 0 _ftelli64
FUNC 107630 b5 0 _fseeki64
FUNC 1076f0 96 0 mingw_dosmaperr
FUNC 107790 13 0 ftello
FUNC 1077b0 3c 0 ftello64
FUNC 1077f0 4b 0 __mingw_vfprintf
FUNC 107840 76 0 __mingw_vsnprintf
FUNC 1078c0 5 0 __ms_vsnprintf
FUNC 1078d0 13 0 acosf
FUNC 1078f0 11 0 asinf
FUNC 107910 b 0 atan2f
FUNC 107920 bd 0 cos
FUNC 1079e0 1b 0 cosf
FUNC 107a30 1d7 0 exp
FUNC 107c10 bd 0 sin
FUNC 107cd0 1b 0 sinf
FUNC 107d20 1b 0 tanf
FUNC 107d40 9f 0 __increment_D2A
FUNC 107de0 3dc 0 rvOK
FUNC 1081c0 32 0 __decrement_D2A
FUNC 108200 76 0 __set_ones_D2A
FUNC 108280 1b78 0 __strtodg
FUNC 109e00 15b 0 __sum_D2A
FUNC 109f60 fb 0 __pformat_cvt
FUNC 10a060 52 0 __pformat_putc
FUNC 10a0c0 115 0 __pformat_wputchars
FUNC 10a1e0 b9 0 __pformat_putchars
FUNC 10a2a0 58 0 __pformat_puts
FUNC 10a300 98 0 __pformat_emit_inf_or_nan
FUNC 10a3a0 e7 0 __pformat_emit_radix_point
FUNC 10a490 36c 0 __pformat_emit_float
FUNC 10a800 cb 0 __pformat_float
FUNC 10a8d0 307 0 __pformat_int
FUNC 10abe0 12c 0 __pformat_emit_efloat
FUNC 10ad10 ab 0 __pformat_efloat
FUNC 10adc0 185 0 __pformat_gfloat
FUNC 10af50 363 0 __pformat_xint
FUNC 10b2c0 5d9 0 __pformat_xldouble
FUNC 10b8a0 8fd 0 __mingw_pformat
FUNC 10c1a0 32 0 __rv_alloc_D2A
FUNC 10c1e0 74 0 __nrv_alloc_D2A
FUNC 10c260 20 0 __freedtoa
FUNC 10c280 20d 0 __quorem_D2A
FUNC 10c490 157d 0 __gdtoa
FUNC 10da10 a07 0 __gethex_D2A
FUNC 10e420 10d 0 __rshift_D2A
FUNC 10e530 44 0 __trailz_D2A
FUNC 10e580 69 0 __mingw_hexdig_init_D2A
FUNC 10e5f0 392 0 __hexnan_D2A
FUNC 10e990 c6 0 dtoa_lock
FUNC 10ea60 39 0 dtoa_lock_cleanup
FUNC 10eaa0 cf 0 __Balloc_D2A
FUNC 10eb70 62 0 __Bfree_D2A
FUNC 10ebe0 e2 0 __multadd_D2A
FUNC 10ecd0 25 0 __i2b_D2A
FUNC 10ed00 168 0 __mult_D2A
FUNC 10ee70 174 0 __pow5mult_D2A
FUNC 10eff0 117 0 __lshift_D2A
FUNC 10f110 48 0 __cmp_D2A
FUNC 10f160 1d2 0 __diff_D2A
FUNC 10f340 fb 0 __b2d_D2A
FUNC 10f440 f8 0 __d2b_D2A
FUNC 10f540 26 0 __strcp_D2A
FUNC 10f570 da 0 __s2b_D2A
FUNC 10f650 b3 0 __ratio_D2A
FUNC 10f710 47 0 __match_D2A
FUNC 10f760 57 0 __copybits_D2A
FUNC 10f7c0 84 0 __any_on_D2A
FUNC 10f850 180 0 __mbrtowc_cp
FUNC 10f9d0 5f 0 mbrtowc
FUNC 10fa30 10f 0 mbsrtowcs
FUNC 10fb40 54 0 mbrlen
FUNC 10fba0 36 0 strnlen
FUNC 10fbe0 9c 0 __wcrtomb_cp
FUNC 10fc80 41 0 wcrtomb
FUNC 10fcd0 11d 0 wcsrtombs
FUNC 10fdf0 34 0 wcsnlen
FUNC 110130 6 0 mingw_get_invalid_parameter_handler
FUNC 110140 b 0 mingw_set_invalid_parameter_handler
FUNC 110150 6 0 fake_get_output_format
FUNC 110160 b 0 fake_set_output_format
FUNC 110170 45 0 init_set_output_format
FUNC 1101c0 3b 0 init_get_output_format
FUNC 110200 6 0 _set_output_format
FUNC 110210 6 0 _get_output_format
FUNC 110220 b 0 _set_purecall_handler
FUNC 110230 50 0 _lock_file
FUNC 110280 4b 0 _unlock_file
FUNC 1102d0 8 0 msvcrt___lc_codepage_func
FUNC 1102e0 3e 0 setlocale_codepage_hack
FUNC 110320 72 0 init_codepage_func
FUNC 1103a0 6 0 ___lc_codepage_func
FUNC 1103f0 5 0 dtFreeCustom
FUNC 110400 d 0 dtAllocCustom
FUNC 110410 23 0 fprintf
FUNC 110440 2b 0 snprintf
FUNC 110470 af2 0 tinyformat::detail::formatImpl
FUNC 110f70 b76 0 tinyformat::detail::streamStateFromFormat
FUNC 111af0 98 0 tinyformat::detail::FormatArg::formatImpl<char [1024]>
FUNC 111b90 98 0 tinyformat::detail::FormatArg::formatImpl<char [128]>
FUNC 111c30 98 0 tinyformat::detail::FormatArg::formatImpl<char [14]>
FUNC 111cd0 98 0 tinyformat::detail::FormatArg::formatImpl<char [16]>
FUNC 111d70 98 0 tinyformat::detail::FormatArg::formatImpl<char [22]>
FUNC 111e10 98 0 tinyformat::detail::FormatArg::formatImpl<char [256]>
FUNC 111eb0 98 0 tinyformat::detail::FormatArg::formatImpl<char [4096]>
FUNC 111f50 98 0 tinyformat::detail::FormatArg::formatImpl<char [40]>
FUNC 111ff0 98 0 tinyformat::detail::FormatArg::formatImpl<char [48]>
FUNC 112090 98 0 tinyformat::detail::FormatArg::formatImpl<char [5]>
FUNC 112130 98 0 tinyformat::detail::FormatArg::formatImpl<char [64]>
FUNC 1121d0 98 0 tinyformat::detail::FormatArg::formatImpl<char [6]>
FUNC 112270 98 0 tinyformat::detail::FormatArg::formatImpl<char [8192]>
FUNC 112310 98 0 tinyformat::detail::FormatArg::formatImpl<char [8]>
FUNC 1123b0 98 0 tinyformat::detail::FormatArg::formatImpl<char [9]>
FUNC 112450 649 0 tinyformat::detail::FormatArg::formatImpl<VM::vmType_t>
FUNC 112aa0 25d 0 tinyformat::detail::FormatArg::formatImpl<IPC::SyncMessage<IPC::Message<IPC::Id<0, 0>, int> >::<unnamed enum> >
FUNC 112d00 25d 0 tinyformat::detail::FormatArg::formatImpl<IPC::SyncMessage<IPC::Message<IPC::Id<0, 14>, int, IPC::SharedMemory, unsigned int, int> >::<unnamed enum> >
FUNC 112f60 25d 0 tinyformat::detail::FormatArg::formatImpl<IPC::SyncMessage<IPC::Message<IPC::Id<0, 1>, int, int, bool, bool> >::<unnamed enum> >
FUNC 1131c0 25d 0 tinyformat::detail::FormatArg::formatImpl<IPC::SyncMessage<IPC::Message<IPC::Id<0, 2>, bool> >::<unnamed enum> >
FUNC 113420 25d 0 tinyformat::detail::FormatArg::formatImpl<IPC::SyncMessage<IPC::Message<IPC::Id<0, 3>, int, bool, int>, IPC::Reply<bool, std::__cxx11::basic_string<char, std::char_traits<char>, std::allocator<char> > > >::<unnamed enum> >
FUNC 113680 25d 0 tinyformat::detail::FormatArg::formatImpl<IPC::SyncMessage<IPC::Message<IPC::Id<0, 4>, int> >::<unnamed enum> >
FUNC 1138e0 25d 0 tinyformat::detail::FormatArg::formatImpl<IPC::SyncMessage<IPC::Message<IPC::Id<0, 5>, int> >::<unnamed enum> >
FUNC 113b40 25d 0 tinyformat::detail::FormatArg::formatImpl<IPC::SyncMessage<IPC::Message<IPC::Id<0, 6>, int> >::<unnamed enum> >
FUNC 113da0 25d 0 tinyformat::detail::FormatArg::formatImpl<IPC::SyncMessage<IPC::Message<IPC::Id<0, 7>, int, std::__cxx11::basic_string<char, std::char_traits<char>, std::allocator<char> > > >::<unnamed enum> >
FUNC 114000 25d 0 tinyformat::detail::FormatArg::formatImpl<IPC::SyncMessage<IPC::Message<IPC::Id<0, 8>, int> >::<unnamed enum> >
FUNC 114260 25d 0 tinyformat::detail::FormatArg::formatImpl<IPC::SyncMessage<IPC::Message<IPC::Id<0, 9>, int> >::<unnamed enum> >
FUNC 1144c0 649 0 tinyformat::detail::FormatArg::formatImpl<IPC::SyncMessage<IPC::Message<IPC::Id<3, 0>, std::__cxx11::basic_string<char, std::char_traits<char>, std::allocator<char> > > >::<unnamed enum> >
FUNC 114b10 649 0 tinyformat::detail::FormatArg::formatImpl<IPC::SyncMessage<IPC::Message<IPC::Id<3, 1>, int, std::__cxx11::basic_string<char, std::char_traits<char>, std::allocator<char> >, std::__cxx11::basic_string<char, std::char_traits<char>, std::allocator<char> > >, IPC::Reply<std::vector<std::pair<std::__cxx11::basic_string<char, std::char_traits<char>, std::allocator<char> >, std::__cxx11::basic_string<char, std::char_traits<char>, std::allocator<char> > >, std::allocator<std::pair<std::__cxx11::basic_string<char, std::char_traits<char>, std::allocator<char> >, std::__cxx11::basic_string<char, std::char_traits<char>, std::allocator<char> > > > > > >::<unnamed enum> >
FUNC 115160 649 0 tinyformat::detail::FormatArg::formatImpl<IPC::SyncMessage<IPC::Message<IPC::Id<4, 0>, std::__cxx11::basic_string<char, std::char_traits<char>, std::allocator<char> >, std::__cxx11::basic_string<char, std::char_traits<char>, std::allocator<char> > >, IPC::Reply<bool, std::__cxx11::basic_string<char, std::char_traits<char>, std::allocator<char> > > >::<unnamed enum> >
FUNC 1157b0 6a9 0 tinyformat::detail::FormatArg::formatImpl<Str::BasicStringRef<char> >
FUNC 115e60 619 0 tinyformat::detail::FormatArg::formatImpl<std::__cxx11::basic_string<char> >
FUNC 116480 609 0 tinyformat::detail::FormatArg::formatImpl<float (*)[3]>
FUNC 116a90 20b 0 tinyformat::detail::FormatArg::formatImpl<char const*>
FUNC 116ca0 20b 0 tinyformat::detail::FormatArg::formatImpl<char*>
FUNC 116eb0 609 0 tinyformat::detail::FormatArg::formatImpl<int*>
FUNC 1174c0 609 0 tinyformat::detail::FormatArg::formatImpl<void*>
FUNC 117ad0 659 0 tinyformat::detail::FormatArg::formatImpl<float>
FUNC 118130 5f 0 tinyformat::detail::FormatArg::formatImpl<unsigned char>
FUNC 118190 649 0 tinyformat::detail::FormatArg::formatImpl<int>
FUNC 1187e0 649 0 tinyformat::detail::FormatArg::formatImpl<unsigned int>
FUNC 118e30 649 0 tinyformat::detail::FormatArg::formatImpl<long int>
FUNC 119480 649 0 tinyformat::detail::FormatArg::formatImpl<long unsigned int>
FUNC 119ad0 649 0 tinyformat::detail::FormatArg::formatImpl<short int>
FUNC 11a120 659 0 tinyformat::detail::FormatArg::formatImpl<long long unsigned int>
FUNC 11a780 ca 0 tinyformat::detail::FormatArg::toIntImpl<char [1024]>
FUNC 11a850 ca 0 tinyformat::detail::FormatArg::toIntImpl<char [128]>
FUNC 11a920 ca 0 tinyformat::detail::FormatArg::toIntImpl<char [14]>
FUNC 11a9f0 ca 0 tinyformat::detail::FormatArg::toIntImpl<char [16]>
FUNC 11aac0 ca 0 tinyformat::detail::FormatArg::toIntImpl<char [22]>
FUNC 11ab90 ca 0 tinyformat::detail::FormatArg::toIntImpl<char [256]>
FUNC 11ac60 ca 0 tinyformat::detail::FormatArg::toIntImpl<char [4096]>
FUNC 11ad30 ca 0 tinyformat::detail::FormatArg::toIntImpl<char [40]>
FUNC 11ae00 ca 0 tinyformat::detail::FormatArg::toIntImpl<char [48]>
FUNC 11aed0 ca 0 tinyformat::detail::FormatArg::toIntImpl<char [5]>
FUNC 11afa0 ca 0 tinyformat::detail::FormatArg::toIntImpl<char [64]>
FUNC 11b070 ca 0 tinyformat::detail::FormatArg::toIntImpl<char [6]>
FUNC 11b140 ca 0 tinyformat::detail::FormatArg::toIntImpl<char [8192]>
FUNC 11b210 ca 0 tinyformat::detail::FormatArg::toIntImpl<char [8]>
FUNC 11b2e0 ca 0 tinyformat::detail::FormatArg::toIntImpl<char [9]>
FUNC 11b3b0 7 0 tinyformat::detail::FormatArg::toIntImpl<VM::vmType_t>
FUNC 11b3c0 7 0 tinyformat::detail::FormatArg::toIntImpl<IPC::SyncMessage<IPC::Message<IPC::Id<0, 0>, int> >::<unnamed enum> >
FUNC 11b3d0 7 0 tinyformat::detail::FormatArg::toIntImpl<IPC::SyncMessage<IPC::Message<IPC::Id<0, 14>, int, IPC::SharedMemory, unsigned int, int> >::<unnamed enum> >
FUNC 11b3e0 7 0 tinyformat::detail::FormatArg::toIntImpl<IPC::SyncMessage<IPC::Message<IPC::Id<0, 1>, int, int, bool, bool> >::<unnamed enum> >
FUNC 11b3f0 7 0 tinyformat::detail::FormatArg::toIntImpl<IPC::SyncMessage<IPC::Message<IPC::Id<0, 2>, bool> >::<unnamed enum> >
FUNC 11b400 7 0 tinyformat::detail::FormatArg::toIntImpl<IPC::SyncMessage<IPC::Message<IPC::Id<0, 3>, int, bool, int>, IPC::Reply<bool, std::__cxx11::basic_string<char, std::char_traits<char>, std::allocator<char> > > >::<unnamed enum> >
FUNC 11b410 7 0 tinyformat::detail::FormatArg::toIntImpl<IPC::SyncMessage<IPC::Message<IPC::Id<0, 4>, int> >::<unnamed enum> >
FUNC 11b420 7 0 tinyformat::detail::FormatArg::toIntImpl<IPC::SyncMessage<IPC::Message<IPC::Id<0, 5>, int> >::<unnamed enum> >
FUNC 11b430 7 0 tinyformat::detail::FormatArg::toIntImpl<IPC::SyncMessage<IPC::Message<IPC::Id<0, 6>, int> >::<unnamed enum> >
FUNC 11b440 7 0 tinyformat::detail::FormatArg::toIntImpl<IPC::SyncMessage<IPC::Message<IPC::Id<0, 7>, int, std::__cxx11::basic_string<char, std::char_traits<char>, std::allocator<char> > > >::<unnamed enum> >
FUNC 11b450 7 0 tinyformat::detail::FormatArg::toIntImpl<IPC::SyncMessage<IPC::Message<IPC::Id<0, 8>, int> >::<unnamed enum> >
FUNC 11b460 7 0 tinyformat::detail::FormatArg::toIntImpl<IPC::SyncMessage<IPC::Message<IPC::Id<0, 9>, int> >::<unnamed enum> >
FUNC 11b470 7 0 tinyformat::detail::FormatArg::toIntImpl<IPC::SyncMessage<IPC::Message<IPC::Id<3, 0>, std::__cxx11::basic_string<char, std::char_traits<char>, std::allocator<char> > > >::<unnamed enum> >
FUNC 11b480 7 0 tinyformat::detail::FormatArg::toIntImpl<IPC::SyncMessage<IPC::Message<IPC::Id<3, 1>, int, std::__cxx11::basic_string<char, std::char_traits<char>, std::allocator<char> >, std::__cxx11::basic_string<char, std::char_traits<char>, std::allocator<char> > >, IPC::Reply<std::vector<std::pair<std::__cxx11::basic_string<char, std::char_traits<char>, std::allocator<char> >, std::__cxx11::basic_string<char, std::char_traits<char>, std::allocator<char> > >, std::allocator<std::pair<std::__cxx11::basic_string<char, std::char_traits<char>, std::allocator<char> >, std::__cxx11::basic_string<char, std::char_traits<char>, std::allocator<char> > > > > > >::<unnamed enum> >
FUNC 11b490 7 0 tinyformat::detail::FormatArg::toIntImpl<IPC::SyncMessage<IPC::Message<IPC::Id<4, 0>, std::__cxx11::basic_string<char, std::char_traits<char>, std::allocator<char> >, std::__cxx11::basic_string<char, std::char_traits<char>, std::allocator<char> > >, IPC::Reply<bool, std::__cxx11::basic_string<char, std::char_traits<char>, std::allocator<char> > > >::<unnamed enum> >
FUNC 11b4a0 ca 0 tinyformat::detail::FormatArg::toIntImpl<Str::BasicStringRef<char> >
FUNC 11b570 ca 0 tinyformat::detail::FormatArg::toIntImpl<std::__cxx11::basic_string<char> >
FUNC 11b640 ca 0 tinyformat::detail::FormatArg::toIntImpl<float (*)[3]>
FUNC 11b710 ca 0 tinyformat::detail::FormatArg::toIntImpl<char const*>
FUNC 11b7e0 ca 0 tinyformat::detail::FormatArg::toIntImpl<char*>
FUNC 11b8b0 ca 0 tinyformat::detail::FormatArg::toIntImpl<int*>
FUNC 11b980 ca 0 tinyformat::detail::FormatArg::toIntImpl<void*>
FUNC 11ba50 9 0 tinyformat::detail::FormatArg::toIntImpl<float>
FUNC 11ba60 8 0 tinyformat::detail::FormatArg::toIntImpl<unsigned char>
FUNC 11ba70 7 0 tinyformat::detail::FormatArg::toIntImpl<int>
FUNC 11ba80 7 0 tinyformat::detail::FormatArg::toIntImpl<unsigned int>
FUNC 11ba90 7 0 tinyformat::detail::FormatArg::toIntImpl<long int>
FUNC 11baa0 7 0 tinyformat::detail::FormatArg::toIntImpl<long unsigned int>
FUNC 11bab0 8 0 tinyformat::detail::FormatArg::toIntImpl<short int>
FUNC 11bac0 7 0 tinyformat::detail::FormatArg::toIntImpl<long long unsigned int>
FUNC 11bad0 1033 0 tinyformat::format<char [1024]>
FUNC 11cb10 1033 0 tinyformat::format<char [128]>
FUNC 11db50 1073 0 tinyformat::format<char [6], char const*, char const*>
FUNC 11ebd0 1093 0 tinyformat::format<char [6], char const*, char const*, char const*>
FUNC 11fc70 1033 0 tinyformat::format<Str::BasicStringRef<char> >
FUNC 120cb0 1053 0 tinyformat::format<Str::BasicStringRef<char>, std::__cxx11::basic_string<char, std::char_traits<char>, std::allocator<char> > >
FUNC 121d10 1033 0 tinyformat::format<std::__cxx11::basic_string<char, std::char_traits<char>, std::allocator<char> > >
FUNC 122d50 59e 0 tinyformat::format<std::__cxx11::basic_string<char, std::char_traits<char>, std::allocator<char> >, std::__cxx11::basic_string<char, std::char_traits<char>, std::allocator<char> > >
FUNC 1232f0 1073 0 tinyformat::format<std::__cxx11::basic_string<char, std::char_traits<char>, std::allocator<char> >, std::__cxx11::basic_string<char, std::char_traits<char>, std::allocator<char> >, std::__cxx11::basic_string<char, std::char_traits<char>, std::allocator<char> > >
FUNC 124370 1093 0 tinyformat::format<std::__cxx11::basic_string<char, std::char_traits<char>, std::allocator<char> >, std::__cxx11::basic_string<char, std::char_traits<char>, std::allocator<char> >, std::__cxx11::basic_string<char, std::char_traits<char>, std::allocator<char> >, std::__cxx11::basic_string<char, std::char_traits<char>, std::allocator<char> > >
FUNC 125410 1033 0 tinyformat::format<char const*>
FUNC 126450 1053 0 tinyformat::format<char const*, char const*>
FUNC 1274b0 1073 0 tinyformat::format<char const*, char const*, char const*>
FUNC 128530 109c 0 tinyformat::format<char const*, char const*, int, int, long long unsigned int>
FUNC 1295d0 106c 0 tinyformat::format<char*, char const*, char const*>
FUNC 12a640 104c 0 tinyformat::format<int, char [64]>
FUNC 12b690 1033 0 tinyformat::format<int>
FUNC 12c6d0 104c 0 tinyformat::format<int, int>
FUNC 12d720 2 0 Application::Application::Frame
FUNC 12d730 2b 0 Application::Application::~Application
FUNC 12d760 22 0 Application::Application::~Application
FUNC 12d790 15 0 Application::ServerApplication::Initialize
FUNC 12d7b0 3c 0 Application::ServerApplication::LoadInitialConfig
FUNC 12d7f0 5 0 Application::ServerApplication::Frame
FUNC 12d800 d0 0 Application::ServerApplication::OnDrop
FUNC 12d8d0 1cf 0 Application::ServerApplication::Shutdown
FUNC 12daa0 2b 0 Application::ServerApplication::~ServerApplication
FUNC 12dad0 22 0 Application::ServerApplication::~ServerApplication
FUNC 12db00 135 0 ListMapsCmd::ListMapsCmd
FUNC 12dc40 f 0 ListMapsCmd::~ListMapsCmd
FUNC 12dc50 2 0 ListMapsCmd::~ListMapsCmd
FUNC 12dc60 ab 0 MeshProcess::process
FUNC 12dd10 f 0 MeshProcess::~MeshProcess
FUNC 12dd20 2 0 MeshProcess::~MeshProcess
FUNC 12dd30 135 0 ListPathsCmd::ListPathsCmd
FUNC 12de70 f 0 ListPathsCmd::~ListPathsCmd
FUNC 12de80 2 0 ListPathsCmd::~ListPathsCmd
FUNC 12de90 4b 0 DaemonIstream::~DaemonIstream
FUNC 12dee0 42 0 DaemonIstream::~DaemonIstream
FUNC 12df30 64 0 DaemonInputbuf::~DaemonInputbuf
FUNC 12dfa0 5c 0 DaemonInputbuf::~DaemonInputbuf
FUNC 12e000 3 0 LinearAllocator::free
FUNC 12e010 29 0 LinearAllocator::alloc
FUNC 12e040 15 0 LinearAllocator::reset
FUNC 12e060 f 0 LinearAllocator::~LinearAllocator
FUNC 12e070 2 0 LinearAllocator::~LinearAllocator
FUNC 12e080 1cd 0 RconEnvironment::Print
FUNC 12e250 3d 0 RconEnvironment::~RconEnvironment
FUNC 12e290 35 0 RconEnvironment::~RconEnvironment
FUNC 12e2d0 1e 0 google_breakpad::scoped_ptr<google_breakpad::CrashGenerationClient>::~scoped_ptr
FUNC 12e2f0 69 0 google_breakpad::AutoExceptionHandler::~AutoExceptionHandler
FUNC 12e360 22a 0 DaemonFileSystem::open_directory
FUNC 12e590 1e2 0 DaemonFileSystem::open_file
FUNC 12e780 f 0 DaemonFileSystem::~DaemonFileSystem
FUNC 12e790 2 0 DaemonFileSystem::~DaemonFileSystem
FUNC 12e7a0 40 0 FastLZCompressor::decompress
FUNC 12e7e0 19 0 FastLZCompressor::maxCompressedSize
FUNC 12e800 30 0 FastLZCompressor::compress
FUNC 12e830 f 0 FastLZCompressor::~FastLZCompressor
FUNC 12e840 2 0 FastLZCompressor::~FastLZCompressor
FUNC 12e850 15 0 dtTileCacheAlloc::free
FUNC 12e870 1d 0 dtTileCacheAlloc::alloc
FUNC 12e890 2 0 dtTileCacheAlloc::reset
FUNC 12e8a0 49 0 dtCollectPolysQuery::process
FUNC 12e8f0 f 0 dtCollectPolysQuery::~dtCollectPolysQuery
FUNC 12e900 2 0 dtCollectPolysQuery::~dtCollectPolysQuery
FUNC 12e910 11e 0 dtFindNearestPolyQuery::process
FUNC 12ea30 f 0 dtFindNearestPolyQuery::~dtFindNearestPolyQuery
FUNC 12ea40 2 0 dtFindNearestPolyQuery::~dtFindNearestPolyQuery
FUNC 12ea50 52 0 FS::LoadedPakInfo::~LoadedPakInfo
FUNC 12eab0 1e 0 FS::minizip_category_impl::~minizip_category_impl
FUNC 12ead0 b 0 FS::minizip_category_impl::~minizip_category_impl
FUNC 12eae0 1e 0 FS::filesystem_category_impl::~filesystem_category_impl
FUNC 12eb00 b 0 FS::filesystem_category_impl::~filesystem_category_impl
FUNC 12eb10 5b 0 FS::File::~File
FUNC 12eb70 10a 0 FS::PakInfo::PakInfo
FUNC 12ec80 146 0 FS::PakInfo::PakInfo
FUNC 12edd0 40 0 FS::PakInfo::~PakInfo
FUNC 12ee10 7c 0 FS::PakInfo::operator=
FUNC 12ee90 2e 0 FS::PakPath::DirectoryRange::~DirectoryRange
FUNC 12eec0 47 0 FS::RawPath::DirectoryRange::~DirectoryRange
FUNC 12ef10 8c 0 FS::RawPath::RecursiveDirectoryRange::~RecursiveDirectoryRange
FUNC 12efa0 24f 0 FS::my_open
FUNC 12f1f0 f 0 VM::CommonVMServices::ProxyCmd::~ProxyCmd
FUNC 12f200 2 0 VM::CommonVMServices::ProxyCmd::~ProxyCmd
FUNC 12f210 12d 0 VM::CommonVMServices::ProxyCvar::OnValueChanged
FUNC 12f340 82 0 VM::CommonVMServices::ProxyCvar::~ProxyCvar
FUNC 12f3d0 7a 0 VM::CommonVMServices::ProxyCvar::~ProxyCvar
FUNC 12f450 769 0 VM::VMParams::VMParams
FUNC 12fbc0 f 0 Cmd::AliasProxy::~AliasProxy
FUNC 12fbd0 2 0 Cmd::AliasProxy::~AliasProxy
FUNC 12fbe0 135 0 Cmd::UnaliasCmd::UnaliasCmd
FUNC 12fd20 f 0 Cmd::UnaliasCmd::~UnaliasCmd
FUNC 12fd30 2 0 Cmd::UnaliasCmd::~UnaliasCmd
FUNC 12fd40 135 0 Cmd::UndelayCmd::UndelayCmd
FUNC 12fe80 f 0 Cmd::UndelayCmd::~UndelayCmd
FUNC 12fe90 2 0 Cmd::UndelayCmd::~UndelayCmd
FUNC 12fea0 1a2 0 Cmd::ListCmdsCmd::ListCmdsCmd
FUNC 130050 f 0 Cmd::ListCmdsCmd::~ListCmdsCmd
FUNC 130060 2 0 Cmd::ListCmdsCmd::~ListCmdsCmd
FUNC 130070 135 0 Cmd::UndelayAllCmd::UndelayAllCmd
FUNC 1301b0 f 0 Cmd::UndelayAllCmd::~UndelayAllCmd
FUNC 1301c0 2 0 Cmd::UndelayAllCmd::~UndelayAllCmd
FUNC 1301d0 2e 0 Cmd::delayRecord_t::~delayRecord_t
FUNC 130200 135 0 Cmd::ListAliasesCmd::ListAliasesCmd
FUNC 130340 f 0 Cmd::ListAliasesCmd::~ListAliasesCmd
FUNC 130350 2 0 Cmd::ListAliasesCmd::~ListAliasesCmd
FUNC 130360 135 0 Cmd::ClearAliasesCmd::ClearAliasesCmd
FUNC 1304a0 f 0 Cmd::ClearAliasesCmd::~ClearAliasesCmd
FUNC 1304b0 2 0 Cmd::ClearAliasesCmd::~ClearAliasesCmd
FUNC 1304c0 f 0 Cmd::DefaultEnvironment::~DefaultEnvironment
FUNC 1304d0 2 0 Cmd::DefaultEnvironment::~DefaultEnvironment
FUNC 1304e0 135 0 Cmd::IfCmd::IfCmd
FUNC 130620 f 0 Cmd::IfCmd::~IfCmd
FUNC 130630 2 0 Cmd::IfCmd::~IfCmd
FUNC 130640 135 0 Cmd::EchoCmd::EchoCmd
FUNC 130780 f 0 Cmd::EchoCmd::~EchoCmd
FUNC 130790 2 0 Cmd::EchoCmd::~EchoCmd
FUNC 1307a0 14e 0 Cmd::ExecCmd::ExecCmd
FUNC 1308f0 f 0 Cmd::ExecCmd::~ExecCmd
FUNC 130900 2 0 Cmd::ExecCmd::~ExecCmd
FUNC 130910 135 0 Cmd::MathCmd::MathCmd
FUNC 130a50 f 0 Cmd::MathCmd::~MathCmd
FUNC 130a60 2 0 Cmd::MathCmd::~MathCmd
FUNC 130a70 135 0 Cmd::VstrCmd::VstrCmd
FUNC 130bb0 f 0 Cmd::VstrCmd::~VstrCmd
FUNC 130bc0 2 0 Cmd::VstrCmd::~VstrCmd
FUNC 130bd0 135 0 Cmd::AliasCmd::AliasCmd
FUNC 130d10 f 0 Cmd::AliasCmd::~AliasCmd
FUNC 130d20 2 0 Cmd::AliasCmd::~AliasCmd
FUNC 130d30 135 0 Cmd::CycleCmd::CycleCmd
FUNC 130e70 f 0 Cmd::CycleCmd::~CycleCmd
FUNC 130e80 2 0 Cmd::CycleCmd::~CycleCmd
FUNC 130e90 135 0 Cmd::DelayCmd::DelayCmd
FUNC 130fd0 f 0 Cmd::DelayCmd::~DelayCmd
FUNC 130fe0 2 0 Cmd::DelayCmd::~DelayCmd
FUNC 130ff0 135 0 Cmd::ConcatCmd::ConcatCmd
FUNC 131130 f 0 Cmd::ConcatCmd::~ConcatCmd
FUNC 131140 2 0 Cmd::ConcatCmd::~ConcatCmd
FUNC 131150 85 0 Cmd::LambdaCmd::~LambdaCmd
FUNC 1311e0 7d 0 Cmd::LambdaCmd::~LambdaCmd
FUNC 131260 135 0 Cmd::RandomCmd::RandomCmd
FUNC 1313a0 f 0 Cmd::RandomCmd::~RandomCmd
FUNC 1313b0 2 0 Cmd::RandomCmd::~RandomCmd
FUNC 1313c0 135 0 Cmd::ToggleCmd::ToggleCmd
FUNC 131500 f 0 Cmd::ToggleCmd::~ToggleCmd
FUNC 131510 2 0 Cmd::ToggleCmd::~ToggleCmd
FUNC 131520 857 0 IPC::detail::SendMsg<VM::VMBase::SendMsg(Args&& ...) [with Msg = IPC::SyncMessage<IPC::Message<IPC::Id<0, 0>, int> >; Args = {int}]::<lambda(uint32_t, Util::Reader)>&, IPC::Message<IPC::Id<0, 0>, int>, IPC::Reply<>, int>
FUNC 131d80 94b 0 IPC::detail::SendMsg<VM::VMBase::SendMsg(Args&& ...) [with Msg = IPC::SyncMessage<IPC::Message<IPC::Id<0, 14>, int, IPC::SharedMemory, unsigned int, int> >; Args = {int&, IPC::SharedMemory&, unsigned int&, int&}]::<lambda(uint32_t, Util::Reader)>&, IPC::Message<IPC::Id<0, 14>, int, IPC::SharedMemory, unsigned int, int>, IPC::Reply<>, int&, IPC::SharedMemory&, unsigned int&, int&>
FUNC 1326d0 8d5 0 IPC::detail::SendMsg<VM::VMBase::SendMsg(Args&& ...) [with Msg = IPC::SyncMessage<IPC::Message<IPC::Id<0, 1>, int, int, bool, bool> >; Args = {int&, int&, bool, bool}]::<lambda(uint32_t, Util::Reader)>&, IPC::Message<IPC::Id<0, 1>, int, int, bool, bool>, IPC::Reply<>, int&, int&, bool, bool>
FUNC 132fb0 861 0 IPC::detail::SendMsg<VM::VMBase::SendMsg(Args&& ...) [with Msg = IPC::SyncMessage<IPC::Message<IPC::Id<0, 2>, bool> >; Args = {bool&}]::<lambda(uint32_t, Util::Reader)>&, IPC::Message<IPC::Id<0, 2>, bool>, IPC::Reply<>, bool&>
FUNC 133820 a4f 0 IPC::detail::SendMsg<VM::VMBase::SendMsg(Args&& ...) [with Msg = IPC::SyncMessage<IPC::Message<IPC::Id<0, 3>, int, bool, int>, IPC::Reply<bool, std::__cxx11::basic_string<char, std::char_traits<char>, std::allocator<char> > > >; Args = {int&, bool&, bool&, bool&, std::__cxx11::basic_string<char, std::char_traits<char>, std::allocator<char> >&}]::<lambda(uint32_t, Util::Reader)>&, IPC::Message<IPC::Id<0, 3>, int, bool, int>, IPC::Reply<bool, std::__cxx11::basic_string<char, std::char_traits<char>, std::allocator<char> > >, int&, bool&, bool&, bool&, std::__cxx11::basic_string<char, std::char_traits<char>, std::allocator<char> >&>
FUNC 134270 861 0 IPC::detail::SendMsg<VM::VMBase::SendMsg(Args&& ...) [with Msg = IPC::SyncMessage<IPC::Message<IPC::Id<0, 4>, int> >; Args = {int&}]::<lambda(uint32_t, Util::Reader)>&, IPC::Message<IPC::Id<0, 4>, int>, IPC::Reply<>, int&>
FUNC 134ae0 861 0 IPC::detail::SendMsg<VM::VMBase::SendMsg(Args&& ...) [with Msg = IPC::SyncMessage<IPC::Message<IPC::Id<0, 5>, int> >; Args = {int&}]::<lambda(uint32_t, Util::Reader)>&, IPC::Message<IPC::Id<0, 5>, int>, IPC::Reply<>, int&>
FUNC 135350 861 0 IPC::detail::SendMsg<VM::VMBase::SendMsg(Args&& ...) [with Msg = IPC::SyncMessage<IPC::Message<IPC::Id<0, 6>, int> >; Args = {int&}]::<lambda(uint32_t, Util::Reader)>&, IPC::Message<IPC::Id<0, 6>, int>, IPC::Reply<>, int&>
FUNC 135bc0 8b5 0 IPC::detail::SendMsg<VM::VMBase::SendMsg(Args&& ...) [with Msg = IPC::SyncMessage<IPC::Message<IPC::Id<0, 7>, int, std::__cxx11::basic_string<char, std::char_traits<char>, std::allocator<char> > > >; Args = {int&, char const*&}]::<lambda(uint32_t, Util::Reader)>&, IPC::Message<IPC::Id<0, 7>, int, std::__cxx11::basic_string<char, std::char_traits<char>, std::allocator<char> > >, IPC::Reply<>, int&, char const*&>
FUNC 136480 861 0 IPC::detail::SendMsg<VM::VMBase::SendMsg(Args&& ...) [with Msg = IPC::SyncMessage<IPC::Message<IPC::Id<0, 8>, int> >; Args = {int&}]::<lambda(uint32_t, Util::Reader)>&, IPC::Message<IPC::Id<0, 8>, int>, IPC::Reply<>, int&>
FUNC 136cf0 861 0 IPC::detail::SendMsg<VM::VMBase::SendMsg(Args&& ...) [with Msg = IPC::SyncMessage<IPC::Message<IPC::Id<0, 9>, int> >; Args = {int&}]::<lambda(uint32_t, Util::Reader)>&, IPC::Message<IPC::Id<0, 9>, int>, IPC::Reply<>, int&>
FUNC 137560 91a 0 IPC::detail::SendMsg<VM::VMBase::SendMsg(Args&& ...) [with Msg = IPC::SyncMessage<IPC::Message<IPC::Id<3, 0>, std::__cxx11::basic_string<char, std::char_traits<char>, std::allocator<char> > > >; Args = {std::__cxx11::basic_string<char, std::char_traits<char>, std::allocator<char> >}]::<lambda(uint32_t, Util::Reader)>&, IPC::Message<IPC::Id<3, 0>, std::__cxx11::basic_string<char, std::char_traits<char>, std::allocator<char> > >, IPC::Reply<>, std::__cxx11::basic_string<char, std::char_traits<char>, std::allocator<char> > >
FUNC 137e80 11ff 0 IPC::detail::SendMsg<VM::VMBase::SendMsg(Args&& ...) [with Msg = IPC::SyncMessage<IPC::Message<IPC::Id<3, 1>, int, std::__cxx11::basic_string<char, std::char_traits<char>, std::allocator<char> >, std::__cxx11::basic_string<char, std::char_traits<char>, std::allocator<char> > >, IPC::Reply<std::vector<std::pair<std::__cxx11::basic_string<char, std::char_traits<char>, std::allocator<char> >, std::__cxx11::basic_string<char, std::char_traits<char>, std::allocator<char> > >, std::allocator<std::pair<std::__cxx11::basic_string<char, std::char_traits<char>, std::allocator<char> >, std::__cxx11::basic_string<char, std::char_traits<char>, std::allocator<char> > > > > > >; Args = {int&, std::__cxx11::basic_string<char, std::char_traits<char>, std::allocator<char> >, Str::BasicStringRef<char>&, std::vector<std::pair<std::__cxx11::basic_string<char, std::char_traits<char>, std::allocator<char> >, std::__cxx11::basic_string<char, std::char_traits<char>, std::allocator<char> > >, std::allocator<std::pair<std::__cxx11::basic_string<char, std::char_traits<char>, std::allocator<char> >, std::__cxx11::basic_string<char, std::char_traits<char>, std::allocator<char> > > > >&}]::<lambda(uint32_t, Util::Reader)>&, IPC::Message<IPC::Id<3, 1>, int, std::__cxx11::basic_string<char, std::char_traits<char>, std::allocator<char> >, std::__cxx11::basic_string<char, std::char_traits<char>, std::allocator<char> > >, IPC::Reply<std::vector<std::pair<std::__cxx11::basic_string<char, std::char_traits<char>, std::allocator<char> >, std::__cxx11::basic_string<char, std::char_traits<char>, std::allocator<char> > >, std::allocator<std::pair<std::__cxx11::basic_string<char, std::char_traits<char>, std::allocator<char> >, std::__cxx11::basic_string<char, std::char_traits<char>, std::allocator<char> > > > > >, int&, std::__cxx11::basic_string<char, std::char_traits<char>, std::allocator<char> >, Str::BasicStringRef<char>&, std::vector<std::pair<std::__cxx11::basic_string<char, std::char_traits<char>, std::allocator<char> >, std::__cxx11::basic_string<char, std::char_traits<char>, std::allocator<char> > >, std::allocator<std::pair<std::__cxx11::basic_string<char, std::char_traits<char>, std::allocator<char> >, std::__cxx11::basic_string<char, std::char_traits<char>, std::allocator<char> > > > >&>
FUNC 139080 b48 0 IPC::detail::SendMsg<VM::VMBase::SendMsg(Args&& ...) [with Msg = IPC::SyncMessage<IPC::Message<IPC::Id<4, 0>, std::__cxx11::basic_string<char, std::char_traits<char>, std::allocator<char> >, std::__cxx11::basic_string<char, std::char_traits<char>, std::allocator<char> > >, IPC::Reply<bool, std::__cxx11::basic_string<char, std::char_traits<char>, std::allocator<char> > > >; Args = {std::__cxx11::basic_string<char, std::char_traits<char>, std::allocator<char> >&, Str::BasicStringRef<char>&, bool&, std::__cxx11::basic_string<char, std::char_traits<char>, std::allocator<char> >&}]::<lambda(uint32_t, Util::Reader)>&, IPC::Message<IPC::Id<4, 0>, std::__cxx11::basic_string<char, std::char_traits<char>, std::allocator<char> >, std::__cxx11::basic_string<char, std::char_traits<char>, std::allocator<char> > >, IPC::Reply<bool, std::__cxx11::basic_string<char, std::char_traits<char>, std::allocator<char> > >, std::__cxx11::basic_string<char, std::char_traits<char>, std::allocator<char> >&, Str::BasicStringRef<char>&, bool&, std::__cxx11::basic_string<char, std::char_traits<char>, std::allocator<char> >&>
FUNC 139bd0 110 0 IPC::Channel::RecvReplyMsg
FUNC 139ce0 1188 0 Log::LogFileTarget::Process
FUNC 13ae70 6a 0 Log::LogFileTarget::~LogFileTarget
FUNC 13aee0 62 0 Log::LogFileTarget::~LogFileTarget
FUNC 13af50 15f 0 Log::Logger::Warn<>
FUNC 13b0b0 153 0 Log::Logger::Warn<std::__cxx11::basic_string<char, std::char_traits<char>, std::allocator<char> > >
FUNC 13b210 11d2 0 Log::Logger::Warn<std::__cxx11::basic_string<char, std::char_traits<char>, std::allocator<char> >, char const*>
FUNC 13c3f0 15a 0 Log::Logger::Warn<std::__cxx11::basic_string<char, std::char_traits<char>, std::allocator<char> >, std::__cxx11::basic_string<char, std::char_traits<char>, std::allocator<char> > >
FUNC 13c550 153 0 Log::Logger::Warn<char const*>
FUNC 13c6b0 11d2 0 Log::Logger::Warn<char const*, char const*&>
FUNC 13d890 11c2 0 Log::Logger::Warn<char (&)[1024]>
FUNC 13ea60 11f2 0 Log::Logger::Warn<char (&)[1024], int&, char (&)[4096]>
FUNC 13fc60 153 0 Log::Logger::Warn<char (&)[128]>
FUNC 13fdc0 6e9 0 Log::Logger::Warn<char (&)[128], char (&)[64]>
FUNC 1404b0 153 0 Log::Logger::Warn<const std::__cxx11::basic_string<char, std::char_traits<char>, std::allocator<char> >&>
FUNC 140610 15a 0 Log::Logger::Warn<Str::BasicStringRef<char>&, const std::__cxx11::basic_string<char, std::char_traits<char>, std::allocator<char> >&>
FUNC 140770 153 0 Log::Logger::Warn<std::__cxx11::basic_string<char, std::char_traits<char>, std::allocator<char> >&>
FUNC 1408d0 272 0 Log::Logger::Warn<std::__cxx11::basic_string<char, std::char_traits<char>, std::allocator<char> >&, char const*>
FUNC 140b50 272 0 Log::Logger::Warn<std::__cxx11::basic_string<char, std::char_traits<char>, std::allocator<char> >&, const std::__cxx11::basic_string<char, std::char_traits<char>, std::allocator<char> >&>
FUNC 140dd0 15a 0 Log::Logger::Warn<std::__cxx11::basic_string<char, std::char_traits<char>, std::allocator<char> >&, std::__cxx11::basic_string<char, std::char_traits<char>, std::allocator<char> >&>
FUNC 140f30 11bc 0 Log::Logger::Warn<char*&>
FUNC 1420f0 153 0 Log::Logger::Warn<int&>
FUNC 142250 272 0 Log::Logger::Warn<int&, std::__cxx11::basic_string<char, std::char_traits<char>, std::allocator<char> > >
FUNC 1424d0 11d2 0 Log::Logger::Warn<int&, int const&>
FUNC 1436b0 153 0 Log::Logger::Warn<int>
FUNC 143810 15f 0 Log::Logger::Debug<>
FUNC 143970 153 0 Log::Logger::Debug<std::__cxx11::basic_string<char, std::char_traits<char>, std::allocator<char> > >
FUNC 143ad0 15a 0 Log::Logger::Debug<std::__cxx11::basic_string<char, std::char_traits<char>, std::allocator<char> >, const std::__cxx11::basic_string<char, std::char_traits<char>, std::allocator<char> >&>
FUNC 143c30 153 0 Log::Logger::Debug<char const*>
FUNC 143d90 153 0 Log::Logger::Debug<char (&)[1024]>
FUNC 143ef0 153 0 Log::Logger::Debug<char (&)[128]>
FUNC 144050 6e9 0 Log::Logger::Debug<char (&)[128], char const*&>
FUNC 144740 6f9 0 Log::Logger::Debug<char (&)[128], int&, char*&>
FUNC 144e40 11c7 0 Log::Logger::Debug<Str::BasicStringRef<char>&>
FUNC 146010 15a 0 Log::Logger::Debug<char const*&, char const*>
FUNC 146170 153 0 Log::Logger::Debug<int&>
FUNC 1462d0 11d7 0 Log::Logger::Debug<int&, std::__cxx11::basic_string<char, std::char_traits<char>, std::allocator<char> > >
FUNC 1474b0 6e9 0 Log::Logger::Debug<int&, char (&)[1024]>
FUNC 147ba0 6e9 0 Log::Logger::Debug<int&, char const*&>
FUNC 148290 15a 0 Log::Logger::Debug<int&, int&>
FUNC 1483f0 6e9 0 Log::Logger::Debug<int&, long int>
FUNC 148ae0 1267 0 Log::Logger::Debug<float, float&, int&, float&, int&, float&, float>
FUNC 149d50 15a 0 Log::Logger::Debug<int, char (&)[64]>
FUNC 149eb0 15a 0 Log::Logger::Debug<int, int&>
FUNC 14a010 15f 0 Log::Logger::Notice<>
FUNC 14a170 6e9 0 Log::Logger::Notice<std::__cxx11::basic_string<char, std::char_traits<char>, std::allocator<char> >, char const*>
FUNC 14a860 6f9 0 Log::Logger::Notice<std::__cxx11::basic_string<char, std::char_traits<char>, std::allocator<char> >, char const*, char const*>
FUNC 14af60 11bc 0 Log::Logger::Notice<char const*>
FUNC 14c120 11d2 0 Log::Logger::Notice<char const*, int&>
FUNC 14d300 11d2 0 Log::Logger::Notice<char const*, char const*>
FUNC 14e4e0 161 0 Log::Logger::Notice<char const*, char const*, char const*>
FUNC 14e650 1212 0 Log::Logger::Notice<char const*, char const*, char const*, char const*>
FUNC 14f870 11f2 0 Log::Logger::Notice<char (&)[1024], int&, char (&)[1024]>
FUNC 150a70 6e9 0 Log::Logger::Notice<char (&)[128], char (&)[256]>
FUNC 151160 6e9 0 Log::Logger::Notice<char (&)[128], char*&>
FUNC 151850 6e9 0 Log::Logger::Notice<char (&)[128], int&>
FUNC 151f40 11bc 0 Log::Logger::Notice<char const (&)[14]>
FUNC 153100 11bc 0 Log::Logger::Notice<char const (&)[16]>
FUNC 1542c0 11bc 0 Log::Logger::Notice<char const (&)[22]>
FUNC 155480 11bc 0 Log::Logger::Notice<char (&)[256]>
FUNC 156640 11bc 0 Log::Logger::Notice<char (&)[48]>
FUNC 157800 11bc 0 Log::Logger::Notice<char (&)[64]>
FUNC 1589c0 11f2 0 Log::Logger::Notice<char const (&)[6], char const*, char const*&>
FUNC 159bc0 11bc 0 Log::Logger::Notice<char (&)[8192]>
FUNC 15ad80 11bc 0 Log::Logger::Notice<char const (&)[8]>
FUNC 15bf40 11bc 0 Log::Logger::Notice<char const (&)[9]>
FUNC 15d100 11bc 0 Log::Logger::Notice<const std::__cxx11::basic_string<char, std::char_traits<char>, std::allocator<char> >&>
FUNC 15e2c0 11f2 0 Log::Logger::Notice<char const* const&, int&, int&>
FUNC 15f4c0 1232 0 Log::Logger::Notice<char const* const&, int&, int&, int&, int&>
FUNC 160700 1212 0 Log::Logger::Notice<char const* const&, int&, int, int&>
FUNC 161920 153 0 Log::Logger::Notice<std::__cxx11::basic_string<char, std::char_traits<char>, std::allocator<char> >&>
FUNC 161a80 11bc 0 Log::Logger::Notice<char const*&>
FUNC 162c40 11d2 0 Log::Logger::Notice<char const*&, char*>
FUNC 163e20 6e9 0 Log::Logger::Notice<char const*&, char (&)[128]>
FUNC 164510 11d2 0 Log::Logger::Notice<char const*&, float&>
FUNC 1656f0 11d2 0 Log::Logger::Notice<char const*&, int&>
FUNC 1668d0 15a 0 Log::Logger::Notice<char const*&, char const*>
FUNC 166a30 11f2 0 Log::Logger::Notice<char const*&, char const*&, char const*>
FUNC 167c30 6c9 0 Log::Logger::Notice<char*&>
FUNC 168300 6e9 0 Log::Logger::Notice<char*&, std::__cxx11::basic_string<char, std::char_traits<char>, std::allocator<char> > >
FUNC 1689f0 11bc 0 Log::Logger::Notice<unsigned char&>
FUNC 169bb0 719 0 Log::Logger::Notice<unsigned char&, unsigned char&, unsigned char&, unsigned char&>
FUNC 16a2d0 153 0 Log::Logger::Notice<int&>
FUNC 16a430 6e9 0 Log::Logger::Notice<int&, char const*&>
FUNC 16ab20 11d2 0 Log::Logger::Notice<int&, int&>
FUNC 16bd00 1232 0 Log::Logger::Notice<int&, int&, int&, int&, int&>
FUNC 16cf40 12a2 0 Log::Logger::Notice<int&, int&, int&, int&, int&, int&, int&, int&, int&>
FUNC 16e1f0 11d2 0 Log::Logger::Notice<int&, float>
FUNC 16f3d0 15a 0 Log::Logger::Notice<int&, int>
FUNC 16f530 11d2 0 Log::Logger::Notice<short int&, char const*>
FUNC 170710 11bc 0 Log::Logger::Notice<int>
FUNC 1718d0 15a 0 Log::Logger::Notice<int, char (&)[64]>
FUNC 171a30 11d2 0 Log::Logger::Notice<int, int>
FUNC 172c10 11d2 0 Log::Logger::Notice<long unsigned int, char const*>
FUNC 173df0 153 0 Log::Logger::Verbose<std::__cxx11::basic_string<char, std::char_traits<char>, std::allocator<char> >&>
FUNC 173f50 4b 0 Log::Logger::~Logger
FUNC 173fa0 5a 0 Log::TTYTarget::Process
FUNC 174000 f 0 Log::TTYTarget::~TTYTarget
FUNC 174010 2 0 Log::TTYTarget::~TTYTarget
FUNC 174020 255 0 Net::OutOfBandPrint<>
FUNC 174280 7df 0 Net::OutOfBandPrint<std::__cxx11::basic_string<char, std::char_traits<char>, std::allocator<char> > >
FUNC 174a60 255 0 Net::OutOfBandPrint<std::__cxx11::basic_string<char, std::char_traits<char>, std::allocator<char> >, std::__cxx11::basic_string<char, std::char_traits<char>, std::allocator<char> >&>
FUNC 174cc0 246 0 Net::OutOfBandPrint<char (&)[1024]>
FUNC 174f10 7df 0 Net::OutOfBandPrint<std::__cxx11::basic_string<char, std::char_traits<char>, std::allocator<char> >&>
FUNC 1756f0 246 0 Net::OutOfBandPrint<char const*&>
FUNC 175940 7df 0 Net::OutOfBandPrint<char*&>
FUNC 176120 255 0 Net::OutOfBandPrint<int, int&>
FUNC 176380 1f 0 Str::cisxdigit
FUNC 1763a0 28 0 Sys::PacketEvent::~PacketEvent
FUNC 1763d0 22 0 Sys::PacketEvent::~PacketEvent
FUNC 176400 118 0 Sys::cmdlineArgs_t::~cmdlineArgs_t
FUNC 176520 2b 0 Sys::ConsoleInputEvent::~ConsoleInputEvent
FUNC 176550 22 0 Sys::ConsoleInputEvent::~ConsoleInputEvent
FUNC 176580 27 0 Sys::DropErr::~DropErr
FUNC 1765b0 b 0 Sys::DropErr::~DropErr
FUNC 1765c0 135 0 Sys::QuitCmd::QuitCmd
FUNC 176700 f 0 Sys::QuitCmd::~QuitCmd
FUNC 176710 2 0 Sys::QuitCmd::~QuitCmd
FUNC 176720 f 0 Cvar::CvarCommand::~CvarCommand
FUNC 176730 2 0 Cvar::CvarCommand::~CvarCommand
FUNC 176740 17a 0 Cvar::Cvar<ServerPrivate>::GetDescription
FUNC 1768c0 24a 0 Cvar::Cvar<ServerPrivate>::OnValueChanged
FUNC 176b10 2b 0 Cvar::Cvar<ServerPrivate>::GetAdditionalDescription
FUNC 176b40 33 0 Cvar::Cvar<ServerPrivate>::Validate
FUNC 176b80 257 0 Cvar::Cvar<ServerPrivate>::Cvar
FUNC 176de0 55 0 Cvar::Cvar<ServerPrivate>::~Cvar
FUNC 176e40 4d 0 Cvar::Cvar<ServerPrivate>::~Cvar
FUNC 176e90 11d4 0 Cvar::Cvar<Log::Level>::GetDescription
FUNC 178070 2c4 0 Cvar::Cvar<Log::Level>::OnValueChanged
FUNC 178340 2b 0 Cvar::Cvar<Log::Level>::GetAdditionalDescription
FUNC 178370 33 0 Cvar::Cvar<Log::Level>::Validate
FUNC 1783b0 262 0 Cvar::Cvar<Log::Level>::Cvar
FUNC 178620 55 0 Cvar::Cvar<Log::Level>::~Cvar
FUNC 178680 4d 0 Cvar::Cvar<Log::Level>::~Cvar
FUNC 1786d0 1a0 0 Cvar::Cvar<std::__cxx11::basic_string<char, std::char_traits<char>, std::allocator<char> > >::GetDescription
FUNC 178870 2c7 0 Cvar::Cvar<std::__cxx11::basic_string<char, std::char_traits<char>, std::allocator<char> > >::OnValueChanged
FUNC 178b40 2b 0 Cvar::Cvar<std::__cxx11::basic_string<char, std::char_traits<char>, std::allocator<char> > >::GetAdditionalDescription
FUNC 178b70 33 0 Cvar::Cvar<std::__cxx11::basic_string<char, std::char_traits<char>, std::allocator<char> > >::Validate
FUNC 178bb0 36f 0 Cvar::Cvar<std::__cxx11::basic_string<char, std::char_traits<char>, std::allocator<char> > >::Cvar
FUNC 178f20 67 0 Cvar::Cvar<std::__cxx11::basic_string<char, std::char_traits<char>, std::allocator<char> > >::~Cvar
FUNC 178f90 5f 0 Cvar::Cvar<std::__cxx11::basic_string<char, std::char_traits<char>, std::allocator<char> > >::~Cvar
FUNC 178ff0 1a0 0 Cvar::Cvar<bool>::GetDescription
FUNC 179190 239 0 Cvar::Cvar<bool>::OnValueChanged
FUNC 1793d0 2b 0 Cvar::Cvar<bool>::GetAdditionalDescription
FUNC 179400 ae 0 Cvar::Cvar<bool>::Register
FUNC 1794b0 33 0 Cvar::Cvar<bool>::Validate
FUNC 1794f0 200 0 Cvar::Cvar<bool>::Cvar
FUNC 1796f0 55 0 Cvar::Cvar<bool>::~Cvar
FUNC 179750 4d 0 Cvar::Cvar<bool>::~Cvar
FUNC 1797a0 1a0 0 Cvar::Cvar<int>::GetDescription
FUNC 179940 239 0 Cvar::Cvar<int>::OnValueChanged
FUNC 179b80 2b 0 Cvar::Cvar<int>::GetAdditionalDescription
FUNC 179bb0 33 0 Cvar::Cvar<int>::Validate
FUNC 179bf0 23a 0 Cvar::Cvar<int>::Cvar
FUNC 179e30 55 0 Cvar::Cvar<int>::~Cvar
FUNC 179e90 4d 0 Cvar::Cvar<int>::~Cvar
FUNC 179ee0 14f 0 Cvar::Cvar<unsigned int>::GetDescription
FUNC 17a030 1fd 0 Cvar::Cvar<unsigned int>::OnValueChanged
FUNC 17a230 2b 0 Cvar::Cvar<unsigned int>::GetAdditionalDescription
FUNC 17a260 33 0 Cvar::Cvar<unsigned int>::Validate
FUNC 17a2a0 55 0 Cvar::Cvar<unsigned int>::~Cvar
FUNC 17a300 4d 0 Cvar::Cvar<unsigned int>::~Cvar
FUNC 17a350 143 0 Cvar::Range<Cvar::Cvar<int> >::GetAdditionalDescription
FUNC 17a4a0 219 0 Cvar::Range<Cvar::Cvar<int> >::Validate
FUNC 17a6c0 38c 0 Cvar::Range<Cvar::Cvar<int> >::Range<>
FUNC 17aa50 55 0 Cvar::Range<Cvar::Cvar<int> >::~Range
FUNC 17aab0 4d 0 Cvar::Range<Cvar::Cvar<int> >::~Range
FUNC 17ab00 143 0 Cvar::Range<Cvar::Cvar<unsigned int> >::GetAdditionalDescription
FUNC 17ac50 219 0 Cvar::Range<Cvar::Cvar<unsigned int> >::Validate
FUNC 17ae70 38c 0 Cvar::Range<Cvar::Cvar<unsigned int> >::Range<>
FUNC 17b200 55 0 Cvar::Range<Cvar::Cvar<unsigned int> >::~Range
FUNC 17b260 4d 0 Cvar::Range<Cvar::Cvar<unsigned int> >::~Range
FUNC 17b2b0 147 0 Cvar::SetCmd::SetCmd
FUNC 17b400 f 0 Cvar::SetCmd::~SetCmd
FUNC 17b410 2 0 Cvar::SetCmd::~SetCmd
FUNC 17b420 fc 0 Cvar::Callback<Cvar::Cvar<bool> >::OnValueChanged
FUNC 17b520 3d6 0 Cvar::Callback<Cvar::Cvar<bool> >::Callback<>
FUNC 17b900 a4 0 Cvar::Callback<Cvar::Cvar<bool> >::~Callback
FUNC 17b9b0 9c 0 Cvar::Callback<Cvar::Cvar<bool> >::~Callback
FUNC 17ba50 135 0 Cvar::ResetCmd::ResetCmd
FUNC 17bb90 f 0 Cvar::ResetCmd::~ResetCmd
FUNC 17bba0 2 0 Cvar::ResetCmd::~ResetCmd
FUNC 17bbb0 35 0 Cvar::CvarProxy::~CvarProxy
FUNC 17bbf0 135 0 Cvar::ListCvars::ListCvars
FUNC 17bd30 f 0 Cvar::ListCvars::~ListCvars
FUNC 17bd40 2 0 Cvar::ListCvars::~ListCvars
FUNC 17bd50 69 0 Util::SerializeTraits<std::__cxx11::basic_string<char, std::char_traits<char>, std::allocator<char> >, void>::Read
FUNC 17bdc0 61 0 Util::SerializeTraits<std::__cxx11::basic_string<char, std::char_traits<char>, std::allocator<char> >, void>::Write
FUNC 17be30 1e 0 Util::bad_optional_access::~bad_optional_access
FUNC 17be50 b 0 Util::bad_optional_access::~bad_optional_access
FUNC 17be60 47 0 Util::Reader::CheckEndRead
FUNC 17beb0 53 0 Util::Reader::ReadData
FUNC 17bf10 8f 0 Util::Reader::~Reader
FUNC 17bfa0 28 0 Util::Writer::~Writer
FUNC 17bfd0 be 0 Util::optional<float>::value
FUNC 17c090 135 0 DirCmd::DirCmd
FUNC 17c1d0 f 0 DirCmd::~DirCmd
FUNC 17c1e0 2 0 DirCmd::~DirCmd
FUNC 17c1f0 252 0 GameVM::~GameVM
FUNC 17c450 24a 0 GameVM::~GameVM
FUNC 17c6a0 160 0 MapCmd::MapCmd
FUNC 17c800 f 0 MapCmd::~MapCmd
FUNC 17c810 2 0 MapCmd::~MapCmd
FUNC 17c820 f 0 ProxyCmd::~ProxyCmd
FUNC 17c830 2 0 ProxyCmd::~ProxyCmd
FUNC 17c840 135 0 WhichCmd::WhichCmd
FUNC 17c980 f 0 WhichCmd::~WhichCmd
FUNC 17c990 2 0 WhichCmd::~WhichCmd
FUNC 17c9a0 135 0 StatusCmd::StatusCmd
FUNC 17cae0 f 0 StatusCmd::~StatusCmd
FUNC 17caf0 2 0 StatusCmd::~StatusCmd
FUNC 17cb00 5b 0 __gnu_cxx::__to_xstring<std::__cxx11::basic_string<char>, char>
FUNC 17cb60 11ee 0 ListMapsCmd::Run
FUNC 17dd50 88 0 ListPathsCmd::Run
FUNC 17dde0 6 0 FS::minizip_category_impl::name
FUNC 17ddf0 128 0 FS::minizip_category_impl::message
FUNC 17df20 6 0 FS::filesystem_category_impl::name
FUNC 17df30 da 0 FS::filesystem_category_impl::message
FUNC 17e010 126 0 VM::CommonVMServices::ProxyCmd::Run
FUNC 17e140 16e 0 VM::CommonVMServices::ProxyCmd::Complete
FUNC 17e2b0 338 0 Cmd::AliasProxy::Run
FUNC 17e5f0 97 0 Cmd::UnaliasCmd::Run
FUNC 17e690 56 0 Cmd::UnaliasCmd::Complete
FUNC 17e6f0 21b 0 Cmd::UndelayCmd::Run
FUNC 17e910 56 0 Cmd::UndelayCmd::Complete
FUNC 17e970 2522 0 Cmd::ListCmdsCmd::Run
FUNC 180ea0 56 0 Cmd::ListCmdsCmd::Complete
FUNC 180f00 59 0 Cmd::UndelayAllCmd::Run
FUNC 180f60 2580 0 Cmd::ListAliasesCmd::Run
FUNC 1834e0 1f 0 Cmd::ClearAliasesCmd::Run
FUNC 183500 574 0 Cmd::IfCmd::Run
FUNC 183a80 56 0 Cmd::IfCmd::Complete
FUNC 183ae0 e8 0 Cmd::CmdBase::Print<>
FUNC 183bd0 1bf 0 Cmd::EchoCmd::Run
FUNC 183d90 234e 0 Cmd::ExecCmd::SetExecArgs
FUNC 1860e0 63f 0 Cmd::ExecCmd::Run
FUNC 186720 121 0 Cmd::ExecCmd::Complete
FUNC 186850 c88 0 Cmd::MathCmd::Run
FUNC 1874e0 b1 0 Cmd::MathCmd::Usage
FUNC 1875a0 56 0 Cmd::MathCmd::Complete
FUNC 187600 12d 0 Cmd::VstrCmd::Run
FUNC 187730 56 0 Cmd::VstrCmd::Complete
FUNC 187790 15d6 0 Cmd::AliasCmd::Run
FUNC 188d70 1fa 0 Cmd::AliasCmd::Complete
FUNC 188f70 366 0 Cmd::CycleCmd::Run
FUNC 1892e0 56 0 Cmd::CycleCmd::Complete
FUNC 189340 523 0 Cmd::DelayCmd::Run
FUNC 189870 56 0 Cmd::DelayCmd::Complete
FUNC 1898d0 1ae 0 Cmd::ConcatCmd::Run
FUNC 189a80 51 0 Cmd::ConcatCmd::Complete
FUNC 189ae0 1f3 0 Cmd::RandomCmd::Run
FUNC 189ce0 56 0 Cmd::RandomCmd::Complete
FUNC 189d40 36e 0 Cmd::ToggleCmd::Run
FUNC 18a0b0 56 0 Cmd::ToggleCmd::Complete
FUNC 18a110 3d 0 Str::BasicStringRef<char>::compare
FUNC 18a150 ae 0 Sys::QuitCmd::Run
FUNC 18a200 184 0 Cvar::CvarCommand::Run
FUNC 18a390 168 0 Cvar::SetCmd::Run
FUNC 18a500 56 0 Cvar::SetCmd::Complete
FUNC 18a560 1d0 0 Cvar::ResetCmd::Run
FUNC 18a730 56 0 Cvar::ResetCmd::Complete
FUNC 18a790 1df2 0 Cvar::ListCvars::Run
FUNC 18c590 254 0 Cvar::ListCvars::Complete
FUNC 18c7f0 5a2 0 DirCmd::Run
FUNC 18cda0 432 0 MapCmd::Run
FUNC 18d1e0 4dd 0 MapCmd::Complete
FUNC 18d6c0 2e 0 ProxyCmd::Run
FUNC 18d6f0 769 0 ProxyCmd::Complete
FUNC 18de60 121c 0 WhichCmd::Run
FUNC 18f080 86 0 WhichCmd::Complete
FUNC 18f110 3945 0 StatusCmd::Run
FUNC 192a60 c4 0 std::_Hashtable<std::__cxx11::basic_string<char, std::char_traits<char>, std::allocator<char> >, std::pair<const std::__cxx11::basic_string<char, std::char_traits<char>, std::allocator<char> >, proxyInfo_t>, std::allocator<std::pair<const std::__cxx11::basic_string<char, std::char_traits<char>, std::allocator<char> >, proxyInfo_t> >, std::__detail::_Select1st, Str::IEqual, Str::IHash, std::__detail::_Mod_range_hashing, std::__detail::_Default_ranged_hash, std::__detail::_Prime_rehash_policy, std::__detail::_Hashtable_traits<true, false, true> >::_M_find_before_node
FUNC 192b30 c4 0 std::_Hashtable<std::__cxx11::basic_string<char, std::char_traits<char>, std::allocator<char> >, std::pair<const std::__cxx11::basic_string<char, std::char_traits<char>, std::allocator<char> >, Cmd::aliasRecord_t>, std::allocator<std::pair<const std::__cxx11::basic_string<char, std::char_traits<char>, std::allocator<char> >, Cmd::aliasRecord_t> >, std::__detail::_Select1st, Str::IEqual, Str::IHash, std::__detail::_Mod_range_hashing, std::__detail::_Default_ranged_hash, std::__detail::_Prime_rehash_policy, std::__detail::_Hashtable_traits<true, false, true> >::_M_find_before_node
FUNC 192c00 c4 0 std::_Hashtable<std::__cxx11::basic_string<char, std::char_traits<char>, std::allocator<char> >, std::pair<const std::__cxx11::basic_string<char, std::char_traits<char>, std::allocator<char> >, Cmd::commandRecord_t>, std::allocator<std::pair<const std::__cxx11::basic_string<char, std::char_traits<char>, std::allocator<char> >, Cmd::commandRecord_t> >, std::__detail::_Select1st, Str::IEqual, Str::IHash, std::__detail::_Mod_range_hashing, std::__detail::_Default_ranged_hash, std::__detail::_Prime_rehash_policy, std::__detail::_Hashtable_traits<true, false, true> >::_M_find_before_node
FUNC 192cd0 c4 0 std::_Hashtable<std::__cxx11::basic_string<char, std::char_traits<char>, std::allocator<char> >, std::pair<const std::__cxx11::basic_string<char, std::char_traits<char>, std::allocator<char> >, Cvar::cvarRecord_t*>, std::allocator<std::pair<const std::__cxx11::basic_string<char, std::char_traits<char>, std::allocator<char> >, Cvar::cvarRecord_t*> >, std::__detail::_Select1st, Str::IEqual, Str::IHash, std::__detail::_Mod_range_hashing, std::__detail::_Default_ranged_hash, std::__detail::_Prime_rehash_policy, std::__detail::_Hashtable_traits<true, false, true> >::_M_find_before_node
FUNC 192da0 8e 0 std::_Hashtable<std::__cxx11::basic_string<char, std::char_traits<char>, std::allocator<char> >, std::pair<const std::__cxx11::basic_string<char, std::char_traits<char>, std::allocator<char> >, std::__cxx11::basic_string<char, std::char_traits<char>, std::allocator<char> > >, std::allocator<std::pair<const std::__cxx11::basic_string<char, std::char_traits<char>, std::allocator<char> >, std::__cxx11::basic_string<char, std::char_traits<char>, std::allocator<char> > > >, std::__detail::_Select1st, std::equal_to<std::__cxx11::basic_string<char, std::char_traits<char>, std::allocator<char> > >, std::hash<std::__cxx11::basic_string<char, std::char_traits<char>, std::allocator<char> > >, std::__detail::_Mod_range_hashing, std::__detail::_Default_ranged_hash, std::__detail::_Prime_rehash_policy, std::__detail::_Hashtable_traits<true, false, true> >::_M_find_before_node
FUNC 192e30 8e 0 std::_Hashtable<std::__cxx11::basic_string<char, std::char_traits<char>, std::allocator<char> >, std::pair<const std::__cxx11::basic_string<char, std::char_traits<char>, std::allocator<char> >, std::pair<unsigned int, long long int> >, std::allocator<std::pair<const std::__cxx11::basic_string<char, std::char_traits<char>, std::allocator<char> >, std::pair<unsigned int, long long int> > >, std::__detail::_Select1st, std::equal_to<std::__cxx11::basic_string<char, std::char_traits<char>, std::allocator<char> > >, std::hash<std::__cxx11::basic_string<char, std::char_traits<char>, std::allocator<char> > >, std::__detail::_Mod_range_hashing, std::__detail::_Default_ranged_hash, std::__detail::_Prime_rehash_policy, std::__detail::_Hashtable_traits<true, false, true> >::_M_find_before_node
FUNC 192ec0 8e 0 std::_Hashtable<std::__cxx11::basic_string<char, std::char_traits<char>, std::allocator<char> >, std::pair<const std::__cxx11::basic_string<char, std::char_traits<char>, std::allocator<char> >, long long unsigned int>, std::allocator<std::pair<const std::__cxx11::basic_string<char, std::char_traits<char>, std::allocator<char> >, long long unsigned int> >, std::__detail::_Select1st, std::equal_to<std::__cxx11::basic_string<char, std::char_traits<char>, std::allocator<char> > >, std::hash<std::__cxx11::basic_string<char, std::char_traits<char>, std::allocator<char> > >, std::__detail::_Mod_range_hashing, std::__detail::_Default_ranged_hash, std::__detail::_Prime_rehash_policy, std::__detail::_Hashtable_traits<true, false, true> >::_M_find_before_node
FUNC 192f50 8 0 std::ctype<char>::do_widen
FUNC 192f60 cd 0 std::_Rb_tree<std::__cxx11::basic_string<char, std::char_traits<char>, std::allocator<char> >, std::pair<const std::__cxx11::basic_string<char, std::char_traits<char>, std::allocator<char> >, std::vector<std::__cxx11::basic_string<char, std::char_traits<char>, std::allocator<char> >, std::allocator<std::__cxx11::basic_string<char, std::char_traits<char>, std::allocator<char> > > > >, std::_Select1st<std::pair<const std::__cxx11::basic_string<char, std::char_traits<char>, std::allocator<char> >, std::vector<std::__cxx11::basic_string<char, std::char_traits<char>, std::allocator<char> >, std::allocator<std::__cxx11::basic_string<char, std::char_traits<char>, std::allocator<char> > > > > >, std::less<std::__cxx11::basic_string<char, std::char_traits<char>, std::allocator<char> > >, std::allocator<std::pair<const std::__cxx11::basic_string<char, std::char_traits<char>, std::allocator<char> >, std::vector<std::__cxx11::basic_string<char, std::char_traits<char>, std::allocator<char> >, std::allocator<std::__cxx11::basic_string<char, std::char_traits<char>, std::allocator<char> > > > > > >::find
FUNC 193030 175 0 std::_Hashtable<std::__cxx11::basic_string<char, std::char_traits<char>, std::allocator<char> >, std::pair<const std::__cxx11::basic_string<char, std::char_traits<char>, std::allocator<char> >, proxyInfo_t>, std::allocator<std::pair<const std::__cxx11::basic_string<char, std::char_traits<char>, std::allocator<char> >, proxyInfo_t> >, std::__detail::_Select1st, Str::IEqual, Str::IHash, std::__detail::_Mod_range_hashing, std::__detail::_Default_ranged_hash, std::__detail::_Prime_rehash_policy, std::__detail::_Hashtable_traits<true, false, true> >::_M_insert_unique_node
FUNC 1931b0 1e9 0 std::_Hashtable<std::__cxx11::basic_string<char, std::char_traits<char>, std::allocator<char> >, std::pair<const std::__cxx11::basic_string<char, std::char_traits<char>, std::allocator<char> >, proxyInfo_t>, std::allocator<std::pair<const std::__cxx11::basic_string<char, std::char_traits<char>, std::allocator<char> >, proxyInfo_t> >, std::__detail::_Select1st, Str::IEqual, Str::IHash, std::__detail::_Mod_range_hashing, std::__detail::_Default_ranged_hash, std::__detail::_Prime_rehash_policy, std::__detail::_Hashtable_traits<true, false, true> >::_M_rehash
FUNC 1933a0 1a8 0 std::_Hashtable<std::__cxx11::basic_string<char, std::char_traits<char>, std::allocator<char> >, std::pair<const std::__cxx11::basic_string<char, std::char_traits<char>, std::allocator<char> >, Cmd::aliasRecord_t>, std::allocator<std::pair<const std::__cxx11::basic_string<char, std::char_traits<char>, std::allocator<char> >, Cmd::aliasRecord_t> >, std::__detail::_Select1st, Str::IEqual, Str::IHash, std::__detail::_Mod_range_hashing, std::__detail::_Default_ranged_hash, std::__detail::_Prime_rehash_policy, std::__detail::_Hashtable_traits<true, false, true> >::_M_insert_unique_node
FUNC 193550 c7 0 std::_Hashtable<std::__cxx11::basic_string<char, std::char_traits<char>, std::allocator<char> >, std::pair<const std::__cxx11::basic_string<char, std::char_traits<char>, std::allocator<char> >, Cmd::aliasRecord_t>, std::allocator<std::pair<const std::__cxx11::basic_string<char, std::char_traits<char>, std::allocator<char> >, Cmd::aliasRecord_t> >, std::__detail::_Select1st, Str::IEqual, Str::IHash, std::__detail::_Mod_range_hashing, std::__detail::_Default_ranged_hash, std::__detail::_Prime_rehash_policy, std::__detail::_Hashtable_traits<true, false, true> >::find
FUNC 193620 75 0 std::_Hashtable<std::__cxx11::basic_string<char, std::char_traits<char>, std::allocator<char> >, std::pair<const std::__cxx11::basic_string<char, std::char_traits<char>, std::allocator<char> >, Cmd::aliasRecord_t>, std::allocator<std::pair<const std::__cxx11::basic_string<char, std::char_traits<char>, std::allocator<char> >, Cmd::aliasRecord_t> >, std::__detail::_Select1st, Str::IEqual, Str::IHash, std::__detail::_Mod_range_hashing, std::__detail::_Default_ranged_hash, std::__detail::_Prime_rehash_policy, std::__detail::_Hashtable_traits<true, false, true> >::clear
FUNC 1936a0 e9 0 std::_Hashtable<std::__cxx11::basic_string<char, std::char_traits<char>, std::allocator<char> >, std::pair<const std::__cxx11::basic_string<char, std::char_traits<char>, std::allocator<char> >, Cmd::aliasRecord_t>, std::allocator<std::pair<const std::__cxx11::basic_string<char, std::char_traits<char>, std::allocator<char> >, Cmd::aliasRecord_t> >, std::__detail::_Select1st, Str::IEqual, Str::IHash, std::__detail::_Mod_range_hashing, std::__detail::_Default_ranged_hash, std::__detail::_Prime_rehash_policy, std::__detail::_Hashtable_traits<true, false, true> >::erase
FUNC 193790 1e9 0 std::_Hashtable<std::__cxx11::basic_string<char, std::char_traits<char>, std::allocator<char> >, std::pair<const std::__cxx11::basic_string<char, std::char_traits<char>, std::allocator<char> >, Cmd::aliasRecord_t>, std::allocator<std::pair<const std::__cxx11::basic_string<char, std::char_traits<char>, std::allocator<char> >, Cmd::aliasRecord_t> >, std::__detail::_Select1st, Str::IEqual, Str::IHash, std::__detail::_Mod_range_hashing, std::__detail::_Default_ranged_hash, std::__detail::_Prime_rehash_policy, std::__detail::_Hashtable_traits<true, false, true> >::_M_rehash
FUNC 193980 183 0 std::_Hashtable<std::__cxx11::basic_string<char, std::char_traits<char>, std::allocator<char> >, std::pair<const std::__cxx11::basic_string<char, std::char_traits<char>, std::allocator<char> >, Cmd::commandRecord_t>, std::allocator<std::pair<const std::__cxx11::basic_string<char, std::char_traits<char>, std::allocator<char> >, Cmd::commandRecord_t> >, std::__detail::_Select1st, Str::IEqual, Str::IHash, std::__detail::_Mod_range_hashing, std::__detail::_Default_ranged_hash, std::__detail::_Prime_rehash_policy, std::__detail::_Hashtable_traits<true, false, true> >::_M_insert_unique_node
FUNC 193b10 c7 0 std::_Hashtable<std::__cxx11::basic_string<char, std::char_traits<char>, std::allocator<char> >, std::pair<const std::__cxx11::basic_string<char, std::char_traits<char>, std::allocator<char> >, Cmd::commandRecord_t>, std::allocator<std::pair<const std::__cxx11::basic_string<char, std::char_traits<char>, std::allocator<char> >, Cmd::commandRecord_t> >, std::__detail::_Select1st, Str::IEqual, Str::IHash, std::__detail::_Mod_range_hashing, std::__detail::_Default_ranged_hash, std::__detail::_Prime_rehash_policy, std::__detail::_Hashtable_traits<true, false, true> >::find
FUNC 193be0 44 0 std::_Hashtable<std::__cxx11::basic_string<char, std::char_traits<char>, std::allocator<char> >, std::pair<const std::__cxx11::basic_string<char, std::char_traits<char>, std::allocator<char> >, Cmd::commandRecord_t>, std::allocator<std::pair<const std::__cxx11::basic_string<char, std::char_traits<char>, std::allocator<char> >, Cmd::commandRecord_t> >, std::__detail::_Select1st, Str::IEqual, Str::IHash, std::__detail::_Mod_range_hashing, std::__detail::_Default_ranged_hash, std::__detail::_Prime_rehash_policy, std::__detail::_Hashtable_traits<true, false, true> >::erase
FUNC 193c30 d5 0 std::_Hashtable<std::__cxx11::basic_string<char, std::char_traits<char>, std::allocator<char> >, std::pair<const std::__cxx11::basic_string<char, std::char_traits<char>, std::allocator<char> >, Cmd::commandRecord_t>, std::allocator<std::pair<const std::__cxx11::basic_string<char, std::char_traits<char>, std::allocator<char> >, Cmd::commandRecord_t> >, std::__detail::_Select1st, Str::IEqual, Str::IHash, std::__detail::_Mod_range_hashing, std::__detail::_Default_ranged_hash, std::__detail::_Prime_rehash_policy, std::__detail::_Hashtable_traits<true, false, true> >::_M_erase
FUNC 193d10 1e9 0 std::_Hashtable<std::__cxx11::basic_string<char, std::char_traits<char>, std::allocator<char> >, std::pair<const std::__cxx11::basic_string<char, std::char_traits<char>, std::allocator<char> >, Cmd::commandRecord_t>, std::allocator<std::pair<const std::__cxx11::basic_string<char, std::char_traits<char>, std::allocator<char> >, Cmd::commandRecord_t> >, std::__detail::_Select1st, Str::IEqual, Str::IHash, std::__detail::_Mod_range_hashing, std::__detail::_Default_ranged_hash, std::__detail::_Prime_rehash_policy, std::__detail::_Hashtable_traits<true, false, true> >::_M_rehash
FUNC 193f00 190 0 std::_Hashtable<std::__cxx11::basic_string<char, std::char_traits<char>, std::allocator<char> >, std::pair<const std::__cxx11::basic_string<char, std::char_traits<char>, std::allocator<char> >, Cvar::cvarRecord_t*>, std::allocator<std::pair<const std::__cxx11::basic_string<char, std::char_traits<char>, std::allocator<char> >, Cvar::cvarRecord_t*> >, std::__detail::_Select1st, Str::IEqual, Str::IHash, std::__detail::_Mod_range_hashing, std::__detail::_Default_ranged_hash, std::__detail::_Prime_rehash_policy, std::__detail::_Hashtable_traits<true, false, true> >::_M_insert_unique_node
FUNC 194090 c7 0 std::_Hashtable<std::__cxx11::basic_string<char, std::char_traits<char>, std::allocator<char> >, std::pair<const std::__cxx11::basic_string<char, std::char_traits<char>, std::allocator<char> >, Cvar::cvarRecord_t*>, std::allocator<std::pair<const std::__cxx11::basic_string<char, std::char_traits<char>, std::allocator<char> >, Cvar::cvarRecord_t*> >, std::__detail::_Select1st, Str::IEqual, Str::IHash, std::__detail::_Mod_range_hashing, std::__detail::_Default_ranged_hash, std::__detail::_Prime_rehash_policy, std::__detail::_Hashtable_traits<true, false, true> >::find
FUNC 194160 1e9 0 std::_Hashtable<std::__cxx11::basic_string<char, std::char_traits<char>, std::allocator<char> >, std::pair<const std::__cxx11::basic_string<char, std::char_traits<char>, std::allocator<char> >, Cvar::cvarRecord_t*>, std::allocator<std::pair<const std::__cxx11::basic_string<char, std::char_traits<char>, std::allocator<char> >, Cvar::cvarRecord_t*> >, std::__detail::_Select1st, Str::IEqual, Str::IHash, std::__detail::_Mod_range_hashing, std::__detail::_Default_ranged_hash, std::__detail::_Prime_rehash_policy, std::__detail::_Hashtable_traits<true, false, true> >::_M_rehash
FUNC 194350 1a8 0 std::_Hashtable<std::__cxx11::basic_string<char, std::char_traits<char>, std::allocator<char> >, std::pair<const std::__cxx11::basic_string<char, std::char_traits<char>, std::allocator<char> >, std::__cxx11::basic_string<char, std::char_traits<char>, std::allocator<char> > >, std::allocator<std::pair<const std::__cxx11::basic_string<char, std::char_traits<char>, std::allocator<char> >, std::__cxx11::basic_string<char, std::char_traits<char>, std::allocator<char> > > >, std::__detail::_Select1st, std::equal_to<std::__cxx11::basic_string<char, std::char_traits<char>, std::allocator<char> > >, std::hash<std::__cxx11::basic_string<char, std::char_traits<char>, std::allocator<char> > >, std::__detail::_Mod_range_hashing, std::__detail::_Default_ranged_hash, std::__detail::_Prime_rehash_policy, std::__detail::_Hashtable_traits<true, false, true> >::_M_insert_unique_node
FUNC 194500 1e9 0 std::_Hashtable<std::__cxx11::basic_string<char, std::char_traits<char>, std::allocator<char> >, std::pair<const std::__cxx11::basic_string<char, std::char_traits<char>, std::allocator<char> >, std::__cxx11::basic_string<char, std::char_traits<char>, std::allocator<char> > >, std::allocator<std::pair<const std::__cxx11::basic_string<char, std::char_traits<char>, std::allocator<char> >, std::__cxx11::basic_string<char, std::char_traits<char>, std::allocator<char> > > >, std::__detail::_Select1st, std::equal_to<std::__cxx11::basic_string<char, std::char_traits<char>, std::allocator<char> > >, std::hash<std::__cxx11::basic_string<char, std::char_traits<char>, std::allocator<char> > >, std::__detail::_Mod_range_hashing, std::__detail::_Default_ranged_hash, std::__detail::_Prime_rehash_policy, std::__detail::_Hashtable_traits<true, false, true> >::_M_rehash
FUNC 1946f0 1be 0 std::_Hashtable<std::__cxx11::basic_string<char, std::char_traits<char>, std::allocator<char> >, std::pair<const std::__cxx11::basic_string<char, std::char_traits<char>, std::allocator<char> >, std::pair<unsigned int, long long int> >, std::allocator<std::pair<const std::__cxx11::basic_string<char, std::char_traits<char>, std::allocator<char> >, std::pair<unsigned int, long long int> > >, std::__detail::_Select1st, std::equal_to<std::__cxx11::basic_string<char, std::char_traits<char>, std::allocator<char> > >, std::hash<std::__cxx11::basic_string<char, std::char_traits<char>, std::allocator<char> > >, std::__detail::_Mod_range_hashing, std::__detail::_Default_ranged_hash, std::__detail::_Prime_rehash_policy, std::__detail::_Hashtable_traits<true, false, true> >::_M_emplace<Str::BasicStringRef<char>&, std::pair<unsigned int, long long int> >
FUNC 1948b0 1ae 0 std::_Hashtable<std::__cxx11::basic_string<char, std::char_traits<char>, std::allocator<char> >, std::pair<const std::__cxx11::basic_string<char, std::char_traits<char>, std::allocator<char> >, std::pair<unsigned int, long long int> >, std::allocator<std::pair<const std::__cxx11::basic_string<char, std::char_traits<char>, std::allocator<char> >, std::pair<unsigned int, long long int> > >, std::__detail::_Select1st, std::equal_to<std::__cxx11::basic_string<char, std::char_traits<char>, std::allocator<char> > >, std::hash<std::__cxx11::basic_string<char, std::char_traits<char>, std::allocator<char> > >, std::__detail::_Mod_range_hashing, std::__detail::_Default_ranged_hash, std::__detail::_Prime_rehash_policy, std::__detail::_Hashtable_traits<true, false, true> >::_M_emplace<const std::__cxx11::basic_string<char, std::char_traits<char>, std::allocator<char> >&, std::pair<unsigned int, long long int> >
FUNC 194a60 175 0 std::_Hashtable<std::__cxx11::basic_string<char, std::char_traits<char>, std::allocator<char> >, std::pair<const std::__cxx11::basic_string<char, std::char_traits<char>, std::allocator<char> >, std::pair<unsigned int, long long int> >, std::allocator<std::pair<const std::__cxx11::basic_string<char, std::char_traits<char>, std::allocator<char> >, std::pair<unsigned int, long long int> > >, std::__detail::_Select1st, std::equal_to<std::__cxx11::basic_string<char, std::char_traits<char>, std::allocator<char> > >, std::hash<std::__cxx11::basic_string<char, std::char_traits<char>, std::allocator<char> > >, std::__detail::_Mod_range_hashing, std::__detail::_Default_ranged_hash, std::__detail::_Prime_rehash_policy, std::__detail::_Hashtable_traits<true, false, true> >::_M_insert_unique_node
FUNC 194be0 84 0 std::_Hashtable<std::__cxx11::basic_string<char, std::char_traits<char>, std::allocator<char> >, std::pair<const std::__cxx11::basic_string<char, std::char_traits<char>, std::allocator<char> >, std::pair<unsigned int, long long int> >, std::allocator<std::pair<const std::__cxx11::basic_string<char, std::char_traits<char>, std::allocator<char> >, std::pair<unsigned int, long long int> > >, std::__detail::_Select1st, std::equal_to<std::__cxx11::basic_string<char, std::char_traits<char>, std::allocator<char> > >, std::hash<std::__cxx11::basic_string<char, std::char_traits<char>, std::allocator<char> > >, std::__detail::_Mod_range_hashing, std::__detail::_Default_ranged_hash, std::__detail::_Prime_rehash_policy, std::__detail::_Hashtable_traits<true, false, true> >::find
FUNC 194c70 4d 0 std::_Hashtable<std::__cxx11::basic_string<char, std::char_traits<char>, std::allocator<char> >, std::pair<const std::__cxx11::basic_string<char, std::char_traits<char>, std::allocator<char> >, std::pair<unsigned int, long long int> >, std::allocator<std::pair<const std::__cxx11::basic_string<char, std::char_traits<char>, std::allocator<char> >, std::pair<unsigned int, long long int> > >, std::__detail::_Select1st, std::equal_to<std::__cxx11::basic_string<char, std::char_traits<char>, std::allocator<char> > >, std::hash<std::__cxx11::basic_string<char, std::char_traits<char>, std::allocator<char> > >, std::__detail::_Mod_range_hashing, std::__detail::_Default_ranged_hash, std::__detail::_Prime_rehash_policy, std::__detail::_Hashtable_traits<true, false, true> >::clear
FUNC 194cc0 333 0 std::_Hashtable<std::__cxx11::basic_string<char, std::char_traits<char>, std::allocator<char> >, std::pair<const std::__cxx11::basic_string<char, std::char_traits<char>, std::allocator<char> >, std::pair<unsigned int, long long int> >, std::allocator<std::pair<const std::__cxx11::basic_string<char, std::char_traits<char>, std::allocator<char> >, std::pair<unsigned int, long long int> > >, std::__detail::_Select1st, std::equal_to<std::__cxx11::basic_string<char, std::char_traits<char>, std::allocator<char> > >, std::hash<std::__cxx11::basic_string<char, std::char_traits<char>, std::allocator<char> > >, std::__detail::_Mod_range_hashing, std::__detail::_Default_ranged_hash, std::__detail::_Prime_rehash_policy, std::__detail::_Hashtable_traits<true, false, true> >::_M_assign<std::_Hashtable<_Key, _Value, _Alloc, _ExtractKey, _Equal, _H1, _H2, _Hash, _RehashPolicy, _Traits>::operator=(const std::_Hashtable<_Key, _Value, _Alloc, _ExtractKey, _Equal, _H1, _H2, _Hash, _RehashPolicy, _Traits>&) [with _Key = std::__cxx11::basic_string<char>; _Value = std::pair<const std::__cxx11::basic_string<char>, std::pair<unsigned int, long long int> >; _Alloc = std::allocator<std::pair<const std::__cxx11::basic_string<char>, std::pair<unsigned int, long long int> > >; _ExtractKey = std::__detail::_Select1st; _Equal = std::equal_to<std::__cxx11::basic_string<char> >; _H1 = std::hash<std::__cxx11::basic_string<char> >; _H2 = std::__detail::_Mod_range_hashing; _Hash = std::__detail::_Default_ranged_hash; _RehashPolicy = std::__detail::_Prime_rehash_policy; _Traits = std::__detail::_Hashtable_traits<true, false, true>]::<lambda(const __node_type*)> >
FUNC 195000 1ac 0 std::_Hashtable<std::__cxx11::basic_string<char, std::char_traits<char>, std::allocator<char> >, std::pair<const std::__cxx11::basic_string<char, std::char_traits<char>, std::allocator<char> >, std::pair<unsigned int, long long int> >, std::allocator<std::pair<const std::__cxx11::basic_string<char, std::char_traits<char>, std::allocator<char> >, std::pair<unsigned int, long long int> > >, std::__detail::_Select1st, std::equal_to<std::__cxx11::basic_string<char, std::char_traits<char>, std::allocator<char> > >, std::hash<std::__cxx11::basic_string<char, std::char_traits<char>, std::allocator<char> > >, std::__detail::_Mod_range_hashing, std::__detail::_Default_ranged_hash, std::__detail::_Prime_rehash_policy, std::__detail::_Hashtable_traits<true, false, true> >::_M_rehash
FUNC 1951b0 22 0 std::_Hashtable<std::__cxx11::basic_string<char, std::char_traits<char>, std::allocator<char> >, std::pair<const std::__cxx11::basic_string<char, std::char_traits<char>, std::allocator<char> >, std::pair<unsigned int, long long int> >, std::allocator<std::pair<const std::__cxx11::basic_string<char, std::char_traits<char>, std::allocator<char> >, std::pair<unsigned int, long long int> > >, std::__detail::_Select1st, std::equal_to<std::__cxx11::basic_string<char, std::char_traits<char>, std::allocator<char> > >, std::hash<std::__cxx11::basic_string<char, std::char_traits<char>, std::allocator<char> > >, std::__detail::_Mod_range_hashing, std::__detail::_Default_ranged_hash, std::__detail::_Prime_rehash_policy, std::__detail::_Hashtable_traits<true, false, true> >::~_Hashtable
FUNC 1951e0 190 0 std::_Hashtable<std::__cxx11::basic_string<char, std::char_traits<char>, std::allocator<char> >, std::pair<const std::__cxx11::basic_string<char, std::char_traits<char>, std::allocator<char> >, long long unsigned int>, std::allocator<std::pair<const std::__cxx11::basic_string<char, std::char_traits<char>, std::allocator<char> >, long long unsigned int> >, std::__detail::_Select1st, std::equal_to<std::__cxx11::basic_string<char, std::char_traits<char>, std::allocator<char> > >, std::hash<std::__cxx11::basic_string<char, std::char_traits<char>, std::allocator<char> > >, std::__detail::_Mod_range_hashing, std::__detail::_Default_ranged_hash, std::__detail::_Prime_rehash_policy, std::__detail::_Hashtable_traits<true, false, true> >::_M_insert_unique_node
FUNC 195370 1e9 0 std::_Hashtable<std::__cxx11::basic_string<char, std::char_traits<char>, std::allocator<char> >, std::pair<const std::__cxx11::basic_string<char, std::char_traits<char>, std::allocator<char> >, long long unsigned int>, std::allocator<std::pair<const std::__cxx11::basic_string<char, std::char_traits<char>, std::allocator<char> >, long long unsigned int> >, std::__detail::_Select1st, std::equal_to<std::__cxx11::basic_string<char, std::char_traits<char>, std::allocator<char> > >, std::hash<std::__cxx11::basic_string<char, std::char_traits<char>, std::allocator<char> > >, std::__detail::_Mod_range_hashing, std::__detail::_Default_ranged_hash, std::__detail::_Prime_rehash_policy, std::__detail::_Hashtable_traits<true, false, true> >::_M_rehash
FUNC 195560 f4 0 std::_Hashtable<unsigned int, std::pair<unsigned int const, Util::Reader>, std::allocator<std::pair<unsigned int const, Util::Reader> >, std::__detail::_Select1st, std::equal_to<unsigned int>, std::hash<unsigned int>, std::__detail::_Mod_range_hashing, std::__detail::_Default_ranged_hash, std::__detail::_Prime_rehash_policy, std::__detail::_Hashtable_traits<false, false, true> >::~_Hashtable
FUNC 195660 1dd 0 std::_Deque_base<Challenge, std::allocator<Challenge> >::_M_initialize_map
FUNC 195840 2e 0 std::_Tuple_impl<0, std::__cxx11::basic_string<char, std::char_traits<char>, std::allocator<char> >, std::__cxx11::basic_string<char, std::char_traits<char>, std::allocator<char> > >::~_Tuple_impl
FUNC 195870 150 0 std::_Tuple_impl<0, std::__cxx11::basic_string<char, std::char_traits<char>, std::allocator<char> >, std::__cxx11::basic_string<char, std::char_traits<char>, std::allocator<char> >, std::vector<FS::PakInfo, std::allocator<FS::PakInfo> >, std::vector<FS::LoadedPakInfo, std::allocator<FS::LoadedPakInfo> >, std::unordered_map<std::__cxx11::basic_string<char, std::char_traits<char>, std::allocator<char> >, std::pair<unsigned int, long long int>, std::hash<std::__cxx11::basic_string<char, std::char_traits<char>, std::allocator<char> > >, std::equal_to<std::__cxx11::basic_string<char, std::char_traits<char>, std::allocator<char> > >, std::allocator<std::pair<const std::__cxx11::basic_string<char, std::char_traits<char>, std::allocator<char> >, std::pair<unsigned int, long long int> > > > >::~_Tuple_impl
FUNC 1959c0 2f 0 std::_Tuple_impl<0, std::__cxx11::basic_string<char, std::char_traits<char>, std::allocator<char> >, std::__cxx11::basic_string<char, std::char_traits<char>, std::allocator<char> >, int>::~_Tuple_impl
FUNC 1959f0 2f 0 std::unique_lock<std::mutex>::unlock
FUNC 195a20 3d 0 std::_Function_base::_Base_manager<void (*)(bool)>::_M_manager
FUNC 195a60 f 0 std::_Sp_counted_ptr<Cvar::Cvar<Log::Level>*, (__gnu_cxx::_Lock_policy)2>::_M_destroy
FUNC 195a70 12 0 std::_Sp_counted_ptr<Cvar::Cvar<Log::Level>*, (__gnu_cxx::_Lock_policy)2>::_M_dispose
FUNC 195a90 5 0 std::_Sp_counted_ptr<Cvar::Cvar<Log::Level>*, (__gnu_cxx::_Lock_policy)2>::_M_get_deleter
FUNC 195aa0 f 0 std::_Sp_counted_ptr<Cvar::Cvar<Log::Level>*, (__gnu_cxx::_Lock_policy)2>::~_Sp_counted_ptr
FUNC 195ab0 2 0 std::_Sp_counted_ptr<Cvar::Cvar<Log::Level>*, (__gnu_cxx::_Lock_policy)2>::~_Sp_counted_ptr
FUNC 195ac0 3d 0 std::_Sp_counted_base<(__gnu_cxx::_Lock_policy)2>::_M_release
FUNC 195b00 11 0 std::_Function_handler<void(bool), void (*)(bool)>::_M_invoke
FUNC 195b20 e38 0 std::_V2::__rotate<__gnu_cxx::__normal_iterator<FS::PakInfo*, std::vector<FS::PakInfo> > >
FUNC 196960 221 0 std::map<std::__cxx11::basic_string<char, std::char_traits<char>, std::allocator<char> >, std::__cxx11::basic_string<char, std::char_traits<char>, std::allocator<char> >, std::less<std::__cxx11::basic_string<char, std::char_traits<char>, std::allocator<char> > >, std::allocator<std::pair<const std::__cxx11::basic_string<char, std::char_traits<char>, std::allocator<char> >, std::__cxx11::basic_string<char, std::char_traits<char>, std::allocator<char> > > > >::operator[]
FUNC 196b90 2e 0 std::pair<const std::__cxx11::basic_string<char, std::char_traits<char>, std::allocator<char> >, Cmd::commandRecord_t>::~pair
FUNC 196bc0 2e 0 std::pair<std::__cxx11::basic_string<char, std::char_traits<char>, std::allocator<char> >, std::__cxx11::basic_string<char, std::char_traits<char>, std::allocator<char> > >::~pair
FUNC 196bf0 43 0 std::deque<Challenge, std::allocator<Challenge> >::_M_pop_front_aux
FUNC 196c40 3ba 0 std::deque<Challenge, std::allocator<Challenge> >::_M_push_back_aux<const Challenge&>
FUNC 197000 683 0 std::deque<Challenge, std::allocator<Challenge> >::_M_erase
FUNC 197690 ae9 0 std::deque<Challenge, std::allocator<Challenge> >::_M_erase
FUNC 198180 13a 0 std::deque<Challenge, std::allocator<Challenge> >::~deque
FUNC 1982c0 3 0 std::thread::_State_impl<std::thread::_Invoker<std::tuple<void (*)()> > >::_M_run
FUNC 1982d0 1e 0 std::thread::_State_impl<std::thread::_Invoker<std::tuple<void (*)()> > >::~_State_impl
FUNC 1982f0 b 0 std::thread::_State_impl<std::thread::_Invoker<std::tuple<void (*)()> > >::~_State_impl
FUNC 198300 bf 0 std::thread::thread<void (&)()>
FUNC 1983c0 53a 0 std::vector<FS::LoadedPakInfo, std::allocator<FS::LoadedPakInfo> >::_M_realloc_insert<>
FUNC 198900 749 0 std::vector<FS::LoadedPakInfo, std::allocator<FS::LoadedPakInfo> >::operator=
FUNC 199050 4df 0 std::vector<FS::PakInfo, std::allocator<FS::PakInfo> >::_M_realloc_insert<const FS::PakInfo&>
FUNC 199530 40a 0 std::vector<FS::PakInfo, std::allocator<FS::PakInfo> >::_M_realloc_insert<FS::PakInfo>
FUNC 199940 87 0 std::vector<FS::PakInfo, std::allocator<FS::PakInfo> >::~vector
FUNC 1999d0 4e9 0 std::vector<FS::PakInfo, std::allocator<FS::PakInfo> >::operator=
FUNC 199ec0 78 0 std::vector<FS::RawPath::DirectoryRange, std::allocator<FS::RawPath::DirectoryRange> >::emplace_back<FS::RawPath::DirectoryRange>
FUNC 199f40 29d 0 std::vector<FS::RawPath::DirectoryRange, std::allocator<FS::RawPath::DirectoryRange> >::_M_realloc_insert<FS::RawPath::DirectoryRange>
FUNC 19a1e0 27d 0 std::vector<Cmd::BufferEntry, std::allocator<Cmd::BufferEntry> >::_M_realloc_insert<Cmd::BufferEntry>
FUNC 19a460 fd 0 std::vector<Cmd::delayRecord_t, std::allocator<Cmd::delayRecord_t> >::emplace_back<Cmd::delayRecord_t>
FUNC 19a560 3cd 0 std::vector<Cmd::delayRecord_t, std::allocator<Cmd::delayRecord_t> >::_M_realloc_insert<Cmd::delayRecord_t>
FUNC 19a930 1c2 0 std::vector<Cmd::delayRecord_t, std::allocator<Cmd::delayRecord_t> >::_M_erase
FUNC 19ab00 123 0 std::vector<IPC::FileDesc, std::allocator<IPC::FileDesc> >::_M_realloc_insert<>
FUNC 19ac30 137 0 std::vector<IPC::FileDesc, std::allocator<IPC::FileDesc> >::_M_realloc_insert<const IPC::FileDesc&>
FUNC 19ad70 339 0 std::vector<Log::Event, std::allocator<Log::Event> >::_M_realloc_insert<const Log::Event&>
FUNC 19b0b0 8a 0 std::vector<std::__cxx11::basic_string<char, std::char_traits<char>, std::allocator<char> >, std::allocator<std::__cxx11::basic_string<char, std::char_traits<char>, std::allocator<char> > > >::emplace_back<std::__cxx11::basic_string<char, std::char_traits<char>, std::allocator<char> > >
FUNC 19b140 21c 0 std::vector<std::__cxx11::basic_string<char, std::char_traits<char>, std::allocator<char> >, std::allocator<std::__cxx11::basic_string<char, std::char_traits<char>, std::allocator<char> > > >::_M_default_append
FUNC 19b360 339 0 std::vector<std::__cxx11::basic_string<char, std::char_traits<char>, std::allocator<char> >, std::allocator<std::__cxx11::basic_string<char, std::char_traits<char>, std::allocator<char> > > >::_M_realloc_insert<const std::__cxx11::basic_string<char, std::char_traits<char>, std::allocator<char> >&>
FUNC 19b6a0 37d 0 std::vector<std::__cxx11::basic_string<char, std::char_traits<char>, std::allocator<char> >, std::allocator<std::__cxx11::basic_string<char, std::char_traits<char>, std::allocator<char> > > >::_M_realloc_insert<std::__cxx11::basic_string<char, std::char_traits<char>, std::allocator<char> >&, unsigned int&, unsigned int>
FUNC 19ba20 279 0 std::vector<std::__cxx11::basic_string<char, std::char_traits<char>, std::allocator<char> >, std::allocator<std::__cxx11::basic_string<char, std::char_traits<char>, std::allocator<char> > > >::_M_realloc_insert<std::__cxx11::basic_string<char, std::char_traits<char>, std::allocator<char> > >
FUNC 19bca0 5f 0 std::vector<std::__cxx11::basic_string<char, std::char_traits<char>, std::allocator<char> >, std::allocator<std::__cxx11::basic_string<char, std::char_traits<char>, std::allocator<char> > > >::~vector
FUNC 19bd00 41f 0 std::vector<std::__cxx11::basic_string<char, std::char_traits<char>, std::allocator<char> >, std::allocator<std::__cxx11::basic_string<char, std::char_traits<char>, std::allocator<char> > > >::operator=
FUNC 19c120 114 0 std::vector<const Cmd::aliasRecord_t*, std::allocator<const Cmd::aliasRecord_t*> >::_M_realloc_insert<const Cmd::aliasRecord_t*>
FUNC 19c240 114 0 std::vector<const Cmd::commandRecord_t*, std::allocator<const Cmd::commandRecord_t*> >::_M_realloc_insert<const Cmd::commandRecord_t*>
FUNC 19c360 114 0 std::vector<const std::__cxx11::basic_string<char, std::char_traits<char>, std::allocator<char> >*, std::allocator<const std::__cxx11::basic_string<char, std::char_traits<char>, std::allocator<char> >*> >::_M_realloc_insert<const std::__cxx11::basic_string<char, std::char_traits<char>, std::allocator<char> >*>
FUNC 19c480 45 0 std::vector<char const*, std::allocator<char const*> >::emplace_back<char const*>
FUNC 19c4d0 114 0 std::vector<char const*, std::allocator<char const*> >::_M_realloc_insert<char const*>
FUNC 19c5f0 114 0 std::vector<tinygettext::LanguageSpec*, std::allocator<tinygettext::LanguageSpec*> >::_M_realloc_insert<tinygettext::LanguageSpec*>
FUNC 19c710 114 0 std::vector<google_breakpad::ExceptionHandler*, std::allocator<google_breakpad::ExceptionHandler*> >::_M_realloc_insert<google_breakpad::ExceptionHandler*>
FUNC 19c830 114 0 std::vector<Cvar::cvarRecord_t*, std::allocator<Cvar::cvarRecord_t*> >::_M_realloc_insert<Cvar::cvarRecord_t* const&>
FUNC 19c950 114 0 std::vector<char*, std::allocator<char*> >::_M_realloc_insert<char* const&>
FUNC 19ca70 114 0 std::vector<void*, std::allocator<void*> >::_M_realloc_insert<void* const&>
FUNC 19cb90 20b 0 std::vector<std::unique_ptr<VM::CommonVMServices::ProxyCvar, std::default_delete<VM::CommonVMServices::ProxyCvar> >, std::allocator<std::unique_ptr<VM::CommonVMServices::ProxyCvar, std::default_delete<VM::CommonVMServices::ProxyCvar> > > >::_M_realloc_insert<VM::CommonVMServices::ProxyCvar*>
FUNC 19cda0 107 0 std::vector<std::pair<std::__cxx11::basic_string<char, std::char_traits<char>, std::allocator<char> >, std::__cxx11::basic_string<char, std::char_traits<char>, std::allocator<char> > >, std::allocator<std::pair<std::__cxx11::basic_string<char, std::char_traits<char>, std::allocator<char> >, std::__cxx11::basic_string<char, std::char_traits<char>, std::allocator<char> > > > >::emplace_back<std::__cxx11::basic_string<char, std::char_traits<char>, std::allocator<char> >&, char const (&)[1]>
FUNC 19ceb0 dd 0 std::vector<std::pair<std::__cxx11::basic_string<char, std::char_traits<char>, std::allocator<char> >, std::__cxx11::basic_string<char, std::char_traits<char>, std::allocator<char> > >, std::allocator<std::pair<std::__cxx11::basic_string<char, std::char_traits<char>, std::allocator<char> >, std::__cxx11::basic_string<char, std::char_traits<char>, std::allocator<char> > > > >::emplace_back<std::pair<std::__cxx11::basic_string<char, std::char_traits<char>, std::allocator<char> >, std::__cxx11::basic_string<char, std::char_traits<char>, std::allocator<char> > > >
FUNC 19cf90 2bc 0 std::vector<std::pair<std::__cxx11::basic_string<char, std::char_traits<char>, std::allocator<char> >, std::__cxx11::basic_string<char, std::char_traits<char>, std::allocator<char> > >, std::allocator<std::pair<std::__cxx11::basic_string<char, std::char_traits<char>, std::allocator<char> >, std::__cxx11::basic_string<char, std::char_traits<char>, std::allocator<char> > > > >::_M_default_append
FUNC 19d250 455 0 std::vector<std::pair<std::__cxx11::basic_string<char, std::char_traits<char>, std::allocator<char> >, std::__cxx11::basic_string<char, std::char_traits<char>, std::allocator<char> > >, std::allocator<std::pair<std::__cxx11::basic_string<char, std::char_traits<char>, std::allocator<char> >, std::__cxx11::basic_string<char, std::char_traits<char>, std::allocator<char> > > > >::_M_realloc_insert<std::__cxx11::basic_string<char, std::char_traits<char>, std::allocator<char> >&, char const (&)[1]>
FUNC 19d6b0 3ad 0 std::vector<std::pair<std::__cxx11::basic_string<char, std::char_traits<char>, std::allocator<char> >, std::__cxx11::basic_string<char, std::char_traits<char>, std::allocator<char> > >, std::allocator<std::pair<std::__cxx11::basic_string<char, std::char_traits<char>, std::allocator<char> >, std::__cxx11::basic_string<char, std::char_traits<char>, std::allocator<char> > > > >::_M_realloc_insert<std::pair<std::__cxx11::basic_string<char, std::char_traits<char>, std::allocator<char> >, std::__cxx11::basic_string<char, std::char_traits<char>, std::allocator<char> > > >
FUNC 19da60 72 0 std::vector<std::pair<std::__cxx11::basic_string<char, std::char_traits<char>, std::allocator<char> >, std::__cxx11::basic_string<char, std::char_traits<char>, std::allocator<char> > >, std::allocator<std::pair<std::__cxx11::basic_string<char, std::char_traits<char>, std::allocator<char> >, std::__cxx11::basic_string<char, std::char_traits<char>, std::allocator<char> > > > >::~vector
FUNC 19dae0 ed 0 std::vector<std::tuple<std::__cxx11::basic_string<char, std::char_traits<char>, std::allocator<char> >, std::__cxx11::basic_string<char, std::char_traits<char>, std::allocator<char> >, unsigned int>, std::allocator<std::tuple<std::__cxx11::basic_string<char, std::char_traits<char>, std::allocator<char> >, std::__cxx11::basic_string<char, std::char_traits<char>, std::allocator<char> >, unsigned int> > >::emplace_back<std::__cxx11::basic_string<char, std::char_traits<char>, std::allocator<char> >, std::__cxx11::basic_string<char, std::char_traits<char>, std::allocator<char> >, unsigned int&>
FUNC 19dbd0 3d1 0 std::vector<std::tuple<std::__cxx11::basic_string<char, std::char_traits<char>, std::allocator<char> >, std::__cxx11::basic_string<char, std::char_traits<char>, std::allocator<char> >, unsigned int>, std::allocator<std::tuple<std::__cxx11::basic_string<char, std::char_traits<char>, std::allocator<char> >, std::__cxx11::basic_string<char, std::char_traits<char>, std::allocator<char> >, unsigned int> > >::_M_realloc_insert<std::__cxx11::basic_string<char, std::char_traits<char>, std::allocator<char> >, std::__cxx11::basic_string<char, std::char_traits<char>, std::allocator<char> >, unsigned int&>
FUNC 19dfb0 245 0 std::vector<char, std::allocator<char> >::_M_range_insert<char const*>
FUNC 19e200 245 0 std::vector<char, std::allocator<char> >::_M_range_insert<char*>
FUNC 19e450 11a 0 std::vector<unsigned char, std::allocator<unsigned char> >::emplace_back<unsigned char>
FUNC 19e570 213 0 std::vector<unsigned char, std::allocator<unsigned char> >::_M_fill_insert
FUNC 19e790 57 0 std::vector<unsigned char, std::allocator<unsigned char> >::_M_erase
FUNC 19e7f0 11b 0 std::vector<unsigned char, std::allocator<unsigned char> >::operator=
FUNC 19e910 30f 0 std::__cxx11::basic_string<char32_t, std::char_traits<char32_t>, std::allocator<char32_t> >::_M_replace
FUNC 19ec20 6d 0 std::__cxx11::basic_string<char32_t, std::char_traits<char32_t>, std::allocator<char32_t> >::_M_erase
FUNC 19ec90 131 0 std::__cxx11::basic_string<char32_t, std::char_traits<char32_t>, std::allocator<char32_t> >::_M_mutate
FUNC 19edd0 2ae 0 std::__cxx11::basic_string<unsigned char, std::char_traits<unsigned char>, std::allocator<unsigned char> >::_M_replace
FUNC 19f080 12e 0 std::__cxx11::basic_string<unsigned char, std::char_traits<unsigned char>, std::allocator<unsigned char> >::_M_mutate
FUNC 19f1b0 a2 0 std::__cxx11::basic_string<wchar_t, std::char_traits<wchar_t>, std::allocator<wchar_t> >::_M_construct<wchar_t const*>
FUNC 19f260 30 0 std::__cxx11::basic_stringbuf<char, std::char_traits<char>, std::allocator<char> >::~basic_stringbuf
FUNC 19f290 3a 0 std::_Rb_tree<tinygettext::Language, tinygettext::Language, std::_Identity<tinygettext::Language>, std::less<tinygettext::Language>, std::allocator<tinygettext::Language> >::_M_erase
FUNC 19f2d0 90 0 std::_Rb_tree<tinygettext::Language, std::pair<const tinygettext::Language, tinygettext::Dictionary*>, std::_Select1st<std::pair<const tinygettext::Language, tinygettext::Dictionary*> >, std::less<tinygettext::Language>, std::allocator<std::pair<const tinygettext::Language, tinygettext::Dictionary*> > >::_M_get_insert_unique_pos
FUNC 19f360 db 0 std::_Rb_tree<tinygettext::Language, std::pair<const tinygettext::Language, tinygettext::Dictionary*>, std::_Select1st<std::pair<const tinygettext::Language, tinygettext::Dictionary*> >, std::less<tinygettext::Language>, std::allocator<std::pair<const tinygettext::Language, tinygettext::Dictionary*> > >::_M_get_insert_hint_unique_pos
FUNC 19f440 3a 0 std::_Rb_tree<tinygettext::Language, std::pair<const tinygettext::Language, tinygettext::Dictionary*>, std::_Select1st<std::pair<const tinygettext::Language, tinygettext::Dictionary*> >, std::less<tinygettext::Language>, std::allocator<std::pair<const tinygettext::Language, tinygettext::Dictionary*> > >::_M_erase
FUNC 19f480 4c 0 std::_Rb_tree<std::__cxx11::basic_string<char, std::char_traits<char>, std::allocator<char> >, std::__cxx11::basic_string<char, std::char_traits<char>, std::allocator<char> >, std::_Identity<std::__cxx11::basic_string<char, std::char_traits<char>, std::allocator<char> > >, std::less<std::__cxx11::basic_string<char, std::char_traits<char>, std::allocator<char> > >, std::allocator<std::__cxx11::basic_string<char, std::char_traits<char>, std::allocator<char> > > >::_M_erase
FUNC 19f4d0 10e 0 std::_Rb_tree<std::__cxx11::basic_string<char, std::char_traits<char>, std::allocator<char> >, std::pair<const std::__cxx11::basic_string<char, std::char_traits<char>, std::allocator<char> >, tinygettext::PluralForms>, std::_Select1st<std::pair<const std::__cxx11::basic_string<char, std::char_traits<char>, std::allocator<char> >, tinygettext::PluralForms> >, std::less<std::__cxx11::basic_string<char, std::char_traits<char>, std::allocator<char> > >, std::allocator<std::pair<const std::__cxx11::basic_string<char, std::char_traits<char>, std::allocator<char> >, tinygettext::PluralForms> > >::_M_get_insert_unique_pos
FUNC 19f5e0 209 0 std::_Rb_tree<std::__cxx11::basic_string<char, std::char_traits<char>, std::allocator<char> >, std::pair<const std::__cxx11::basic_string<char, std::char_traits<char>, std::allocator<char> >, tinygettext::PluralForms>, std::_Select1st<std::pair<const std::__cxx11::basic_string<char, std::char_traits<char>, std::allocator<char> >, tinygettext::PluralForms> >, std::less<std::__cxx11::basic_string<char, std::char_traits<char>, std::allocator<char> > >, std::allocator<std::pair<const std::__cxx11::basic_string<char, std::char_traits<char>, std::allocator<char> >, tinygettext::PluralForms> > >::_M_get_insert_hint_unique_pos
FUNC 19f7f0 4c 0 std::_Rb_tree<std::__cxx11::basic_string<char, std::char_traits<char>, std::allocator<char> >, std::pair<const std::__cxx11::basic_string<char, std::char_traits<char>, std::allocator<char> >, tinygettext::PluralForms>, std::_Select1st<std::pair<const std::__cxx11::basic_string<char, std::char_traits<char>, std::allocator<char> >, tinygettext::PluralForms> >, std::less<std::__cxx11::basic_string<char, std::char_traits<char>, std::allocator<char> > >, std::allocator<std::pair<const std::__cxx11::basic_string<char, std::char_traits<char>, std::allocator<char> >, tinygettext::PluralForms> > >::_M_erase
FUNC 19f840 174 0 std::_Rb_tree<std::__cxx11::basic_string<char, std::char_traits<char>, std::allocator<char> >, std::pair<const std::__cxx11::basic_string<char, std::char_traits<char>, std::allocator<char> >, std::__cxx11::basic_string<char, std::char_traits<char>, std::allocator<char> > >, std::_Select1st<std::pair<const std::__cxx11::basic_string<char, std::char_traits<char>, std::allocator<char> >, std::__cxx11::basic_string<char, std::char_traits<char>, std::allocator<char> > > >, std::less<std::__cxx11::basic_string<char, std::char_traits<char>, std::allocator<char> > >, std::allocator<std::pair<const std::__cxx11::basic_string<char, std::char_traits<char>, std::allocator<char> >, std::__cxx11::basic_string<char, std::char_traits<char>, std::allocator<char> > > > >::equal_range
FUNC 19f9c0 10e 0 std::_Rb_tree<std::__cxx11::basic_string<char, std::char_traits<char>, std::allocator<char> >, std::pair<const std::__cxx11::basic_string<char, std::char_traits<char>, std::allocator<char> >, std::__cxx11::basic_string<char, std::char_traits<char>, std::allocator<char> > >, std::_Select1st<std::pair<const std::__cxx11::basic_string<char, std::char_traits<char>, std::allocator<char> >, std::__cxx11::basic_string<char, std::char_traits<char>, std::allocator<char> > > >, std::less<std::__cxx11::basic_string<char, std::char_traits<char>, std::allocator<char> > >, std::allocator<std::pair<const std::__cxx11::basic_string<char, std::char_traits<char>, std::allocator<char> >, std::__cxx11::basic_string<char, std::char_traits<char>, std::allocator<char> > > > >::_M_get_insert_unique_pos
FUNC 19fad0 209 0 std::_Rb_tree<std::__cxx11::basic_string<char, std::char_traits<char>, std::allocator<char> >, std::pair<const std::__cxx11::basic_string<char, std::char_traits<char>, std::allocator<char> >, std::__cxx11::basic_string<char, std::char_traits<char>, std::allocator<char> > >, std::_Select1st<std::pair<const std::__cxx11::basic_string<char, std::char_traits<char>, std::allocator<char> >, std::__cxx11::basic_string<char, std::char_traits<char>, std::allocator<char> > > >, std::less<std::__cxx11::basic_string<char, std::char_traits<char>, std::allocator<char> > >, std::allocator<std::pair<const std::__cxx11::basic_string<char, std::char_traits<char>, std::allocator<char> >, std::__cxx11::basic_string<char, std::char_traits<char>, std::allocator<char> > > > >::_M_get_insert_hint_unique_pos
FUNC 19fce0 fb 0 std::_Rb_tree<std::__cxx11::basic_string<char, std::char_traits<char>, std::allocator<char> >, std::pair<const std::__cxx11::basic_string<char, std::char_traits<char>, std::allocator<char> >, std::__cxx11::basic_string<char, std::char_traits<char>, std::allocator<char> > >, std::_Select1st<std::pair<const std::__cxx11::basic_string<char, std::char_traits<char>, std::allocator<char> >, std::__cxx11::basic_string<char, std::char_traits<char>, std::allocator<char> > > >, std::less<std::__cxx11::basic_string<char, std::char_traits<char>, std::allocator<char> > >, std::allocator<std::pair<const std::__cxx11::basic_string<char, std::char_traits<char>, std::allocator<char> >, std::__cxx11::basic_string<char, std::char_traits<char>, std::allocator<char> > > > >::erase
FUNC 19fde0 5e 0 std::_Rb_tree<std::__cxx11::basic_string<char, std::char_traits<char>, std::allocator<char> >, std::pair<const std::__cxx11::basic_string<char, std::char_traits<char>, std::allocator<char> >, std::__cxx11::basic_string<char, std::char_traits<char>, std::allocator<char> > >, std::_Select1st<std::pair<const std::__cxx11::basic_string<char, std::char_traits<char>, std::allocator<char> >, std::__cxx11::basic_string<char, std::char_traits<char>, std::allocator<char> > > >, std::less<std::__cxx11::basic_string<char, std::char_traits<char>, std::allocator<char> > >, std::allocator<std::pair<const std::__cxx11::basic_string<char, std::char_traits<char>, std::allocator<char> >, std::__cxx11::basic_string<char, std::char_traits<char>, std::allocator<char> > > > >::_M_erase
FUNC 19fe40 10e 0 std::_Rb_tree<std::__cxx11::basic_string<char, std::char_traits<char>, std::allocator<char> >, std::pair<const std::__cxx11::basic_string<char, std::char_traits<char>, std::allocator<char> >, std::map<std::__cxx11::basic_string<char, std::char_traits<char>, std::allocator<char> >, std::vector<std::__cxx11::basic_string<char, std::char_traits<char>, std::allocator<char> >, std::allocator<std::__cxx11::basic_string<char, std::char_traits<char>, std::allocator<char> > > >, std::less<std::__cxx11::basic_string<char, std::char_traits<char>, std::allocator<char> > >, std::allocator<std::pair<const std::__cxx11::basic_string<char, std::char_traits<char>, std::allocator<char> >, std::vector<std::__cxx11::basic_string<char, std::char_traits<char>, std::allocator<char> >, std::allocator<std::__cxx11::basic_string<char, std::char_traits<char>, std::allocator<char> > > > > > > >, std::_Select1st<std::pair<const std::__cxx11::basic_string<char, std::char_traits<char>, std::allocator<char> >, std::map<std::__cxx11::basic_string<char, std::char_traits<char>, std::allocator<char> >, std::vector<std::__cxx11::basic_string<char, std::char_traits<char>, std::allocator<char> >, std::allocator<std::__cxx11::basic_string<char, std::char_traits<char>, std::allocator<char> > > >, std::less<std::__cxx11::basic_string<char, std::char_traits<char>, std::allocator<char> > >, std::allocator<std::pair<const std::__cxx11::basic_string<char, std::char_traits<char>, std::allocator<char> >, std::vector<std::__cxx11::basic_string<char, std::char_traits<char>, std::allocator<char> >, std::allocator<std::__cxx11::basic_string<char, std::char_traits<char>, std::allocator<char> > > > > > > > >, std::less<std::__cxx11::basic_string<char, std::char_traits<char>, std::allocator<char> > >, std::allocator<std::pair<const std::__cxx11::basic_string<char, std::char_traits<char>, std::allocator<char> >, std::map<std::__cxx11::basic_string<char, std::char_traits<char>, std::allocator<char> >, std::vector<std::__cxx11::basic_string<char, std::char_traits<char>, std::allocator<char> >, std::allocator<std::__cxx11::basic_string<char, std::char_traits<char>, std::allocator<char> > > >, std::less<std::__cxx11::basic_string<char, std::char_traits<char>, std::allocator<char> > >, std::allocator<std::pair<const std::__cxx11::basic_string<char, std::char_traits<char>, std::allocator<char> >, std::vector<std::__cxx11::basic_string<char, std::char_traits<char>, std::allocator<char> >, std::allocator<std::__cxx11::basic_string<char, std::char_traits<char>, std::allocator<char> > > > > > > > > >::_M_get_insert_unique_pos
FUNC 19ff50 209 0 std::_Rb_tree<std::__cxx11::basic_string<char, std::char_traits<char>, std::allocator<char> >, std::pair<const std::__cxx11::basic_string<char, std::char_traits<char>, std::allocator<char> >, std::map<std::__cxx11::basic_string<char, std::char_traits<char>, std::allocator<char> >, std::vector<std::__cxx11::basic_string<char, std::char_traits<char>, std::allocator<char> >, std::allocator<std::__cxx11::basic_string<char, std::char_traits<char>, std::allocator<char> > > >, std::less<std::__cxx11::basic_string<char, std::char_traits<char>, std::allocator<char> > >, std::allocator<std::pair<const std::__cxx11::basic_string<char, std::char_traits<char>, std::allocator<char> >, std::vector<std::__cxx11::basic_string<char, std::char_traits<char>, std::allocator<char> >, std::allocator<std::__cxx11::basic_string<char, std::char_traits<char>, std::allocator<char> > > > > > > >, std::_Select1st<std::pair<const std::__cxx11::basic_string<char, std::char_traits<char>, std::allocator<char> >, std::map<std::__cxx11::basic_string<char, std::char_traits<char>, std::allocator<char> >, std::vector<std::__cxx11::basic_string<char, std::char_traits<char>, std::allocator<char> >, std::allocator<std::__cxx11::basic_string<char, std::char_traits<char>, std::allocator<char> > > >, std::less<std::__cxx11::basic_string<char, std::char_traits<char>, std::allocator<char> > >, std::allocator<std::pair<const std::__cxx11::basic_string<char, std::char_traits<char>, std::allocator<char> >, std::vector<std::__cxx11::basic_string<char, std::char_traits<char>, std::allocator<char> >, std::allocator<std::__cxx11::basic_string<char, std::char_traits<char>, std::allocator<char> > > > > > > > >, std::less<std::__cxx11::basic_string<char, std::char_traits<char>, std::allocator<char> > >, std::allocator<std::pair<const std::__cxx11::basic_string<char, std::char_traits<char>, std::allocator<char> >, std::map<std::__cxx11::basic_string<char, std::char_traits<char>, std::allocator<char> >, std::vector<std::__cxx11::basic_string<char, std::char_traits<char>, std::allocator<char> >, std::allocator<std::__cxx11::basic_string<char, std::char_traits<char>, std::allocator<char> > > >, std::less<std::__cxx11::basic_string<char, std::char_traits<char>, std::allocator<char> > >, std::allocator<std::pair<const std::__cxx11::basic_string<char, std::char_traits<char>, std::allocator<char> >, std::vector<std::__cxx11::basic_string<char, std::char_traits<char>, std::allocator<char> >, std::allocator<std::__cxx11::basic_string<char, std::char_traits<char>, std::allocator<char> > > > > > > > > >::_M_get_insert_hint_unique_pos
FUNC 1a0160 cd 0 std::_Rb_tree<std::__cxx11::basic_string<char, std::char_traits<char>, std::allocator<char> >, std::pair<const std::__cxx11::basic_string<char, std::char_traits<char>, std::allocator<char> >, std::map<std::__cxx11::basic_string<char, std::char_traits<char>, std::allocator<char> >, std::vector<std::__cxx11::basic_string<char, std::char_traits<char>, std::allocator<char> >, std::allocator<std::__cxx11::basic_string<char, std::char_traits<char>, std::allocator<char> > > >, std::less<std::__cxx11::basic_string<char, std::char_traits<char>, std::allocator<char> > >, std::allocator<std::pair<const std::__cxx11::basic_string<char, std::char_traits<char>, std::allocator<char> >, std::vector<std::__cxx11::basic_string<char, std::char_traits<char>, std::allocator<char> >, std::allocator<std::__cxx11::basic_string<char, std::char_traits<char>, std::allocator<char> > > > > > > >, std::_Select1st<std::pair<const std::__cxx11::basic_string<char, std::char_traits<char>, std::allocator<char> >, std::map<std::__cxx11::basic_string<char, std::char_traits<char>, std::allocator<char> >, std::vector<std::__cxx11::basic_string<char, std::char_traits<char>, std::allocator<char> >, std::allocator<std::__cxx11::basic_string<char, std::char_traits<char>, std::allocator<char> > > >, std::less<std::__cxx11::basic_string<char, std::char_traits<char>, std::allocator<char> > >, std::allocator<std::pair<const std::__cxx11::basic_string<char, std::char_traits<char>, std::allocator<char> >, std::vector<std::__cxx11::basic_string<char, std::char_traits<char>, std::allocator<char> >, std::allocator<std::__cxx11::basic_string<char, std::char_traits<char>, std::allocator<char> > > > > > > > >, std::less<std::__cxx11::basic_string<char, std::char_traits<char>, std::allocator<char> > >, std::allocator<std::pair<const std::__cxx11::basic_string<char, std::char_traits<char>, std::allocator<char> >, std::map<std::__cxx11::basic_string<char, std::char_traits<char>, std::allocator<char> >, std::vector<std::__cxx11::basic_string<char, std::char_traits<char>, std::allocator<char> >, std::allocator<std::__cxx11::basic_string<char, std::char_traits<char>, std::allocator<char> > > >, std::less<std::__cxx11::basic_string<char, std::char_traits<char>, std::allocator<char> > >, std::allocator<std::pair<const std::__cxx11::basic_string<char, std::char_traits<char>, std::allocator<char> >, std::vector<std::__cxx11::basic_string<char, std::char_traits<char>, std::allocator<char> >, std::allocator<std::__cxx11::basic_string<char, std::char_traits<char>, std::allocator<char> > > > > > > > > >::find
FUNC 1a0230 5d 0 std::_Rb_tree<std::__cxx11::basic_string<char, std::char_traits<char>, std::allocator<char> >, std::pair<const std::__cxx11::basic_string<char, std::char_traits<char>, std::allocator<char> >, std::map<std::__cxx11::basic_string<char, std::char_traits<char>, std::allocator<char> >, std::vector<std::__cxx11::basic_string<char, std::char_traits<char>, std::allocator<char> >, std::allocator<std::__cxx11::basic_string<char, std::char_traits<char>, std::allocator<char> > > >, std::less<std::__cxx11::basic_string<char, std::char_traits<char>, std::allocator<char> > >, std::allocator<std::pair<const std::__cxx11::basic_string<char, std::char_traits<char>, std::allocator<char> >, std::vector<std::__cxx11::basic_string<char, std::char_traits<char>, std::allocator<char> >, std::allocator<std::__cxx11::basic_string<char, std::char_traits<char>, std::allocator<char> > > > > > > >, std::_Select1st<std::pair<const std::__cxx11::basic_string<char, std::char_traits<char>, std::allocator<char> >, std::map<std::__cxx11::basic_string<char, std::char_traits<char>, std::allocator<char> >, std::vector<std::__cxx11::basic_string<char, std::char_traits<char>, std::allocator<char> >, std::allocator<std::__cxx11::basic_string<char, std::char_traits<char>, std::allocator<char> > > >, std::less<std::__cxx11::basic_string<char, std::char_traits<char>, std::allocator<char> > >, std::allocator<std::pair<const std::__cxx11::basic_string<char, std::char_traits<char>, std::allocator<char> >, std::vector<std::__cxx11::basic_string<char, std::char_traits<char>, std::allocator<char> >, std::allocator<std::__cxx11::basic_string<char, std::char_traits<char>, std::allocator<char> > > > > > > > >, std::less<std::__cxx11::basic_string<char, std::char_traits<char>, std::allocator<char> > >, std::allocator<std::pair<const std::__cxx11::basic_string<char, std::char_traits<char>, std::allocator<char> >, std::map<std::__cxx11::basic_string<char, std::char_traits<char>, std::allocator<char> >, std::vector<std::__cxx11::basic_string<char, std::char_traits<char>, std::allocator<char> >, std::allocator<std::__cxx11::basic_string<char, std::char_traits<char>, std::allocator<char> > > >, std::less<std::__cxx11::basic_string<char, std::char_traits<char>, std::allocator<char> > >, std::allocator<std::pair<const std::__cxx11::basic_string<char, std::char_traits<char>, std::allocator<char> >, std::vector<std::__cxx11::basic_string<char, std::char_traits<char>, std::allocator<char> >, std::allocator<std::__cxx11::basic_string<char, std::char_traits<char>, std::allocator<char> > > > > > > > > >::_M_erase
FUNC 1a0290 10e 0 std::_Rb_tree<std::__cxx11::basic_string<char, std::char_traits<char>, std::allocator<char> >, std::pair<const std::__cxx11::basic_string<char, std::char_traits<char>, std::allocator<char> >, std::vector<tinygettext::LanguageSpec*, std::allocator<tinygettext::LanguageSpec*> > >, std::_Select1st<std::pair<const std::__cxx11::basic_string<char, std::char_traits<char>, std::allocator<char> >, std::vector<tinygettext::LanguageSpec*, std::allocator<tinygettext::LanguageSpec*> > > >, std::less<std::__cxx11::basic_string<char, std::char_traits<char>, std::allocator<char> > >, std::allocator<std::pair<const std::__cxx11::basic_string<char, std::char_traits<char>, std::allocator<char> >, std::vector<tinygettext::LanguageSpec*, std::allocator<tinygettext::LanguageSpec*> > > > >::_M_get_insert_unique_pos
FUNC 1a03a0 209 0 std::_Rb_tree<std::__cxx11::basic_string<char, std::char_traits<char>, std::allocator<char> >, std::pair<const std::__cxx11::basic_string<char, std::char_traits<char>, std::allocator<char> >, std::vector<tinygettext::LanguageSpec*, std::allocator<tinygettext::LanguageSpec*> > >, std::_Select1st<std::pair<const std::__cxx11::basic_string<char, std::char_traits<char>, std::allocator<char> >, std::vector<tinygettext::LanguageSpec*, std::allocator<tinygettext::LanguageSpec*> > > >, std::less<std::__cxx11::basic_string<char, std::char_traits<char>, std::allocator<char> > >, std::allocator<std::pair<const std::__cxx11::basic_string<char, std::char_traits<char>, std::allocator<char> >, std::vector<tinygettext::LanguageSpec*, std::allocator<tinygettext::LanguageSpec*> > > > >::_M_get_insert_hint_unique_pos
FUNC 1a05b0 5b 0 std::_Rb_tree<std::__cxx11::basic_string<char, std::char_traits<char>, std::allocator<char> >, std::pair<const std::__cxx11::basic_string<char, std::char_traits<char>, std::allocator<char> >, std::vector<tinygettext::LanguageSpec*, std::allocator<tinygettext::LanguageSpec*> > >, std::_Select1st<std::pair<const std::__cxx11::basic_string<char, std::char_traits<char>, std::allocator<char> >, std::vector<tinygettext::LanguageSpec*, std::allocator<tinygettext::LanguageSpec*> > > >, std::less<std::__cxx11::basic_string<char, std::char_traits<char>, std::allocator<char> > >, std::allocator<std::pair<const std::__cxx11::basic_string<char, std::char_traits<char>, std::allocator<char> >, std::vector<tinygettext::LanguageSpec*, std::allocator<tinygettext::LanguageSpec*> > > > >::_M_erase
FUNC 1a0610 10e 0 std::_Rb_tree<std::__cxx11::basic_string<char, std::char_traits<char>, std::allocator<char> >, std::pair<const std::__cxx11::basic_string<char, std::char_traits<char>, std::allocator<char> >, std::vector<std::__cxx11::basic_string<char, std::char_traits<char>, std::allocator<char> >, std::allocator<std::__cxx11::basic_string<char, std::char_traits<char>, std::allocator<char> > > > >, std::_Select1st<std::pair<const std::__cxx11::basic_string<char, std::char_traits<char>, std::allocator<char> >, std::vector<std::__cxx11::basic_string<char, std::char_traits<char>, std::allocator<char> >, std::allocator<std::__cxx11::basic_string<char, std::char_traits<char>, std::allocator<char> > > > > >, std::less<std::__cxx11::basic_string<char, std::char_traits<char>, std::allocator<char> > >, std::allocator<std::pair<const std::__cxx11::basic_string<char, std::char_traits<char>, std::allocator<char> >, std::vector<std::__cxx11::basic_string<char, std::char_traits<char>, std::allocator<char> >, std::allocator<std::__cxx11::basic_string<char, std::char_traits<char>, std::allocator<char> > > > > > >::_M_get_insert_unique_pos
FUNC 1a0720 209 0 std::_Rb_tree<std::__cxx11::basic_string<char, std::char_traits<char>, std::allocator<char> >, std::pair<const std::__cxx11::basic_string<char, std::char_traits<char>, std::allocator<char> >, std::vector<std::__cxx11::basic_string<char, std::char_traits<char>, std::allocator<char> >, std::allocator<std::__cxx11::basic_string<char, std::char_traits<char>, std::allocator<char> > > > >, std::_Select1st<std::pair<const std::__cxx11::basic_string<char, std::char_traits<char>, std::allocator<char> >, std::vector<std::__cxx11::basic_string<char, std::char_traits<char>, std::allocator<char> >, std::allocator<std::__cxx11::basic_string<char, std::char_traits<char>, std::allocator<char> > > > > >, std::less<std::__cxx11::basic_string<char, std::char_traits<char>, std::allocator<char> > >, std::allocator<std::pair<const std::__cxx11::basic_string<char, std::char_traits<char>, std::allocator<char> >, std::vector<std::__cxx11::basic_string<char, std::char_traits<char>, std::allocator<char> >, std::allocator<std::__cxx11::basic_string<char, std::char_traits<char>, std::allocator<char> > > > > > >::_M_get_insert_hint_unique_pos
FUNC 1a0930 a7 0 std::_Rb_tree<std::__cxx11::basic_string<char, std::char_traits<char>, std::allocator<char> >, std::pair<const std::__cxx11::basic_string<char, std::char_traits<char>, std::allocator<char> >, std::vector<std::__cxx11::basic_string<char, std::char_traits<char>, std::allocator<char> >, std::allocator<std::__cxx11::basic_string<char, std::char_traits<char>, std::allocator<char> > > > >, std::_Select1st<std::pair<const std::__cxx11::basic_string<char, std::char_traits<char>, std::allocator<char> >, std::vector<std::__cxx11::basic_string<char, std::char_traits<char>, std::allocator<char> >, std::allocator<std::__cxx11::basic_string<char, std::char_traits<char>, std::allocator<char> > > > > >, std::less<std::__cxx11::basic_string<char, std::char_traits<char>, std::allocator<char> > >, std::allocator<std::pair<const std::__cxx11::basic_string<char, std::char_traits<char>, std::allocator<char> >, std::vector<std::__cxx11::basic_string<char, std::char_traits<char>, std::allocator<char> >, std::allocator<std::__cxx11::basic_string<char, std::char_traits<char>, std::allocator<char> > > > > > >::_M_erase
FUNC 1a09e0 186 0 std::__detail::_Map_base<std::__cxx11::basic_string<char, std::char_traits<char>, std::allocator<char> >, std::pair<const std::__cxx11::basic_string<char, std::char_traits<char>, std::allocator<char> >, proxyInfo_t>, std::allocator<std::pair<const std::__cxx11::basic_string<char, std::char_traits<char>, std::allocator<char> >, proxyInfo_t> >, std::__detail::_Select1st, Str::IEqual, Str::IHash, std::__detail::_Mod_range_hashing, std::__detail::_Default_ranged_hash, std::__detail::_Prime_rehash_policy, std::__detail::_Hashtable_traits<true, false, true>, true>::operator[]
FUNC 1a0b70 1ba 0 std::__detail::_Map_base<std::__cxx11::basic_string<char, std::char_traits<char>, std::allocator<char> >, std::pair<const std::__cxx11::basic_string<char, std::char_traits<char>, std::allocator<char> >, proxyInfo_t>, std::allocator<std::pair<const std::__cxx11::basic_string<char, std::char_traits<char>, std::allocator<char> >, proxyInfo_t> >, std::__detail::_Select1st, Str::IEqual, Str::IHash, std::__detail::_Mod_range_hashing, std::__detail::_Default_ranged_hash, std::__detail::_Prime_rehash_policy, std::__detail::_Hashtable_traits<true, false, true>, true>::operator[]
FUNC 1a0d30 1d3 0 std::__detail::_Map_base<std::__cxx11::basic_string<char, std::char_traits<char>, std::allocator<char> >, std::pair<const std::__cxx11::basic_string<char, std::char_traits<char>, std::allocator<char> >, Cmd::aliasRecord_t>, std::allocator<std::pair<const std::__cxx11::basic_string<char, std::char_traits<char>, std::allocator<char> >, Cmd::aliasRecord_t> >, std::__detail::_Select1st, Str::IEqual, Str::IHash, std::__detail::_Mod_range_hashing, std::__detail::_Default_ranged_hash, std::__detail::_Prime_rehash_policy, std::__detail::_Hashtable_traits<true, false, true>, true>::operator[]
FUNC 1a0f10 1b3 0 std::__detail::_Map_base<std::__cxx11::basic_string<char, std::char_traits<char>, std::allocator<char> >, std::pair<const std::__cxx11::basic_string<char, std::char_traits<char>, std::allocator<char> >, Cvar::cvarRecord_t*>, std::allocator<std::pair<const std::__cxx11::basic_string<char, std::char_traits<char>, std::allocator<char> >, Cvar::cvarRecord_t*> >, std::__detail::_Select1st, Str::IEqual, Str::IHash, std::__detail::_Mod_range_hashing, std::__detail::_Default_ranged_hash, std::__detail::_Prime_rehash_policy, std::__detail::_Hashtable_traits<true, false, true>, true>::operator[]
FUNC 1a10d0 d6 0 std::function<std::vector<std::pair<std::__cxx11::basic_string<char, std::char_traits<char>, std::allocator<char> >, std::__cxx11::basic_string<char, std::char_traits<char>, std::allocator<char> > >, std::allocator<std::pair<std::__cxx11::basic_string<char, std::char_traits<char>, std::allocator<char> >, std::__cxx11::basic_string<char, std::char_traits<char>, std::allocator<char> > > > >(int, const Cmd::Args&, Str::BasicStringRef<char>)>::function
FUNC 1a11b0 d6 0 std::function<void(const Cmd::Args&)>::function
FUNC 1a1290 98c 0 std::__adjust_heap<__gnu_cxx::__normal_iterator<std::pair<std::__cxx11::basic_string<char>, std::__cxx11::basic_string<char> >*, std::vector<std::pair<std::__cxx11::basic_string<char>, std::__cxx11::basic_string<char> > > >, int, std::pair<std::__cxx11::basic_string<char>, std::__cxx11::basic_string<char> >, __gnu_cxx::__ops::_Iter_less_iter>
FUNC 1a1c20 4f1 0 std::__insertion_sort<__gnu_cxx::__normal_iterator<std::pair<std::__cxx11::basic_string<char>, std::__cxx11::basic_string<char> >*, std::vector<std::pair<std::__cxx11::basic_string<char>, std::__cxx11::basic_string<char> > > >, __gnu_cxx::__ops::_Iter_less_iter>
FUNC 1a2120 285 0 std::__rotate_adaptive<__gnu_cxx::__normal_iterator<FS::PakInfo*, std::vector<FS::PakInfo> >, FS::PakInfo*, int>
FUNC 1a23b0 28b 0 std::__unique<__gnu_cxx::__normal_iterator<std::pair<std::__cxx11::basic_string<char>, std::__cxx11::basic_string<char> >*, std::vector<std::pair<std::__cxx11::basic_string<char>, std::__cxx11::basic_string<char> > > >, __gnu_cxx::__ops::_Iter_equal_to_iter>
FUNC 1a2640 ea 0 std::__find_if<__gnu_cxx::__normal_iterator<char const*, std::__cxx11::basic_string<char> >, __gnu_cxx::__ops::_Iter_negate<bool (*)(int)> >
FUNC 1a2730 1f3 0 std::__find_if<__gnu_cxx::__normal_iterator<std::__cxx11::basic_string<char>*, std::vector<std::__cxx11::basic_string<char> > >, __gnu_cxx::__ops::_Iter_equals_val<const Util::optional<std::__cxx11::basic_string<char> > > >
FUNC 1a2930 ef 0 std::__find_if<char const*, __gnu_cxx::__ops::_Iter_equals_val<char const> >
FUNC 1a2a20 47 0 std::operator==<char>
FUNC 1a2a70 103 0 std::operator+<char, std::char_traits<char>, std::allocator<char> >
FUNC 1a2c20 5 0 gmtime
FUNC 1a2c30 5 0 localtime
FUNC 1a2c40 5 0 vsnprintf
FUNC 1a2c50 ea 0 _GLOBAL__sub_I__Z18Cmd_SaveCmdContextv
FUNC 1a2d40 9 0 std::default_delete<Sys::EventBase>::operator()
FUNC 1a2d50 3c 0 std::__cxx11::basic_string<char, std::char_traits<char>, std::allocator<char> >::basic_string
FUNC 1a2d90 6ef 0 __static_initialization_and_destruction_0
FUNC 1a3480 5 0 _GLOBAL__sub_I_com_crashed
FUNC 1a3490 1d 0 _GLOBAL__sub_I__Z14qnettle_randomPvjPh
FUNC 1a34b0 1d 0 _GLOBAL__sub_I_cvar_vars
FUNC 1a34d0 3c 0 std::__cxx11::basic_string<char, std::char_traits<char>, std::allocator<char> >::basic_string
FUNC 1a3510 3c5 0 _GLOBAL__sub_I__Z13FS_FileExistsPKc
FUNC 1a38e0 1d 0 _GLOBAL__sub_I__Z11Huff_putBitiPhPi
FUNC 1a3900 1d 0 _GLOBAL__sub_I__Z8MSG_InitP5msg_tPhi
FUNC 1a3920 1d 0 _GLOBAL__sub_I_showpackets
FUNC 1a3940 1d 0 _GLOBAL__sub_I_net_enabled
FUNC 1a3960 1d 0 _GLOBAL__sub_I_numtokens
FUNC 1a3980 3c 0 std::__cxx11::basic_string<char, std::char_traits<char>, std::allocator<char> >::basic_string
FUNC 1a39c0 215 0 _GLOBAL__sub_I_trans_manager
FUNC 1a3be0 1d 0 _GLOBAL__sub_I__ZN4rVecC2Efff
FUNC 1a3c00 a9 0 _GLOBAL__sub_I_numNavData
FUNC 1a3cb0 1d 0 _GLOBAL__sub_I__Z15BotCalcSteerDirP5Bot_tR4rVec
FUNC 1a3cd0 f8 0 _GLOBAL__sub_I_agents
FUNC 1a3dd0 1d 0 _GLOBAL__sub_I__Z20SV_BotAllocateClientv
FUNC 1a3df0 c9 0 _GLOBAL__sub_I__Z14SV_Heartbeat_fv
FUNC 1a3ec0 f6 0 _GLOBAL__sub_I__Z15SV_GetChallenge8netadr_t
FUNC 1a3fc0 1d 0 _GLOBAL__sub_I__Z18SV_SetConfigstringiPKc
FUNC 1a3fe0 419 0 _GLOBAL__sub_I_svs
FUNC 1a4400 1d 0 _GLOBAL__sub_I__Z20SV_Netchan_FreeQueueP8client_t
FUNC 1a4420 1d 0 _GLOBAL__sub_I__Z13SV_GentityNumi
FUNC 1a4440 1d 0 _GLOBAL__sub_I__Z31SV_UpdateServerCommandsToClientP8client_tP5msg_t
FUNC 1a4460 33 0 std::__cxx11::basic_string<char, std::char_traits<char>, std::allocator<char> >::basic_string
FUNC 1a44a0 3eb 0 _GLOBAL__sub_I__ZN9Challenge7TimeoutEv
FUNC 1a4890 1d 0 _GLOBAL__sub_I__ZN8Keyboard11StringToKeyEN3Str14BasicStringRefIcEE
FUNC 1a48b0 1d 0 _GLOBAL__sub_I_cl_shownet
FUNC 1a48d0 1d 0 _GLOBAL__sub_I__Z7IN_InitPv
FUNC 1a48f0 1d 0 _GLOBAL__sub_I__ZN11Application6GetAppEv
FUNC 1a4910 1d 0 _GLOBAL__sub_I_SDLCompat.cpp
FUNC 1a4930 1d 0 _GLOBAL__sub_I__ZN3Cmd6EscapeB5cxx11EN3Str14BasicStringRefIcEE
FUNC 1a4950 1d 0 _GLOBAL__sub_I__ZN4Cvar9CvarProxyC2ENSt7__cxx1112basic_stringIcSt11char_traitsIcESaIcEEEiS6_
FUNC 1a4970 ac 0 Sys::Error<std::__cxx11::basic_string<char, std::char_traits<char>, std::allocator<char> > >
FUNC 1a4a20 2ed 0 _GLOBAL__sub_I_fsLogs
FUNC 1a4d10 1d 0 _GLOBAL__sub_I__ZNK3IPC8FileDesc5CloseEv
FUNC 1a4d30 b4 0 Sys::Error<Str::BasicStringRef<char>&, std::__cxx11::basic_string<char, std::char_traits<char>, std::allocator<char> >&>
FUNC 1a4df0 f6 0 _GLOBAL__sub_I__ZN3Log6LoggerC2EN3Str14BasicStringRefIcEENSt7__cxx1112basic_stringIcSt11char_traitsIcESaIcEEENS_5LevelE
FUNC 1a4ef0 1d 0 _GLOBAL__sub_I__ZN3Str23AssertOnTinyFormatErrorENSt7__cxx1112basic_stringIcSt11char_traitsIcESaIcEEE
FUNC 1a4f10 1d 0 _GLOBAL__sub_I__ZN3Sys11SteadyClock3nowEv
FUNC 1a4f30 33 0 std::__cxx11::basic_string<char, std::char_traits<char>, std::allocator<char> >::basic_string
FUNC 1a4f70 1d9 0 _GLOBAL__sub_I_cm
FUNC 1a5150 17 0 CMod_LoadNodes
FUNC 1a5170 1d 0 _GLOBAL__sub_I_c_totalPatchBlocks
FUNC 1a5190 1d 0 _GLOBAL__sub_I_numPlanes
FUNC 1a51b0 1d 0 _GLOBAL__sub_I_c_active_windings
FUNC 1a51d0 151 0 _GLOBAL__sub_I__Z17CM_PointLeafnum_rPKfi
FUNC 1a5330 1d 0 _GLOBAL__sub_I__Z30CM_GenerateTriangleSoupCollideiPA3_fiPi
FUNC 1a5350 1d 0 _GLOBAL__sub_I_vec3_origin
FUNC 1a5370 c6 0 Sys::Drop<char*&, char const*&, char const*&>
FUNC 1a5440 1d 0 _GLOBAL__sub_I__Z16Com_InitGrowListP10growList_ti
FUNC 1a5460 1d 0 _GLOBAL__sub_I__Z12Q_UTF8_WidthPKc
FUNC 1a5480 1d 0 _GLOBAL__sub_I__ZN11Application6TraitsC2Ev
FUNC 1a54a0 26d 0 _GLOBAL__sub_I__ZN3Cmd10DelayFrameEv
FUNC 1a5710 33 0 std::__cxx11::basic_string<char, std::char_traits<char>, std::allocator<char> >::basic_string
FUNC 1a5750 69f 0 __static_initialization_and_destruction_0
FUNC 1a5df0 5 0 _GLOBAL__sub_I__ZN3Cmd10commandLogE
FUNC 1a5e00 1d 0 _GLOBAL__sub_I__ZN2VM16CommonVMServices17HandleMiscSyscallEiRN4Util6ReaderERN3IPC7ChannelE
FUNC 1a5e20 33 0 std::__cxx11::basic_string<char, std::char_traits<char>, std::allocator<char> >::basic_string
FUNC 1a5e60 1bb 0 _GLOBAL__sub_I_crashDumpLogs
FUNC 1a6020 3c 0 std::__cxx11::basic_string<char, std::char_traits<char>, std::allocator<char> >::basic_string
FUNC 1a6060 32f 0 _GLOBAL__sub_I_cvar_modifiedFlags
FUNC 1a6390 33 0 std::__cxx11::basic_string<char, std::char_traits<char>, std::allocator<char> >::basic_string
FUNC 1a63d0 639 0 __static_initialization_and_destruction_0
FUNC 1a6a10 5 0 _GLOBAL__sub_I__ZN3Log8DispatchENS_5EventEi
FUNC 1a6a20 5a 0 _GLOBAL__sub_I__ZN3Sys22GetSingletonSocketPathB5cxx11Ev
FUNC 1a6a80 ac 0 Sys::Drop<std::__cxx11::basic_string<char, std::char_traits<char>, std::allocator<char> > >
FUNC 1a6b2c b8 0 Sys::Drop<std::__cxx11::basic_string<char, std::char_traits<char>, std::allocator<char> >&, std::__cxx11::basic_string<char, std::char_traits<char>, std::allocator<char> >&>
FUNC 1a6bf0 1d 0 _GLOBAL__sub_I__ZN2VM12CreateNaClVMESt4pairIN3IPC6SocketES2_EN3Str14BasicStringRefIcEEbbi
FUNC 1a6c10 1d 0 _GLOBAL__sub_I__ZN6Crypto10RandomDataEj
FUNC 1a6c30 1d 0 _GLOBAL__sub_I__ZN4Rcon7MessageC2ERK8netadr_tNSt7__cxx1112basic_stringIcSt11char_traitsIcESaIcEEENS_6SecureES9_S9_
FUNC 1a6c50 1d 0 _GLOBAL__sub_I__ZN3Net13OutOfBandDataE8netsrc_tRK8netadr_tPhj
FUNC 1a6c70 1d 0 _GLOBAL__sub_I__Z13Com_MD5BufferPKciPci
FUNC 1a6c90 33 0 std::__cxx11::basic_string<char, std::char_traits<char>, std::allocator<char> >::basic_string
FUNC 1a6cd0 25b 0 _GLOBAL__sub_I_com_ansiColor
FUNC 1a6f30 1d 0 _GLOBAL__sub_I__Z16CON_Shutdown_TTYv
FUNC 1a6f50 3d 0 _GLOBAL__sub_I__Z12CON_Shutdownv
FUNC 1a6f90 1d 0 _GLOBAL__sub_I__ZN5Color13StrlenNocolorEPKc
FUNC 1a6fb0 1d 0 _GLOBAL__sub_I__ZN4Util12LineEditDataC2Ejj
FUNC 1a6fd0 1d 0 _GLOBAL__sub_I__ZN7Console5FieldC2Ei
FUNC 1a6ff0 9d 0 _GLOBAL__sub_I__ZN7Console7History5linesB5cxx11E
FUNC 1a7090 1d 0 _GLOBAL__sub_I__ZN11tinygettext3Log17log_info_callbackB5cxx11E
FUNC 1a70b0 3b 0 std::__cxx11::basic_string<char, std::char_traits<char>, std::allocator<char> >::basic_string
FUNC 1a70f0 1d 0 _GLOBAL__sub_I__ZN11tinygettext8POParser8pedanticE
FUNC 1a7110 1d 0 _GLOBAL__sub_I__Z14dtAllocNavMeshv
FUNC 1a7130 1d 0 _GLOBAL__sub_I__ZN13dtQueryFilterC2Ev
FUNC 1a7150 1d 0 _GLOBAL__sub_I__ZN10dtNodePoolC2Eii
FUNC 1a7170 1d 0 _GLOBAL__sub_I__Z25dtMergeCorridorStartMovedPjiiPKji
FUNC 1a7190 1d 0 _GLOBAL__sub_I__Z16dtAllocTileCachev
FUNC 1a71b0 1d 0 _GLOBAL__sub_I__Z26dtAllocTileCacheContourSetP16dtTileCacheAlloc
FUNC 1a71d0 1d 0 _GLOBAL__sub_I__Z19dtCreateNavMeshDataP21dtNavMeshCreateParamsPPhPi
FUNC 1a71f0 48 0 main
FUNC 1a7240 51 0 __report_error
FUNC 1a72a0 49 0 set_fast_math_sse
FUNC 1a72f0 43 0 set_fast_math
STACK CFI INIT 1000 2 .cfa: $esp 4 + .ra: .cfa -4 + ^
STACK CFI INIT 1010 11e .cfa: $esp 4 + .ra: .cfa -4 + ^
STACK CFI 1013 .cfa: $esp 32 +
STACK CFI 1098 .cfa: $esp 4 +
STACK CFI 10a0 .cfa: $esp 32 +
STACK CFI 1111 .cfa: $esp 4 +
STACK CFI 1112 .cfa: $esp 32 +
STACK CFI INIT 1130 3e .cfa: $esp 4 + .ra: .cfa -4 + ^
STACK CFI 1133 .cfa: $esp 48 +
STACK CFI 116d .cfa: $esp 4 +
STACK CFI INIT 1170 364 .cfa: $esp 4 + .ra: .cfa -4 + ^
STACK CFI 1171 $ebp: .cfa -8 + ^ .cfa: $esp 8 +
STACK CFI 117a .cfa: $ebp 8 +
STACK CFI 1180 $ebx: .cfa -20 + ^ $edi: .cfa -12 + ^ $esi: .cfa -16 + ^
STACK CFI 1416 $ebx: $ebx
STACK CFI 1417 $esi: $esi
STACK CFI 1418 $edi: $edi
STACK CFI 1419 $ebp: $ebp .cfa: $esp 4 +
STACK CFI 1420 $ebp: .cfa -8 + ^ $ebx: .cfa -20 + ^ $edi: .cfa -12 + ^ $esi: .cfa -16 + ^ .cfa: $ebp 8 +
STACK CFI INIT 14e0 1a .cfa: $esp 4 + .ra: .cfa -4 + ^
STACK CFI 14e3 .cfa: $esp 16 +
STACK CFI 14f5 .cfa: $esp 4 +
STACK CFI INIT 1500 1a .cfa: $esp 4 + .ra: .cfa -4 + ^
STACK CFI 1503 .cfa: $esp 16 +
STACK CFI 1515 .cfa: $esp 4 +
STACK CFI INIT 192f50 8 .cfa: $esp 4 + .ra: .cfa -4 + ^
STACK CFI INIT 17c830 2 .cfa: $esp 4 + .ra: .cfa -4 + ^
STACK CFI INIT 1550 2 .cfa: $esp 4 + .ra: .cfa -4 + ^
STACK CFI INIT 1560 22 .cfa: $esp 4 + .ra: .cfa -4 + ^
STACK CFI 156f .cfa: $esp 32 +
STACK CFI 157a .cfa: $esp 4 +
STACK CFI INIT 1590 a .cfa: $esp 4 + .ra: .cfa -4 + ^
STACK CFI INIT 15a0 a2 .cfa: $esp 4 + .ra: .cfa -4 + ^
STACK CFI 15a1 $edi: .cfa -8 + ^ .cfa: $esp 8 +
STACK CFI 15a2 $esi: .cfa -12 + ^ .cfa: $esp 12 +
STACK CFI 15a5 $ebx: .cfa -16 + ^ .cfa: $esp 16 +
STACK CFI 15a8 .cfa: $esp 48 +
STACK CFI 15e1 .cfa: $esp 16 +
STACK CFI 15e2 $ebx: $ebx .cfa: $esp 12 +
STACK CFI 15e3 $esi: $esi .cfa: $esp 8 +
STACK CFI 15e4 $edi: $edi .cfa: $esp 4 +
STACK CFI 15f0 $ebx: .cfa -16 + ^ $edi: .cfa -8 + ^ $esi: .cfa -12 + ^ .cfa: $esp 48 +
STACK CFI 1606 .cfa: $esp 40 +
STACK CFI 1609 .cfa: $esp 48 +
STACK CFI INIT 1650 25 .cfa: $esp 4 + .ra: .cfa -4 + ^
STACK CFI 1651 $ebx: .cfa -8 + ^ .cfa: $esp 8 +
STACK CFI 1659 .cfa: $esp 32 +
STACK CFI 1673 .cfa: $esp 8 +
STACK CFI 1674 $ebx: $ebx .cfa: $esp 4 +
STACK CFI INIT 1680 6b .cfa: $esp 4 + .ra: .cfa -4 + ^
STACK CFI 1681 $ebx: .cfa -8 + ^ .cfa: $esp 8 +
STACK CFI 1684 .cfa: $esp 32 +
STACK CFI 16e9 .cfa: $esp 8 +
STACK CFI 16ea $ebx: $ebx .cfa: $esp 4 +
STACK CFI INIT 16f0 15c .cfa: $esp 4 + .ra: .cfa -4 + ^
STACK CFI 16f1 $ebp: .cfa -8 + ^ .cfa: $esp 8 +
STACK CFI 16f2 $edi: .cfa -12 + ^ .cfa: $esp 12 +
STACK CFI 16f3 $esi: .cfa -16 + ^ .cfa: $esp 16 +
STACK CFI 16f4 $ebx: .cfa -20 + ^ .cfa: $esp 20 +
STACK CFI 16f7 .cfa: $esp 64 +
STACK CFI 17ed .cfa: $esp 20 +
STACK CFI 17ee $ebx: $ebx .cfa: $esp 16 +
STACK CFI 17ef $esi: $esi .cfa: $esp 12 +
STACK CFI 17f0 $edi: $edi .cfa: $esp 8 +
STACK CFI 17f1 $ebp: $ebp .cfa: $esp 4 +
STACK CFI 17f2 $ebp: .cfa -8 + ^ $ebx: .cfa -20 + ^ $edi: .cfa -12 + ^ $esi: .cfa -16 + ^ .cfa: $esp 64 +
STACK CFI 1847 .cfa: $esp 20 +
STACK CFI 1848 $ebx: $ebx .cfa: $esp 16 +
STACK CFI 1849 $esi: $esi .cfa: $esp 12 +
STACK CFI 184a $edi: $edi .cfa: $esp 8 +
STACK CFI 184b $ebp: $ebp .cfa: $esp 4 +
STACK CFI INIT 1850 78 .cfa: $esp 4 + .ra: .cfa -4 + ^
STACK CFI 1851 $edi: .cfa -8 + ^ .cfa: $esp 8 +
STACK CFI 1852 $esi: .cfa -12 + ^ .cfa: $esp 12 +
STACK CFI 1853 $ebx: .cfa -16 + ^ .cfa: $esp 16 +
STACK CFI 1856 .cfa: $esp 32 +
STACK CFI 18c4 .cfa: $esp 16 +
STACK CFI 18c5 $ebx: $ebx .cfa: $esp 12 +
STACK CFI 18c6 $esi: $esi .cfa: $esp 8 +
STACK CFI 18c7 $edi: $edi .cfa: $esp 4 +
STACK CFI INIT 18d0 5 .cfa: $esp 4 + .ra: .cfa -4 + ^
STACK CFI INIT 18e0 5 .cfa: $esp 4 + .ra: .cfa -4 + ^
STACK CFI INIT 18f0 12 .cfa: $esp 4 + .ra: .cfa -4 + ^
STACK CFI 18f3 .cfa: $esp 16 +
STACK CFI 18fb .cfa: $esp 4 +
STACK CFI INIT 1910 68 .cfa: $esp 4 + .ra: .cfa -4 + ^
STACK CFI 1911 $ebx: .cfa -8 + ^ .cfa: $esp 8 +
STACK CFI 1914 .cfa: $esp 32 +
STACK CFI 1934 .cfa: $esp 8 +
STACK CFI 1937 $ebx: $ebx .cfa: $esp 4 +
STACK CFI 1940 $ebx: .cfa -8 + ^ .cfa: $esp 32 +
STACK CFI 1952 .cfa: $esp 28 +
STACK CFI 1955 .cfa: $esp 32 +
STACK CFI 1974 .cfa: $esp 8 +
STACK CFI 1977 $ebx: $ebx .cfa: $esp 4 +
STACK CFI INIT 1980 e1 .cfa: $esp 4 + .ra: .cfa -4 + ^
STACK CFI 1981 $ebp: .cfa -8 + ^ .cfa: $esp 8 +
STACK CFI 1984 .cfa: $esp 128 +
STACK CFI 19e0 .cfa: $esp 116 +
STACK CFI 19e3 .cfa: $esp 128 +
STACK CFI 1a2a .cfa: $esp 8 +
STACK CFI 1a30 $ebp: $ebp .cfa: $esp 4 +
STACK CFI 1a31 $ebp: .cfa -8 + ^ .cfa: $esp 128 +
STACK CFI INIT 1a70 13 .cfa: $esp 4 + .ra: .cfa -4 + ^
STACK CFI 1a73 .cfa: $esp 32 +
STACK CFI 1a82 .cfa: $esp 4 +
STACK CFI INIT 1a90 9 .cfa: $esp 4 + .ra: .cfa -4 + ^
STACK CFI INIT 1aa0 2c .cfa: $esp 4 + .ra: .cfa -4 + ^
STACK CFI 1aa1 $esi: .cfa -8 + ^ .cfa: $esp 8 +
STACK CFI 1aa2 $ebx: .cfa -12 + ^ .cfa: $esp 12 +
STACK CFI 1aa5 .cfa: $esp 16 +
STACK CFI 1ac5 .cfa: $esp 12 +
STACK CFI 1ac6 $ebx: $ebx .cfa: $esp 8 +
STACK CFI 1ac7 $esi: $esi .cfa: $esp 4 +
STACK CFI INIT 1ad0 18d .cfa: $esp 4 + .ra: .cfa -4 + ^
STACK CFI 1ad6 $edi: .cfa -8 + ^ .cfa: $esp 8 +
STACK CFI 1ad7 $esi: .cfa -12 + ^ .cfa: $esp 12 +
STACK CFI 1ad8 $ebx: .cfa -16 + ^ .cfa: $esp 16 +
STACK CFI 1bbb $ebx: $ebx .cfa: $esp 12 +
STACK CFI 1bbc $esi: $esi .cfa: $esp 8 +
STACK CFI 1bbd $edi: $edi .cfa: $esp 4 +
STACK CFI 1bc0 $ebx: .cfa -16 + ^ $edi: .cfa -8 + ^ $esi: .cfa -12 + ^ .cfa: $esp 16 +
STACK CFI INIT 1c60 10a .cfa: $esp 4 + .ra: .cfa -4 + ^
STACK CFI 1c61 $ebp: .cfa -8 + ^ .cfa: $esp 8 +
STACK CFI 1c64 .cfa: $esp 112 +
STACK CFI 1cbc .cfa: $esp 104 +
STACK CFI 1cbf .cfa: $esp 112 +
STACK CFI 1d43 .cfa: $esp 8 +
STACK CFI 1d44 $ebp: $ebp .cfa: $esp 4 +
STACK CFI 1d45 $ebp: .cfa -8 + ^ .cfa: $esp 112 +
STACK CFI INIT 1d70 125e .cfa: $esp 4 + .ra: .cfa -4 + ^
STACK CFI 1d71 $ebp: .cfa -8 + ^ .cfa: $esp 8 +
STACK CFI 1d73 .cfa: $ebp 8 +
STACK CFI 1d7e $ebx: .cfa -16 + ^ $esi: .cfa -12 + ^
STACK CFI 1dfa $ebx: $ebx
STACK CFI 1dfb $esi: $esi
STACK CFI 1dfc $ebp: $ebp .cfa: $esp 4 +
STACK CFI 1e00 $ebp: .cfa -8 + ^ $ebx: .cfa -16 + ^ $esi: .cfa -12 + ^ .cfa: $ebp 8 +
STACK CFI INIT 2fd0 244 .cfa: $esp 4 + .ra: .cfa -4 + ^
STACK CFI 2fd1 $ebp: .cfa -8 + ^ .cfa: $esp 8 +
STACK CFI 2fd3 .cfa: $ebp 8 +
STACK CFI 2fdd $ebx: .cfa -12 + ^
STACK CFI 3049 $ebp: $ebp $ebx: $ebx .cfa: $esp 4 +
STACK CFI 3050 $ebp: .cfa -8 + ^ $ebx: .cfa -12 + ^ .cfa: $ebp 8 +
STACK CFI 3164 $ebp: $ebp $ebx: $ebx .cfa: $esp 4 +
STACK CFI 3165 $ebp: .cfa -8 + ^ $ebx: .cfa -12 + ^ .cfa: $ebp 8 +
STACK CFI INIT 3220 2b5 .cfa: $esp 4 + .ra: .cfa -4 + ^
STACK CFI 3221 $ebp: .cfa -8 + ^ .cfa: $esp 8 +
STACK CFI 3222 $edi: .cfa -12 + ^ .cfa: $esp 12 +
STACK CFI 3223 $esi: .cfa -16 + ^ .cfa: $esp 16 +
STACK CFI 3224 $ebx: .cfa -20 + ^ .cfa: $esp 20 +
STACK CFI 322a .cfa: $esp 160 +
STACK CFI 32aa .cfa: $esp 152 +
STACK CFI 32ad .cfa: $esp 160 +
STACK CFI 3340 .cfa: $esp 148 +
STACK CFI 3343 .cfa: $esp 160 +
STACK CFI 33f2 .cfa: $esp 152 +
STACK CFI 33f5 .cfa: $esp 160 +
STACK CFI 342f .cfa: $esp 20 +
STACK CFI 3430 $ebx: $ebx .cfa: $esp 16 +
STACK CFI 3431 $esi: $esi .cfa: $esp 12 +
STACK CFI 3432 $edi: $edi .cfa: $esp 8 +
STACK CFI 3433 $ebp: $ebp .cfa: $esp 4 +
STACK CFI 3434 $ebp: .cfa -8 + ^ $ebx: .cfa -20 + ^ $edi: .cfa -12 + ^ $esi: .cfa -16 + ^ .cfa: $esp 160 +
STACK CFI INIT 34e0 241 .cfa: $esp 4 + .ra: .cfa -4 + ^
STACK CFI 34e1 $ebp: .cfa -8 + ^ .cfa: $esp 8 +
STACK CFI 34e3 .cfa: $ebp 8 +
STACK CFI 35fa $ebp: $ebp .cfa: $esp 4 +
STACK CFI 3600 $ebp: .cfa -8 + ^ .cfa: $ebp 8 +
STACK CFI 36b8 $ebp: $ebp .cfa: $esp 4 +
STACK CFI 36c0 $ebp: .cfa -8 + ^ .cfa: $ebp 8 +
STACK CFI INIT 3730 d9 .cfa: $esp 4 + .ra: .cfa -4 + ^
STACK CFI 3731 $ebp: .cfa -8 + ^ .cfa: $esp 8 +
STACK CFI 3733 .cfa: $ebp 8 +
STACK CFI 37d4 $ebp: $ebp .cfa: $esp 4 +
STACK CFI 37d5 $ebp: .cfa -8 + ^ .cfa: $ebp 8 +
STACK CFI INIT 1a2c50 ea .cfa: $esp 4 + .ra: .cfa -4 + ^
STACK CFI 1a2c53 .cfa: $esp 32 +
STACK CFI 1a2d1d .cfa: $esp 28 +
STACK CFI 1a2d20 .cfa: $esp 32 +
STACK CFI 1a2d39 .cfa: $esp 4 +
STACK CFI INIT 17c820 f .cfa: $esp 4 + .ra: .cfa -4 + ^
STACK CFI 17c823 .cfa: $esp 32 +
STACK CFI 17c82e .cfa: $esp 4 +
STACK CFI INIT 1121d0 98 .cfa: $esp 4 + .ra: .cfa -4 + ^
STACK CFI 1121d1 $ebx: .cfa -8 + ^ .cfa: $esp 8 +
STACK CFI 1121d4 .cfa: $esp 32 +
STACK CFI 112219 .cfa: $esp 24 +
STACK CFI 11221c .cfa: $esp 32 +
STACK CFI 11221f .cfa: $esp 8 +
STACK CFI 112220 $ebx: $ebx .cfa: $esp 4 +
STACK CFI 112221 $ebx: .cfa -8 + ^ .cfa: $esp 32 +
STACK CFI 112238 .cfa: $esp 8 +
STACK CFI 112239 $ebx: $ebx .cfa: $esp 4 +
STACK CFI 112240 $ebx: .cfa -8 + ^ .cfa: $esp 32 +
STACK CFI 112248 .cfa: $esp 28 +
STACK CFI 11224b .cfa: $esp 32 +
STACK CFI 11224e .cfa: $esp 8 +
STACK CFI 11224f $ebx: $ebx .cfa: $esp 4 +
STACK CFI 112250 $ebx: .cfa -8 + ^ .cfa: $esp 32 +
STACK CFI 112263 .cfa: $esp 28 +
STACK CFI 112266 .cfa: $esp 32 +
STACK CFI INIT 11b070 ca .cfa: $esp 4 + .ra: .cfa -4 + ^
STACK CFI 11b071 $ebp: .cfa -8 + ^ .cfa: $esp 8 +
STACK CFI 11b074 .cfa: $esp 128 +
STACK CFI 11b0cc .cfa: $esp 120 +
STACK CFI 11b0cf .cfa: $esp 128 +
STACK CFI 11b106 .cfa: $esp 8 +
STACK CFI 11b109 $ebp: $ebp .cfa: $esp 4 +
STACK CFI 11b10a $ebp: .cfa -8 + ^ .cfa: $esp 128 +
STACK CFI INIT 11b710 ca .cfa: $esp 4 + .ra: .cfa -4 + ^
STACK CFI 11b711 $ebp: .cfa -8 + ^ .cfa: $esp 8 +
STACK CFI 11b714 .cfa: $esp 128 +
STACK CFI 11b76c .cfa: $esp 120 +
STACK CFI 11b76f .cfa: $esp 128 +
STACK CFI 11b7a6 .cfa: $esp 8 +
STACK CFI 11b7a9 $ebp: $ebp .cfa: $esp 4 +
STACK CFI 11b7aa $ebp: .cfa -8 + ^ .cfa: $esp 128 +
STACK CFI INIT 116a90 20b .cfa: $esp 4 + .ra: .cfa -4 + ^
STACK CFI 116a91 $ebp: .cfa -8 + ^ .cfa: $esp 8 +
STACK CFI 116a94 .cfa: $esp 128 +
STACK CFI 116b48 .cfa: $esp 120 +
STACK CFI 116b4b .cfa: $esp 128 +
STACK CFI 116b5a .cfa: $esp 8 +
STACK CFI 116b5b $ebp: $ebp .cfa: $esp 4 +
STACK CFI 116b60 $ebp: .cfa -8 + ^ .cfa: $esp 128 +
STACK CFI 116b7b .cfa: $esp 124 +
STACK CFI 116b7e .cfa: $esp 128 +
STACK CFI 116bd9 .cfa: $esp 120 +
STACK CFI 116bdc .cfa: $esp 128 +
STACK CFI 116c49 .cfa: $esp 120 +
STACK CFI 116c4c .cfa: $esp 128 +
STACK CFI INIT 110f70 b76 .cfa: $esp 4 + .ra: .cfa -4 + ^
STACK CFI 110f71 $ebp: .cfa -8 + ^ .cfa: $esp 8 +
STACK CFI 110f72 $edi: .cfa -12 + ^ .cfa: $esp 12 +
STACK CFI 110f73 $esi: .cfa -16 + ^ .cfa: $esp 16 +
STACK CFI 110f74 $ebx: .cfa -20 + ^ .cfa: $esp 20 +
STACK CFI 110f7a .cfa: $esp 160 +
STACK CFI 111322 .cfa: $esp 20 +
STACK CFI 111323 $ebx: $ebx .cfa: $esp 16 +
STACK CFI 111324 $esi: $esi .cfa: $esp 12 +
STACK CFI 111325 $edi: $edi .cfa: $esp 8 +
STACK CFI 111326 $ebp: $ebp .cfa: $esp 4 +
STACK CFI 111330 $ebp: .cfa -8 + ^ $ebx: .cfa -20 + ^ $edi: .cfa -12 + ^ $esi: .cfa -16 + ^ .cfa: $esp 160 +
STACK CFI 11135c .cfa: $esp 152 +
STACK CFI 11135f .cfa: $esp 160 +
STACK CFI 111634 .cfa: $esp 156 +
STACK CFI 111637 .cfa: $esp 160 +
STACK CFI 11166c .cfa: $esp 156 +
STACK CFI 11166f .cfa: $esp 160 +
STACK CFI 11174f .cfa: $esp 152 +
STACK CFI 111752 .cfa: $esp 160 +
STACK CFI 1117ad .cfa: $esp 152 +
STACK CFI 1117b0 .cfa: $esp 160 +
STACK CFI 111836 .cfa: $esp 152 +
STACK CFI 111839 .cfa: $esp 160 +
STACK CFI 111962 .cfa: $esp 156 +
STACK CFI 111965 .cfa: $esp 160 +
STACK CFI 111996 .cfa: $esp 156 +
STACK CFI 111999 .cfa: $esp 160 +
STACK CFI 1119c7 .cfa: $esp 152 +
STACK CFI 1119ca .cfa: $esp 160 +
STACK CFI 111a2d .cfa: $esp 156 +
STACK CFI 111a30 .cfa: $esp 160 +
STACK CFI 111a61 .cfa: $esp 152 +
STACK CFI 111a64 .cfa: $esp 160 +
STACK CFI INIT 196bc0 2e .cfa: $esp 4 + .ra: .cfa -4 + ^
STACK CFI 196bc1 $ebx: .cfa -8 + ^ .cfa: $esp 8 +
STACK CFI 196bc9 .cfa: $esp 32 +
STACK CFI 196bec .cfa: $esp 8 +
STACK CFI 196bed $ebx: $ebx .cfa: $esp 4 +
STACK CFI INIT 19f260 30 .cfa: $esp 4 + .ra: .cfa -4 + ^
STACK CFI 19f261 $ebx: .cfa -8 + ^ .cfa: $esp 8 +
STACK CFI 19f269 .cfa: $esp 32 +
STACK CFI 19f287 .cfa: $esp 8 +
STACK CFI 19f28b $ebx: $ebx .cfa: $esp 4 +
STACK CFI INIT 19bca0 5f .cfa: $esp 4 + .ra: .cfa -4 + ^
STACK CFI 19bca1 $edi: .cfa -8 + ^ .cfa: $esp 8 +
STACK CFI 19bca2 $esi: .cfa -12 + ^ .cfa: $esp 12 +
STACK CFI 19bca3 $ebx: .cfa -16 + ^ .cfa: $esp 16 +
STACK CFI 19bca6 .cfa: $esp 32 +
STACK CFI 19bcfb .cfa: $esp 16 +
STACK CFI 19bcfc $ebx: $ebx .cfa: $esp 12 +
STACK CFI 19bcfd $esi: $esi .cfa: $esp 8 +
STACK CFI 19bcfe $edi: $edi .cfa: $esp 4 +
STACK CFI INIT 1589c0 11f2 .cfa: $esp 4 + .ra: .cfa -4 + ^
STACK CFI 1589c1 $ebp: .cfa -8 + ^ .cfa: $esp 8 +
STACK CFI 1589c3 .cfa: $ebp 8 +
STACK CFI 1589ce $ebx: .cfa -16 + ^ $esi: .cfa -12 + ^
STACK CFI 158a3e $ebx: $ebx
STACK CFI 158a3f $esi: $esi
STACK CFI 158a40 $ebp: $ebp .cfa: $esp 4 +
STACK CFI 158a43 $ebp: .cfa -8 + ^ $ebx: .cfa -16 + ^ $esi: .cfa -12 + ^ .cfa: $ebp 8 +
STACK CFI INIT 19d6b0 3ad .cfa: $esp 4 + .ra: .cfa -4 + ^
STACK CFI 19d6b1 $ebp: .cfa -8 + ^ .cfa: $esp 8 +
STACK CFI 19d6b2 $edi: .cfa -12 + ^ .cfa: $esp 12 +
STACK CFI 19d6b3 $esi: .cfa -16 + ^ .cfa: $esp 16 +
STACK CFI 19d6b4 $ebx: .cfa -20 + ^ .cfa: $esp 20 +
STACK CFI 19d6b9 .cfa: $esp 64 +
STACK CFI 19d959 .cfa: $esp 20 +
STACK CFI 19d95a $ebx: $ebx .cfa: $esp 16 +
STACK CFI 19d95b $esi: $esi .cfa: $esp 12 +
STACK CFI 19d95c $edi: $edi .cfa: $esp 8 +
STACK CFI 19d95d $ebp: $ebp .cfa: $esp 4 +
STACK CFI 19d960 $ebp: .cfa -8 + ^ $ebx: .cfa -20 + ^ $edi: .cfa -12 + ^ $esi: .cfa -16 + ^ .cfa: $esp 64 +
STACK CFI INIT 192a60 c4 .cfa: $esp 4 + .ra: .cfa -4 + ^
STACK CFI 192a61 $ebp: .cfa -8 + ^ .cfa: $esp 8 +
STACK CFI 192a62 $edi: .cfa -12 + ^ .cfa: $esp 12 +
STACK CFI 192a63 $esi: .cfa -16 + ^ .cfa: $esp 16 +
STACK CFI 192a64 $ebx: .cfa -20 + ^ .cfa: $esp 20 +
STACK CFI 192a67 .cfa: $esp 32 +
STACK CFI 192b1d .cfa: $esp 20 +
STACK CFI 192b1e $ebx: $ebx .cfa: $esp 16 +
STACK CFI 192b1f $esi: $esi .cfa: $esp 12 +
STACK CFI 192b20 $edi: $edi .cfa: $esp 8 +
STACK CFI 192b21 $ebp: $ebp .cfa: $esp 4 +
STACK CFI INIT 1931b0 1e9 .cfa: $esp 4 + .ra: .cfa -4 + ^
STACK CFI 1931b1 $ebp: .cfa -8 + ^ .cfa: $esp 8 +
STACK CFI 1931b2 $edi: .cfa -12 + ^ .cfa: $esp 12 +
STACK CFI 1931b3 $esi: .cfa -16 + ^ .cfa: $esp 16 +
STACK CFI 1931b4 $ebx: .cfa -20 + ^ .cfa: $esp 20 +
STACK CFI 1931b7 .cfa: $esp 128 +
STACK CFI 1932f7 .cfa: $esp 20 +
STACK CFI 1932f8 $ebx: $ebx .cfa: $esp 16 +
STACK CFI 1932f9 $esi: $esi .cfa: $esp 12 +
STACK CFI 1932fa $edi: $edi .cfa: $esp 8 +
STACK CFI 1932fb $ebp: $ebp .cfa: $esp 4 +
STACK CFI 193300 $ebp: .cfa -8 + ^ $ebx: .cfa -20 + ^ $edi: .cfa -12 + ^ $esi: .cfa -16 + ^ .cfa: $esp 128 +
STACK CFI INIT 193030 175 .cfa: $esp 4 + .ra: .cfa -4 + ^
STACK CFI 193031 $ebp: .cfa -8 + ^ .cfa: $esp 8 +
STACK CFI 193033 .cfa: $ebp 8 +
STACK CFI 19303a $ebx: .cfa -12 + ^
STACK CFI 193113 $ebp: $ebp $ebx: $ebx .cfa: $esp 4 +
STACK CFI 193120 $ebp: .cfa -8 + ^ $ebx: .cfa -12 + ^ .cfa: $ebp 8 +
STACK CFI INIT 1a09e0 186 .cfa: $esp 4 + .ra: .cfa -4 + ^
STACK CFI 1a09e1 $ebp: .cfa -8 + ^ .cfa: $esp 8 +
STACK CFI 1a09e2 $edi: .cfa -12 + ^ .cfa: $esp 12 +
STACK CFI 1a09e3 $esi: .cfa -16 + ^ .cfa: $esp 16 +
STACK CFI 1a09e4 $ebx: .cfa -20 + ^ .cfa: $esp 20 +
STACK CFI 1a09e9 .cfa: $esp 144 +
STACK CFI 1a0a84 .cfa: $esp 132 +
STACK CFI 1a0a87 .cfa: $esp 144 +
STACK CFI 1a0aa7 .cfa: $esp 20 +
STACK CFI 1a0aa8 $ebx: $ebx .cfa: $esp 16 +
STACK CFI 1a0aa9 $esi: $esi .cfa: $esp 12 +
STACK CFI 1a0aaa $edi: $edi .cfa: $esp 8 +
STACK CFI 1a0aab $ebp: $ebp .cfa: $esp 4 +
STACK CFI 1a0ab0 $ebp: .cfa -8 + ^ $ebx: .cfa -20 + ^ $edi: .cfa -12 + ^ $esi: .cfa -16 + ^ .cfa: $esp 144 +
STACK CFI 1a0b2d .cfa: $esp 132 +
STACK CFI 1a0b30 .cfa: $esp 144 +
STACK CFI INIT 1a0b70 1ba .cfa: $esp 4 + .ra: .cfa -4 + ^
STACK CFI 1a0b71 $ebp: .cfa -8 + ^ .cfa: $esp 8 +
STACK CFI 1a0b73 .cfa: $ebp 8 +
STACK CFI 1a0b7d $ebx: .cfa -12 + ^
STACK CFI 1a0c47 $ebp: $ebp $ebx: $ebx .cfa: $esp 4 +
STACK CFI 1a0c50 $ebp: .cfa -8 + ^ $ebx: .cfa -12 + ^ .cfa: $ebp 8 +
STACK CFI INIT 18d6f0 769 .cfa: $esp 4 + .ra: .cfa -4 + ^
STACK CFI 18d6f1 $ebp: .cfa -8 + ^ .cfa: $esp 8 +
STACK CFI 18d6f3 .cfa: $ebp 8 +
STACK CFI 18d6fb $ebx: .cfa -16 + ^ $esi: .cfa -12 + ^
STACK CFI 18db82 $ebx: $ebx
STACK CFI 18db83 $esi: $esi
STACK CFI 18db84 $ebp: $ebp .cfa: $esp 4 +
STACK CFI 18db90 $ebp: .cfa -8 + ^ $ebx: .cfa -16 + ^ $esi: .cfa -12 + ^ .cfa: $ebp 8 +
STACK CFI INIT 18d6c0 2e .cfa: $esp 4 + .ra: .cfa -4 + ^
STACK CFI 18d6c3 .cfa: $esp 32 +
STACK CFI 18d6d3 .cfa: $esp 28 +
STACK CFI 18d6d6 .cfa: $esp 32 +
STACK CFI 18d6e3 .cfa: $esp 28 +
STACK CFI 18d6e6 .cfa: $esp 32 +
STACK CFI 18d6eb .cfa: $esp 4 +
STACK CFI INIT 195b00 11 .cfa: $esp 4 + .ra: .cfa -4 + ^
STACK CFI INIT 195a20 3d .cfa: $esp 4 + .ra: .cfa -4 + ^
STACK CFI INIT 11ba70 7 .cfa: $esp 4 + .ra: .cfa -4 + ^
STACK CFI INIT 11ba50 9 .cfa: $esp 4 + .ra: .cfa -4 + ^
STACK CFI INIT 176550 22 .cfa: $esp 4 + .ra: .cfa -4 + ^
STACK CFI 176563 .cfa: $esp 32 +
STACK CFI 17656e .cfa: $esp 4 +
STACK CFI INIT 176520 2b .cfa: $esp 4 + .ra: .cfa -4 + ^
STACK CFI 176521 $ebx: .cfa -8 + ^ .cfa: $esp 8 +
STACK CFI 176529 .cfa: $esp 32 +
STACK CFI 176549 .cfa: $esp 8 +
STACK CFI 17654a $ebx: $ebx .cfa: $esp 4 +
STACK CFI INIT 1763d0 22 .cfa: $esp 4 + .ra: .cfa -4 + ^
STACK CFI 1763e0 .cfa: $esp 32 +
STACK CFI 1763eb .cfa: $esp 4 +
STACK CFI INIT 1763a0 28 .cfa: $esp 4 + .ra: .cfa -4 + ^
STACK CFI 1763a1 $ebx: .cfa -8 + ^ .cfa: $esp 8 +
STACK CFI 1763a6 .cfa: $esp 32 +
STACK CFI 1763c6 .cfa: $esp 8 +
STACK CFI 1763c7 $ebx: $ebx .cfa: $esp 4 +
STACK CFI INIT 3810 e .cfa: $esp 4 + .ra: .cfa -4 + ^
STACK CFI INIT 3820 5 .cfa: $esp 4 + .ra: .cfa -4 + ^
STACK CFI INIT 3830 35 .cfa: $esp 4 + .ra: .cfa -4 + ^
STACK CFI 3833 .cfa: $esp 32 +
STACK CFI INIT 3870 c .cfa: $esp 4 + .ra: .cfa -4 + ^
STACK CFI INIT 3880 a .cfa: $esp 4 + .ra: .cfa -4 + ^
STACK CFI INIT 1a2d40 9 .cfa: $esp 4 + .ra: .cfa -4 + ^
STACK CFI INIT 3890 a2 .cfa: $esp 4 + .ra: .cfa -4 + ^
STACK CFI 3891 $edi: .cfa -8 + ^ .cfa: $esp 8 +
STACK CFI 3892 $esi: .cfa -12 + ^ .cfa: $esp 12 +
STACK CFI 3895 $ebx: .cfa -16 + ^ .cfa: $esp 16 +
STACK CFI 3898 .cfa: $esp 48 +
STACK CFI 38d1 .cfa: $esp 16 +
STACK CFI 38d2 $ebx: $ebx .cfa: $esp 12 +
STACK CFI 38d3 $esi: $esi .cfa: $esp 8 +
STACK CFI 38d4 $edi: $edi .cfa: $esp 4 +
STACK CFI 38e0 $ebx: .cfa -16 + ^ $edi: .cfa -8 + ^ $esi: .cfa -12 + ^ .cfa: $esp 48 +
STACK CFI 38f6 .cfa: $esp 40 +
STACK CFI 38f9 .cfa: $esp 48 +
STACK CFI INIT 1a2d50 3c .cfa: $esp 4 + .ra: .cfa -4 + ^
STACK CFI 1a2d51 $ebx: .cfa -8 + ^ .cfa: $esp 8 +
STACK CFI 1a2d57 .cfa: $esp 48 +
STACK CFI 1a2d82 .cfa: $esp 40 +
STACK CFI 1a2d85 .cfa: $esp 48 +
STACK CFI 1a2d88 .cfa: $esp 8 +
STACK CFI 1a2d89 $ebx: $ebx .cfa: $esp 4 +
STACK CFI INIT 3940 2b .cfa: $esp 4 + .ra: .cfa -4 + ^
STACK CFI 3941 $ebx: .cfa -8 + ^ .cfa: $esp 8 +
STACK CFI 3949 .cfa: $esp 16 +
STACK CFI 3969 .cfa: $esp 8 +
STACK CFI 396a $ebx: $ebx .cfa: $esp 4 +
STACK CFI INIT 3970 57 .cfa: $esp 4 + .ra: .cfa -4 + ^
STACK CFI 3973 .cfa: $esp 32 +
STACK CFI 39c6 .cfa: $esp 4 +
STACK CFI INIT 39d0 6b .cfa: $esp 4 + .ra: .cfa -4 + ^
STACK CFI 39d3 .cfa: $esp 32 +
STACK CFI 3a3a .cfa: $esp 4 +
STACK CFI INIT 3a40 57 .cfa: $esp 4 + .ra: .cfa -4 + ^
STACK CFI 3a43 .cfa: $esp 32 +
STACK CFI 3a96 .cfa: $esp 4 +
STACK CFI INIT 3aa0 57 .cfa: $esp 4 + .ra: .cfa -4 + ^
STACK CFI 3aa3 .cfa: $esp 32 +
STACK CFI 3af6 .cfa: $esp 4 +
STACK CFI INIT 3b00 57 .cfa: $esp 4 + .ra: .cfa -4 + ^
STACK CFI 3b03 .cfa: $esp 32 +
STACK CFI 3b56 .cfa: $esp 4 +
STACK CFI INIT 3b60 57 .cfa: $esp 4 + .ra: .cfa -4 + ^
STACK CFI 3b63 .cfa: $esp 32 +
STACK CFI 3bb6 .cfa: $esp 4 +
STACK CFI INIT 3bc0 57 .cfa: $esp 4 + .ra: .cfa -4 + ^
STACK CFI 3bc3 .cfa: $esp 32 +
STACK CFI 3c16 .cfa: $esp 4 +
STACK CFI INIT 3c20 57 .cfa: $esp 4 + .ra: .cfa -4 + ^
STACK CFI 3c23 .cfa: $esp 32 +
STACK CFI 3c76 .cfa: $esp 4 +
STACK CFI INIT 3c80 b1 .cfa: $esp 4 + .ra: .cfa -4 + ^
STACK CFI 3c81 $ebx: .cfa -8 + ^ .cfa: $esp 8 +
STACK CFI 3c84 .cfa: $esp 96 +
STACK CFI 3d2f .cfa: $esp 8 +
STACK CFI 3d30 $ebx: $ebx .cfa: $esp 4 +
STACK CFI INIT 3d40 5b .cfa: $esp 4 + .ra: .cfa -4 + ^
STACK CFI 3d41 $ebx: .cfa -8 + ^ .cfa: $esp 8 +
STACK CFI 3d9a $ebx: $ebx .cfa: $esp 4 +
STACK CFI INIT 3da0 298 .cfa: $esp 4 + .ra: .cfa -4 + ^
STACK CFI 3da1 $ebp: .cfa -8 + ^ .cfa: $esp 8 +
STACK CFI 3da3 .cfa: $ebp 8 +
STACK CFI 3dab $edi: .cfa -12 + ^ $esi: .cfa -16 + ^
STACK CFI 3f72 $esi: $esi
STACK CFI 3f73 $edi: $edi
STACK CFI 3f74 $ebp: $ebp .cfa: $esp 4 +
STACK CFI 3f75 $ebp: .cfa -8 + ^ $edi: .cfa -12 + ^ $esi: .cfa -16 + ^ .cfa: $ebp 8 +
STACK CFI INIT 4040 8 .cfa: $esp 4 + .ra: .cfa -4 + ^
STACK CFI INIT 4050 7d .cfa: $esp 4 + .ra: .cfa -4 + ^
STACK CFI 4051 $esi: .cfa -8 + ^ .cfa: $esp 8 +
STACK CFI 4052 $ebx: .cfa -12 + ^ .cfa: $esp 12 +
STACK CFI 4055 .cfa: $esp 64 +
STACK CFI 4093 .cfa: $esp 56 +
STACK CFI 409a .cfa: $esp 64 +
STACK CFI 40c8 .cfa: $esp 12 +
STACK CFI 40cb $ebx: $ebx .cfa: $esp 8 +
STACK CFI 40cc $esi: $esi .cfa: $esp 4 +
STACK CFI INIT 40d0 f .cfa: $esp 4 + .ra: .cfa -4 + ^
STACK CFI 40d3 .cfa: $esp 16 +
STACK CFI 40db .cfa: $esp 4 +
STACK CFI INIT 40e0 e .cfa: $esp 4 + .ra: .cfa -4 + ^
STACK CFI INIT 40f0 16 .cfa: $esp 4 + .ra: .cfa -4 + ^
STACK CFI INIT 4110 6 .cfa: $esp 4 + .ra: .cfa -4 + ^
STACK CFI INIT 4120 15 .cfa: $esp 4 + .ra: .cfa -4 + ^
STACK CFI INIT 4140 1f .cfa: $esp 4 + .ra: .cfa -4 + ^
STACK CFI INIT 4160 1e4 .cfa: $esp 4 + .ra: .cfa -4 + ^
STACK CFI 4161 $ebp: .cfa -8 + ^ .cfa: $esp 8 +
STACK CFI 4163 .cfa: $ebp 8 +
STACK CFI 424e $ebp: $ebp .cfa: $esp 4 +
STACK CFI 4250 $ebp: .cfa -8 + ^ .cfa: $ebp 8 +
STACK CFI 42f6 $ebp: $ebp .cfa: $esp 4 +
STACK CFI 42f7 $ebp: .cfa -8 + ^ .cfa: $ebp 8 +
STACK CFI INIT 4350 140 .cfa: $esp 4 + .ra: .cfa -4 + ^
STACK CFI 4351 $esi: .cfa -8 + ^ .cfa: $esp 8 +
STACK CFI 4352 $ebx: .cfa -12 + ^ .cfa: $esp 12 +
STACK CFI 4355 .cfa: $esp 32 +
STACK CFI 441f .cfa: $esp 12 +
STACK CFI 4422 $ebx: $ebx .cfa: $esp 8 +
STACK CFI 4423 $esi: $esi .cfa: $esp 4 +
STACK CFI 4424 $ebx: .cfa -12 + ^ $esi: .cfa -8 + ^ .cfa: $esp 32 +
STACK CFI INIT 4490 e4 .cfa: $esp 4 + .ra: .cfa -4 + ^
STACK CFI 4491 $ebp: .cfa -8 + ^ .cfa: $esp 8 +
STACK CFI 4492 $edi: .cfa -12 + ^ .cfa: $esp 12 +
STACK CFI 4493 $esi: .cfa -16 + ^ .cfa: $esp 16 +
STACK CFI 4494 $ebx: .cfa -20 + ^ .cfa: $esp 20 +
STACK CFI 4497 .cfa: $esp 48 +
STACK CFI 44fd .cfa: $esp 20 +
STACK CFI 44fe $ebx: $ebx .cfa: $esp 16 +
STACK CFI 4502 $esi: $esi .cfa: $esp 12 +
STACK CFI 4503 $edi: $edi .cfa: $esp 8 +
STACK CFI 4504 $ebp: $ebp .cfa: $esp 4 +
STACK CFI 4505 $ebp: .cfa -8 + ^ $ebx: .cfa -20 + ^ $edi: .cfa -12 + ^ $esi: .cfa -16 + ^ .cfa: $esp 48 +
STACK CFI 4557 .cfa: $esp 20 +
STACK CFI 4558 $ebx: $ebx .cfa: $esp 16 +
STACK CFI 4559 $esi: $esi .cfa: $esp 12 +
STACK CFI 455a $edi: $edi .cfa: $esp 8 +
STACK CFI 455b $ebp: $ebp .cfa: $esp 4 +
STACK CFI 455c $ebp: .cfa -8 + ^ $ebx: .cfa -20 + ^ $edi: .cfa -12 + ^ $esi: .cfa -16 + ^ .cfa: $esp 48 +
STACK CFI INIT 4580 5 .cfa: $esp 4 + .ra: .cfa -4 + ^
STACK CFI INIT 4590 2b .cfa: $esp 4 + .ra: .cfa -4 + ^
STACK CFI 4593 .cfa: $esp 32 +
STACK CFI 45b6 .cfa: $esp 4 +
STACK CFI INIT 45c0 ae .cfa: $esp 4 + .ra: .cfa -4 + ^
STACK CFI 45c1 $esi: .cfa -8 + ^ .cfa: $esp 8 +
STACK CFI 45c2 $ebx: .cfa -12 + ^ .cfa: $esp 12 +
STACK CFI 45c5 .cfa: $esp 32 +
STACK CFI 461b .cfa: $esp 24 +
STACK CFI 461e .cfa: $esp 32 +
STACK CFI 4621 .cfa: $esp 12 +
STACK CFI 4622 $ebx: $ebx .cfa: $esp 8 +
STACK CFI 4623 $esi: $esi .cfa: $esp 4 +
STACK CFI 4624 $ebx: .cfa -12 + ^ $esi: .cfa -8 + ^ .cfa: $esp 32 +
STACK CFI 462d .cfa: $esp 12 +
STACK CFI 462e $ebx: $ebx .cfa: $esp 8 +
STACK CFI 462f $esi: $esi .cfa: $esp 4 +
STACK CFI 4630 $ebx: .cfa -12 + ^ $esi: .cfa -8 + ^ .cfa: $esp 32 +
STACK CFI 4648 .cfa: $esp 12 +
STACK CFI 4649 $ebx: $ebx .cfa: $esp 8 +
STACK CFI 464a $esi: $esi .cfa: $esp 4 +
STACK CFI 4650 $ebx: .cfa -12 + ^ $esi: .cfa -8 + ^ .cfa: $esp 32 +
STACK CFI 4653 .cfa: $esp 12 +
STACK CFI 4654 $ebx: $ebx .cfa: $esp 8 +
STACK CFI 4655 $esi: $esi .cfa: $esp 4 +
STACK CFI 465a $ebx: .cfa -12 + ^ $esi: .cfa -8 + ^ .cfa: $esp 32 +
STACK CFI INIT 4670 8a .cfa: $esp 4 + .ra: .cfa -4 + ^
STACK CFI 4671 $esi: .cfa -8 + ^ .cfa: $esp 8 +
STACK CFI 4672 $ebx: .cfa -12 + ^ .cfa: $esp 12 +
STACK CFI 4675 .cfa: $esp 32 +
STACK CFI 46c5 .cfa: $esp 12 +
STACK CFI 46c6 $ebx: $ebx .cfa: $esp 8 +
STACK CFI 46c7 $esi: $esi .cfa: $esp 4 +
STACK CFI 46d0 $ebx: .cfa -12 + ^ $esi: .cfa -8 + ^ .cfa: $esp 32 +
STACK CFI 46e9 .cfa: $esp 24 +
STACK CFI 46f3 .cfa: $esp 32 +
STACK CFI INIT 4700 3c1 .cfa: $esp 4 + .ra: .cfa -4 + ^
STACK CFI 4701 $ebp: .cfa -8 + ^ .cfa: $esp 8 +
STACK CFI 4707 .cfa: $esp 192 +
STACK CFI 4789 .cfa: $esp 8 +
STACK CFI 478a $ebp: $ebp .cfa: $esp 4 +
STACK CFI 4790 $ebp: .cfa -8 + ^ .cfa: $esp 192 +
STACK CFI 47e4 .cfa: $esp 184 +
STACK CFI 47e7 .cfa: $esp 192 +
STACK CFI INIT 4ad0 da .cfa: $esp 4 + .ra: .cfa -4 + ^
STACK CFI 4ad3 .cfa: $esp 32 +
STACK CFI 4b13 .cfa: $esp 24 +
STACK CFI 4b16 .cfa: $esp 32 +
STACK CFI 4b51 .cfa: $esp 4 +
STACK CFI 4b52 .cfa: $esp 32 +
STACK CFI 4b6b .cfa: $esp 24 +
STACK CFI 4b6e .cfa: $esp 32 +
STACK CFI 4ba9 .cfa: $esp 4 +
STACK CFI INIT 4bb0 94 .cfa: $esp 4 + .ra: .cfa -4 + ^
STACK CFI 4bb1 $ebx: .cfa -8 + ^ .cfa: $esp 8 +
STACK CFI 4bb4 .cfa: $esp 48 +
STACK CFI 4bd7 .cfa: $esp 40 +
STACK CFI 4bda .cfa: $esp 48 +
STACK CFI 4bdd .cfa: $esp 8 +
STACK CFI 4bde $ebx: $ebx .cfa: $esp 4 +
STACK CFI 4be0 $ebx: .cfa -8 + ^ .cfa: $esp 48 +
STACK CFI 4c42 .cfa: $esp 8 +
STACK CFI 4c43 $ebx: $ebx .cfa: $esp 4 +
STACK CFI INIT 4c50 c2 .cfa: $esp 4 + .ra: .cfa -4 + ^
STACK CFI 4c53 .cfa: $esp 32 +
STACK CFI 4cb7 .cfa: $esp 4 +
STACK CFI 4cc0 .cfa: $esp 32 +
STACK CFI 4ce3 .cfa: $esp 24 +
STACK CFI 4ceb .cfa: $esp 32 +
STACK CFI INIT 4d20 392 .cfa: $esp 4 + .ra: .cfa -4 + ^
STACK CFI 4d23 .cfa: $esp 64 +
STACK CFI 5065 .cfa: $esp 56 +
STACK CFI 5068 .cfa: $esp 64 +
STACK CFI 5070 .cfa: $esp 4 +
STACK CFI 5071 .cfa: $esp 64 +
STACK CFI INIT 50c0 181 .cfa: $esp 4 + .ra: .cfa -4 + ^
STACK CFI 50c1 $ebp: .cfa -8 + ^ .cfa: $esp 8 +
STACK CFI 50c2 $edi: .cfa -12 + ^ .cfa: $esp 12 +
STACK CFI 50c8 $esi: .cfa -16 + ^ .cfa: $esp 16 +
STACK CFI 50c9 $ebx: .cfa -20 + ^ .cfa: $esp 20 +
STACK CFI 50d0 .cfa: $esp 16432 +
STACK CFI 517b .cfa: $esp 16424 +
STACK CFI 517e .cfa: $esp 16432 +
STACK CFI 51db .cfa: $esp 16420 +
STACK CFI 51e1 .cfa: $esp 16432 +
STACK CFI 51ef .cfa: $esp 20 +
STACK CFI 51f0 $ebx: $ebx .cfa: $esp 16 +
STACK CFI 51f1 $esi: $esi .cfa: $esp 12 +
STACK CFI 51f2 $edi: $edi .cfa: $esp 8 +
STACK CFI 51f3 $ebp: $ebp .cfa: $esp 4 +
STACK CFI 51f4 $ebp: .cfa -8 + ^ $ebx: .cfa -20 + ^ $edi: .cfa -12 + ^ $esi: .cfa -16 + ^ .cfa: $esp 16432 +
STACK CFI 5233 .cfa: $esp 16424 +
STACK CFI 5236 .cfa: $esp 16432 +
STACK CFI 523c .cfa: $esp 20 +
STACK CFI 523d $ebx: $ebx .cfa: $esp 16 +
STACK CFI 523e $esi: $esi .cfa: $esp 12 +
STACK CFI 523f $edi: $edi .cfa: $esp 8 +
STACK CFI 5240 $ebp: $ebp .cfa: $esp 4 +
STACK CFI INIT 5250 388 .cfa: $esp 4 + .ra: .cfa -4 + ^
STACK CFI 5251 $esi: .cfa -8 + ^ .cfa: $esp 8 +
STACK CFI 5256 $ebx: .cfa -12 + ^ .cfa: $esp 12 +
STACK CFI 525e .cfa: $esp 48 +
STACK CFI 5298 .cfa: $esp 32 +
STACK CFI 529b .cfa: $esp 48 +
STACK CFI 52b4 .cfa: $esp 40 +
STACK CFI 52bb .cfa: $esp 48 +
STACK CFI 52f6 .cfa: $esp 32 +
STACK CFI 52fd .cfa: $esp 48 +
STACK CFI 5338 .cfa: $esp 32 +
STACK CFI 5340 .cfa: $esp 48 +
STACK CFI 5383 .cfa: $esp 32 +
STACK CFI 5386 .cfa: $esp 48 +
STACK CFI 53c5 .cfa: $esp 32 +
STACK CFI 53c8 .cfa: $esp 48 +
STACK CFI 53e1 .cfa: $esp 40 +
STACK CFI 53e8 .cfa: $esp 48 +
STACK CFI 5423 .cfa: $esp 32 +
STACK CFI 542a .cfa: $esp 48 +
STACK CFI 5465 .cfa: $esp 32 +
STACK CFI 546d .cfa: $esp 48 +
STACK CFI 54b0 .cfa: $esp 32 +
STACK CFI 54b3 .cfa: $esp 48 +
STACK CFI 54f2 .cfa: $esp 32 +
STACK CFI 54f5 .cfa: $esp 48 +
STACK CFI 550e .cfa: $esp 40 +
STACK CFI 551c .cfa: $esp 48 +
STACK CFI 555b .cfa: $esp 32 +
STACK CFI 5564 .cfa: $esp 48 +
STACK CFI 55cf .cfa: $esp 32 +
STACK CFI 55d2 .cfa: $esp 48 +
STACK CFI 55d5 .cfa: $esp 12 +
STACK CFI 55d6 $ebx: $ebx .cfa: $esp 8 +
STACK CFI 55d7 $esi: $esi .cfa: $esp 4 +
STACK CFI INIT 55e0 89 .cfa: $esp 4 + .ra: .cfa -4 + ^
STACK CFI 55e1 $ebx: .cfa -8 + ^ .cfa: $esp 8 +
STACK CFI 55e4 .cfa: $esp 96 +
STACK CFI 5638 .cfa: $esp 8 +
STACK CFI 5639 $ebx: $ebx .cfa: $esp 4 +
STACK CFI 5640 $ebx: .cfa -8 + ^ .cfa: $esp 96 +
STACK CFI 5661 .cfa: $esp 84 +
STACK CFI 5664 .cfa: $esp 96 +
STACK CFI 5667 .cfa: $esp 8 +
STACK CFI 5668 $ebx: $ebx .cfa: $esp 4 +
STACK CFI INIT 5670 35 .cfa: $esp 4 + .ra: .cfa -4 + ^
STACK CFI 5683 .cfa: $esp 32 +
STACK CFI 56a4 .cfa: $esp 4 +
STACK CFI INIT 56b0 12 .cfa: $esp 4 + .ra: .cfa -4 + ^
STACK CFI INIT 56d0 a1 .cfa: $esp 4 + .ra: .cfa -4 + ^
STACK CFI 56d1 $ebx: .cfa -8 + ^ .cfa: $esp 8 +
STACK CFI 56d4 .cfa: $esp 96 +
STACK CFI 56f5 .cfa: $esp 8 +
STACK CFI 56f6 $ebx: $ebx .cfa: $esp 4 +
STACK CFI 5700 $ebx: .cfa -8 + ^ .cfa: $esp 96 +
STACK CFI 5759 .cfa: $esp 84 +
STACK CFI 575c .cfa: $esp 96 +
STACK CFI 576f .cfa: $esp 8 +
STACK CFI 5770 $ebx: $ebx .cfa: $esp 4 +
STACK CFI INIT 5780 c4 .cfa: $esp 4 + .ra: .cfa -4 + ^
STACK CFI 5781 $esi: .cfa -8 + ^ .cfa: $esp 8 +
STACK CFI 5782 $ebx: .cfa -12 + ^ .cfa: $esp 12 +
STACK CFI 5787 .cfa: $esp 96 +
STACK CFI 57ec .cfa: $esp 12 +
STACK CFI 57ed $ebx: $ebx .cfa: $esp 8 +
STACK CFI 57ee $esi: $esi .cfa: $esp 4 +
STACK CFI 57f0 $ebx: .cfa -12 + ^ $esi: .cfa -8 + ^ .cfa: $esp 96 +
STACK CFI 5827 .cfa: $esp 84 +
STACK CFI 582a .cfa: $esp 96 +
STACK CFI INIT 5850 1721 .cfa: $esp 4 + .ra: .cfa -4 + ^
STACK CFI 5851 $ebp: .cfa -8 + ^ .cfa: $esp 8 +
STACK CFI 5858 .cfa: $ebp 8 +
STACK CFI 5861 $ebx: .cfa -16 + ^ $esi: .cfa -12 + ^
STACK CFI 5d0b $ebx: $ebx
STACK CFI 5d0c $esi: $esi
STACK CFI 5d0d $ebp: $ebp .cfa: $esp 4 +
STACK CFI 5d10 $ebp: .cfa -8 + ^ $ebx: .cfa -16 + ^ $esi: .cfa -12 + ^ .cfa: $ebp 8 +
STACK CFI INIT 6f80 e3 .cfa: $esp 4 + .ra: .cfa -4 + ^
STACK CFI 6f81 $ebx: .cfa -8 + ^ .cfa: $esp 8 +
STACK CFI 6f84 .cfa: $esp 32 +
STACK CFI 6fbc .cfa: $esp 8 +
STACK CFI 6fbd $ebx: $ebx .cfa: $esp 4 +
STACK CFI 6fc0 $ebx: .cfa -8 + ^ .cfa: $esp 32 +
STACK CFI 6fe0 .cfa: $esp 8 +
STACK CFI 6fe1 $ebx: $ebx .cfa: $esp 4 +
STACK CFI 6fe2 $ebx: .cfa -8 + ^ .cfa: $esp 32 +
STACK CFI 7052 .cfa: $esp 20 +
STACK CFI 7055 .cfa: $esp 32 +
STACK CFI 7061 .cfa: $esp 8 +
STACK CFI 7062 $ebx: $ebx .cfa: $esp 4 +
STACK CFI INIT 7070 73e .cfa: $esp 4 + .ra: .cfa -4 + ^
STACK CFI 7071 $ebp: .cfa -8 + ^ .cfa: $esp 8 +
STACK CFI 7073 .cfa: $ebp 8 +
STACK CFI 707e $ebx: .cfa -16 + ^ $esi: .cfa -12 + ^
STACK CFI 7302 $ebx: $ebx
STACK CFI 7303 $esi: $esi
STACK CFI 7304 $ebp: $ebp .cfa: $esp 4 +
STACK CFI 7305 $ebp: .cfa -8 + ^ $ebx: .cfa -16 + ^ $esi: .cfa -12 + ^ .cfa: $ebp 8 +
STACK CFI INIT 1a2d90 6ef .cfa: $esp 4 + .ra: .cfa -4 + ^
STACK CFI 1a2d91 $ebp: .cfa -8 + ^ .cfa: $esp 8 +
STACK CFI 1a2d93 .cfa: $ebp 8 +
STACK CFI 1a33be $ebp: $ebp .cfa: $esp 4 +
STACK CFI 1a33bf $ebp: .cfa -8 + ^ .cfa: $ebp 8 +
STACK CFI INIT 1a3480 5 .cfa: $esp 4 + .ra: .cfa -4 + ^
STACK CFI INIT 178f20 67 .cfa: $esp 4 + .ra: .cfa -4 + ^
STACK CFI 178f21 $ebx: .cfa -8 + ^ .cfa: $esp 8 +
STACK CFI 178f29 .cfa: $esp 32 +
STACK CFI 178f85 .cfa: $esp 8 +
STACK CFI 178f86 $ebx: $ebx .cfa: $esp 4 +
STACK CFI INIT 17b900 a4 .cfa: $esp 4 + .ra: .cfa -4 + ^
STACK CFI 17b901 $esi: .cfa -8 + ^ .cfa: $esp 8 +
STACK CFI 17b902 $ebx: .cfa -12 + ^ .cfa: $esp 12 +
STACK CFI 17b907 .cfa: $esp 96 +
STACK CFI 17b9a1 .cfa: $esp 12 +
STACK CFI 17b9a2 $ebx: $ebx .cfa: $esp 8 +
STACK CFI 17b9a3 $esi: $esi .cfa: $esp 4 +
STACK CFI INIT 179e30 55 .cfa: $esp 4 + .ra: .cfa -4 + ^
STACK CFI 179e31 $ebx: .cfa -8 + ^ .cfa: $esp 8 +
STACK CFI 179e39 .cfa: $esp 32 +
STACK CFI 179e83 .cfa: $esp 8 +
STACK CFI 179e84 $ebx: $ebx .cfa: $esp 4 +
STACK CFI INIT 1796f0 55 .cfa: $esp 4 + .ra: .cfa -4 + ^
STACK CFI 1796f1 $ebx: .cfa -8 + ^ .cfa: $esp 8 +
STACK CFI 1796f9 .cfa: $esp 32 +
STACK CFI 179743 .cfa: $esp 8 +
STACK CFI 179744 $ebx: $ebx .cfa: $esp 4 +
STACK CFI INIT 179750 4d .cfa: $esp 4 + .ra: .cfa -4 + ^
STACK CFI 179751 $ebx: .cfa -8 + ^ .cfa: $esp 8 +
STACK CFI 179759 .cfa: $esp 32 +
STACK CFI 17979b .cfa: $esp 8 +
STACK CFI 17979c $ebx: $ebx .cfa: $esp 4 +
STACK CFI INIT 179e90 4d .cfa: $esp 4 + .ra: .cfa -4 + ^
STACK CFI 179e91 $ebx: .cfa -8 + ^ .cfa: $esp 8 +
STACK CFI 179e99 .cfa: $esp 32 +
STACK CFI 179edb .cfa: $esp 8 +
STACK CFI 179edc $ebx: $ebx .cfa: $esp 4 +
STACK CFI INIT 17b9b0 9c .cfa: $esp 4 + .ra: .cfa -4 + ^
STACK CFI 17b9b1 $esi: .cfa -8 + ^ .cfa: $esp 8 +
STACK CFI 17b9b2 $ebx: .cfa -12 + ^ .cfa: $esp 12 +
STACK CFI 17b9b7 .cfa: $esp 96 +
STACK CFI 17ba49 .cfa: $esp 12 +
STACK CFI 17ba4a $ebx: $ebx .cfa: $esp 8 +
STACK CFI 17ba4b $esi: $esi .cfa: $esp 4 +
STACK CFI INIT 178f90 5f .cfa: $esp 4 + .ra: .cfa -4 + ^
STACK CFI 178f91 $ebx: .cfa -8 + ^ .cfa: $esp 8 +
STACK CFI 178f99 .cfa: $esp 32 +
STACK CFI 178fed .cfa: $esp 8 +
STACK CFI 178fee $ebx: $ebx .cfa: $esp 4 +
STACK CFI INIT 112270 98 .cfa: $esp 4 + .ra: .cfa -4 + ^
STACK CFI 112271 $ebx: .cfa -8 + ^ .cfa: $esp 8 +
STACK CFI 112274 .cfa: $esp 32 +
STACK CFI 1122b9 .cfa: $esp 24 +
STACK CFI 1122bc .cfa: $esp 32 +
STACK CFI 1122bf .cfa: $esp 8 +
STACK CFI 1122c0 $ebx: $ebx .cfa: $esp 4 +
STACK CFI 1122c1 $ebx: .cfa -8 + ^ .cfa: $esp 32 +
STACK CFI 1122d8 .cfa: $esp 8 +
STACK CFI 1122d9 $ebx: $ebx .cfa: $esp 4 +
STACK CFI 1122e0 $ebx: .cfa -8 + ^ .cfa: $esp 32 +
STACK CFI 1122e8 .cfa: $esp 28 +
STACK CFI 1122eb .cfa: $esp 32 +
STACK CFI 1122ee .cfa: $esp 8 +
STACK CFI 1122ef $ebx: $ebx .cfa: $esp 4 +
STACK CFI 1122f0 $ebx: .cfa -8 + ^ .cfa: $esp 32 +
STACK CFI 112303 .cfa: $esp 28 +
STACK CFI 112306 .cfa: $esp 32 +
STACK CFI INIT 112130 98 .cfa: $esp 4 + .ra: .cfa -4 + ^
STACK CFI 112131 $ebx: .cfa -8 + ^ .cfa: $esp 8 +
STACK CFI 112134 .cfa: $esp 32 +
STACK CFI 112179 .cfa: $esp 24 +
STACK CFI 11217c .cfa: $esp 32 +
STACK CFI 11217f .cfa: $esp 8 +
STACK CFI 112180 $ebx: $ebx .cfa: $esp 4 +
STACK CFI 112181 $ebx: .cfa -8 + ^ .cfa: $esp 32 +
STACK CFI 112198 .cfa: $esp 8 +
STACK CFI 112199 $ebx: $ebx .cfa: $esp 4 +
STACK CFI 1121a0 $ebx: .cfa -8 + ^ .cfa: $esp 32 +
STACK CFI 1121a8 .cfa: $esp 28 +
STACK CFI 1121ab .cfa: $esp 32 +
STACK CFI 1121ae .cfa: $esp 8 +
STACK CFI 1121af $ebx: $ebx .cfa: $esp 4 +
STACK CFI 1121b0 $ebx: .cfa -8 + ^ .cfa: $esp 32 +
STACK CFI 1121c3 .cfa: $esp 28 +
STACK CFI 1121c6 .cfa: $esp 32 +
STACK CFI INIT 11afa0 ca .cfa: $esp 4 + .ra: .cfa -4 + ^
STACK CFI 11afa1 $ebp: .cfa -8 + ^ .cfa: $esp 8 +
STACK CFI 11afa4 .cfa: $esp 128 +
STACK CFI 11affc .cfa: $esp 120 +
STACK CFI 11afff .cfa: $esp 128 +
STACK CFI 11b036 .cfa: $esp 8 +
STACK CFI 11b039 $ebp: $ebp .cfa: $esp 4 +
STACK CFI 11b03a $ebp: .cfa -8 + ^ .cfa: $esp 128 +
STACK CFI INIT 11b140 ca .cfa: $esp 4 + .ra: .cfa -4 + ^
STACK CFI 11b141 $ebp: .cfa -8 + ^ .cfa: $esp 8 +
STACK CFI 11b144 .cfa: $esp 128 +
STACK CFI 11b19c .cfa: $esp 120 +
STACK CFI 11b19f .cfa: $esp 128 +
STACK CFI 11b1d6 .cfa: $esp 8 +
STACK CFI 11b1d9 $ebp: $ebp .cfa: $esp 4 +
STACK CFI 11b1da $ebp: .cfa -8 + ^ .cfa: $esp 128 +
STACK CFI INIT 11b4a0 ca .cfa: $esp 4 + .ra: .cfa -4 + ^
STACK CFI 11b4a1 $ebp: .cfa -8 + ^ .cfa: $esp 8 +
STACK CFI 11b4a4 .cfa: $esp 128 +
STACK CFI 11b4fc .cfa: $esp 120 +
STACK CFI 11b4ff .cfa: $esp 128 +
STACK CFI 11b536 .cfa: $esp 8 +
STACK CFI 11b539 $ebp: $ebp .cfa: $esp 4 +
STACK CFI 11b53a $ebp: .cfa -8 + ^ .cfa: $esp 128 +
STACK CFI INIT 11b570 ca .cfa: $esp 4 + .ra: .cfa -4 + ^
STACK CFI 11b571 $ebp: .cfa -8 + ^ .cfa: $esp 8 +
STACK CFI 11b574 .cfa: $esp 128 +
STACK CFI 11b5cc .cfa: $esp 120 +
STACK CFI 11b5cf .cfa: $esp 128 +
STACK CFI 11b606 .cfa: $esp 8 +
STACK CFI 11b609 $ebp: $ebp .cfa: $esp 4 +
STACK CFI 11b60a $ebp: .cfa -8 + ^ .cfa: $esp 128 +
STACK CFI INIT 179b80 2b .cfa: $esp 4 + .ra: .cfa -4 + ^
STACK CFI 179b81 $ebx: .cfa -8 + ^ .cfa: $esp 8 +
STACK CFI 179b89 .cfa: $esp 32 +
STACK CFI 179b9f .cfa: $esp 24 +
STACK CFI 179ba2 .cfa: $esp 32 +
STACK CFI 179ba7 .cfa: $esp 8 +
STACK CFI 179ba8 $ebx: $ebx .cfa: $esp 4 +
STACK CFI INIT 178b40 2b .cfa: $esp 4 + .ra: .cfa -4 + ^
STACK CFI 178b41 $ebx: .cfa -8 + ^ .cfa: $esp 8 +
STACK CFI 178b49 .cfa: $esp 32 +
STACK CFI 178b5f .cfa: $esp 24 +
STACK CFI 178b62 .cfa: $esp 32 +
STACK CFI 178b67 .cfa: $esp 8 +
STACK CFI 178b68 $ebx: $ebx .cfa: $esp 4 +
STACK CFI INIT 1793d0 2b .cfa: $esp 4 + .ra: .cfa -4 + ^
STACK CFI 1793d1 $ebx: .cfa -8 + ^ .cfa: $esp 8 +
STACK CFI 1793d9 .cfa: $esp 32 +
STACK CFI 1793ef .cfa: $esp 24 +
STACK CFI 1793f2 .cfa: $esp 32 +
STACK CFI 1793f7 .cfa: $esp 8 +
STACK CFI 1793f8 $ebx: $ebx .cfa: $esp 4 +
STACK CFI INIT 179bb0 33 .cfa: $esp 4 + .ra: .cfa -4 + ^
STACK CFI 179bb1 $ebx: .cfa -8 + ^ .cfa: $esp 8 +
STACK CFI 179bbc .cfa: $esp 32 +
STACK CFI 179bd7 .cfa: $esp 24 +
STACK CFI 179bda .cfa: $esp 32 +
STACK CFI 179bdf .cfa: $esp 8 +
STACK CFI 179be0 $ebx: $ebx .cfa: $esp 4 +
STACK CFI INIT 178b70 33 .cfa: $esp 4 + .ra: .cfa -4 + ^
STACK CFI 178b71 $ebx: .cfa -8 + ^ .cfa: $esp 8 +
STACK CFI 178b7c .cfa: $esp 32 +
STACK CFI 178b97 .cfa: $esp 24 +
STACK CFI 178b9a .cfa: $esp 32 +
STACK CFI 178b9f .cfa: $esp 8 +
STACK CFI 178ba0 $ebx: $ebx .cfa: $esp 4 +
STACK CFI INIT 1794b0 33 .cfa: $esp 4 + .ra: .cfa -4 + ^
STACK CFI 1794b1 $ebx: .cfa -8 + ^ .cfa: $esp 8 +
STACK CFI 1794bc .cfa: $esp 32 +
STACK CFI 1794d7 .cfa: $esp 24 +
STACK CFI 1794da .cfa: $esp 32 +
STACK CFI 1794df .cfa: $esp 8 +
STACK CFI 1794e0 $ebx: $ebx .cfa: $esp 4 +
STACK CFI INIT 115e60 619 .cfa: $esp 4 + .ra: .cfa -4 + ^
STACK CFI 115e61 $ebp: .cfa -8 + ^ .cfa: $esp 8 +
STACK CFI 115e63 .cfa: $ebp 8 +
STACK CFI 115e6e $ebx: .cfa -16 + ^ $esi: .cfa -12 + ^
STACK CFI 11614a $ebx: $ebx
STACK CFI 11614b $esi: $esi
STACK CFI 11614c $ebp: $ebp .cfa: $esp 4 +
STACK CFI 116150 $ebp: .cfa -8 + ^ $ebx: .cfa -16 + ^ $esi: .cfa -12 + ^ .cfa: $ebp 8 +
STACK CFI INIT 1157b0 6a9 .cfa: $esp 4 + .ra: .cfa -4 + ^
STACK CFI 1157b1 $ebp: .cfa -8 + ^ .cfa: $esp 8 +
STACK CFI 1157b3 .cfa: $ebp 8 +
STACK CFI 1157be $ebx: .cfa -16 + ^ $esi: .cfa -12 + ^
STACK CFI 115b96 $ebx: $ebx
STACK CFI 115b97 $esi: $esi
STACK CFI 115b98 $ebp: $ebp .cfa: $esp 4 +
STACK CFI 115ba0 $ebp: .cfa -8 + ^ $ebx: .cfa -16 + ^ $esi: .cfa -12 + ^ .cfa: $ebp 8 +
STACK CFI INIT 117ad0 659 .cfa: $esp 4 + .ra: .cfa -4 + ^
STACK CFI 117ad1 $ebp: .cfa -8 + ^ .cfa: $esp 8 +
STACK CFI 117ad3 .cfa: $ebp 8 +
STACK CFI 117ade $ebx: .cfa -16 + ^ $esi: .cfa -12 + ^
STACK CFI 117db9 $ebx: $ebx
STACK CFI 117dba $esi: $esi
STACK CFI 117dbb $ebp: $ebp .cfa: $esp 4 +
STACK CFI 117dc0 $ebp: .cfa -8 + ^ $ebx: .cfa -16 + ^ $esi: .cfa -12 + ^ .cfa: $ebp 8 +
STACK CFI INIT 118190 649 .cfa: $esp 4 + .ra: .cfa -4 + ^
STACK CFI 118191 $ebp: .cfa -8 + ^ .cfa: $esp 8 +
STACK CFI 118193 .cfa: $ebp 8 +
STACK CFI 11819e $ebx: .cfa -16 + ^ $esi: .cfa -12 + ^
STACK CFI 11846f $ebx: $ebx
STACK CFI 118470 $esi: $esi
STACK CFI 118471 $ebp: $ebp .cfa: $esp 4 +
STACK CFI 118472 $ebp: .cfa -8 + ^ $ebx: .cfa -16 + ^ $esi: .cfa -12 + ^ .cfa: $ebp 8 +
STACK CFI INIT 17bbb0 35 .cfa: $esp 4 + .ra: .cfa -4 + ^
STACK CFI 17bbb1 $ebx: .cfa -8 + ^ .cfa: $esp 8 +
STACK CFI 17bbb9 .cfa: $esp 32 +
STACK CFI 17bbe3 .cfa: $esp 8 +
STACK CFI 17bbe4 $ebx: $ebx .cfa: $esp 4 +
STACK CFI INIT 14a010 15f .cfa: $esp 4 + .ra: .cfa -4 + ^
STACK CFI 14a011 $ebp: .cfa -8 + ^ .cfa: $esp 8 +
STACK CFI 14a013 .cfa: $ebp 8 +
STACK CFI 14a068 $ebp: $ebp .cfa: $esp 4 +
STACK CFI 14a070 $ebp: .cfa -8 + ^ .cfa: $ebp 8 +
STACK CFI 14a11f $ebp: $ebp .cfa: $esp 4 +
STACK CFI 14a122 $ebp: .cfa -8 + ^ .cfa: $ebp 8 +
STACK CFI INIT 159bc0 11bc .cfa: $esp 4 + .ra: .cfa -4 + ^
STACK CFI 159bc1 $ebp: .cfa -8 + ^ .cfa: $esp 8 +
STACK CFI 159bc3 .cfa: $ebp 8 +
STACK CFI 159bce $ebx: .cfa -16 + ^ $esi: .cfa -12 + ^
STACK CFI 159c3e $ebx: $ebx
STACK CFI 159c3f $esi: $esi
STACK CFI 159c40 $ebp: $ebp .cfa: $esp 4 +
STACK CFI 159c43 $ebp: .cfa -8 + ^ $ebx: .cfa -16 + ^ $esi: .cfa -12 + ^ .cfa: $ebp 8 +
STACK CFI INIT 16e1f0 11d2 .cfa: $esp 4 + .ra: .cfa -4 + ^
STACK CFI 16e1f1 $ebp: .cfa -8 + ^ .cfa: $esp 8 +
STACK CFI 16e1f3 .cfa: $ebp 8 +
STACK CFI 16e1fe $ebx: .cfa -16 + ^ $esi: .cfa -12 + ^
STACK CFI 16e26e $ebx: $ebx
STACK CFI 16e26f $esi: $esi
STACK CFI 16e270 $ebp: $ebp .cfa: $esp 4 +
STACK CFI 16e273 $ebp: .cfa -8 + ^ $ebx: .cfa -16 + ^ $esi: .cfa -12 + ^ .cfa: $ebp 8 +
STACK CFI INIT 161a80 11bc .cfa: $esp 4 + .ra: .cfa -4 + ^
STACK CFI 161a81 $ebp: .cfa -8 + ^ .cfa: $esp 8 +
STACK CFI 161a83 .cfa: $ebp 8 +
STACK CFI 161a8e $ebx: .cfa -16 + ^ $esi: .cfa -12 + ^
STACK CFI 161afe $ebx: $ebx
STACK CFI 161aff $esi: $esi
STACK CFI 161b00 $ebp: $ebp .cfa: $esp 4 +
STACK CFI 161b03 $ebp: .cfa -8 + ^ $ebx: .cfa -16 + ^ $esi: .cfa -12 + ^ .cfa: $ebp 8 +
STACK CFI INIT 157800 11bc .cfa: $esp 4 + .ra: .cfa -4 + ^
STACK CFI 157801 $ebp: .cfa -8 + ^ .cfa: $esp 8 +
STACK CFI 157803 .cfa: $ebp 8 +
STACK CFI 15780e $ebx: .cfa -16 + ^ $esi: .cfa -12 + ^
STACK CFI 15787e $ebx: $ebx
STACK CFI 15787f $esi: $esi
STACK CFI 157880 $ebp: $ebp .cfa: $esp 4 +
STACK CFI 157883 $ebp: .cfa -8 + ^ $ebx: .cfa -16 + ^ $esi: .cfa -12 + ^ .cfa: $ebp 8 +
STACK CFI INIT 16cf40 12a2 .cfa: $esp 4 + .ra: .cfa -4 + ^
STACK CFI 16cf41 $ebp: .cfa -8 + ^ .cfa: $esp 8 +
STACK CFI 16cf43 .cfa: $ebp 8 +
STACK CFI 16cf4e $ebx: .cfa -16 + ^ $esi: .cfa -12 + ^
STACK CFI 16cfbe $ebx: $ebx
STACK CFI 16cfbf $esi: $esi
STACK CFI 16cfc0 $ebp: $ebp .cfa: $esp 4 +
STACK CFI 16cfc3 $ebp: .cfa -8 + ^ $ebx: .cfa -16 + ^ $esi: .cfa -12 + ^ .cfa: $ebp 8 +
STACK CFI INIT 16bd00 1232 .cfa: $esp 4 + .ra: .cfa -4 + ^
STACK CFI 16bd01 $ebp: .cfa -8 + ^ .cfa: $esp 8 +
STACK CFI 16bd03 .cfa: $ebp 8 +
STACK CFI 16bd0e $ebx: .cfa -16 + ^ $esi: .cfa -12 + ^
STACK CFI 16bd7e $ebx: $ebx
STACK CFI 16bd7f $esi: $esi
STACK CFI 16bd80 $ebp: $ebp .cfa: $esp 4 +
STACK CFI 16bd83 $ebp: .cfa -8 + ^ $ebx: .cfa -16 + ^ $esi: .cfa -12 + ^ .cfa: $ebp 8 +
STACK CFI INIT 12b690 1033 .cfa: $esp 4 + .ra: .cfa -4 + ^
STACK CFI 12b691 $ebp: .cfa -8 + ^ .cfa: $esp 8 +
STACK CFI 12b693 .cfa: $ebp 8 +
STACK CFI 12b69f $ebx: .cfa -20 + ^ $edi: .cfa -12 + ^ $esi: .cfa -16 + ^
STACK CFI 12bcb5 $ebx: $ebx
STACK CFI 12bcb6 $esi: $esi
STACK CFI 12bcb7 $edi: $edi
STACK CFI 12bcb8 $ebp: $ebp .cfa: $esp 4 +
STACK CFI 12bcc0 $ebp: .cfa -8 + ^ $ebx: .cfa -20 + ^ $edi: .cfa -12 + ^ $esi: .cfa -16 + ^ .cfa: $ebp 8 +
STACK CFI INIT 16a2d0 153 .cfa: $esp 4 + .ra: .cfa -4 + ^
STACK CFI 16a2d1 $ebp: .cfa -8 + ^ .cfa: $esp 8 +
STACK CFI 16a2d3 .cfa: $ebp 8 +
STACK CFI 16a328 $ebp: $ebp .cfa: $esp 4 +
STACK CFI 16a330 $ebp: .cfa -8 + ^ .cfa: $ebp 8 +
STACK CFI 16a3d3 $ebp: $ebp .cfa: $esp 4 +
STACK CFI 16a3d6 $ebp: .cfa -8 + ^ .cfa: $ebp 8 +
STACK CFI INIT 1420f0 153 .cfa: $esp 4 + .ra: .cfa -4 + ^
STACK CFI 1420f1 $ebp: .cfa -8 + ^ .cfa: $esp 8 +
STACK CFI 1420f3 .cfa: $ebp 8 +
STACK CFI 142148 $ebp: $ebp .cfa: $esp 4 +
STACK CFI 142150 $ebp: .cfa -8 + ^ .cfa: $ebp 8 +
STACK CFI 1421f3 $ebp: $ebp .cfa: $esp 4 +
STACK CFI 1421f6 $ebp: .cfa -8 + ^ .cfa: $ebp 8 +
STACK CFI INIT 1232f0 1073 .cfa: $esp 4 + .ra: .cfa -4 + ^
STACK CFI 1232f1 $ebp: .cfa -8 + ^ .cfa: $esp 8 +
STACK CFI 1232f3 .cfa: $ebp 8 +
STACK CFI 1232ff $ebx: .cfa -20 + ^ $edi: .cfa -12 + ^ $esi: .cfa -16 + ^
STACK CFI 123957 $ebx: $ebx
STACK CFI 123958 $esi: $esi
STACK CFI 123959 $edi: $edi
STACK CFI 12395a $ebp: $ebp .cfa: $esp 4 +
STACK CFI 123960 $ebp: .cfa -8 + ^ $ebx: .cfa -20 + ^ $edi: .cfa -12 + ^ $esi: .cfa -16 + ^ .cfa: $ebp 8 +
STACK CFI INIT 178ff0 1a0 .cfa: $esp 4 + .ra: .cfa -4 + ^
STACK CFI 178ff1 $ebp: .cfa -8 + ^ .cfa: $esp 8 +
STACK CFI 178ff7 .cfa: $esp 160 +
STACK CFI 179076 .cfa: $esp 152 +
STACK CFI 179079 .cfa: $esp 160 +
STACK CFI 179110 .cfa: $esp 8 +
STACK CFI 179111 $ebp: $ebp .cfa: $esp 4 +
STACK CFI 179114 $ebp: .cfa -8 + ^ .cfa: $esp 160 +
STACK CFI 179132 .cfa: $esp 156 +
STACK CFI 179135 .cfa: $esp 160 +
STACK CFI INIT 179400 ae .cfa: $esp 4 + .ra: .cfa -4 + ^
STACK CFI 179401 $ebp: .cfa -8 + ^ .cfa: $esp 8 +
STACK CFI 179403 .cfa: $ebp 8 +
STACK CFI 179480 $ebp: $ebp .cfa: $esp 4 +
STACK CFI 179481 $ebp: .cfa -8 + ^ .cfa: $ebp 8 +
STACK CFI INIT 17b520 3d6 .cfa: $esp 4 + .ra: .cfa -4 + ^
STACK CFI 17b521 $ebp: .cfa -8 + ^ .cfa: $esp 8 +
STACK CFI 17b523 .cfa: $ebp 8 +
STACK CFI 17b52d $ebx: .cfa -12 + ^
STACK CFI 17b77f $ebp: $ebp $ebx: $ebx .cfa: $esp 4 +
STACK CFI 17b782 $ebp: .cfa -8 + ^ $ebx: .cfa -12 + ^ .cfa: $ebp 8 +
STACK CFI INIT 1794f0 200 .cfa: $esp 4 + .ra: .cfa -4 + ^
STACK CFI 1794f1 $ebp: .cfa -8 + ^ .cfa: $esp 8 +
STACK CFI 1794f3 .cfa: $ebp 8 +
STACK CFI 179632 $ebp: $ebp .cfa: $esp 4 +
STACK CFI 179635 $ebp: .cfa -8 + ^ .cfa: $ebp 8 +
STACK CFI INIT 1786d0 1a0 .cfa: $esp 4 + .ra: .cfa -4 + ^
STACK CFI 1786d1 $ebp: .cfa -8 + ^ .cfa: $esp 8 +
STACK CFI 1786d7 .cfa: $esp 160 +
STACK CFI 178756 .cfa: $esp 152 +
STACK CFI 178759 .cfa: $esp 160 +
STACK CFI 1787f0 .cfa: $esp 8 +
STACK CFI 1787f1 $ebp: $ebp .cfa: $esp 4 +
STACK CFI 1787f4 $ebp: .cfa -8 + ^ .cfa: $esp 160 +
STACK CFI 178812 .cfa: $esp 156 +
STACK CFI 178815 .cfa: $esp 160 +
STACK CFI INIT 178bb0 36f .cfa: $esp 4 + .ra: .cfa -4 + ^
STACK CFI 178bb1 $ebp: .cfa -8 + ^ .cfa: $esp 8 +
STACK CFI 178bb3 .cfa: $ebp 8 +
STACK CFI 178bbe $ebx: .cfa -16 + ^ $esi: .cfa -12 + ^
STACK CFI 178ddb $ebx: $ebx
STACK CFI 178ddc $esi: $esi
STACK CFI 178ddd $ebp: $ebp .cfa: $esp 4 +
STACK CFI 178de0 $ebp: .cfa -8 + ^ $ebx: .cfa -16 + ^ $esi: .cfa -12 + ^ .cfa: $ebp 8 +
STACK CFI INIT 1797a0 1a0 .cfa: $esp 4 + .ra: .cfa -4 + ^
STACK CFI 1797a1 $ebp: .cfa -8 + ^ .cfa: $esp 8 +
STACK CFI 1797a7 .cfa: $esp 160 +
STACK CFI 179826 .cfa: $esp 152 +
STACK CFI 179829 .cfa: $esp 160 +
STACK CFI 1798c0 .cfa: $esp 8 +
STACK CFI 1798c1 $ebp: $ebp .cfa: $esp 4 +
STACK CFI 1798c4 $ebp: .cfa -8 + ^ .cfa: $esp 160 +
STACK CFI 1798e2 .cfa: $esp 156 +
STACK CFI 1798e5 .cfa: $esp 160 +
STACK CFI INIT 179bf0 23a .cfa: $esp 4 + .ra: .cfa -4 + ^
STACK CFI 179bf1 $ebp: .cfa -8 + ^ .cfa: $esp 8 +
STACK CFI 179bf3 .cfa: $ebp 8 +
STACK CFI 179d60 $ebp: $ebp .cfa: $esp 4 +
STACK CFI 179d63 $ebp: .cfa -8 + ^ .cfa: $ebp 8 +
STACK CFI INIT 120cb0 1053 .cfa: $esp 4 + .ra: .cfa -4 + ^
STACK CFI 120cb1 $ebp: .cfa -8 + ^ .cfa: $esp 8 +
STACK CFI 120cb3 .cfa: $ebp 8 +
STACK CFI 120cbf $ebx: .cfa -20 + ^ $edi: .cfa -12 + ^ $esi: .cfa -16 + ^
STACK CFI 1212f7 $ebx: $ebx
STACK CFI 1212f8 $esi: $esi
STACK CFI 1212f9 $edi: $edi
STACK CFI 1212fa $ebp: $ebp .cfa: $esp 4 +
STACK CFI 121300 $ebp: .cfa -8 + ^ $ebx: .cfa -20 + ^ $edi: .cfa -12 + ^ $esi: .cfa -16 + ^ .cfa: $ebp 8 +
STACK CFI INIT 179190 239 .cfa: $esp 4 + .ra: .cfa -4 + ^
STACK CFI 179191 $ebp: .cfa -8 + ^ .cfa: $esp 8 +
STACK CFI 179193 .cfa: $ebp 8 +
STACK CFI 17919a $ebx: .cfa -12 + ^
STACK CFI 1792bc $ebp: $ebp $ebx: $ebx .cfa: $esp 4 +
STACK CFI 1792c0 $ebp: .cfa -8 + ^ $ebx: .cfa -12 + ^ .cfa: $ebp 8 +
STACK CFI INIT 17b420 fc .cfa: $esp 4 + .ra: .cfa -4 + ^
STACK CFI 17b421 $ebp: .cfa -8 + ^ .cfa: $esp 8 +
STACK CFI 17b424 .cfa: $esp 112 +
STACK CFI 17b480 .cfa: $esp 100 +
STACK CFI 17b483 .cfa: $esp 112 +
STACK CFI 17b4d9 .cfa: $esp 8 +
STACK CFI 17b4da $ebp: $ebp .cfa: $esp 4 +
STACK CFI 17b4dd $ebp: .cfa -8 + ^ .cfa: $esp 112 +
STACK CFI INIT 178870 2c7 .cfa: $esp 4 + .ra: .cfa -4 + ^
STACK CFI 178871 $ebp: .cfa -8 + ^ .cfa: $esp 8 +
STACK CFI 178873 .cfa: $ebp 8 +
STACK CFI 17887d $ebx: .cfa -12 + ^
STACK CFI 1789ea $ebp: $ebp $ebx: $ebx .cfa: $esp 4 +
STACK CFI 1789f0 $ebp: .cfa -8 + ^ $ebx: .cfa -12 + ^ .cfa: $ebp 8 +
STACK CFI INIT 179940 239 .cfa: $esp 4 + .ra: .cfa -4 + ^
STACK CFI 179941 $ebp: .cfa -8 + ^ .cfa: $esp 8 +
STACK CFI 179943 .cfa: $ebp 8 +
STACK CFI 17994a $ebx: .cfa -12 + ^
STACK CFI 179a6c $ebp: $ebp $ebx: $ebx .cfa: $esp 4 +
STACK CFI 179a70 $ebp: .cfa -8 + ^ $ebx: .cfa -12 + ^ .cfa: $ebp 8 +
STACK CFI INIT 77b0 a .cfa: $esp 4 + .ra: .cfa -4 + ^
STACK CFI INIT 77c0 d .cfa: $esp 4 + .ra: .cfa -4 + ^
STACK CFI INIT 1a3490 1d .cfa: $esp 4 + .ra: .cfa -4 + ^
STACK CFI 1a3493 .cfa: $esp 32 +
STACK CFI 1a34ac .cfa: $esp 4 +
STACK CFI INIT 77d0 a .cfa: $esp 4 + .ra: .cfa -4 + ^
STACK CFI INIT 77e0 16e .cfa: $esp 4 + .ra: .cfa -4 + ^
STACK CFI 77e1 $ebp: .cfa -8 + ^ .cfa: $esp 8 +
STACK CFI 77e4 .cfa: $esp 128 +
STACK CFI 78a0 .cfa: $esp 8 +
STACK CFI 78a1 $ebp: $ebp .cfa: $esp 4 +
STACK CFI 78a2 $ebp: .cfa -8 + ^ .cfa: $esp 128 +
STACK CFI 78c2 .cfa: $esp 120 +
STACK CFI 78c5 .cfa: $esp 128 +
STACK CFI INIT 7950 27 .cfa: $esp 4 + .ra: .cfa -4 + ^
STACK CFI 7953 .cfa: $esp 32 +
STACK CFI 7976 .cfa: $esp 4 +
STACK CFI INIT 7980 1b .cfa: $esp 4 + .ra: .cfa -4 + ^
STACK CFI 7983 .cfa: $esp 16 +
STACK CFI 799a .cfa: $esp 4 +
STACK CFI INIT 79a0 1e .cfa: $esp 4 + .ra: .cfa -4 + ^
STACK CFI 79a3 .cfa: $esp 16 +
STACK CFI 79bd .cfa: $esp 4 +
STACK CFI INIT 79c0 3c .cfa: $esp 4 + .ra: .cfa -4 + ^
STACK CFI 79c1 $esi: .cfa -8 + ^ .cfa: $esp 8 +
STACK CFI 79c2 $ebx: .cfa -12 + ^ .cfa: $esp 12 +
STACK CFI 79c5 .cfa: $esp 16 +
STACK CFI 79ec .cfa: $esp 12 +
STACK CFI 79ed $ebx: $ebx .cfa: $esp 8 +
STACK CFI 79ee $esi: $esi .cfa: $esp 4 +
STACK CFI 79f3 $ebx: .cfa -12 + ^ $esi: .cfa -8 + ^ .cfa: $esp 16 +
STACK CFI 79f9 .cfa: $esp 12 +
STACK CFI 79fa $ebx: $ebx .cfa: $esp 8 +
STACK CFI 79fb $esi: $esi .cfa: $esp 4 +
STACK CFI INIT 7a00 2d3 .cfa: $esp 4 + .ra: .cfa -4 + ^
STACK CFI 7a01 $ebp: .cfa -8 + ^ .cfa: $esp 8 +
STACK CFI 7a03 .cfa: $ebp 8 +
STACK CFI 7b78 $ebp: $ebp .cfa: $esp 4 +
STACK CFI 7b80 $ebp: .cfa -8 + ^ .cfa: $ebp 8 +
STACK CFI INIT 7ce0 19e .cfa: $esp 4 + .ra: .cfa -4 + ^
STACK CFI 7ce1 $ebp: .cfa -8 + ^ .cfa: $esp 8 +
STACK CFI 7ce4 .cfa: $esp 128 +
STACK CFI 7dcf .cfa: $esp 8 +
STACK CFI 7dd0 $ebp: $ebp .cfa: $esp 4 +
STACK CFI 7dd1 $ebp: .cfa -8 + ^ .cfa: $esp 128 +
STACK CFI 7df1 .cfa: $esp 120 +
STACK CFI 7df4 .cfa: $esp 128 +
STACK CFI INIT 7e80 269 .cfa: $esp 4 + .ra: .cfa -4 + ^
STACK CFI 7e81 $ebp: .cfa -8 + ^ .cfa: $esp 8 +
STACK CFI 7e83 .cfa: $ebp 8 +
STACK CFI 7f95 $ebp: $ebp .cfa: $esp 4 +
STACK CFI 7fa0 $ebp: .cfa -8 + ^ .cfa: $ebp 8 +
STACK CFI 800e $ebp: $ebp .cfa: $esp 4 +
STACK CFI 8010 $ebp: .cfa -8 + ^ .cfa: $ebp 8 +
STACK CFI INIT 80f0 62 .cfa: $esp 4 + .ra: .cfa -4 + ^
STACK CFI 80f1 $ebx: .cfa -8 + ^ .cfa: $esp 8 +
STACK CFI 80f8 .cfa: $esp 32 +
STACK CFI 8130 .cfa: $esp 8 +
STACK CFI 8131 $ebx: $ebx .cfa: $esp 4 +
STACK CFI 8140 $ebx: .cfa -8 + ^ .cfa: $esp 32 +
STACK CFI INIT 8160 c4 .cfa: $esp 4 + .ra: .cfa -4 + ^
STACK CFI 8161 $ebp: .cfa -8 + ^ .cfa: $esp 8 +
STACK CFI 8164 .cfa: $esp 128 +
STACK CFI 81f2 .cfa: $esp 8 +
STACK CFI 81f3 $ebp: $ebp .cfa: $esp 4 +
STACK CFI 81f4 $ebp: .cfa -8 + ^ .cfa: $esp 128 +
STACK CFI INIT 8230 e .cfa: $esp 4 + .ra: .cfa -4 + ^
STACK CFI INIT 1a34b0 1d .cfa: $esp 4 + .ra: .cfa -4 + ^
STACK CFI 1a34b3 .cfa: $esp 32 +
STACK CFI 1a34cc .cfa: $esp 4 +
STACK CFI INIT 17c1e0 2 .cfa: $esp 4 + .ra: .cfa -4 + ^
STACK CFI INIT 12de80 2 .cfa: $esp 4 + .ra: .cfa -4 + ^
STACK CFI INIT 17c990 2 .cfa: $esp 4 + .ra: .cfa -4 + ^
STACK CFI INIT 8240 2 .cfa: $esp 4 + .ra: .cfa -4 + ^
STACK CFI INIT 8250 a .cfa: $esp 4 + .ra: .cfa -4 + ^
STACK CFI INIT 8260 17 .cfa: $esp 4 + .ra: .cfa -4 + ^
STACK CFI 8263 .cfa: $esp 32 +
STACK CFI INIT 8280 64 .cfa: $esp 4 + .ra: .cfa -4 + ^
STACK CFI 8283 .cfa: $esp 32 +
STACK CFI 82a7 .cfa: $esp 4 +
STACK CFI 82a8 .cfa: $esp 32 +
STACK CFI INIT 82f0 a2 .cfa: $esp 4 + .ra: .cfa -4 + ^
STACK CFI 82f1 $edi: .cfa -8 + ^ .cfa: $esp 8 +
STACK CFI 82f2 $esi: .cfa -12 + ^ .cfa: $esp 12 +
STACK CFI 82f5 $ebx: .cfa -16 + ^ .cfa: $esp 16 +
STACK CFI 82f8 .cfa: $esp 48 +
STACK CFI 8331 .cfa: $esp 16 +
STACK CFI 8332 $ebx: $ebx .cfa: $esp 12 +
STACK CFI 8333 $esi: $esi .cfa: $esp 8 +
STACK CFI 8334 $edi: $edi .cfa: $esp 4 +
STACK CFI 8340 $ebx: .cfa -16 + ^ $edi: .cfa -8 + ^ $esi: .cfa -12 + ^ .cfa: $esp 48 +
STACK CFI 8356 .cfa: $esp 40 +
STACK CFI 8359 .cfa: $esp 48 +
STACK CFI INIT 1a34d0 3c .cfa: $esp 4 + .ra: .cfa -4 + ^
STACK CFI 1a34d1 $ebx: .cfa -8 + ^ .cfa: $esp 8 +
STACK CFI 1a34d7 .cfa: $esp 48 +
STACK CFI 1a3502 .cfa: $esp 40 +
STACK CFI 1a3505 .cfa: $esp 48 +
STACK CFI 1a3508 .cfa: $esp 8 +
STACK CFI 1a3509 $ebx: $ebx .cfa: $esp 4 +
STACK CFI INIT 83a0 2 .cfa: $esp 4 + .ra: .cfa -4 + ^
STACK CFI INIT 83b0 2 .cfa: $esp 4 + .ra: .cfa -4 + ^
STACK CFI INIT 83c0 9a .cfa: $esp 4 + .ra: .cfa -4 + ^
STACK CFI 83c1 $ebp: .cfa -8 + ^ .cfa: $esp 8 +
STACK CFI 83c2 $edi: .cfa -12 + ^ .cfa: $esp 12 +
STACK CFI 83c3 $esi: .cfa -16 + ^ .cfa: $esp 16 +
STACK CFI 83c4 $ebx: .cfa -20 + ^ .cfa: $esp 20 +
STACK CFI 83cc .cfa: $esp 128 +
STACK CFI 8424 .cfa: $esp 124 +
STACK CFI 8427 .cfa: $esp 128 +
STACK CFI 8455 .cfa: $esp 20 +
STACK CFI 8456 $ebx: $ebx .cfa: $esp 16 +
STACK CFI 8457 $esi: $esi .cfa: $esp 12 +
STACK CFI 8458 $edi: $edi .cfa: $esp 8 +
STACK CFI 8459 $ebp: $ebp .cfa: $esp 4 +
STACK CFI INIT 8460 7b .cfa: $esp 4 + .ra: .cfa -4 + ^
STACK CFI 8461 $edi: .cfa -8 + ^ .cfa: $esp 8 +
STACK CFI 8462 $esi: .cfa -12 + ^ .cfa: $esp 12 +
STACK CFI 8463 $ebx: .cfa -16 + ^ .cfa: $esp 16 +
STACK CFI 8466 .cfa: $esp 32 +
STACK CFI 84d7 .cfa: $esp 16 +
STACK CFI 84d8 $ebx: $ebx .cfa: $esp 12 +
STACK CFI 84d9 $esi: $esi .cfa: $esp 8 +
STACK CFI 84da $edi: $edi .cfa: $esp 4 +
STACK CFI INIT 84e0 57 .cfa: $esp 4 + .ra: .cfa -4 + ^
STACK CFI 84e3 .cfa: $esp 32 +
STACK CFI 8536 .cfa: $esp 4 +
STACK CFI INIT 8540 6b .cfa: $esp 4 + .ra: .cfa -4 + ^
STACK CFI 8543 .cfa: $esp 32 +
STACK CFI 85aa .cfa: $esp 4 +
STACK CFI INIT 85b0 6b .cfa: $esp 4 + .ra: .cfa -4 + ^
STACK CFI 85b3 .cfa: $esp 32 +
STACK CFI 861a .cfa: $esp 4 +
STACK CFI INIT 8620 39 .cfa: $esp 4 + .ra: .cfa -4 + ^
STACK CFI 8621 $ebx: .cfa -8 + ^ .cfa: $esp 8 +
STACK CFI 8624 .cfa: $esp 32 +
STACK CFI 8657 .cfa: $esp 8 +
STACK CFI 8658 $ebx: $ebx .cfa: $esp 4 +
STACK CFI INIT 8660 40 .cfa: $esp 4 + .ra: .cfa -4 + ^
STACK CFI 8661 $ebx: .cfa -8 + ^ .cfa: $esp 8 +
STACK CFI 8666 .cfa: $esp 16 +
STACK CFI 8686 .cfa: $esp 8 +
STACK CFI 8687 $ebx: $ebx .cfa: $esp 4 +
STACK CFI 8690 $ebx: .cfa -8 + ^ .cfa: $esp 16 +
STACK CFI 869e .cfa: $esp 8 +
STACK CFI 869f $ebx: $ebx .cfa: $esp 4 +
STACK CFI INIT 86a0 23 .cfa: $esp 4 + .ra: .cfa -4 + ^
STACK CFI 86a1 $ebx: .cfa -8 + ^ .cfa: $esp 8 +
STACK CFI 86a9 .cfa: $esp 16 +
STACK CFI 86c1 .cfa: $esp 8 +
STACK CFI 86c2 $ebx: $ebx .cfa: $esp 4 +
STACK CFI INIT 86d0 12 .cfa: $esp 4 + .ra: .cfa -4 + ^
STACK CFI INIT 86f0 3a .cfa: $esp 4 + .ra: .cfa -4 + ^
STACK CFI 86f1 $esi: .cfa -8 + ^ .cfa: $esp 8 +
STACK CFI 86f2 $ebx: .cfa -12 + ^ .cfa: $esp 12 +
STACK CFI 86f5 .cfa: $esp 32 +
STACK CFI 871d .cfa: $esp 12 +
STACK CFI 871e $ebx: $ebx .cfa: $esp 8 +
STACK CFI 871f $esi: $esi .cfa: $esp 4 +
STACK CFI 8724 $ebx: .cfa -12 + ^ $esi: .cfa -8 + ^ .cfa: $esp 32 +
STACK CFI 8727 .cfa: $esp 12 +
STACK CFI 8728 $ebx: $ebx .cfa: $esp 8 +
STACK CFI 8729 $esi: $esi .cfa: $esp 4 +
STACK CFI INIT 8730 598 .cfa: $esp 4 + .ra: .cfa -4 + ^
STACK CFI 8731 $ebp: .cfa -8 + ^ .cfa: $esp 8 +
STACK CFI 8733 .cfa: $ebp 8 +
STACK CFI 8739 $ebx: .cfa -20 + ^ $edi: .cfa -12 + ^ $esi: .cfa -16 + ^
STACK CFI 8b1e $ebx: $ebx
STACK CFI 8b1f $esi: $esi
STACK CFI 8b20 $edi: $edi
STACK CFI 8b21 $ebp: $ebp .cfa: $esp 4 +
STACK CFI 8b22 $ebp: .cfa -8 + ^ $ebx: .cfa -20 + ^ $edi: .cfa -12 + ^ $esi: .cfa -16 + ^ .cfa: $ebp 8 +
STACK CFI INIT 8cd0 598 .cfa: $esp 4 + .ra: .cfa -4 + ^
STACK CFI 8cd1 $ebp: .cfa -8 + ^ .cfa: $esp 8 +
STACK CFI 8cd3 .cfa: $ebp 8 +
STACK CFI 8cd9 $ebx: .cfa -20 + ^ $edi: .cfa -12 + ^ $esi: .cfa -16 + ^
STACK CFI 90be $ebx: $ebx
STACK CFI 90bf $esi: $esi
STACK CFI 90c0 $edi: $edi
STACK CFI 90c1 $ebp: $ebp .cfa: $esp 4 +
STACK CFI 90c2 $ebp: .cfa -8 + ^ $ebx: .cfa -20 + ^ $edi: .cfa -12 + ^ $esi: .cfa -16 + ^ .cfa: $ebp 8 +
STACK CFI INIT 9270 19a .cfa: $esp 4 + .ra: .cfa -4 + ^
STACK CFI 9271 $ebp: .cfa -8 + ^ .cfa: $esp 8 +
STACK CFI 9272 $ebx: .cfa -12 + ^ .cfa: $esp 12 +
STACK CFI 9278 .cfa: $esp 144 +
STACK CFI 93d2 .cfa: $esp 12 +
STACK CFI 93d8 $ebx: $ebx .cfa: $esp 8 +
STACK CFI 93d9 $ebp: $ebp .cfa: $esp 4 +
STACK CFI 93da $ebp: .cfa -8 + ^ $ebx: .cfa -12 + ^ .cfa: $esp 144 +
STACK CFI INIT 9410 30a .cfa: $esp 4 + .ra: .cfa -4 + ^
STACK CFI 9411 $ebp: .cfa -8 + ^ .cfa: $esp 8 +
STACK CFI 9413 .cfa: $ebp 8 +
STACK CFI 941f $ebx: .cfa -20 + ^ $edi: .cfa -12 + ^ $esi: .cfa -16 + ^
STACK CFI 95f3 $ebx: $ebx
STACK CFI 95f4 $esi: $esi
STACK CFI 95f5 $edi: $edi
STACK CFI 95f6 $ebp: $ebp .cfa: $esp 4 +
STACK CFI 95f7 $ebp: .cfa -8 + ^ $ebx: .cfa -20 + ^ $edi: .cfa -12 + ^ $esi: .cfa -16 + ^ .cfa: $ebp 8 +
STACK CFI INIT 9720 164 .cfa: $esp 4 + .ra: .cfa -4 + ^
STACK CFI 9721 $ebp: .cfa -8 + ^ .cfa: $esp 8 +
STACK CFI 9723 .cfa: $ebp 8 +
STACK CFI 978b $ebp: $ebp .cfa: $esp 4 +
STACK CFI 9790 $ebp: .cfa -8 + ^ .cfa: $ebp 8 +
STACK CFI 97d6 $ebp: $ebp .cfa: $esp 4 +
STACK CFI 97e0 $ebp: .cfa -8 + ^ .cfa: $ebp 8 +
STACK CFI 9856 $ebp: $ebp .cfa: $esp 4 +
STACK CFI 9857 $ebp: .cfa -8 + ^ .cfa: $ebp 8 +
STACK CFI INIT 9890 23e .cfa: $esp 4 + .ra: .cfa -4 + ^
STACK CFI 9891 $ebp: .cfa -8 + ^ .cfa: $esp 8 +
STACK CFI 9893 .cfa: $ebp 8 +
STACK CFI 989c $ebx: .cfa -20 + ^ $edi: .cfa -12 + ^ $esi: .cfa -16 + ^
STACK CFI 997f $ebx: $ebx
STACK CFI 9980 $esi: $esi
STACK CFI 9981 $edi: $edi
STACK CFI 9982 $ebp: $ebp .cfa: $esp 4 +
STACK CFI 9983 $ebp: .cfa -8 + ^ $ebx: .cfa -20 + ^ $edi: .cfa -12 + ^ $esi: .cfa -16 + ^ .cfa: $ebp 8 +
STACK CFI INIT 9ad0 fe .cfa: $esp 4 + .ra: .cfa -4 + ^
STACK CFI 9ad1 $ebp: .cfa -8 + ^ .cfa: $esp 8 +
STACK CFI 9ad3 .cfa: $ebp 8 +
STACK CFI 9adc $ebx: .cfa -20 + ^ $edi: .cfa -12 + ^ $esi: .cfa -16 + ^
STACK CFI 9b48 $ebx: $ebx
STACK CFI 9b49 $esi: $esi
STACK CFI 9b4a $edi: $edi
STACK CFI 9b4b $ebp: $ebp .cfa: $esp 4 +
STACK CFI 9b4c $ebp: .cfa -8 + ^ $ebx: .cfa -20 + ^ $edi: .cfa -12 + ^ $esi: .cfa -16 + ^ .cfa: $ebp 8 +
STACK CFI INIT 9bd0 147 .cfa: $esp 4 + .ra: .cfa -4 + ^
STACK CFI 9bd1 $ebp: .cfa -8 + ^ .cfa: $esp 8 +
STACK CFI 9bd3 .cfa: $ebp 8 +
STACK CFI 9bdc $ebx: .cfa -20 + ^ $edi: .cfa -12 + ^ $esi: .cfa -16 + ^
STACK CFI 9c69 $ebx: $ebx
STACK CFI 9c6a $esi: $esi
STACK CFI 9c6b $edi: $edi
STACK CFI 9c6c $ebp: $ebp .cfa: $esp 4 +
STACK CFI 9c70 $ebp: .cfa -8 + ^ $ebx: .cfa -20 + ^ $edi: .cfa -12 + ^ $esi: .cfa -16 + ^ .cfa: $ebp 8 +
STACK CFI INIT 9d20 8b .cfa: $esp 4 + .ra: .cfa -4 + ^
STACK CFI 9d21 $ebx: .cfa -8 + ^ .cfa: $esp 8 +
STACK CFI 9d2d .cfa: $esp 4128 +
STACK CFI 9da9 .cfa: $esp 8 +
STACK CFI 9daa $ebx: $ebx .cfa: $esp 4 +
STACK CFI INIT 9db0 19f .cfa: $esp 4 + .ra: .cfa -4 + ^
STACK CFI 9db1 $ebp: .cfa -8 + ^ .cfa: $esp 8 +
STACK CFI 9db3 .cfa: $ebp 8 +
STACK CFI 9dbc $ebx: .cfa -20 + ^ $edi: .cfa -12 + ^ $esi: .cfa -16 + ^
STACK CFI 9e73 $ebx: $ebx
STACK CFI 9e74 $esi: $esi
STACK CFI 9e75 $edi: $edi
STACK CFI 9e76 $ebp: $ebp .cfa: $esp 4 +
STACK CFI 9e80 $ebp: .cfa -8 + ^ $ebx: .cfa -20 + ^ $edi: .cfa -12 + ^ $esi: .cfa -16 + ^ .cfa: $ebp 8 +
STACK CFI INIT 9f50 129 .cfa: $esp 4 + .ra: .cfa -4 + ^
STACK CFI 9f51 $ebp: .cfa -8 + ^ .cfa: $esp 8 +
STACK CFI 9f53 .cfa: $ebp 8 +
STACK CFI 9f5f $ebx: .cfa -20 + ^ $edi: .cfa -12 + ^ $esi: .cfa -16 + ^
STACK CFI 9fe2 $ebx: $ebx
STACK CFI 9fe3 $esi: $esi
STACK CFI 9fe4 $edi: $edi
STACK CFI 9fe5 $ebp: $ebp .cfa: $esp 4 +
STACK CFI 9fe6 $ebp: .cfa -8 + ^ $ebx: .cfa -20 + ^ $edi: .cfa -12 + ^ $esi: .cfa -16 + ^ .cfa: $ebp 8 +
STACK CFI INIT a080 5 .cfa: $esp 4 + .ra: .cfa -4 + ^
STACK CFI INIT a090 5c5 .cfa: $esp 4 + .ra: .cfa -4 + ^
STACK CFI a091 $ebp: .cfa -8 + ^ .cfa: $esp 8 +
STACK CFI a093 .cfa: $ebp 8 +
STACK CFI a09f $ebx: .cfa -20 + ^ $edi: .cfa -12 + ^ $esi: .cfa -16 + ^
STACK CFI a3b9 $ebx: $ebx
STACK CFI a3ba $esi: $esi
STACK CFI a3bb $edi: $edi
STACK CFI a3bc $ebp: $ebp .cfa: $esp 4 +
STACK CFI a3c0 $ebp: .cfa -8 + ^ $ebx: .cfa -20 + ^ $edi: .cfa -12 + ^ $esi: .cfa -16 + ^ .cfa: $ebp 8 +
STACK CFI INIT a660 4a0 .cfa: $esp 4 + .ra: .cfa -4 + ^
STACK CFI a661 $ebp: .cfa -8 + ^ .cfa: $esp 8 +
STACK CFI a662 $ebx: .cfa -12 + ^ .cfa: $esp 12 +
STACK CFI a668 .cfa: $esp 176 +
STACK CFI aa4b .cfa: $esp 12 +
STACK CFI aa4c $ebx: $ebx .cfa: $esp 8 +
STACK CFI aa4d $ebp: $ebp .cfa: $esp 4 +
STACK CFI aa50 $ebp: .cfa -8 + ^ $ebx: .cfa -12 + ^ .cfa: $esp 176 +
STACK CFI INIT ab00 d0 .cfa: $esp 4 + .ra: .cfa -4 + ^
STACK CFI ab01 $ebp: .cfa -8 + ^ .cfa: $esp 8 +
STACK CFI ab03 .cfa: $ebp 8 +
STACK CFI aba0 $ebp: $ebp .cfa: $esp 4 +
STACK CFI aba3 $ebp: .cfa -8 + ^ .cfa: $ebp 8 +
STACK CFI INIT abd0 3dd .cfa: $esp 4 + .ra: .cfa -4 + ^
STACK CFI abd1 $ebp: .cfa -8 + ^ .cfa: $esp 8 +
STACK CFI abd3 .cfa: $ebp 8 +
STACK CFI abdf $ebx: .cfa -20 + ^ $edi: .cfa -12 + ^ $esi: .cfa -16 + ^
STACK CFI ad92 $ebx: $ebx
STACK CFI ad93 $esi: $esi
STACK CFI ad94 $edi: $edi
STACK CFI ad95 $ebp: $ebp .cfa: $esp 4 +
STACK CFI ada0 $ebp: .cfa -8 + ^ $ebx: .cfa -20 + ^ $edi: .cfa -12 + ^ $esi: .cfa -16 + ^ .cfa: $ebp 8 +
STACK CFI INIT afb0 249 .cfa: $esp 4 + .ra: .cfa -4 + ^
STACK CFI afb1 $ebp: .cfa -8 + ^ .cfa: $esp 8 +
STACK CFI afb3 .cfa: $ebp 8 +
STACK CFI b12b $ebp: $ebp .cfa: $esp 4 +
STACK CFI b130 $ebp: .cfa -8 + ^ .cfa: $ebp 8 +
STACK CFI b17e $ebp: $ebp .cfa: $esp 4 +
STACK CFI b180 $ebp: .cfa -8 + ^ .cfa: $ebp 8 +
STACK CFI b1b9 $ebp: $ebp .cfa: $esp 4 +
STACK CFI b1c0 $ebp: .cfa -8 + ^ .cfa: $ebp 8 +
STACK CFI INIT b200 58c .cfa: $esp 4 + .ra: .cfa -4 + ^
STACK CFI b201 $ebp: .cfa -8 + ^ .cfa: $esp 8 +
STACK CFI b203 .cfa: $ebp 8 +
STACK CFI b20c $ebx: .cfa -20 + ^ $edi: .cfa -12 + ^ $esi: .cfa -16 + ^
STACK CFI b3d7 $ebx: $ebx
STACK CFI b3d8 $esi: $esi
STACK CFI b3d9 $edi: $edi
STACK CFI b3da $ebp: $ebp .cfa: $esp 4 +
STACK CFI b3e0 $ebp: .cfa -8 + ^ $ebx: .cfa -20 + ^ $edi: .cfa -12 + ^ $esi: .cfa -16 + ^ .cfa: $ebp 8 +
STACK CFI INIT b790 b .cfa: $esp 4 + .ra: .cfa -4 + ^
STACK CFI INIT b7a0 2 .cfa: $esp 4 + .ra: .cfa -4 + ^
STACK CFI INIT b7b0 e .cfa: $esp 4 + .ra: .cfa -4 + ^
STACK CFI INIT b7c0 19f .cfa: $esp 4 + .ra: .cfa -4 + ^
STACK CFI b7c1 $ebp: .cfa -8 + ^ .cfa: $esp 8 +
STACK CFI b7c3 .cfa: $ebp 8 +
STACK CFI b7cc $ebx: .cfa -20 + ^ $edi: .cfa -12 + ^ $esi: .cfa -16 + ^
STACK CFI b8b8 $ebx: $ebx
STACK CFI b8b9 $esi: $esi
STACK CFI b8ba $edi: $edi
STACK CFI b8bb $ebp: $ebp .cfa: $esp 4 +
STACK CFI b8c0 $ebp: .cfa -8 + ^ $ebx: .cfa -20 + ^ $edi: .cfa -12 + ^ $esi: .cfa -16 + ^ .cfa: $ebp 8 +
STACK CFI INIT b960 346 .cfa: $esp 4 + .ra: .cfa -4 + ^
STACK CFI b961 $ebp: .cfa -8 + ^ .cfa: $esp 8 +
STACK CFI b967 .cfa: $esp 144 +
STACK CFI ba7b .cfa: $esp 8 +
STACK CFI ba7c $ebp: $ebp .cfa: $esp 4 +
STACK CFI ba80 $ebp: .cfa -8 + ^ .cfa: $esp 144 +
STACK CFI INIT bcb0 102 .cfa: $esp 4 + .ra: .cfa -4 + ^
STACK CFI bcb1 $ebp: .cfa -8 + ^ .cfa: $esp 8 +
STACK CFI bcb3 .cfa: $ebp 8 +
STACK CFI bcbc $ebx: .cfa -20 + ^ $edi: .cfa -12 + ^ $esi: .cfa -16 + ^
STACK CFI bd22 $ebx: $ebx
STACK CFI bd23 $esi: $esi
STACK CFI bd24 $edi: $edi
STACK CFI bd25 $ebp: $ebp .cfa: $esp 4 +
STACK CFI bd26 $ebp: .cfa -8 + ^ $ebx: .cfa -20 + ^ $edi: .cfa -12 + ^ $esi: .cfa -16 + ^ .cfa: $ebp 8 +
STACK CFI INIT bdc0 199 .cfa: $esp 4 + .ra: .cfa -4 + ^
STACK CFI bdc1 $ebp: .cfa -8 + ^ .cfa: $esp 8 +
STACK CFI bdc3 .cfa: $ebp 8 +
STACK CFI bdcc $ebx: .cfa -20 + ^ $edi: .cfa -12 + ^ $esi: .cfa -16 + ^
STACK CFI be97 $ebx: $ebx
STACK CFI be98 $esi: $esi
STACK CFI be99 $edi: $edi
STACK CFI be9a $ebp: $ebp .cfa: $esp 4 +
STACK CFI be9b $ebp: .cfa -8 + ^ $ebx: .cfa -20 + ^ $edi: .cfa -12 + ^ $esi: .cfa -16 + ^ .cfa: $ebp 8 +
STACK CFI INIT bf60 126 .cfa: $esp 4 + .ra: .cfa -4 + ^
STACK CFI bf61 $ebp: .cfa -8 + ^ .cfa: $esp 8 +
STACK CFI bf63 .cfa: $ebp 8 +
STACK CFI bf6c $ebx: .cfa -20 + ^ $edi: .cfa -12 + ^ $esi: .cfa -16 + ^
STACK CFI bfeb $ebx: $ebx
STACK CFI bfec $esi: $esi
STACK CFI bfed $edi: $edi
STACK CFI bfee $ebp: $ebp .cfa: $esp 4 +
STACK CFI bff0 $ebp: .cfa -8 + ^ $ebx: .cfa -20 + ^ $edi: .cfa -12 + ^ $esi: .cfa -16 + ^ .cfa: $ebp 8 +
STACK CFI INIT c090 2c7 .cfa: $esp 4 + .ra: .cfa -4 + ^
STACK CFI c091 $ebp: .cfa -8 + ^ .cfa: $esp 8 +
STACK CFI c093 .cfa: $ebp 8 +
STACK CFI c2bc $ebp: $ebp .cfa: $esp 4 +
STACK CFI c2bd $ebp: .cfa -8 + ^ .cfa: $ebp 8 +
STACK CFI INIT c360 633 .cfa: $esp 4 + .ra: .cfa -4 + ^
STACK CFI c361 $ebp: .cfa -8 + ^ .cfa: $esp 8 +
STACK CFI c363 .cfa: $ebp 8 +
STACK CFI c36c $ebx: .cfa -20 + ^ $edi: .cfa -12 + ^ $esi: .cfa -16 + ^
STACK CFI c832 $ebx: $ebx
STACK CFI c833 $esi: $esi
STACK CFI c834 $edi: $edi
STACK CFI c835 $ebp: $ebp .cfa: $esp 4 +
STACK CFI c836 $ebp: .cfa -8 + ^ $ebx: .cfa -20 + ^ $edi: .cfa -12 + ^ $esi: .cfa -16 + ^ .cfa: $ebp 8 +
STACK CFI INIT c9a0 3aa .cfa: $esp 4 + .ra: .cfa -4 + ^
STACK CFI c9a1 $ebp: .cfa -8 + ^ .cfa: $esp 8 +
STACK CFI c9a3 .cfa: $ebp 8 +
STACK CFI c9af $ebx: .cfa -20 + ^ $edi: .cfa -12 + ^ $esi: .cfa -16 + ^
STACK CFI ca07 $ebx: $ebx
STACK CFI ca08 $esi: $esi
STACK CFI ca09 $edi: $edi
STACK CFI ca0a $ebp: $ebp .cfa: $esp 4 +
STACK CFI ca10 $ebp: .cfa -8 + ^ $ebx: .cfa -20 + ^ $edi: .cfa -12 + ^ $esi: .cfa -16 + ^ .cfa: $ebp 8 +
STACK CFI INIT cd50 88 .cfa: $esp 4 + .ra: .cfa -4 + ^
STACK CFI cd51 $edi: .cfa -8 + ^ .cfa: $esp 8 +
STACK CFI cd52 $esi: .cfa -12 + ^ .cfa: $esp 12 +
STACK CFI cd53 $ebx: .cfa -16 + ^ .cfa: $esp 16 +
STACK CFI cd56 .cfa: $esp 48 +
STACK CFI cdb6 .cfa: $esp 16 +
STACK CFI cdb9 $ebx: $ebx .cfa: $esp 12 +
STACK CFI cdba $esi: $esi .cfa: $esp 8 +
STACK CFI cdbb $edi: $edi .cfa: $esp 4 +
STACK CFI cdc0 $ebx: .cfa -16 + ^ $edi: .cfa -8 + ^ $esi: .cfa -12 + ^ .cfa: $esp 48 +
STACK CFI cdd2 .cfa: $esp 16 +
STACK CFI cdd5 $ebx: $ebx .cfa: $esp 12 +
STACK CFI cdd6 $esi: $esi .cfa: $esp 8 +
STACK CFI cdd7 $edi: $edi .cfa: $esp 4 +
STACK CFI INIT 1a3510 3c5 .cfa: $esp 4 + .ra: .cfa -4 + ^
STACK CFI 1a3511 $ebp: .cfa -8 + ^ .cfa: $esp 8 +
STACK CFI 1a3513 .cfa: $ebp 8 +
STACK CFI 1a3841 $ebp: $ebp .cfa: $esp 4 +
STACK CFI 1a3842 $ebp: .cfa -8 + ^ .cfa: $ebp 8 +
STACK CFI INIT 17c1d0 f .cfa: $esp 4 + .ra: .cfa -4 + ^
STACK CFI 17c1d3 .cfa: $esp 32 +
STACK CFI 17c1de .cfa: $esp 4 +
STACK CFI INIT 12de70 f .cfa: $esp 4 + .ra: .cfa -4 + ^
STACK CFI 12de73 .cfa: $esp 32 +
STACK CFI 12de7e .cfa: $esp 4 +
STACK CFI INIT 17c980 f .cfa: $esp 4 + .ra: .cfa -4 + ^
STACK CFI 17c983 .cfa: $esp 32 +
STACK CFI 17c98e .cfa: $esp 4 +
STACK CFI INIT 18f080 86 .cfa: $esp 4 + .ra: .cfa -4 + ^
STACK CFI 18f083 .cfa: $esp 80 +
STACK CFI 18f0a3 .cfa: $esp 4 +
STACK CFI 18f0b0 .cfa: $esp 80 +
STACK CFI 18f103 .cfa: $esp 4 +
STACK CFI INIT 12ee90 2e .cfa: $esp 4 + .ra: .cfa -4 + ^
STACK CFI 12ee91 $ebx: .cfa -8 + ^ .cfa: $esp 8 +
STACK CFI 12ee99 .cfa: $esp 32 +
STACK CFI 12eebc .cfa: $esp 8 +
STACK CFI 12eebd $ebx: $ebx .cfa: $esp 4 +
STACK CFI INIT 12eec0 47 .cfa: $esp 4 + .ra: .cfa -4 + ^
STACK CFI 12eec1 $esi: .cfa -8 + ^ .cfa: $esp 8 +
STACK CFI 12eec2 $ebx: .cfa -12 + ^ .cfa: $esp 12 +
STACK CFI 12eec7 .cfa: $esp 32 +
STACK CFI 12eee9 .cfa: $esp 12 +
STACK CFI 12eeea $ebx: $ebx .cfa: $esp 8 +
STACK CFI 12eeeb $esi: $esi .cfa: $esp 4 +
STACK CFI 12eef0 $ebx: .cfa -12 + ^ $esi: .cfa -8 + ^ .cfa: $esp 32 +
STACK CFI INIT 17c840 135 .cfa: $esp 4 + .ra: .cfa -4 + ^
STACK CFI 17c841 $ebp: .cfa -8 + ^ .cfa: $esp 8 +
STACK CFI 17c843 .cfa: $ebp 8 +
STACK CFI 17c927 $ebp: $ebp .cfa: $esp 4 +
STACK CFI 17c928 $ebp: .cfa -8 + ^ .cfa: $ebp 8 +
STACK CFI INIT 12dd30 135 .cfa: $esp 4 + .ra: .cfa -4 + ^
STACK CFI 12dd31 $ebp: .cfa -8 + ^ .cfa: $esp 8 +
STACK CFI 12dd33 .cfa: $ebp 8 +
STACK CFI 12de17 $ebp: $ebp .cfa: $esp 4 +
STACK CFI 12de18 $ebp: .cfa -8 + ^ .cfa: $ebp 8 +
STACK CFI INIT 17c090 135 .cfa: $esp 4 + .ra: .cfa -4 + ^
STACK CFI 17c091 $ebp: .cfa -8 + ^ .cfa: $esp 8 +
STACK CFI 17c093 .cfa: $ebp 8 +
STACK CFI 17c177 $ebp: $ebp .cfa: $esp 4 +
STACK CFI 17c178 $ebp: .cfa -8 + ^ .cfa: $ebp 8 +
STACK CFI INIT 183ae0 e8 .cfa: $esp 4 + .ra: .cfa -4 + ^
STACK CFI 183ae1 $ebp: .cfa -8 + ^ .cfa: $esp 8 +
STACK CFI 183ae3 .cfa: $ebp 8 +
STACK CFI 183b98 $ebp: $ebp .cfa: $esp 4 +
STACK CFI 183b9b $ebp: .cfa -8 + ^ .cfa: $ebp 8 +
STACK CFI INIT 18c7f0 5a2 .cfa: $esp 4 + .ra: .cfa -4 + ^
STACK CFI 18c7f1 $ebp: .cfa -8 + ^ .cfa: $esp 8 +
STACK CFI 18c7f3 .cfa: $ebp 8 +
STACK CFI 18c7ff $ebx: .cfa -20 + ^ $edi: .cfa -12 + ^ $esi: .cfa -16 + ^
STACK CFI 18cc01 $ebx: $ebx
STACK CFI 18cc02 $esi: $esi
STACK CFI 18cc03 $edi: $edi
STACK CFI 18cc04 $ebp: $ebp .cfa: $esp 4 +
STACK CFI 18cc10 $ebp: .cfa -8 + ^ $ebx: .cfa -20 + ^ $edi: .cfa -12 + ^ $esi: .cfa -16 + ^ .cfa: $ebp 8 +
STACK CFI INIT 14af60 11bc .cfa: $esp 4 + .ra: .cfa -4 + ^
STACK CFI 14af61 $ebp: .cfa -8 + ^ .cfa: $esp 8 +
STACK CFI 14af63 .cfa: $ebp 8 +
STACK CFI 14af6e $ebx: .cfa -16 + ^ $esi: .cfa -12 + ^
STACK CFI 14afde $ebx: $ebx
STACK CFI 14afdf $esi: $esi
STACK CFI 14afe0 $ebp: $ebp .cfa: $esp 4 +
STACK CFI 14afe3 $ebp: .cfa -8 + ^ $ebx: .cfa -16 + ^ $esi: .cfa -12 + ^ .cfa: $ebp 8 +
STACK CFI INIT 166a30 11f2 .cfa: $esp 4 + .ra: .cfa -4 + ^
STACK CFI 166a31 $ebp: .cfa -8 + ^ .cfa: $esp 8 +
STACK CFI 166a33 .cfa: $ebp 8 +
STACK CFI 166a3e $ebx: .cfa -16 + ^ $esi: .cfa -12 + ^
STACK CFI 166aae $ebx: $ebx
STACK CFI 166aaf $esi: $esi
STACK CFI 166ab0 $ebp: $ebp .cfa: $esp 4 +
STACK CFI 166ab3 $ebp: .cfa -8 + ^ $ebx: .cfa -16 + ^ $esi: .cfa -12 + ^ .cfa: $ebp 8 +
STACK CFI INIT 19c950 114 .cfa: $esp 4 + .ra: .cfa -4 + ^
STACK CFI 19c951 $ebp: .cfa -8 + ^ .cfa: $esp 8 +
STACK CFI 19c952 $edi: .cfa -12 + ^ .cfa: $esp 12 +
STACK CFI 19c953 $esi: .cfa -16 + ^ .cfa: $esp 16 +
STACK CFI 19c954 $ebx: .cfa -20 + ^ .cfa: $esp 20 +
STACK CFI 19c959 .cfa: $esp 64 +
STACK CFI 19ca23 .cfa: $esp 20 +
STACK CFI 19ca24 $ebx: $ebx .cfa: $esp 16 +
STACK CFI 19ca25 $esi: $esi .cfa: $esp 12 +
STACK CFI 19ca26 $edi: $edi .cfa: $esp 8 +
STACK CFI 19ca27 $ebp: $ebp .cfa: $esp 4 +
STACK CFI 19ca30 $ebp: .cfa -8 + ^ $ebx: .cfa -20 + ^ $edi: .cfa -12 + ^ $esi: .cfa -16 + ^ .cfa: $esp 64 +
STACK CFI INIT 19dbd0 3d1 .cfa: $esp 4 + .ra: .cfa -4 + ^
STACK CFI 19dbd1 $ebp: .cfa -8 + ^ .cfa: $esp 8 +
STACK CFI 19dbd2 $edi: .cfa -12 + ^ .cfa: $esp 12 +
STACK CFI 19dbd3 $esi: .cfa -16 + ^ .cfa: $esp 16 +
STACK CFI 19dbd4 $ebx: .cfa -20 + ^ .cfa: $esp 20 +
STACK CFI 19dbd9 .cfa: $esp 64 +
STACK CFI 19de9a .cfa: $esp 20 +
STACK CFI 19de9b $ebx: $ebx .cfa: $esp 16 +
STACK CFI 19de9c $esi: $esi .cfa: $esp 12 +
STACK CFI 19de9d $edi: $edi .cfa: $esp 8 +
STACK CFI 19de9e $ebp: $ebp .cfa: $esp 4 +
STACK CFI 19dea1 $ebp: .cfa -8 + ^ $ebx: .cfa -20 + ^ $edi: .cfa -12 + ^ $esi: .cfa -16 + ^ .cfa: $esp 64 +
STACK CFI INIT 19dae0 ed .cfa: $esp 4 + .ra: .cfa -4 + ^
STACK CFI 19dae1 $ebp: .cfa -8 + ^ .cfa: $esp 8 +
STACK CFI 19dae2 $edi: .cfa -12 + ^ .cfa: $esp 12 +
STACK CFI 19dae3 $esi: .cfa -16 + ^ .cfa: $esp 16 +
STACK CFI 19dae4 $ebx: .cfa -20 + ^ .cfa: $esp 20 +
STACK CFI 19dae7 .cfa: $esp 48 +
STACK CFI 19db69 .cfa: $esp 20 +
STACK CFI 19db6a $ebx: $ebx .cfa: $esp 16 +
STACK CFI 19db6b $esi: $esi .cfa: $esp 12 +
STACK CFI 19db6c $edi: $edi .cfa: $esp 8 +
STACK CFI 19db6d $ebp: $ebp .cfa: $esp 4 +
STACK CFI 19db70 $ebp: .cfa -8 + ^ $ebx: .cfa -20 + ^ $edi: .cfa -12 + ^ $esi: .cfa -16 + ^ .cfa: $esp 48 +
STACK CFI 19db84 .cfa: $esp 32 +
STACK CFI 19db87 .cfa: $esp 48 +
STACK CFI 19db8a .cfa: $esp 20 +
STACK CFI 19db8b $ebx: $ebx .cfa: $esp 16 +
STACK CFI 19db8c $esi: $esi .cfa: $esp 12 +
STACK CFI 19db8d $edi: $edi .cfa: $esp 8 +
STACK CFI 19db8e $ebp: $ebp .cfa: $esp 4 +
STACK CFI 19db91 $ebp: .cfa -8 + ^ $ebx: .cfa -20 + ^ $edi: .cfa -12 + ^ $esi: .cfa -16 + ^ .cfa: $esp 48 +
STACK CFI INIT 121d10 1033 .cfa: $esp 4 + .ra: .cfa -4 + ^
STACK CFI 121d11 $ebp: .cfa -8 + ^ .cfa: $esp 8 +
STACK CFI 121d13 .cfa: $ebp 8 +
STACK CFI 121d1f $ebx: .cfa -20 + ^ $edi: .cfa -12 + ^ $esi: .cfa -16 + ^
STACK CFI 122335 $ebx: $ebx
STACK CFI 122336 $esi: $esi
STACK CFI 122337 $edi: $edi
STACK CFI 122338 $ebp: $ebp .cfa: $esp 4 +
STACK CFI 122340 $ebp: .cfa -8 + ^ $ebx: .cfa -20 + ^ $edi: .cfa -12 + ^ $esi: .cfa -16 + ^ .cfa: $ebp 8 +
STACK CFI INIT 17dd50 88 .cfa: $esp 4 + .ra: .cfa -4 + ^
STACK CFI 17dd51 $edi: .cfa -8 + ^ .cfa: $esp 8 +
STACK CFI 17dd52 $esi: .cfa -12 + ^ .cfa: $esp 12 +
STACK CFI 17dd55 $ebx: .cfa -16 + ^ .cfa: $esp 16 +
STACK CFI 17dd58 .cfa: $esp 32 +
STACK CFI 17dd6f .cfa: $esp 24 +
STACK CFI 17dd72 .cfa: $esp 32 +
STACK CFI 17ddc8 .cfa: $esp 24 +
STACK CFI 17ddcb .cfa: $esp 32 +
STACK CFI 17ddd2 .cfa: $esp 16 +
STACK CFI 17ddd3 $ebx: $ebx .cfa: $esp 12 +
STACK CFI 17ddd4 $esi: $esi .cfa: $esp 8 +
STACK CFI 17ddd5 $edi: $edi .cfa: $esp 4 +
STACK CFI INIT 18de60 121c .cfa: $esp 4 + .ra: .cfa -4 + ^
STACK CFI 18de61 $ebp: .cfa -8 + ^ .cfa: $esp 8 +
STACK CFI 18de63 .cfa: $ebp 8 +
STACK CFI 18de6e $ebx: .cfa -16 + ^ $esi: .cfa -12 + ^
STACK CFI 18df09 $ebx: $ebx
STACK CFI 18df0a $esi: $esi
STACK CFI 18df0b $ebp: $ebp .cfa: $esp 4 +
STACK CFI 18df10 $ebp: .cfa -8 + ^ $ebx: .cfa -16 + ^ $esi: .cfa -12 + ^ .cfa: $ebp 8 +
STACK CFI INIT 126450 1053 .cfa: $esp 4 + .ra: .cfa -4 + ^
STACK CFI 126451 $ebp: .cfa -8 + ^ .cfa: $esp 8 +
STACK CFI 126453 .cfa: $ebp 8 +
STACK CFI 12645f $ebx: .cfa -20 + ^ $edi: .cfa -12 + ^ $esi: .cfa -16 + ^
STACK CFI 126a97 $ebx: $ebx
STACK CFI 126a98 $esi: $esi
STACK CFI 126a99 $edi: $edi
STACK CFI 126a9a $ebp: $ebp .cfa: $esp 4 +
STACK CFI 126aa0 $ebp: .cfa -8 + ^ $ebx: .cfa -20 + ^ $edi: .cfa -12 + ^ $esi: .cfa -16 + ^ .cfa: $ebp 8 +
STACK CFI INIT 146010 15a .cfa: $esp 4 + .ra: .cfa -4 + ^
STACK CFI 146011 $ebp: .cfa -8 + ^ .cfa: $esp 8 +
STACK CFI 146013 .cfa: $ebp 8 +
STACK CFI 146069 $ebp: $ebp .cfa: $esp 4 +
STACK CFI 146070 $ebp: .cfa -8 + ^ .cfa: $ebp 8 +
STACK CFI 14611a $ebp: $ebp .cfa: $esp 4 +
STACK CFI 14611d $ebp: .cfa -8 + ^ .cfa: $ebp 8 +
STACK CFI INIT 1668d0 15a .cfa: $esp 4 + .ra: .cfa -4 + ^
STACK CFI 1668d1 $ebp: .cfa -8 + ^ .cfa: $esp 8 +
STACK CFI 1668d3 .cfa: $ebp 8 +
STACK CFI 166928 $ebp: $ebp .cfa: $esp 4 +
STACK CFI 166930 $ebp: .cfa -8 + ^ .cfa: $ebp 8 +
STACK CFI 1669da $ebp: $ebp .cfa: $esp 4 +
STACK CFI 1669dd $ebp: .cfa -8 + ^ .cfa: $ebp 8 +
STACK CFI INIT cde0 5d .cfa: $esp 4 + .ra: .cfa -4 + ^
STACK CFI cde1 $ebx: .cfa -8 + ^ .cfa: $esp 8 +
STACK CFI ce2c $ebx: $ebx .cfa: $esp 4 +
STACK CFI ce30 $ebx: .cfa -8 + ^ .cfa: $esp 8 +
STACK CFI INIT ce40 154 .cfa: $esp 4 + .ra: .cfa -4 + ^
STACK CFI ce49 $esi: .cfa -8 + ^ .cfa: $esp 8 +
STACK CFI ce4a $ebx: .cfa -12 + ^ .cfa: $esp 12 +
STACK CFI ce51 .cfa: $esp 16 +
STACK CFI cecb .cfa: $esp 12 +
STACK CFI cecc $ebx: $ebx .cfa: $esp 8 +
STACK CFI cecd $esi: $esi .cfa: $esp 4 +
STACK CFI ced2 $ebx: .cfa -12 + ^ $esi: .cfa -8 + ^ .cfa: $esp 16 +
STACK CFI INIT cfa0 a .cfa: $esp 4 + .ra: .cfa -4 + ^
STACK CFI INIT cfb0 80 .cfa: $esp 4 + .ra: .cfa -4 + ^
STACK CFI cfb1 $edi: .cfa -8 + ^ .cfa: $esp 8 +
STACK CFI cfb2 $esi: .cfa -12 + ^ .cfa: $esp 12 +
STACK CFI cfb5 $ebx: .cfa -16 + ^ .cfa: $esp 16 +
STACK CFI cfe9 $ebx: $ebx .cfa: $esp 12 +
STACK CFI cfea $esi: $esi .cfa: $esp 8 +
STACK CFI cfeb $edi: $edi .cfa: $esp 4 +
STACK CFI cff0 $ebx: .cfa -16 + ^ $edi: .cfa -8 + ^ $esi: .cfa -12 + ^ .cfa: $esp 16 +
STACK CFI d014 $ebx: $ebx .cfa: $esp 12 +
STACK CFI d015 $esi: $esi .cfa: $esp 8 +
STACK CFI d016 $edi: $edi .cfa: $esp 4 +
STACK CFI d020 $ebx: .cfa -16 + ^ $edi: .cfa -8 + ^ $esi: .cfa -12 + ^ .cfa: $esp 16 +
STACK CFI INIT d030 45 .cfa: $esp 4 + .ra: .cfa -4 + ^
STACK CFI d031 $edi: .cfa -8 + ^ .cfa: $esp 8 +
STACK CFI d032 $esi: .cfa -12 + ^ .cfa: $esp 12 +
STACK CFI d033 $ebx: .cfa -16 + ^ .cfa: $esp 16 +
STACK CFI d065 $ebx: $ebx .cfa: $esp 12 +
STACK CFI d066 $esi: $esi .cfa: $esp 8 +
STACK CFI d067 $edi: $edi .cfa: $esp 4 +
STACK CFI d070 $ebx: .cfa -16 + ^ $edi: .cfa -8 + ^ $esi: .cfa -12 + ^ .cfa: $esp 16 +
STACK CFI INIT d080 2b .cfa: $esp 4 + .ra: .cfa -4 + ^
STACK CFI d081 $ebx: .cfa -8 + ^ .cfa: $esp 8 +
STACK CFI d0a5 $ebx: $ebx .cfa: $esp 4 +
STACK CFI INIT d0b0 252 .cfa: $esp 4 + .ra: .cfa -4 + ^
STACK CFI d0b1 $ebp: .cfa -8 + ^ .cfa: $esp 8 +
STACK CFI d0b2 $edi: .cfa -12 + ^ .cfa: $esp 12 +
STACK CFI d0b3 $esi: .cfa -16 + ^ .cfa: $esp 16 +
STACK CFI d0b4 $ebx: .cfa -20 + ^ .cfa: $esp 20 +
STACK CFI d0b7 .cfa: $esp 48 +
STACK CFI d0d5 .cfa: $esp 20 +
STACK CFI d0d6 $ebx: $ebx .cfa: $esp 16 +
STACK CFI d0d7 $esi: $esi .cfa: $esp 12 +
STACK CFI d0d8 $edi: $edi .cfa: $esp 8 +
STACK CFI d0d9 $ebp: $ebp .cfa: $esp 4 +
STACK CFI d0e0 $ebp: .cfa -8 + ^ $ebx: .cfa -20 + ^ $edi: .cfa -12 + ^ $esi: .cfa -16 + ^ .cfa: $esp 48 +
STACK CFI d255 .cfa: $esp 20 +
STACK CFI d256 $ebx: $ebx .cfa: $esp 16 +
STACK CFI d257 $esi: $esi .cfa: $esp 12 +
STACK CFI d258 $edi: $edi .cfa: $esp 8 +
STACK CFI d259 $ebp: $ebp .cfa: $esp 4 +
STACK CFI d260 $ebp: .cfa -8 + ^ $ebx: .cfa -20 + ^ $edi: .cfa -12 + ^ $esi: .cfa -16 + ^ .cfa: $esp 48 +
STACK CFI INIT d310 6f .cfa: $esp 4 + .ra: .cfa -4 + ^
STACK CFI d311 $esi: .cfa -8 + ^ .cfa: $esp 8 +
STACK CFI d312 $ebx: .cfa -12 + ^ .cfa: $esp 12 +
STACK CFI d364 $ebx: $ebx .cfa: $esp 8 +
STACK CFI d365 $esi: $esi .cfa: $esp 4 +
STACK CFI d370 $ebx: .cfa -12 + ^ $esi: .cfa -8 + ^ .cfa: $esp 12 +
STACK CFI d37d $ebx: $ebx .cfa: $esp 8 +
STACK CFI d37e $esi: $esi .cfa: $esp 4 +
STACK CFI INIT d380 80 .cfa: $esp 4 + .ra: .cfa -4 + ^
STACK CFI d381 $ebp: .cfa -8 + ^ .cfa: $esp 8 +
STACK CFI d382 $edi: .cfa -12 + ^ .cfa: $esp 12 +
STACK CFI d383 $esi: .cfa -16 + ^ .cfa: $esp 16 +
STACK CFI d384 $ebx: .cfa -20 + ^ .cfa: $esp 20 +
STACK CFI d3eb $ebx: $ebx .cfa: $esp 16 +
STACK CFI d3ec $esi: $esi .cfa: $esp 12 +
STACK CFI d3ed $edi: $edi .cfa: $esp 8 +
STACK CFI d3ee $ebp: $ebp .cfa: $esp 4 +
STACK CFI d3f0 $ebp: .cfa -8 + ^ $ebx: .cfa -20 + ^ $edi: .cfa -12 + ^ $esi: .cfa -16 + ^ .cfa: $esp 20 +
STACK CFI d3fc $ebx: $ebx .cfa: $esp 16 +
STACK CFI d3fd $esi: $esi .cfa: $esp 12 +
STACK CFI d3fe $edi: $edi .cfa: $esp 8 +
STACK CFI d3ff $ebp: $ebp .cfa: $esp 4 +
STACK CFI INIT d400 a6 .cfa: $esp 4 + .ra: .cfa -4 + ^
STACK CFI d401 $ebp: .cfa -8 + ^ .cfa: $esp 8 +
STACK CFI d402 $edi: .cfa -12 + ^ .cfa: $esp 12 +
STACK CFI d403 $esi: .cfa -16 + ^ .cfa: $esp 16 +
STACK CFI d404 $ebx: .cfa -20 + ^ .cfa: $esp 20 +
STACK CFI d407 .cfa: $esp 64 +
STACK CFI d425 .cfa: $esp 20 +
STACK CFI d428 $ebx: $ebx .cfa: $esp 16 +
STACK CFI d429 $esi: $esi .cfa: $esp 12 +
STACK CFI d42a $edi: $edi .cfa: $esp 8 +
STACK CFI d42b $ebp: $ebp .cfa: $esp 4 +
STACK CFI d430 $ebp: .cfa -8 + ^ $ebx: .cfa -20 + ^ $edi: .cfa -12 + ^ $esi: .cfa -16 + ^ .cfa: $esp 64 +
STACK CFI d4a1 .cfa: $esp 20 +
STACK CFI d4a2 $ebx: $ebx .cfa: $esp 16 +
STACK CFI d4a3 $esi: $esi .cfa: $esp 12 +
STACK CFI d4a4 $edi: $edi .cfa: $esp 8 +
STACK CFI d4a5 $ebp: $ebp .cfa: $esp 4 +
STACK CFI INIT d4b0 39 .cfa: $esp 4 + .ra: .cfa -4 + ^
STACK CFI d4b1 $ebx: .cfa -8 + ^ .cfa: $esp 8 +
STACK CFI d4b4 .cfa: $esp 16 +
STACK CFI d4e7 .cfa: $esp 8 +
STACK CFI d4e8 $ebx: $ebx .cfa: $esp 4 +
STACK CFI INIT d4f0 215 .cfa: $esp 4 + .ra: .cfa -4 + ^
STACK CFI d4f1 $ebp: .cfa -8 + ^ .cfa: $esp 8 +
STACK CFI d4f2 $edi: .cfa -12 + ^ .cfa: $esp 12 +
STACK CFI d4f8 $esi: .cfa -16 + ^ .cfa: $esp 16 +
STACK CFI d4f9 $ebx: .cfa -20 + ^ .cfa: $esp 20 +
STACK CFI d500 .cfa: $esp 94304 +
STACK CFI d51f .cfa: $esp 20 +
STACK CFI d520 $ebx: $ebx .cfa: $esp 16 +
STACK CFI d521 $esi: $esi .cfa: $esp 12 +
STACK CFI d522 $edi: $edi .cfa: $esp 8 +
STACK CFI d523 $ebp: $ebp .cfa: $esp 4 +
STACK CFI d524 $ebp: .cfa -8 + ^ $ebx: .cfa -20 + ^ $edi: .cfa -12 + ^ $esi: .cfa -16 + ^ .cfa: $esp 94304 +
STACK CFI d6c2 .cfa: $esp 20 +
STACK CFI d6c3 $ebx: $ebx .cfa: $esp 16 +
STACK CFI d6c4 $esi: $esi .cfa: $esp 12 +
STACK CFI d6c5 $edi: $edi .cfa: $esp 8 +
STACK CFI d6c6 $ebp: $ebp .cfa: $esp 4 +
STACK CFI d6d0 $ebp: .cfa -8 + ^ $ebx: .cfa -20 + ^ $edi: .cfa -12 + ^ $esi: .cfa -16 + ^ .cfa: $esp 94304 +
STACK CFI INIT d710 132 .cfa: $esp 4 + .ra: .cfa -4 + ^
STACK CFI d711 $ebp: .cfa -8 + ^ .cfa: $esp 8 +
STACK CFI d712 $edi: .cfa -12 + ^ .cfa: $esp 12 +
STACK CFI d718 $esi: .cfa -16 + ^ .cfa: $esp 16 +
STACK CFI d719 $ebx: .cfa -20 + ^ .cfa: $esp 20 +
STACK CFI d720 .cfa: $esp 94304 +
STACK CFI d741 .cfa: $esp 20 +
STACK CFI d742 $ebx: $ebx .cfa: $esp 16 +
STACK CFI d743 $esi: $esi .cfa: $esp 12 +
STACK CFI d744 $edi: $edi .cfa: $esp 8 +
STACK CFI d745 $ebp: $ebp .cfa: $esp 4 +
STACK CFI d750 $ebp: .cfa -8 + ^ $ebx: .cfa -20 + ^ $edi: .cfa -12 + ^ $esi: .cfa -16 + ^ .cfa: $esp 94304 +
STACK CFI d83d .cfa: $esp 20 +
STACK CFI d83e $ebx: $ebx .cfa: $esp 16 +
STACK CFI d83f $esi: $esi .cfa: $esp 12 +
STACK CFI d840 $edi: $edi .cfa: $esp 8 +
STACK CFI d841 $ebp: $ebp .cfa: $esp 4 +
STACK CFI INIT d850 12e .cfa: $esp 4 + .ra: .cfa -4 + ^
STACK CFI d851 $ebx: .cfa -8 + ^ .cfa: $esp 8 +
STACK CFI d854 .cfa: $esp 32 +
STACK CFI d97c .cfa: $esp 8 +
STACK CFI d97d $ebx: $ebx .cfa: $esp 4 +
STACK CFI INIT 1a38e0 1d .cfa: $esp 4 + .ra: .cfa -4 + ^
STACK CFI 1a38e3 .cfa: $esp 32 +
STACK CFI 1a38fc .cfa: $esp 4 +
STACK CFI INIT d980 36 .cfa: $esp 4 + .ra: .cfa -4 + ^
STACK CFI INIT d9c0 36 .cfa: $esp 4 + .ra: .cfa -4 + ^
STACK CFI INIT da00 a .cfa: $esp 4 + .ra: .cfa -4 + ^
STACK CFI INIT da10 a2 .cfa: $esp 4 + .ra: .cfa -4 + ^
STACK CFI da11 $edi: .cfa -8 + ^ .cfa: $esp 8 +
STACK CFI da12 $esi: .cfa -12 + ^ .cfa: $esp 12 +
STACK CFI da15 $ebx: .cfa -16 + ^ .cfa: $esp 16 +
STACK CFI da18 .cfa: $esp 48 +
STACK CFI da51 .cfa: $esp 16 +
STACK CFI da52 $ebx: $ebx .cfa: $esp 12 +
STACK CFI da53 $esi: $esi .cfa: $esp 8 +
STACK CFI da54 $edi: $edi .cfa: $esp 4 +
STACK CFI da60 $ebx: .cfa -16 + ^ $edi: .cfa -8 + ^ $esi: .cfa -12 + ^ .cfa: $esp 48 +
STACK CFI da76 .cfa: $esp 40 +
STACK CFI da79 .cfa: $esp 48 +
STACK CFI INIT dac0 17 .cfa: $esp 4 + .ra: .cfa -4 + ^
STACK CFI INIT dae0 9 .cfa: $esp 4 + .ra: .cfa -4 + ^
STACK CFI INIT daf0 15 .cfa: $esp 4 + .ra: .cfa -4 + ^
STACK CFI INIT db10 17 .cfa: $esp 4 + .ra: .cfa -4 + ^
STACK CFI INIT db30 17 .cfa: $esp 4 + .ra: .cfa -4 + ^
STACK CFI INIT db50 2 .cfa: $esp 4 + .ra: .cfa -4 + ^
STACK CFI INIT db60 7f .cfa: $esp 4 + .ra: .cfa -4 + ^
STACK CFI db61 $esi: .cfa -8 + ^ .cfa: $esp 8 +
STACK CFI db62 $ebx: .cfa -12 + ^ .cfa: $esp 12 +
STACK CFI db65 .cfa: $esp 32 +
STACK CFI dbbc .cfa: $esp 12 +
STACK CFI dbbd $ebx: $ebx .cfa: $esp 8 +
STACK CFI dbbe $esi: $esi .cfa: $esp 4 +
STACK CFI dbc3 $ebx: .cfa -12 + ^ $esi: .cfa -8 + ^ .cfa: $esp 32 +
STACK CFI INIT dbe0 19b .cfa: $esp 4 + .ra: .cfa -4 + ^
STACK CFI dbe1 $ebp: .cfa -8 + ^ .cfa: $esp 8 +
STACK CFI dbe2 $edi: .cfa -12 + ^ .cfa: $esp 12 +
STACK CFI dbe3 $esi: .cfa -16 + ^ .cfa: $esp 16 +
STACK CFI dbe4 $ebx: .cfa -20 + ^ .cfa: $esp 20 +
STACK CFI dbe7 .cfa: $esp 64 +
STACK CFI dc54 .cfa: $esp 20 +
STACK CFI dc55 $ebx: $ebx .cfa: $esp 16 +
STACK CFI dc56 $esi: $esi .cfa: $esp 12 +
STACK CFI dc57 $edi: $edi .cfa: $esp 8 +
STACK CFI dc58 $ebp: $ebp .cfa: $esp 4 +
STACK CFI dc60 $ebp: .cfa -8 + ^ $ebx: .cfa -20 + ^ $edi: .cfa -12 + ^ $esi: .cfa -16 + ^ .cfa: $esp 64 +
STACK CFI dcce .cfa: $esp 20 +
STACK CFI dccf $ebx: $ebx .cfa: $esp 16 +
STACK CFI dcd0 $esi: $esi .cfa: $esp 12 +
STACK CFI dcd1 $edi: $edi .cfa: $esp 8 +
STACK CFI dcd2 $ebp: $ebp .cfa: $esp 4 +
STACK CFI dcd3 $ebp: .cfa -8 + ^ $ebx: .cfa -20 + ^ $edi: .cfa -12 + ^ $esi: .cfa -16 + ^ .cfa: $esp 64 +
STACK CFI dcda .cfa: $esp 20 +
STACK CFI dcdb $ebx: $ebx .cfa: $esp 16 +
STACK CFI dcdc $esi: $esi .cfa: $esp 12 +
STACK CFI dcdd $edi: $edi .cfa: $esp 8 +
STACK CFI dcde $ebp: $ebp .cfa: $esp 4 +
STACK CFI dce0 $ebp: .cfa -8 + ^ $ebx: .cfa -20 + ^ $edi: .cfa -12 + ^ $esi: .cfa -16 + ^ .cfa: $esp 64 +
STACK CFI INIT dd80 19e .cfa: $esp 4 + .ra: .cfa -4 + ^
STACK CFI dd81 $ebp: .cfa -8 + ^ .cfa: $esp 8 +
STACK CFI dd82 $edi: .cfa -12 + ^ .cfa: $esp 12 +
STACK CFI dd83 $esi: .cfa -16 + ^ .cfa: $esp 16 +
STACK CFI dd84 $ebx: .cfa -20 + ^ .cfa: $esp 20 +
STACK CFI dd87 .cfa: $esp 80 +
STACK CFI dde1 .cfa: $esp 20 +
STACK CFI dde4 $ebx: $ebx .cfa: $esp 16 +
STACK CFI dde5 $esi: $esi .cfa: $esp 12 +
STACK CFI dde6 $edi: $edi .cfa: $esp 8 +
STACK CFI dde7 $ebp: $ebp .cfa: $esp 4 +
STACK CFI ddf0 $ebp: .cfa -8 + ^ $ebx: .cfa -20 + ^ $edi: .cfa -12 + ^ $esi: .cfa -16 + ^ .cfa: $esp 80 +
STACK CFI dec0 .cfa: $esp 20 +
STACK CFI dec5 $ebx: $ebx .cfa: $esp 16 +
STACK CFI dec8 $esi: $esi .cfa: $esp 12 +
STACK CFI dec9 $edi: $edi .cfa: $esp 8 +
STACK CFI deca $ebp: $ebp .cfa: $esp 4 +
STACK CFI ded0 $ebp: .cfa -8 + ^ $ebx: .cfa -20 + ^ $edi: .cfa -12 + ^ $esi: .cfa -16 + ^ .cfa: $esp 80 +
STACK CFI INIT df20 23 .cfa: $esp 4 + .ra: .cfa -4 + ^
STACK CFI df23 .cfa: $esp 32 +
STACK CFI df42 .cfa: $esp 4 +
STACK CFI INIT df50 2 .cfa: $esp 4 + .ra: .cfa -4 + ^
STACK CFI INIT df60 45 .cfa: $esp 4 + .ra: .cfa -4 + ^
STACK CFI df61 $edi: .cfa -8 + ^ .cfa: $esp 8 +
STACK CFI df62 $esi: .cfa -12 + ^ .cfa: $esp 12 +
STACK CFI df63 $ebx: .cfa -16 + ^ .cfa: $esp 16 +
STACK CFI df66 .cfa: $esp 32 +
STACK CFI dfa1 .cfa: $esp 16 +
STACK CFI dfa2 $ebx: $ebx .cfa: $esp 12 +
STACK CFI dfa3 $esi: $esi .cfa: $esp 8 +
STACK CFI dfa4 $edi: $edi .cfa: $esp 4 +
STACK CFI INIT dfb0 23 .cfa: $esp 4 + .ra: .cfa -4 + ^
STACK CFI dfb3 .cfa: $esp 32 +
STACK CFI dfd2 .cfa: $esp 4 +
STACK CFI INIT dfe0 23 .cfa: $esp 4 + .ra: .cfa -4 + ^
STACK CFI dfe3 .cfa: $esp 32 +
STACK CFI e002 .cfa: $esp 4 +
STACK CFI INIT e010 23 .cfa: $esp 4 + .ra: .cfa -4 + ^
STACK CFI e013 .cfa: $esp 32 +
STACK CFI e032 .cfa: $esp 4 +
STACK CFI INIT e040 34 .cfa: $esp 4 + .ra: .cfa -4 + ^
STACK CFI e043 .cfa: $esp 32 +
STACK CFI e073 .cfa: $esp 4 +
STACK CFI INIT e080 34 .cfa: $esp 4 + .ra: .cfa -4 + ^
STACK CFI e083 .cfa: $esp 32 +
STACK CFI e0b3 .cfa: $esp 4 +
STACK CFI INIT e0c0 2e .cfa: $esp 4 + .ra: .cfa -4 + ^
STACK CFI e0c1 $ebx: .cfa -8 + ^ .cfa: $esp 8 +
STACK CFI e0c4 .cfa: $esp 32 +
STACK CFI e0e9 .cfa: $esp 8 +
STACK CFI e0ed $ebx: $ebx .cfa: $esp 4 +
STACK CFI INIT e0f0 2e .cfa: $esp 4 + .ra: .cfa -4 + ^
STACK CFI e0f1 $ebx: .cfa -8 + ^ .cfa: $esp 8 +
STACK CFI e0f4 .cfa: $esp 32 +
STACK CFI e11c .cfa: $esp 8 +
STACK CFI e11d $ebx: $ebx .cfa: $esp 4 +
STACK CFI INIT e120 2c .cfa: $esp 4 + .ra: .cfa -4 + ^
STACK CFI e121 $ebx: .cfa -8 + ^ .cfa: $esp 8 +
STACK CFI e124 .cfa: $esp 32 +
STACK CFI e149 .cfa: $esp 8 +
STACK CFI e14b $ebx: $ebx .cfa: $esp 4 +
STACK CFI INIT e150 2b .cfa: $esp 4 + .ra: .cfa -4 + ^
STACK CFI e151 $ebx: .cfa -8 + ^ .cfa: $esp 8 +
STACK CFI e154 .cfa: $esp 32 +
STACK CFI e179 .cfa: $esp 8 +
STACK CFI e17a $ebx: $ebx .cfa: $esp 4 +
STACK CFI INIT e180 41 .cfa: $esp 4 + .ra: .cfa -4 + ^
STACK CFI e181 $ebx: .cfa -8 + ^ .cfa: $esp 8 +
STACK CFI e184 .cfa: $esp 48 +
STACK CFI e1bf .cfa: $esp 8 +
STACK CFI e1c0 $ebx: $ebx .cfa: $esp 4 +
STACK CFI INIT e1d0 57 .cfa: $esp 4 + .ra: .cfa -4 + ^
STACK CFI e1d1 $esi: .cfa -8 + ^ .cfa: $esp 8 +
STACK CFI e1d2 $ebx: .cfa -12 + ^ .cfa: $esp 12 +
STACK CFI e1d7 .cfa: $esp 32 +
STACK CFI e202 .cfa: $esp 12 +
STACK CFI e208 $ebx: $ebx .cfa: $esp 8 +
STACK CFI e209 $esi: $esi .cfa: $esp 4 +
STACK CFI e210 $ebx: .cfa -12 + ^ $esi: .cfa -8 + ^ .cfa: $esp 32 +
STACK CFI INIT e230 57 .cfa: $esp 4 + .ra: .cfa -4 + ^
STACK CFI e231 $esi: .cfa -8 + ^ .cfa: $esp 8 +
STACK CFI e232 $ebx: .cfa -12 + ^ .cfa: $esp 12 +
STACK CFI e237 .cfa: $esp 32 +
STACK CFI e262 .cfa: $esp 12 +
STACK CFI e268 $ebx: $ebx .cfa: $esp 8 +
STACK CFI e269 $esi: $esi .cfa: $esp 4 +
STACK CFI e270 $ebx: .cfa -12 + ^ $esi: .cfa -8 + ^ .cfa: $esp 32 +
STACK CFI INIT e290 5f .cfa: $esp 4 + .ra: .cfa -4 + ^
STACK CFI e291 $esi: .cfa -8 + ^ .cfa: $esp 8 +
STACK CFI e292 $ebx: .cfa -12 + ^ .cfa: $esp 12 +
STACK CFI e297 .cfa: $esp 32 +
STACK CFI e2c2 .cfa: $esp 12 +
STACK CFI e2c8 $ebx: $ebx .cfa: $esp 8 +
STACK CFI e2c9 $esi: $esi .cfa: $esp 4 +
STACK CFI e2d0 $ebx: .cfa -12 + ^ $esi: .cfa -8 + ^ .cfa: $esp 32 +
STACK CFI INIT e2f0 4c .cfa: $esp 4 + .ra: .cfa -4 + ^
STACK CFI e2f1 $ebx: .cfa -8 + ^ .cfa: $esp 8 +
STACK CFI e2f4 .cfa: $esp 48 +
STACK CFI e33a .cfa: $esp 8 +
STACK CFI e33b $ebx: $ebx .cfa: $esp 4 +
STACK CFI INIT e340 4b .cfa: $esp 4 + .ra: .cfa -4 + ^
STACK CFI e341 $ebp: .cfa -8 + ^ .cfa: $esp 8 +
STACK CFI e342 $edi: .cfa -12 + ^ .cfa: $esp 12 +
STACK CFI e343 $esi: .cfa -16 + ^ .cfa: $esp 16 +
STACK CFI e344 $ebx: .cfa -20 + ^ .cfa: $esp 20 +
STACK CFI e347 .cfa: $esp 48 +
STACK CFI e386 .cfa: $esp 20 +
STACK CFI e387 $ebx: $ebx .cfa: $esp 16 +
STACK CFI e388 $esi: $esi .cfa: $esp 12 +
STACK CFI e389 $edi: $edi .cfa: $esp 8 +
STACK CFI e38a $ebp: $ebp .cfa: $esp 4 +
STACK CFI INIT e390 59 .cfa: $esp 4 + .ra: .cfa -4 + ^
STACK CFI e391 $esi: .cfa -8 + ^ .cfa: $esp 8 +
STACK CFI e392 $ebx: .cfa -12 + ^ .cfa: $esp 12 +
STACK CFI e3e2 $ebx: $ebx .cfa: $esp 8 +
STACK CFI e3e3 $esi: $esi .cfa: $esp 4 +
STACK CFI e3e4 $ebx: .cfa -12 + ^ $esi: .cfa -8 + ^ .cfa: $esp 12 +
STACK CFI e3e7 $ebx: $ebx .cfa: $esp 8 +
STACK CFI e3e8 $esi: $esi .cfa: $esp 4 +
STACK CFI INIT e3f0 6b .cfa: $esp 4 + .ra: .cfa -4 + ^
STACK CFI e3f1 $edi: .cfa -8 + ^ .cfa: $esp 8 +
STACK CFI e3f2 $esi: .cfa -12 + ^ .cfa: $esp 12 +
STACK CFI e3f3 $ebx: .cfa -16 + ^ .cfa: $esp 16 +
STACK CFI e3f6 .cfa: $esp 32 +
STACK CFI e42f .cfa: $esp 16 +
STACK CFI e430 $ebx: $ebx .cfa: $esp 12 +
STACK CFI e431 $esi: $esi .cfa: $esp 8 +
STACK CFI e432 $edi: $edi .cfa: $esp 4 +
STACK CFI e440 $ebx: .cfa -16 + ^ $edi: .cfa -8 + ^ $esi: .cfa -12 + ^ .cfa: $esp 32 +
STACK CFI e453 .cfa: $esp 16 +
STACK CFI e454 $ebx: $ebx .cfa: $esp 12 +
STACK CFI e455 $esi: $esi .cfa: $esp 8 +
STACK CFI e456 $edi: $edi .cfa: $esp 4 +
STACK CFI INIT e460 43 .cfa: $esp 4 + .ra: .cfa -4 + ^
STACK CFI e461 $edi: .cfa -8 + ^ .cfa: $esp 8 +
STACK CFI e462 $esi: .cfa -12 + ^ .cfa: $esp 12 +
STACK CFI e463 $ebx: .cfa -16 + ^ .cfa: $esp 16 +
STACK CFI e466 .cfa: $esp 32 +
STACK CFI e489 .cfa: $esp 16 +
STACK CFI e48c $ebx: $ebx .cfa: $esp 12 +
STACK CFI e48d $esi: $esi .cfa: $esp 8 +
STACK CFI e48e $edi: $edi .cfa: $esp 4 +
STACK CFI e490 $ebx: .cfa -16 + ^ $edi: .cfa -8 + ^ $esi: .cfa -12 + ^ .cfa: $esp 32 +
STACK CFI e49b .cfa: $esp 16 +
STACK CFI e49c $ebx: $ebx .cfa: $esp 12 +
STACK CFI e49d $esi: $esi .cfa: $esp 8 +
STACK CFI e49e $edi: $edi .cfa: $esp 4 +
STACK CFI INIT e4b0 79 .cfa: $esp 4 + .ra: .cfa -4 + ^
STACK CFI e4b1 $ebx: .cfa -8 + ^ .cfa: $esp 8 +
STACK CFI e4b4 .cfa: $esp 48 +
STACK CFI e502 .cfa: $esp 8 +
STACK CFI e503 $ebx: $ebx .cfa: $esp 4 +
STACK CFI e510 $ebx: .cfa -8 + ^ .cfa: $esp 48 +
STACK CFI e523 .cfa: $esp 8 +
STACK CFI e524 $ebx: $ebx .cfa: $esp 4 +
STACK CFI INIT e530 39 .cfa: $esp 4 + .ra: .cfa -4 + ^
STACK CFI e531 $ebx: .cfa -8 + ^ .cfa: $esp 8 +
STACK CFI e534 .cfa: $esp 32 +
STACK CFI e567 .cfa: $esp 8 +
STACK CFI e568 $ebx: $ebx .cfa: $esp 4 +
STACK CFI INIT e570 6c .cfa: $esp 4 + .ra: .cfa -4 + ^
STACK CFI e571 $ebp: .cfa -8 + ^ .cfa: $esp 8 +
STACK CFI e572 $edi: .cfa -12 + ^ .cfa: $esp 12 +
STACK CFI e573 $esi: .cfa -16 + ^ .cfa: $esp 16 +
STACK CFI e574 $ebx: .cfa -20 + ^ .cfa: $esp 20 +
STACK CFI e577 .cfa: $esp 48 +
STACK CFI e5b6 .cfa: $esp 20 +
STACK CFI e5b7 $ebx: $ebx .cfa: $esp 16 +
STACK CFI e5b8 $esi: $esi .cfa: $esp 12 +
STACK CFI e5b9 $edi: $edi .cfa: $esp 8 +
STACK CFI e5ba $ebp: $ebp .cfa: $esp 4 +
STACK CFI e5c0 $ebp: .cfa -8 + ^ $ebx: .cfa -20 + ^ $edi: .cfa -12 + ^ $esi: .cfa -16 + ^ .cfa: $esp 48 +
STACK CFI e5d3 .cfa: $esp 20 +
STACK CFI e5d4 $ebx: $ebx .cfa: $esp 16 +
STACK CFI e5d5 $esi: $esi .cfa: $esp 12 +
STACK CFI e5d6 $edi: $edi .cfa: $esp 8 +
STACK CFI e5d7 $ebp: $ebp .cfa: $esp 4 +
STACK CFI INIT e5e0 4a .cfa: $esp 4 + .ra: .cfa -4 + ^
STACK CFI e5e1 $esi: .cfa -8 + ^ .cfa: $esp 8 +
STACK CFI e5e2 $ebx: .cfa -12 + ^ .cfa: $esp 12 +
STACK CFI e5e5 .cfa: $esp 32 +
STACK CFI e625 .cfa: $esp 12 +
STACK CFI e628 $ebx: $ebx .cfa: $esp 8 +
STACK CFI e629 $esi: $esi .cfa: $esp 4 +
STACK CFI INIT e630 7c .cfa: $esp 4 + .ra: .cfa -4 + ^
STACK CFI e631 $esi: .cfa -8 + ^ .cfa: $esp 8 +
STACK CFI e632 $ebx: .cfa -12 + ^ .cfa: $esp 12 +
STACK CFI e635 .cfa: $esp 48 +
STACK CFI e68b .cfa: $esp 12 +
STACK CFI e68c $ebx: $ebx .cfa: $esp 8 +
STACK CFI e68d $esi: $esi .cfa: $esp 4 +
STACK CFI e692 $ebx: .cfa -12 + ^ $esi: .cfa -8 + ^ .cfa: $esp 48 +
STACK CFI e6a5 .cfa: $esp 12 +
STACK CFI e6a6 $ebx: $ebx .cfa: $esp 8 +
STACK CFI e6a7 $esi: $esi .cfa: $esp 4 +
STACK CFI INIT e6b0 3d .cfa: $esp 4 + .ra: .cfa -4 + ^
STACK CFI e6b1 $ebx: .cfa -8 + ^ .cfa: $esp 8 +
STACK CFI e6b4 .cfa: $esp 32 +
STACK CFI e6eb .cfa: $esp 8 +
STACK CFI e6ec $ebx: $ebx .cfa: $esp 4 +
STACK CFI INIT e6f0 25b .cfa: $esp 4 + .ra: .cfa -4 + ^
STACK CFI e6f1 $edi: .cfa -8 + ^ .cfa: $esp 8 +
STACK CFI e6f2 $esi: .cfa -12 + ^ .cfa: $esp 12 +
STACK CFI e6f3 $ebx: .cfa -16 + ^ .cfa: $esp 16 +
STACK CFI e6f6 .cfa: $esp 32 +
STACK CFI e79a .cfa: $esp 16 +
STACK CFI e79b $ebx: $ebx .cfa: $esp 12 +
STACK CFI e79c $esi: $esi .cfa: $esp 8 +
STACK CFI e79d $edi: $edi .cfa: $esp 4 +
STACK CFI e7a2 $ebx: .cfa -16 + ^ $edi: .cfa -8 + ^ $esi: .cfa -12 + ^ .cfa: $esp 32 +
STACK CFI e917 .cfa: $esp 16 +
STACK CFI e918 $ebx: $ebx .cfa: $esp 12 +
STACK CFI e919 $esi: $esi .cfa: $esp 8 +
STACK CFI e91a $edi: $edi .cfa: $esp 4 +
STACK CFI e920 $ebx: .cfa -16 + ^ $edi: .cfa -8 + ^ $esi: .cfa -12 + ^ .cfa: $esp 32 +
STACK CFI INIT e950 201 .cfa: $esp 4 + .ra: .cfa -4 + ^
STACK CFI e951 $ebp: .cfa -8 + ^ .cfa: $esp 8 +
STACK CFI e952 $edi: .cfa -12 + ^ .cfa: $esp 12 +
STACK CFI e953 $esi: .cfa -16 + ^ .cfa: $esp 16 +
STACK CFI e954 $ebx: .cfa -20 + ^ .cfa: $esp 20 +
STACK CFI e957 .cfa: $esp 48 +
STACK CFI e9e8 .cfa: $esp 20 +
STACK CFI e9e9 $ebx: $ebx .cfa: $esp 16 +
STACK CFI e9ea $esi: $esi .cfa: $esp 12 +
STACK CFI e9eb $edi: $edi .cfa: $esp 8 +
STACK CFI e9ec $ebp: $ebp .cfa: $esp 4 +
STACK CFI e9f0 $ebp: .cfa -8 + ^ $ebx: .cfa -20 + ^ $edi: .cfa -12 + ^ $esi: .cfa -16 + ^ .cfa: $esp 48 +
STACK CFI eb4c .cfa: $esp 20 +
STACK CFI eb4d $ebx: $ebx .cfa: $esp 16 +
STACK CFI eb4e $esi: $esi .cfa: $esp 12 +
STACK CFI eb4f $edi: $edi .cfa: $esp 8 +
STACK CFI eb50 $ebp: $ebp .cfa: $esp 4 +
STACK CFI INIT eb60 72 .cfa: $esp 4 + .ra: .cfa -4 + ^
STACK CFI eb61 $edi: .cfa -8 + ^ .cfa: $esp 8 +
STACK CFI eb62 $esi: .cfa -12 + ^ .cfa: $esp 12 +
STACK CFI eb68 $ebx: .cfa -16 + ^ .cfa: $esp 16 +
STACK CFI eb6d .cfa: $esp 32 +
STACK CFI ebce .cfa: $esp 16 +
STACK CFI ebcf $ebx: $ebx .cfa: $esp 12 +
STACK CFI ebd0 $esi: $esi .cfa: $esp 8 +
STACK CFI ebd1 $edi: $edi .cfa: $esp 4 +
STACK CFI INIT ebe0 56 .cfa: $esp 4 + .ra: .cfa -4 + ^
STACK CFI ebe1 $esi: .cfa -8 + ^ .cfa: $esp 8 +
STACK CFI ebe2 $ebx: .cfa -12 + ^ .cfa: $esp 12 +
STACK CFI ebe5 .cfa: $esp 16 +
STACK CFI ec33 .cfa: $esp 12 +
STACK CFI ec34 $ebx: $ebx .cfa: $esp 8 +
STACK CFI ec35 $esi: $esi .cfa: $esp 4 +
STACK CFI INIT ec40 5a .cfa: $esp 4 + .ra: .cfa -4 + ^
STACK CFI ec41 $esi: .cfa -8 + ^ .cfa: $esp 8 +
STACK CFI ec42 $ebx: .cfa -12 + ^ .cfa: $esp 12 +
STACK CFI ec45 .cfa: $esp 16 +
STACK CFI ec97 .cfa: $esp 12 +
STACK CFI ec98 $ebx: $ebx .cfa: $esp 8 +
STACK CFI ec99 $esi: $esi .cfa: $esp 4 +
STACK CFI INIT eca0 be .cfa: $esp 4 + .ra: .cfa -4 + ^
STACK CFI eca1 $edi: .cfa -8 + ^ .cfa: $esp 8 +
STACK CFI eca2 $esi: .cfa -12 + ^ .cfa: $esp 12 +
STACK CFI eca3 $ebx: .cfa -16 + ^ .cfa: $esp 16 +
STACK CFI eca9 .cfa: $esp 1056 +
STACK CFI ed14 .cfa: $esp 16 +
STACK CFI ed15 $ebx: $ebx .cfa: $esp 12 +
STACK CFI ed16 $esi: $esi .cfa: $esp 8 +
STACK CFI ed17 $edi: $edi .cfa: $esp 4 +
STACK CFI ed20 $ebx: .cfa -16 + ^ $edi: .cfa -8 + ^ $esi: .cfa -12 + ^ .cfa: $esp 1056 +
STACK CFI ed39 .cfa: $esp 1048 +
STACK CFI ed3c .cfa: $esp 1056 +
STACK CFI ed5a .cfa: $esp 16 +
STACK CFI ed5b $ebx: $ebx .cfa: $esp 12 +
STACK CFI ed5c $esi: $esi .cfa: $esp 8 +
STACK CFI ed5d $edi: $edi .cfa: $esp 4 +
STACK CFI INIT ed60 be .cfa: $esp 4 + .ra: .cfa -4 + ^
STACK CFI ed61 $edi: .cfa -8 + ^ .cfa: $esp 8 +
STACK CFI ed62 $esi: .cfa -12 + ^ .cfa: $esp 12 +
STACK CFI ed68 $ebx: .cfa -16 + ^ .cfa: $esp 16 +
STACK CFI ed6f .cfa: $esp 8224 +
STACK CFI edd4 .cfa: $esp 16 +
STACK CFI edd5 $ebx: $ebx .cfa: $esp 12 +
STACK CFI edd6 $esi: $esi .cfa: $esp 8 +
STACK CFI edd7 $edi: $edi .cfa: $esp 4 +
STACK CFI ede0 $ebx: .cfa -16 + ^ $edi: .cfa -8 + ^ $esi: .cfa -12 + ^ .cfa: $esp 8224 +
STACK CFI edf9 .cfa: $esp 8216 +
STACK CFI edfc .cfa: $esp 8224 +
STACK CFI ee1a .cfa: $esp 16 +
STACK CFI ee1b $ebx: $ebx .cfa: $esp 12 +
STACK CFI ee1c $esi: $esi .cfa: $esp 8 +
STACK CFI ee1d $edi: $edi .cfa: $esp 4 +
STACK CFI INIT ee20 e0 .cfa: $esp 4 + .ra: .cfa -4 + ^
STACK CFI ee21 $esi: .cfa -8 + ^ .cfa: $esp 8 +
STACK CFI ee22 $ebx: .cfa -12 + ^ .cfa: $esp 12 +
STACK CFI ee2a .cfa: $esp 288 +
STACK CFI ee74 .cfa: $esp 280 +
STACK CFI ee77 .cfa: $esp 288 +
STACK CFI ee90 .cfa: $esp 280 +
STACK CFI ee93 .cfa: $esp 288 +
STACK CFI eed4 .cfa: $esp 272 +
STACK CFI eed7 .cfa: $esp 288 +
STACK CFI eef4 .cfa: $esp 280 +
STACK CFI eef7 .cfa: $esp 288 +
STACK CFI eefd .cfa: $esp 12 +
STACK CFI eefe $ebx: $ebx .cfa: $esp 8 +
STACK CFI eeff $esi: $esi .cfa: $esp 4 +
STACK CFI INIT ef00 e0 .cfa: $esp 4 + .ra: .cfa -4 + ^
STACK CFI ef01 $esi: .cfa -8 + ^ .cfa: $esp 8 +
STACK CFI ef02 $ebx: .cfa -12 + ^ .cfa: $esp 12 +
STACK CFI ef0a .cfa: $esp 256 +
STACK CFI ef54 .cfa: $esp 248 +
STACK CFI ef57 .cfa: $esp 256 +
STACK CFI ef70 .cfa: $esp 248 +
STACK CFI ef73 .cfa: $esp 256 +
STACK CFI efb4 .cfa: $esp 240 +
STACK CFI efb7 .cfa: $esp 256 +
STACK CFI efd4 .cfa: $esp 248 +
STACK CFI efd7 .cfa: $esp 256 +
STACK CFI efdd .cfa: $esp 12 +
STACK CFI efde $ebx: $ebx .cfa: $esp 8 +
STACK CFI efdf $esi: $esi .cfa: $esp 4 +
STACK CFI INIT efe0 32b .cfa: $esp 4 + .ra: .cfa -4 + ^
STACK CFI efe1 $ebp: .cfa -8 + ^ .cfa: $esp 8 +
STACK CFI efe2 $edi: .cfa -12 + ^ .cfa: $esp 12 +
STACK CFI efe3 $esi: .cfa -16 + ^ .cfa: $esp 16 +
STACK CFI efe4 $ebx: .cfa -20 + ^ .cfa: $esp 20 +
STACK CFI efe7 .cfa: $esp 64 +
STACK CFI f05a .cfa: $esp 20 +
STACK CFI f05b $ebx: $ebx .cfa: $esp 16 +
STACK CFI f05c $esi: $esi .cfa: $esp 12 +
STACK CFI f05d $edi: $edi .cfa: $esp 8 +
STACK CFI f05e $ebp: $ebp .cfa: $esp 4 +
STACK CFI f05f $ebp: .cfa -8 + ^ $ebx: .cfa -20 + ^ $edi: .cfa -12 + ^ $esi: .cfa -16 + ^ .cfa: $esp 64 +
STACK CFI f273 .cfa: $esp 20 +
STACK CFI f274 $ebx: $ebx .cfa: $esp 16 +
STACK CFI f275 $esi: $esi .cfa: $esp 12 +
STACK CFI f276 $edi: $edi .cfa: $esp 8 +
STACK CFI f277 $ebp: $ebp .cfa: $esp 4 +
STACK CFI f27c $ebp: .cfa -8 + ^ $ebx: .cfa -20 + ^ $edi: .cfa -12 + ^ $esi: .cfa -16 + ^ .cfa: $esp 64 +
STACK CFI f2a0 .cfa: $esp 48 +
STACK CFI f2a3 .cfa: $esp 64 +
STACK CFI f2ea .cfa: $esp 20 +
STACK CFI f2eb $ebx: $ebx .cfa: $esp 16 +
STACK CFI f2ec $esi: $esi .cfa: $esp 12 +
STACK CFI f2ed $edi: $edi .cfa: $esp 8 +
STACK CFI f2ee $ebp: $ebp .cfa: $esp 4 +
STACK CFI f2f3 $ebp: .cfa -8 + ^ $ebx: .cfa -20 + ^ $edi: .cfa -12 + ^ $esi: .cfa -16 + ^ .cfa: $esp 64 +
STACK CFI INIT f310 426 .cfa: $esp 4 + .ra: .cfa -4 + ^
STACK CFI f311 $ebp: .cfa -8 + ^ .cfa: $esp 8 +
STACK CFI f312 $edi: .cfa -12 + ^ .cfa: $esp 12 +
STACK CFI f313 $esi: .cfa -16 + ^ .cfa: $esp 16 +
STACK CFI f314 $ebx: .cfa -20 + ^ .cfa: $esp 20 +
STACK CFI f317 .cfa: $esp 96 +
STACK CFI f385 .cfa: $esp 20 +
STACK CFI f386 $ebx: $ebx .cfa: $esp 16 +
STACK CFI f387 $esi: $esi .cfa: $esp 12 +
STACK CFI f388 $edi: $edi .cfa: $esp 8 +
STACK CFI f389 $ebp: $ebp .cfa: $esp 4 +
STACK CFI f390 $ebp: .cfa -8 + ^ $ebx: .cfa -20 + ^ $edi: .cfa -12 + ^ $esi: .cfa -16 + ^ .cfa: $esp 96 +
STACK CFI f419 .cfa: $esp 80 +
STACK CFI f41c .cfa: $esp 96 +
STACK CFI f593 .cfa: $esp 84 +
STACK CFI f596 .cfa: $esp 96 +
STACK CFI f599 .cfa: $esp 20 +
STACK CFI f59a $ebx: $ebx .cfa: $esp 16 +
STACK CFI f59b $esi: $esi .cfa: $esp 12 +
STACK CFI f59c $edi: $edi .cfa: $esp 8 +
STACK CFI f59d $ebp: $ebp .cfa: $esp 4 +
STACK CFI f5a0 $ebp: .cfa -8 + ^ $ebx: .cfa -20 + ^ $edi: .cfa -12 + ^ $esi: .cfa -16 + ^ .cfa: $esp 96 +
STACK CFI f658 .cfa: $esp 80 +
STACK CFI f65b .cfa: $esp 96 +
STACK CFI f6b6 .cfa: $esp 80 +
STACK CFI f6b9 .cfa: $esp 96 +
STACK CFI f6e8 .cfa: $esp 80 +
STACK CFI f6eb .cfa: $esp 96 +
STACK CFI INIT f740 58b .cfa: $esp 4 + .ra: .cfa -4 + ^
STACK CFI f741 $ebp: .cfa -8 + ^ .cfa: $esp 8 +
STACK CFI f742 $edi: .cfa -12 + ^ .cfa: $esp 12 +
STACK CFI f743 $esi: .cfa -16 + ^ .cfa: $esp 16 +
STACK CFI f744 $ebx: .cfa -20 + ^ .cfa: $esp 20 +
STACK CFI f74a .cfa: $esp 528 +
STACK CFI fad0 .cfa: $esp 516 +
STACK CFI fad3 .cfa: $esp 528 +
STACK CFI fad9 .cfa: $esp 20 +
STACK CFI fada $ebx: $ebx .cfa: $esp 16 +
STACK CFI fadb $esi: $esi .cfa: $esp 12 +
STACK CFI fadc $edi: $edi .cfa: $esp 8 +
STACK CFI fadd $ebp: $ebp .cfa: $esp 4 +
STACK CFI fae0 $ebp: .cfa -8 + ^ $ebx: .cfa -20 + ^ $edi: .cfa -12 + ^ $esi: .cfa -16 + ^ .cfa: $esp 528 +
STACK CFI fca5 .cfa: $esp 516 +
STACK CFI fca8 .cfa: $esp 528 +
STACK CFI INIT fcd0 561 .cfa: $esp 4 + .ra: .cfa -4 + ^
STACK CFI fcd1 $ebp: .cfa -8 + ^ .cfa: $esp 8 +
STACK CFI fcd2 $edi: .cfa -12 + ^ .cfa: $esp 12 +
STACK CFI fcd3 $esi: .cfa -16 + ^ .cfa: $esp 16 +
STACK CFI fcd4 $ebx: .cfa -20 + ^ .cfa: $esp 20 +
STACK CFI fcda .cfa: $esp 512 +
STACK CFI fe56 .cfa: $esp 496 +
STACK CFI fe59 .cfa: $esp 512 +
STACK CFI ff04 .cfa: $esp 500 +
STACK CFI ff07 .cfa: $esp 512 +
STACK CFI ff0d .cfa: $esp 20 +
STACK CFI ff0e $ebx: $ebx .cfa: $esp 16 +
STACK CFI ff0f $esi: $esi .cfa: $esp 12 +
STACK CFI ff10 $edi: $edi .cfa: $esp 8 +
STACK CFI ff11 $ebp: $ebp .cfa: $esp 4 +
STACK CFI ff12 $ebp: .cfa -8 + ^ $ebx: .cfa -20 + ^ $edi: .cfa -12 + ^ $esi: .cfa -16 + ^ .cfa: $esp 512 +
STACK CFI ff42 .cfa: $esp 500 +
STACK CFI ff45 .cfa: $esp 512 +
STACK CFI ffb4 .cfa: $esp 496 +
STACK CFI ffb7 .cfa: $esp 512 +
STACK CFI 101d7 .cfa: $esp 500 +
STACK CFI 101da .cfa: $esp 512 +
STACK CFI 10200 .cfa: $esp 500 +
STACK CFI 10203 .cfa: $esp 512 +
STACK CFI 10229 .cfa: $esp 500 +
STACK CFI 1022c .cfa: $esp 512 +
STACK CFI INIT 1a3900 1d .cfa: $esp 4 + .ra: .cfa -4 + ^
STACK CFI 1a3903 .cfa: $esp 32 +
STACK CFI 1a391c .cfa: $esp 4 +
STACK CFI INIT 1123b0 98 .cfa: $esp 4 + .ra: .cfa -4 + ^
STACK CFI 1123b1 $ebx: .cfa -8 + ^ .cfa: $esp 8 +
STACK CFI 1123b4 .cfa: $esp 32 +
STACK CFI 1123f9 .cfa: $esp 24 +
STACK CFI 1123fc .cfa: $esp 32 +
STACK CFI 1123ff .cfa: $esp 8 +
STACK CFI 112400 $ebx: $ebx .cfa: $esp 4 +
STACK CFI 112401 $ebx: .cfa -8 + ^ .cfa: $esp 32 +
STACK CFI 112418 .cfa: $esp 8 +
STACK CFI 112419 $ebx: $ebx .cfa: $esp 4 +
STACK CFI 112420 $ebx: .cfa -8 + ^ .cfa: $esp 32 +
STACK CFI 112428 .cfa: $esp 28 +
STACK CFI 11242b .cfa: $esp 32 +
STACK CFI 11242e .cfa: $esp 8 +
STACK CFI 11242f $ebx: $ebx .cfa: $esp 4 +
STACK CFI 112430 $ebx: .cfa -8 + ^ .cfa: $esp 32 +
STACK CFI 112443 .cfa: $esp 28 +
STACK CFI 112446 .cfa: $esp 32 +
STACK CFI INIT 112310 98 .cfa: $esp 4 + .ra: .cfa -4 + ^
STACK CFI 112311 $ebx: .cfa -8 + ^ .cfa: $esp 8 +
STACK CFI 112314 .cfa: $esp 32 +
STACK CFI 112359 .cfa: $esp 24 +
STACK CFI 11235c .cfa: $esp 32 +
STACK CFI 11235f .cfa: $esp 8 +
STACK CFI 112360 $ebx: $ebx .cfa: $esp 4 +
STACK CFI 112361 $ebx: .cfa -8 + ^ .cfa: $esp 32 +
STACK CFI 112378 .cfa: $esp 8 +
STACK CFI 112379 $ebx: $ebx .cfa: $esp 4 +
STACK CFI 112380 $ebx: .cfa -8 + ^ .cfa: $esp 32 +
STACK CFI 112388 .cfa: $esp 28 +
STACK CFI 11238b .cfa: $esp 32 +
STACK CFI 11238e .cfa: $esp 8 +
STACK CFI 11238f $ebx: $ebx .cfa: $esp 4 +
STACK CFI 112390 $ebx: .cfa -8 + ^ .cfa: $esp 32 +
STACK CFI 1123a3 .cfa: $esp 28 +
STACK CFI 1123a6 .cfa: $esp 32 +
STACK CFI INIT 111c30 98 .cfa: $esp 4 + .ra: .cfa -4 + ^
STACK CFI 111c31 $ebx: .cfa -8 + ^ .cfa: $esp 8 +
STACK CFI 111c34 .cfa: $esp 32 +
STACK CFI 111c79 .cfa: $esp 24 +
STACK CFI 111c7c .cfa: $esp 32 +
STACK CFI 111c7f .cfa: $esp 8 +
STACK CFI 111c80 $ebx: $ebx .cfa: $esp 4 +
STACK CFI 111c81 $ebx: .cfa -8 + ^ .cfa: $esp 32 +
STACK CFI 111c98 .cfa: $esp 8 +
STACK CFI 111c99 $ebx: $ebx .cfa: $esp 4 +
STACK CFI 111ca0 $ebx: .cfa -8 + ^ .cfa: $esp 32 +
STACK CFI 111ca8 .cfa: $esp 28 +
STACK CFI 111cab .cfa: $esp 32 +
STACK CFI 111cae .cfa: $esp 8 +
STACK CFI 111caf $ebx: $ebx .cfa: $esp 4 +
STACK CFI 111cb0 $ebx: .cfa -8 + ^ .cfa: $esp 32 +
STACK CFI 111cc3 .cfa: $esp 28 +
STACK CFI 111cc6 .cfa: $esp 32 +
STACK CFI INIT 11b2e0 ca .cfa: $esp 4 + .ra: .cfa -4 + ^
STACK CFI 11b2e1 $ebp: .cfa -8 + ^ .cfa: $esp 8 +
STACK CFI 11b2e4 .cfa: $esp 128 +
STACK CFI 11b33c .cfa: $esp 120 +
STACK CFI 11b33f .cfa: $esp 128 +
STACK CFI 11b376 .cfa: $esp 8 +
STACK CFI 11b379 $ebp: $ebp .cfa: $esp 4 +
STACK CFI 11b37a $ebp: .cfa -8 + ^ .cfa: $esp 128 +
STACK CFI INIT 11a920 ca .cfa: $esp 4 + .ra: .cfa -4 + ^
STACK CFI 11a921 $ebp: .cfa -8 + ^ .cfa: $esp 8 +
STACK CFI 11a924 .cfa: $esp 128 +
STACK CFI 11a97c .cfa: $esp 120 +
STACK CFI 11a97f .cfa: $esp 128 +
STACK CFI 11a9b6 .cfa: $esp 8 +
STACK CFI 11a9b9 $ebp: $ebp .cfa: $esp 4 +
STACK CFI 11a9ba $ebp: .cfa -8 + ^ .cfa: $esp 128 +
STACK CFI INIT 11b210 ca .cfa: $esp 4 + .ra: .cfa -4 + ^
STACK CFI 11b211 $ebp: .cfa -8 + ^ .cfa: $esp 8 +
STACK CFI 11b214 .cfa: $esp 128 +
STACK CFI 11b26c .cfa: $esp 120 +
STACK CFI 11b26f .cfa: $esp 128 +
STACK CFI 11b2a6 .cfa: $esp 8 +
STACK CFI 11b2a9 $ebp: $ebp .cfa: $esp 4 +
STACK CFI 11b2aa $ebp: .cfa -8 + ^ .cfa: $esp 128 +
STACK CFI INIT 1656f0 11d2 .cfa: $esp 4 + .ra: .cfa -4 + ^
STACK CFI 1656f1 $ebp: .cfa -8 + ^ .cfa: $esp 8 +
STACK CFI 1656f3 .cfa: $ebp 8 +
STACK CFI 1656fe $ebx: .cfa -16 + ^ $esi: .cfa -12 + ^
STACK CFI 16576e $ebx: $ebx
STACK CFI 16576f $esi: $esi
STACK CFI 165770 $ebp: $ebp .cfa: $esp 4 +
STACK CFI 165773 $ebp: .cfa -8 + ^ $ebx: .cfa -16 + ^ $esi: .cfa -12 + ^ .cfa: $ebp 8 +
STACK CFI INIT 16ab20 11d2 .cfa: $esp 4 + .ra: .cfa -4 + ^
STACK CFI 16ab21 $ebp: .cfa -8 + ^ .cfa: $esp 8 +
STACK CFI 16ab23 .cfa: $ebp 8 +
STACK CFI 16ab2e $ebx: .cfa -16 + ^ $esi: .cfa -12 + ^
STACK CFI 16ab9e $ebx: $ebx
STACK CFI 16ab9f $esi: $esi
STACK CFI 16aba0 $ebp: $ebp .cfa: $esp 4 +
STACK CFI 16aba3 $ebp: .cfa -8 + ^ $ebx: .cfa -16 + ^ $esi: .cfa -12 + ^ .cfa: $ebp 8 +
STACK CFI INIT 164510 11d2 .cfa: $esp 4 + .ra: .cfa -4 + ^
STACK CFI 164511 $ebp: .cfa -8 + ^ .cfa: $esp 8 +
STACK CFI 164513 .cfa: $ebp 8 +
STACK CFI 16451e $ebx: .cfa -16 + ^ $esi: .cfa -12 + ^
STACK CFI 16458e $ebx: $ebx
STACK CFI 16458f $esi: $esi
STACK CFI 164590 $ebp: $ebp .cfa: $esp 4 +
STACK CFI 164593 $ebp: .cfa -8 + ^ $ebx: .cfa -16 + ^ $esi: .cfa -12 + ^ .cfa: $ebp 8 +
STACK CFI INIT 170710 11bc .cfa: $esp 4 + .ra: .cfa -4 + ^
STACK CFI 170711 $ebp: .cfa -8 + ^ .cfa: $esp 8 +
STACK CFI 170713 .cfa: $ebp 8 +
STACK CFI 17071e $ebx: .cfa -16 + ^ $esi: .cfa -12 + ^
STACK CFI 17078e $ebx: $ebx
STACK CFI 17078f $esi: $esi
STACK CFI 170790 $ebp: $ebp .cfa: $esp 4 +
STACK CFI 170793 $ebp: .cfa -8 + ^ $ebx: .cfa -16 + ^ $esi: .cfa -12 + ^ .cfa: $ebp 8 +
STACK CFI INIT 15bf40 11bc .cfa: $esp 4 + .ra: .cfa -4 + ^
STACK CFI 15bf41 $ebp: .cfa -8 + ^ .cfa: $esp 8 +
STACK CFI 15bf43 .cfa: $ebp 8 +
STACK CFI 15bf4e $ebx: .cfa -16 + ^ $esi: .cfa -12 + ^
STACK CFI 15bfbe $ebx: $ebx
STACK CFI 15bfbf $esi: $esi
STACK CFI 15bfc0 $ebp: $ebp .cfa: $esp 4 +
STACK CFI 15bfc3 $ebp: .cfa -8 + ^ $ebx: .cfa -16 + ^ $esi: .cfa -12 + ^ .cfa: $ebp 8 +
STACK CFI INIT 151f40 11bc .cfa: $esp 4 + .ra: .cfa -4 + ^
STACK CFI 151f41 $ebp: .cfa -8 + ^ .cfa: $esp 8 +
STACK CFI 151f43 .cfa: $ebp 8 +
STACK CFI 151f4e $ebx: .cfa -16 + ^ $esi: .cfa -12 + ^
STACK CFI 151fbe $ebx: $ebx
STACK CFI 151fbf $esi: $esi
STACK CFI 151fc0 $ebp: $ebp .cfa: $esp 4 +
STACK CFI 151fc3 $ebp: .cfa -8 + ^ $ebx: .cfa -16 + ^ $esi: .cfa -12 + ^ .cfa: $ebp 8 +
STACK CFI INIT 15ad80 11bc .cfa: $esp 4 + .ra: .cfa -4 + ^
STACK CFI 15ad81 $ebp: .cfa -8 + ^ .cfa: $esp 8 +
STACK CFI 15ad83 .cfa: $ebp 8 +
STACK CFI 15ad8e $ebx: .cfa -16 + ^ $esi: .cfa -12 + ^
STACK CFI 15adfe $ebx: $ebx
STACK CFI 15adff $esi: $esi
STACK CFI 15ae00 $ebp: $ebp .cfa: $esp 4 +
STACK CFI 15ae03 $ebp: .cfa -8 + ^ $ebx: .cfa -16 + ^ $esi: .cfa -12 + ^ .cfa: $ebp 8 +
STACK CFI INIT 10240 a .cfa: $esp 4 + .ra: .cfa -4 + ^
STACK CFI INIT 10250 a2 .cfa: $esp 4 + .ra: .cfa -4 + ^
STACK CFI 10251 $edi: .cfa -8 + ^ .cfa: $esp 8 +
STACK CFI 10252 $esi: .cfa -12 + ^ .cfa: $esp 12 +
STACK CFI 10255 $ebx: .cfa -16 + ^ .cfa: $esp 16 +
STACK CFI 10258 .cfa: $esp 48 +
STACK CFI 10291 .cfa: $esp 16 +
STACK CFI 10292 $ebx: $ebx .cfa: $esp 12 +
STACK CFI 10293 $esi: $esi .cfa: $esp 8 +
STACK CFI 10294 $edi: $edi .cfa: $esp 4 +
STACK CFI 102a0 $ebx: .cfa -16 + ^ $edi: .cfa -8 + ^ $esi: .cfa -12 + ^ .cfa: $esp 48 +
STACK CFI 102b6 .cfa: $esp 40 +
STACK CFI 102b9 .cfa: $esp 48 +
STACK CFI INIT 10300 7b .cfa: $esp 4 + .ra: .cfa -4 + ^
STACK CFI 10303 .cfa: $esp 32 +
STACK CFI 1037a .cfa: $esp 4 +
STACK CFI INIT 10380 7f .cfa: $esp 4 + .ra: .cfa -4 + ^
STACK CFI 10381 $ebx: .cfa -8 + ^ .cfa: $esp 8 +
STACK CFI 10384 .cfa: $esp 32 +
STACK CFI 103fd .cfa: $esp 8 +
STACK CFI 103fe $ebx: $ebx .cfa: $esp 4 +
STACK CFI INIT 10400 d0 .cfa: $esp 4 + .ra: .cfa -4 + ^
STACK CFI 10401 $ebp: .cfa -8 + ^ .cfa: $esp 8 +
STACK CFI 10402 $edi: .cfa -12 + ^ .cfa: $esp 12 +
STACK CFI 10403 $esi: .cfa -16 + ^ .cfa: $esp 16 +
STACK CFI 10404 $ebx: .cfa -20 + ^ .cfa: $esp 20 +
STACK CFI 10407 .cfa: $esp 48 +
STACK CFI 10445 .cfa: $esp 20 +
STACK CFI 10446 $ebx: $ebx .cfa: $esp 16 +
STACK CFI 10447 $esi: $esi .cfa: $esp 12 +
STACK CFI 10448 $edi: $edi .cfa: $esp 8 +
STACK CFI 10449 $ebp: $ebp .cfa: $esp 4 +
STACK CFI 10450 $ebp: .cfa -8 + ^ $ebx: .cfa -20 + ^ $edi: .cfa -12 + ^ $esi: .cfa -16 + ^ .cfa: $esp 48 +
STACK CFI INIT 104d0 57 .cfa: $esp 4 + .ra: .cfa -4 + ^
STACK CFI 104d1 $esi: .cfa -8 + ^ .cfa: $esp 8 +
STACK CFI 104d2 $ebx: .cfa -12 + ^ .cfa: $esp 12 +
STACK CFI 104d5 .cfa: $esp 32 +
STACK CFI 10524 .cfa: $esp 12 +
STACK CFI 10525 $ebx: $ebx .cfa: $esp 8 +
STACK CFI 10526 $esi: $esi .cfa: $esp 4 +
STACK CFI INIT 10530 b2 .cfa: $esp 4 + .ra: .cfa -4 + ^
STACK CFI 1053f $ebx: .cfa -8 + ^ .cfa: $esp 8 +
STACK CFI 10542 .cfa: $esp 64 +
STACK CFI 105d5 .cfa: $esp 8 +
STACK CFI 105d6 $ebx: $ebx .cfa: $esp 4 +
STACK CFI INIT 105f0 1ec .cfa: $esp 4 + .ra: .cfa -4 + ^
STACK CFI 105f1 $edi: .cfa -8 + ^ .cfa: $esp 8 +
STACK CFI 105f2 $esi: .cfa -12 + ^ .cfa: $esp 12 +
STACK CFI 105f8 $ebx: .cfa -16 + ^ .cfa: $esp 16 +
STACK CFI 10603 .cfa: $esp 1056 +
STACK CFI 106b9 .cfa: $esp 16 +
STACK CFI 106ba $ebx: $ebx .cfa: $esp 12 +
STACK CFI 106bb $esi: $esi .cfa: $esp 8 +
STACK CFI 106bc $edi: $edi .cfa: $esp 4 +
STACK CFI 106c0 $ebx: .cfa -16 + ^ $edi: .cfa -8 + ^ $esi: .cfa -12 + ^ .cfa: $esp 1056 +
STACK CFI 1076b .cfa: $esp 16 +
STACK CFI 1076e $ebx: $ebx .cfa: $esp 12 +
STACK CFI 1076f $esi: $esi .cfa: $esp 8 +
STACK CFI 10770 $edi: $edi .cfa: $esp 4 +
STACK CFI 10771 $ebx: .cfa -16 + ^ $edi: .cfa -8 + ^ $esi: .cfa -12 + ^ .cfa: $esp 1056 +
STACK CFI INIT 107e0 537 .cfa: $esp 4 + .ra: .cfa -4 + ^
STACK CFI 107e1 $ebp: .cfa -8 + ^ .cfa: $esp 8 +
STACK CFI 107e2 $edi: .cfa -12 + ^ .cfa: $esp 12 +
STACK CFI 107e3 $esi: .cfa -16 + ^ .cfa: $esp 16 +
STACK CFI 107e4 $ebx: .cfa -20 + ^ .cfa: $esp 20 +
STACK CFI 107e7 .cfa: $esp 112 +
STACK CFI 108da .cfa: $esp 92 +
STACK CFI 108dd .cfa: $esp 112 +
STACK CFI 108e2 .cfa: $esp 20 +
STACK CFI 108e3 $ebx: $ebx .cfa: $esp 16 +
STACK CFI 108e4 $esi: $esi .cfa: $esp 12 +
STACK CFI 108e5 $edi: $edi .cfa: $esp 8 +
STACK CFI 108e6 $ebp: $ebp .cfa: $esp 4 +
STACK CFI 108f0 $ebp: .cfa -8 + ^ $ebx: .cfa -20 + ^ $edi: .cfa -12 + ^ $esi: .cfa -16 + ^ .cfa: $esp 112 +
STACK CFI 10991 .cfa: $esp 92 +
STACK CFI 10994 .cfa: $esp 112 +
STACK CFI 109a9 .cfa: $esp 20 +
STACK CFI 109ac $ebx: $ebx .cfa: $esp 16 +
STACK CFI 109ad $esi: $esi .cfa: $esp 12 +
STACK CFI 109ae $edi: $edi .cfa: $esp 8 +
STACK CFI 109af $ebp: $ebp .cfa: $esp 4 +
STACK CFI 109b0 $ebp: .cfa -8 + ^ $ebx: .cfa -20 + ^ $edi: .cfa -12 + ^ $esi: .cfa -16 + ^ .cfa: $esp 112 +
STACK CFI 109e5 .cfa: $esp 92 +
STACK CFI 109e8 .cfa: $esp 112 +
STACK CFI 10a95 .cfa: $esp 100 +
STACK CFI 10a98 .cfa: $esp 112 +
STACK CFI 10a9d .cfa: $esp 20 +
STACK CFI 10a9e $ebx: $ebx .cfa: $esp 16 +
STACK CFI 10a9f $esi: $esi .cfa: $esp 12 +
STACK CFI 10aa0 $edi: $edi .cfa: $esp 8 +
STACK CFI 10aa1 $ebp: $ebp .cfa: $esp 4 +
STACK CFI 10aa2 $ebp: .cfa -8 + ^ $ebx: .cfa -20 + ^ $edi: .cfa -12 + ^ $esi: .cfa -16 + ^ .cfa: $esp 112 +
STACK CFI 10b7f .cfa: $esp 96 +
STACK CFI 10b82 .cfa: $esp 112 +
STACK CFI 10b85 .cfa: $esp 20 +
STACK CFI 10b88 $ebx: $ebx .cfa: $esp 16 +
STACK CFI 10b8b $esi: $esi .cfa: $esp 12 +
STACK CFI 10b8c $edi: $edi .cfa: $esp 8 +
STACK CFI 10b8d $ebp: $ebp .cfa: $esp 4 +
STACK CFI 10b90 $ebp: .cfa -8 + ^ $ebx: .cfa -20 + ^ $edi: .cfa -12 + ^ $esi: .cfa -16 + ^ .cfa: $esp 112 +
STACK CFI 10c0f .cfa: $esp 84 +
STACK CFI 10c12 .cfa: $esp 112 +
STACK CFI 10cb6 .cfa: $esp 100 +
STACK CFI 10cb9 .cfa: $esp 112 +
STACK CFI INIT 10d20 2c4 .cfa: $esp 4 + .ra: .cfa -4 + ^
STACK CFI 10d21 $ebp: .cfa -8 + ^ .cfa: $esp 8 +
STACK CFI 10d22 $edi: .cfa -12 + ^ .cfa: $esp 12 +
STACK CFI 10d23 $esi: .cfa -16 + ^ .cfa: $esp 16 +
STACK CFI 10d24 $ebx: .cfa -20 + ^ .cfa: $esp 20 +
STACK CFI 10d27 .cfa: $esp 128 +
STACK CFI 10d5b .cfa: $esp 20 +
STACK CFI 10d5c $ebx: $ebx .cfa: $esp 16 +
STACK CFI 10d5d $esi: $esi .cfa: $esp 12 +
STACK CFI 10d5e $edi: $edi .cfa: $esp 8 +
STACK CFI 10d5f $ebp: $ebp .cfa: $esp 4 +
STACK CFI 10d60 $ebp: .cfa -8 + ^ $ebx: .cfa -20 + ^ $edi: .cfa -12 + ^ $esi: .cfa -16 + ^ .cfa: $esp 128 +
STACK CFI 10f3d .cfa: $esp 20 +
STACK CFI 10f3e $ebx: $ebx .cfa: $esp 16 +
STACK CFI 10f3f $esi: $esi .cfa: $esp 12 +
STACK CFI 10f40 $edi: $edi .cfa: $esp 8 +
STACK CFI 10f41 $ebp: $ebp .cfa: $esp 4 +
STACK CFI 10f42 $ebp: .cfa -8 + ^ $ebx: .cfa -20 + ^ $edi: .cfa -12 + ^ $esi: .cfa -16 + ^ .cfa: $esp 128 +
STACK CFI 10f66 .cfa: $esp 116 +
STACK CFI 10f69 .cfa: $esp 128 +
STACK CFI 10fca .cfa: $esp 20 +
STACK CFI 10fcb $ebx: $ebx .cfa: $esp 16 +
STACK CFI 10fcc $esi: $esi .cfa: $esp 12 +
STACK CFI 10fcd $edi: $edi .cfa: $esp 8 +
STACK CFI 10fce $ebp: $ebp .cfa: $esp 4 +
STACK CFI 10fd0 $ebp: .cfa -8 + ^ $ebx: .cfa -20 + ^ $edi: .cfa -12 + ^ $esi: .cfa -16 + ^ .cfa: $esp 128 +
STACK CFI INIT 10ff0 1bc .cfa: $esp 4 + .ra: .cfa -4 + ^
STACK CFI 10ff1 $esi: .cfa -8 + ^ .cfa: $esp 8 +
STACK CFI 10ff2 $ebx: .cfa -12 + ^ .cfa: $esp 12 +
STACK CFI 10ff8 .cfa: $esp 1504 +
STACK CFI 11127 .cfa: $esp 12 +
STACK CFI 11128 $ebx: $ebx .cfa: $esp 8 +
STACK CFI 11129 $esi: $esi .cfa: $esp 4 +
STACK CFI 11130 $ebx: .cfa -12 + ^ $esi: .cfa -8 + ^ .cfa: $esp 1504 +
STACK CFI 11141 .cfa: $esp 12 +
STACK CFI 11142 $ebx: $ebx .cfa: $esp 8 +
STACK CFI 11143 $esi: $esi .cfa: $esp 4 +
STACK CFI 11144 $ebx: .cfa -12 + ^ $esi: .cfa -8 + ^ .cfa: $esp 1504 +
STACK CFI 1118b .cfa: $esp 1476 +
STACK CFI 1118e .cfa: $esp 1504 +
STACK CFI INIT 111b0 1c6 .cfa: $esp 4 + .ra: .cfa -4 + ^
STACK CFI 111b1 $edi: .cfa -8 + ^ .cfa: $esp 8 +
STACK CFI 111b2 $esi: .cfa -12 + ^ .cfa: $esp 12 +
STACK CFI 111b3 $ebx: .cfa -16 + ^ .cfa: $esp 16 +
STACK CFI 111b9 .cfa: $esp 1504 +
STACK CFI 112a4 .cfa: $esp 16 +
STACK CFI 112a5 $ebx: $ebx .cfa: $esp 12 +
STACK CFI 112a6 $esi: $esi .cfa: $esp 8 +
STACK CFI 112a7 $edi: $edi .cfa: $esp 4 +
STACK CFI 112b0 $ebx: .cfa -16 + ^ $edi: .cfa -8 + ^ $esi: .cfa -12 + ^ .cfa: $esp 1504 +
STACK CFI 112e8 .cfa: $esp 16 +
STACK CFI 112e9 $ebx: $ebx .cfa: $esp 12 +
STACK CFI 112ea $esi: $esi .cfa: $esp 8 +
STACK CFI 112eb $edi: $edi .cfa: $esp 4 +
STACK CFI 112f0 $ebx: .cfa -16 + ^ $edi: .cfa -8 + ^ $esi: .cfa -12 + ^ .cfa: $esp 1504 +
STACK CFI 11338 .cfa: $esp 1480 +
STACK CFI 1133b .cfa: $esp 1504 +
STACK CFI 11341 .cfa: $esp 16 +
STACK CFI 11342 $ebx: $ebx .cfa: $esp 12 +
STACK CFI 11343 $esi: $esi .cfa: $esp 8 +
STACK CFI 11344 $edi: $edi .cfa: $esp 4 +
STACK CFI 11345 $ebx: .cfa -16 + ^ $edi: .cfa -8 + ^ $esi: .cfa -12 + ^ .cfa: $esp 1504 +
STACK CFI INIT 1a3920 1d .cfa: $esp 4 + .ra: .cfa -4 + ^
STACK CFI 1a3923 .cfa: $esp 32 +
STACK CFI 1a393c .cfa: $esp 4 +
STACK CFI INIT 15f4c0 1232 .cfa: $esp 4 + .ra: .cfa -4 + ^
STACK CFI 15f4c1 $ebp: .cfa -8 + ^ .cfa: $esp 8 +
STACK CFI 15f4c3 .cfa: $ebp 8 +
STACK CFI 15f4ce $ebx: .cfa -16 + ^ $esi: .cfa -12 + ^
STACK CFI 15f53e $ebx: $ebx
STACK CFI 15f53f $esi: $esi
STACK CFI 15f540 $ebp: $ebp .cfa: $esp 4 +
STACK CFI 15f543 $ebp: .cfa -8 + ^ $ebx: .cfa -16 + ^ $esi: .cfa -12 + ^ .cfa: $ebp 8 +
STACK CFI INIT 160700 1212 .cfa: $esp 4 + .ra: .cfa -4 + ^
STACK CFI 160701 $ebp: .cfa -8 + ^ .cfa: $esp 8 +
STACK CFI 160703 .cfa: $ebp 8 +
STACK CFI 16070e $ebx: .cfa -16 + ^ $esi: .cfa -12 + ^
STACK CFI 16077e $ebx: $ebx
STACK CFI 16077f $esi: $esi
STACK CFI 160780 $ebp: $ebp .cfa: $esp 4 +
STACK CFI 160783 $ebp: .cfa -8 + ^ $ebx: .cfa -16 + ^ $esi: .cfa -12 + ^ .cfa: $ebp 8 +
STACK CFI INIT 15e2c0 11f2 .cfa: $esp 4 + .ra: .cfa -4 + ^
STACK CFI 15e2c1 $ebp: .cfa -8 + ^ .cfa: $esp 8 +
STACK CFI 15e2c3 .cfa: $ebp 8 +
STACK CFI 15e2ce $ebx: .cfa -16 + ^ $esi: .cfa -12 + ^
STACK CFI 15e33e $ebx: $ebx
STACK CFI 15e33f $esi: $esi
STACK CFI 15e340 $ebp: $ebp .cfa: $esp 4 +
STACK CFI 15e343 $ebp: .cfa -8 + ^ $ebx: .cfa -16 + ^ $esi: .cfa -12 + ^ .cfa: $ebp 8 +
STACK CFI INIT 14c120 11d2 .cfa: $esp 4 + .ra: .cfa -4 + ^
STACK CFI 14c121 $ebp: .cfa -8 + ^ .cfa: $esp 8 +
STACK CFI 14c123 .cfa: $ebp 8 +
STACK CFI 14c12e $ebx: .cfa -16 + ^ $esi: .cfa -12 + ^
STACK CFI 14c19e $ebx: $ebx
STACK CFI 14c19f $esi: $esi
STACK CFI 14c1a0 $ebp: $ebp .cfa: $esp 4 +
STACK CFI 14c1a3 $ebp: .cfa -8 + ^ $ebx: .cfa -16 + ^ $esi: .cfa -12 + ^ .cfa: $ebp 8 +
STACK CFI INIT 11bab0 8 .cfa: $esp 4 + .ra: .cfa -4 + ^
STACK CFI INIT 11ba60 8 .cfa: $esp 4 + .ra: .cfa -4 + ^
STACK CFI INIT 118130 5f .cfa: $esp 4 + .ra: .cfa -4 + ^
STACK CFI 118133 .cfa: $esp 48 +
STACK CFI 11817f .cfa: $esp 4 +
STACK CFI 118180 .cfa: $esp 48 +
STACK CFI 118188 .cfa: $esp 44 +
STACK CFI 11818b .cfa: $esp 48 +
STACK CFI 11818e .cfa: $esp 4 +
STACK CFI INIT 11380 a .cfa: $esp 4 + .ra: .cfa -4 + ^
STACK CFI INIT 11390 31 .cfa: $esp 4 + .ra: .cfa -4 + ^
STACK CFI 11391 $esi: .cfa -8 + ^ .cfa: $esp 8 +
STACK CFI 11398 $ebx: .cfa -12 + ^ .cfa: $esp 12 +
STACK CFI 113b5 $ebx: $ebx .cfa: $esp 8 +
STACK CFI 113b6 $esi: $esi .cfa: $esp 4 +
STACK CFI INIT 113d0 a2 .cfa: $esp 4 + .ra: .cfa -4 + ^
STACK CFI 113d1 $edi: .cfa -8 + ^ .cfa: $esp 8 +
STACK CFI 113d2 $esi: .cfa -12 + ^ .cfa: $esp 12 +
STACK CFI 113d5 $ebx: .cfa -16 + ^ .cfa: $esp 16 +
STACK CFI 113d8 .cfa: $esp 48 +
STACK CFI 11411 .cfa: $esp 16 +
STACK CFI 11412 $ebx: $ebx .cfa: $esp 12 +
STACK CFI 11413 $esi: $esi .cfa: $esp 8 +
STACK CFI 11414 $edi: $edi .cfa: $esp 4 +
STACK CFI 11420 $ebx: .cfa -16 + ^ $edi: .cfa -8 + ^ $esi: .cfa -12 + ^ .cfa: $esp 48 +
STACK CFI 11436 .cfa: $esp 40 +
STACK CFI 11439 .cfa: $esp 48 +
STACK CFI INIT 11480 10a .cfa: $esp 4 + .ra: .cfa -4 + ^
STACK CFI 1148c $ebp: .cfa -8 + ^ .cfa: $esp 8 +
STACK CFI 1148d $edi: .cfa -12 + ^ .cfa: $esp 12 +
STACK CFI 1148e $esi: .cfa -16 + ^ .cfa: $esp 16 +
STACK CFI 1148f $ebx: .cfa -20 + ^ .cfa: $esp 20 +
STACK CFI 11492 .cfa: $esp 64 +
STACK CFI 114a8 .cfa: $esp 20 +
STACK CFI 114a9 $ebx: $ebx .cfa: $esp 16 +
STACK CFI 114aa $esi: $esi .cfa: $esp 12 +
STACK CFI 114ab $edi: $edi .cfa: $esp 8 +
STACK CFI 114ac $ebp: $ebp .cfa: $esp 4 +
STACK CFI 114b2 $ebp: .cfa -8 + ^ $ebx: .cfa -20 + ^ $edi: .cfa -12 + ^ $esi: .cfa -16 + ^ .cfa: $esp 64 +
STACK CFI INIT 11590 42a .cfa: $esp 4 + .ra: .cfa -4 + ^
STACK CFI 11593 .cfa: $esp 16 +
STACK CFI 115fc .cfa: $esp 4 +
STACK CFI 11600 .cfa: $esp 16 +
STACK CFI INIT 119c0 127 .cfa: $esp 4 + .ra: .cfa -4 + ^
STACK CFI INIT 11af0 63 .cfa: $esp 4 + .ra: .cfa -4 + ^
STACK CFI 11af1 $esi: .cfa -8 + ^ .cfa: $esp 8 +
STACK CFI 11af2 $ebx: .cfa -12 + ^ .cfa: $esp 12 +
STACK CFI 11aff .cfa: $esp 48 +
STACK CFI 11b3f .cfa: $esp 20 +
STACK CFI 11b42 .cfa: $esp 48 +
STACK CFI 11b50 .cfa: $esp 12 +
STACK CFI 11b51 $ebx: $ebx .cfa: $esp 8 +
STACK CFI 11b52 $esi: $esi .cfa: $esp 4 +
STACK CFI INIT 11b60 da .cfa: $esp 4 + .ra: .cfa -4 + ^
STACK CFI 11b61 $edi: .cfa -8 + ^ .cfa: $esp 8 +
STACK CFI 11b62 $ebx: .cfa -12 + ^ .cfa: $esp 12 +
STACK CFI 11b68 .cfa: $esp 160 +
STACK CFI 11b8a .cfa: $esp 12 +
STACK CFI 11b90 $ebx: $ebx .cfa: $esp 8 +
STACK CFI 11b91 $edi: $edi .cfa: $esp 4 +
STACK CFI 11b92 $ebx: .cfa -12 + ^ $edi: .cfa -8 + ^ .cfa: $esp 160 +
STACK CFI 11bd2 .cfa: $esp 12 +
STACK CFI 11bd8 $ebx: $ebx .cfa: $esp 8 +
STACK CFI 11bd9 $edi: $edi .cfa: $esp 4 +
STACK CFI 11be0 $ebx: .cfa -12 + ^ $edi: .cfa -8 + ^ .cfa: $esp 160 +
STACK CFI 11c02 .cfa: $esp 12 +
STACK CFI 11c08 $ebx: $ebx .cfa: $esp 8 +
STACK CFI 11c09 $edi: $edi .cfa: $esp 4 +
STACK CFI 11c10 $ebx: .cfa -12 + ^ $edi: .cfa -8 + ^ .cfa: $esp 160 +
STACK CFI 11c32 .cfa: $esp 12 +
STACK CFI 11c38 $ebx: $ebx .cfa: $esp 8 +
STACK CFI 11c39 $edi: $edi .cfa: $esp 4 +
STACK CFI INIT 11c40 1f1 .cfa: $esp 4 + .ra: .cfa -4 + ^
STACK CFI 11c41 $ebx: .cfa -8 + ^ .cfa: $esp 8 +
STACK CFI 11c44 .cfa: $esp 64 +
STACK CFI 11c82 .cfa: $esp 60 +
STACK CFI 11c85 .cfa: $esp 64 +
STACK CFI 11cfb .cfa: $esp 8 +
STACK CFI 11d01 $ebx: $ebx .cfa: $esp 4 +
STACK CFI 11d02 $ebx: .cfa -8 + ^ .cfa: $esp 64 +
STACK CFI 11d2e .cfa: $esp 60 +
STACK CFI 11d31 .cfa: $esp 64 +
STACK CFI 11da7 .cfa: $esp 8 +
STACK CFI 11dad $ebx: $ebx .cfa: $esp 4 +
STACK CFI 11db0 $ebx: .cfa -8 + ^ .cfa: $esp 64 +
STACK CFI 11dcf .cfa: $esp 8 +
STACK CFI 11dd5 $ebx: $ebx .cfa: $esp 4 +
STACK CFI 11de0 $ebx: .cfa -8 + ^ .cfa: $esp 64 +
STACK CFI 11dff .cfa: $esp 8 +
STACK CFI 11e05 $ebx: $ebx .cfa: $esp 4 +
STACK CFI 11e10 $ebx: .cfa -8 + ^ .cfa: $esp 64 +
STACK CFI INIT 11e40 9 .cfa: $esp 4 + .ra: .cfa -4 + ^
STACK CFI INIT 11e50 121 .cfa: $esp 4 + .ra: .cfa -4 + ^
STACK CFI 11e51 $ebp: .cfa -8 + ^ .cfa: $esp 8 +
STACK CFI 11e52 $edi: .cfa -12 + ^ .cfa: $esp 12 +
STACK CFI 11e58 $esi: .cfa -16 + ^ .cfa: $esp 16 +
STACK CFI 11e59 $ebx: .cfa -20 + ^ .cfa: $esp 20 +
STACK CFI 11e5c .cfa: $esp 28 +
STACK CFI 11ede .cfa: $esp 20 +
STACK CFI 11edf $ebx: $ebx .cfa: $esp 16 +
STACK CFI 11ee0 $esi: $esi .cfa: $esp 12 +
STACK CFI 11ee1 $edi: $edi .cfa: $esp 8 +
STACK CFI 11ee2 $ebp: $ebp .cfa: $esp 4 +
STACK CFI 11ee3 $ebp: .cfa -8 + ^ $ebx: .cfa -20 + ^ $edi: .cfa -12 + ^ $esi: .cfa -16 + ^ .cfa: $esp 28 +
STACK CFI 11f13 .cfa: $esp 20 +
STACK CFI 11f16 $ebx: $ebx .cfa: $esp 16 +
STACK CFI 11f17 $esi: $esi .cfa: $esp 12 +
STACK CFI 11f18 $edi: $edi .cfa: $esp 8 +
STACK CFI 11f19 $ebp: $ebp .cfa: $esp 4 +
STACK CFI 11f20 $ebp: .cfa -8 + ^ $ebx: .cfa -20 + ^ $edi: .cfa -12 + ^ $esi: .cfa -16 + ^ .cfa: $esp 28 +
STACK CFI INIT 11f80 72 .cfa: $esp 4 + .ra: .cfa -4 + ^
STACK CFI 11f8d .cfa: $esp 48 +
STACK CFI 11f9e .cfa: $esp 44 +
STACK CFI 11fa1 .cfa: $esp 48 +
STACK CFI 11fae .cfa: $esp 4 +
STACK CFI 11fb0 .cfa: $esp 48 +
STACK CFI 11fd9 .cfa: $esp 28 +
STACK CFI 11fdc .cfa: $esp 48 +
STACK CFI 11fe9 .cfa: $esp 4 +
STACK CFI INIT 12000 7e .cfa: $esp 4 + .ra: .cfa -4 + ^
STACK CFI 12003 .cfa: $esp 48 +
STACK CFI 12044 .cfa: $esp 4 +
STACK CFI 12045 .cfa: $esp 48 +
STACK CFI 1204a .cfa: $esp 4 +
STACK CFI 12050 .cfa: $esp 48 +
STACK CFI 12066 .cfa: $esp 44 +
STACK CFI 12069 .cfa: $esp 48 +
STACK CFI 1207d .cfa: $esp 4 +
STACK CFI INIT 12080 e8 .cfa: $esp 4 + .ra: .cfa -4 + ^
STACK CFI 12081 $ebx: .cfa -8 + ^ .cfa: $esp 8 +
STACK CFI 12087 .cfa: $esp 320 +
STACK CFI 1212e .cfa: $esp 300 +
STACK CFI 12131 .cfa: $esp 320 +
STACK CFI 12137 .cfa: $esp 8 +
STACK CFI 12138 $ebx: $ebx .cfa: $esp 4 +
STACK CFI 12140 $ebx: .cfa -8 + ^ .cfa: $esp 320 +
STACK CFI INIT 12170 1e1 .cfa: $esp 4 + .ra: .cfa -4 + ^
STACK CFI 12171 $edi: .cfa -8 + ^ .cfa: $esp 8 +
STACK CFI 12172 $esi: .cfa -12 + ^ .cfa: $esp 12 +
STACK CFI 12173 $ebx: .cfa -16 + ^ .cfa: $esp 16 +
STACK CFI 12176 .cfa: $esp 32 +
STACK CFI 12192 .cfa: $esp 16 +
STACK CFI 12193 $ebx: $ebx .cfa: $esp 12 +
STACK CFI 12194 $esi: $esi .cfa: $esp 8 +
STACK CFI 12195 $edi: $edi .cfa: $esp 4 +
STACK CFI 121a0 $ebx: .cfa -16 + ^ $edi: .cfa -8 + ^ $esi: .cfa -12 + ^ .cfa: $esp 32 +
STACK CFI 12203 .cfa: $esp 24 +
STACK CFI 12208 .cfa: $esp 32 +
STACK CFI INIT 12360 c1 .cfa: $esp 4 + .ra: .cfa -4 + ^
STACK CFI 12363 .cfa: $esp 96 +
STACK CFI 12420 .cfa: $esp 4 +
STACK CFI INIT 12430 10a .cfa: $esp 4 + .ra: .cfa -4 + ^
STACK CFI 12431 $edi: .cfa -8 + ^ .cfa: $esp 8 +
STACK CFI 12432 $esi: .cfa -12 + ^ .cfa: $esp 12 +
STACK CFI 12433 $ebx: .cfa -16 + ^ .cfa: $esp 16 +
STACK CFI 12439 .cfa: $esp 176 +
STACK CFI 12536 .cfa: $esp 16 +
STACK CFI 12537 $ebx: $ebx .cfa: $esp 12 +
STACK CFI 12538 $esi: $esi .cfa: $esp 8 +
STACK CFI 12539 $edi: $edi .cfa: $esp 4 +
STACK CFI INIT 12540 b2 .cfa: $esp 4 + .ra: .cfa -4 + ^
STACK CFI 1254e $edi: .cfa -8 + ^ .cfa: $esp 8 +
STACK CFI 1254f $esi: .cfa -12 + ^ .cfa: $esp 12 +
STACK CFI 12552 $ebx: .cfa -16 + ^ .cfa: $esp 16 +
STACK CFI 1255a .cfa: $esp 80 +
STACK CFI 125af .cfa: $esp 68 +
STACK CFI 125b2 .cfa: $esp 80 +
STACK CFI 125d1 .cfa: $esp 68 +
STACK CFI 125d4 .cfa: $esp 80 +
STACK CFI 125e3 .cfa: $esp 16 +
STACK CFI 125e4 $ebx: $ebx .cfa: $esp 12 +
STACK CFI 125e5 $esi: $esi .cfa: $esp 8 +
STACK CFI 125e6 $edi: $edi .cfa: $esp 4 +
STACK CFI INIT 12600 1a2 .cfa: $esp 4 + .ra: .cfa -4 + ^
STACK CFI 12601 $ebx: .cfa -8 + ^ .cfa: $esp 8 +
STACK CFI 12607 .cfa: $esp 368 +
STACK CFI 1262e .cfa: $esp 360 +
STACK CFI 12631 .cfa: $esp 368 +
STACK CFI 1263c .cfa: $esp 8 +
STACK CFI 1263d $ebx: $ebx .cfa: $esp 4 +
STACK CFI 12640 $ebx: .cfa -8 + ^ .cfa: $esp 368 +
STACK CFI 1265d .cfa: $esp 356 +
STACK CFI 12662 .cfa: $esp 368 +
STACK CFI 12699 .cfa: $esp 352 +
STACK CFI 1269c .cfa: $esp 368 +
STACK CFI 126b1 .cfa: $esp 364 +
STACK CFI 126b4 .cfa: $esp 368 +
STACK CFI 126ba .cfa: $esp 8 +
STACK CFI 126bb $ebx: $ebx .cfa: $esp 4 +
STACK CFI 126c0 $ebx: .cfa -8 + ^ .cfa: $esp 368 +
STACK CFI INIT 127b0 2be .cfa: $esp 4 + .ra: .cfa -4 + ^
STACK CFI 127b1 $ebp: .cfa -8 + ^ .cfa: $esp 8 +
STACK CFI 127b2 $edi: .cfa -12 + ^ .cfa: $esp 12 +
STACK CFI 127b3 $esi: .cfa -16 + ^ .cfa: $esp 16 +
STACK CFI 127b4 $ebx: .cfa -20 + ^ .cfa: $esp 20 +
STACK CFI 127b9 .cfa: $esp 112 +
STACK CFI 1282e .cfa: $esp 96 +
STACK CFI 12831 .cfa: $esp 112 +
STACK CFI 128b1 .cfa: $esp 100 +
STACK CFI 128b4 .cfa: $esp 112 +
STACK CFI 128cb .cfa: $esp 108 +
STACK CFI 128ce .cfa: $esp 112 +
STACK CFI 128d6 .cfa: $esp 20 +
STACK CFI 128d7 $ebx: $ebx .cfa: $esp 16 +
STACK CFI 128d8 $esi: $esi .cfa: $esp 12 +
STACK CFI 128d9 $edi: $edi .cfa: $esp 8 +
STACK CFI 128da $ebp: $ebp .cfa: $esp 4 +
STACK CFI 128e0 $ebp: .cfa -8 + ^ $ebx: .cfa -20 + ^ $edi: .cfa -12 + ^ $esi: .cfa -16 + ^ .cfa: $esp 112 +
STACK CFI 1292f .cfa: $esp 108 +
STACK CFI 12932 .cfa: $esp 112 +
STACK CFI 1293a .cfa: $esp 20 +
STACK CFI 1293b $ebx: $ebx .cfa: $esp 16 +
STACK CFI 1293c $esi: $esi .cfa: $esp 12 +
STACK CFI 1293d $edi: $edi .cfa: $esp 8 +
STACK CFI 1293e $ebp: $ebp .cfa: $esp 4 +
STACK CFI 12940 $ebp: .cfa -8 + ^ $ebx: .cfa -20 + ^ $edi: .cfa -12 + ^ $esi: .cfa -16 + ^ .cfa: $esp 112 +
STACK CFI 12975 .cfa: $esp 96 +
STACK CFI 12978 .cfa: $esp 112 +
STACK CFI INIT 12a70 a2 .cfa: $esp 4 + .ra: .cfa -4 + ^
STACK CFI 12a71 $ebx: .cfa -8 + ^ .cfa: $esp 8 +
STACK CFI 12a7c .cfa: $esp 160 +
STACK CFI 12acd .cfa: $esp 8 +
STACK CFI 12ad0 $ebx: $ebx .cfa: $esp 4 +
STACK CFI 12ad1 $ebx: .cfa -8 + ^ .cfa: $esp 160 +
STACK CFI 12afb .cfa: $esp 8 +
STACK CFI 12afe $ebx: $ebx .cfa: $esp 4 +
STACK CFI 12b00 $ebx: .cfa -8 + ^ .cfa: $esp 160 +
STACK CFI INIT 12b20 ce .cfa: $esp 4 + .ra: .cfa -4 + ^
STACK CFI 12b23 .cfa: $esp 64 +
STACK CFI 12b86 .cfa: $esp 4 +
STACK CFI 12b90 .cfa: $esp 64 +
STACK CFI 12bb3 .cfa: $esp 52 +
STACK CFI 12bc0 .cfa: $esp 64 +
STACK CFI 12bdd .cfa: $esp 4 +
STACK CFI 12be0 .cfa: $esp 64 +
STACK CFI 12bed .cfa: $esp 4 +
STACK CFI INIT 12bf0 336 .cfa: $esp 4 + .ra: .cfa -4 + ^
STACK CFI 12bf1 $ebp: .cfa -8 + ^ .cfa: $esp 8 +
STACK CFI 12bf2 $edi: .cfa -12 + ^ .cfa: $esp 12 +
STACK CFI 12bf3 $esi: .cfa -16 + ^ .cfa: $esp 16 +
STACK CFI 12bf4 $ebx: .cfa -20 + ^ .cfa: $esp 20 +
STACK CFI 12bfa .cfa: $esp 208 +
STACK CFI 12ce6 .cfa: $esp 192 +
STACK CFI 12ce9 .cfa: $esp 208 +
STACK CFI 12cef .cfa: $esp 20 +
STACK CFI 12cf0 $ebx: $ebx .cfa: $esp 16 +
STACK CFI 12cf1 $esi: $esi .cfa: $esp 12 +
STACK CFI 12cf2 $edi: $edi .cfa: $esp 8 +
STACK CFI 12cf3 $ebp: $ebp .cfa: $esp 4 +
STACK CFI 12cf4 $ebp: .cfa -8 + ^ $ebx: .cfa -20 + ^ $edi: .cfa -12 + ^ $esi: .cfa -16 + ^ .cfa: $esp 208 +
STACK CFI 12d62 .cfa: $esp 184 +
STACK CFI 12d65 .cfa: $esp 208 +
STACK CFI 12d74 .cfa: $esp 20 +
STACK CFI 12d75 $ebx: $ebx .cfa: $esp 16 +
STACK CFI 12d76 $esi: $esi .cfa: $esp 12 +
STACK CFI 12d77 $edi: $edi .cfa: $esp 8 +
STACK CFI 12d78 $ebp: $ebp .cfa: $esp 4 +
STACK CFI 12d80 $ebp: .cfa -8 + ^ $ebx: .cfa -20 + ^ $edi: .cfa -12 + ^ $esi: .cfa -16 + ^ .cfa: $esp 208 +
STACK CFI 12e16 .cfa: $esp 184 +
STACK CFI 12e19 .cfa: $esp 208 +
STACK CFI 12e4a .cfa: $esp 196 +
STACK CFI 12e4d .cfa: $esp 208 +
STACK CFI 12ec9 .cfa: $esp 184 +
STACK CFI 12ecc .cfa: $esp 208 +
STACK CFI 12f0a .cfa: $esp 196 +
STACK CFI 12f0d .cfa: $esp 208 +
STACK CFI INIT 12f30 446 .cfa: $esp 4 + .ra: .cfa -4 + ^
STACK CFI 12f31 $ebp: .cfa -8 + ^ .cfa: $esp 8 +
STACK CFI 12f32 $edi: .cfa -12 + ^ .cfa: $esp 12 +
STACK CFI 12f33 $esi: .cfa -16 + ^ .cfa: $esp 16 +
STACK CFI 12f34 $ebx: .cfa -20 + ^ .cfa: $esp 20 +
STACK CFI 12f3a .cfa: $esp 240 +
STACK CFI 12f76 .cfa: $esp 20 +
STACK CFI 12f77 $ebx: $ebx .cfa: $esp 16 +
STACK CFI 12f78 $esi: $esi .cfa: $esp 12 +
STACK CFI 12f79 $edi: $edi .cfa: $esp 8 +
STACK CFI 12f7a $ebp: $ebp .cfa: $esp 4 +
STACK CFI 12f80 $ebp: .cfa -8 + ^ $ebx: .cfa -20 + ^ $edi: .cfa -12 + ^ $esi: .cfa -16 + ^ .cfa: $esp 240 +
STACK CFI 12fbd .cfa: $esp 216 +
STACK CFI 12fc0 .cfa: $esp 240 +
STACK CFI 12ffd .cfa: $esp 20 +
STACK CFI 13003 $ebx: $ebx .cfa: $esp 16 +
STACK CFI 13004 $esi: $esi .cfa: $esp 12 +
STACK CFI 13005 $edi: $edi .cfa: $esp 8 +
STACK CFI 13006 $ebp: $ebp .cfa: $esp 4 +
STACK CFI 13010 $ebp: .cfa -8 + ^ $ebx: .cfa -20 + ^ $edi: .cfa -12 + ^ $esi: .cfa -16 + ^ .cfa: $esp 240 +
STACK CFI 13047 .cfa: $esp 216 +
STACK CFI 1304a .cfa: $esp 240 +
STACK CFI 13149 .cfa: $esp 216 +
STACK CFI 1314c .cfa: $esp 240 +
STACK CFI 13189 .cfa: $esp 20 +
STACK CFI 1318f $ebx: $ebx .cfa: $esp 16 +
STACK CFI 13190 $esi: $esi .cfa: $esp 12 +
STACK CFI 13191 $edi: $edi .cfa: $esp 8 +
STACK CFI 13192 $ebp: $ebp .cfa: $esp 4 +
STACK CFI 13193 $ebp: .cfa -8 + ^ $ebx: .cfa -20 + ^ $edi: .cfa -12 + ^ $esi: .cfa -16 + ^ .cfa: $esp 240 +
STACK CFI 131f6 .cfa: $esp 228 +
STACK CFI 131f9 .cfa: $esp 240 +
STACK CFI 13267 .cfa: $esp 228 +
STACK CFI 1326a .cfa: $esp 240 +
STACK CFI 132d2 .cfa: $esp 228 +
STACK CFI 132d5 .cfa: $esp 240 +
STACK CFI 13356 .cfa: $esp 228 +
STACK CFI 1335b .cfa: $esp 240 +
STACK CFI INIT 13380 32b .cfa: $esp 4 + .ra: .cfa -4 + ^
STACK CFI 13381 $ebp: .cfa -8 + ^ .cfa: $esp 8 +
STACK CFI 13382 $edi: .cfa -12 + ^ .cfa: $esp 12 +
STACK CFI 13383 $esi: .cfa -16 + ^ .cfa: $esp 16 +
STACK CFI 13384 $ebx: .cfa -20 + ^ .cfa: $esp 20 +
STACK CFI 13387 .cfa: $esp 112 +
STACK CFI 133f1 .cfa: $esp 96 +
STACK CFI 133f4 .cfa: $esp 112 +
STACK CFI 13411 .cfa: $esp 100 +
STACK CFI 13414 .cfa: $esp 112 +
STACK CFI 13438 .cfa: $esp 100 +
STACK CFI 1343b .cfa: $esp 112 +
STACK CFI 1346d .cfa: $esp 92 +
STACK CFI 13470 .cfa: $esp 112 +
STACK CFI 134bd .cfa: $esp 108 +
STACK CFI 134c0 .cfa: $esp 112 +
STACK CFI 134da .cfa: $esp 100 +
STACK CFI 134dd .cfa: $esp 112 +
STACK CFI 1351c .cfa: $esp 20 +
STACK CFI 1351f $ebx: $ebx .cfa: $esp 16 +
STACK CFI 13520 $esi: $esi .cfa: $esp 12 +
STACK CFI 13521 $edi: $edi .cfa: $esp 8 +
STACK CFI 13522 $ebp: $ebp .cfa: $esp 4 +
STACK CFI 13523 $ebp: .cfa -8 + ^ $ebx: .cfa -20 + ^ $edi: .cfa -12 + ^ $esi: .cfa -16 + ^ .cfa: $esp 112 +
STACK CFI 1356b .cfa: $esp 108 +
STACK CFI 1356e .cfa: $esp 112 +
STACK CFI 135a2 .cfa: $esp 100 +
STACK CFI 135a5 .cfa: $esp 112 +
STACK CFI 135aa .cfa: $esp 20 +
STACK CFI 135ab $ebx: $ebx .cfa: $esp 16 +
STACK CFI 135ac $esi: $esi .cfa: $esp 12 +
STACK CFI 135ad $edi: $edi .cfa: $esp 8 +
STACK CFI 135ae $ebp: $ebp .cfa: $esp 4 +
STACK CFI 135b0 $ebp: .cfa -8 + ^ $ebx: .cfa -20 + ^ $edi: .cfa -12 + ^ $esi: .cfa -16 + ^ .cfa: $esp 112 +
STACK CFI 135d6 .cfa: $esp 100 +
STACK CFI 135d9 .cfa: $esp 112 +
STACK CFI 135f3 .cfa: $esp 108 +
STACK CFI 135f6 .cfa: $esp 112 +
STACK CFI 135fb .cfa: $esp 20 +
STACK CFI 135fc $ebx: $ebx .cfa: $esp 16 +
STACK CFI 135fd $esi: $esi .cfa: $esp 12 +
STACK CFI 135fe $edi: $edi .cfa: $esp 8 +
STACK CFI 135ff $ebp: $ebp .cfa: $esp 4 +
STACK CFI 13600 $ebp: .cfa -8 + ^ $ebx: .cfa -20 + ^ $edi: .cfa -12 + ^ $esi: .cfa -16 + ^ .cfa: $esp 112 +
STACK CFI 1361d .cfa: $esp 100 +
STACK CFI 13620 .cfa: $esp 112 +
STACK CFI 13669 .cfa: $esp 100 +
STACK CFI 1366c .cfa: $esp 112 +
STACK CFI 13697 .cfa: $esp 100 +
STACK CFI 1369a .cfa: $esp 112 +
STACK CFI INIT 136b0 44e .cfa: $esp 4 + .ra: .cfa -4 + ^
STACK CFI 136b1 $ebp: .cfa -8 + ^ .cfa: $esp 8 +
STACK CFI 136b2 $edi: .cfa -12 + ^ .cfa: $esp 12 +
STACK CFI 136b3 $esi: .cfa -16 + ^ .cfa: $esp 16 +
STACK CFI 136b4 $ebx: .cfa -20 + ^ .cfa: $esp 20 +
STACK CFI 136b7 .cfa: $esp 144 +
STACK CFI 1375d .cfa: $esp 120 +
STACK CFI 13760 .cfa: $esp 144 +
STACK CFI 1377d .cfa: $esp 132 +
STACK CFI 13780 .cfa: $esp 144 +
STACK CFI 137a4 .cfa: $esp 132 +
STACK CFI 137a7 .cfa: $esp 144 +
STACK CFI 137dd .cfa: $esp 124 +
STACK CFI 137e0 .cfa: $esp 144 +
STACK CFI 13859 .cfa: $esp 140 +
STACK CFI 1385c .cfa: $esp 144 +
STACK CFI 13876 .cfa: $esp 132 +
STACK CFI 13879 .cfa: $esp 144 +
STACK CFI 138d3 .cfa: $esp 20 +
STACK CFI 138d6 $ebx: $ebx .cfa: $esp 16 +
STACK CFI 138d7 $esi: $esi .cfa: $esp 12 +
STACK CFI 138d8 $edi: $edi .cfa: $esp 8 +
STACK CFI 138d9 $ebp: $ebp .cfa: $esp 4 +
STACK CFI 138e0 $ebp: .cfa -8 + ^ $ebx: .cfa -20 + ^ $edi: .cfa -12 + ^ $esi: .cfa -16 + ^ .cfa: $esp 144 +
STACK CFI 139b5 .cfa: $esp 132 +
STACK CFI 139b8 .cfa: $esp 144 +
STACK CFI 139bd .cfa: $esp 20 +
STACK CFI 139be $ebx: $ebx .cfa: $esp 16 +
STACK CFI 139bf $esi: $esi .cfa: $esp 12 +
STACK CFI 139c0 $edi: $edi .cfa: $esp 8 +
STACK CFI 139c1 $ebp: $ebp .cfa: $esp 4 +
STACK CFI 139c2 $ebp: .cfa -8 + ^ $ebx: .cfa -20 + ^ $edi: .cfa -12 + ^ $esi: .cfa -16 + ^ .cfa: $esp 144 +
STACK CFI 139ed .cfa: $esp 140 +
STACK CFI 139f0 .cfa: $esp 144 +
STACK CFI 13a1b .cfa: $esp 132 +
STACK CFI 13a1e .cfa: $esp 144 +
STACK CFI 13a3b .cfa: $esp 140 +
STACK CFI 13a3e .cfa: $esp 144 +
STACK CFI 13a43 .cfa: $esp 20 +
STACK CFI 13a44 $ebx: $ebx .cfa: $esp 16 +
STACK CFI 13a45 $esi: $esi .cfa: $esp 12 +
STACK CFI 13a46 $edi: $edi .cfa: $esp 8 +
STACK CFI 13a47 $ebp: $ebp .cfa: $esp 4 +
STACK CFI 13a50 $ebp: .cfa -8 + ^ $ebx: .cfa -20 + ^ $edi: .cfa -12 + ^ $esi: .cfa -16 + ^ .cfa: $esp 144 +
STACK CFI 13a6d .cfa: $esp 132 +
STACK CFI 13a70 .cfa: $esp 144 +
STACK CFI 13ab9 .cfa: $esp 132 +
STACK CFI 13abc .cfa: $esp 144 +
STACK CFI 13ae7 .cfa: $esp 132 +
STACK CFI 13aea .cfa: $esp 144 +
STACK CFI INIT 13b00 219 .cfa: $esp 4 + .ra: .cfa -4 + ^
STACK CFI 13b22 $ebx: .cfa -8 + ^ .cfa: $esp 8 +
STACK CFI 13b25 .cfa: $esp 64 +
STACK CFI 13ba0 .cfa: $esp 60 +
STACK CFI 13ba3 .cfa: $esp 64 +
STACK CFI 13c0f .cfa: $esp 44 +
STACK CFI 13c12 .cfa: $esp 64 +
STACK CFI 13c40 .cfa: $esp 44 +
STACK CFI 13c43 .cfa: $esp 64 +
STACK CFI 13c4a .cfa: $esp 8 +
STACK CFI 13c4b $ebx: $ebx .cfa: $esp 4 +
STACK CFI 13c50 $ebx: .cfa -8 + ^ .cfa: $esp 64 +
STACK CFI 13c8a .cfa: $esp 52 +
STACK CFI 13c98 .cfa: $esp 64 +
STACK CFI 13ca9 .cfa: $esp 60 +
STACK CFI 13cb6 .cfa: $esp 64 +
STACK CFI 13cea .cfa: $esp 52 +
STACK CFI 13cf2 .cfa: $esp 64 +
STACK CFI 13d07 .cfa: $esp 60 +
STACK CFI 13d14 .cfa: $esp 64 +
STACK CFI INIT 13d20 5ad .cfa: $esp 4 + .ra: .cfa -4 + ^
STACK CFI 13d21 $ebp: .cfa -8 + ^ .cfa: $esp 8 +
STACK CFI 13d22 $edi: .cfa -12 + ^ .cfa: $esp 12 +
STACK CFI 13d28 $esi: .cfa -16 + ^ .cfa: $esp 16 +
STACK CFI 13d29 $ebx: .cfa -20 + ^ .cfa: $esp 20 +
STACK CFI 13d2f .cfa: $esp 160 +
STACK CFI 13d4a .cfa: $esp 152 +
STACK CFI 13d4d .cfa: $esp 160 +
STACK CFI 13d6a .cfa: $esp 148 +
STACK CFI 13d6d .cfa: $esp 160 +
STACK CFI 13d88 .cfa: $esp 156 +
STACK CFI 13d8b .cfa: $esp 160 +
STACK CFI 13db3 .cfa: $esp 152 +
STACK CFI 13db6 .cfa: $esp 160 +
STACK CFI 13dbc .cfa: $esp 20 +
STACK CFI 13dbd $ebx: $ebx .cfa: $esp 16 +
STACK CFI 13dbe $esi: $esi .cfa: $esp 12 +
STACK CFI 13dbf $edi: $edi .cfa: $esp 8 +
STACK CFI 13dc0 $ebp: $ebp .cfa: $esp 4 +
STACK CFI 13dc1 $ebp: .cfa -8 + ^ $ebx: .cfa -20 + ^ $edi: .cfa -12 + ^ $esi: .cfa -16 + ^ .cfa: $esp 160 +
STACK CFI 13deb .cfa: $esp 148 +
STACK CFI 13dee .cfa: $esp 160 +
STACK CFI 13df4 .cfa: $esp 20 +
STACK CFI 13df5 $ebx: $ebx .cfa: $esp 16 +
STACK CFI 13df6 $esi: $esi .cfa: $esp 12 +
STACK CFI 13df7 $edi: $edi .cfa: $esp 8 +
STACK CFI 13df8 $ebp: $ebp .cfa: $esp 4 +
STACK CFI 13e00 $ebp: .cfa -8 + ^ $ebx: .cfa -20 + ^ $edi: .cfa -12 + ^ $esi: .cfa -16 + ^ .cfa: $esp 160 +
STACK CFI 13e4c .cfa: $esp 156 +
STACK CFI 13e4f .cfa: $esp 160 +
STACK CFI 13e6e .cfa: $esp 148 +
STACK CFI 13e71 .cfa: $esp 160 +
STACK CFI 13ed0 .cfa: $esp 144 +
STACK CFI 13ed3 .cfa: $esp 160 +
STACK CFI 13f00 .cfa: $esp 144 +
STACK CFI 13f03 .cfa: $esp 160 +
STACK CFI 13f46 .cfa: $esp 152 +
STACK CFI 13f49 .cfa: $esp 160 +
STACK CFI 13f69 .cfa: $esp 152 +
STACK CFI 13f6c .cfa: $esp 160 +
STACK CFI 13f9b .cfa: $esp 148 +
STACK CFI 13f9e .cfa: $esp 160 +
STACK CFI 13fa4 .cfa: $esp 20 +
STACK CFI 13fa5 $ebx: $ebx .cfa: $esp 16 +
STACK CFI 13fa6 $esi: $esi .cfa: $esp 12 +
STACK CFI 13fa7 $edi: $edi .cfa: $esp 8 +
STACK CFI 13fa8 $ebp: $ebp .cfa: $esp 4 +
STACK CFI 13fb0 $ebp: .cfa -8 + ^ $ebx: .cfa -20 + ^ $edi: .cfa -12 + ^ $esi: .cfa -16 + ^ .cfa: $esp 160 +
STACK CFI 13fda .cfa: $esp 148 +
STACK CFI 13fdd .cfa: $esp 160 +
STACK CFI 1402a .cfa: $esp 148 +
STACK CFI 1402d .cfa: $esp 160 +
STACK CFI 1405c .cfa: $esp 148 +
STACK CFI 1405f .cfa: $esp 160 +
STACK CFI 14081 .cfa: $esp 156 +
STACK CFI 14084 .cfa: $esp 160 +
STACK CFI 140a7 .cfa: $esp 144 +
STACK CFI 140aa .cfa: $esp 160 +
STACK CFI 140d1 .cfa: $esp 144 +
STACK CFI 140d4 .cfa: $esp 160 +
STACK CFI 14128 .cfa: $esp 148 +
STACK CFI 1412b .cfa: $esp 160 +
STACK CFI 1419e .cfa: $esp 144 +
STACK CFI 141a1 .cfa: $esp 160 +
STACK CFI 141c8 .cfa: $esp 144 +
STACK CFI 141cb .cfa: $esp 160 +
STACK CFI 1420c .cfa: $esp 152 +
STACK CFI 1420d .cfa: $esp 156 +
STACK CFI 1420e .cfa: $esp 160 +
STACK CFI 1428c .cfa: $esp 148 +
STACK CFI 1428f .cfa: $esp 160 +
STACK CFI INIT 142d0 614 .cfa: $esp 4 + .ra: .cfa -4 + ^
STACK CFI 142d1 $ebp: .cfa -8 + ^ .cfa: $esp 8 +
STACK CFI 142d2 $edi: .cfa -12 + ^ .cfa: $esp 12 +
STACK CFI 142d3 $esi: .cfa -16 + ^ .cfa: $esp 16 +
STACK CFI 142d4 $ebx: .cfa -20 + ^ .cfa: $esp 20 +
STACK CFI 142d7 .cfa: $esp 96 +
STACK CFI 14544 .cfa: $esp 92 +
STACK CFI 14551 .cfa: $esp 96 +
STACK CFI 14581 .cfa: $esp 92 +
STACK CFI 1458e .cfa: $esp 96 +
STACK CFI 145a1 .cfa: $esp 92 +
STACK CFI 145a4 .cfa: $esp 96 +
STACK CFI 145b5 .cfa: $esp 20 +
STACK CFI 145b6 $ebx: $ebx .cfa: $esp 16 +
STACK CFI 145b7 $esi: $esi .cfa: $esp 12 +
STACK CFI 145b8 $edi: $edi .cfa: $esp 8 +
STACK CFI 145b9 $ebp: $ebp .cfa: $esp 4 +
STACK CFI 145c0 $ebp: .cfa -8 + ^ $ebx: .cfa -20 + ^ $edi: .cfa -12 + ^ $esi: .cfa -16 + ^ .cfa: $esp 96 +
STACK CFI 14709 .cfa: $esp 92 +
STACK CFI 14711 .cfa: $esp 96 +
STACK CFI 147b7 .cfa: $esp 20 +
STACK CFI 147b8 $ebx: $ebx .cfa: $esp 16 +
STACK CFI 147b9 $esi: $esi .cfa: $esp 12 +
STACK CFI 147ba $edi: $edi .cfa: $esp 8 +
STACK CFI 147bb $ebp: $ebp .cfa: $esp 4 +
STACK CFI 147c0 $ebp: .cfa -8 + ^ $ebx: .cfa -20 + ^ $edi: .cfa -12 + ^ $esi: .cfa -16 + ^ .cfa: $esp 96 +
STACK CFI 147d0 .cfa: $esp 92 +
STACK CFI 147d3 .cfa: $esp 96 +
STACK CFI 1487c .cfa: $esp 88 +
STACK CFI 14884 .cfa: $esp 96 +
STACK CFI 148ae .cfa: $esp 92 +
STACK CFI 148b1 .cfa: $esp 96 +
STACK CFI 148da .cfa: $esp 88 +
STACK CFI 148df .cfa: $esp 96 +
STACK CFI INIT 148f0 63 .cfa: $esp 4 + .ra: .cfa -4 + ^
STACK CFI 14903 .cfa: $esp 32 +
STACK CFI 1494d .cfa: $esp 4 +
STACK CFI INIT 14960 13 .cfa: $esp 4 + .ra: .cfa -4 + ^
STACK CFI 14963 .cfa: $esp 32 +
STACK CFI 14972 .cfa: $esp 4 +
STACK CFI INIT 14980 2ea .cfa: $esp 4 + .ra: .cfa -4 + ^
STACK CFI 14981 $ebp: .cfa -8 + ^ .cfa: $esp 8 +
STACK CFI 14987 .cfa: $esp 144 +
STACK CFI 149d7 .cfa: $esp 136 +
STACK CFI 149da .cfa: $esp 144 +
STACK CFI 14a07 .cfa: $esp 136 +
STACK CFI 14a0f .cfa: $esp 144 +
STACK CFI 14a73 .cfa: $esp 128 +
STACK CFI 14a76 .cfa: $esp 144 +
STACK CFI 14aa8 .cfa: $esp 8 +
STACK CFI 14aa9 $ebp: $ebp .cfa: $esp 4 +
STACK CFI 14ab0 $ebp: .cfa -8 + ^ .cfa: $esp 144 +
STACK CFI 14ad1 .cfa: $esp 132 +
STACK CFI 14ad4 .cfa: $esp 144 +
STACK CFI INIT 1a3940 1d .cfa: $esp 4 + .ra: .cfa -4 + ^
STACK CFI 1a3943 .cfa: $esp 32 +
STACK CFI 1a395c .cfa: $esp 4 +
STACK CFI INIT 11ab90 ca .cfa: $esp 4 + .ra: .cfa -4 + ^
STACK CFI 11ab91 $ebp: .cfa -8 + ^ .cfa: $esp 8 +
STACK CFI 11ab94 .cfa: $esp 128 +
STACK CFI 11abec .cfa: $esp 120 +
STACK CFI 11abef .cfa: $esp 128 +
STACK CFI 11ac26 .cfa: $esp 8 +
STACK CFI 11ac29 $ebp: $ebp .cfa: $esp 4 +
STACK CFI 11ac2a $ebp: .cfa -8 + ^ .cfa: $esp 128 +
STACK CFI INIT 111ff0 98 .cfa: $esp 4 + .ra: .cfa -4 + ^
STACK CFI 111ff1 $ebx: .cfa -8 + ^ .cfa: $esp 8 +
STACK CFI 111ff4 .cfa: $esp 32 +
STACK CFI 112039 .cfa: $esp 24 +
STACK CFI 11203c .cfa: $esp 32 +
STACK CFI 11203f .cfa: $esp 8 +
STACK CFI 112040 $ebx: $ebx .cfa: $esp 4 +
STACK CFI 112041 $ebx: .cfa -8 + ^ .cfa: $esp 32 +
STACK CFI 112058 .cfa: $esp 8 +
STACK CFI 112059 $ebx: $ebx .cfa: $esp 4 +
STACK CFI 112060 $ebx: .cfa -8 + ^ .cfa: $esp 32 +
STACK CFI 112068 .cfa: $esp 28 +
STACK CFI 11206b .cfa: $esp 32 +
STACK CFI 11206e .cfa: $esp 8 +
STACK CFI 11206f $ebx: $ebx .cfa: $esp 4 +
STACK CFI 112070 $ebx: .cfa -8 + ^ .cfa: $esp 32 +
STACK CFI 112083 .cfa: $esp 28 +
STACK CFI 112086 .cfa: $esp 32 +
STACK CFI INIT 111e10 98 .cfa: $esp 4 + .ra: .cfa -4 + ^
STACK CFI 111e11 $ebx: .cfa -8 + ^ .cfa: $esp 8 +
STACK CFI 111e14 .cfa: $esp 32 +
STACK CFI 111e59 .cfa: $esp 24 +
STACK CFI 111e5c .cfa: $esp 32 +
STACK CFI 111e5f .cfa: $esp 8 +
STACK CFI 111e60 $ebx: $ebx .cfa: $esp 4 +
STACK CFI 111e61 $ebx: .cfa -8 + ^ .cfa: $esp 32 +
STACK CFI 111e78 .cfa: $esp 8 +
STACK CFI 111e79 $ebx: $ebx .cfa: $esp 4 +
STACK CFI 111e80 $ebx: .cfa -8 + ^ .cfa: $esp 32 +
STACK CFI 111e88 .cfa: $esp 28 +
STACK CFI 111e8b .cfa: $esp 32 +
STACK CFI 111e8e .cfa: $esp 8 +
STACK CFI 111e8f $ebx: $ebx .cfa: $esp 4 +
STACK CFI 111e90 $ebx: .cfa -8 + ^ .cfa: $esp 32 +
STACK CFI 111ea3 .cfa: $esp 28 +
STACK CFI 111ea6 .cfa: $esp 32 +
STACK CFI INIT 11b7e0 ca .cfa: $esp 4 + .ra: .cfa -4 + ^
STACK CFI 11b7e1 $ebp: .cfa -8 + ^ .cfa: $esp 8 +
STACK CFI 11b7e4 .cfa: $esp 128 +
STACK CFI 11b83c .cfa: $esp 120 +
STACK CFI 11b83f .cfa: $esp 128 +
STACK CFI 11b876 .cfa: $esp 8 +
STACK CFI 11b879 $ebp: $ebp .cfa: $esp 4 +
STACK CFI 11b87a $ebp: .cfa -8 + ^ .cfa: $esp 128 +
STACK CFI INIT 11ae00 ca .cfa: $esp 4 + .ra: .cfa -4 + ^
STACK CFI 11ae01 $ebp: .cfa -8 + ^ .cfa: $esp 8 +
STACK CFI 11ae04 .cfa: $esp 128 +
STACK CFI 11ae5c .cfa: $esp 120 +
STACK CFI 11ae5f .cfa: $esp 128 +
STACK CFI 11ae96 .cfa: $esp 8 +
STACK CFI 11ae99 $ebp: $ebp .cfa: $esp 4 +
STACK CFI 11ae9a $ebp: .cfa -8 + ^ .cfa: $esp 128 +
STACK CFI INIT 116ca0 20b .cfa: $esp 4 + .ra: .cfa -4 + ^
STACK CFI 116ca1 $ebp: .cfa -8 + ^ .cfa: $esp 8 +
STACK CFI 116ca4 .cfa: $esp 128 +
STACK CFI 116d58 .cfa: $esp 120 +
STACK CFI 116d5b .cfa: $esp 128 +
STACK CFI 116d6a .cfa: $esp 8 +
STACK CFI 116d6b $ebp: $ebp .cfa: $esp 4 +
STACK CFI 116d70 $ebp: .cfa -8 + ^ .cfa: $esp 128 +
STACK CFI 116d8b .cfa: $esp 124 +
STACK CFI 116d8e .cfa: $esp 128 +
STACK CFI 116de9 .cfa: $esp 120 +
STACK CFI 116dec .cfa: $esp 128 +
STACK CFI 116e59 .cfa: $esp 120 +
STACK CFI 116e5c .cfa: $esp 128 +
STACK CFI INIT 119ad0 649 .cfa: $esp 4 + .ra: .cfa -4 + ^
STACK CFI 119ad1 $ebp: .cfa -8 + ^ .cfa: $esp 8 +
STACK CFI 119ad3 .cfa: $ebp 8 +
STACK CFI 119ade $ebx: .cfa -16 + ^ $esi: .cfa -12 + ^
STACK CFI 119db0 $ebx: $ebx
STACK CFI 119db1 $esi: $esi
STACK CFI 119db2 $ebp: $ebp .cfa: $esp 4 +
STACK CFI 119db3 $ebp: .cfa -8 + ^ $ebx: .cfa -16 + ^ $esi: .cfa -12 + ^ .cfa: $ebp 8 +
STACK CFI INIT 162c40 11d2 .cfa: $esp 4 + .ra: .cfa -4 + ^
STACK CFI 162c41 $ebp: .cfa -8 + ^ .cfa: $esp 8 +
STACK CFI 162c43 .cfa: $ebp 8 +
STACK CFI 162c4e $ebx: .cfa -16 + ^ $esi: .cfa -12 + ^
STACK CFI 162cbe $ebx: $ebx
STACK CFI 162cbf $esi: $esi
STACK CFI 162cc0 $ebp: $ebp .cfa: $esp 4 +
STACK CFI 162cc3 $ebp: .cfa -8 + ^ $ebx: .cfa -16 + ^ $esi: .cfa -12 + ^ .cfa: $ebp 8 +
STACK CFI INIT 16f530 11d2 .cfa: $esp 4 + .ra: .cfa -4 + ^
STACK CFI 16f531 $ebp: .cfa -8 + ^ .cfa: $esp 8 +
STACK CFI 16f533 .cfa: $ebp 8 +
STACK CFI 16f53e $ebx: .cfa -16 + ^ $esi: .cfa -12 + ^
STACK CFI 16f5ae $ebx: $ebx
STACK CFI 16f5af $esi: $esi
STACK CFI 16f5b0 $ebp: $ebp .cfa: $esp 4 +
STACK CFI 16f5b3 $ebp: .cfa -8 + ^ $ebx: .cfa -16 + ^ $esi: .cfa -12 + ^ .cfa: $ebp 8 +
STACK CFI INIT 156640 11bc .cfa: $esp 4 + .ra: .cfa -4 + ^
STACK CFI 156641 $ebp: .cfa -8 + ^ .cfa: $esp 8 +
STACK CFI 156643 .cfa: $ebp 8 +
STACK CFI 15664e $ebx: .cfa -16 + ^ $esi: .cfa -12 + ^
STACK CFI 1566be $ebx: $ebx
STACK CFI 1566bf $esi: $esi
STACK CFI 1566c0 $ebp: $ebp .cfa: $esp 4 +
STACK CFI 1566c3 $ebp: .cfa -8 + ^ $ebx: .cfa -16 + ^ $esi: .cfa -12 + ^ .cfa: $ebp 8 +
STACK CFI INIT 14d300 11d2 .cfa: $esp 4 + .ra: .cfa -4 + ^
STACK CFI 14d301 $ebp: .cfa -8 + ^ .cfa: $esp 8 +
STACK CFI 14d303 .cfa: $ebp 8 +
STACK CFI 14d30e $ebx: .cfa -16 + ^ $esi: .cfa -12 + ^
STACK CFI 14d37e $ebx: $ebx
STACK CFI 14d37f $esi: $esi
STACK CFI 14d380 $ebp: $ebp .cfa: $esp 4 +
STACK CFI 14d383 $ebp: .cfa -8 + ^ $ebx: .cfa -16 + ^ $esi: .cfa -12 + ^ .cfa: $ebp 8 +
STACK CFI INIT 14e650 1212 .cfa: $esp 4 + .ra: .cfa -4 + ^
STACK CFI 14e651 $ebp: .cfa -8 + ^ .cfa: $esp 8 +
STACK CFI 14e653 .cfa: $ebp 8 +
STACK CFI 14e65e $ebx: .cfa -16 + ^ $esi: .cfa -12 + ^
STACK CFI 14e6ce $ebx: $ebx
STACK CFI 14e6cf $esi: $esi
STACK CFI 14e6d0 $ebp: $ebp .cfa: $esp 4 +
STACK CFI 14e6d3 $ebp: .cfa -8 + ^ $ebx: .cfa -16 + ^ $esi: .cfa -12 + ^ .cfa: $ebp 8 +
STACK CFI INIT 140f30 11bc .cfa: $esp 4 + .ra: .cfa -4 + ^
STACK CFI 140f31 $ebp: .cfa -8 + ^ .cfa: $esp 8 +
STACK CFI 140f33 .cfa: $ebp 8 +
STACK CFI 140f3e $ebx: .cfa -16 + ^ $esi: .cfa -12 + ^
STACK CFI 140fae $ebx: $ebx
STACK CFI 140faf $esi: $esi
STACK CFI 140fb0 $ebp: $ebp .cfa: $esp 4 +
STACK CFI 140fb3 $ebp: .cfa -8 + ^ $ebx: .cfa -16 + ^ $esi: .cfa -12 + ^ .cfa: $ebp 8 +
STACK CFI INIT 13af50 15f .cfa: $esp 4 + .ra: .cfa -4 + ^
STACK CFI 13af51 $ebp: .cfa -8 + ^ .cfa: $esp 8 +
STACK CFI 13af53 .cfa: $ebp 8 +
STACK CFI 13afa8 $ebp: $ebp .cfa: $esp 4 +
STACK CFI 13afb0 $ebp: .cfa -8 + ^ .cfa: $ebp 8 +
STACK CFI 13b05f $ebp: $ebp .cfa: $esp 4 +
STACK CFI 13b062 $ebp: .cfa -8 + ^ .cfa: $ebp 8 +
STACK CFI INIT 1689f0 11bc .cfa: $esp 4 + .ra: .cfa -4 + ^
STACK CFI 1689f1 $ebp: .cfa -8 + ^ .cfa: $esp 8 +
STACK CFI 1689f3 .cfa: $ebp 8 +
STACK CFI 1689fe $ebx: .cfa -16 + ^ $esi: .cfa -12 + ^
STACK CFI 168a6e $ebx: $ebx
STACK CFI 168a6f $esi: $esi
STACK CFI 168a70 $ebp: $ebp .cfa: $esp 4 +
STACK CFI 168a73 $ebp: .cfa -8 + ^ $ebx: .cfa -16 + ^ $esi: .cfa -12 + ^ .cfa: $ebp 8 +
STACK CFI INIT 155480 11bc .cfa: $esp 4 + .ra: .cfa -4 + ^
STACK CFI 155481 $ebp: .cfa -8 + ^ .cfa: $esp 8 +
STACK CFI 155483 .cfa: $ebp 8 +
STACK CFI 15548e $ebx: .cfa -16 + ^ $esi: .cfa -12 + ^
STACK CFI 1554fe $ebx: $ebx
STACK CFI 1554ff $esi: $esi
STACK CFI 155500 $ebp: $ebp .cfa: $esp 4 +
STACK CFI 155503 $ebp: .cfa -8 + ^ $ebx: .cfa -16 + ^ $esi: .cfa -12 + ^ .cfa: $ebp 8 +
STACK CFI INIT 171a30 11d2 .cfa: $esp 4 + .ra: .cfa -4 + ^
STACK CFI 171a31 $ebp: .cfa -8 + ^ .cfa: $esp 8 +
STACK CFI 171a33 .cfa: $ebp 8 +
STACK CFI 171a3e $ebx: .cfa -16 + ^ $esi: .cfa -12 + ^
STACK CFI 171aae $ebx: $ebx
STACK CFI 171aaf $esi: $esi
STACK CFI 171ab0 $ebp: $ebp .cfa: $esp 4 +
STACK CFI 171ab3 $ebp: .cfa -8 + ^ $ebx: .cfa -16 + ^ $esi: .cfa -12 + ^ .cfa: $ebp 8 +
STACK CFI INIT 125410 1033 .cfa: $esp 4 + .ra: .cfa -4 + ^
STACK CFI 125411 $ebp: .cfa -8 + ^ .cfa: $esp 8 +
STACK CFI 125413 .cfa: $ebp 8 +
STACK CFI 12541f $ebx: .cfa -20 + ^ $edi: .cfa -12 + ^ $esi: .cfa -16 + ^
STACK CFI 125a35 $ebx: $ebx
STACK CFI 125a36 $esi: $esi
STACK CFI 125a37 $edi: $edi
STACK CFI 125a38 $ebp: $ebp .cfa: $esp 4 +
STACK CFI 125a40 $ebp: .cfa -8 + ^ $ebx: .cfa -20 + ^ $edi: .cfa -12 + ^ $esi: .cfa -16 + ^ .cfa: $ebp 8 +
STACK CFI INIT 13c550 153 .cfa: $esp 4 + .ra: .cfa -4 + ^
STACK CFI 13c551 $ebp: .cfa -8 + ^ .cfa: $esp 8 +
STACK CFI 13c553 .cfa: $ebp 8 +
STACK CFI 13c5a8 $ebp: $ebp .cfa: $esp 4 +
STACK CFI 13c5b0 $ebp: .cfa -8 + ^ .cfa: $ebp 8 +
STACK CFI 13c653 $ebp: $ebp .cfa: $esp 4 +
STACK CFI 13c656 $ebp: .cfa -8 + ^ .cfa: $ebp 8 +
STACK CFI INIT 14c70 46 .cfa: $esp 4 + .ra: .cfa -4 + ^
STACK CFI 14c71 $edi: .cfa -8 + ^ .cfa: $esp 8 +
STACK CFI 14c74 $esi: .cfa -12 + ^ .cfa: $esp 12 +
STACK CFI 14c75 $ebx: .cfa -16 + ^ .cfa: $esp 16 +
STACK CFI 14cae $ebx: $ebx .cfa: $esp 12 +
STACK CFI 14caf $esi: $esi .cfa: $esp 8 +
STACK CFI 14cb5 $edi: $edi .cfa: $esp 4 +
STACK CFI INIT 14cc0 66 .cfa: $esp 4 + .ra: .cfa -4 + ^
STACK CFI 14cc1 $esi: .cfa -8 + ^ .cfa: $esp 8 +
STACK CFI 14cc2 $ebx: .cfa -12 + ^ .cfa: $esp 12 +
STACK CFI 14cc7 .cfa: $esp 32 +
STACK CFI 14d21 .cfa: $esp 12 +
STACK CFI 14d24 $ebx: $ebx .cfa: $esp 8 +
STACK CFI 14d25 $esi: $esi .cfa: $esp 4 +
STACK CFI INIT 14d30 5f .cfa: $esp 4 + .ra: .cfa -4 + ^
STACK CFI 14d31 $esi: .cfa -8 + ^ .cfa: $esp 8 +
STACK CFI 14d32 $ebx: .cfa -12 + ^ .cfa: $esp 12 +
STACK CFI 14d35 .cfa: $esp 32 +
STACK CFI 14d59 .cfa: $esp 12 +
STACK CFI 14d5a $ebx: $ebx .cfa: $esp 8 +
STACK CFI 14d5b $esi: $esi .cfa: $esp 4 +
STACK CFI 14d60 $ebx: .cfa -12 + ^ $esi: .cfa -8 + ^ .cfa: $esp 32 +
STACK CFI 14d8c .cfa: $esp 12 +
STACK CFI 14d8d $ebx: $ebx .cfa: $esp 8 +
STACK CFI 14d8e $esi: $esi .cfa: $esp 4 +
STACK CFI INIT 14d90 25 .cfa: $esp 4 + .ra: .cfa -4 + ^
STACK CFI 14d91 $ebx: .cfa -8 + ^ .cfa: $esp 8 +
STACK CFI 14d96 .cfa: $esp 32 +
STACK CFI 14db3 .cfa: $esp 8 +
STACK CFI 14db4 $ebx: $ebx .cfa: $esp 4 +
STACK CFI INIT 14dc0 5b .cfa: $esp 4 + .ra: .cfa -4 + ^
STACK CFI 14dc1 $esi: .cfa -8 + ^ .cfa: $esp 8 +
STACK CFI 14dc2 $ebx: .cfa -12 + ^ .cfa: $esp 12 +
STACK CFI 14dc7 .cfa: $esp 32 +
STACK CFI 14e18 .cfa: $esp 12 +
STACK CFI 14e19 $ebx: $ebx .cfa: $esp 8 +
STACK CFI 14e1a $esi: $esi .cfa: $esp 4 +
STACK CFI INIT 14e20 4a .cfa: $esp 4 + .ra: .cfa -4 + ^
STACK CFI 14e21 $edi: .cfa -8 + ^ .cfa: $esp 8 +
STACK CFI 14e22 $esi: .cfa -12 + ^ .cfa: $esp 12 +
STACK CFI 14e25 $ebx: .cfa -16 + ^ .cfa: $esp 16 +
STACK CFI 14e2c .cfa: $esp 32 +
STACK CFI 14e66 .cfa: $esp 16 +
STACK CFI 14e67 $ebx: $ebx .cfa: $esp 12 +
STACK CFI 14e68 $esi: $esi .cfa: $esp 8 +
STACK CFI 14e69 $edi: $edi .cfa: $esp 4 +
STACK CFI INIT 14e70 44 .cfa: $esp 4 + .ra: .cfa -4 + ^
STACK CFI 14e71 $ebx: .cfa -8 + ^ .cfa: $esp 8 +
STACK CFI 14e76 .cfa: $esp 32 +
STACK CFI 14e92 .cfa: $esp 8 +
STACK CFI 14e93 $ebx: $ebx .cfa: $esp 4 +
STACK CFI 14e94 $ebx: .cfa -8 + ^ .cfa: $esp 32 +
STACK CFI INIT 14ec0 61 .cfa: $esp 4 + .ra: .cfa -4 + ^
STACK CFI 14ec1 $esi: .cfa -8 + ^ .cfa: $esp 8 +
STACK CFI 14ec2 $ebx: .cfa -12 + ^ .cfa: $esp 12 +
STACK CFI 14ec7 .cfa: $esp 32 +
STACK CFI 14ef6 .cfa: $esp 12 +
STACK CFI 14ef7 $ebx: $ebx .cfa: $esp 8 +
STACK CFI 14ef8 $esi: $esi .cfa: $esp 4 +
STACK CFI 14f00 $ebx: .cfa -12 + ^ $esi: .cfa -8 + ^ .cfa: $esp 32 +
STACK CFI INIT 14f30 a .cfa: $esp 4 + .ra: .cfa -4 + ^
STACK CFI INIT 14f40 ec .cfa: $esp 4 + .ra: .cfa -4 + ^
STACK CFI 14f41 $esi: .cfa -8 + ^ .cfa: $esp 8 +
STACK CFI 14f42 $ebx: .cfa -12 + ^ .cfa: $esp 12 +
STACK CFI 14fb6 $ebx: $ebx .cfa: $esp 8 +
STACK CFI 14fb7 $esi: $esi .cfa: $esp 4 +
STACK CFI 14fc0 $ebx: .cfa -12 + ^ $esi: .cfa -8 + ^ .cfa: $esp 12 +
STACK CFI INIT 15030 53 .cfa: $esp 4 + .ra: .cfa -4 + ^
STACK CFI 15031 $edi: .cfa -8 + ^ .cfa: $esp 8 +
STACK CFI 15032 $esi: .cfa -12 + ^ .cfa: $esp 12 +
STACK CFI 15037 .cfa: $esp 32 +
STACK CFI 1506c .cfa: $esp 12 +
STACK CFI 1506d $esi: $esi .cfa: $esp 8 +
STACK CFI 1506e $edi: $edi .cfa: $esp 4 +
STACK CFI 1506f $edi: .cfa -8 + ^ $esi: .cfa -12 + ^ .cfa: $esp 32 +
STACK CFI INIT 15090 81 .cfa: $esp 4 + .ra: .cfa -4 + ^
STACK CFI 15091 $ebx: .cfa -8 + ^ .cfa: $esp 8 +
STACK CFI 15099 .cfa: $esp 1088 +
STACK CFI 1510f .cfa: $esp 8 +
STACK CFI 15110 $ebx: $ebx .cfa: $esp 4 +
STACK CFI INIT 15120 a2 .cfa: $esp 4 + .ra: .cfa -4 + ^
STACK CFI 15121 $edi: .cfa -8 + ^ .cfa: $esp 8 +
STACK CFI 15122 $esi: .cfa -12 + ^ .cfa: $esp 12 +
STACK CFI 15125 $ebx: .cfa -16 + ^ .cfa: $esp 16 +
STACK CFI 15128 .cfa: $esp 48 +
STACK CFI 15161 .cfa: $esp 16 +
STACK CFI 15162 $ebx: $ebx .cfa: $esp 12 +
STACK CFI 15163 $esi: $esi .cfa: $esp 8 +
STACK CFI 15164 $edi: $edi .cfa: $esp 4 +
STACK CFI 15170 $ebx: .cfa -16 + ^ $edi: .cfa -8 + ^ $esi: .cfa -12 + ^ .cfa: $esp 48 +
STACK CFI 15186 .cfa: $esp 40 +
STACK CFI 15189 .cfa: $esp 48 +
STACK CFI INIT 151d0 108 .cfa: $esp 4 + .ra: .cfa -4 + ^
STACK CFI 151d1 $ebp: .cfa -8 + ^ .cfa: $esp 8 +
STACK CFI 151d2 $edi: .cfa -12 + ^ .cfa: $esp 12 +
STACK CFI 151d3 $esi: .cfa -16 + ^ .cfa: $esp 16 +
STACK CFI 151d4 $ebx: .cfa -20 + ^ .cfa: $esp 20 +
STACK CFI 151d7 .cfa: $esp 64 +
STACK CFI 15276 .cfa: $esp 20 +
STACK CFI 15277 $ebx: $ebx .cfa: $esp 16 +
STACK CFI 15278 $esi: $esi .cfa: $esp 12 +
STACK CFI 15279 $edi: $edi .cfa: $esp 8 +
STACK CFI 1527a $ebp: $ebp .cfa: $esp 4 +
STACK CFI 15280 $ebp: .cfa -8 + ^ $ebx: .cfa -20 + ^ $edi: .cfa -12 + ^ $esi: .cfa -16 + ^ .cfa: $esp 64 +
STACK CFI INIT 152e0 c0 .cfa: $esp 4 + .ra: .cfa -4 + ^
STACK CFI 152e1 $edi: .cfa -8 + ^ .cfa: $esp 8 +
STACK CFI 152e2 $esi: .cfa -12 + ^ .cfa: $esp 12 +
STACK CFI 152e5 $ebx: .cfa -16 + ^ .cfa: $esp 16 +
STACK CFI 152f0 .cfa: $esp 32 +
STACK CFI 1539a .cfa: $esp 16 +
STACK CFI 1539d $ebx: $ebx .cfa: $esp 12 +
STACK CFI 1539e $esi: $esi .cfa: $esp 8 +
STACK CFI 1539f $edi: $edi .cfa: $esp 4 +
STACK CFI INIT 153a0 fb .cfa: $esp 4 + .ra: .cfa -4 + ^
STACK CFI 153a1 $edi: .cfa -8 + ^ .cfa: $esp 8 +
STACK CFI 153a2 $esi: .cfa -12 + ^ .cfa: $esp 12 +
STACK CFI 153a5 $ebx: .cfa -16 + ^ .cfa: $esp 16 +
STACK CFI 153a8 .cfa: $esp 48 +
STACK CFI 1548a .cfa: $esp 16 +
STACK CFI 1548d $ebx: $ebx .cfa: $esp 12 +
STACK CFI 1548e $esi: $esi .cfa: $esp 8 +
STACK CFI 1548f $edi: $edi .cfa: $esp 4 +
STACK CFI 15490 $ebx: .cfa -16 + ^ $edi: .cfa -8 + ^ $esi: .cfa -12 + ^ .cfa: $esp 48 +
STACK CFI 15493 .cfa: $esp 16 +
STACK CFI 15498 $ebx: $ebx .cfa: $esp 12 +
STACK CFI 15499 $esi: $esi .cfa: $esp 8 +
STACK CFI 1549a $edi: $edi .cfa: $esp 4 +
STACK CFI INIT 154a0 1fd .cfa: $esp 4 + .ra: .cfa -4 + ^
STACK CFI 154a1 $ebp: .cfa -8 + ^ .cfa: $esp 8 +
STACK CFI 154a2 $edi: .cfa -12 + ^ .cfa: $esp 12 +
STACK CFI 154a3 $esi: .cfa -16 + ^ .cfa: $esp 16 +
STACK CFI 154a4 $ebx: .cfa -20 + ^ .cfa: $esp 20 +
STACK CFI 154ac .cfa: $esp 64 +
STACK CFI 1568a .cfa: $esp 20 +
STACK CFI 1568d $ebx: $ebx .cfa: $esp 16 +
STACK CFI 1568e $esi: $esi .cfa: $esp 12 +
STACK CFI 1568f $edi: $edi .cfa: $esp 8 +
STACK CFI 15690 $ebp: $ebp .cfa: $esp 4 +
STACK CFI 15691 $ebp: .cfa -8 + ^ $ebx: .cfa -20 + ^ $edi: .cfa -12 + ^ $esi: .cfa -16 + ^ .cfa: $esp 64 +
STACK CFI 15694 .cfa: $esp 20 +
STACK CFI 15699 $ebx: $ebx .cfa: $esp 16 +
STACK CFI 1569a $esi: $esi .cfa: $esp 12 +
STACK CFI 1569b $edi: $edi .cfa: $esp 8 +
STACK CFI 1569c $ebp: $ebp .cfa: $esp 4 +
STACK CFI INIT 156a0 ee .cfa: $esp 4 + .ra: .cfa -4 + ^
STACK CFI 156a1 $edi: .cfa -8 + ^ .cfa: $esp 8 +
STACK CFI 156a2 $esi: .cfa -12 + ^ .cfa: $esp 12 +
STACK CFI 156a5 $ebx: .cfa -16 + ^ .cfa: $esp 16 +
STACK CFI 156a8 .cfa: $esp 32 +
STACK CFI 156c2 .cfa: $esp 16 +
STACK CFI 156c3 $ebx: $ebx .cfa: $esp 12 +
STACK CFI 156c4 $esi: $esi .cfa: $esp 8 +
STACK CFI 156c5 $edi: $edi .cfa: $esp 4 +
STACK CFI 156c6 $ebx: .cfa -16 + ^ $edi: .cfa -8 + ^ $esi: .cfa -12 + ^ .cfa: $esp 32 +
STACK CFI 15785 .cfa: $esp 16 +
STACK CFI 1578b $ebx: $ebx .cfa: $esp 12 +
STACK CFI 1578c $esi: $esi .cfa: $esp 8 +
STACK CFI 1578d $edi: $edi .cfa: $esp 4 +
STACK CFI INIT 15790 68 .cfa: $esp 4 + .ra: .cfa -4 + ^
STACK CFI 15791 $ebx: .cfa -8 + ^ .cfa: $esp 8 +
STACK CFI 15796 .cfa: $esp 32 +
STACK CFI 157e2 .cfa: $esp 8 +
STACK CFI 157e3 $ebx: $ebx .cfa: $esp 4 +
STACK CFI 157e4 $ebx: .cfa -8 + ^ .cfa: $esp 32 +
STACK CFI 157f1 .cfa: $esp 8 +
STACK CFI 157f7 $ebx: $ebx .cfa: $esp 4 +
STACK CFI INIT 15800 6c .cfa: $esp 4 + .ra: .cfa -4 + ^
STACK CFI 15801 $ebx: .cfa -8 + ^ .cfa: $esp 8 +
STACK CFI 15807 .cfa: $esp 1072 +
STACK CFI 15861 .cfa: $esp 1052 +
STACK CFI 15864 .cfa: $esp 1072 +
STACK CFI 1586a .cfa: $esp 8 +
STACK CFI 1586b $ebx: $ebx .cfa: $esp 4 +
STACK CFI INIT 15870 bb0 .cfa: $esp 4 + .ra: .cfa -4 + ^
STACK CFI 15871 $ebp: .cfa -8 + ^ .cfa: $esp 8 +
STACK CFI 15873 .cfa: $ebp 8 +
STACK CFI 1587f $ebx: .cfa -20 + ^ $edi: .cfa -12 + ^ $esi: .cfa -16 + ^
STACK CFI 159a6 $ebx: $ebx
STACK CFI 159a7 $esi: $esi
STACK CFI 159a8 $edi: $edi
STACK CFI 159a9 $ebp: $ebp .cfa: $esp 4 +
STACK CFI 159aa $ebp: .cfa -8 + ^ $ebx: .cfa -20 + ^ $edi: .cfa -12 + ^ $esi: .cfa -16 + ^ .cfa: $ebp 8 +
STACK CFI 159e8 $ebx: $ebx
STACK CFI 159e9 $esi: $esi
STACK CFI 159ea $edi: $edi
STACK CFI 159eb $ebp: $ebp .cfa: $esp 4 +
STACK CFI 159f0 $ebp: .cfa -8 + ^ $ebx: .cfa -20 + ^ $edi: .cfa -12 + ^ $esi: .cfa -16 + ^ .cfa: $ebp 8 +
STACK CFI INIT 16420 1d .cfa: $esp 4 + .ra: .cfa -4 + ^
STACK CFI 16423 .cfa: $esp 32 +
STACK CFI 1643c .cfa: $esp 4 +
STACK CFI INIT 16440 6e .cfa: $esp 4 + .ra: .cfa -4 + ^
STACK CFI 16441 $edi: .cfa -8 + ^ .cfa: $esp 8 +
STACK CFI 16442 $esi: .cfa -12 + ^ .cfa: $esp 12 +
STACK CFI 16445 $ebx: .cfa -16 + ^ .cfa: $esp 16 +
STACK CFI 1644a .cfa: $esp 32 +
STACK CFI 16491 .cfa: $esp 16 +
STACK CFI 16492 $ebx: $ebx .cfa: $esp 12 +
STACK CFI 16493 $esi: $esi .cfa: $esp 8 +
STACK CFI 16494 $edi: $edi .cfa: $esp 4 +
STACK CFI 16495 $ebx: .cfa -16 + ^ $edi: .cfa -8 + ^ $esi: .cfa -12 + ^ .cfa: $esp 32 +
STACK CFI 164aa .cfa: $esp 16 +
STACK CFI 164ab $ebx: $ebx .cfa: $esp 12 +
STACK CFI 164ac $esi: $esi .cfa: $esp 8 +
STACK CFI 164ad $edi: $edi .cfa: $esp 4 +
STACK CFI INIT 164b0 4d .cfa: $esp 4 + .ra: .cfa -4 + ^
STACK CFI 164b1 $ebx: .cfa -8 + ^ .cfa: $esp 8 +
STACK CFI 164b4 .cfa: $esp 64 +
STACK CFI 164d2 .cfa: $esp 8 +
STACK CFI 164d8 $ebx: $ebx .cfa: $esp 4 +
STACK CFI 164e0 $ebx: .cfa -8 + ^ .cfa: $esp 64 +
STACK CFI 164fb .cfa: $esp 8 +
STACK CFI 164fc $ebx: $ebx .cfa: $esp 4 +
STACK CFI INIT 16500 7d .cfa: $esp 4 + .ra: .cfa -4 + ^
STACK CFI 16501 $ebx: .cfa -8 + ^ .cfa: $esp 8 +
STACK CFI 16504 .cfa: $esp 64 +
STACK CFI 1653e .cfa: $esp 8 +
STACK CFI 16544 $ebx: $ebx .cfa: $esp 4 +
STACK CFI 16545 $ebx: .cfa -8 + ^ .cfa: $esp 64 +
STACK CFI 16558 .cfa: $esp 8 +
STACK CFI 1655b $ebx: $ebx .cfa: $esp 4 +
STACK CFI 16560 $ebx: .cfa -8 + ^ .cfa: $esp 64 +
STACK CFI 1657b .cfa: $esp 8 +
STACK CFI 1657c $ebx: $ebx .cfa: $esp 4 +
STACK CFI INIT 16580 7a .cfa: $esp 4 + .ra: .cfa -4 + ^
STACK CFI 16581 $esi: .cfa -8 + ^ .cfa: $esp 8 +
STACK CFI 16582 $ebx: .cfa -12 + ^ .cfa: $esp 12 +
STACK CFI 16588 .cfa: $esp 1072 +
STACK CFI 1659e .cfa: $esp 12 +
STACK CFI 1659f $ebx: $ebx .cfa: $esp 8 +
STACK CFI 165a0 $esi: $esi .cfa: $esp 4 +
STACK CFI 165a1 $ebx: .cfa -12 + ^ $esi: .cfa -8 + ^ .cfa: $esp 1072 +
STACK CFI 165ee .cfa: $esp 1052 +
STACK CFI 165f1 .cfa: $esp 1072 +
STACK CFI 165f7 .cfa: $esp 12 +
STACK CFI 165f8 $ebx: $ebx .cfa: $esp 8 +
STACK CFI 165f9 $esi: $esi .cfa: $esp 4 +
STACK CFI INIT 16600 77 .cfa: $esp 4 + .ra: .cfa -4 + ^
STACK CFI 16601 $esi: .cfa -8 + ^ .cfa: $esp 8 +
STACK CFI 16602 $ebx: .cfa -12 + ^ .cfa: $esp 12 +
STACK CFI 16608 .cfa: $esp 1072 +
STACK CFI 1661e .cfa: $esp 12 +
STACK CFI 1661f $ebx: $ebx .cfa: $esp 8 +
STACK CFI 16620 $esi: $esi .cfa: $esp 4 +
STACK CFI 16621 $ebx: .cfa -12 + ^ $esi: .cfa -8 + ^ .cfa: $esp 1072 +
STACK CFI 1666b .cfa: $esp 1052 +
STACK CFI 1666e .cfa: $esp 1072 +
STACK CFI 16674 .cfa: $esp 12 +
STACK CFI 16675 $ebx: $ebx .cfa: $esp 8 +
STACK CFI 16676 $esi: $esi .cfa: $esp 4 +
STACK CFI INIT 16680 321 .cfa: $esp 4 + .ra: .cfa -4 + ^
STACK CFI 16681 $ebp: .cfa -8 + ^ .cfa: $esp 8 +
STACK CFI 16682 $edi: .cfa -12 + ^ .cfa: $esp 12 +
STACK CFI 16685 $esi: .cfa -16 + ^ .cfa: $esp 16 +
STACK CFI 16686 $ebx: .cfa -20 + ^ .cfa: $esp 20 +
STACK CFI 16692 .cfa: $esp 80 +
STACK CFI 16786 .cfa: $esp 20 +
STACK CFI 16789 $ebx: $ebx .cfa: $esp 16 +
STACK CFI 1678a $esi: $esi .cfa: $esp 12 +
STACK CFI 1678b $edi: $edi .cfa: $esp 8 +
STACK CFI 1678c $ebp: $ebp .cfa: $esp 4 +
STACK CFI 16790 $ebp: .cfa -8 + ^ $ebx: .cfa -20 + ^ $edi: .cfa -12 + ^ $esi: .cfa -16 + ^ .cfa: $esp 80 +
STACK CFI 16804 .cfa: $esp 20 +
STACK CFI 1680a $ebx: $ebx .cfa: $esp 16 +
STACK CFI 1680b $esi: $esi .cfa: $esp 12 +
STACK CFI 1680c $edi: $edi .cfa: $esp 8 +
STACK CFI 1680d $ebp: $ebp .cfa: $esp 4 +
STACK CFI 1680e $ebp: .cfa -8 + ^ $ebx: .cfa -20 + ^ $edi: .cfa -12 + ^ $esi: .cfa -16 + ^ .cfa: $esp 80 +
STACK CFI 1696b .cfa: $esp 20 +
STACK CFI 1696e $ebx: $ebx .cfa: $esp 16 +
STACK CFI 1696f $esi: $esi .cfa: $esp 12 +
STACK CFI 16970 $edi: $edi .cfa: $esp 8 +
STACK CFI 16971 $ebp: $ebp .cfa: $esp 4 +
STACK CFI 16972 $ebp: .cfa -8 + ^ $ebx: .cfa -20 + ^ $edi: .cfa -12 + ^ $esi: .cfa -16 + ^ .cfa: $esp 80 +
STACK CFI 16991 .cfa: $esp 20 +
STACK CFI 16994 $ebx: $ebx .cfa: $esp 16 +
STACK CFI 16995 $esi: $esi .cfa: $esp 12 +
STACK CFI 16996 $edi: $edi .cfa: $esp 8 +
STACK CFI 16997 $ebp: $ebp .cfa: $esp 4 +
STACK CFI 16998 $ebp: .cfa -8 + ^ $ebx: .cfa -20 + ^ $edi: .cfa -12 + ^ $esi: .cfa -16 + ^ .cfa: $esp 80 +
STACK CFI INIT 169b0 b12 .cfa: $esp 4 + .ra: .cfa -4 + ^
STACK CFI 169b1 $ebp: .cfa -8 + ^ .cfa: $esp 8 +
STACK CFI 169b3 .cfa: $ebp 8 +
STACK CFI 169b6 $ebx: .cfa -20 + ^ $edi: .cfa -12 + ^ $esi: .cfa -16 + ^
STACK CFI 16c8d $ebx: $ebx
STACK CFI 16c8e $esi: $esi
STACK CFI 16c8f $edi: $edi
STACK CFI 16c90 $ebp: $ebp .cfa: $esp 4 +
STACK CFI 16c91 $ebp: .cfa -8 + ^ $ebx: .cfa -20 + ^ $edi: .cfa -12 + ^ $esi: .cfa -16 + ^ .cfa: $ebp 8 +
STACK CFI 16e8c $ebx: $ebx
STACK CFI 16e8d $esi: $esi
STACK CFI 16e8e $edi: $edi
STACK CFI 16e8f $ebp: $ebp .cfa: $esp 4 +
STACK CFI 16e90 $ebp: .cfa -8 + ^ $ebx: .cfa -20 + ^ $edi: .cfa -12 + ^ $esi: .cfa -16 + ^ .cfa: $ebp 8 +
STACK CFI INIT 174d0 80 .cfa: $esp 4 + .ra: .cfa -4 + ^
STACK CFI 174d1 $ebp: .cfa -8 + ^ .cfa: $esp 8 +
STACK CFI 174d2 $edi: .cfa -12 + ^ .cfa: $esp 12 +
STACK CFI 174d5 $esi: .cfa -16 + ^ .cfa: $esp 16 +
STACK CFI 174d6 $ebx: .cfa -20 + ^ .cfa: $esp 20 +
STACK CFI 174dd .cfa: $esp 32 +
STACK CFI 17515 .cfa: $esp 20 +
STACK CFI 17516 $ebx: $ebx .cfa: $esp 16 +
STACK CFI 17517 $esi: $esi .cfa: $esp 12 +
STACK CFI 17518 $edi: $edi .cfa: $esp 8 +
STACK CFI 17519 $ebp: $ebp .cfa: $esp 4 +
STACK CFI 17520 $ebp: .cfa -8 + ^ $ebx: .cfa -20 + ^ $edi: .cfa -12 + ^ $esi: .cfa -16 + ^ .cfa: $esp 32 +
STACK CFI 1753c .cfa: $esp 20 +
STACK CFI 1753d $ebx: $ebx .cfa: $esp 16 +
STACK CFI 17540 $esi: $esi .cfa: $esp 12 +
STACK CFI 17541 $edi: $edi .cfa: $esp 8 +
STACK CFI 17542 $ebp: $ebp .cfa: $esp 4 +
STACK CFI 17543 $ebp: .cfa -8 + ^ $ebx: .cfa -20 + ^ $edi: .cfa -12 + ^ $esi: .cfa -16 + ^ .cfa: $esp 32 +
STACK CFI 17546 .cfa: $esp 20 +
STACK CFI 1754c $ebx: $ebx .cfa: $esp 16 +
STACK CFI 1754d $esi: $esi .cfa: $esp 12 +
STACK CFI 1754e $edi: $edi .cfa: $esp 8 +
STACK CFI 1754f $ebp: $ebp .cfa: $esp 4 +
STACK CFI INIT 17550 3c .cfa: $esp 4 + .ra: .cfa -4 + ^
STACK CFI 17551 $ebx: .cfa -8 + ^ .cfa: $esp 8 +
STACK CFI 17557 .cfa: $esp 1104 +
STACK CFI 17585 .cfa: $esp 8 +
STACK CFI 1758b $ebx: $ebx .cfa: $esp 4 +
STACK CFI INIT 17590 17b .cfa: $esp 4 + .ra: .cfa -4 + ^
STACK CFI 17591 $ebp: .cfa -8 + ^ .cfa: $esp 8 +
STACK CFI 17592 $edi: .cfa -12 + ^ .cfa: $esp 12 +
STACK CFI 17593 $esi: .cfa -16 + ^ .cfa: $esp 16 +
STACK CFI 17594 $ebx: .cfa -20 + ^ .cfa: $esp 20 +
STACK CFI 1759c .cfa: $esp 1136 +
STACK CFI 17659 .cfa: $esp 20 +
STACK CFI 1765f $ebx: $ebx .cfa: $esp 16 +
STACK CFI 17660 $esi: $esi .cfa: $esp 12 +
STACK CFI 17661 $edi: $edi .cfa: $esp 8 +
STACK CFI 17662 $ebp: $ebp .cfa: $esp 4 +
STACK CFI 17663 $ebp: .cfa -8 + ^ $ebx: .cfa -20 + ^ $edi: .cfa -12 + ^ $esi: .cfa -16 + ^ .cfa: $esp 1136 +
STACK CFI 17698 .cfa: $esp 20 +
STACK CFI 17699 $ebx: $ebx .cfa: $esp 16 +
STACK CFI 1769a $esi: $esi .cfa: $esp 12 +
STACK CFI 1769b $edi: $edi .cfa: $esp 8 +
STACK CFI 1769c $ebp: $ebp .cfa: $esp 4 +
STACK CFI 176a0 $ebp: .cfa -8 + ^ $ebx: .cfa -20 + ^ $edi: .cfa -12 + ^ $esi: .cfa -16 + ^ .cfa: $esp 1136 +
STACK CFI 176be .cfa: $esp 20 +
STACK CFI 176bf $ebx: $ebx .cfa: $esp 16 +
STACK CFI 176c0 $esi: $esi .cfa: $esp 12 +
STACK CFI 176c1 $edi: $edi .cfa: $esp 8 +
STACK CFI 176c2 $ebp: $ebp .cfa: $esp 4 +
STACK CFI 176c3 $ebp: .cfa -8 + ^ $ebx: .cfa -20 + ^ $edi: .cfa -12 + ^ $esi: .cfa -16 + ^ .cfa: $esp 1136 +
STACK CFI 176c9 .cfa: $esp 20 +
STACK CFI 176cf $ebx: $ebx .cfa: $esp 16 +
STACK CFI 176d0 $esi: $esi .cfa: $esp 12 +
STACK CFI 176d1 $edi: $edi .cfa: $esp 8 +
STACK CFI 176d2 $ebp: $ebp .cfa: $esp 4 +
STACK CFI 176d3 $ebp: .cfa -8 + ^ $ebx: .cfa -20 + ^ $edi: .cfa -12 + ^ $esi: .cfa -16 + ^ .cfa: $esp 1136 +
STACK CFI INIT 17710 19 .cfa: $esp 4 + .ra: .cfa -4 + ^
STACK CFI INIT 17730 c1 .cfa: $esp 4 + .ra: .cfa -4 + ^
STACK CFI 17731 $esi: .cfa -8 + ^ .cfa: $esp 8 +
STACK CFI 17732 $ebx: .cfa -12 + ^ .cfa: $esp 12 +
STACK CFI 1773c .cfa: $esp 1120 +
STACK CFI 17790 .cfa: $esp 12 +
STACK CFI 17793 $ebx: $ebx .cfa: $esp 8 +
STACK CFI 17794 $esi: $esi .cfa: $esp 4 +
STACK CFI 17795 $ebx: .cfa -12 + ^ $esi: .cfa -8 + ^ .cfa: $esp 1120 +
STACK CFI 177c3 .cfa: $esp 12 +
STACK CFI 177c9 $ebx: $ebx .cfa: $esp 8 +
STACK CFI 177ca $esi: $esi .cfa: $esp 4 +
STACK CFI 177d0 $ebx: .cfa -12 + ^ $esi: .cfa -8 + ^ .cfa: $esp 1120 +
STACK CFI 177ee .cfa: $esp 12 +
STACK CFI 177ef $ebx: $ebx .cfa: $esp 8 +
STACK CFI 177f0 $esi: $esi .cfa: $esp 4 +
STACK CFI INIT 17800 e .cfa: $esp 4 + .ra: .cfa -4 + ^
STACK CFI INIT 17810 e .cfa: $esp 4 + .ra: .cfa -4 + ^
STACK CFI INIT 17820 40 .cfa: $esp 4 + .ra: .cfa -4 + ^
STACK CFI 17821 $esi: .cfa -8 + ^ .cfa: $esp 8 +
STACK CFI 17822 $ebx: .cfa -12 + ^ .cfa: $esp 12 +
STACK CFI 17828 .cfa: $esp 1104 +
STACK CFI 1785b .cfa: $esp 12 +
STACK CFI 1785e $ebx: $ebx .cfa: $esp 8 +
STACK CFI 1785f $esi: $esi .cfa: $esp 4 +
STACK CFI INIT 17860 1d0 .cfa: $esp 4 + .ra: .cfa -4 + ^
STACK CFI 17861 $esi: .cfa -8 + ^ .cfa: $esp 8 +
STACK CFI 17862 $ebx: .cfa -12 + ^ .cfa: $esp 12 +
STACK CFI 1786a .cfa: $esp 1168 +
STACK CFI 178b8 .cfa: $esp 12 +
STACK CFI 178b9 $ebx: $ebx .cfa: $esp 8 +
STACK CFI 178ba $esi: $esi .cfa: $esp 4 +
STACK CFI 178c0 $ebx: .cfa -12 + ^ $esi: .cfa -8 + ^ .cfa: $esp 1168 +
STACK CFI 178f2 .cfa: $esp 12 +
STACK CFI 178f8 $ebx: $ebx .cfa: $esp 8 +
STACK CFI 178f9 $esi: $esi .cfa: $esp 4 +
STACK CFI 17900 $ebx: .cfa -12 + ^ $esi: .cfa -8 + ^ .cfa: $esp 1168 +
STACK CFI INIT 17a30 19 .cfa: $esp 4 + .ra: .cfa -4 + ^
STACK CFI INIT 17a50 8db .cfa: $esp 4 + .ra: .cfa -4 + ^
STACK CFI 17a51 $ebp: .cfa -8 + ^ .cfa: $esp 8 +
STACK CFI 17a52 $edi: .cfa -12 + ^ .cfa: $esp 12 +
STACK CFI 17a53 $esi: .cfa -16 + ^ .cfa: $esp 16 +
STACK CFI 17a54 $ebx: .cfa -20 + ^ .cfa: $esp 20 +
STACK CFI 17a5a .cfa: $esp 1664 +
STACK CFI 17cd5 .cfa: $esp 20 +
STACK CFI 17cd6 $ebx: $ebx .cfa: $esp 16 +
STACK CFI 17cd7 $esi: $esi .cfa: $esp 12 +
STACK CFI 17cd8 $edi: $edi .cfa: $esp 8 +
STACK CFI 17cd9 $ebp: $ebp .cfa: $esp 4 +
STACK CFI 17ce0 $ebp: .cfa -8 + ^ $ebx: .cfa -20 + ^ $edi: .cfa -12 + ^ $esi: .cfa -16 + ^ .cfa: $esp 1664 +
STACK CFI 17f89 .cfa: $esp 20 +
STACK CFI 17f8a $ebx: $ebx .cfa: $esp 16 +
STACK CFI 17f8b $esi: $esi .cfa: $esp 12 +
STACK CFI 17f8c $edi: $edi .cfa: $esp 8 +
STACK CFI 17f8d $ebp: $ebp .cfa: $esp 4 +
STACK CFI 17f90 $ebp: .cfa -8 + ^ $ebx: .cfa -20 + ^ $edi: .cfa -12 + ^ $esi: .cfa -16 + ^ .cfa: $esp 1664 +
STACK CFI INIT 18330 4e .cfa: $esp 4 + .ra: .cfa -4 + ^
STACK CFI 18331 $ebx: .cfa -8 + ^ .cfa: $esp 8 +
STACK CFI 18336 .cfa: $esp 48 +
STACK CFI 1837c .cfa: $esp 8 +
STACK CFI 1837d $ebx: $ebx .cfa: $esp 4 +
STACK CFI INIT 18380 3a8 .cfa: $esp 4 + .ra: .cfa -4 + ^
STACK CFI 18381 $ebp: .cfa -8 + ^ .cfa: $esp 8 +
STACK CFI 18382 $edi: .cfa -12 + ^ .cfa: $esp 12 +
STACK CFI 18383 $esi: .cfa -16 + ^ .cfa: $esp 16 +
STACK CFI 18384 $ebx: .cfa -20 + ^ .cfa: $esp 20 +
STACK CFI 1838a .cfa: $esp 1152 +
STACK CFI 1851d .cfa: $esp 20 +
STACK CFI 1851e $ebx: $ebx .cfa: $esp 16 +
STACK CFI 1851f $esi: $esi .cfa: $esp 12 +
STACK CFI 18520 $edi: $edi .cfa: $esp 8 +
STACK CFI 18521 $ebp: $ebp .cfa: $esp 4 +
STACK CFI 18522 $ebp: .cfa -8 + ^ $ebx: .cfa -20 + ^ $edi: .cfa -12 + ^ $esi: .cfa -16 + ^ .cfa: $esp 1152 +
STACK CFI 185fa .cfa: $esp 20 +
STACK CFI 185fb $ebx: $ebx .cfa: $esp 16 +
STACK CFI 185fc $esi: $esi .cfa: $esp 12 +
STACK CFI 185fd $edi: $edi .cfa: $esp 8 +
STACK CFI 185fe $ebp: $ebp .cfa: $esp 4 +
STACK CFI 18600 $ebp: .cfa -8 + ^ $ebx: .cfa -20 + ^ $edi: .cfa -12 + ^ $esi: .cfa -16 + ^ .cfa: $esp 1152 +
STACK CFI 1861e .cfa: $esp 20 +
STACK CFI 1861f $ebx: $ebx .cfa: $esp 16 +
STACK CFI 18620 $esi: $esi .cfa: $esp 12 +
STACK CFI 18621 $edi: $edi .cfa: $esp 8 +
STACK CFI 18622 $ebp: $ebp .cfa: $esp 4 +
STACK CFI 18623 $ebp: .cfa -8 + ^ $ebx: .cfa -20 + ^ $edi: .cfa -12 + ^ $esi: .cfa -16 + ^ .cfa: $esp 1152 +
STACK CFI 1865d .cfa: $esp 20 +
STACK CFI 1865e $ebx: $ebx .cfa: $esp 16 +
STACK CFI 1865f $esi: $esi .cfa: $esp 12 +
STACK CFI 18660 $edi: $edi .cfa: $esp 8 +
STACK CFI 18661 $ebp: $ebp .cfa: $esp 4 +
STACK CFI 18662 $ebp: .cfa -8 + ^ $ebx: .cfa -20 + ^ $edi: .cfa -12 + ^ $esi: .cfa -16 + ^ .cfa: $esp 1152 +
STACK CFI INIT 18730 121 .cfa: $esp 4 + .ra: .cfa -4 + ^
STACK CFI 18731 $ebp: .cfa -8 + ^ .cfa: $esp 8 +
STACK CFI 18735 .cfa: $ebp 8 +
STACK CFI 18740 $ebx: .cfa -16 + ^ $esi: .cfa -12 + ^
STACK CFI 1875d $ebx: $ebx
STACK CFI 1875e $esi: $esi
STACK CFI 1875f $ebp: $ebp .cfa: $esp 4 +
STACK CFI 18760 $ebp: .cfa -8 + ^ $ebx: .cfa -16 + ^ $esi: .cfa -12 + ^ .cfa: $ebp 8 +
STACK CFI INIT 18860 fb .cfa: $esp 4 + .ra: .cfa -4 + ^
STACK CFI 18861 $esi: .cfa -8 + ^ .cfa: $esp 8 +
STACK CFI 18862 $ebx: .cfa -12 + ^ .cfa: $esp 12 +
STACK CFI 1886a .cfa: $esp 1120 +
STACK CFI 1888f .cfa: $esp 12 +
STACK CFI 18892 $ebx: $ebx .cfa: $esp 8 +
STACK CFI 18893 $esi: $esi .cfa: $esp 4 +
STACK CFI 18894 $ebx: .cfa -12 + ^ $esi: .cfa -8 + ^ .cfa: $esp 1120 +
STACK CFI INIT 18960 33c .cfa: $esp 4 + .ra: .cfa -4 + ^
STACK CFI 18961 $ebp: .cfa -8 + ^ .cfa: $esp 8 +
STACK CFI 18962 $edi: .cfa -12 + ^ .cfa: $esp 12 +
STACK CFI 18963 $esi: .cfa -16 + ^ .cfa: $esp 16 +
STACK CFI 18964 $ebx: .cfa -20 + ^ .cfa: $esp 20 +
STACK CFI 1896a .cfa: $esp 1152 +
STACK CFI 18ace .cfa: $esp 20 +
STACK CFI 18acf $ebx: $ebx .cfa: $esp 16 +
STACK CFI 18ad0 $esi: $esi .cfa: $esp 12 +
STACK CFI 18ad1 $edi: $edi .cfa: $esp 8 +
STACK CFI 18ad2 $ebp: $ebp .cfa: $esp 4 +
STACK CFI 18ad3 $ebp: .cfa -8 + ^ $ebx: .cfa -20 + ^ $edi: .cfa -12 + ^ $esi: .cfa -16 + ^ .cfa: $esp 1152 +
STACK CFI 18b42 .cfa: $esp 20 +
STACK CFI 18b43 $ebx: $ebx .cfa: $esp 16 +
STACK CFI 18b44 $esi: $esi .cfa: $esp 12 +
STACK CFI 18b45 $edi: $edi .cfa: $esp 8 +
STACK CFI 18b46 $ebp: $ebp .cfa: $esp 4 +
STACK CFI 18b50 $ebp: .cfa -8 + ^ $ebx: .cfa -20 + ^ $edi: .cfa -12 + ^ $esi: .cfa -16 + ^ .cfa: $esp 1152 +
STACK CFI 18bee .cfa: $esp 20 +
STACK CFI 18bef $ebx: $ebx .cfa: $esp 16 +
STACK CFI 18bf0 $esi: $esi .cfa: $esp 12 +
STACK CFI 18bf1 $edi: $edi .cfa: $esp 8 +
STACK CFI 18bf2 $ebp: $ebp .cfa: $esp 4 +
STACK CFI 18bf3 $ebp: .cfa -8 + ^ $ebx: .cfa -20 + ^ $edi: .cfa -12 + ^ $esi: .cfa -16 + ^ .cfa: $esp 1152 +
STACK CFI 18c49 .cfa: $esp 20 +
STACK CFI 18c4a $ebx: $ebx .cfa: $esp 16 +
STACK CFI 18c4b $esi: $esi .cfa: $esp 12 +
STACK CFI 18c4c $edi: $edi .cfa: $esp 8 +
STACK CFI 18c4d $ebp: $ebp .cfa: $esp 4 +
STACK CFI 18c4e $ebp: .cfa -8 + ^ $ebx: .cfa -20 + ^ $edi: .cfa -12 + ^ $esi: .cfa -16 + ^ .cfa: $esp 1152 +
STACK CFI INIT 18ca0 db .cfa: $esp 4 + .ra: .cfa -4 + ^
STACK CFI 18ca1 $esi: .cfa -8 + ^ .cfa: $esp 8 +
STACK CFI 18ca2 $ebx: .cfa -12 + ^ .cfa: $esp 12 +
STACK CFI 18caa .cfa: $esp 1120 +
STACK CFI 18ccd .cfa: $esp 12 +
STACK CFI 18cce $ebx: $ebx .cfa: $esp 8 +
STACK CFI 18ccf $esi: $esi .cfa: $esp 4 +
STACK CFI 18cd0 $ebx: .cfa -12 + ^ $esi: .cfa -8 + ^ .cfa: $esp 1120 +
STACK CFI INIT 18d80 df .cfa: $esp 4 + .ra: .cfa -4 + ^
STACK CFI 18d81 $esi: .cfa -8 + ^ .cfa: $esp 8 +
STACK CFI 18d82 $ebx: .cfa -12 + ^ .cfa: $esp 12 +
STACK CFI 18d8a .cfa: $esp 1120 +
STACK CFI 18daf .cfa: $esp 12 +
STACK CFI 18db2 $ebx: $ebx .cfa: $esp 8 +
STACK CFI 18db3 $esi: $esi .cfa: $esp 4 +
STACK CFI 18db4 $ebx: .cfa -12 + ^ $esi: .cfa -8 + ^ .cfa: $esp 1120 +
STACK CFI INIT 18e60 82 .cfa: $esp 4 + .ra: .cfa -4 + ^
STACK CFI 18e61 $esi: .cfa -8 + ^ .cfa: $esp 8 +
STACK CFI 18e62 $ebx: .cfa -12 + ^ .cfa: $esp 12 +
STACK CFI 18e65 .cfa: $esp 48 +
STACK CFI 18e94 .cfa: $esp 12 +
STACK CFI 18e97 $ebx: $ebx .cfa: $esp 8 +
STACK CFI 18e98 $esi: $esi .cfa: $esp 4 +
STACK CFI 18ea0 $ebx: .cfa -12 + ^ $esi: .cfa -8 + ^ .cfa: $esp 48 +
STACK CFI 18edd .cfa: $esp 12 +
STACK CFI 18ee0 $ebx: $ebx .cfa: $esp 8 +
STACK CFI 18ee1 $esi: $esi .cfa: $esp 4 +
STACK CFI INIT 18ef0 41 .cfa: $esp 4 + .ra: .cfa -4 + ^
STACK CFI 18ef1 $ebx: .cfa -8 + ^ .cfa: $esp 8 +
STACK CFI 18ef6 .cfa: $esp 48 +
STACK CFI 18f2f .cfa: $esp 8 +
STACK CFI 18f30 $ebx: $ebx .cfa: $esp 4 +
STACK CFI INIT 18f40 6e7 .cfa: $esp 4 + .ra: .cfa -4 + ^
STACK CFI 18f41 $ebp: .cfa -8 + ^ .cfa: $esp 8 +
STACK CFI 18f42 $edi: .cfa -12 + ^ .cfa: $esp 12 +
STACK CFI 18f45 $esi: .cfa -16 + ^ .cfa: $esp 16 +
STACK CFI 18f46 $ebx: .cfa -20 + ^ .cfa: $esp 20 +
STACK CFI 18f4e .cfa: $esp 2208 +
STACK CFI 18fba .cfa: $esp 20 +
STACK CFI 18fbd $ebx: $ebx .cfa: $esp 16 +
STACK CFI 18fbe $esi: $esi .cfa: $esp 12 +
STACK CFI 18fbf $edi: $edi .cfa: $esp 8 +
STACK CFI 18fc0 $ebp: $ebp .cfa: $esp 4 +
STACK CFI 18fc1 $ebp: .cfa -8 + ^ $ebx: .cfa -20 + ^ $edi: .cfa -12 + ^ $esi: .cfa -16 + ^ .cfa: $esp 2208 +
STACK CFI INIT 19630 a4 .cfa: $esp 4 + .ra: .cfa -4 + ^
STACK CFI 19631 $ebp: .cfa -8 + ^ .cfa: $esp 8 +
STACK CFI 19632 $edi: .cfa -12 + ^ .cfa: $esp 12 +
STACK CFI 19633 $esi: .cfa -16 + ^ .cfa: $esp 16 +
STACK CFI 19634 $ebx: .cfa -20 + ^ .cfa: $esp 20 +
STACK CFI 1963c .cfa: $esp 1120 +
STACK CFI 196b2 .cfa: $esp 20 +
STACK CFI 196b5 $ebx: $ebx .cfa: $esp 16 +
STACK CFI 196b6 $esi: $esi .cfa: $esp 12 +
STACK CFI 196b7 $edi: $edi .cfa: $esp 8 +
STACK CFI 196b8 $ebp: $ebp .cfa: $esp 4 +
STACK CFI 196c0 $ebp: .cfa -8 + ^ $ebx: .cfa -20 + ^ $edi: .cfa -12 + ^ $esi: .cfa -16 + ^ .cfa: $esp 1120 +
STACK CFI 196cd .cfa: $esp 20 +
STACK CFI 196d0 $ebx: $ebx .cfa: $esp 16 +
STACK CFI 196d1 $esi: $esi .cfa: $esp 12 +
STACK CFI 196d2 $edi: $edi .cfa: $esp 8 +
STACK CFI 196d3 $ebp: $ebp .cfa: $esp 4 +
STACK CFI INIT 196e0 4cf .cfa: $esp 4 + .ra: .cfa -4 + ^
STACK CFI 196e1 $ebp: .cfa -8 + ^ .cfa: $esp 8 +
STACK CFI 196e2 $edi: .cfa -12 + ^ .cfa: $esp 12 +
STACK CFI 196e5 $esi: .cfa -16 + ^ .cfa: $esp 16 +
STACK CFI 196e6 $ebx: .cfa -20 + ^ .cfa: $esp 20 +
STACK CFI 196ec .cfa: $esp 2208 +
STACK CFI 1973e .cfa: $esp 20 +
STACK CFI 1973f $ebx: $ebx .cfa: $esp 16 +
STACK CFI 19740 $esi: $esi .cfa: $esp 12 +
STACK CFI 19741 $edi: $edi .cfa: $esp 8 +
STACK CFI 19742 $ebp: $ebp .cfa: $esp 4 +
STACK CFI 19743 $ebp: .cfa -8 + ^ $ebx: .cfa -20 + ^ $edi: .cfa -12 + ^ $esi: .cfa -16 + ^ .cfa: $esp 2208 +
STACK CFI 198f1 .cfa: $esp 20 +
STACK CFI 198f2 $ebx: $ebx .cfa: $esp 16 +
STACK CFI 198f3 $esi: $esi .cfa: $esp 12 +
STACK CFI 198f4 $edi: $edi .cfa: $esp 8 +
STACK CFI 198f5 $ebp: $ebp .cfa: $esp 4 +
STACK CFI 19900 $ebp: .cfa -8 + ^ $ebx: .cfa -20 + ^ $edi: .cfa -12 + ^ $esi: .cfa -16 + ^ .cfa: $esp 2208 +
STACK CFI 19916 .cfa: $esp 20 +
STACK CFI 19919 $ebx: $ebx .cfa: $esp 16 +
STACK CFI 1991a $esi: $esi .cfa: $esp 12 +
STACK CFI 1991b $edi: $edi .cfa: $esp 8 +
STACK CFI 1991c $ebp: $ebp .cfa: $esp 4 +
STACK CFI 19920 $ebp: .cfa -8 + ^ $ebx: .cfa -20 + ^ $edi: .cfa -12 + ^ $esi: .cfa -16 + ^ .cfa: $esp 2208 +
STACK CFI 1997a .cfa: $esp 20 +
STACK CFI 19980 $ebx: $ebx .cfa: $esp 16 +
STACK CFI 19981 $esi: $esi .cfa: $esp 12 +
STACK CFI 19982 $edi: $edi .cfa: $esp 8 +
STACK CFI 19983 $ebp: $ebp .cfa: $esp 4 +
STACK CFI 19984 $ebp: .cfa -8 + ^ $ebx: .cfa -20 + ^ $edi: .cfa -12 + ^ $esi: .cfa -16 + ^ .cfa: $esp 2208 +
STACK CFI INIT 19bb0 19 .cfa: $esp 4 + .ra: .cfa -4 + ^
STACK CFI INIT 19bd0 12e .cfa: $esp 4 + .ra: .cfa -4 + ^
STACK CFI 19bd1 $edi: .cfa -8 + ^ .cfa: $esp 8 +
STACK CFI 19bd2 $esi: .cfa -12 + ^ .cfa: $esp 12 +
STACK CFI 19bd3 $ebx: .cfa -16 + ^ .cfa: $esp 16 +
STACK CFI 19bdb .cfa: $esp 1264 +
STACK CFI 19cb6 .cfa: $esp 16 +
STACK CFI 19cb9 $ebx: $ebx .cfa: $esp 12 +
STACK CFI 19cba $esi: $esi .cfa: $esp 8 +
STACK CFI 19cbb $edi: $edi .cfa: $esp 4 +
STACK CFI 19cc0 $ebx: .cfa -16 + ^ $edi: .cfa -8 + ^ $esi: .cfa -12 + ^ .cfa: $esp 1264 +
STACK CFI 19cda .cfa: $esp 16 +
STACK CFI 19cdd $ebx: $ebx .cfa: $esp 12 +
STACK CFI 19cde $esi: $esi .cfa: $esp 8 +
STACK CFI 19cdf $edi: $edi .cfa: $esp 4 +
STACK CFI 19ce0 $ebx: .cfa -16 + ^ $edi: .cfa -8 + ^ $esi: .cfa -12 + ^ .cfa: $esp 1264 +
STACK CFI 19cf6 .cfa: $esp 16 +
STACK CFI 19cfb $ebx: $ebx .cfa: $esp 12 +
STACK CFI 19cfc $esi: $esi .cfa: $esp 8 +
STACK CFI 19cfd $edi: $edi .cfa: $esp 4 +
STACK CFI INIT 19d00 8a .cfa: $esp 4 + .ra: .cfa -4 + ^
STACK CFI 19d01 $ebp: .cfa -8 + ^ .cfa: $esp 8 +
STACK CFI 19d02 $edi: .cfa -12 + ^ .cfa: $esp 12 +
STACK CFI 19d03 $esi: .cfa -16 + ^ .cfa: $esp 16 +
STACK CFI 19d04 $ebx: .cfa -20 + ^ .cfa: $esp 20 +
STACK CFI 19d07 .cfa: $esp 64 +
STACK CFI 19d67 .cfa: $esp 20 +
STACK CFI 19d68 $ebx: $ebx .cfa: $esp 16 +
STACK CFI 19d69 $esi: $esi .cfa: $esp 12 +
STACK CFI 19d6a $edi: $edi .cfa: $esp 8 +
STACK CFI 19d6b $ebp: $ebp .cfa: $esp 4 +
STACK CFI 19d70 $ebp: .cfa -8 + ^ $ebx: .cfa -20 + ^ $edi: .cfa -12 + ^ $esi: .cfa -16 + ^ .cfa: $esp 64 +
STACK CFI 19d80 .cfa: $esp 20 +
STACK CFI 19d86 $ebx: $ebx .cfa: $esp 16 +
STACK CFI 19d87 $esi: $esi .cfa: $esp 12 +
STACK CFI 19d88 $edi: $edi .cfa: $esp 8 +
STACK CFI 19d89 $ebp: $ebp .cfa: $esp 4 +
STACK CFI INIT 1a3960 1d .cfa: $esp 4 + .ra: .cfa -4 + ^
STACK CFI 1a3963 .cfa: $esp 32 +
STACK CFI 1a397c .cfa: $esp 4 +
STACK CFI INIT 111af0 98 .cfa: $esp 4 + .ra: .cfa -4 + ^
STACK CFI 111af1 $ebx: .cfa -8 + ^ .cfa: $esp 8 +
STACK CFI 111af4 .cfa: $esp 32 +
STACK CFI 111b39 .cfa: $esp 24 +
STACK CFI 111b3c .cfa: $esp 32 +
STACK CFI 111b3f .cfa: $esp 8 +
STACK CFI 111b40 $ebx: $ebx .cfa: $esp 4 +
STACK CFI 111b41 $ebx: .cfa -8 + ^ .cfa: $esp 32 +
STACK CFI 111b58 .cfa: $esp 8 +
STACK CFI 111b59 $ebx: $ebx .cfa: $esp 4 +
STACK CFI 111b60 $ebx: .cfa -8 + ^ .cfa: $esp 32 +
STACK CFI 111b68 .cfa: $esp 28 +
STACK CFI 111b6b .cfa: $esp 32 +
STACK CFI 111b6e .cfa: $esp 8 +
STACK CFI 111b6f $ebx: $ebx .cfa: $esp 4 +
STACK CFI 111b70 $ebx: .cfa -8 + ^ .cfa: $esp 32 +
STACK CFI 111b83 .cfa: $esp 28 +
STACK CFI 111b86 .cfa: $esp 32 +
STACK CFI INIT 11a780 ca .cfa: $esp 4 + .ra: .cfa -4 + ^
STACK CFI 11a781 $ebp: .cfa -8 + ^ .cfa: $esp 8 +
STACK CFI 11a784 .cfa: $esp 128 +
STACK CFI 11a7dc .cfa: $esp 120 +
STACK CFI 11a7df .cfa: $esp 128 +
STACK CFI 11a816 .cfa: $esp 8 +
STACK CFI 11a819 $ebp: $ebp .cfa: $esp 4 +
STACK CFI 11a81a $ebp: .cfa -8 + ^ .cfa: $esp 128 +
STACK CFI INIT 14f870 11f2 .cfa: $esp 4 + .ra: .cfa -4 + ^
STACK CFI 14f871 $ebp: .cfa -8 + ^ .cfa: $esp 8 +
STACK CFI 14f873 .cfa: $ebp 8 +
STACK CFI 14f87e $ebx: .cfa -16 + ^ $esi: .cfa -12 + ^
STACK CFI 14f8ee $ebx: $ebx
STACK CFI 14f8ef $esi: $esi
STACK CFI 14f8f0 $ebp: $ebp .cfa: $esp 4 +
STACK CFI 14f8f3 $ebp: .cfa -8 + ^ $ebx: .cfa -16 + ^ $esi: .cfa -12 + ^ .cfa: $ebp 8 +
STACK CFI INIT 11baa0 7 .cfa: $esp 4 + .ra: .cfa -4 + ^
STACK CFI INIT 12e790 2 .cfa: $esp 4 + .ra: .cfa -4 + ^
STACK CFI INIT 12e780 f .cfa: $esp 4 + .ra: .cfa -4 + ^
STACK CFI 12e783 .cfa: $esp 32 +
STACK CFI 12e78e .cfa: $esp 4 +
STACK CFI INIT 19d90 2a .cfa: $esp 4 + .ra: .cfa -4 + ^
STACK CFI 19d91 $ebx: .cfa -8 + ^ .cfa: $esp 8 +
STACK CFI 19d99 .cfa: $esp 32 +
STACK CFI 19db8 .cfa: $esp 8 +
STACK CFI 19db9 $ebx: $ebx .cfa: $esp 4 +
STACK CFI INIT 19dc0 a .cfa: $esp 4 + .ra: .cfa -4 + ^
STACK CFI INIT 19dd0 a .cfa: $esp 4 + .ra: .cfa -4 + ^
STACK CFI INIT 19de0 a .cfa: $esp 4 + .ra: .cfa -4 + ^
STACK CFI INIT 19df0 4b .cfa: $esp 4 + .ra: .cfa -4 + ^
STACK CFI 19df1 $ebx: .cfa -8 + ^ .cfa: $esp 8 +
STACK CFI 19df4 .cfa: $esp 32 +
STACK CFI 19e1c .cfa: $esp 8 +
STACK CFI 19e1d $ebx: $ebx .cfa: $esp 4 +
STACK CFI 19e20 $ebx: .cfa -8 + ^ .cfa: $esp 32 +
STACK CFI 19e38 .cfa: $esp 8 +
STACK CFI 19e39 $ebx: $ebx .cfa: $esp 4 +
STACK CFI INIT 19e40 a2 .cfa: $esp 4 + .ra: .cfa -4 + ^
STACK CFI 19e41 $edi: .cfa -8 + ^ .cfa: $esp 8 +
STACK CFI 19e42 $esi: .cfa -12 + ^ .cfa: $esp 12 +
STACK CFI 19e45 $ebx: .cfa -16 + ^ .cfa: $esp 16 +
STACK CFI 19e48 .cfa: $esp 48 +
STACK CFI 19e81 .cfa: $esp 16 +
STACK CFI 19e82 $ebx: $ebx .cfa: $esp 12 +
STACK CFI 19e83 $esi: $esi .cfa: $esp 8 +
STACK CFI 19e84 $edi: $edi .cfa: $esp 4 +
STACK CFI 19e90 $ebx: .cfa -16 + ^ $edi: .cfa -8 + ^ $esi: .cfa -12 + ^ .cfa: $esp 48 +
STACK CFI 19ea6 .cfa: $esp 40 +
STACK CFI 19ea9 .cfa: $esp 48 +
STACK CFI INIT 1a3980 3c .cfa: $esp 4 + .ra: .cfa -4 + ^
STACK CFI 1a3981 $ebx: .cfa -8 + ^ .cfa: $esp 8 +
STACK CFI 1a3987 .cfa: $esp 48 +
STACK CFI 1a39b2 .cfa: $esp 40 +
STACK CFI 1a39b5 .cfa: $esp 48 +
STACK CFI 1a39b8 .cfa: $esp 8 +
STACK CFI 1a39b9 $ebx: $ebx .cfa: $esp 4 +
STACK CFI INIT 19ef0 1e2 .cfa: $esp 4 + .ra: .cfa -4 + ^
STACK CFI 19ef1 $ebp: .cfa -8 + ^ .cfa: $esp 8 +
STACK CFI 19ef3 .cfa: $ebp 8 +
STACK CFI 19eff $ebx: .cfa -20 + ^ $edi: .cfa -12 + ^ $esi: .cfa -16 + ^
STACK CFI 1a04f $ebx: $ebx
STACK CFI 1a050 $esi: $esi
STACK CFI 1a051 $edi: $edi
STACK CFI 1a052 $ebp: $ebp .cfa: $esp 4 +
STACK CFI 1a053 $ebp: .cfa -8 + ^ $ebx: .cfa -20 + ^ $edi: .cfa -12 + ^ $esi: .cfa -16 + ^ .cfa: $ebp 8 +
STACK CFI INIT 1a0e0 27c .cfa: $esp 4 + .ra: .cfa -4 + ^
STACK CFI 1a0e1 $ebp: .cfa -8 + ^ .cfa: $esp 8 +
STACK CFI 1a0e3 .cfa: $ebp 8 +
STACK CFI 1a0ef $ebx: .cfa -20 + ^ $edi: .cfa -12 + ^ $esi: .cfa -16 + ^
STACK CFI 1a2b1 $ebx: $ebx
STACK CFI 1a2b2 $esi: $esi
STACK CFI 1a2b3 $edi: $edi
STACK CFI 1a2b4 $ebp: $ebp .cfa: $esp 4 +
STACK CFI 1a2b5 $ebp: .cfa -8 + ^ $ebx: .cfa -20 + ^ $edi: .cfa -12 + ^ $esi: .cfa -16 + ^ .cfa: $ebp 8 +
STACK CFI INIT 1a360 29c .cfa: $esp 4 + .ra: .cfa -4 + ^
STACK CFI 1a361 $ebp: .cfa -8 + ^ .cfa: $esp 8 +
STACK CFI 1a363 .cfa: $ebp 8 +
STACK CFI 1a36f $ebx: .cfa -20 + ^ $edi: .cfa -12 + ^ $esi: .cfa -16 + ^
STACK CFI 1a3d3 $ebx: $ebx
STACK CFI 1a3d4 $esi: $esi
STACK CFI 1a3d5 $edi: $edi
STACK CFI 1a3d6 $ebp: $ebp .cfa: $esp 4 +
STACK CFI 1a3e0 $ebp: .cfa -8 + ^ $ebx: .cfa -20 + ^ $edi: .cfa -12 + ^ $esi: .cfa -16 + ^ .cfa: $ebp 8 +
STACK CFI INIT 1a600 1b .cfa: $esp 4 + .ra: .cfa -4 + ^
STACK CFI 1a603 .cfa: $esp 32 +
STACK CFI 1a61a .cfa: $esp 4 +
STACK CFI INIT 1a620 23 .cfa: $esp 4 + .ra: .cfa -4 + ^
STACK CFI 1a623 .cfa: $esp 32 +
STACK CFI 1a642 .cfa: $esp 4 +
STACK CFI INIT 1a650 2b .cfa: $esp 4 + .ra: .cfa -4 + ^
STACK CFI 1a653 .cfa: $esp 32 +
STACK CFI 1a67a .cfa: $esp 4 +
STACK CFI INIT 1a680 1b .cfa: $esp 4 + .ra: .cfa -4 + ^
STACK CFI 1a683 .cfa: $esp 32 +
STACK CFI 1a69a .cfa: $esp 4 +
STACK CFI INIT 1a6a0 23 .cfa: $esp 4 + .ra: .cfa -4 + ^
STACK CFI 1a6a3 .cfa: $esp 32 +
STACK CFI 1a6c2 .cfa: $esp 4 +
STACK CFI INIT 1a6d0 2b .cfa: $esp 4 + .ra: .cfa -4 + ^
STACK CFI 1a6d3 .cfa: $esp 32 +
STACK CFI 1a6fa .cfa: $esp 4 +
STACK CFI INIT 1a700 35 .cfa: $esp 4 + .ra: .cfa -4 + ^
STACK CFI 1a703 .cfa: $esp 48 +
STACK CFI 1a72e .cfa: $esp 36 +
STACK CFI 1a731 .cfa: $esp 48 +
STACK CFI 1a734 .cfa: $esp 4 +
STACK CFI INIT 1a740 45 .cfa: $esp 4 + .ra: .cfa -4 + ^
STACK CFI 1a753 .cfa: $esp 48 +
STACK CFI 1a77e .cfa: $esp 36 +
STACK CFI 1a781 .cfa: $esp 48 +
STACK CFI 1a784 .cfa: $esp 4 +
STACK CFI INIT 1a790 3b .cfa: $esp 4 + .ra: .cfa -4 + ^
STACK CFI 1a7a1 $ebx: .cfa -8 + ^ .cfa: $esp 8 +
STACK CFI 1a7a4 .cfa: $esp 32 +
STACK CFI 1a7c3 .cfa: $esp 24 +
STACK CFI 1a7c6 .cfa: $esp 32 +
STACK CFI 1a7c9 .cfa: $esp 8 +
STACK CFI 1a7ca $ebx: $ebx .cfa: $esp 4 +
STACK CFI INIT 1a7d0 3fc .cfa: $esp 4 + .ra: .cfa -4 + ^
STACK CFI 1a7d1 $ebp: .cfa -8 + ^ .cfa: $esp 8 +
STACK CFI 1a7d3 .cfa: $ebp 8 +
STACK CFI 1ab16 $ebp: $ebp .cfa: $esp 4 +
STACK CFI 1ab20 $ebp: .cfa -8 + ^ .cfa: $ebp 8 +
STACK CFI INIT 1abd0 17 .cfa: $esp 4 + .ra: .cfa -4 + ^
STACK CFI 1abd3 .cfa: $esp 32 +
STACK CFI 1abe6 .cfa: $esp 4 +
STACK CFI INIT 1abf0 ae .cfa: $esp 4 + .ra: .cfa -4 + ^
STACK CFI 1abf1 $ebx: .cfa -8 + ^ .cfa: $esp 8 +
STACK CFI 1abf4 .cfa: $esp 48 +
STACK CFI 1ac0c .cfa: $esp 8 +
STACK CFI 1ac0d $ebx: $ebx .cfa: $esp 4 +
STACK CFI 1ac10 $ebx: .cfa -8 + ^ .cfa: $esp 48 +
STACK CFI 1ac62 .cfa: $esp 8 +
STACK CFI 1ac63 $ebx: $ebx .cfa: $esp 4 +
STACK CFI 1ac64 $ebx: .cfa -8 + ^ .cfa: $esp 48 +
STACK CFI INIT 1aca0 641 .cfa: $esp 4 + .ra: .cfa -4 + ^
STACK CFI 1aca1 $ebp: .cfa -8 + ^ .cfa: $esp 8 +
STACK CFI 1aca3 .cfa: $ebp 8 +
STACK CFI 1aca7 $edi: .cfa -12 + ^
STACK CFI 1b252 $ebp: $ebp $edi: $edi .cfa: $esp 4 +
STACK CFI 1b253 $ebp: .cfa -8 + ^ $edi: .cfa -12 + ^ .cfa: $ebp 8 +
STACK CFI INIT 1a39c0 215 .cfa: $esp 4 + .ra: .cfa -4 + ^
STACK CFI 1a39c1 $ebp: .cfa -8 + ^ .cfa: $esp 8 +
STACK CFI 1a39c3 .cfa: $ebp 8 +
STACK CFI 1a3b94 $ebp: $ebp .cfa: $esp 4 +
STACK CFI 1a3b95 $ebp: .cfa -8 + ^ .cfa: $ebp 8 +
STACK CFI INIT 12dee0 42 .cfa: $esp 4 + .ra: .cfa -4 + ^
STACK CFI 12dee1 $ebx: .cfa -8 + ^ .cfa: $esp 8 +
STACK CFI 12dee6 .cfa: $esp 16 +
STACK CFI 12df1c .cfa: $esp 8 +
STACK CFI 12df1d $ebx: $ebx .cfa: $esp 4 +
STACK CFI INIT 12dfa0 5c .cfa: $esp 4 + .ra: .cfa -4 + ^
STACK CFI 12dfa1 $esi: .cfa -8 + ^ .cfa: $esp 8 +
STACK CFI 12dfa2 $ebx: .cfa -12 + ^ .cfa: $esp 12 +
STACK CFI 12dfa7 .cfa: $esp 96 +
STACK CFI 12dff9 .cfa: $esp 12 +
STACK CFI 12dffa $ebx: $ebx .cfa: $esp 8 +
STACK CFI 12dffb $esi: $esi .cfa: $esp 4 +
STACK CFI INIT 12e590 1e2 .cfa: $esp 4 + .ra: .cfa -4 + ^
STACK CFI 12e591 $ebp: .cfa -8 + ^ .cfa: $esp 8 +
STACK CFI 12e593 .cfa: $ebp 8 +
STACK CFI 12e70d $ebp: $ebp .cfa: $esp 4 +
STACK CFI 12e710 $ebp: .cfa -8 + ^ .cfa: $ebp 8 +
STACK CFI INIT 12df30 64 .cfa: $esp 4 + .ra: .cfa -4 + ^
STACK CFI 12df31 $esi: .cfa -8 + ^ .cfa: $esp 8 +
STACK CFI 12df32 $ebx: .cfa -12 + ^ .cfa: $esp 12 +
STACK CFI 12df37 .cfa: $esp 96 +
STACK CFI 12df91 .cfa: $esp 12 +
STACK CFI 12df92 $ebx: $ebx .cfa: $esp 8 +
STACK CFI 12df93 $esi: $esi .cfa: $esp 4 +
STACK CFI INIT 1a2b80 50 .cfa: $esp 4 + .ra: .cfa -4 + ^
STACK CFI 1a2b81 $ebx: .cfa -8 + ^ .cfa: $esp 8 +
STACK CFI 1a2b84 .cfa: $esp 32 +
STACK CFI 1a2bce .cfa: $esp 8 +
STACK CFI 1a2bcf $ebx: $ebx .cfa: $esp 4 +
STACK CFI INIT 12de90 4b .cfa: $esp 4 + .ra: .cfa -4 + ^
STACK CFI 12de91 $ebx: .cfa -8 + ^ .cfa: $esp 8 +
STACK CFI 12de96 .cfa: $esp 32 +
STACK CFI 12ded9 .cfa: $esp 8 +
STACK CFI 12deda $ebx: $ebx .cfa: $esp 4 +
STACK CFI INIT 1a2bd0 47 .cfa: $esp 4 + .ra: .cfa -4 + ^
STACK CFI 1a2bd1 $ebx: .cfa -8 + ^ .cfa: $esp 8 +
STACK CFI 1a2bd4 .cfa: $esp 16 +
STACK CFI 1a2c11 .cfa: $esp 8 +
STACK CFI 1a2c12 $ebx: $ebx .cfa: $esp 4 +
STACK CFI INIT 119480 649 .cfa: $esp 4 + .ra: .cfa -4 + ^
STACK CFI 119481 $ebp: .cfa -8 + ^ .cfa: $esp 8 +
STACK CFI 119483 .cfa: $ebp 8 +
STACK CFI 11948e $ebx: .cfa -16 + ^ $esi: .cfa -12 + ^
STACK CFI 11975f $ebx: $ebx
STACK CFI 119760 $esi: $esi
STACK CFI 119761 $ebp: $ebp .cfa: $esp 4 +
STACK CFI 119762 $ebp: .cfa -8 + ^ $ebx: .cfa -16 + ^ $esi: .cfa -12 + ^ .cfa: $ebp 8 +
STACK CFI INIT 13c6b0 11d2 .cfa: $esp 4 + .ra: .cfa -4 + ^
STACK CFI 13c6b1 $ebp: .cfa -8 + ^ .cfa: $esp 8 +
STACK CFI 13c6b3 .cfa: $ebp 8 +
STACK CFI 13c6be $ebx: .cfa -16 + ^ $esi: .cfa -12 + ^
STACK CFI 13c72e $ebx: $ebx
STACK CFI 13c72f $esi: $esi
STACK CFI 13c730 $ebp: $ebp .cfa: $esp 4 +
STACK CFI 13c733 $ebp: .cfa -8 + ^ $ebx: .cfa -16 + ^ $esi: .cfa -12 + ^ .cfa: $ebp 8 +
STACK CFI INIT 172c10 11d2 .cfa: $esp 4 + .ra: .cfa -4 + ^
STACK CFI 172c11 $ebp: .cfa -8 + ^ .cfa: $esp 8 +
STACK CFI 172c13 .cfa: $ebp 8 +
STACK CFI 172c1e $ebx: .cfa -16 + ^ $esi: .cfa -12 + ^
STACK CFI 172c8e $ebx: $ebx
STACK CFI 172c8f $esi: $esi
STACK CFI 172c90 $ebp: $ebp .cfa: $esp 4 +
STACK CFI 172c93 $ebp: .cfa -8 + ^ $ebx: .cfa -16 + ^ $esi: .cfa -12 + ^ .cfa: $ebp 8 +
STACK CFI INIT 19f290 3a .cfa: $esp 4 + .ra: .cfa -4 + ^
STACK CFI 19f291 $edi: .cfa -8 + ^ .cfa: $esp 8 +
STACK CFI 19f292 $esi: .cfa -12 + ^ .cfa: $esp 12 +
STACK CFI 19f293 $ebx: .cfa -16 + ^ .cfa: $esp 16 +
STACK CFI 19f296 .cfa: $esp 32 +
STACK CFI 19f2ad .cfa: $esp 28 +
STACK CFI 19f2b3 .cfa: $esp 32 +
STACK CFI 19f2c4 .cfa: $esp 16 +
STACK CFI 19f2c5 $ebx: $ebx .cfa: $esp 12 +
STACK CFI 19f2c6 $esi: $esi .cfa: $esp 8 +
STACK CFI 19f2c7 $edi: $edi .cfa: $esp 4 +
STACK CFI INIT 19ba20 279 .cfa: $esp 4 + .ra: .cfa -4 + ^
STACK CFI 19ba21 $ebp: .cfa -8 + ^ .cfa: $esp 8 +
STACK CFI 19ba22 $edi: .cfa -12 + ^ .cfa: $esp 12 +
STACK CFI 19ba23 $esi: .cfa -16 + ^ .cfa: $esp 16 +
STACK CFI 19ba24 $ebx: .cfa -20 + ^ .cfa: $esp 20 +
STACK CFI 19ba29 .cfa: $esp 80 +
STACK CFI 19bbe6 .cfa: $esp 20 +
STACK CFI 19bbe7 $ebx: $ebx .cfa: $esp 16 +
STACK CFI 19bbe8 $esi: $esi .cfa: $esp 12 +
STACK CFI 19bbe9 $edi: $edi .cfa: $esp 8 +
STACK CFI 19bbea $ebp: $ebp .cfa: $esp 4 +
STACK CFI 19bbf0 $ebp: .cfa -8 + ^ $ebx: .cfa -20 + ^ $edi: .cfa -12 + ^ $esi: .cfa -16 + ^ .cfa: $esp 80 +
STACK CFI INIT 12e360 22a .cfa: $esp 4 + .ra: .cfa -4 + ^
STACK CFI 12e361 $ebp: .cfa -8 + ^ .cfa: $esp 8 +
STACK CFI 12e363 .cfa: $ebp 8 +
STACK CFI 12e4f1 $ebp: $ebp .cfa: $esp 4 +
STACK CFI 12e4f4 $ebp: .cfa -8 + ^ .cfa: $ebp 8 +
STACK CFI INIT 1b2f0 a .cfa: $esp 4 + .ra: .cfa -4 + ^
STACK CFI INIT 1b300 23 .cfa: $esp 4 + .ra: .cfa -4 + ^
STACK CFI INIT 1b330 23 .cfa: $esp 4 + .ra: .cfa -4 + ^
STACK CFI INIT 1b360 23 .cfa: $esp 4 + .ra: .cfa -4 + ^
STACK CFI INIT 1b390 23 .cfa: $esp 4 + .ra: .cfa -4 + ^
STACK CFI INIT 1b3c0 23 .cfa: $esp 4 + .ra: .cfa -4 + ^
STACK CFI INIT 1b3f0 23 .cfa: $esp 4 + .ra: .cfa -4 + ^
STACK CFI INIT 1b420 8d .cfa: $esp 4 + .ra: .cfa -4 + ^
STACK CFI INIT 1b4b0 2c .cfa: $esp 4 + .ra: .cfa -4 + ^
STACK CFI 1b4b1 $ebx: .cfa -8 + ^ .cfa: $esp 8 +
STACK CFI 1b4d9 $ebx: $ebx .cfa: $esp 4 +
STACK CFI INIT 1b4e0 55 .cfa: $esp 4 + .ra: .cfa -4 + ^
STACK CFI INIT 1b540 2e .cfa: $esp 4 + .ra: .cfa -4 + ^
STACK CFI INIT 1b570 5b .cfa: $esp 4 + .ra: .cfa -4 + ^
STACK CFI 1b571 $ebp: .cfa -8 + ^ .cfa: $esp 8 +
STACK CFI 1b573 .cfa: $ebp 8 +
STACK CFI 1b577 $ebp: $ebp .cfa: $esp 4 +
STACK CFI INIT 1a3be0 1d .cfa: $esp 4 + .ra: .cfa -4 + ^
STACK CFI 1a3be3 .cfa: $esp 32 +
STACK CFI 1a3bfc .cfa: $esp 4 +
STACK CFI INIT 12e7e0 19 .cfa: $esp 4 + .ra: .cfa -4 + ^
STACK CFI INIT 12dc60 ab .cfa: $esp 4 + .ra: .cfa -4 + ^
STACK CFI 12dc61 $edi: .cfa -8 + ^ .cfa: $esp 8 +
STACK CFI 12dc62 $esi: .cfa -12 + ^ .cfa: $esp 12 +
STACK CFI 12dc63 $ebx: .cfa -16 + ^ .cfa: $esp 16 +
STACK CFI 12dcf6 $ebx: $ebx .cfa: $esp 12 +
STACK CFI 12dcf7 $esi: $esi .cfa: $esp 8 +
STACK CFI 12dcf8 $edi: $edi .cfa: $esp 4 +
STACK CFI 12dd00 $ebx: .cfa -16 + ^ $edi: .cfa -8 + ^ $esi: .cfa -12 + ^ .cfa: $esp 16 +
STACK CFI INIT 12e070 2 .cfa: $esp 4 + .ra: .cfa -4 + ^
STACK CFI INIT 12e040 15 .cfa: $esp 4 + .ra: .cfa -4 + ^
STACK CFI INIT 12e010 29 .cfa: $esp 4 + .ra: .cfa -4 + ^
STACK CFI 12e018 $ebx: .cfa -8 + ^ .cfa: $esp 8 +
STACK CFI 12e02c $ebx: $ebx .cfa: $esp 4 +
STACK CFI 12e030 $ebx: .cfa -8 + ^ .cfa: $esp 8 +
STACK CFI 12e034 $ebx: $ebx .cfa: $esp 4 +
STACK CFI INIT 12e000 3 .cfa: $esp 4 + .ra: .cfa -4 + ^
STACK CFI INIT 12dd20 2 .cfa: $esp 4 + .ra: .cfa -4 + ^
STACK CFI INIT 12e840 2 .cfa: $esp 4 + .ra: .cfa -4 + ^
STACK CFI INIT 1b5d0 2 .cfa: $esp 4 + .ra: .cfa -4 + ^
STACK CFI INIT 1b5e0 a .cfa: $esp 4 + .ra: .cfa -4 + ^
STACK CFI INIT 1b5f0 a2 .cfa: $esp 4 + .ra: .cfa -4 + ^
STACK CFI 1b5f1 $edi: .cfa -8 + ^ .cfa: $esp 8 +
STACK CFI 1b5f2 $esi: .cfa -12 + ^ .cfa: $esp 12 +
STACK CFI 1b5f5 $ebx: .cfa -16 + ^ .cfa: $esp 16 +
STACK CFI 1b5f8 .cfa: $esp 48 +
STACK CFI 1b631 .cfa: $esp 16 +
STACK CFI 1b632 $ebx: $ebx .cfa: $esp 12 +
STACK CFI 1b633 $esi: $esi .cfa: $esp 8 +
STACK CFI 1b634 $edi: $edi .cfa: $esp 4 +
STACK CFI 1b640 $ebx: .cfa -16 + ^ $edi: .cfa -8 + ^ $esi: .cfa -12 + ^ .cfa: $esp 48 +
STACK CFI 1b656 .cfa: $esp 40 +
STACK CFI 1b659 .cfa: $esp 48 +
STACK CFI INIT 1b6a0 2 .cfa: $esp 4 + .ra: .cfa -4 + ^
STACK CFI INIT 1b6b0 2 .cfa: $esp 4 + .ra: .cfa -4 + ^
STACK CFI INIT 1b6c0 228 .cfa: $esp 4 + .ra: .cfa -4 + ^
STACK CFI 1b6c1 $ebp: .cfa -8 + ^ .cfa: $esp 8 +
STACK CFI 1b6c2 $edi: .cfa -12 + ^ .cfa: $esp 12 +
STACK CFI 1b6c3 $esi: .cfa -16 + ^ .cfa: $esp 16 +
STACK CFI 1b6c4 $ebx: .cfa -20 + ^ .cfa: $esp 20 +
STACK CFI 1b6ca .cfa: $esp 224 +
STACK CFI 1b72c .cfa: $esp 20 +
STACK CFI 1b72d $ebx: $ebx .cfa: $esp 16 +
STACK CFI 1b72e $esi: $esi .cfa: $esp 12 +
STACK CFI 1b72f $edi: $edi .cfa: $esp 8 +
STACK CFI 1b730 $ebp: $ebp .cfa: $esp 4 +
STACK CFI 1b731 $ebp: .cfa -8 + ^ $ebx: .cfa -20 + ^ $edi: .cfa -12 + ^ $esi: .cfa -16 + ^ .cfa: $esp 224 +
STACK CFI 1b8e3 .cfa: $esp 20 +
STACK CFI 1b8e4 $ebx: $ebx .cfa: $esp 16 +
STACK CFI 1b8e5 $esi: $esi .cfa: $esp 12 +
STACK CFI 1b8e6 $edi: $edi .cfa: $esp 8 +
STACK CFI 1b8e7 $ebp: $ebp .cfa: $esp 4 +
STACK CFI INIT 1b8f0 1a3 .cfa: $esp 4 + .ra: .cfa -4 + ^
STACK CFI 1b8f1 $edi: .cfa -8 + ^ .cfa: $esp 8 +
STACK CFI 1b8f2 $esi: .cfa -12 + ^ .cfa: $esp 12 +
STACK CFI 1b8f3 $ebx: .cfa -16 + ^ .cfa: $esp 16 +
STACK CFI 1b8f9 .cfa: $esp 192 +
STACK CFI 1b96e .cfa: $esp 16 +
STACK CFI 1b96f $ebx: $ebx .cfa: $esp 12 +
STACK CFI 1b970 $esi: $esi .cfa: $esp 8 +
STACK CFI 1b971 $edi: $edi .cfa: $esp 4 +
STACK CFI 1b972 $ebx: .cfa -16 + ^ $edi: .cfa -8 + ^ $esi: .cfa -12 + ^ .cfa: $esp 192 +
STACK CFI 1ba8f .cfa: $esp 16 +
STACK CFI 1ba90 $ebx: $ebx .cfa: $esp 12 +
STACK CFI 1ba91 $esi: $esi .cfa: $esp 8 +
STACK CFI 1ba92 $edi: $edi .cfa: $esp 4 +
STACK CFI INIT 1baa0 ce .cfa: $esp 4 + .ra: .cfa -4 + ^
STACK CFI 1baae $ebp: .cfa -8 + ^ .cfa: $esp 8 +
STACK CFI 1baaf $edi: .cfa -12 + ^ .cfa: $esp 12 +
STACK CFI 1bab2 $esi: .cfa -16 + ^ .cfa: $esp 16 +
STACK CFI 1bab3 $ebx: .cfa -20 + ^ .cfa: $esp 20 +
STACK CFI 1babd .cfa: $esp 48 +
STACK CFI 1bb5e .cfa: $esp 20 +
STACK CFI 1bb5f $ebx: $ebx .cfa: $esp 16 +
STACK CFI 1bb60 $esi: $esi .cfa: $esp 12 +
STACK CFI 1bb61 $edi: $edi .cfa: $esp 8 +
STACK CFI 1bb62 $ebp: $ebp .cfa: $esp 4 +
STACK CFI INIT 1bb70 4db .cfa: $esp 4 + .ra: .cfa -4 + ^
STACK CFI 1bb71 $ebp: .cfa -8 + ^ .cfa: $esp 8 +
STACK CFI 1bb72 $edi: .cfa -12 + ^ .cfa: $esp 12 +
STACK CFI 1bb73 $esi: .cfa -16 + ^ .cfa: $esp 16 +
STACK CFI 1bb74 $ebx: .cfa -20 + ^ .cfa: $esp 20 +
STACK CFI 1bb7a .cfa: $esp 1328 +
STACK CFI 1bc18 .cfa: $esp 1316 +
STACK CFI 1bc1b .cfa: $esp 1328 +
STACK CFI 1bcad .cfa: $esp 1312 +
STACK CFI 1bcb0 .cfa: $esp 1328 +
STACK CFI 1bcc2 .cfa: $esp 20 +
STACK CFI 1bcc5 $ebx: $ebx .cfa: $esp 16 +
STACK CFI 1bcc6 $esi: $esi .cfa: $esp 12 +
STACK CFI 1bcc7 $edi: $edi .cfa: $esp 8 +
STACK CFI 1bcc8 $ebp: $ebp .cfa: $esp 4 +
STACK CFI 1bcd0 $ebp: .cfa -8 + ^ $ebx: .cfa -20 + ^ $edi: .cfa -12 + ^ $esi: .cfa -16 + ^ .cfa: $esp 1328 +
STACK CFI 1bce9 .cfa: $esp 1320 +
STACK CFI 1bcee .cfa: $esp 1328 +
STACK CFI 1bcf4 .cfa: $esp 20 +
STACK CFI 1bcf5 $ebx: $ebx .cfa: $esp 16 +
STACK CFI 1bcf6 $esi: $esi .cfa: $esp 12 +
STACK CFI 1bcf7 $edi: $edi .cfa: $esp 8 +
STACK CFI 1bcf8 $ebp: $ebp .cfa: $esp 4 +
STACK CFI 1bd00 $ebp: .cfa -8 + ^ $ebx: .cfa -20 + ^ $edi: .cfa -12 + ^ $esi: .cfa -16 + ^ .cfa: $esp 1328 +
STACK CFI 1bd19 .cfa: $esp 1320 +
STACK CFI 1bd1c .cfa: $esp 1328 +
STACK CFI 1bd24 .cfa: $esp 20 +
STACK CFI 1bd25 $ebx: $ebx .cfa: $esp 16 +
STACK CFI 1bd26 $esi: $esi .cfa: $esp 12 +
STACK CFI 1bd27 $edi: $edi .cfa: $esp 8 +
STACK CFI 1bd28 $ebp: $ebp .cfa: $esp 4 +
STACK CFI 1bd30 $ebp: .cfa -8 + ^ $ebx: .cfa -20 + ^ $edi: .cfa -12 + ^ $esi: .cfa -16 + ^ .cfa: $esp 1328 +
STACK CFI 1bd49 .cfa: $esp 1320 +
STACK CFI 1bd4c .cfa: $esp 1328 +
STACK CFI 1bd60 .cfa: $esp 20 +
STACK CFI 1bd61 $ebx: $ebx .cfa: $esp 16 +
STACK CFI 1bd62 $esi: $esi .cfa: $esp 12 +
STACK CFI 1bd63 $edi: $edi .cfa: $esp 8 +
STACK CFI 1bd64 $ebp: $ebp .cfa: $esp 4 +
STACK CFI 1bd65 $ebp: .cfa -8 + ^ $ebx: .cfa -20 + ^ $edi: .cfa -12 + ^ $esi: .cfa -16 + ^ .cfa: $esp 1328 +
STACK CFI 1bd86 .cfa: $esp 1324 +
STACK CFI 1bd89 .cfa: $esp 1328 +
STACK CFI 1bdcb .cfa: $esp 1312 +
STACK CFI 1bdce .cfa: $esp 1328 +
STACK CFI 1bea4 .cfa: $esp 1312 +
STACK CFI 1bea7 .cfa: $esp 1328 +
STACK CFI 1becc .cfa: $esp 1320 +
STACK CFI 1becf .cfa: $esp 1328 +
STACK CFI 1beed .cfa: $esp 1320 +
STACK CFI 1bef3 .cfa: $esp 1328 +
STACK CFI 1bf5a .cfa: $esp 1320 +
STACK CFI 1bf60 .cfa: $esp 1328 +
STACK CFI 1bfab .cfa: $esp 1320 +
STACK CFI 1bfb1 .cfa: $esp 1328 +
STACK CFI 1c026 .cfa: $esp 1320 +
STACK CFI 1c029 .cfa: $esp 1328 +
STACK CFI INIT 1c050 269 .cfa: $esp 4 + .ra: .cfa -4 + ^
STACK CFI 1c051 $ebp: .cfa -8 + ^ .cfa: $esp 8 +
STACK CFI 1c052 $edi: .cfa -12 + ^ .cfa: $esp 12 +
STACK CFI 1c053 $esi: .cfa -16 + ^ .cfa: $esp 16 +
STACK CFI 1c054 $ebx: .cfa -20 + ^ .cfa: $esp 20 +
STACK CFI 1c057 .cfa: $esp 80 +
STACK CFI 1c0fe .cfa: $esp 72 +
STACK CFI 1c101 .cfa: $esp 80 +
STACK CFI 1c13d .cfa: $esp 20 +
STACK CFI 1c13e $ebx: $ebx .cfa: $esp 16 +
STACK CFI 1c141 $esi: $esi .cfa: $esp 12 +
STACK CFI 1c142 $edi: $edi .cfa: $esp 8 +
STACK CFI 1c143 $ebp: $ebp .cfa: $esp 4 +
STACK CFI 1c144 $ebp: .cfa -8 + ^ $ebx: .cfa -20 + ^ $edi: .cfa -12 + ^ $esi: .cfa -16 + ^ .cfa: $esp 80 +
STACK CFI 1c14c .cfa: $esp 20 +
STACK CFI 1c14f $ebx: $ebx .cfa: $esp 16 +
STACK CFI 1c150 $esi: $esi .cfa: $esp 12 +
STACK CFI 1c151 $edi: $edi .cfa: $esp 8 +
STACK CFI 1c152 $ebp: $ebp .cfa: $esp 4 +
STACK CFI 1c153 $ebp: .cfa -8 + ^ $ebx: .cfa -20 + ^ $edi: .cfa -12 + ^ $esi: .cfa -16 + ^ .cfa: $esp 80 +
STACK CFI 1c1a8 .cfa: $esp 72 +
STACK CFI 1c1ed .cfa: $esp 80 +
STACK CFI 1c20f .cfa: $esp 76 +
STACK CFI 1c212 .cfa: $esp 80 +
STACK CFI 1c21d .cfa: $esp 20 +
STACK CFI 1c220 $ebx: $ebx .cfa: $esp 16 +
STACK CFI 1c223 $esi: $esi .cfa: $esp 12 +
STACK CFI 1c224 $edi: $edi .cfa: $esp 8 +
STACK CFI 1c225 $ebp: $ebp .cfa: $esp 4 +
STACK CFI 1c230 $ebp: .cfa -8 + ^ $ebx: .cfa -20 + ^ $edi: .cfa -12 + ^ $esi: .cfa -16 + ^ .cfa: $esp 80 +
STACK CFI 1c249 .cfa: $esp 72 +
STACK CFI 1c24c .cfa: $esp 80 +
STACK CFI 1c251 .cfa: $esp 20 +
STACK CFI 1c254 $ebx: $ebx .cfa: $esp 16 +
STACK CFI 1c255 $esi: $esi .cfa: $esp 12 +
STACK CFI 1c256 $edi: $edi .cfa: $esp 8 +
STACK CFI 1c257 $ebp: $ebp .cfa: $esp 4 +
STACK CFI 1c260 $ebp: .cfa -8 + ^ $ebx: .cfa -20 + ^ $edi: .cfa -12 + ^ $esi: .cfa -16 + ^ .cfa: $esp 80 +
STACK CFI 1c28e .cfa: $esp 68 +
STACK CFI 1c291 .cfa: $esp 80 +
STACK CFI 1c299 .cfa: $esp 20 +
STACK CFI 1c29c $ebx: $ebx .cfa: $esp 16 +
STACK CFI 1c29d $esi: $esi .cfa: $esp 12 +
STACK CFI 1c29e $edi: $edi .cfa: $esp 8 +
STACK CFI 1c29f $ebp: $ebp .cfa: $esp 4 +
STACK CFI 1c2a0 $ebp: .cfa -8 + ^ $ebx: .cfa -20 + ^ $edi: .cfa -12 + ^ $esi: .cfa -16 + ^ .cfa: $esp 80 +
STACK CFI INIT 1a3c00 a9 .cfa: $esp 4 + .ra: .cfa -4 + ^
STACK CFI 1a3c01 $ebx: .cfa -8 + ^ .cfa: $esp 8 +
STACK CFI 1a3c0e .cfa: $esp 32 +
STACK CFI 1a3ca7 .cfa: $esp 8 +
STACK CFI 1a3ca8 $ebx: $ebx .cfa: $esp 4 +
STACK CFI INIT 12e7a0 40 .cfa: $esp 4 + .ra: .cfa -4 + ^
STACK CFI 12e7a3 .cfa: $esp 32 +
STACK CFI 12e7d3 .cfa: $esp 4 +
STACK CFI INIT 12e800 30 .cfa: $esp 4 + .ra: .cfa -4 + ^
STACK CFI 12e803 .cfa: $esp 32 +
STACK CFI 12e82d .cfa: $esp 4 +
STACK CFI INIT 12dd10 f .cfa: $esp 4 + .ra: .cfa -4 + ^
STACK CFI 12dd13 .cfa: $esp 32 +
STACK CFI 12dd1e .cfa: $esp 4 +
STACK CFI INIT 12e060 f .cfa: $esp 4 + .ra: .cfa -4 + ^
STACK CFI 12e063 .cfa: $esp 32 +
STACK CFI 12e06e .cfa: $esp 4 +
STACK CFI INIT 12e830 f .cfa: $esp 4 + .ra: .cfa -4 + ^
STACK CFI 12e833 .cfa: $esp 32 +
STACK CFI 12e83e .cfa: $esp 4 +
STACK CFI INIT 1103f0 5 .cfa: $esp 4 + .ra: .cfa -4 + ^
STACK CFI INIT 110400 d .cfa: $esp 4 + .ra: .cfa -4 + ^
STACK CFI INIT 1424d0 11d2 .cfa: $esp 4 + .ra: .cfa -4 + ^
STACK CFI 1424d1 $ebp: .cfa -8 + ^ .cfa: $esp 8 +
STACK CFI 1424d3 .cfa: $ebp 8 +
STACK CFI 1424de $ebx: .cfa -16 + ^ $esi: .cfa -12 + ^
STACK CFI 14254e $ebx: $ebx
STACK CFI 14254f $esi: $esi
STACK CFI 142550 $ebp: $ebp .cfa: $esp 4 +
STACK CFI 142553 $ebp: .cfa -8 + ^ $ebx: .cfa -16 + ^ $esi: .cfa -12 + ^ .cfa: $ebp 8 +
STACK CFI INIT 1c2c0 a .cfa: $esp 4 + .ra: .cfa -4 + ^
STACK CFI INIT 1c2d0 14e .cfa: $esp 4 + .ra: .cfa -4 + ^
STACK CFI 1c2d1 $esi: .cfa -8 + ^ .cfa: $esp 8 +
STACK CFI 1c2d2 $ebx: .cfa -12 + ^ .cfa: $esp 12 +
STACK CFI 1c2df .cfa: $esp 80 +
STACK CFI 1c40c .cfa: $esp 12 +
STACK CFI 1c40d $ebx: $ebx .cfa: $esp 8 +
STACK CFI 1c40e $esi: $esi .cfa: $esp 4 +
STACK CFI 1c410 $ebx: .cfa -12 + ^ $esi: .cfa -8 + ^ .cfa: $esp 80 +
STACK CFI INIT 1c420 96 .cfa: $esp 4 + .ra: .cfa -4 + ^
STACK CFI 1c423 .cfa: $esp 64 +
STACK CFI 1c448 .cfa: $esp 52 +
STACK CFI 1c44d .cfa: $esp 64 +
STACK CFI 1c4b5 .cfa: $esp 4 +
STACK CFI INIT 1c4c0 6c .cfa: $esp 4 + .ra: .cfa -4 + ^
STACK CFI 1c4c1 $ebx: .cfa -8 + ^ .cfa: $esp 8 +
STACK CFI 1c4c4 .cfa: $esp 64 +
STACK CFI 1c4e4 .cfa: $esp 60 +
STACK CFI 1c4e7 .cfa: $esp 64 +
STACK CFI 1c52a .cfa: $esp 8 +
STACK CFI 1c52b $ebx: $ebx .cfa: $esp 4 +
STACK CFI INIT 1c530 e4 .cfa: $esp 4 + .ra: .cfa -4 + ^
STACK CFI 1c531 $ebp: .cfa -8 + ^ .cfa: $esp 8 +
STACK CFI 1c532 $edi: .cfa -12 + ^ .cfa: $esp 12 +
STACK CFI 1c533 $esi: .cfa -16 + ^ .cfa: $esp 16 +
STACK CFI 1c534 $ebx: .cfa -20 + ^ .cfa: $esp 20 +
STACK CFI 1c537 .cfa: $esp 96 +
STACK CFI 1c575 .cfa: $esp 84 +
STACK CFI 1c578 .cfa: $esp 96 +
STACK CFI 1c5aa .cfa: $esp 76 +
STACK CFI 1c5ad .cfa: $esp 96 +
STACK CFI 1c5f6 .cfa: $esp 76 +
STACK CFI 1c5fb .cfa: $esp 96 +
STACK CFI 1c60d .cfa: $esp 20 +
STACK CFI 1c610 $ebx: $ebx .cfa: $esp 16 +
STACK CFI 1c611 $esi: $esi .cfa: $esp 12 +
STACK CFI 1c612 $edi: $edi .cfa: $esp 8 +
STACK CFI 1c613 $ebp: $ebp .cfa: $esp 4 +
STACK CFI INIT 1c620 291 .cfa: $esp 4 + .ra: .cfa -4 + ^
STACK CFI 1c621 $ebp: .cfa -8 + ^ .cfa: $esp 8 +
STACK CFI 1c622 $edi: .cfa -12 + ^ .cfa: $esp 12 +
STACK CFI 1c623 $esi: .cfa -16 + ^ .cfa: $esp 16 +
STACK CFI 1c624 $ebx: .cfa -20 + ^ .cfa: $esp 20 +
STACK CFI 1c62a .cfa: $esp 2176 +
STACK CFI 1c66a .cfa: $esp 2168 +
STACK CFI 1c66d .cfa: $esp 2176 +
STACK CFI 1c688 .cfa: $esp 2168 +
STACK CFI 1c68b .cfa: $esp 2176 +
STACK CFI 1c6fd .cfa: $esp 20 +
STACK CFI 1c700 $ebx: $ebx .cfa: $esp 16 +
STACK CFI 1c701 $esi: $esi .cfa: $esp 12 +
STACK CFI 1c702 $edi: $edi .cfa: $esp 8 +
STACK CFI 1c703 $ebp: $ebp .cfa: $esp 4 +
STACK CFI 1c704 $ebp: .cfa -8 + ^ $ebx: .cfa -20 + ^ $edi: .cfa -12 + ^ $esi: .cfa -16 + ^ .cfa: $esp 2176 +
STACK CFI 1c73a .cfa: $esp 2156 +
STACK CFI 1c73d .cfa: $esp 2176 +
STACK CFI 1c7df .cfa: $esp 2144 +
STACK CFI 1c7e4 .cfa: $esp 2176 +
STACK CFI 1c87d .cfa: $esp 2168 +
STACK CFI 1c880 .cfa: $esp 2176 +
STACK CFI 1c89e .cfa: $esp 2164 +
STACK CFI 1c8a5 .cfa: $esp 2176 +
STACK CFI INIT 1c8c0 7c .cfa: $esp 4 + .ra: .cfa -4 + ^
STACK CFI 1c8c3 .cfa: $esp 48 +
STACK CFI 1c905 .cfa: $esp 24 +
STACK CFI 1c908 .cfa: $esp 48 +
STACK CFI 1c911 .cfa: $esp 4 +
STACK CFI 1c912 .cfa: $esp 48 +
STACK CFI 1c92b .cfa: $esp 40 +
STACK CFI 1c92e .cfa: $esp 48 +
STACK CFI 1c93b .cfa: $esp 4 +
STACK CFI INIT 1a3cb0 1d .cfa: $esp 4 + .ra: .cfa -4 + ^
STACK CFI 1a3cb3 .cfa: $esp 32 +
STACK CFI 1a3ccc .cfa: $esp 4 +
STACK CFI INIT 1c940 26 .cfa: $esp 4 + .ra: .cfa -4 + ^
STACK CFI 1c943 .cfa: $esp 32 +
STACK CFI 1c965 .cfa: $esp 4 +
STACK CFI INIT 1c970 a .cfa: $esp 4 + .ra: .cfa -4 + ^
STACK CFI INIT 1c980 2b .cfa: $esp 4 + .ra: .cfa -4 + ^
STACK CFI 1c981 $ebx: .cfa -8 + ^ .cfa: $esp 8 +
STACK CFI 1c989 .cfa: $esp 16 +
STACK CFI 1c9a9 .cfa: $esp 8 +
STACK CFI 1c9aa $ebx: $ebx .cfa: $esp 4 +
STACK CFI INIT 1c9b0 286 .cfa: $esp 4 + .ra: .cfa -4 + ^
STACK CFI 1c9b1 $ebp: .cfa -8 + ^ .cfa: $esp 8 +
STACK CFI 1c9b2 $edi: .cfa -12 + ^ .cfa: $esp 12 +
STACK CFI 1c9b3 $esi: .cfa -16 + ^ .cfa: $esp 16 +
STACK CFI 1c9b4 $ebx: .cfa -20 + ^ .cfa: $esp 20 +
STACK CFI 1c9ba .cfa: $esp 496 +
STACK CFI 1cb23 .cfa: $esp 484 +
STACK CFI 1cb26 .cfa: $esp 496 +
STACK CFI 1cb46 .cfa: $esp 484 +
STACK CFI 1cb49 .cfa: $esp 496 +
STACK CFI 1cbe4 .cfa: $esp 472 +
STACK CFI 1cbe7 .cfa: $esp 496 +
STACK CFI 1cc05 .cfa: $esp 488 +
STACK CFI 1cc08 .cfa: $esp 496 +
STACK CFI 1cc31 .cfa: $esp 20 +
STACK CFI 1cc32 $ebx: $ebx .cfa: $esp 16 +
STACK CFI 1cc33 $esi: $esi .cfa: $esp 12 +
STACK CFI 1cc34 $edi: $edi .cfa: $esp 8 +
STACK CFI 1cc35 $ebp: $ebp .cfa: $esp 4 +
STACK CFI INIT 1cc40 94 .cfa: $esp 4 + .ra: .cfa -4 + ^
STACK CFI 1cc43 .cfa: $esp 112 +
STACK CFI 1cc53 .cfa: $esp 108 +
STACK CFI 1cc56 .cfa: $esp 112 +
STACK CFI 1cc66 .cfa: $esp 108 +
STACK CFI 1cc69 .cfa: $esp 112 +
STACK CFI 1cc79 .cfa: $esp 108 +
STACK CFI 1cc7c .cfa: $esp 112 +
STACK CFI 1ccd3 .cfa: $esp 4 +
STACK CFI INIT 1cce0 94 .cfa: $esp 4 + .ra: .cfa -4 + ^
STACK CFI 1cce3 .cfa: $esp 112 +
STACK CFI 1ccf3 .cfa: $esp 108 +
STACK CFI 1ccf6 .cfa: $esp 112 +
STACK CFI 1cd06 .cfa: $esp 108 +
STACK CFI 1cd09 .cfa: $esp 112 +
STACK CFI 1cd19 .cfa: $esp 108 +
STACK CFI 1cd1c .cfa: $esp 112 +
STACK CFI 1cd73 .cfa: $esp 4 +
STACK CFI INIT 1cd80 1d0 .cfa: $esp 4 + .ra: .cfa -4 + ^
STACK CFI 1cd81 $ebp: .cfa -8 + ^ .cfa: $esp 8 +
STACK CFI 1cd83 .cfa: $ebp 8 +
STACK CFI 1cdf0 $ebp: $ebp .cfa: $esp 4 +
STACK CFI 1cdf1 $ebp: .cfa -8 + ^ .cfa: $ebp 8 +
STACK CFI 1cf02 $ebp: $ebp .cfa: $esp 4 +
STACK CFI 1cf03 $ebp: .cfa -8 + ^ .cfa: $ebp 8 +
STACK CFI INIT 1cf50 62 .cfa: $esp 4 + .ra: .cfa -4 + ^
STACK CFI 1cf51 $ebx: .cfa -8 + ^ .cfa: $esp 8 +
STACK CFI 1cf54 .cfa: $esp 64 +
STACK CFI 1cf73 .cfa: $esp 60 +
STACK CFI 1cf76 .cfa: $esp 64 +
STACK CFI 1cf96 .cfa: $esp 52 +
STACK CFI 1cf99 .cfa: $esp 64 +
STACK CFI 1cfb0 .cfa: $esp 8 +
STACK CFI 1cfb1 $ebx: $ebx .cfa: $esp 4 +
STACK CFI INIT 1cfc0 3f .cfa: $esp 4 + .ra: .cfa -4 + ^
STACK CFI 1cfc1 $ebx: .cfa -8 + ^ .cfa: $esp 8 +
STACK CFI 1cfc4 .cfa: $esp 48 +
STACK CFI 1cfe3 .cfa: $esp 44 +
STACK CFI 1cfe6 .cfa: $esp 48 +
STACK CFI 1cffd .cfa: $esp 8 +
STACK CFI 1cffe $ebx: $ebx .cfa: $esp 4 +
STACK CFI INIT 1d000 a3 .cfa: $esp 4 + .ra: .cfa -4 + ^
STACK CFI 1d001 $esi: .cfa -8 + ^ .cfa: $esp 8 +
STACK CFI 1d002 $ebx: .cfa -12 + ^ .cfa: $esp 12 +
STACK CFI 1d005 .cfa: $esp 112 +
STACK CFI 1d033 .cfa: $esp 108 +
STACK CFI 1d038 .cfa: $esp 112 +
STACK CFI 1d0a0 .cfa: $esp 12 +
STACK CFI 1d0a1 $ebx: $ebx .cfa: $esp 8 +
STACK CFI 1d0a2 $esi: $esi .cfa: $esp 4 +
STACK CFI INIT 1d0b0 f6 .cfa: $esp 4 + .ra: .cfa -4 + ^
STACK CFI 1d0b1 $edi: .cfa -8 + ^ .cfa: $esp 8 +
STACK CFI 1d0b2 $esi: .cfa -12 + ^ .cfa: $esp 12 +
STACK CFI 1d0b3 $ebx: .cfa -16 + ^ .cfa: $esp 16 +
STACK CFI 1d0b6 .cfa: $esp 48 +
STACK CFI 1d0db .cfa: $esp 36 +
STACK CFI 1d0de .cfa: $esp 48 +
STACK CFI 1d107 .cfa: $esp 36 +
STACK CFI 1d10a .cfa: $esp 48 +
STACK CFI 1d134 .cfa: $esp 32 +
STACK CFI 1d13b .cfa: $esp 48 +
STACK CFI 1d16d .cfa: $esp 16 +
STACK CFI 1d16e $ebx: $ebx .cfa: $esp 12 +
STACK CFI 1d16f $esi: $esi .cfa: $esp 8 +
STACK CFI 1d170 $edi: $edi .cfa: $esp 4 +
STACK CFI 1d171 $ebx: .cfa -16 + ^ $edi: .cfa -8 + ^ $esi: .cfa -12 + ^ .cfa: $esp 48 +
STACK CFI 1d19e .cfa: $esp 36 +
STACK CFI 1d1a1 .cfa: $esp 48 +
STACK CFI INIT 1d1b0 887 .cfa: $esp 4 + .ra: .cfa -4 + ^
STACK CFI 1d1b1 $ebp: .cfa -8 + ^ .cfa: $esp 8 +
STACK CFI 1d1b2 $edi: .cfa -12 + ^ .cfa: $esp 12 +
STACK CFI 1d1b3 $esi: .cfa -16 + ^ .cfa: $esp 16 +
STACK CFI 1d1b4 $ebx: .cfa -20 + ^ .cfa: $esp 20 +
STACK CFI 1d1ba .cfa: $esp 256 +
STACK CFI 1d1d6 .cfa: $esp 20 +
STACK CFI 1d1d7 $ebx: $ebx .cfa: $esp 16 +
STACK CFI 1d1d8 $esi: $esi .cfa: $esp 12 +
STACK CFI 1d1d9 $edi: $edi .cfa: $esp 8 +
STACK CFI 1d1da $ebp: $ebp .cfa: $esp 4 +
STACK CFI 1d1e0 $ebp: .cfa -8 + ^ $ebx: .cfa -20 + ^ $edi: .cfa -12 + ^ $esi: .cfa -16 + ^ .cfa: $esp 256 +
STACK CFI 1d21e .cfa: $esp 252 +
STACK CFI 1d221 .cfa: $esp 256 +
STACK CFI 1d45f .cfa: $esp 20 +
STACK CFI 1d460 $ebx: $ebx .cfa: $esp 16 +
STACK CFI 1d461 $esi: $esi .cfa: $esp 12 +
STACK CFI 1d462 $edi: $edi .cfa: $esp 8 +
STACK CFI 1d463 $ebp: $ebp .cfa: $esp 4 +
STACK CFI 1d464 $ebp: .cfa -8 + ^ $ebx: .cfa -20 + ^ $edi: .cfa -12 + ^ $esi: .cfa -16 + ^ .cfa: $esp 256 +
STACK CFI 1d49a .cfa: $esp 244 +
STACK CFI 1d4a3 .cfa: $esp 256 +
STACK CFI 1d4c6 .cfa: $esp 244 +
STACK CFI 1d4c9 .cfa: $esp 256 +
STACK CFI 1d613 .cfa: $esp 244 +
STACK CFI 1d616 .cfa: $esp 256 +
STACK CFI 1d698 .cfa: $esp 252 +
STACK CFI 1d69b .cfa: $esp 256 +
STACK CFI 1d762 .cfa: $esp 244 +
STACK CFI 1d765 .cfa: $esp 256 +
STACK CFI 1d7e5 .cfa: $esp 252 +
STACK CFI 1d7ee .cfa: $esp 256 +
STACK CFI 1d81b .cfa: $esp 252 +
STACK CFI 1d81e .cfa: $esp 256 +
STACK CFI 1d8af .cfa: $esp 236 +
STACK CFI 1d8b2 .cfa: $esp 256 +
STACK CFI INIT 1da40 118 .cfa: $esp 4 + .ra: .cfa -4 + ^
STACK CFI 1da41 $ebp: .cfa -8 + ^ .cfa: $esp 8 +
STACK CFI 1da42 $edi: .cfa -12 + ^ .cfa: $esp 12 +
STACK CFI 1da43 $esi: .cfa -16 + ^ .cfa: $esp 16 +
STACK CFI 1da44 $ebx: .cfa -20 + ^ .cfa: $esp 20 +
STACK CFI 1da47 .cfa: $esp 96 +
STACK CFI 1da5d .cfa: $esp 92 +
STACK CFI 1da60 .cfa: $esp 96 +
STACK CFI 1da80 .cfa: $esp 84 +
STACK CFI 1da83 .cfa: $esp 96 +
STACK CFI 1dada .cfa: $esp 20 +
STACK CFI 1dadd $ebx: $ebx .cfa: $esp 16 +
STACK CFI 1dae0 $esi: $esi .cfa: $esp 12 +
STACK CFI 1dae1 $edi: $edi .cfa: $esp 8 +
STACK CFI 1dae2 $ebp: $ebp .cfa: $esp 4 +
STACK CFI 1dae3 $ebp: .cfa -8 + ^ $ebx: .cfa -20 + ^ $edi: .cfa -12 + ^ $esi: .cfa -16 + ^ .cfa: $esp 96 +
STACK CFI 1db27 .cfa: $esp 68 +
STACK CFI 1db2a .cfa: $esp 96 +
STACK CFI 1db53 .cfa: $esp 20 +
STACK CFI 1db54 $ebx: $ebx .cfa: $esp 16 +
STACK CFI 1db55 $esi: $esi .cfa: $esp 12 +
STACK CFI 1db56 $edi: $edi .cfa: $esp 8 +
STACK CFI 1db57 $ebp: $ebp .cfa: $esp 4 +
STACK CFI INIT 1db60 6d .cfa: $esp 4 + .ra: .cfa -4 + ^
STACK CFI 1db61 $edi: .cfa -8 + ^ .cfa: $esp 8 +
STACK CFI 1db62 $esi: .cfa -12 + ^ .cfa: $esp 12 +
STACK CFI 1db63 $ebx: .cfa -16 + ^ .cfa: $esp 16 +
STACK CFI 1db66 .cfa: $esp 48 +
STACK CFI 1db87 .cfa: $esp 44 +
STACK CFI 1db8a .cfa: $esp 48 +
STACK CFI 1dbc9 .cfa: $esp 16 +
STACK CFI 1dbca $ebx: $ebx .cfa: $esp 12 +
STACK CFI 1dbcb $esi: $esi .cfa: $esp 8 +
STACK CFI 1dbcc $edi: $edi .cfa: $esp 4 +
STACK CFI INIT 1dbd0 1ea .cfa: $esp 4 + .ra: .cfa -4 + ^
STACK CFI 1dbd1 $ebp: .cfa -8 + ^ .cfa: $esp 8 +
STACK CFI 1dbd2 $edi: .cfa -12 + ^ .cfa: $esp 12 +
STACK CFI 1dbd3 $esi: .cfa -16 + ^ .cfa: $esp 16 +
STACK CFI 1dbd4 $ebx: .cfa -20 + ^ .cfa: $esp 20 +
STACK CFI 1dbd7 .cfa: $esp 128 +
STACK CFI 1dc04 .cfa: $esp 116 +
STACK CFI 1dc07 .cfa: $esp 128 +
STACK CFI 1dc1c .cfa: $esp 124 +
STACK CFI 1dc1f .cfa: $esp 128 +
STACK CFI 1dc41 .cfa: $esp 116 +
STACK CFI 1dc44 .cfa: $esp 128 +
STACK CFI 1dc55 .cfa: $esp 124 +
STACK CFI 1dc58 .cfa: $esp 128 +
STACK CFI 1dc78 .cfa: $esp 116 +
STACK CFI 1dc7b .cfa: $esp 128 +
STACK CFI 1dcc9 .cfa: $esp 108 +
STACK CFI 1dccc .cfa: $esp 128 +
STACK CFI 1dd1f .cfa: $esp 108 +
STACK CFI 1dd22 .cfa: $esp 128 +
STACK CFI 1dd84 .cfa: $esp 92 +
STACK CFI 1dd87 .cfa: $esp 128 +
STACK CFI 1dda7 .cfa: $esp 20 +
STACK CFI 1dda8 $ebx: $ebx .cfa: $esp 16 +
STACK CFI 1dda9 $esi: $esi .cfa: $esp 12 +
STACK CFI 1ddaa $edi: $edi .cfa: $esp 8 +
STACK CFI 1ddab $ebp: $ebp .cfa: $esp 4 +
STACK CFI 1ddb0 $ebp: .cfa -8 + ^ $ebx: .cfa -20 + ^ $edi: .cfa -12 + ^ $esi: .cfa -16 + ^ .cfa: $esp 128 +
STACK CFI 1ddb3 .cfa: $esp 20 +
STACK CFI 1ddb6 $ebx: $ebx .cfa: $esp 16 +
STACK CFI 1ddb7 $esi: $esi .cfa: $esp 12 +
STACK CFI 1ddb8 $edi: $edi .cfa: $esp 8 +
STACK CFI 1ddb9 $ebp: $ebp .cfa: $esp 4 +
STACK CFI INIT 1ddc0 155 .cfa: $esp 4 + .ra: .cfa -4 + ^
STACK CFI 1ddc1 $ebp: .cfa -8 + ^ .cfa: $esp 8 +
STACK CFI 1ddc2 $edi: .cfa -12 + ^ .cfa: $esp 12 +
STACK CFI 1ddc3 $esi: .cfa -16 + ^ .cfa: $esp 16 +
STACK CFI 1ddc4 $ebx: .cfa -20 + ^ .cfa: $esp 20 +
STACK CFI 1ddc7 .cfa: $esp 144 +
STACK CFI 1ddda .cfa: $esp 140 +
STACK CFI 1dddd .cfa: $esp 144 +
STACK CFI 1ddf0 .cfa: $esp 140 +
STACK CFI 1ddf3 .cfa: $esp 144 +
STACK CFI 1de2b .cfa: $esp 120 +
STACK CFI 1de33 .cfa: $esp 144 +
STACK CFI 1def1 .cfa: $esp 132 +
STACK CFI 1def4 .cfa: $esp 144 +
STACK CFI 1df10 .cfa: $esp 20 +
STACK CFI 1df11 $ebx: $ebx .cfa: $esp 16 +
STACK CFI 1df12 $esi: $esi .cfa: $esp 12 +
STACK CFI 1df13 $edi: $edi .cfa: $esp 8 +
STACK CFI 1df14 $ebp: $ebp .cfa: $esp 4 +
STACK CFI INIT 1df20 4c .cfa: $esp 4 + .ra: .cfa -4 + ^
STACK CFI 1df21 $edi: .cfa -8 + ^ .cfa: $esp 8 +
STACK CFI 1df22 $esi: .cfa -12 + ^ .cfa: $esp 12 +
STACK CFI 1df23 $ebx: .cfa -16 + ^ .cfa: $esp 16 +
STACK CFI 1df26 .cfa: $esp 32 +
STACK CFI 1df51 .cfa: $esp 28 +
STACK CFI 1df54 .cfa: $esp 32 +
STACK CFI 1df68 .cfa: $esp 16 +
STACK CFI 1df69 $ebx: $ebx .cfa: $esp 12 +
STACK CFI 1df6a $esi: $esi .cfa: $esp 8 +
STACK CFI 1df6b $edi: $edi .cfa: $esp 4 +
STACK CFI INIT 1df70 52 .cfa: $esp 4 + .ra: .cfa -4 + ^
STACK CFI 1df7a $esi: .cfa -8 + ^ .cfa: $esp 8 +
STACK CFI 1df7b $ebx: .cfa -12 + ^ .cfa: $esp 12 +
STACK CFI 1df85 .cfa: $esp 32 +
STACK CFI 1dfab .cfa: $esp 20 +
STACK CFI 1dfae .cfa: $esp 32 +
STACK CFI 1dfb9 .cfa: $esp 12 +
STACK CFI 1dfba $ebx: $ebx .cfa: $esp 8 +
STACK CFI 1dfbb $esi: $esi .cfa: $esp 4 +
STACK CFI INIT 1a3cd0 f8 .cfa: $esp 4 + .ra: .cfa -4 + ^
STACK CFI 1a3cd1 $ebp: .cfa -8 + ^ .cfa: $esp 8 +
STACK CFI 1a3cd4 .cfa: $esp 96 +
STACK CFI 1a3d74 .cfa: $esp 8 +
STACK CFI 1a3d75 $ebp: $ebp .cfa: $esp 4 +
STACK CFI 1a3d76 $ebp: .cfa -8 + ^ .cfa: $esp 96 +
STACK CFI INIT 1dfd0 a .cfa: $esp 4 + .ra: .cfa -4 + ^
STACK CFI INIT 1dfe0 ad .cfa: $esp 4 + .ra: .cfa -4 + ^
STACK CFI 1dfe1 $esi: .cfa -8 + ^ .cfa: $esp 8 +
STACK CFI 1dfe2 $ebx: .cfa -12 + ^ .cfa: $esp 12 +
STACK CFI 1dfea .cfa: $esp 32 +
STACK CFI 1e041 .cfa: $esp 12 +
STACK CFI 1e044 $ebx: $ebx .cfa: $esp 8 +
STACK CFI 1e045 $esi: $esi .cfa: $esp 4 +
STACK CFI 1e050 $ebx: .cfa -12 + ^ $esi: .cfa -8 + ^ .cfa: $esp 32 +
STACK CFI 1e088 .cfa: $esp 12 +
STACK CFI 1e08b $ebx: $ebx .cfa: $esp 8 +
STACK CFI 1e08c $esi: $esi .cfa: $esp 4 +
STACK CFI INIT 1e090 4b .cfa: $esp 4 + .ra: .cfa -4 + ^
STACK CFI 1e093 .cfa: $esp 32 +
STACK CFI 1e0c2 .cfa: $esp 4 +
STACK CFI 1e0c3 .cfa: $esp 32 +
STACK CFI INIT 1e0e0 18 .cfa: $esp 4 + .ra: .cfa -4 + ^
STACK CFI INIT 1e100 47 .cfa: $esp 4 + .ra: .cfa -4 + ^
STACK CFI INIT 1a3dd0 1d .cfa: $esp 4 + .ra: .cfa -4 + ^
STACK CFI 1a3dd3 .cfa: $esp 32 +
STACK CFI 1a3dec .cfa: $esp 4 +
STACK CFI INIT 1e150 b .cfa: $esp 4 + .ra: .cfa -4 + ^
STACK CFI INIT 1e160 2 .cfa: $esp 4 + .ra: .cfa -4 + ^
STACK CFI INIT 1e170 10 .cfa: $esp 4 + .ra: .cfa -4 + ^
STACK CFI 1e173 .cfa: $esp 16 +
STACK CFI 1e17b .cfa: $esp 4 +
STACK CFI INIT 1e180 a .cfa: $esp 4 + .ra: .cfa -4 + ^
STACK CFI INIT 1e190 a2 .cfa: $esp 4 + .ra: .cfa -4 + ^
STACK CFI 1e191 $edi: .cfa -8 + ^ .cfa: $esp 8 +
STACK CFI 1e192 $esi: .cfa -12 + ^ .cfa: $esp 12 +
STACK CFI 1e195 $ebx: .cfa -16 + ^ .cfa: $esp 16 +
STACK CFI 1e198 .cfa: $esp 48 +
STACK CFI 1e1d1 .cfa: $esp 16 +
STACK CFI 1e1d2 $ebx: $ebx .cfa: $esp 12 +
STACK CFI 1e1d3 $esi: $esi .cfa: $esp 8 +
STACK CFI 1e1d4 $edi: $edi .cfa: $esp 4 +
STACK CFI 1e1e0 $ebx: .cfa -16 + ^ $edi: .cfa -8 + ^ $esi: .cfa -12 + ^ .cfa: $esp 48 +
STACK CFI 1e1f6 .cfa: $esp 40 +
STACK CFI 1e1f9 .cfa: $esp 48 +
STACK CFI INIT 1e240 2 .cfa: $esp 4 + .ra: .cfa -4 + ^
STACK CFI INIT 1e250 2 .cfa: $esp 4 + .ra: .cfa -4 + ^
STACK CFI INIT 1e260 2 .cfa: $esp 4 + .ra: .cfa -4 + ^
STACK CFI INIT 1e270 7b .cfa: $esp 4 + .ra: .cfa -4 + ^
STACK CFI 1e283 .cfa: $esp 32 +
STACK CFI 1e2ea .cfa: $esp 4 +
STACK CFI INIT 1e2f0 4f .cfa: $esp 4 + .ra: .cfa -4 + ^
STACK CFI 1e2f3 .cfa: $esp 32 +
STACK CFI 1e33e .cfa: $esp 4 +
STACK CFI INIT 1e340 23 .cfa: $esp 4 + .ra: .cfa -4 + ^
STACK CFI 1e343 .cfa: $esp 32 +
STACK CFI 1e35c .cfa: $esp 24 +
STACK CFI 1e35f .cfa: $esp 32 +
STACK CFI 1e362 .cfa: $esp 4 +
STACK CFI INIT 1e370 55 .cfa: $esp 4 + .ra: .cfa -4 + ^
STACK CFI 1e37f .cfa: $esp 32 +
STACK CFI 1e398 .cfa: $esp 24 +
STACK CFI 1e39b .cfa: $esp 32 +
STACK CFI 1e3ba .cfa: $esp 4 +
STACK CFI INIT 1e3d0 55 .cfa: $esp 4 + .ra: .cfa -4 + ^
STACK CFI 1e3df .cfa: $esp 32 +
STACK CFI 1e3f8 .cfa: $esp 24 +
STACK CFI 1e3fb .cfa: $esp 32 +
STACK CFI 1e41a .cfa: $esp 4 +
STACK CFI INIT 1e430 505 .cfa: $esp 4 + .ra: .cfa -4 + ^
STACK CFI 1e431 $ebp: .cfa -8 + ^ .cfa: $esp 8 +
STACK CFI 1e433 .cfa: $ebp 8 +
STACK CFI 1e647 $ebp: $ebp .cfa: $esp 4 +
STACK CFI 1e650 $ebp: .cfa -8 + ^ .cfa: $ebp 8 +
STACK CFI 1e685 $ebp: $ebp .cfa: $esp 4 +
STACK CFI 1e690 $ebp: .cfa -8 + ^ .cfa: $ebp 8 +
STACK CFI 1e8cc $ebp: $ebp .cfa: $esp 4 +
STACK CFI 1e8cd $ebp: .cfa -8 + ^ .cfa: $ebp 8 +
STACK CFI INIT 1a3df0 c9 .cfa: $esp 4 + .ra: .cfa -4 + ^
STACK CFI 1a3df3 .cfa: $esp 48 +
STACK CFI 1a3e3a .cfa: $esp 28 +
STACK CFI 1a3e3d .cfa: $esp 48 +
STACK CFI 1a3e7a .cfa: $esp 28 +
STACK CFI 1a3e7d .cfa: $esp 48 +
STACK CFI 1a3eb8 .cfa: $esp 4 +
STACK CFI INIT 11ba80 7 .cfa: $esp 4 + .ra: .cfa -4 + ^
STACK CFI INIT 12dc50 2 .cfa: $esp 4 + .ra: .cfa -4 + ^
STACK CFI INIT 17caf0 2 .cfa: $esp 4 + .ra: .cfa -4 + ^
STACK CFI INIT 17c810 2 .cfa: $esp 4 + .ra: .cfa -4 + ^
STACK CFI INIT 12dc40 f .cfa: $esp 4 + .ra: .cfa -4 + ^
STACK CFI 12dc43 .cfa: $esp 32 +
STACK CFI 12dc4e .cfa: $esp 4 +
STACK CFI INIT 17cae0 f .cfa: $esp 4 + .ra: .cfa -4 + ^
STACK CFI 17cae3 .cfa: $esp 32 +
STACK CFI 17caee .cfa: $esp 4 +
STACK CFI INIT 17c800 f .cfa: $esp 4 + .ra: .cfa -4 + ^
STACK CFI 17c803 .cfa: $esp 32 +
STACK CFI 17c80e .cfa: $esp 4 +
STACK CFI INIT 1a2c40 5 .cfa: $esp 4 + .ra: .cfa -4 + ^
STACK CFI INIT 111b90 98 .cfa: $esp 4 + .ra: .cfa -4 + ^
STACK CFI 111b91 $ebx: .cfa -8 + ^ .cfa: $esp 8 +
STACK CFI 111b94 .cfa: $esp 32 +
STACK CFI 111bd9 .cfa: $esp 24 +
STACK CFI 111bdc .cfa: $esp 32 +
STACK CFI 111bdf .cfa: $esp 8 +
STACK CFI 111be0 $ebx: $ebx .cfa: $esp 4 +
STACK CFI 111be1 $ebx: .cfa -8 + ^ .cfa: $esp 32 +
STACK CFI 111bf8 .cfa: $esp 8 +
STACK CFI 111bf9 $ebx: $ebx .cfa: $esp 4 +
STACK CFI 111c00 $ebx: .cfa -8 + ^ .cfa: $esp 32 +
STACK CFI 111c08 .cfa: $esp 28 +
STACK CFI 111c0b .cfa: $esp 32 +
STACK CFI 111c0e .cfa: $esp 8 +
STACK CFI 111c0f $ebx: $ebx .cfa: $esp 4 +
STACK CFI 111c10 $ebx: .cfa -8 + ^ .cfa: $esp 32 +
STACK CFI 111c23 .cfa: $esp 28 +
STACK CFI 111c26 .cfa: $esp 32 +
STACK CFI INIT 111f50 98 .cfa: $esp 4 + .ra: .cfa -4 + ^
STACK CFI 111f51 $ebx: .cfa -8 + ^ .cfa: $esp 8 +
STACK CFI 111f54 .cfa: $esp 32 +
STACK CFI 111f99 .cfa: $esp 24 +
STACK CFI 111f9c .cfa: $esp 32 +
STACK CFI 111f9f .cfa: $esp 8 +
STACK CFI 111fa0 $ebx: $ebx .cfa: $esp 4 +
STACK CFI 111fa1 $ebx: .cfa -8 + ^ .cfa: $esp 32 +
STACK CFI 111fb8 .cfa: $esp 8 +
STACK CFI 111fb9 $ebx: $ebx .cfa: $esp 4 +
STACK CFI 111fc0 $ebx: .cfa -8 + ^ .cfa: $esp 32 +
STACK CFI 111fc8 .cfa: $esp 28 +
STACK CFI 111fcb .cfa: $esp 32 +
STACK CFI 111fce .cfa: $esp 8 +
STACK CFI 111fcf $ebx: $ebx .cfa: $esp 4 +
STACK CFI 111fd0 $ebx: .cfa -8 + ^ .cfa: $esp 32 +
STACK CFI 111fe3 .cfa: $esp 28 +
STACK CFI 111fe6 .cfa: $esp 32 +
STACK CFI INIT 11ad30 ca .cfa: $esp 4 + .ra: .cfa -4 + ^
STACK CFI 11ad31 $ebp: .cfa -8 + ^ .cfa: $esp 8 +
STACK CFI 11ad34 .cfa: $esp 128 +
STACK CFI 11ad8c .cfa: $esp 120 +
STACK CFI 11ad8f .cfa: $esp 128 +
STACK CFI 11adc6 .cfa: $esp 8 +
STACK CFI 11adc9 $ebp: $ebp .cfa: $esp 4 +
STACK CFI 11adca $ebp: .cfa -8 + ^ .cfa: $esp 128 +
STACK CFI INIT 11a850 ca .cfa: $esp 4 + .ra: .cfa -4 + ^
STACK CFI 11a851 $ebp: .cfa -8 + ^ .cfa: $esp 8 +
STACK CFI 11a854 .cfa: $esp 128 +
STACK CFI 11a8ac .cfa: $esp 120 +
STACK CFI 11a8af .cfa: $esp 128 +
STACK CFI 11a8e6 .cfa: $esp 8 +
STACK CFI 11a8e9 $ebp: $ebp .cfa: $esp 4 +
STACK CFI 11a8ea $ebp: .cfa -8 + ^ .cfa: $esp 128 +
STACK CFI INIT 17c6a0 160 .cfa: $esp 4 + .ra: .cfa -4 + ^
STACK CFI 17c6a1 $ebp: .cfa -8 + ^ .cfa: $esp 8 +
STACK CFI 17c6a3 .cfa: $ebp 8 +
STACK CFI 17c7b0 $ebp: $ebp .cfa: $esp 4 +
STACK CFI 17c7b3 $ebp: .cfa -8 + ^ .cfa: $ebp 8 +
STACK CFI INIT 17c9a0 135 .cfa: $esp 4 + .ra: .cfa -4 + ^
STACK CFI 17c9a1 $ebp: .cfa -8 + ^ .cfa: $esp 8 +
STACK CFI 17c9a3 .cfa: $ebp 8 +
STACK CFI 17ca87 $ebp: $ebp .cfa: $esp 4 +
STACK CFI 17ca88 $ebp: .cfa -8 + ^ .cfa: $ebp 8 +
STACK CFI INIT 12db00 135 .cfa: $esp 4 + .ra: .cfa -4 + ^
STACK CFI 12db01 $ebp: .cfa -8 + ^ .cfa: $esp 8 +
STACK CFI 12db03 .cfa: $ebp 8 +
STACK CFI 12dbe7 $ebp: $ebp .cfa: $esp 4 +
STACK CFI 12dbe8 $ebp: .cfa -8 + ^ .cfa: $ebp 8 +
STACK CFI INIT 17cb00 5b .cfa: $esp 4 + .ra: .cfa -4 + ^
STACK CFI 17cb01 $ebp: .cfa -8 + ^ .cfa: $esp 8 +
STACK CFI 17cb03 .cfa: $ebp 8 +
STACK CFI 17cb08 $ebx: .cfa -16 + ^ $esi: .cfa -12 + ^
STACK CFI 17cb58 $ebx: $ebx
STACK CFI 17cb59 $esi: $esi
STACK CFI 17cb5a $ebp: $ebp .cfa: $esp 4 +
STACK CFI INIT 1187e0 649 .cfa: $esp 4 + .ra: .cfa -4 + ^
STACK CFI 1187e1 $ebp: .cfa -8 + ^ .cfa: $esp 8 +
STACK CFI 1187e3 .cfa: $ebp 8 +
STACK CFI 1187ee $ebx: .cfa -16 + ^ $esi: .cfa -12 + ^
STACK CFI 118abf $ebx: $ebx
STACK CFI 118ac0 $esi: $esi
STACK CFI 118ac1 $ebp: $ebp .cfa: $esp 4 +
STACK CFI 118ac2 $ebp: .cfa -8 + ^ $ebx: .cfa -16 + ^ $esi: .cfa -12 + ^ .cfa: $ebp 8 +
STACK CFI INIT 19f480 4c .cfa: $esp 4 + .ra: .cfa -4 + ^
STACK CFI 19f481 $edi: .cfa -8 + ^ .cfa: $esp 8 +
STACK CFI 19f482 $esi: .cfa -12 + ^ .cfa: $esp 12 +
STACK CFI 19f483 $ebx: .cfa -16 + ^ .cfa: $esp 16 +
STACK CFI 19f486 .cfa: $esp 32 +
STACK CFI 19f49d .cfa: $esp 28 +
STACK CFI 19f4a6 .cfa: $esp 32 +
STACK CFI 19f4c6 .cfa: $esp 16 +
STACK CFI 19f4c7 $ebx: $ebx .cfa: $esp 12 +
STACK CFI 19f4c8 $esi: $esi .cfa: $esp 8 +
STACK CFI 19f4c9 $edi: $edi .cfa: $esp 4 +
STACK CFI INIT 17cb60 11ee .cfa: $esp 4 + .ra: .cfa -4 + ^
STACK CFI 17cb61 $ebp: .cfa -8 + ^ .cfa: $esp 8 +
STACK CFI 17cb63 .cfa: $ebp 8 +
STACK CFI 17cb6e $ebx: .cfa -16 + ^ $esi: .cfa -12 + ^
STACK CFI 17d2e3 $ebx: $ebx
STACK CFI 17d2e4 $esi: $esi
STACK CFI 17d2e5 $ebp: $ebp .cfa: $esp 4 +
STACK CFI 17d2f0 $ebp: .cfa -8 + ^ $ebx: .cfa -16 + ^ $esi: .cfa -12 + ^ .cfa: $ebp 8 +
STACK CFI INIT 18cda0 432 .cfa: $esp 4 + .ra: .cfa -4 + ^
STACK CFI 18cda1 $ebp: .cfa -8 + ^ .cfa: $esp 8 +
STACK CFI 18cda3 .cfa: $ebp 8 +
STACK CFI 18d02e $ebp: $ebp .cfa: $esp 4 +
STACK CFI 18d031 $ebp: .cfa -8 + ^ .cfa: $ebp 8 +
STACK CFI INIT 18f110 3945 .cfa: $esp 4 + .ra: .cfa -4 + ^
STACK CFI 18f111 $ebp: .cfa -8 + ^ .cfa: $esp 8 +
STACK CFI 18f113 .cfa: $ebp 8 +
STACK CFI 18f11f $ebx: .cfa -20 + ^ $edi: .cfa -12 + ^ $esi: .cfa -16 + ^
STACK CFI 190bbb $ebx: $ebx
STACK CFI 190bbc $esi: $esi
STACK CFI 190bbd $edi: $edi
STACK CFI 190bbe $ebp: $ebp .cfa: $esp 4 +
STACK CFI 190bc1 $ebp: .cfa -8 + ^ $ebx: .cfa -20 + ^ $edi: .cfa -12 + ^ $esi: .cfa -16 + ^ .cfa: $ebp 8 +
STACK CFI INIT 18d1e0 4dd .cfa: $esp 4 + .ra: .cfa -4 + ^
STACK CFI 18d1e1 $ebp: .cfa -8 + ^ .cfa: $esp 8 +
STACK CFI 18d1e3 .cfa: $ebp 8 +
STACK CFI 18d1ed $ebx: .cfa -12 + ^
STACK CFI 18d25d $ebp: $ebp $ebx: $ebx .cfa: $esp 4 +
STACK CFI 18d260 $ebp: .cfa -8 + ^ $ebx: .cfa -12 + ^ .cfa: $ebp 8 +
STACK CFI INIT 11ba90 7 .cfa: $esp 4 + .ra: .cfa -4 + ^
STACK CFI INIT 1e940 22 .cfa: $esp 4 + .ra: .cfa -4 + ^
STACK CFI 1e94f .cfa: $esp 32 +
STACK CFI 1e95a .cfa: $esp 4 +
STACK CFI INIT 1e970 a .cfa: $esp 4 + .ra: .cfa -4 + ^
STACK CFI INIT 1e980 4b .cfa: $esp 4 + .ra: .cfa -4 + ^
STACK CFI 1e981 $ebx: .cfa -8 + ^ .cfa: $esp 8 +
STACK CFI 1e984 .cfa: $esp 32 +
STACK CFI 1e9ac .cfa: $esp 8 +
STACK CFI 1e9ad $ebx: $ebx .cfa: $esp 4 +
STACK CFI 1e9b0 $ebx: .cfa -8 + ^ .cfa: $esp 32 +
STACK CFI 1e9c8 .cfa: $esp 8 +
STACK CFI 1e9c9 $ebx: $ebx .cfa: $esp 4 +
STACK CFI INIT 1e9d0 a2 .cfa: $esp 4 + .ra: .cfa -4 + ^
STACK CFI 1e9d1 $edi: .cfa -8 + ^ .cfa: $esp 8 +
STACK CFI 1e9d2 $esi: .cfa -12 + ^ .cfa: $esp 12 +
STACK CFI 1e9d5 $ebx: .cfa -16 + ^ .cfa: $esp 16 +
STACK CFI 1e9d8 .cfa: $esp 48 +
STACK CFI 1ea11 .cfa: $esp 16 +
STACK CFI 1ea12 $ebx: $ebx .cfa: $esp 12 +
STACK CFI 1ea13 $esi: $esi .cfa: $esp 8 +
STACK CFI 1ea14 $edi: $edi .cfa: $esp 4 +
STACK CFI 1ea20 $ebx: .cfa -16 + ^ $edi: .cfa -8 + ^ $esi: .cfa -12 + ^ .cfa: $esp 48 +
STACK CFI 1ea36 .cfa: $esp 40 +
STACK CFI 1ea39 .cfa: $esp 48 +
STACK CFI INIT 1ea80 aa .cfa: $esp 4 + .ra: .cfa -4 + ^
STACK CFI 1ea81 $edi: .cfa -8 + ^ .cfa: $esp 8 +
STACK CFI 1ea82 $esi: .cfa -12 + ^ .cfa: $esp 12 +
STACK CFI 1ea85 $ebx: .cfa -16 + ^ .cfa: $esp 16 +
STACK CFI 1ea88 .cfa: $esp 112 +
STACK CFI 1ead5 .cfa: $esp 108 +
STACK CFI 1ead8 .cfa: $esp 112 +
STACK CFI 1eb26 .cfa: $esp 16 +
STACK CFI 1eb27 $ebx: $ebx .cfa: $esp 12 +
STACK CFI 1eb28 $esi: $esi .cfa: $esp 8 +
STACK CFI 1eb29 $edi: $edi .cfa: $esp 4 +
STACK CFI INIT 1eb30 8c .cfa: $esp 4 + .ra: .cfa -4 + ^
STACK CFI 1eb31 $edi: .cfa -8 + ^ .cfa: $esp 8 +
STACK CFI 1eb32 $esi: .cfa -12 + ^ .cfa: $esp 12 +
STACK CFI 1eb33 $ebx: .cfa -16 + ^ .cfa: $esp 16 +
STACK CFI 1eb36 .cfa: $esp 32 +
STACK CFI 1eb65 .cfa: $esp 28 +
STACK CFI 1eb68 .cfa: $esp 32 +
STACK CFI 1eb72 .cfa: $esp 28 +
STACK CFI 1eb75 .cfa: $esp 32 +
STACK CFI 1eb87 .cfa: $esp 28 +
STACK CFI 1eb8a .cfa: $esp 32 +
STACK CFI 1eba3 .cfa: $esp 16 +
STACK CFI 1eba4 $ebx: $ebx .cfa: $esp 12 +
STACK CFI 1eba5 $esi: $esi .cfa: $esp 8 +
STACK CFI 1eba6 $edi: $edi .cfa: $esp 4 +
STACK CFI 1ebb0 $ebx: .cfa -16 + ^ $edi: .cfa -8 + ^ $esi: .cfa -12 + ^ .cfa: $esp 32 +
STACK CFI INIT 1ebc0 1b .cfa: $esp 4 + .ra: .cfa -4 + ^
STACK CFI 1ebc1 $ebx: .cfa -8 + ^ .cfa: $esp 8 +
STACK CFI 1ebc4 .cfa: $esp 32 +
STACK CFI 1ebd3 .cfa: $esp 8 +
STACK CFI 1ebd6 $ebx: $ebx .cfa: $esp 4 +
STACK CFI INIT 1ebe0 48 .cfa: $esp 4 + .ra: .cfa -4 + ^
STACK CFI 1ebe1 $ebx: .cfa -8 + ^ .cfa: $esp 8 +
STACK CFI 1ebe4 .cfa: $esp 32 +
STACK CFI 1ec26 .cfa: $esp 8 +
STACK CFI 1ec27 $ebx: $ebx .cfa: $esp 4 +
STACK CFI INIT 1ec30 2b8 .cfa: $esp 4 + .ra: .cfa -4 + ^
STACK CFI 1ec31 $esi: .cfa -8 + ^ .cfa: $esp 8 +
STACK CFI 1ec32 $ebx: .cfa -12 + ^ .cfa: $esp 12 +
STACK CFI 1ec35 .cfa: $esp 64 +
STACK CFI 1edc7 .cfa: $esp 12 +
STACK CFI 1edc8 $ebx: $ebx .cfa: $esp 8 +
STACK CFI 1edc9 $esi: $esi .cfa: $esp 4 +
STACK CFI 1edd0 $ebx: .cfa -12 + ^ $esi: .cfa -8 + ^ .cfa: $esp 64 +
STACK CFI 1ee7f .cfa: $esp 12 +
STACK CFI 1ee80 $ebx: $ebx .cfa: $esp 8 +
STACK CFI 1ee81 $esi: $esi .cfa: $esp 4 +
STACK CFI 1ee82 $ebx: .cfa -12 + ^ $esi: .cfa -8 + ^ .cfa: $esp 64 +
STACK CFI INIT 1eef0 70 .cfa: $esp 4 + .ra: .cfa -4 + ^
STACK CFI 1eef1 $esi: .cfa -8 + ^ .cfa: $esp 8 +
STACK CFI 1eef2 $ebx: .cfa -12 + ^ .cfa: $esp 12 +
STACK CFI 1eef5 .cfa: $esp 32 +
STACK CFI 1ef17 .cfa: $esp 28 +
STACK CFI 1ef1a .cfa: $esp 32 +
STACK CFI 1ef57 .cfa: $esp 28 +
STACK CFI 1ef5a .cfa: $esp 32 +
STACK CFI 1ef5d .cfa: $esp 12 +
STACK CFI 1ef5e $ebx: $ebx .cfa: $esp 8 +
STACK CFI 1ef5f $esi: $esi .cfa: $esp 4 +
STACK CFI INIT 1ef60 73 .cfa: $esp 4 + .ra: .cfa -4 + ^
STACK CFI 1ef63 .cfa: $esp 32 +
STACK CFI 1efa8 .cfa: $esp 4 +
STACK CFI 1efb0 .cfa: $esp 32 +
STACK CFI 1efcc .cfa: $esp 28 +
STACK CFI 1efcf .cfa: $esp 32 +
STACK CFI 1efd2 .cfa: $esp 4 +
STACK CFI INIT 1efe0 171 .cfa: $esp 4 + .ra: .cfa -4 + ^
STACK CFI 1efe1 $ebp: .cfa -8 + ^ .cfa: $esp 8 +
STACK CFI 1efe7 .cfa: $esp 160 +
STACK CFI 1f11c .cfa: $esp 8 +
STACK CFI 1f11d $ebp: $ebp .cfa: $esp 4 +
STACK CFI 1f11e $ebp: .cfa -8 + ^ .cfa: $esp 160 +
STACK CFI INIT 1f160 327 .cfa: $esp 4 + .ra: .cfa -4 + ^
STACK CFI 1f161 $ebp: .cfa -8 + ^ .cfa: $esp 8 +
STACK CFI 1f163 .cfa: $ebp 8 +
STACK CFI 1f31f $ebp: $ebp .cfa: $esp 4 +
STACK CFI 1f320 $ebp: .cfa -8 + ^ .cfa: $ebp 8 +
STACK CFI INIT 1f490 15f .cfa: $esp 4 + .ra: .cfa -4 + ^
STACK CFI 1f491 $ebp: .cfa -8 + ^ .cfa: $esp 8 +
STACK CFI 1f492 $edi: .cfa -12 + ^ .cfa: $esp 12 +
STACK CFI 1f495 $esi: .cfa -16 + ^ .cfa: $esp 16 +
STACK CFI 1f496 $ebx: .cfa -20 + ^ .cfa: $esp 20 +
STACK CFI 1f4a1 .cfa: $esp 48 +
STACK CFI 1f4c8 .cfa: $esp 36 +
STACK CFI 1f4d9 .cfa: $esp 48 +
STACK CFI 1f4ef .cfa: $esp 44 +
STACK CFI 1f4f4 .cfa: $esp 48 +
STACK CFI 1f57d .cfa: $esp 20 +
STACK CFI 1f57e $ebx: $ebx .cfa: $esp 16 +
STACK CFI 1f57f $esi: $esi .cfa: $esp 12 +
STACK CFI 1f580 $edi: $edi .cfa: $esp 8 +
STACK CFI 1f581 $ebp: $ebp .cfa: $esp 4 +
STACK CFI 1f590 $ebp: .cfa -8 + ^ $ebx: .cfa -20 + ^ $edi: .cfa -12 + ^ $esi: .cfa -16 + ^ .cfa: $esp 48 +
STACK CFI 1f595 .cfa: $esp 20 +
STACK CFI 1f596 $ebx: $ebx .cfa: $esp 16 +
STACK CFI 1f597 $esi: $esi .cfa: $esp 12 +
STACK CFI 1f598 $edi: $edi .cfa: $esp 8 +
STACK CFI 1f599 $ebp: $ebp .cfa: $esp 4 +
STACK CFI 1f5a0 $ebp: .cfa -8 + ^ $ebx: .cfa -20 + ^ $edi: .cfa -12 + ^ $esi: .cfa -16 + ^ .cfa: $esp 48 +
STACK CFI INIT 1f5f0 14 .cfa: $esp 4 + .ra: .cfa -4 + ^
STACK CFI INIT 1f610 15 .cfa: $esp 4 + .ra: .cfa -4 + ^
STACK CFI INIT 1f630 24c .cfa: $esp 4 + .ra: .cfa -4 + ^
STACK CFI 1f631 $edi: .cfa -8 + ^ .cfa: $esp 8 +
STACK CFI 1f632 $esi: .cfa -12 + ^ .cfa: $esp 12 +
STACK CFI 1f635 $ebx: .cfa -16 + ^ .cfa: $esp 16 +
STACK CFI 1f63c .cfa: $esp 64 +
STACK CFI 1f668 .cfa: $esp 16 +
STACK CFI 1f66b $ebx: $ebx .cfa: $esp 12 +
STACK CFI 1f66c $esi: $esi .cfa: $esp 8 +
STACK CFI 1f66d $edi: $edi .cfa: $esp 4 +
STACK CFI 1f670 $ebx: .cfa -16 + ^ $edi: .cfa -8 + ^ $esi: .cfa -12 + ^ .cfa: $esp 64 +
STACK CFI 1f6a3 .cfa: $esp 44 +
STACK CFI 1f6ac .cfa: $esp 64 +
STACK CFI 1f752 .cfa: $esp 48 +
STACK CFI 1f755 .cfa: $esp 64 +
STACK CFI 1f854 .cfa: $esp 16 +
STACK CFI 1f857 $ebx: $ebx .cfa: $esp 12 +
STACK CFI 1f858 $esi: $esi .cfa: $esp 8 +
STACK CFI 1f859 $edi: $edi .cfa: $esp 4 +
STACK CFI 1f85a $ebx: .cfa -16 + ^ $edi: .cfa -8 + ^ $esi: .cfa -12 + ^ .cfa: $esp 64 +
STACK CFI INIT 1f880 cb .cfa: $esp 4 + .ra: .cfa -4 + ^
STACK CFI 1f881 $edi: .cfa -8 + ^ .cfa: $esp 8 +
STACK CFI 1f882 $esi: .cfa -12 + ^ .cfa: $esp 12 +
STACK CFI 1f888 $ebx: .cfa -16 + ^ .cfa: $esp 16 +
STACK CFI 1f88b .cfa: $esp 32 +
STACK CFI 1f8b3 .cfa: $esp 20 +
STACK CFI 1f8c2 .cfa: $esp 32 +
STACK CFI 1f941 .cfa: $esp 28 +
STACK CFI 1f944 .cfa: $esp 32 +
STACK CFI 1f947 .cfa: $esp 16 +
STACK CFI 1f948 $ebx: $ebx .cfa: $esp 12 +
STACK CFI 1f949 $esi: $esi .cfa: $esp 8 +
STACK CFI 1f94a $edi: $edi .cfa: $esp 4 +
STACK CFI INIT 1f950 1e7 .cfa: $esp 4 + .ra: .cfa -4 + ^
STACK CFI 1f951 $ebp: .cfa -8 + ^ .cfa: $esp 8 +
STACK CFI 1f952 $edi: .cfa -12 + ^ .cfa: $esp 12 +
STACK CFI 1f953 $esi: .cfa -16 + ^ .cfa: $esp 16 +
STACK CFI 1f954 $ebx: .cfa -20 + ^ .cfa: $esp 20 +
STACK CFI 1f95e .cfa: $esp 864 +
STACK CFI 1f99e .cfa: $esp 856 +
STACK CFI 1f9a1 .cfa: $esp 864 +
STACK CFI 1f9a7 .cfa: $esp 20 +
STACK CFI 1f9a8 $ebx: $ebx .cfa: $esp 16 +
STACK CFI 1f9a9 $esi: $esi .cfa: $esp 12 +
STACK CFI 1f9aa $edi: $edi .cfa: $esp 8 +
STACK CFI 1f9ab $ebp: $ebp .cfa: $esp 4 +
STACK CFI 1f9b0 $ebp: .cfa -8 + ^ $ebx: .cfa -20 + ^ $edi: .cfa -12 + ^ $esi: .cfa -16 + ^ .cfa: $esp 864 +
STACK CFI 1f9e3 .cfa: $esp 856 +
STACK CFI 1f9e6 .cfa: $esp 864 +
STACK CFI 1f9ec .cfa: $esp 20 +
STACK CFI 1f9ed $ebx: $ebx .cfa: $esp 16 +
STACK CFI 1f9ee $esi: $esi .cfa: $esp 12 +
STACK CFI 1f9ef $edi: $edi .cfa: $esp 8 +
STACK CFI 1f9f0 $ebp: $ebp .cfa: $esp 4 +
STACK CFI 1f9f1 $ebp: .cfa -8 + ^ $ebx: .cfa -20 + ^ $edi: .cfa -12 + ^ $esi: .cfa -16 + ^ .cfa: $esp 864 +
STACK CFI 1fa81 .cfa: $esp 20 +
STACK CFI 1fa82 $ebx: $ebx .cfa: $esp 16 +
STACK CFI 1fa83 $esi: $esi .cfa: $esp 12 +
STACK CFI 1fa84 $edi: $edi .cfa: $esp 8 +
STACK CFI 1fa85 $ebp: $ebp .cfa: $esp 4 +
STACK CFI 1fa90 $ebp: .cfa -8 + ^ $ebx: .cfa -20 + ^ $edi: .cfa -12 + ^ $esi: .cfa -16 + ^ .cfa: $esp 864 +
STACK CFI 1fb15 .cfa: $esp 860 +
STACK CFI 1fb18 .cfa: $esp 864 +
STACK CFI INIT 1fb40 1e31 .cfa: $esp 4 + .ra: .cfa -4 + ^
STACK CFI 1fb41 $ebp: .cfa -8 + ^ .cfa: $esp 8 +
STACK CFI 1fb43 .cfa: $ebp 8 +
STACK CFI 1fb4d $ebx: .cfa -12 + ^
STACK CFI 1fbae $ebp: $ebp $ebx: $ebx .cfa: $esp 4 +
STACK CFI 1fbb0 $ebp: .cfa -8 + ^ $ebx: .cfa -12 + ^ .cfa: $ebp 8 +
STACK CFI INIT 21980 212 .cfa: $esp 4 + .ra: .cfa -4 + ^
STACK CFI 21981 $ebp: .cfa -8 + ^ .cfa: $esp 8 +
STACK CFI 21982 $edi: .cfa -12 + ^ .cfa: $esp 12 +
STACK CFI 21988 $esi: .cfa -16 + ^ .cfa: $esp 16 +
STACK CFI 21989 $ebx: .cfa -20 + ^ .cfa: $esp 20 +
STACK CFI 21995 .cfa: $esp 33104 +
STACK CFI 219ba .cfa: $esp 33092 +
STACK CFI 219bd .cfa: $esp 33104 +
STACK CFI 219dc .cfa: $esp 33092 +
STACK CFI 219e5 .cfa: $esp 33104 +
STACK CFI 21b78 .cfa: $esp 33088 +
STACK CFI 21b7b .cfa: $esp 33104 +
STACK CFI 21b8d .cfa: $esp 20 +
STACK CFI 21b8e $ebx: $ebx .cfa: $esp 16 +
STACK CFI 21b8f $esi: $esi .cfa: $esp 12 +
STACK CFI 21b90 $edi: $edi .cfa: $esp 8 +
STACK CFI 21b91 $ebp: $ebp .cfa: $esp 4 +
STACK CFI INIT 21ba0 45 .cfa: $esp 4 + .ra: .cfa -4 + ^
STACK CFI 21ba1 $ebx: .cfa -8 + ^ .cfa: $esp 8 +
STACK CFI 21ba4 .cfa: $esp 32 +
STACK CFI 21bd0 .cfa: $esp 20 +
STACK CFI 21bd3 .cfa: $esp 32 +
STACK CFI 21bda .cfa: $esp 8 +
STACK CFI 21bdb $ebx: $ebx .cfa: $esp 4 +
STACK CFI 21be0 $ebx: .cfa -8 + ^ .cfa: $esp 32 +
STACK CFI 21be3 .cfa: $esp 8 +
STACK CFI 21be4 $ebx: $ebx .cfa: $esp 4 +
STACK CFI INIT 21bf0 27b .cfa: $esp 4 + .ra: .cfa -4 + ^
STACK CFI 21bf1 $ebp: .cfa -8 + ^ .cfa: $esp 8 +
STACK CFI 21bf2 $edi: .cfa -12 + ^ .cfa: $esp 12 +
STACK CFI 21bf3 $esi: .cfa -16 + ^ .cfa: $esp 16 +
STACK CFI 21bf4 $ebx: .cfa -20 + ^ .cfa: $esp 20 +
STACK CFI 21bf7 .cfa: $esp 64 +
STACK CFI 21cc8 .cfa: $esp 20 +
STACK CFI 21cc9 $ebx: $ebx .cfa: $esp 16 +
STACK CFI 21cca $esi: $esi .cfa: $esp 12 +
STACK CFI 21ccb $edi: $edi .cfa: $esp 8 +
STACK CFI 21ccc $ebp: $ebp .cfa: $esp 4 +
STACK CFI 21cd0 $ebp: .cfa -8 + ^ $ebx: .cfa -20 + ^ $edi: .cfa -12 + ^ $esi: .cfa -16 + ^ .cfa: $esp 64 +
STACK CFI 21d5d .cfa: $esp 20 +
STACK CFI 21d5e $ebx: $ebx .cfa: $esp 16 +
STACK CFI 21d5f $esi: $esi .cfa: $esp 12 +
STACK CFI 21d60 $edi: $edi .cfa: $esp 8 +
STACK CFI 21d61 $ebp: $ebp .cfa: $esp 4 +
STACK CFI 21d62 $ebp: .cfa -8 + ^ $ebx: .cfa -20 + ^ $edi: .cfa -12 + ^ $esi: .cfa -16 + ^ .cfa: $esp 64 +
STACK CFI 21d98 .cfa: $esp 52 +
STACK CFI 21d9b .cfa: $esp 64 +
STACK CFI 21de2 .cfa: $esp 52 +
STACK CFI 21de5 .cfa: $esp 64 +
STACK CFI 21e30 .cfa: $esp 52 +
STACK CFI 21e33 .cfa: $esp 64 +
STACK CFI 21e63 .cfa: $esp 52 +
STACK CFI 21e66 .cfa: $esp 64 +
STACK CFI INIT 21e70 236 .cfa: $esp 4 + .ra: .cfa -4 + ^
STACK CFI 21e71 $esi: .cfa -8 + ^ .cfa: $esp 8 +
STACK CFI 21e72 $ebx: .cfa -12 + ^ .cfa: $esp 12 +
STACK CFI 21e75 .cfa: $esp 48 +
STACK CFI 21e8c .cfa: $esp 12 +
STACK CFI 21e8d $ebx: $ebx .cfa: $esp 8 +
STACK CFI 21e8e $esi: $esi .cfa: $esp 4 +
STACK CFI 21e90 $ebx: .cfa -12 + ^ $esi: .cfa -8 + ^ .cfa: $esp 48 +
STACK CFI 21e9e .cfa: $esp 44 +
STACK CFI 21ea1 .cfa: $esp 48 +
STACK CFI 21edb .cfa: $esp 12 +
STACK CFI 21edc $ebx: $ebx .cfa: $esp 8 +
STACK CFI 21edd $esi: $esi .cfa: $esp 4 +
STACK CFI 21ee0 $ebx: .cfa -12 + ^ $esi: .cfa -8 + ^ .cfa: $esp 48 +
STACK CFI 21f0b .cfa: $esp 32 +
STACK CFI 21f0e .cfa: $esp 48 +
STACK CFI 21f37 .cfa: $esp 12 +
STACK CFI 21f38 $ebx: $ebx .cfa: $esp 8 +
STACK CFI 21f39 $esi: $esi .cfa: $esp 4 +
STACK CFI 21f40 $ebx: .cfa -12 + ^ $esi: .cfa -8 + ^ .cfa: $esp 48 +
STACK CFI 21fb3 .cfa: $esp 36 +
STACK CFI 21fb6 .cfa: $esp 48 +
STACK CFI 22037 .cfa: $esp 32 +
STACK CFI 2203a .cfa: $esp 48 +
STACK CFI 22081 .cfa: $esp 32 +
STACK CFI 22084 .cfa: $esp 48 +
STACK CFI INIT 220b0 64 .cfa: $esp 4 + .ra: .cfa -4 + ^
STACK CFI 220b3 .cfa: $esp 64 +
STACK CFI 22104 .cfa: $esp 48 +
STACK CFI 22107 .cfa: $esp 64 +
STACK CFI 22113 .cfa: $esp 4 +
STACK CFI INIT 22120 142 .cfa: $esp 4 + .ra: .cfa -4 + ^
STACK CFI 22121 $ebx: .cfa -8 + ^ .cfa: $esp 8 +
STACK CFI 22124 .cfa: $esp 48 +
STACK CFI 22137 .cfa: $esp 8 +
STACK CFI 22138 $ebx: $ebx .cfa: $esp 4 +
STACK CFI 22140 $ebx: .cfa -8 + ^ .cfa: $esp 48 +
STACK CFI 2214e .cfa: $esp 44 +
STACK CFI 22151 .cfa: $esp 48 +
STACK CFI 221cb .cfa: $esp 32 +
STACK CFI 221ce .cfa: $esp 48 +
STACK CFI 22251 .cfa: $esp 32 +
STACK CFI 22254 .cfa: $esp 48 +
STACK CFI INIT 22270 1100 .cfa: $esp 4 + .ra: .cfa -4 + ^
STACK CFI 22271 $ebp: .cfa -8 + ^ .cfa: $esp 8 +
STACK CFI 22273 .cfa: $ebp 8 +
STACK CFI 2227f $ebx: .cfa -20 + ^ $edi: .cfa -12 + ^ $esi: .cfa -16 + ^
STACK CFI 222ec $ebx: $ebx
STACK CFI 222ed $esi: $esi
STACK CFI 222ee $edi: $edi
STACK CFI 222ef $ebp: $ebp .cfa: $esp 4 +
STACK CFI 222f0 $ebp: .cfa -8 + ^ $ebx: .cfa -20 + ^ $edi: .cfa -12 + ^ $esi: .cfa -16 + ^ .cfa: $ebp 8 +
STACK CFI INIT 1a3ec0 f6 .cfa: $esp 4 + .ra: .cfa -4 + ^
STACK CFI 1a3ec1 $ebp: .cfa -8 + ^ .cfa: $esp 8 +
STACK CFI 1a3ec3 .cfa: $ebp 8 +
STACK CFI 1a3f88 $ebp: $ebp .cfa: $esp 4 +
STACK CFI 1a3f89 $ebp: .cfa -8 + ^ .cfa: $ebp 8 +
STACK CFI INIT 110470 af2 .cfa: $esp 4 + .ra: .cfa -4 + ^
STACK CFI 110471 $ebp: .cfa -8 + ^ .cfa: $esp 8 +
STACK CFI 110473 .cfa: $ebp 8 +
STACK CFI 11047e $ebx: .cfa -16 + ^ $esi: .cfa -12 + ^
STACK CFI 11078b $ebx: $ebx
STACK CFI 11078c $esi: $esi
STACK CFI 11078d $ebp: $ebp .cfa: $esp 4 +
STACK CFI 110790 $ebp: .cfa -8 + ^ $ebx: .cfa -16 + ^ $esi: .cfa -12 + ^ .cfa: $ebp 8 +
STACK CFI INIT 118e30 649 .cfa: $esp 4 + .ra: .cfa -4 + ^
STACK CFI 118e31 $ebp: .cfa -8 + ^ .cfa: $esp 8 +
STACK CFI 118e33 .cfa: $ebp 8 +
STACK CFI 118e3e $ebx: .cfa -16 + ^ $esi: .cfa -12 + ^
STACK CFI 11910f $ebx: $ebx
STACK CFI 119110 $esi: $esi
STACK CFI 119111 $ebp: $ebp .cfa: $esp 4 +
STACK CFI 119112 $ebp: .cfa -8 + ^ $ebx: .cfa -16 + ^ $esi: .cfa -12 + ^ .cfa: $ebp 8 +
STACK CFI INIT 174f10 7df .cfa: $esp 4 + .ra: .cfa -4 + ^
STACK CFI 174f11 $ebp: .cfa -8 + ^ .cfa: $esp 8 +
STACK CFI 174f13 .cfa: $ebp 8 +
STACK CFI 174f15 $ebx: .cfa -16 + ^ $esi: .cfa -12 + ^
STACK CFI 1753b1 $ebx: $ebx
STACK CFI 1753b2 $esi: $esi
STACK CFI 1753b3 $ebp: $ebp .cfa: $esp 4 +
STACK CFI 1753b4 $ebp: .cfa -8 + ^ $ebx: .cfa -16 + ^ $esi: .cfa -12 + ^ .cfa: $ebp 8 +
STACK CFI INIT 174020 255 .cfa: $esp 4 + .ra: .cfa -4 + ^
STACK CFI 174021 $ebp: .cfa -8 + ^ .cfa: $esp 8 +
STACK CFI 174023 .cfa: $ebp 8 +
STACK CFI 17419f $ebp: $ebp .cfa: $esp 4 +
STACK CFI 1741a0 $ebp: .cfa -8 + ^ .cfa: $ebp 8 +
STACK CFI INIT 175940 7df .cfa: $esp 4 + .ra: .cfa -4 + ^
STACK CFI 175941 $ebp: .cfa -8 + ^ .cfa: $esp 8 +
STACK CFI 175943 .cfa: $ebp 8 +
STACK CFI 175945 $ebx: .cfa -16 + ^ $esi: .cfa -12 + ^
STACK CFI 175de1 $ebx: $ebx
STACK CFI 175de2 $esi: $esi
STACK CFI 175de3 $ebp: $ebp .cfa: $esp 4 +
STACK CFI 175de4 $ebp: .cfa -8 + ^ $ebx: .cfa -16 + ^ $esi: .cfa -12 + ^ .cfa: $ebp 8 +
STACK CFI INIT 144050 6e9 .cfa: $esp 4 + .ra: .cfa -4 + ^
STACK CFI 144051 $ebp: .cfa -8 + ^ .cfa: $esp 8 +
STACK CFI 144053 .cfa: $ebp 8 +
STACK CFI 14405b $ebx: .cfa -16 + ^ $esi: .cfa -12 + ^
STACK CFI 1440cf $ebx: $ebx
STACK CFI 1440d0 $esi: $esi
STACK CFI 1440d1 $ebp: $ebp .cfa: $esp 4 +
STACK CFI 1440d4 $ebp: .cfa -8 + ^ $ebx: .cfa -16 + ^ $esi: .cfa -12 + ^ .cfa: $ebp 8 +
STACK CFI INIT 143810 15f .cfa: $esp 4 + .ra: .cfa -4 + ^
STACK CFI 143811 $ebp: .cfa -8 + ^ .cfa: $esp 8 +
STACK CFI 143813 .cfa: $ebp 8 +
STACK CFI 143869 $ebp: $ebp .cfa: $esp 4 +
STACK CFI 143870 $ebp: .cfa -8 + ^ .cfa: $ebp 8 +
STACK CFI 14391f $ebp: $ebp .cfa: $esp 4 +
STACK CFI 143922 $ebp: .cfa -8 + ^ .cfa: $ebp 8 +
STACK CFI INIT 19fde0 5e .cfa: $esp 4 + .ra: .cfa -4 + ^
STACK CFI 19fde1 $edi: .cfa -8 + ^ .cfa: $esp 8 +
STACK CFI 19fde2 $esi: .cfa -12 + ^ .cfa: $esp 12 +
STACK CFI 19fde3 $ebx: .cfa -16 + ^ .cfa: $esp 16 +
STACK CFI 19fde6 .cfa: $esp 32 +
STACK CFI 19fdfd .cfa: $esp 28 +
STACK CFI 19fe06 .cfa: $esp 32 +
STACK CFI 19fe38 .cfa: $esp 16 +
STACK CFI 19fe39 $ebx: $ebx .cfa: $esp 12 +
STACK CFI 19fe3a $esi: $esi .cfa: $esp 8 +
STACK CFI 19fe3b $edi: $edi .cfa: $esp 4 +
STACK CFI INIT 16a430 6e9 .cfa: $esp 4 + .ra: .cfa -4 + ^
STACK CFI 16a431 $ebp: .cfa -8 + ^ .cfa: $esp 8 +
STACK CFI 16a433 .cfa: $ebp 8 +
STACK CFI 16a43b $ebx: .cfa -16 + ^ $esi: .cfa -12 + ^
STACK CFI 16a4ae $ebx: $ebx
STACK CFI 16a4af $esi: $esi
STACK CFI 16a4b0 $ebp: $ebp .cfa: $esp 4 +
STACK CFI 16a4b3 $ebp: .cfa -8 + ^ $ebx: .cfa -16 + ^ $esi: .cfa -12 + ^ .cfa: $ebp 8 +
STACK CFI INIT 1483f0 6e9 .cfa: $esp 4 + .ra: .cfa -4 + ^
STACK CFI 1483f1 $ebp: .cfa -8 + ^ .cfa: $esp 8 +
STACK CFI 1483f3 .cfa: $ebp 8 +
STACK CFI 1483fb $ebx: .cfa -16 + ^ $esi: .cfa -12 + ^
STACK CFI 14846f $ebx: $ebx
STACK CFI 148470 $esi: $esi
STACK CFI 148471 $ebp: $ebp .cfa: $esp 4 +
STACK CFI 148474 $ebp: .cfa -8 + ^ $ebx: .cfa -16 + ^ $esi: .cfa -12 + ^ .cfa: $ebp 8 +
STACK CFI INIT 163e20 6e9 .cfa: $esp 4 + .ra: .cfa -4 + ^
STACK CFI 163e21 $ebp: .cfa -8 + ^ .cfa: $esp 8 +
STACK CFI 163e23 .cfa: $ebp 8 +
STACK CFI 163e2b $ebx: .cfa -16 + ^ $esi: .cfa -12 + ^
STACK CFI 163e9e $ebx: $ebx
STACK CFI 163e9f $esi: $esi
STACK CFI 163ea0 $ebp: $ebp .cfa: $esp 4 +
STACK CFI 163ea3 $ebp: .cfa -8 + ^ $ebx: .cfa -16 + ^ $esi: .cfa -12 + ^ .cfa: $ebp 8 +
STACK CFI INIT 13fdc0 6e9 .cfa: $esp 4 + .ra: .cfa -4 + ^
STACK CFI 13fdc1 $ebp: .cfa -8 + ^ .cfa: $esp 8 +
STACK CFI 13fdc3 .cfa: $ebp 8 +
STACK CFI 13fdcb $ebx: .cfa -16 + ^ $esi: .cfa -12 + ^
STACK CFI 13fe3e $ebx: $ebx
STACK CFI 13fe3f $esi: $esi
STACK CFI 13fe40 $ebp: $ebp .cfa: $esp 4 +
STACK CFI 13fe43 $ebp: .cfa -8 + ^ $ebx: .cfa -16 + ^ $esi: .cfa -12 + ^ .cfa: $ebp 8 +
STACK CFI INIT 151160 6e9 .cfa: $esp 4 + .ra: .cfa -4 + ^
STACK CFI 151161 $ebp: .cfa -8 + ^ .cfa: $esp 8 +
STACK CFI 151163 .cfa: $ebp 8 +
STACK CFI 15116b $ebx: .cfa -16 + ^ $esi: .cfa -12 + ^
STACK CFI 1511de $ebx: $ebx
STACK CFI 1511df $esi: $esi
STACK CFI 1511e0 $ebp: $ebp .cfa: $esp 4 +
STACK CFI 1511e3 $ebp: .cfa -8 + ^ $ebx: .cfa -16 + ^ $esi: .cfa -12 + ^ .cfa: $ebp 8 +
STACK CFI INIT 150a70 6e9 .cfa: $esp 4 + .ra: .cfa -4 + ^
STACK CFI 150a71 $ebp: .cfa -8 + ^ .cfa: $esp 8 +
STACK CFI 150a73 .cfa: $ebp 8 +
STACK CFI 150a7b $ebx: .cfa -16 + ^ $esi: .cfa -12 + ^
STACK CFI 150aee $ebx: $ebx
STACK CFI 150aef $esi: $esi
STACK CFI 150af0 $ebp: $ebp .cfa: $esp 4 +
STACK CFI 150af3 $ebp: .cfa -8 + ^ $ebx: .cfa -16 + ^ $esi: .cfa -12 + ^ .cfa: $ebp 8 +
STACK CFI INIT 151850 6e9 .cfa: $esp 4 + .ra: .cfa -4 + ^
STACK CFI 151851 $ebp: .cfa -8 + ^ .cfa: $esp 8 +
STACK CFI 151853 .cfa: $ebp 8 +
STACK CFI 15185b $ebx: .cfa -16 + ^ $esi: .cfa -12 + ^
STACK CFI 1518ce $ebx: $ebx
STACK CFI 1518cf $esi: $esi
STACK CFI 1518d0 $ebp: $ebp .cfa: $esp 4 +
STACK CFI 1518d3 $ebp: .cfa -8 + ^ $ebx: .cfa -16 + ^ $esi: .cfa -12 + ^ .cfa: $ebp 8 +
STACK CFI INIT 144740 6f9 .cfa: $esp 4 + .ra: .cfa -4 + ^
STACK CFI 144741 $ebp: .cfa -8 + ^ .cfa: $esp 8 +
STACK CFI 144743 .cfa: $ebp 8 +
STACK CFI 14474b $ebx: .cfa -16 + ^ $esi: .cfa -12 + ^
STACK CFI 1447bf $ebx: $ebx
STACK CFI 1447c0 $esi: $esi
STACK CFI 1447c1 $ebp: $ebp .cfa: $esp 4 +
STACK CFI 1447c4 $ebp: .cfa -8 + ^ $ebx: .cfa -16 + ^ $esi: .cfa -12 + ^ .cfa: $ebp 8 +
STACK CFI INIT 12c6d0 104c .cfa: $esp 4 + .ra: .cfa -4 + ^
STACK CFI 12c6d1 $ebp: .cfa -8 + ^ .cfa: $esp 8 +
STACK CFI 12c6d3 .cfa: $ebp 8 +
STACK CFI 12c6df $ebx: .cfa -20 + ^ $edi: .cfa -12 + ^ $esi: .cfa -16 + ^
STACK CFI 12cd17 $ebx: $ebx
STACK CFI 12cd18 $esi: $esi
STACK CFI 12cd19 $edi: $edi
STACK CFI 12cd1a $ebp: $ebp .cfa: $esp 4 +
STACK CFI 12cd20 $ebp: .cfa -8 + ^ $ebx: .cfa -20 + ^ $edi: .cfa -12 + ^ $esi: .cfa -16 + ^ .cfa: $ebp 8 +
STACK CFI INIT 176120 255 .cfa: $esp 4 + .ra: .cfa -4 + ^
STACK CFI 176121 $ebp: .cfa -8 + ^ .cfa: $esp 8 +
STACK CFI 176123 .cfa: $ebp 8 +
STACK CFI 176299 $ebp: $ebp .cfa: $esp 4 +
STACK CFI 1762a0 $ebp: .cfa -8 + ^ .cfa: $ebp 8 +
STACK CFI INIT 149eb0 15a .cfa: $esp 4 + .ra: .cfa -4 + ^
STACK CFI 149eb1 $ebp: .cfa -8 + ^ .cfa: $esp 8 +
STACK CFI 149eb3 .cfa: $ebp 8 +
STACK CFI 149f09 $ebp: $ebp .cfa: $esp 4 +
STACK CFI 149f10 $ebp: .cfa -8 + ^ .cfa: $ebp 8 +
STACK CFI 149fba $ebp: $ebp .cfa: $esp 4 +
STACK CFI 149fbd $ebp: .cfa -8 + ^ .cfa: $ebp 8 +
STACK CFI INIT 19f840 174 .cfa: $esp 4 + .ra: .cfa -4 + ^
STACK CFI 19f841 $ebp: .cfa -8 + ^ .cfa: $esp 8 +
STACK CFI 19f842 $edi: .cfa -12 + ^ .cfa: $esp 12 +
STACK CFI 19f846 $esi: .cfa -16 + ^ .cfa: $esp 16 +
STACK CFI 19f847 $ebx: .cfa -20 + ^ .cfa: $esp 20 +
STACK CFI 19f84a .cfa: $esp 64 +
STACK CFI 19f8cf .cfa: $esp 20 +
STACK CFI 19f8d0 $ebx: $ebx .cfa: $esp 16 +
STACK CFI 19f8d1 $esi: $esi .cfa: $esp 12 +
STACK CFI 19f8d2 $edi: $edi .cfa: $esp 8 +
STACK CFI 19f8d3 $ebp: $ebp .cfa: $esp 4 +
STACK CFI 19f8e0 $ebp: .cfa -8 + ^ $ebx: .cfa -20 + ^ $edi: .cfa -12 + ^ $esi: .cfa -16 + ^ .cfa: $esp 64 +
STACK CFI 19f9ab .cfa: $esp 20 +
STACK CFI 19f9ae $ebx: $ebx .cfa: $esp 16 +
STACK CFI 19f9af $esi: $esi .cfa: $esp 12 +
STACK CFI 19f9b0 $edi: $edi .cfa: $esp 8 +
STACK CFI 19f9b1 $ebp: $ebp .cfa: $esp 4 +
STACK CFI INIT 19fce0 fb .cfa: $esp 4 + .ra: .cfa -4 + ^
STACK CFI 19fce1 $ebp: .cfa -8 + ^ .cfa: $esp 8 +
STACK CFI 19fce2 $edi: .cfa -12 + ^ .cfa: $esp 12 +
STACK CFI 19fce3 $esi: .cfa -16 + ^ .cfa: $esp 16 +
STACK CFI 19fce4 $ebx: .cfa -20 + ^ .cfa: $esp 20 +
STACK CFI 19fce9 .cfa: $esp 64 +
STACK CFI 19fcf5 .cfa: $esp 60 +
STACK CFI 19fcf8 .cfa: $esp 64 +
STACK CFI 19fd80 .cfa: $esp 20 +
STACK CFI 19fd81 $ebx: $ebx .cfa: $esp 16 +
STACK CFI 19fd82 $esi: $esi .cfa: $esp 12 +
STACK CFI 19fd83 $edi: $edi .cfa: $esp 8 +
STACK CFI 19fd84 $ebp: $ebp .cfa: $esp 4 +
STACK CFI 19fd90 $ebp: .cfa -8 + ^ $ebx: .cfa -20 + ^ $edi: .cfa -12 + ^ $esi: .cfa -16 + ^ .cfa: $esp 64 +
STACK CFI 19fda8 .cfa: $esp 60 +
STACK CFI 19fdab .cfa: $esp 64 +
STACK CFI 19fdd4 .cfa: $esp 20 +
STACK CFI 19fdd5 $ebx: $ebx .cfa: $esp 16 +
STACK CFI 19fdd6 $esi: $esi .cfa: $esp 12 +
STACK CFI 19fdd7 $edi: $edi .cfa: $esp 8 +
STACK CFI 19fdd8 $ebp: $ebp .cfa: $esp 4 +
STACK CFI INIT 11bad0 1033 .cfa: $esp 4 + .ra: .cfa -4 + ^
STACK CFI 11bad1 $ebp: .cfa -8 + ^ .cfa: $esp 8 +
STACK CFI 11bad3 .cfa: $ebp 8 +
STACK CFI 11badf $ebx: .cfa -20 + ^ $edi: .cfa -12 + ^ $esi: .cfa -16 + ^
STACK CFI 11c0f5 $ebx: $ebx
STACK CFI 11c0f6 $esi: $esi
STACK CFI 11c0f7 $edi: $edi
STACK CFI 11c0f8 $ebp: $ebp .cfa: $esp 4 +
STACK CFI 11c100 $ebp: .cfa -8 + ^ $ebx: .cfa -20 + ^ $edi: .cfa -12 + ^ $esi: .cfa -16 + ^ .cfa: $ebp 8 +
STACK CFI INIT 174cc0 246 .cfa: $esp 4 + .ra: .cfa -4 + ^
STACK CFI 174cc1 $ebp: .cfa -8 + ^ .cfa: $esp 8 +
STACK CFI 174cc3 .cfa: $ebp 8 +
STACK CFI 174e32 $ebp: $ebp .cfa: $esp 4 +
STACK CFI 174e33 $ebp: .cfa -8 + ^ .cfa: $ebp 8 +
STACK CFI INIT 143d90 153 .cfa: $esp 4 + .ra: .cfa -4 + ^
STACK CFI 143d91 $ebp: .cfa -8 + ^ .cfa: $esp 8 +
STACK CFI 143d93 .cfa: $ebp 8 +
STACK CFI 143de9 $ebp: $ebp .cfa: $esp 4 +
STACK CFI 143df0 $ebp: .cfa -8 + ^ .cfa: $ebp 8 +
STACK CFI 143e93 $ebp: $ebp .cfa: $esp 4 +
STACK CFI 143e96 $ebp: .cfa -8 + ^ .cfa: $ebp 8 +
STACK CFI INIT 19f9c0 10e .cfa: $esp 4 + .ra: .cfa -4 + ^
STACK CFI 19f9c1 $ebp: .cfa -8 + ^ .cfa: $esp 8 +
STACK CFI 19f9c2 $edi: .cfa -12 + ^ .cfa: $esp 12 +
STACK CFI 19f9c3 $esi: .cfa -16 + ^ .cfa: $esp 16 +
STACK CFI 19f9c4 $ebx: .cfa -20 + ^ .cfa: $esp 20 +
STACK CFI 19f9c7 .cfa: $esp 64 +
STACK CFI 19fa52 .cfa: $esp 20 +
STACK CFI 19fa53 $ebx: $ebx .cfa: $esp 16 +
STACK CFI 19fa54 $esi: $esi .cfa: $esp 12 +
STACK CFI 19fa55 $edi: $edi .cfa: $esp 8 +
STACK CFI 19fa56 $ebp: $ebp .cfa: $esp 4 +
STACK CFI 19fa60 $ebp: .cfa -8 + ^ $ebx: .cfa -20 + ^ $edi: .cfa -12 + ^ $esi: .cfa -16 + ^ .cfa: $esp 64 +
STACK CFI 19fac3 .cfa: $esp 20 +
STACK CFI 19fac8 $ebx: $ebx .cfa: $esp 16 +
STACK CFI 19fac9 $esi: $esi .cfa: $esp 12 +
STACK CFI 19faca $edi: $edi .cfa: $esp 8 +
STACK CFI 19facb $ebp: $ebp .cfa: $esp 4 +
STACK CFI INIT 19fad0 209 .cfa: $esp 4 + .ra: .cfa -4 + ^
STACK CFI 19fad1 $ebp: .cfa -8 + ^ .cfa: $esp 8 +
STACK CFI 19fad2 $edi: .cfa -12 + ^ .cfa: $esp 12 +
STACK CFI 19fad6 $esi: .cfa -16 + ^ .cfa: $esp 16 +
STACK CFI 19fad7 $ebx: .cfa -20 + ^ .cfa: $esp 20 +
STACK CFI 19fadc .cfa: $esp 64 +
STACK CFI 19fb1d .cfa: $esp 20 +
STACK CFI 19fb1e $ebx: $ebx .cfa: $esp 16 +
STACK CFI 19fb1f $esi: $esi .cfa: $esp 12 +
STACK CFI 19fb20 $edi: $edi .cfa: $esp 8 +
STACK CFI 19fb21 $ebp: $ebp .cfa: $esp 4 +
STACK CFI 19fb24 $ebp: .cfa -8 + ^ $ebx: .cfa -20 + ^ $edi: .cfa -12 + ^ $esi: .cfa -16 + ^ .cfa: $esp 64 +
STACK CFI 19fc1e .cfa: $esp 60 +
STACK CFI 19fc21 .cfa: $esp 64 +
STACK CFI 19fc24 .cfa: $esp 20 +
STACK CFI 19fc25 $ebx: $ebx .cfa: $esp 16 +
STACK CFI 19fc26 $esi: $esi .cfa: $esp 12 +
STACK CFI 19fc27 $edi: $edi .cfa: $esp 8 +
STACK CFI 19fc28 $ebp: $ebp .cfa: $esp 4 +
STACK CFI 19fc30 $ebp: .cfa -8 + ^ $ebx: .cfa -20 + ^ $edi: .cfa -12 + ^ $esi: .cfa -16 + ^ .cfa: $esp 64 +
STACK CFI 19fc93 .cfa: $esp 20 +
STACK CFI 19fc96 $ebx: $ebx .cfa: $esp 16 +
STACK CFI 19fc97 $esi: $esi .cfa: $esp 12 +
STACK CFI 19fc98 $edi: $edi .cfa: $esp 8 +
STACK CFI 19fc99 $ebp: $ebp .cfa: $esp 4 +
STACK CFI 19fca0 $ebp: .cfa -8 + ^ $ebx: .cfa -20 + ^ $edi: .cfa -12 + ^ $esi: .cfa -16 + ^ .cfa: $esp 64 +
STACK CFI INIT 196960 221 .cfa: $esp 4 + .ra: .cfa -4 + ^
STACK CFI 196961 $ebp: .cfa -8 + ^ .cfa: $esp 8 +
STACK CFI 196962 $edi: .cfa -12 + ^ .cfa: $esp 12 +
STACK CFI 196963 $esi: .cfa -16 + ^ .cfa: $esp 16 +
STACK CFI 196964 $ebx: .cfa -20 + ^ .cfa: $esp 20 +
STACK CFI 19696a .cfa: $esp 64 +
STACK CFI 1969f4 .cfa: $esp 20 +
STACK CFI 1969f8 $ebx: $ebx .cfa: $esp 16 +
STACK CFI 1969f9 $esi: $esi .cfa: $esp 12 +
STACK CFI 1969fa $edi: $edi .cfa: $esp 8 +
STACK CFI 1969fb $ebp: $ebp .cfa: $esp 4 +
STACK CFI 196a00 $ebp: .cfa -8 + ^ $ebx: .cfa -20 + ^ $edi: .cfa -12 + ^ $esi: .cfa -16 + ^ .cfa: $esp 64 +
STACK CFI 196a77 .cfa: $esp 56 +
STACK CFI 196a7a .cfa: $esp 64 +
STACK CFI 196ab6 .cfa: $esp 20 +
STACK CFI 196aba $ebx: $ebx .cfa: $esp 16 +
STACK CFI 196abb $esi: $esi .cfa: $esp 12 +
STACK CFI 196abc $edi: $edi .cfa: $esp 8 +
STACK CFI 196abd $ebp: $ebp .cfa: $esp 4 +
STACK CFI 196ac0 $ebp: .cfa -8 + ^ $ebx: .cfa -20 + ^ $edi: .cfa -12 + ^ $esi: .cfa -16 + ^ .cfa: $esp 64 +
STACK CFI 196b4c .cfa: $esp 20 +
STACK CFI 196b50 $ebx: $ebx .cfa: $esp 16 +
STACK CFI 196b51 $esi: $esi .cfa: $esp 12 +
STACK CFI 196b52 $edi: $edi .cfa: $esp 8 +
STACK CFI 196b53 $ebp: $ebp .cfa: $esp 4 +
STACK CFI 196b56 $ebp: .cfa -8 + ^ $ebx: .cfa -20 + ^ $edi: .cfa -12 + ^ $esi: .cfa -16 + ^ .cfa: $esp 64 +
STACK CFI INIT 146170 153 .cfa: $esp 4 + .ra: .cfa -4 + ^
STACK CFI 146171 $ebp: .cfa -8 + ^ .cfa: $esp 8 +
STACK CFI 146173 .cfa: $ebp 8 +
STACK CFI 1461c9 $ebp: $ebp .cfa: $esp 4 +
STACK CFI 1461d0 $ebp: .cfa -8 + ^ .cfa: $ebp 8 +
STACK CFI 146273 $ebp: $ebp .cfa: $esp 4 +
STACK CFI 146276 $ebp: .cfa -8 + ^ .cfa: $ebp 8 +
STACK CFI INIT 1436b0 153 .cfa: $esp 4 + .ra: .cfa -4 + ^
STACK CFI 1436b1 $ebp: .cfa -8 + ^ .cfa: $esp 8 +
STACK CFI 1436b3 .cfa: $ebp 8 +
STACK CFI 143708 $ebp: $ebp .cfa: $esp 4 +
STACK CFI 143710 $ebp: .cfa -8 + ^ .cfa: $ebp 8 +
STACK CFI 1437b3 $ebp: $ebp .cfa: $esp 4 +
STACK CFI 1437b6 $ebp: .cfa -8 + ^ .cfa: $ebp 8 +
STACK CFI INIT 143c30 153 .cfa: $esp 4 + .ra: .cfa -4 + ^
STACK CFI 143c31 $ebp: .cfa -8 + ^ .cfa: $esp 8 +
STACK CFI 143c33 .cfa: $ebp 8 +
STACK CFI 143c89 $ebp: $ebp .cfa: $esp 4 +
STACK CFI 143c90 $ebp: .cfa -8 + ^ .cfa: $ebp 8 +
STACK CFI 143d33 $ebp: $ebp .cfa: $esp 4 +
STACK CFI 143d36 $ebp: .cfa -8 + ^ .cfa: $ebp 8 +
STACK CFI INIT 11cb10 1033 .cfa: $esp 4 + .ra: .cfa -4 + ^
STACK CFI 11cb11 $ebp: .cfa -8 + ^ .cfa: $esp 8 +
STACK CFI 11cb13 .cfa: $ebp 8 +
STACK CFI 11cb1f $ebx: .cfa -20 + ^ $edi: .cfa -12 + ^ $esi: .cfa -16 + ^
STACK CFI 11d135 $ebx: $ebx
STACK CFI 11d136 $esi: $esi
STACK CFI 11d137 $edi: $edi
STACK CFI 11d138 $ebp: $ebp .cfa: $esp 4 +
STACK CFI 11d140 $ebp: .cfa -8 + ^ $ebx: .cfa -20 + ^ $edi: .cfa -12 + ^ $esi: .cfa -16 + ^ .cfa: $ebp 8 +
STACK CFI INIT 143ef0 153 .cfa: $esp 4 + .ra: .cfa -4 + ^
STACK CFI 143ef1 $ebp: .cfa -8 + ^ .cfa: $esp 8 +
STACK CFI 143ef3 .cfa: $ebp 8 +
STACK CFI 143f49 $ebp: $ebp .cfa: $esp 4 +
STACK CFI 143f50 $ebp: .cfa -8 + ^ .cfa: $ebp 8 +
STACK CFI 143ff3 $ebp: $ebp .cfa: $esp 4 +
STACK CFI 143ff6 $ebp: .cfa -8 + ^ .cfa: $ebp 8 +
STACK CFI INIT 13fc60 153 .cfa: $esp 4 + .ra: .cfa -4 + ^
STACK CFI 13fc61 $ebp: .cfa -8 + ^ .cfa: $esp 8 +
STACK CFI 13fc63 .cfa: $ebp 8 +
STACK CFI 13fcb8 $ebp: $ebp .cfa: $esp 4 +
STACK CFI 13fcc0 $ebp: .cfa -8 + ^ .cfa: $ebp 8 +
STACK CFI 13fd63 $ebp: $ebp .cfa: $esp 4 +
STACK CFI 13fd66 $ebp: .cfa -8 + ^ .cfa: $ebp 8 +
STACK CFI INIT 12a640 104c .cfa: $esp 4 + .ra: .cfa -4 + ^
STACK CFI 12a641 $ebp: .cfa -8 + ^ .cfa: $esp 8 +
STACK CFI 12a643 .cfa: $ebp 8 +
STACK CFI 12a64f $ebx: .cfa -20 + ^ $edi: .cfa -12 + ^ $esi: .cfa -16 + ^
STACK CFI 12ac87 $ebx: $ebx
STACK CFI 12ac88 $esi: $esi
STACK CFI 12ac89 $edi: $edi
STACK CFI 12ac8a $ebp: $ebp .cfa: $esp 4 +
STACK CFI 12ac90 $ebp: .cfa -8 + ^ $ebx: .cfa -20 + ^ $edi: .cfa -12 + ^ $esi: .cfa -16 + ^ .cfa: $ebp 8 +
STACK CFI INIT 149d50 15a .cfa: $esp 4 + .ra: .cfa -4 + ^
STACK CFI 149d51 $ebp: .cfa -8 + ^ .cfa: $esp 8 +
STACK CFI 149d53 .cfa: $ebp 8 +
STACK CFI 149da9 $ebp: $ebp .cfa: $esp 4 +
STACK CFI 149db0 $ebp: .cfa -8 + ^ .cfa: $ebp 8 +
STACK CFI 149e5a $ebp: $ebp .cfa: $esp 4 +
STACK CFI 149e5d $ebp: .cfa -8 + ^ .cfa: $ebp 8 +
STACK CFI INIT 1718d0 15a .cfa: $esp 4 + .ra: .cfa -4 + ^
STACK CFI 1718d1 $ebp: .cfa -8 + ^ .cfa: $esp 8 +
STACK CFI 1718d3 .cfa: $ebp 8 +
STACK CFI 171928 $ebp: $ebp .cfa: $esp 4 +
STACK CFI 171930 $ebp: .cfa -8 + ^ .cfa: $ebp 8 +
STACK CFI 1719da $ebp: $ebp .cfa: $esp 4 +
STACK CFI 1719dd $ebp: .cfa -8 + ^ .cfa: $ebp 8 +
STACK CFI INIT 23370 a .cfa: $esp 4 + .ra: .cfa -4 + ^
STACK CFI INIT 23380 a2 .cfa: $esp 4 + .ra: .cfa -4 + ^
STACK CFI 23381 $edi: .cfa -8 + ^ .cfa: $esp 8 +
STACK CFI 23382 $esi: .cfa -12 + ^ .cfa: $esp 12 +
STACK CFI 23385 $ebx: .cfa -16 + ^ .cfa: $esp 16 +
STACK CFI 23388 .cfa: $esp 48 +
STACK CFI 233c1 .cfa: $esp 16 +
STACK CFI 233c2 $ebx: $ebx .cfa: $esp 12 +
STACK CFI 233c3 $esi: $esi .cfa: $esp 8 +
STACK CFI 233c4 $edi: $edi .cfa: $esp 4 +
STACK CFI 233d0 $ebx: .cfa -16 + ^ $edi: .cfa -8 + ^ $esi: .cfa -12 + ^ .cfa: $esp 48 +
STACK CFI 233e6 .cfa: $esp 40 +
STACK CFI 233e9 .cfa: $esp 48 +
STACK CFI INIT 23430 7c .cfa: $esp 4 + .ra: .cfa -4 + ^
STACK CFI 23431 $ebp: .cfa -8 + ^ .cfa: $esp 8 +
STACK CFI 23432 $edi: .cfa -12 + ^ .cfa: $esp 12 +
STACK CFI 23433 $esi: .cfa -16 + ^ .cfa: $esp 16 +
STACK CFI 23434 $ebx: .cfa -20 + ^ .cfa: $esp 20 +
STACK CFI 23437 .cfa: $esp 48 +
STACK CFI 2348f .cfa: $esp 20 +
STACK CFI 23490 $ebx: $ebx .cfa: $esp 16 +
STACK CFI 23491 $esi: $esi .cfa: $esp 12 +
STACK CFI 23492 $edi: $edi .cfa: $esp 8 +
STACK CFI 23493 $ebp: $ebp .cfa: $esp 4 +
STACK CFI 23494 $ebp: .cfa -8 + ^ $ebx: .cfa -20 + ^ $edi: .cfa -12 + ^ $esi: .cfa -16 + ^ .cfa: $esp 48 +
STACK CFI INIT 234b0 196 .cfa: $esp 4 + .ra: .cfa -4 + ^
STACK CFI 234b1 $ebp: .cfa -8 + ^ .cfa: $esp 8 +
STACK CFI 234b2 $edi: .cfa -12 + ^ .cfa: $esp 12 +
STACK CFI 234b5 $esi: .cfa -16 + ^ .cfa: $esp 16 +
STACK CFI 234b6 $ebx: .cfa -20 + ^ .cfa: $esp 20 +
STACK CFI 234bc .cfa: $esp 1104 +
STACK CFI 235fd .cfa: $esp 20 +
STACK CFI 235fe $ebx: $ebx .cfa: $esp 16 +
STACK CFI 235ff $esi: $esi .cfa: $esp 12 +
STACK CFI 23600 $edi: $edi .cfa: $esp 8 +
STACK CFI 23601 $ebp: $ebp .cfa: $esp 4 +
STACK CFI 23602 $ebp: .cfa -8 + ^ $ebx: .cfa -20 + ^ $edi: .cfa -12 + ^ $esi: .cfa -16 + ^ .cfa: $esp 1104 +
STACK CFI INIT 23650 6c .cfa: $esp 4 + .ra: .cfa -4 + ^
STACK CFI 23653 .cfa: $esp 32 +
STACK CFI 23680 .cfa: $esp 4 +
STACK CFI 23685 .cfa: $esp 32 +
STACK CFI 2368b .cfa: $esp 4 +
STACK CFI 2368c .cfa: $esp 32 +
STACK CFI INIT 236c0 98 .cfa: $esp 4 + .ra: .cfa -4 + ^
STACK CFI 236c1 $esi: .cfa -8 + ^ .cfa: $esp 8 +
STACK CFI 236c2 $ebx: .cfa -12 + ^ .cfa: $esp 12 +
STACK CFI 236c5 .cfa: $esp 32 +
STACK CFI 2373d .cfa: $esp 12 +
STACK CFI 2373e $ebx: $ebx .cfa: $esp 8 +
STACK CFI 2373f $esi: $esi .cfa: $esp 4 +
STACK CFI 23740 $ebx: .cfa -12 + ^ $esi: .cfa -8 + ^ .cfa: $esp 32 +
STACK CFI INIT 23760 71 .cfa: $esp 4 + .ra: .cfa -4 + ^
STACK CFI 23763 .cfa: $esp 32 +
STACK CFI 2379c .cfa: $esp 4 +
STACK CFI 237a1 .cfa: $esp 32 +
STACK CFI INIT 237e0 73 .cfa: $esp 4 + .ra: .cfa -4 + ^
STACK CFI 237e3 .cfa: $esp 32 +
STACK CFI 2381e .cfa: $esp 4 +
STACK CFI 23823 .cfa: $esp 32 +
STACK CFI INIT 23860 52 .cfa: $esp 4 + .ra: .cfa -4 + ^
STACK CFI 2386a $edi: .cfa -8 + ^ .cfa: $esp 8 +
STACK CFI 2386b $esi: .cfa -12 + ^ .cfa: $esp 12 +
STACK CFI 2386c $ebx: .cfa -16 + ^ .cfa: $esp 16 +
STACK CFI 23874 .cfa: $esp 32 +
STACK CFI 238aa .cfa: $esp 16 +
STACK CFI 238ab $ebx: $ebx .cfa: $esp 12 +
STACK CFI 238ac $esi: $esi .cfa: $esp 8 +
STACK CFI 238ad $edi: $edi .cfa: $esp 4 +
STACK CFI INIT 238c0 76 .cfa: $esp 4 + .ra: .cfa -4 + ^
STACK CFI 238c1 $ebx: .cfa -8 + ^ .cfa: $esp 8 +
STACK CFI 238c4 .cfa: $esp 32 +
STACK CFI 238fc .cfa: $esp 8 +
STACK CFI 238fd $ebx: $ebx .cfa: $esp 4 +
STACK CFI 23900 $ebx: .cfa -8 + ^ .cfa: $esp 32 +
STACK CFI 23927 .cfa: $esp 8 +
STACK CFI 23928 $ebx: $ebx .cfa: $esp 4 +
STACK CFI 23930 $ebx: .cfa -8 + ^ .cfa: $esp 32 +
STACK CFI INIT 23940 95 .cfa: $esp 4 + .ra: .cfa -4 + ^
STACK CFI 23941 $ebx: .cfa -8 + ^ .cfa: $esp 8 +
STACK CFI 23944 .cfa: $esp 32 +
STACK CFI 239a7 .cfa: $esp 8 +
STACK CFI 239a8 $ebx: $ebx .cfa: $esp 4 +
STACK CFI 239ad $ebx: .cfa -8 + ^ .cfa: $esp 32 +
STACK CFI INIT 239e0 183 .cfa: $esp 4 + .ra: .cfa -4 + ^
STACK CFI 239e1 $ebp: .cfa -8 + ^ .cfa: $esp 8 +
STACK CFI 239e2 $edi: .cfa -12 + ^ .cfa: $esp 12 +
STACK CFI 239e3 $esi: .cfa -16 + ^ .cfa: $esp 16 +
STACK CFI 239e4 $ebx: .cfa -20 + ^ .cfa: $esp 20 +
STACK CFI 239e7 .cfa: $esp 48 +
STACK CFI 23b1c .cfa: $esp 20 +
STACK CFI 23b1d $ebx: $ebx .cfa: $esp 16 +
STACK CFI 23b1e $esi: $esi .cfa: $esp 12 +
STACK CFI 23b1f $edi: $edi .cfa: $esp 8 +
STACK CFI 23b20 $ebp: $ebp .cfa: $esp 4 +
STACK CFI 23b21 $ebp: .cfa -8 + ^ $ebx: .cfa -20 + ^ $edi: .cfa -12 + ^ $esi: .cfa -16 + ^ .cfa: $esp 48 +
STACK CFI INIT 23b70 4a .cfa: $esp 4 + .ra: .cfa -4 + ^
STACK CFI 23b71 $ebx: .cfa -8 + ^ .cfa: $esp 8 +
STACK CFI 23b79 .cfa: $esp 32 +
STACK CFI 23bb8 .cfa: $esp 8 +
STACK CFI 23bb9 $ebx: $ebx .cfa: $esp 4 +
STACK CFI INIT 23bc0 4c8 .cfa: $esp 4 + .ra: .cfa -4 + ^
STACK CFI 23bc3 .cfa: $esp 32 +
STACK CFI 24087 .cfa: $esp 4 +
STACK CFI INIT 24090 bc .cfa: $esp 4 + .ra: .cfa -4 + ^
STACK CFI 24091 $ebp: .cfa -8 + ^ .cfa: $esp 8 +
STACK CFI 24092 $edi: .cfa -12 + ^ .cfa: $esp 12 +
STACK CFI 24098 $esi: .cfa -16 + ^ .cfa: $esp 16 +
STACK CFI 24099 $ebx: .cfa -20 + ^ .cfa: $esp 20 +
STACK CFI 2409c .cfa: $esp 64 +
STACK CFI 24126 .cfa: $esp 20 +
STACK CFI 24127 $ebx: $ebx .cfa: $esp 16 +
STACK CFI 24128 $esi: $esi .cfa: $esp 12 +
STACK CFI 24129 $edi: $edi .cfa: $esp 8 +
STACK CFI 2412a $ebp: $ebp .cfa: $esp 4 +
STACK CFI 24130 $ebp: .cfa -8 + ^ $ebx: .cfa -20 + ^ $edi: .cfa -12 + ^ $esi: .cfa -16 + ^ .cfa: $esp 64 +
STACK CFI INIT 24150 42a .cfa: $esp 4 + .ra: .cfa -4 + ^
STACK CFI 24151 $ebp: .cfa -8 + ^ .cfa: $esp 8 +
STACK CFI 24152 $edi: .cfa -12 + ^ .cfa: $esp 12 +
STACK CFI 24153 $esi: .cfa -16 + ^ .cfa: $esp 16 +
STACK CFI 24154 $ebx: .cfa -20 + ^ .cfa: $esp 20 +
STACK CFI 2415c .cfa: $esp 1104 +
STACK CFI 24190 .cfa: $esp 1092 +
STACK CFI 24193 .cfa: $esp 1104 +
STACK CFI 241b0 .cfa: $esp 1092 +
STACK CFI 241b3 .cfa: $esp 1104 +
STACK CFI 24352 .cfa: $esp 1100 +
STACK CFI 2435a .cfa: $esp 1104 +
STACK CFI 243dc .cfa: $esp 1084 +
STACK CFI 243df .cfa: $esp 1104 +
STACK CFI 24425 .cfa: $esp 1100 +
STACK CFI 24428 .cfa: $esp 1104 +
STACK CFI 244d8 .cfa: $esp 1096 +
STACK CFI 244db .cfa: $esp 1104 +
STACK CFI 244e1 .cfa: $esp 20 +
STACK CFI 244e2 $ebx: $ebx .cfa: $esp 16 +
STACK CFI 244e3 $esi: $esi .cfa: $esp 12 +
STACK CFI 244e4 $edi: $edi .cfa: $esp 8 +
STACK CFI 244e5 $ebp: $ebp .cfa: $esp 4 +
STACK CFI 244e6 $ebp: .cfa -8 + ^ $ebx: .cfa -20 + ^ $edi: .cfa -12 + ^ $esi: .cfa -16 + ^ .cfa: $esp 1104 +
STACK CFI 24544 .cfa: $esp 1100 +
STACK CFI 2454d .cfa: $esp 1104 +
STACK CFI INIT 24580 13c .cfa: $esp 4 + .ra: .cfa -4 + ^
STACK CFI 24581 $edi: .cfa -8 + ^ .cfa: $esp 8 +
STACK CFI 24582 $esi: .cfa -12 + ^ .cfa: $esp 12 +
STACK CFI 24583 $ebx: .cfa -16 + ^ .cfa: $esp 16 +
STACK CFI 24586 .cfa: $esp 32 +
STACK CFI 2459d .cfa: $esp 16 +
STACK CFI 2459e $ebx: $ebx .cfa: $esp 12 +
STACK CFI 2459f $esi: $esi .cfa: $esp 8 +
STACK CFI 245a0 $edi: $edi .cfa: $esp 4 +
STACK CFI 245a1 $ebx: .cfa -16 + ^ $edi: .cfa -8 + ^ $esi: .cfa -12 + ^ .cfa: $esp 32 +
STACK CFI 245c2 .cfa: $esp 20 +
STACK CFI 245c5 .cfa: $esp 32 +
STACK CFI 246a6 .cfa: $esp 24 +
STACK CFI 246a9 .cfa: $esp 32 +
STACK CFI 246b4 .cfa: $esp 16 +
STACK CFI 246b5 $ebx: $ebx .cfa: $esp 12 +
STACK CFI 246b6 $esi: $esi .cfa: $esp 8 +
STACK CFI 246b7 $edi: $edi .cfa: $esp 4 +
STACK CFI INIT 1a3fc0 1d .cfa: $esp 4 + .ra: .cfa -4 + ^
STACK CFI 1a3fc3 .cfa: $esp 32 +
STACK CFI 1a3fdc .cfa: $esp 4 +
STACK CFI INIT 111cd0 98 .cfa: $esp 4 + .ra: .cfa -4 + ^
STACK CFI 111cd1 $ebx: .cfa -8 + ^ .cfa: $esp 8 +
STACK CFI 111cd4 .cfa: $esp 32 +
STACK CFI 111d19 .cfa: $esp 24 +
STACK CFI 111d1c .cfa: $esp 32 +
STACK CFI 111d1f .cfa: $esp 8 +
STACK CFI 111d20 $ebx: $ebx .cfa: $esp 4 +
STACK CFI 111d21 $ebx: .cfa -8 + ^ .cfa: $esp 32 +
STACK CFI 111d38 .cfa: $esp 8 +
STACK CFI 111d39 $ebx: $ebx .cfa: $esp 4 +
STACK CFI 111d40 $ebx: .cfa -8 + ^ .cfa: $esp 32 +
STACK CFI 111d48 .cfa: $esp 28 +
STACK CFI 111d4b .cfa: $esp 32 +
STACK CFI 111d4e .cfa: $esp 8 +
STACK CFI 111d4f $ebx: $ebx .cfa: $esp 4 +
STACK CFI 111d50 $ebx: .cfa -8 + ^ .cfa: $esp 32 +
STACK CFI 111d63 .cfa: $esp 28 +
STACK CFI 111d66 .cfa: $esp 32 +
STACK CFI INIT 111d70 98 .cfa: $esp 4 + .ra: .cfa -4 + ^
STACK CFI 111d71 $ebx: .cfa -8 + ^ .cfa: $esp 8 +
STACK CFI 111d74 .cfa: $esp 32 +
STACK CFI 111db9 .cfa: $esp 24 +
STACK CFI 111dbc .cfa: $esp 32 +
STACK CFI 111dbf .cfa: $esp 8 +
STACK CFI 111dc0 $ebx: $ebx .cfa: $esp 4 +
STACK CFI 111dc1 $ebx: .cfa -8 + ^ .cfa: $esp 32 +
STACK CFI 111dd8 .cfa: $esp 8 +
STACK CFI 111dd9 $ebx: $ebx .cfa: $esp 4 +
STACK CFI 111de0 $ebx: .cfa -8 + ^ .cfa: $esp 32 +
STACK CFI 111de8 .cfa: $esp 28 +
STACK CFI 111deb .cfa: $esp 32 +
STACK CFI 111dee .cfa: $esp 8 +
STACK CFI 111def $ebx: $ebx .cfa: $esp 4 +
STACK CFI 111df0 $ebx: .cfa -8 + ^ .cfa: $esp 32 +
STACK CFI 111e03 .cfa: $esp 28 +
STACK CFI 111e06 .cfa: $esp 32 +
STACK CFI INIT 11a9f0 ca .cfa: $esp 4 + .ra: .cfa -4 + ^
STACK CFI 11a9f1 $ebp: .cfa -8 + ^ .cfa: $esp 8 +
STACK CFI 11a9f4 .cfa: $esp 128 +
STACK CFI 11aa4c .cfa: $esp 120 +
STACK CFI 11aa4f .cfa: $esp 128 +
STACK CFI 11aa86 .cfa: $esp 8 +
STACK CFI 11aa89 $ebp: $ebp .cfa: $esp 4 +
STACK CFI 11aa8a $ebp: .cfa -8 + ^ .cfa: $esp 128 +
STACK CFI INIT 11aac0 ca .cfa: $esp 4 + .ra: .cfa -4 + ^
STACK CFI 11aac1 $ebp: .cfa -8 + ^ .cfa: $esp 8 +
STACK CFI 11aac4 .cfa: $esp 128 +
STACK CFI 11ab1c .cfa: $esp 120 +
STACK CFI 11ab1f .cfa: $esp 128 +
STACK CFI 11ab56 .cfa: $esp 8 +
STACK CFI 11ab59 $ebp: $ebp .cfa: $esp 4 +
STACK CFI 11ab5a $ebp: .cfa -8 + ^ .cfa: $esp 128 +
STACK CFI INIT 1542c0 11bc .cfa: $esp 4 + .ra: .cfa -4 + ^
STACK CFI 1542c1 $ebp: .cfa -8 + ^ .cfa: $esp 8 +
STACK CFI 1542c3 .cfa: $ebp 8 +
STACK CFI 1542ce $ebx: .cfa -16 + ^ $esi: .cfa -12 + ^
STACK CFI 15433e $ebx: $ebx
STACK CFI 15433f $esi: $esi
STACK CFI 154340 $ebp: $ebp .cfa: $esp 4 +
STACK CFI 154343 $ebp: .cfa -8 + ^ $ebx: .cfa -16 + ^ $esi: .cfa -12 + ^ .cfa: $ebp 8 +
STACK CFI INIT 15d100 11bc .cfa: $esp 4 + .ra: .cfa -4 + ^
STACK CFI 15d101 $ebp: .cfa -8 + ^ .cfa: $esp 8 +
STACK CFI 15d103 .cfa: $ebp 8 +
STACK CFI 15d10e $ebx: .cfa -16 + ^ $esi: .cfa -12 + ^
STACK CFI 15d17e $ebx: $ebx
STACK CFI 15d17f $esi: $esi
STACK CFI 15d180 $ebp: $ebp .cfa: $esp 4 +
STACK CFI 15d183 $ebp: .cfa -8 + ^ $ebx: .cfa -16 + ^ $esi: .cfa -12 + ^ .cfa: $ebp 8 +
STACK CFI INIT 153100 11bc .cfa: $esp 4 + .ra: .cfa -4 + ^
STACK CFI 153101 $ebp: .cfa -8 + ^ .cfa: $esp 8 +
STACK CFI 153103 .cfa: $ebp 8 +
STACK CFI 15310e $ebx: .cfa -16 + ^ $esi: .cfa -12 + ^
STACK CFI 15317e $ebx: $ebx
STACK CFI 15317f $esi: $esi
STACK CFI 153180 $ebp: $ebp .cfa: $esp 4 +
STACK CFI 153183 $ebp: .cfa -8 + ^ $ebx: .cfa -16 + ^ $esi: .cfa -12 + ^ .cfa: $ebp 8 +
STACK CFI INIT 246c0 22 .cfa: $esp 4 + .ra: .cfa -4 + ^
STACK CFI 246cf .cfa: $esp 32 +
STACK CFI 246da .cfa: $esp 4 +
STACK CFI INIT 246f0 2b .cfa: $esp 4 + .ra: .cfa -4 + ^
STACK CFI 246f1 $ebx: .cfa -8 + ^ .cfa: $esp 8 +
STACK CFI 246f9 .cfa: $esp 32 +
STACK CFI 24719 .cfa: $esp 8 +
STACK CFI 2471a $ebx: $ebx .cfa: $esp 4 +
STACK CFI INIT 24720 a .cfa: $esp 4 + .ra: .cfa -4 + ^
STACK CFI INIT 24730 a2 .cfa: $esp 4 + .ra: .cfa -4 + ^
STACK CFI 24731 $edi: .cfa -8 + ^ .cfa: $esp 8 +
STACK CFI 24732 $esi: .cfa -12 + ^ .cfa: $esp 12 +
STACK CFI 24735 $ebx: .cfa -16 + ^ .cfa: $esp 16 +
STACK CFI 24738 .cfa: $esp 48 +
STACK CFI 24771 .cfa: $esp 16 +
STACK CFI 24772 $ebx: $ebx .cfa: $esp 12 +
STACK CFI 24773 $esi: $esi .cfa: $esp 8 +
STACK CFI 24774 $edi: $edi .cfa: $esp 4 +
STACK CFI 24780 $ebx: .cfa -16 + ^ $edi: .cfa -8 + ^ $esi: .cfa -12 + ^ .cfa: $esp 48 +
STACK CFI 24796 .cfa: $esp 40 +
STACK CFI 24799 .cfa: $esp 48 +
STACK CFI INIT 247e0 3c .cfa: $esp 4 + .ra: .cfa -4 + ^
STACK CFI 247e1 $ebx: .cfa -8 + ^ .cfa: $esp 8 +
STACK CFI 247e7 .cfa: $esp 48 +
STACK CFI 24812 .cfa: $esp 40 +
STACK CFI 24815 .cfa: $esp 48 +
STACK CFI 24818 .cfa: $esp 8 +
STACK CFI 24819 $ebx: $ebx .cfa: $esp 4 +
STACK CFI INIT 24820 6b .cfa: $esp 4 + .ra: .cfa -4 + ^
STACK CFI 24823 .cfa: $esp 32 +
STACK CFI 2488a .cfa: $esp 4 +
STACK CFI INIT 24890 57 .cfa: $esp 4 + .ra: .cfa -4 + ^
STACK CFI 24893 .cfa: $esp 32 +
STACK CFI 248e6 .cfa: $esp 4 +
STACK CFI INIT 248f0 57 .cfa: $esp 4 + .ra: .cfa -4 + ^
STACK CFI 248f3 .cfa: $esp 32 +
STACK CFI 24946 .cfa: $esp 4 +
STACK CFI INIT 24950 57 .cfa: $esp 4 + .ra: .cfa -4 + ^
STACK CFI 24953 .cfa: $esp 32 +
STACK CFI 249a6 .cfa: $esp 4 +
STACK CFI INIT 249b0 2fa .cfa: $esp 4 + .ra: .cfa -4 + ^
STACK CFI 249b1 $ebp: .cfa -8 + ^ .cfa: $esp 8 +
STACK CFI 249b2 $edi: .cfa -12 + ^ .cfa: $esp 12 +
STACK CFI 249b3 $esi: .cfa -16 + ^ .cfa: $esp 16 +
STACK CFI 249b4 $ebx: .cfa -20 + ^ .cfa: $esp 20 +
STACK CFI 249b7 .cfa: $esp 128 +
STACK CFI 24a3e .cfa: $esp 124 +
STACK CFI 24a46 .cfa: $esp 128 +
STACK CFI 24ca0 .cfa: $esp 20 +
STACK CFI 24ca1 $ebx: $ebx .cfa: $esp 16 +
STACK CFI 24ca2 $esi: $esi .cfa: $esp 12 +
STACK CFI 24ca3 $edi: $edi .cfa: $esp 8 +
STACK CFI 24ca4 $ebp: $ebp .cfa: $esp 4 +
STACK CFI 24ca5 $ebp: .cfa -8 + ^ $ebx: .cfa -20 + ^ $edi: .cfa -12 + ^ $esi: .cfa -16 + ^ .cfa: $esp 128 +
STACK CFI INIT 24cb0 2d .cfa: $esp 4 + .ra: .cfa -4 + ^
STACK CFI 24cb1 $ebx: .cfa -8 + ^ .cfa: $esp 8 +
STACK CFI 24cb4 .cfa: $esp 32 +
STACK CFI 24cd3 .cfa: $esp 24 +
STACK CFI 24cd6 .cfa: $esp 32 +
STACK CFI 24cdb .cfa: $esp 8 +
STACK CFI 24cdc $ebx: $ebx .cfa: $esp 4 +
STACK CFI INIT 24ce0 4a .cfa: $esp 4 + .ra: .cfa -4 + ^
STACK CFI 24ce3 .cfa: $esp 48 +
STACK CFI 24d19 .cfa: $esp 4 +
STACK CFI 24d20 .cfa: $esp 48 +
STACK CFI 24d29 .cfa: $esp 4 +
STACK CFI INIT 24d30 d .cfa: $esp 4 + .ra: .cfa -4 + ^
STACK CFI INIT 24d40 3f .cfa: $esp 4 + .ra: .cfa -4 + ^
STACK CFI INIT 24d80 fe .cfa: $esp 4 + .ra: .cfa -4 + ^
STACK CFI 24d91 $ebp: .cfa -8 + ^ .cfa: $esp 8 +
STACK CFI 24d92 $edi: .cfa -12 + ^ .cfa: $esp 12 +
STACK CFI 24d93 $esi: .cfa -16 + ^ .cfa: $esp 16 +
STACK CFI 24d94 $ebx: .cfa -20 + ^ .cfa: $esp 20 +
STACK CFI 24d99 .cfa: $esp 64 +
STACK CFI 24e04 .cfa: $esp 20 +
STACK CFI 24e05 $ebx: $ebx .cfa: $esp 16 +
STACK CFI 24e06 $esi: $esi .cfa: $esp 12 +
STACK CFI 24e07 $edi: $edi .cfa: $esp 8 +
STACK CFI 24e08 $ebp: $ebp .cfa: $esp 4 +
STACK CFI 24e10 $ebp: .cfa -8 + ^ $ebx: .cfa -20 + ^ $edi: .cfa -12 + ^ $esi: .cfa -16 + ^ .cfa: $esp 64 +
STACK CFI 24e7c $ebp: $ebp $ebx: $ebx $edi: $edi $esi: $esi .cfa: $esp 4 +
STACK CFI INIT 24e80 b3 .cfa: $esp 4 + .ra: .cfa -4 + ^
STACK CFI 24e90 $esi: .cfa -8 + ^ .cfa: $esp 8 +
STACK CFI 24e91 $ebx: .cfa -12 + ^ .cfa: $esp 12 +
STACK CFI 24e94 .cfa: $esp 48 +
STACK CFI 24edc .cfa: $esp 12 +
STACK CFI 24edd $ebx: $ebx .cfa: $esp 8 +
STACK CFI 24ede $esi: $esi .cfa: $esp 4 +
STACK CFI 24ee2 $ebx: .cfa -12 + ^ $esi: .cfa -8 + ^ .cfa: $esp 48 +
STACK CFI 24f30 .cfa: $esp 12 +
STACK CFI 24f31 $ebx: $ebx .cfa: $esp 8 +
STACK CFI 24f32 $esi: $esi .cfa: $esp 4 +
STACK CFI INIT 24f40 36 .cfa: $esp 4 + .ra: .cfa -4 + ^
STACK CFI INIT 24f80 37 .cfa: $esp 4 + .ra: .cfa -4 + ^
STACK CFI 24f81 $ebx: .cfa -8 + ^ .cfa: $esp 8 +
STACK CFI 24f84 .cfa: $esp 48 +
STACK CFI 24fb3 .cfa: $esp 8 +
STACK CFI 24fb6 $ebx: $ebx .cfa: $esp 4 +
STACK CFI INIT 24fc0 3b .cfa: $esp 4 + .ra: .cfa -4 + ^
STACK CFI 24fd3 .cfa: $esp 32 +
STACK CFI 24ffa .cfa: $esp 4 +
STACK CFI INIT 25000 264 .cfa: $esp 4 + .ra: .cfa -4 + ^
STACK CFI 25001 $ebp: .cfa -8 + ^ .cfa: $esp 8 +
STACK CFI 25003 .cfa: $ebp 8 +
STACK CFI 25096 $ebp: $ebp .cfa: $esp 4 +
STACK CFI 250a0 $ebp: .cfa -8 + ^ .cfa: $ebp 8 +
STACK CFI 25162 $ebp: $ebp .cfa: $esp 4 +
STACK CFI 25163 $ebp: .cfa -8 + ^ .cfa: $ebp 8 +
STACK CFI INIT 25270 427 .cfa: $esp 4 + .ra: .cfa -4 + ^
STACK CFI 25271 $ebp: .cfa -8 + ^ .cfa: $esp 8 +
STACK CFI 25273 .cfa: $ebp 8 +
STACK CFI 25322 $ebp: $ebp .cfa: $esp 4 +
STACK CFI 25323 $ebp: .cfa -8 + ^ .cfa: $ebp 8 +
STACK CFI INIT 256a0 38a .cfa: $esp 4 + .ra: .cfa -4 + ^
STACK CFI 256a1 $ebp: .cfa -8 + ^ .cfa: $esp 8 +
STACK CFI 256a2 $edi: .cfa -12 + ^ .cfa: $esp 12 +
STACK CFI 256a3 $esi: .cfa -16 + ^ .cfa: $esp 16 +
STACK CFI 256a4 $ebx: .cfa -20 + ^ .cfa: $esp 20 +
STACK CFI 256ac .cfa: $esp 1088 +
STACK CFI 25753 .cfa: $esp 20 +
STACK CFI 25759 $ebx: $ebx .cfa: $esp 16 +
STACK CFI 2575a $esi: $esi .cfa: $esp 12 +
STACK CFI 2575b $edi: $edi .cfa: $esp 8 +
STACK CFI 2575c $ebp: $ebp .cfa: $esp 4 +
STACK CFI 25760 $ebp: .cfa -8 + ^ $ebx: .cfa -20 + ^ $edi: .cfa -12 + ^ $esi: .cfa -16 + ^ .cfa: $esp 1088 +
STACK CFI 257d3 .cfa: $esp 1080 +
STACK CFI 257db .cfa: $esp 1088 +
STACK CFI 259a9 .cfa: $esp 1080 +
STACK CFI 259ac .cfa: $esp 1088 +
STACK CFI 25a13 .cfa: $esp 1080 +
STACK CFI 25a16 .cfa: $esp 1088 +
STACK CFI INIT 25a30 394 .cfa: $esp 4 + .ra: .cfa -4 + ^
STACK CFI 25a31 $ebp: .cfa -8 + ^ .cfa: $esp 8 +
STACK CFI 25a32 $edi: .cfa -12 + ^ .cfa: $esp 12 +
STACK CFI 25a33 $esi: .cfa -16 + ^ .cfa: $esp 16 +
STACK CFI 25a34 $ebx: .cfa -20 + ^ .cfa: $esp 20 +
STACK CFI 25a3a .cfa: $esp 176 +
STACK CFI 25b3a .cfa: $esp 20 +
STACK CFI 25b3b $ebx: $ebx .cfa: $esp 16 +
STACK CFI 25b3c $esi: $esi .cfa: $esp 12 +
STACK CFI 25b3d $edi: $edi .cfa: $esp 8 +
STACK CFI 25b3e $ebp: $ebp .cfa: $esp 4 +
STACK CFI 25b40 $ebp: .cfa -8 + ^ $ebx: .cfa -20 + ^ $edi: .cfa -12 + ^ $esi: .cfa -16 + ^ .cfa: $esp 176 +
STACK CFI 25b50 .cfa: $esp 20 +
STACK CFI 25b51 $ebx: $ebx .cfa: $esp 16 +
STACK CFI 25b52 $esi: $esi .cfa: $esp 12 +
STACK CFI 25b53 $edi: $edi .cfa: $esp 8 +
STACK CFI 25b54 $ebp: $ebp .cfa: $esp 4 +
STACK CFI 25b55 $ebp: .cfa -8 + ^ $ebx: .cfa -20 + ^ $edi: .cfa -12 + ^ $esi: .cfa -16 + ^ .cfa: $esp 176 +
STACK CFI 25cc3 .cfa: $esp 152 +
STACK CFI 25ccb .cfa: $esp 176 +
STACK CFI 25d00 .cfa: $esp 168 +
STACK CFI 25d08 .cfa: $esp 176 +
STACK CFI INIT 25dd0 11f .cfa: $esp 4 + .ra: .cfa -4 + ^
STACK CFI 25dd1 $edi: .cfa -8 + ^ .cfa: $esp 8 +
STACK CFI 25dd2 $esi: .cfa -12 + ^ .cfa: $esp 12 +
STACK CFI 25dd3 $ebx: .cfa -16 + ^ .cfa: $esp 16 +
STACK CFI 25dd6 .cfa: $esp 48 +
STACK CFI 25e93 .cfa: $esp 16 +
STACK CFI 25e94 $ebx: $ebx .cfa: $esp 12 +
STACK CFI 25e95 $esi: $esi .cfa: $esp 8 +
STACK CFI 25e96 $edi: $edi .cfa: $esp 4 +
STACK CFI 25ea0 $ebx: .cfa -16 + ^ $edi: .cfa -8 + ^ $esi: .cfa -12 + ^ .cfa: $esp 48 +
STACK CFI 25ee1 .cfa: $esp 36 +
STACK CFI 25eea .cfa: $esp 48 +
STACK CFI INIT 25ef0 76 .cfa: $esp 4 + .ra: .cfa -4 + ^
STACK CFI 25ef1 $esi: .cfa -8 + ^ .cfa: $esp 8 +
STACK CFI 25ef2 $ebx: .cfa -12 + ^ .cfa: $esp 12 +
STACK CFI 25ef5 .cfa: $esp 48 +
STACK CFI 25f58 .cfa: $esp 32 +
STACK CFI 25f5b .cfa: $esp 48 +
STACK CFI 25f63 .cfa: $esp 12 +
STACK CFI 25f64 $ebx: $ebx .cfa: $esp 8 +
STACK CFI 25f65 $esi: $esi .cfa: $esp 4 +
STACK CFI INIT 25f70 1bd .cfa: $esp 4 + .ra: .cfa -4 + ^
STACK CFI 25f71 $edi: .cfa -8 + ^ .cfa: $esp 8 +
STACK CFI 25f72 $esi: .cfa -12 + ^ .cfa: $esp 12 +
STACK CFI 25f78 $ebx: .cfa -16 + ^ .cfa: $esp 16 +
STACK CFI 25f7f .cfa: $esp 32816 +
STACK CFI 25fec .cfa: $esp 16 +
STACK CFI 25fed $ebx: $ebx .cfa: $esp 12 +
STACK CFI 25fee $esi: $esi .cfa: $esp 8 +
STACK CFI 25fef $edi: $edi .cfa: $esp 4 +
STACK CFI 25ff0 $ebx: .cfa -16 + ^ $edi: .cfa -8 + ^ $esi: .cfa -12 + ^ .cfa: $esp 32816 +
STACK CFI 26014 .cfa: $esp 16 +
STACK CFI 26015 $ebx: $ebx .cfa: $esp 12 +
STACK CFI 26016 $esi: $esi .cfa: $esp 8 +
STACK CFI 26017 $edi: $edi .cfa: $esp 4 +
STACK CFI 26020 $ebx: .cfa -16 + ^ $edi: .cfa -8 + ^ $esi: .cfa -12 + ^ .cfa: $esp 32816 +
STACK CFI 26092 .cfa: $esp 32804 +
STACK CFI 26095 .cfa: $esp 32816 +
STACK CFI 260ed .cfa: $esp 16 +
STACK CFI 260ee $ebx: $ebx .cfa: $esp 12 +
STACK CFI 260ef $esi: $esi .cfa: $esp 8 +
STACK CFI 260f0 $edi: $edi .cfa: $esp 4 +
STACK CFI 260f1 $ebx: .cfa -16 + ^ $edi: .cfa -8 + ^ $esi: .cfa -12 + ^ .cfa: $esp 32816 +
STACK CFI INIT 26130 10a .cfa: $esp 4 + .ra: .cfa -4 + ^
STACK CFI 26131 $ebx: .cfa -8 + ^ .cfa: $esp 8 +
STACK CFI 26134 .cfa: $esp 48 +
STACK CFI 2614d .cfa: $esp 8 +
STACK CFI 2614e $ebx: $ebx .cfa: $esp 4 +
STACK CFI 26150 $ebx: .cfa -8 + ^ .cfa: $esp 48 +
STACK CFI 261b5 .cfa: $esp 36 +
STACK CFI 261b8 .cfa: $esp 48 +
STACK CFI INIT 26240 1d .cfa: $esp 4 + .ra: .cfa -4 + ^
STACK CFI 26243 .cfa: $esp 32 +
STACK CFI 2625c .cfa: $esp 4 +
STACK CFI INIT 26260 493 .cfa: $esp 4 + .ra: .cfa -4 + ^
STACK CFI 26261 $ebp: .cfa -8 + ^ .cfa: $esp 8 +
STACK CFI 26262 $edi: .cfa -12 + ^ .cfa: $esp 12 +
STACK CFI 26263 $esi: .cfa -16 + ^ .cfa: $esp 16 +
STACK CFI 26264 $ebx: .cfa -20 + ^ .cfa: $esp 20 +
STACK CFI 26267 .cfa: $esp 112 +
STACK CFI 262b2 .cfa: $esp 20 +
STACK CFI 262b3 $ebx: $ebx .cfa: $esp 16 +
STACK CFI 262b4 $esi: $esi .cfa: $esp 12 +
STACK CFI 262b5 $edi: $edi .cfa: $esp 8 +
STACK CFI 262b6 $ebp: $ebp .cfa: $esp 4 +
STACK CFI 262c0 $ebp: .cfa -8 + ^ $ebx: .cfa -20 + ^ $edi: .cfa -12 + ^ $esi: .cfa -16 + ^ .cfa: $esp 112 +
STACK CFI 26335 .cfa: $esp 20 +
STACK CFI 26336 $ebx: $ebx .cfa: $esp 16 +
STACK CFI 26337 $esi: $esi .cfa: $esp 12 +
STACK CFI 26338 $edi: $edi .cfa: $esp 8 +
STACK CFI 26339 $ebp: $ebp .cfa: $esp 4 +
STACK CFI 26340 $ebp: .cfa -8 + ^ $ebx: .cfa -20 + ^ $edi: .cfa -12 + ^ $esi: .cfa -16 + ^ .cfa: $esp 112 +
STACK CFI 263d6 .cfa: $esp 108 +
STACK CFI 263de .cfa: $esp 112 +
STACK CFI INIT 26700 1b35 .cfa: $esp 4 + .ra: .cfa -4 + ^
STACK CFI 26701 $ebp: .cfa -8 + ^ .cfa: $esp 8 +
STACK CFI 26703 .cfa: $ebp 8 +
STACK CFI 2670f $ebx: .cfa -20 + ^ $edi: .cfa -12 + ^ $esi: .cfa -16 + ^
STACK CFI 26783 $ebx: $ebx
STACK CFI 26784 $esi: $esi
STACK CFI 26785 $edi: $edi
STACK CFI 26786 $ebp: $ebp .cfa: $esp 4 +
STACK CFI 26790 $ebp: .cfa -8 + ^ $ebx: .cfa -20 + ^ $edi: .cfa -12 + ^ $esi: .cfa -16 + ^ .cfa: $ebp 8 +
STACK CFI INIT 28240 98a .cfa: $esp 4 + .ra: .cfa -4 + ^
STACK CFI 28241 $ebp: .cfa -8 + ^ .cfa: $esp 8 +
STACK CFI 28243 .cfa: $ebp 8 +
STACK CFI 2824e $ebx: .cfa -16 + ^ $esi: .cfa -12 + ^
STACK CFI 282a1 $ebx: $ebx
STACK CFI 282a2 $esi: $esi
STACK CFI 282a3 $ebp: $ebp .cfa: $esp 4 +
STACK CFI 282a4 $ebp: .cfa -8 + ^ $ebx: .cfa -16 + ^ $esi: .cfa -12 + ^ .cfa: $ebp 8 +
STACK CFI INIT 28bd0 13a6 .cfa: $esp 4 + .ra: .cfa -4 + ^
STACK CFI 28bd1 $ebp: .cfa -8 + ^ .cfa: $esp 8 +
STACK CFI 28bd3 .cfa: $ebp 8 +
STACK CFI 28bdf $ebx: .cfa -20 + ^ $edi: .cfa -12 + ^ $esi: .cfa -16 + ^
STACK CFI 28c26 $ebx: $ebx
STACK CFI 28c27 $esi: $esi
STACK CFI 28c28 $edi: $edi
STACK CFI 28c29 $ebp: $ebp .cfa: $esp 4 +
STACK CFI 28c30 $ebp: .cfa -8 + ^ $ebx: .cfa -20 + ^ $edi: .cfa -12 + ^ $esi: .cfa -16 + ^ .cfa: $ebp 8 +
STACK CFI INIT 29f80 e95 .cfa: $esp 4 + .ra: .cfa -4 + ^
STACK CFI 29f81 $ebp: .cfa -8 + ^ .cfa: $esp 8 +
STACK CFI 29f83 .cfa: $ebp 8 +
STACK CFI 29f8e $edi: .cfa -12 + ^ $esi: .cfa -16 + ^
STACK CFI 2a1fe $esi: $esi
STACK CFI 2a1ff $edi: $edi
STACK CFI 2a200 $ebp: $ebp .cfa: $esp 4 +
STACK CFI 2a201 $ebp: .cfa -8 + ^ $edi: .cfa -12 + ^ $esi: .cfa -16 + ^ .cfa: $ebp 8 +
STACK CFI INIT 2ae20 24b .cfa: $esp 4 + .ra: .cfa -4 + ^
STACK CFI 2ae21 $ebp: .cfa -8 + ^ .cfa: $esp 8 +
STACK CFI 2ae22 $edi: .cfa -12 + ^ .cfa: $esp 12 +
STACK CFI 2ae23 $esi: .cfa -16 + ^ .cfa: $esp 16 +
STACK CFI 2ae24 $ebx: .cfa -20 + ^ .cfa: $esp 20 +
STACK CFI 2ae27 .cfa: $esp 112 +
STACK CFI 2af6d .cfa: $esp 20 +
STACK CFI 2af6e $ebx: $ebx .cfa: $esp 16 +
STACK CFI 2af6f $esi: $esi .cfa: $esp 12 +
STACK CFI 2af70 $edi: $edi .cfa: $esp 8 +
STACK CFI 2af71 $ebp: $ebp .cfa: $esp 4 +
STACK CFI 2af72 $ebp: .cfa -8 + ^ $ebx: .cfa -20 + ^ $edi: .cfa -12 + ^ $esi: .cfa -16 + ^ .cfa: $esp 112 +
STACK CFI 2afb0 .cfa: $esp 20 +
STACK CFI 2afb1 $ebx: $ebx .cfa: $esp 16 +
STACK CFI 2afb2 $esi: $esi .cfa: $esp 12 +
STACK CFI 2afb3 $edi: $edi .cfa: $esp 8 +
STACK CFI 2afb4 $ebp: $ebp .cfa: $esp 4 +
STACK CFI 2afb5 $ebp: .cfa -8 + ^ $ebx: .cfa -20 + ^ $edi: .cfa -12 + ^ $esi: .cfa -16 + ^ .cfa: $esp 112 +
STACK CFI 2afce .cfa: $esp 104 +
STACK CFI 2afd1 .cfa: $esp 112 +
STACK CFI 2afff .cfa: $esp 20 +
STACK CFI 2b000 $ebx: $ebx .cfa: $esp 16 +
STACK CFI 2b001 $esi: $esi .cfa: $esp 12 +
STACK CFI 2b002 $edi: $edi .cfa: $esp 8 +
STACK CFI 2b003 $ebp: $ebp .cfa: $esp 4 +
STACK CFI 2b004 $ebp: .cfa -8 + ^ $ebx: .cfa -20 + ^ $edi: .cfa -12 + ^ $esi: .cfa -16 + ^ .cfa: $esp 112 +
STACK CFI 2b066 .cfa: $esp 20 +
STACK CFI 2b067 $ebx: $ebx .cfa: $esp 16 +
STACK CFI 2b068 $esi: $esi .cfa: $esp 12 +
STACK CFI 2b069 $edi: $edi .cfa: $esp 8 +
STACK CFI 2b06a $ebp: $ebp .cfa: $esp 4 +
STACK CFI INIT 1a3fe0 419 .cfa: $esp 4 + .ra: .cfa -4 + ^
STACK CFI 1a3fe1 $ebp: .cfa -8 + ^ .cfa: $esp 8 +
STACK CFI 1a3fe3 .cfa: $ebp 8 +
STACK CFI 1a3fed $ebx: .cfa -12 + ^
STACK CFI 1a4365 $ebp: $ebp $ebx: $ebx .cfa: $esp 4 +
STACK CFI 1a4366 $ebp: .cfa -8 + ^ $ebx: .cfa -12 + ^ .cfa: $ebp 8 +
STACK CFI INIT 12e290 35 .cfa: $esp 4 + .ra: .cfa -4 + ^
STACK CFI 12e291 $ebx: .cfa -8 + ^ .cfa: $esp 8 +
STACK CFI 12e299 .cfa: $esp 32 +
STACK CFI 12e2c3 .cfa: $esp 8 +
STACK CFI 12e2c4 $ebx: $ebx .cfa: $esp 4 +
STACK CFI INIT 12e250 3d .cfa: $esp 4 + .ra: .cfa -4 + ^
STACK CFI 12e251 $ebx: .cfa -8 + ^ .cfa: $esp 8 +
STACK CFI 12e259 .cfa: $esp 32 +
STACK CFI 12e28b .cfa: $esp 8 +
STACK CFI 12e28c $ebx: $ebx .cfa: $esp 4 +
STACK CFI INIT 17aab0 4d .cfa: $esp 4 + .ra: .cfa -4 + ^
STACK CFI 17aab1 $ebx: .cfa -8 + ^ .cfa: $esp 8 +
STACK CFI 17aab9 .cfa: $esp 32 +
STACK CFI 17aafb .cfa: $esp 8 +
STACK CFI 17aafc $ebx: $ebx .cfa: $esp 4 +
STACK CFI INIT 176de0 55 .cfa: $esp 4 + .ra: .cfa -4 + ^
STACK CFI 176de1 $ebx: .cfa -8 + ^ .cfa: $esp 8 +
STACK CFI 176de9 .cfa: $esp 32 +
STACK CFI 176e33 .cfa: $esp 8 +
STACK CFI 176e34 $ebx: $ebx .cfa: $esp 4 +
STACK CFI INIT 17aa50 55 .cfa: $esp 4 + .ra: .cfa -4 + ^
STACK CFI 17aa51 $ebx: .cfa -8 + ^ .cfa: $esp 8 +
STACK CFI 17aa59 .cfa: $esp 32 +
STACK CFI 17aaa3 .cfa: $esp 8 +
STACK CFI 17aaa4 $ebx: $ebx .cfa: $esp 4 +
STACK CFI INIT 176e40 4d .cfa: $esp 4 + .ra: .cfa -4 + ^
STACK CFI 176e41 $ebx: .cfa -8 + ^ .cfa: $esp 8 +
STACK CFI 176e49 .cfa: $esp 32 +
STACK CFI 176e8b .cfa: $esp 8 +
STACK CFI 176e8c $ebx: $ebx .cfa: $esp 4 +
STACK CFI INIT 176b10 2b .cfa: $esp 4 + .ra: .cfa -4 + ^
STACK CFI 176b11 $ebx: .cfa -8 + ^ .cfa: $esp 8 +
STACK CFI 176b19 .cfa: $esp 32 +
STACK CFI 176b2f .cfa: $esp 24 +
STACK CFI 176b32 .cfa: $esp 32 +
STACK CFI 176b37 .cfa: $esp 8 +
STACK CFI 176b38 $ebx: $ebx .cfa: $esp 4 +
STACK CFI INIT 176b40 33 .cfa: $esp 4 + .ra: .cfa -4 + ^
STACK CFI 176b41 $ebx: .cfa -8 + ^ .cfa: $esp 8 +
STACK CFI 176b4c .cfa: $esp 32 +
STACK CFI 176b67 .cfa: $esp 24 +
STACK CFI 176b6a .cfa: $esp 32 +
STACK CFI 176b6f .cfa: $esp 8 +
STACK CFI 176b70 $ebx: $ebx .cfa: $esp 4 +
STACK CFI INIT 174280 7df .cfa: $esp 4 + .ra: .cfa -4 + ^
STACK CFI 174281 $ebp: .cfa -8 + ^ .cfa: $esp 8 +
STACK CFI 174283 .cfa: $ebp 8 +
STACK CFI 174285 $ebx: .cfa -16 + ^ $esi: .cfa -12 + ^
STACK CFI 174721 $ebx: $ebx
STACK CFI 174722 $esi: $esi
STACK CFI 174723 $ebp: $ebp .cfa: $esp 4 +
STACK CFI 174724 $ebp: .cfa -8 + ^ $ebx: .cfa -16 + ^ $esi: .cfa -12 + ^ .cfa: $ebp 8 +
STACK CFI INIT 1474b0 6e9 .cfa: $esp 4 + .ra: .cfa -4 + ^
STACK CFI 1474b1 $ebp: .cfa -8 + ^ .cfa: $esp 8 +
STACK CFI 1474b3 .cfa: $ebp 8 +
STACK CFI 1474bb $ebx: .cfa -16 + ^ $esi: .cfa -12 + ^
STACK CFI 14752f $ebx: $ebx
STACK CFI 147530 $esi: $esi
STACK CFI 147531 $ebp: $ebp .cfa: $esp 4 +
STACK CFI 147534 $ebp: .cfa -8 + ^ $ebx: .cfa -16 + ^ $esi: .cfa -12 + ^ .cfa: $ebp 8 +
STACK CFI INIT 147ba0 6e9 .cfa: $esp 4 + .ra: .cfa -4 + ^
STACK CFI 147ba1 $ebp: .cfa -8 + ^ .cfa: $esp 8 +
STACK CFI 147ba3 .cfa: $ebp 8 +
STACK CFI 147bab $ebx: .cfa -16 + ^ $esi: .cfa -12 + ^
STACK CFI 147c1f $ebx: $ebx
STACK CFI 147c20 $esi: $esi
STACK CFI 147c21 $ebp: $ebp .cfa: $esp 4 +
STACK CFI 147c24 $ebp: .cfa -8 + ^ $ebx: .cfa -16 + ^ $esi: .cfa -12 + ^ .cfa: $ebp 8 +
STACK CFI INIT 167c30 6c9 .cfa: $esp 4 + .ra: .cfa -4 + ^
STACK CFI 167c31 $ebp: .cfa -8 + ^ .cfa: $esp 8 +
STACK CFI 167c33 .cfa: $ebp 8 +
STACK CFI 167c3b $ebx: .cfa -16 + ^ $esi: .cfa -12 + ^
STACK CFI 167cae $ebx: $ebx
STACK CFI 167caf $esi: $esi
STACK CFI 167cb0 $ebp: $ebp .cfa: $esp 4 +
STACK CFI 167cb3 $ebp: .cfa -8 + ^ $ebx: .cfa -16 + ^ $esi: .cfa -12 + ^ .cfa: $ebp 8 +
STACK CFI INIT 168300 6e9 .cfa: $esp 4 + .ra: .cfa -4 + ^
STACK CFI 168301 $ebp: .cfa -8 + ^ .cfa: $esp 8 +
STACK CFI 168303 .cfa: $ebp 8 +
STACK CFI 16830b $ebx: .cfa -16 + ^ $esi: .cfa -12 + ^
STACK CFI 16837e $ebx: $ebx
STACK CFI 16837f $esi: $esi
STACK CFI 168380 $ebp: $ebp .cfa: $esp 4 +
STACK CFI 168383 $ebp: .cfa -8 + ^ $ebx: .cfa -16 + ^ $esi: .cfa -12 + ^ .cfa: $ebp 8 +
STACK CFI INIT 169bb0 719 .cfa: $esp 4 + .ra: .cfa -4 + ^
STACK CFI 169bb1 $ebp: .cfa -8 + ^ .cfa: $esp 8 +
STACK CFI 169bb3 .cfa: $ebp 8 +
STACK CFI 169bbb $ebx: .cfa -16 + ^ $esi: .cfa -12 + ^
STACK CFI 169c2e $ebx: $ebx
STACK CFI 169c2f $esi: $esi
STACK CFI 169c30 $ebp: $ebp .cfa: $esp 4 +
STACK CFI 169c33 $ebp: .cfa -8 + ^ $ebx: .cfa -16 + ^ $esi: .cfa -12 + ^ .cfa: $ebp 8 +
STACK CFI INIT 14a860 6f9 .cfa: $esp 4 + .ra: .cfa -4 + ^
STACK CFI 14a861 $ebp: .cfa -8 + ^ .cfa: $esp 8 +
STACK CFI 14a863 .cfa: $ebp 8 +
STACK CFI 14a86b $ebx: .cfa -16 + ^ $esi: .cfa -12 + ^
STACK CFI 14a8de $ebx: $ebx
STACK CFI 14a8df $esi: $esi
STACK CFI 14a8e0 $ebp: $ebp .cfa: $esp 4 +
STACK CFI 14a8e3 $ebp: .cfa -8 + ^ $ebx: .cfa -16 + ^ $esi: .cfa -12 + ^ .cfa: $ebp 8 +
STACK CFI INIT 14a170 6e9 .cfa: $esp 4 + .ra: .cfa -4 + ^
STACK CFI 14a171 $ebp: .cfa -8 + ^ .cfa: $esp 8 +
STACK CFI 14a173 .cfa: $ebp 8 +
STACK CFI 14a17b $ebx: .cfa -16 + ^ $esi: .cfa -12 + ^
STACK CFI 14a1ee $ebx: $ebx
STACK CFI 14a1ef $esi: $esi
STACK CFI 14a1f0 $ebp: $ebp .cfa: $esp 4 +
STACK CFI 14a1f3 $ebp: .cfa -8 + ^ $ebx: .cfa -16 + ^ $esi: .cfa -12 + ^ .cfa: $ebp 8 +
STACK CFI INIT 1756f0 246 .cfa: $esp 4 + .ra: .cfa -4 + ^
STACK CFI 1756f1 $ebp: .cfa -8 + ^ .cfa: $esp 8 +
STACK CFI 1756f3 .cfa: $ebp 8 +
STACK CFI 175862 $ebp: $ebp .cfa: $esp 4 +
STACK CFI 175863 $ebp: .cfa -8 + ^ .cfa: $ebp 8 +
STACK CFI INIT 122d50 59e .cfa: $esp 4 + .ra: .cfa -4 + ^
STACK CFI 122d51 $ebp: .cfa -8 + ^ .cfa: $esp 8 +
STACK CFI 122d53 .cfa: $ebp 8 +
STACK CFI 122d5f $ebx: .cfa -20 + ^ $edi: .cfa -12 + ^ $esi: .cfa -16 + ^
STACK CFI 1230bf $ebx: $ebx
STACK CFI 1230c0 $esi: $esi
STACK CFI 1230c1 $edi: $edi
STACK CFI 1230c2 $ebp: $ebp .cfa: $esp 4 +
STACK CFI 1230c3 $ebp: .cfa -8 + ^ $ebx: .cfa -20 + ^ $edi: .cfa -12 + ^ $esi: .cfa -16 + ^ .cfa: $ebp 8 +
STACK CFI INIT 174a60 255 .cfa: $esp 4 + .ra: .cfa -4 + ^
STACK CFI 174a61 $ebp: .cfa -8 + ^ .cfa: $esp 8 +
STACK CFI 174a63 .cfa: $ebp 8 +
STACK CFI 174bd9 $ebp: $ebp .cfa: $esp 4 +
STACK CFI 174be0 $ebp: .cfa -8 + ^ .cfa: $ebp 8 +
STACK CFI INIT 12e080 1cd .cfa: $esp 4 + .ra: .cfa -4 + ^
STACK CFI 12e081 $ebp: .cfa -8 + ^ .cfa: $esp 8 +
STACK CFI 12e083 .cfa: $ebp 8 +
STACK CFI 12e084 $ebx: .cfa -12 + ^
STACK CFI 12e1c3 $ebp: $ebp $ebx: $ebx .cfa: $esp 4 +
STACK CFI 12e1d0 $ebp: .cfa -8 + ^ $ebx: .cfa -12 + ^ .cfa: $ebp 8 +
STACK CFI INIT 143ad0 15a .cfa: $esp 4 + .ra: .cfa -4 + ^
STACK CFI 143ad1 $ebp: .cfa -8 + ^ .cfa: $esp 8 +
STACK CFI 143ad3 .cfa: $ebp 8 +
STACK CFI 143b29 $ebp: $ebp .cfa: $esp 4 +
STACK CFI 143b30 $ebp: .cfa -8 + ^ .cfa: $ebp 8 +
STACK CFI 143bda $ebp: $ebp .cfa: $esp 4 +
STACK CFI 143bdd $ebp: .cfa -8 + ^ .cfa: $ebp 8 +
STACK CFI INIT 17a350 143 .cfa: $esp 4 + .ra: .cfa -4 + ^
STACK CFI 17a351 $ebp: .cfa -8 + ^ .cfa: $esp 8 +
STACK CFI 17a357 .cfa: $esp 144 +
STACK CFI 17a43c .cfa: $esp 8 +
STACK CFI 17a43d $ebp: $ebp .cfa: $esp 4 +
STACK CFI 17a440 $ebp: .cfa -8 + ^ .cfa: $esp 144 +
STACK CFI INIT 17a6c0 38c .cfa: $esp 4 + .ra: .cfa -4 + ^
STACK CFI 17a6c1 $ebp: .cfa -8 + ^ .cfa: $esp 8 +
STACK CFI 17a6c3 .cfa: $ebp 8 +
STACK CFI 17a8f5 $ebp: $ebp .cfa: $esp 4 +
STACK CFI 17a900 $ebp: .cfa -8 + ^ .cfa: $ebp 8 +
STACK CFI INIT 176740 17a .cfa: $esp 4 + .ra: .cfa -4 + ^
STACK CFI 176741 $ebp: .cfa -8 + ^ .cfa: $esp 8 +
STACK CFI 176743 .cfa: $ebp 8 +
STACK CFI 176846 $ebp: $ebp .cfa: $esp 4 +
STACK CFI 176850 $ebp: .cfa -8 + ^ .cfa: $ebp 8 +
STACK CFI INIT 176b80 257 .cfa: $esp 4 + .ra: .cfa -4 + ^
STACK CFI 176b81 $ebp: .cfa -8 + ^ .cfa: $esp 8 +
STACK CFI 176b83 .cfa: $ebp 8 +
STACK CFI 176d08 $ebp: $ebp .cfa: $esp 4 +
STACK CFI 176d10 $ebp: .cfa -8 + ^ .cfa: $ebp 8 +
STACK CFI INIT 17a4a0 219 .cfa: $esp 4 + .ra: .cfa -4 + ^
STACK CFI 17a4a1 $ebp: .cfa -8 + ^ .cfa: $esp 8 +
STACK CFI 17a4a7 .cfa: $esp 192 +
STACK CFI 17a609 .cfa: $esp 8 +
STACK CFI 17a60a $ebp: $ebp .cfa: $esp 4 +
STACK CFI 17a610 $ebp: .cfa -8 + ^ .cfa: $esp 192 +
STACK CFI 17a63c .cfa: $esp 184 +
STACK CFI 17a63f .cfa: $esp 192 +
STACK CFI INIT 1768c0 24a .cfa: $esp 4 + .ra: .cfa -4 + ^
STACK CFI 1768c1 $ebp: .cfa -8 + ^ .cfa: $esp 8 +
STACK CFI 1768c3 .cfa: $ebp 8 +
STACK CFI 1768ca $ebx: .cfa -12 + ^
STACK CFI 1769ec $ebp: $ebp $ebx: $ebx .cfa: $esp 4 +
STACK CFI 1769f0 $ebp: .cfa -8 + ^ $ebx: .cfa -12 + ^ .cfa: $ebp 8 +
STACK CFI INIT 2b070 a .cfa: $esp 4 + .ra: .cfa -4 + ^
STACK CFI INIT 2b080 41 .cfa: $esp 4 + .ra: .cfa -4 + ^
STACK CFI 2b081 $esi: .cfa -8 + ^ .cfa: $esp 8 +
STACK CFI 2b082 $ebx: .cfa -12 + ^ .cfa: $esp 12 +
STACK CFI 2b085 .cfa: $esp 32 +
