MODULE windows x86_64 B1124C0877D7AF526833B0844917B61C1 daemonded.exe
FUNC 1000 1 0 __mingw_invalidParameterHandler
FUNC 1010 141 0 pre_c_init
FUNC 1160 49 0 pre_cpp_init
FUNC 11b0 326 0 __tmainCRTStartup
FUNC 14e0 22 0 WinMainCRTStartup
FUNC 1510 22 0 mainCRTStartup
FUNC 1570 1 0 __tcf_4
FUNC 1580 21 0 __tcf_3
FUNC 15b0 c 0 __tcf_0
FUNC 15c0 94 0 std::__cxx11::basic_string<char, std::char_traits<char>, std::allocator<char> >::_M_construct<char const*>
FUNC 1660 27 0 std::__detail::_Hashtable_alloc<std::allocator<std::__detail::_Hash_node<std::pair<const std::__cxx11::basic_string<char, std::char_traits<char>, std::allocator<char> >, proxyInfo_t>, true> > >::_M_deallocate_node
FUNC 1690 76 0 __tcf_1
FUNC 1710 157 0 EscapeString
FUNC 1870 77 0 __tcf_2
FUNC 18f0 5 0 Cmd_SaveCmdContext
FUNC 1900 5 0 Cmd_RestoreCmdContext
FUNC 1910 15 0 Cmd_Argc
FUNC 1930 67 0 Cmd_Argv
FUNC 19a0 7d 0 Cmd_ArgsFrom
FUNC 1a20 a 0 Cmd_Args
FUNC 1a30 5 0 Cmd_QuoteString
FUNC 1a40 27 0 Cmd_QuoteStringBuffer
FUNC 1a70 1b0 0 Cmd_UnquoteString
FUNC 1c20 89 0 Cmd_TokenizeString
FUNC 1cb0 1080 0 Cmd_PrintUsage
FUNC 2d30 202 0 Cmd_OnCompleteMatch
FUNC 2f40 206 0 Cmd_RemoveCommand
FUNC 3150 18c 0 Cmd_AddCommand
FUNC 32e0 89 0 Cmd_SetCommandCompletionFunc
FUNC 3370 8 0 SetCheatMode
FUNC 3380 5 0 Com_In_Restart_f
FUNC 3390 2e 0 Com_Error_f
FUNC 33c0 d 0 Com_Crash_f
FUNC 33d0 c 0 __tcf_0
FUNC 33e0 94 0 std::__cxx11::basic_string<char, std::char_traits<char>, std::allocator<char> >::_M_construct<char const*>
FUNC 3480 32 0 __tcf_3
FUNC 34c0 75 0 __tcf_5
FUNC 3540 75 0 __tcf_10
FUNC 35c0 75 0 __tcf_1
FUNC 3640 a5 0 __tcf_2
FUNC 36f0 75 0 __tcf_7
FUNC 3770 75 0 __tcf_4
FUNC 37f0 75 0 __tcf_6
FUNC 3870 75 0 __tcf_8
FUNC 38f0 89 0 __tcf_9
FUNC 3980 65 0 Com_ParseCommandLine
FUNC 39f0 1de 0 Com_StartupVariable
FUNC 3bd0 8 0 Com_AreCheatsAllowed
FUNC 3be0 81 0 Com_IsClient
FUNC 3c70 11 0 Com_IsDedicatedServer
FUNC 3c90 10 0 Com_ServerRunning
FUNC 3ca0 10 0 Com_Allocate_Aligned
FUNC 3cb0 7 0 Com_Free_Aligned
FUNC 3cc0 19 0 Hunk_SetMark
FUNC 3ce0 25 0 Hunk_ClearToMark
FUNC 3d10 147 0 Hunk_Alloc
FUNC 3e60 f4 0 Hunk_AllocateTempMemory
FUNC 3f60 5 0 Com_Milliseconds
FUNC 3f70 2b 0 Com_Shutdown
FUNC 3fa0 cb 0 Hunk_FreeTempMemory
FUNC 4070 96 0 Com_QueueEvent
FUNC 4110 2ab 0 Com_GetEvent
FUNC 43c0 e4 0 Com_SetRecommended
FUNC 44b0 a9 0 Com_Freeze_f
FUNC 4560 1ae 0 Info_Print
FUNC 4710 3c9 0 Com_Meminfo_f
FUNC 4ae0 ac 0 Hunk_Clear
FUNC 4b90 c8 0 Com_InitHunkMemory
FUNC 4c60 371 0 Com_Init
FUNC 4fe0 96 0 Com_WriteConfigToFile
FUNC 5080 2b 0 Com_WriteConfiguration
FUNC 50b0 11 0 Com_WriteConfiguration
FUNC 50d0 97 0 Com_WriteConfig_f
FUNC 5170 c5 0 Com_RunAndTimeServerPacket
FUNC 5240 147e 0 Com_EventLoop
FUNC 66c0 10c 0 Com_ModifyMsec
FUNC 67d0 5dd 0 Com_Frame
FUNC 6db0 c 0 __tcf_0
FUNC 6dc0 8 0 qnettle_random
FUNC 6dd0 c 0 __tcf_0
FUNC 6de0 f9 0 Cvar_FindVar
FUNC 6ee0 1c 0 Cvar_VariableValue
FUNC 6f00 1a 0 Cvar_VariableIntegerValue
FUNC 6f20 21 0 Cvar_VariableString
FUNC 6f50 3a 0 Cvar_VariableStringBuffer
FUNC 6f90 271 0 Cvar_Get
FUNC 7210 109 0 Cvar_Reset
FUNC 7320 1f0 0 Cvar_Set
FUNC 7510 6c 0 Cvar_SetValue
FUNC 7580 60 0 Cvar_WriteVariables
FUNC 75e0 8 0 Cvar_InfoString
FUNC 75f0 1 0 __tcf_6
FUNC 7600 c 0 __tcf_0
FUNC 7610 16 0 FS_AllocHandle
FUNC 7630 67 0 FS_CheckHandle
FUNC 76a0 94 0 std::__cxx11::basic_string<char, std::char_traits<char>, std::allocator<char> >::_M_construct<char const*>
FUNC 7760 78 0 __tcf_3
FUNC 77e0 88 0 __tcf_4
FUNC 7870 75 0 __tcf_5
FUNC 78f0 89 0 __tcf_1
FUNC 7980 89 0 __tcf_2
FUNC 7a10 4a 0 FS_FileExists
FUNC 7a60 50 0 FS_FTell
FUNC 7ab0 2e 0 FS_ForceFlush
FUNC 7ae0 11 0 FS_FreeFile
FUNC 7b00 47 0 FS_FreeFileList
FUNC 7b50 46b 0 FS_GetFileList
FUNC 7fc0 46b 0 FS_GetFileListRecursive
FUNC 8430 123 0 FS_LoadedPaks
FUNC 8560 252 0 FS_LoadAllMapMetadata
FUNC 87c0 ee 0 FS_filelength
FUNC 88b0 16b 0 FS_Seek
FUNC 8a20 9a 0 FS_Flush
FUNC 8ac0 e0 0 FS_Write
FUNC 8ba0 94 0 FS_Printf
FUNC 8c40 123 0 FS_Read
FUNC 8d70 da 0 FS_Rename
FUNC 8e50 5 0 FS_SV_Rename
FUNC 8e60 49d 0 FS_ListFiles
FUNC 9300 37c 0 FS_ComparePaks
FUNC 9680 8e 0 Cmd::CmdBase::Print<const std::__cxx11::basic_string<char, std::char_traits<char>, std::allocator<char> >&>
FUNC 9710 35f 0 FS_FOpenFileRead
FUNC 9a70 1f4 0 FS_SV_FOpenFileRead
FUNC 9c70 490 0 FS_FOpenFileWrite_internal
FUNC a100 7 0 FS_FOpenFileWrite
FUNC a120 a 0 FS_FOpenFileWriteViaTemporary
FUNC a130 13f 0 FS_FOpenFileAppend
FUNC a270 24b 0 FS_Game_FOpenFileByMode
FUNC a4c0 9a 0 FS_Delete
FUNC a560 12a 0 FS_WriteFile
FUNC a690 b0 0 FS_LoadPak
FUNC a740 224 0 FS_LoadBasePak
FUNC a970 484 0 FS_LoadServerPaks
FUNC ae00 30e 0 FS_FCloseFile
FUNC b110 7b 0 FS_ReadFile
FUNC b190 71 0 swaplist
FUNC b210 1a8 0 increment
FUNC b3c0 c 0 __tcf_0
FUNC b3d0 90 0 send
FUNC b460 3b 0 Huff_putBit
FUNC b4a0 29 0 Huff_getBit
FUNC b4d0 2e5 0 Huff_addRef
FUNC b7c0 6a 0 Huff_Receive
FUNC b830 7d 0 Huff_offsetReceive
FUNC b8b0 9c 0 Huff_transmit
FUNC b950 31 0 Huff_offsetTransmit
FUNC b990 1f6 0 Huff_Decompress
FUNC bb90 116 0 Huff_Compress
FUNC bcb0 116 0 Huff_Init
FUNC bdd0 36 0 qsort_entitystatefields
FUNC be10 36 0 qsort_playerstatefields
FUNC be50 c 0 __tcf_0
FUNC be60 94 0 std::__cxx11::basic_string<char, std::char_traits<char>, std::allocator<char> >::_M_construct<char const*>
FUNC bf00 13 0 MSG_Clear
FUNC bf20 5 0 MSG_Bitstream
FUNC bf30 11 0 MSG_Uncompressed
FUNC bf50 d 0 MSG_BeginReading
FUNC bf60 d 0 MSG_BeginReadingOOB
FUNC bf80 5a 0 MSG_Copy
FUNC bfe0 17c 0 MSG_WriteBits
FUNC c160 170 0 MSG_ReadBits
FUNC c2d0 b 0 MSG_WriteChar
FUNC c2f0 42 0 MSG_WriteData
FUNC c340 b 0 MSG_WriteShort
FUNC c350 b 0 MSG_WriteLong
FUNC c360 f 0 MSG_WriteFloat
FUNC c370 1a 0 MSG_WriteAngle
FUNC c390 1a 0 MSG_WriteAngle16
FUNC c3b0 29 0 MSG_ReadChar
FUNC c3e0 29 0 MSG_ReadByte
FUNC c410 27 0 MSG_ReadShort
FUNC c440 26 0 MSG_ReadLong
FUNC c470 32 0 MSG_ReadFloat
FUNC c4b0 5c 0 MSG_ReadString
FUNC c510 5c 0 MSG_ReadBigString
FUNC c570 64 0 MSG_ReadStringLine
FUNC c5e0 3d 0 MSG_ReadAngle16
FUNC c620 4c 0 MSG_ReadData
FUNC c670 63 0 MSG_HashKey
FUNC c6e0 51 0 MSG_WriteDelta
FUNC c740 41 0 MSG_ReadDelta
FUNC c790 43 0 MSG_WriteDeltaFloat
FUNC c7e0 43 0 MSG_ReadDeltaFloat
FUNC c830 52 0 MSG_WriteDeltaKey
FUNC c890 4a 0 MSG_ReadDeltaKey
FUNC c8e0 49 0 MSG_WriteDeltaKeyFloat
FUNC c930 3f 0 MSG_ReadDeltaKeyFloat
FUNC c970 1cd 0 MSG_WriteDeltaUsercmd
FUNC cb40 1ad 0 MSG_ReadDeltaUsercmd
FUNC ccf0 8d 0 MSG_initHuffman
FUNC cd80 5c 0 MSG_Init
FUNC cde0 60 0 MSG_InitOOB
FUNC ce40 c3 0 MSG_WriteString
FUNC cf10 c3 0 MSG_WriteBigString
FUNC cfe0 11c 0 MSG_PrioritiseEntitystateFields
FUNC d100 11c 0 MSG_PrioritisePlayerStateFields
FUNC d220 2c9 0 MSG_WriteDeltaEntity
FUNC d4f0 5a4 0 MSG_ReadDeltaEntity
FUNC daa0 464 0 MSG_WriteDeltaPlayerstate
FUNC df10 5c7 0 MSG_ReadDeltaPlayerstate
FUNC e4e0 c 0 __tcf_0
FUNC e4f0 94 0 std::__cxx11::basic_string<char, std::char_traits<char>, std::allocator<char> >::_M_construct<char const*>
FUNC e590 78 0 Netchan_Init
FUNC e610 67 0 Netchan_Setup
FUNC e680 c0 0 NET_GetLoopPacket
FUNC e740 5b 0 NET_SendLoopPacket
FUNC e7a0 9e 0 NET_FlushPacketQueue
FUNC e840 1ce 0 NET_StringToAdr
FUNC ea10 56b 0 Netchan_Process
FUNC ef80 299 0 NET_SendPacket
FUNC f220 1bb 0 Netchan_TransmitNextFragment
FUNC f3e0 1ac 0 Netchan_Transmit
FUNC f590 c 0 __tcf_0
FUNC f5a0 94 0 std::__cxx11::basic_string<char, std::char_traits<char>, std::allocator<char> >::_M_construct<char const*>
FUNC f640 137 0 NET_AddLocalAddress
FUNC f780 43c 0 NET_ErrorString
FUNC fbc0 f5 0 NetadrToSockadr
FUNC fcc0 57 0 Sys_SockaddrToString
FUNC fd20 c8 0 NET_AdrToString
FUNC fdf0 1b1 0 NET_AdrToStringwPort
FUNC ffb0 7 0 NET_IsLocalAddress
FUNC ffc0 150 0 Sys_IsLANAddress
FUNC 10110 52 0 NET_LeaveMulticast6
FUNC 10170 75 0 NET_GeoIP_Country
FUNC 101f0 d6 0 NET_Sleep
FUNC 102d0 1e6 0 NET_CompareBaseAdrMask
FUNC 104c0 78 0 NET_CompareBaseAdr
FUNC 10540 87 0 NET_CompareAdr
FUNC 105d0 b4 0 Sys_ShowIP
FUNC 10690 1b3 0 NET_GetLocalAddress
FUNC 10850 2f1 0 Sys_StringToSockaddr
FUNC 10b50 aa 0 Sys_StringToAdr
FUNC 10c00 c3 0 NET_SetMulticast6
FUNC 10cd0 2f7 0 Sys_SendPacket
FUNC 10fd0 479 0 Sys_GetPacket
FUNC 11450 304 0 NET_IPSocket
FUNC 11760 437 0 NET_IP6Socket
FUNC 11ba0 215 0 NET_JoinMulticast6
FUNC 11dc0 590 0 NET_OpenSocks
FUNC 12350 61d 0 NET_Config
FUNC 12970 62 0 NET_Shutdown
FUNC 129e0 a 0 NET_Restart_f
FUNC 129f0 270 0 NET_Init
FUNC 12c60 61 0 Parse_AddDefineToHash
FUNC 12cd0 82 0 Parse_FindHashedDefine
FUNC 12d60 5f 0 Parse_PopIndent
FUNC 12dc0 26 0 Parse_FreeScript
FUNC 12df0 69 0 Parse_FreeDefine
FUNC 12e60 4e 0 Parse_PushIndent
FUNC 12eb0 3f 0 Parse_StripDoubleQuotes
FUNC 12ef0 5e 0 Parse_ConvertPath
FUNC 12f50 c 0 __tcf_0
FUNC 12f60 f0 0 Parse_ReadWhiteSpace
FUNC 13050 50 0 Parse_CopyToken
FUNC 130a0 90 0 Parse_UnreadSignToken
FUNC 13130 94 0 std::__cxx11::basic_string<char, std::char_traits<char>, std::allocator<char> >::_M_construct<char const*>
FUNC 131d0 112 0 Parse_CreatePunctuationTable
FUNC 132f0 c5 0 Parse_LoadScriptMemory
FUNC 133c0 fe 0 Parse_LoadScriptFile
FUNC 134c0 209 0 Parse_LoadSourceHandle
FUNC 136d0 10b 0 Parse_FreeSourceHandle
FUNC 137e0 73 0 Parse_SourceFileAndLine
FUNC 13860 7a 0 Parse_SourceError
FUNC 138e0 c6f 0 Parse_EvaluateTokens
FUNC 14550 17 0 Parse_Directive_line
FUNC 14570 71 0 Parse_PushScript
FUNC 145f0 4d 0 Parse_Directive_endif
FUNC 14640 8d 0 Parse_Directive_else
FUNC 146d0 8a 0 Parse_ScriptError
FUNC 14760 91 0 Parse_ScriptWarning
FUNC 14800 362 0 Parse_ReadString
FUNC 14b70 a65 0 Parse_ReadSourceToken
FUNC 155e0 a0 0 Parse_ReadLine
FUNC 15680 3e 0 Parse_Directive_pragma
FUNC 156c0 1b9 0 Parse_Directive_undef
FUNC 15880 15 0 Parse_Directive_undef
FUNC 158a0 d2 0 Parse_Directive_if_def
FUNC 15980 a 0 Parse_Directive_ifndef
FUNC 15990 a 0 Parse_Directive_ifdef
FUNC 159a0 3c 0 Parse_Directive_error
FUNC 159e0 1c2 0 Parse_Directive_include
FUNC 15bb0 15 0 Parse_Directive_include
FUNC 15bd0 901 0 Parse_ExpandDefine
FUNC 164e0 56 0 Parse_ExpandDefineIntoSource
FUNC 16540 36f 0 Parse_DollarEvaluate
FUNC 168b0 10d 0 Parse_DollarDirective_evalfloat
FUNC 169c0 108 0 Parse_DollarDirective_evalint
FUNC 16ad0 304 0 Parse_Evaluate
FUNC 16de0 f2 0 Parse_Directive_evalfloat
FUNC 16ee0 ec 0 Parse_Directive_eval
FUNC 16fd0 89 0 Parse_Directive_elif
FUNC 17060 44 0 Parse_Directive_if
FUNC 170b0 799 0 Parse_ReadToken
FUNC 17850 a5 0 Parse_ReadTokenHandle
FUNC 17900 4f5 0 Parse_Directive_define
FUNC 17e00 15 0 Parse_Directive_define
FUNC 17e20 132 0 Parse_DefineFromString
FUNC 17f60 8e 0 Parse_AddGlobalDefine
FUNC 17ff0 32 0 __tcf_2
FUNC 18030 c 0 __tcf_4
FUNC 18040 c 0 __tcf_3
FUNC 18050 c 0 __tcf_0
FUNC 18060 62 0 __tcf_1
FUNC 180d0 94 0 std::__cxx11::basic_string<char, std::char_traits<char>, std::allocator<char> >::_M_construct<char const*>
FUNC 18170 165 0 Trans_Gettext_Internal
FUNC 182e0 1d8 0 Trans_Pgettext_Internal
FUNC 184c0 1f8 0 Trans_GettextPlural_Internal
FUNC 186c0 c 0 Trans_Gettext
FUNC 186d0 c 0 Trans_Pgettext
FUNC 186e0 c 0 Trans_GettextPlural
FUNC 186f0 c 0 Trans_GettextGame
FUNC 18700 c 0 Trans_PgettextGame
FUNC 18710 c 0 Trans_GettextGamePlural
FUNC 18720 3d 0 Trans_Error
FUNC 18760 4b 0 Trans_Warning
FUNC 187b0 40 0 Trans_Info
FUNC 187f0 325 0 Trans_SetLanguage
FUNC 18b20 10 0 Trans_UpdateLanguage_f
FUNC 18b30 a7 0 Trans_LoadDefaultLanguage
FUNC 18be0 4aa 0 Trans_Init
FUNC 19090 c 0 __tcf_0
FUNC 190a0 f 0 rVec::rVec
FUNC 190b0 1d 0 rVec::rVec
FUNC 190d0 1d 0 rVec::rVec
FUNC 190f0 f 0 qVec::qVec
FUNC 19100 1d 0 qVec::qVec
FUNC 19120 1d 0 qVec::qVec
FUNC 19140 23 0 rBounds::rBounds
FUNC 19170 4f 0 rBounds::addPoint
FUNC 191c0 b5 0 rBounds::rBounds
FUNC 19280 2a 0 rBounds::clear
FUNC 192b0 52 0 botRouteTargetInternal::botRouteTargetInternal
FUNC 19310 1 0 __tcf_1
FUNC 19320 c 0 __tcf_0
FUNC 19330 94 0 std::__cxx11::basic_string<char, std::char_traits<char>, std::allocator<char> >::_M_construct<char const*>
FUNC 193f0 1c6 0 BotSaveOffMeshConnections
FUNC 195c0 14c 0 BotLoadOffMeshConnections
FUNC 19710 f0 0 BotShutdownNav
FUNC 19800 507 0 BotLoadNavMesh
FUNC 19d10 25a 0 BotSetupNav
FUNC 19f70 c 0 __tcf_0
FUNC 19f80 14e 0 BotCalcSteerDir
FUNC 1a0d0 6b 0 PointInPolyExtents
FUNC 1a140 65 0 PointInPoly
FUNC 1a1b0 c9 0 BotFindNearestPoly
FUNC 1a280 269 0 FindRoute
FUNC 1a4f0 7c 0 FindWaypoints
FUNC 1a570 1e 0 frand
FUNC 1a590 c 0 __tcf_0
FUNC 1a5a0 30 0 __tcf_1
FUNC 1a5d0 2c8 0 BotSetPolyFlags
FUNC 1a8a0 8e 0 BotDisableArea
FUNC 1a930 91 0 BotEnableArea
FUNC 1a9d0 51 0 GetEntPosition
FUNC 1aa30 30 0 GetEntPosition
FUNC 1aa60 8f 0 BotFindRouteExt
FUNC 1aaf0 dc 0 UpdatePathCorridor
FUNC 1abd0 804 0 BotUpdateCorridor
FUNC 1b3e0 121 0 BotFindRandomPointInRadius
FUNC 1b510 63 0 BotFindRandomPoint
FUNC 1b580 1d4 0 BotNavTrace
FUNC 1b760 17d 0 BotAddObstacle
FUNC 1b8e0 48 0 BotRemoveObstacle
FUNC 1b930 50 0 BotUpdateObstacles
FUNC 1b980 7c 0 BotSetNavMesh
FUNC 1ba00 c 0 __tcf_0
FUNC 1ba10 cd 0 SV_BotAllocateClient
FUNC 1bae0 53 0 SV_BotFreeClient
FUNC 1bb40 13 0 SV_IsBot
FUNC 1bb60 4d 0 SV_BotGetConsoleMessage
FUNC 1bbb0 f 0 SV_Heartbeat_f
FUNC 1bbc0 1 0 __tcf_1
FUNC 1bbd0 13 0 SV_FieldInfo_f
FUNC 1bbf0 c 0 __tcf_0
FUNC 1bc00 94 0 std::__cxx11::basic_string<char, std::char_traits<char>, std::allocator<char> >::_M_construct<char const*>
FUNC 1bcd0 83 0 SV_AddOperatorCommands
FUNC 1bd60 50 0 SV_RemoveOperatorCommands
FUNC 1bdb0 7f 0 SV_Systeminfo_f
FUNC 1be30 7f 0 SV_Serverinfo_f
FUNC 1beb0 3d8 0 SV_MapRestart_f
FUNC 1c290 21 0 __tcf_0
FUNC 1c2c0 c 0 __tcf_1
FUNC 1c2d0 62 0 __tcf_2
FUNC 1c340 94 0 std::__cxx11::basic_string<char, std::char_traits<char>, std::allocator<char> >::_M_construct<char const*>
FUNC 1c3e0 84 0 SV_CloseDownload
FUNC 1c470 79 0 SV_BeginDownload_f
FUNC 1c4f0 1a 0 SV_FreeClient
FUNC 1c510 3e 0 SV_BadDownload
FUNC 1c550 24b 0 SV_UserinfoChanged
FUNC 1c7a0 79 0 SV_UpdateUserinfo_f
FUNC 1c820 5c 0 SV_ClientThink
FUNC 1c880 c9 0 SV_GetChallenge
FUNC 1c950 3e9 0 std::_Rb_tree<std::__cxx11::basic_string<char, std::char_traits<char>, std::allocator<char> >, std::pair<const std::__cxx11::basic_string<char, std::char_traits<char>, std::allocator<char> >, std::__cxx11::basic_string<char, std::char_traits<char>, std::allocator<char> > >, std::_Select1st<std::pair<const std::__cxx11::basic_string<char, std::char_traits<char>, std::allocator<char> >, std::__cxx11::basic_string<char, std::char_traits<char>, std::allocator<char> > > >, std::less<std::__cxx11::basic_string<char, std::char_traits<char>, std::allocator<char> > >, std::allocator<std::pair<const std::__cxx11::basic_string<char, std::char_traits<char>, std::allocator<char> >, std::__cxx11::basic_string<char, std::char_traits<char>, std::allocator<char> > > > >::_M_emplace_hint_unique<const std::piecewise_construct_t&, std::tuple<std::__cxx11::basic_string<char, std::char_traits<char>, std::allocator<char> >&&>, std::tuple<> >
FUNC 1cd40 28a 0 SV_ExecuteClientCommand
FUNC 1cfd0 176 0 SV_DropClient
FUNC 1d150 11 0 SV_DropClient
FUNC 1d170 12 0 SV_Disconnect_f
FUNC 1d190 273 0 SV_ClientCommand
FUNC 1d410 ce 0 SV_ClientEnterWorld
FUNC 1d4e0 1f7 0 SV_UserMove
FUNC 1d6e0 1bab 0 SV_DirectConnect
FUNC 1f290 244 0 SV_SendClientGameState
FUNC 1f4e0 56 0 SV_DoneDownload_f
FUNC 1f540 2f5 0 SV_ExecuteClientMessage
FUNC 1f840 23c 0 SV_WWWDownload_f
FUNC 1fa80 79 0 SV_StopDownload_f
FUNC 1fb00 16f 0 SV_NextDownload_f
FUNC 1fc70 e15 0 SV_WriteDownloadToClient
FUNC 20a90 c 0 __tcf_0
FUNC 20aa0 94 0 std::__cxx11::basic_string<char, std::char_traits<char>, std::allocator<char> >::_M_construct<char const*>
FUNC 20b40 83 0 SV_SetConfigstring
FUNC 20bd0 1bf 0 SV_UpdateConfigStrings
FUNC 20d90 6f 0 SV_GetConfigstring
FUNC 20e00 9c 0 SV_SetUserinfo
FUNC 20ea0 6a 0 SV_GetUserinfo
FUNC 20f10 6d 0 SV_GetPlayerPubkey
FUNC 20f80 1b4 0 SV_CreateBaseline
FUNC 21140 65 0 SV_BoundMaxClients
FUNC 211b0 8c 0 SV_Startup
FUNC 21240 180 0 SV_ChangeMaxClients
FUNC 213c0 4d 0 SV_ClearServer
FUNC 21410 4a9 0 SV_Init
FUNC 218c0 dc 0 SV_FinalCommand
FUNC 219a0 411 0 SV_SpawnServer
FUNC 21dc0 157 0 SV_Shutdown
FUNC 21f20 21 0 __tcf_0
FUNC 21f50 36 0 __tcf_5
FUNC 21f90 c 0 __tcf_1
FUNC 21fa0 94 0 std::__cxx11::basic_string<char, std::char_traits<char>, std::allocator<char> >::_M_construct<char const*>
FUNC 22040 3e 0 std::__cxx11::basic_string<char, std::char_traits<char>, std::allocator<char> >::basic_string
FUNC 22080 75 0 __tcf_4
FUNC 22100 89 0 __tcf_6
FUNC 22190 75 0 __tcf_3
FUNC 22210 75 0 __tcf_7
FUNC 22290 332 0 __tcf_2
FUNC 225d0 28 0 Cvar::GetCvarTypeName<ServerPrivate>
FUNC 22600 4d 0 ParseCvarValue
FUNC 22650 a 0 SV_Private
FUNC 22660 3c 0 SV_NET_Config
FUNC 226a0 104 0 SV_CalcPings
FUNC 227b0 c9 0 SV_CheckPaused
FUNC 22880 37 0 SV_FrameMsec
FUNC 228c0 2e 0 SerializeCvarValue
FUNC 228f0 3f 0 SVC_Ping
FUNC 22930 12f 0 SV_AddServerCommand
FUNC 22a60 338 0 SV_ResolveMasterServers
FUNC 22da0 394 0 TranslateText_Internal
FUNC 23140 2f4 0 SV_CheckDRDoS
FUNC 23440 12d 0 SV_CheckTimeouts
FUNC 23570 81 0 SV_PrintTranslatedText
FUNC 23600 1c8 0 SV_SendServerCommand
FUNC 237d0 125 0 SV_MasterHeartbeat
FUNC 23900 16 0 SV_MasterShutdown
FUNC 23920 4a7 0 SV_Frame
FUNC 23dd0 16dc 0 SVC_RemoteCommand
FUNC 254b0 8b6 0 SVC_Status
FUNC 25d70 12d8 0 SVC_Info
FUNC 27050 c34 0 SV_ConnectionlessPacket
FUNC 27c90 20f 0 SV_PacketEvent
FUNC 27ea0 c 0 __tcf_0
FUNC 27eb0 46 0 SV_Netchan_FreeQueue
FUNC 27f00 78 0 SV_Netchan_TransmitNextFragment
FUNC 27f80 136 0 SV_Netchan_Transmit
FUNC 280c0 c 0 __tcf_0
FUNC 280d0 c 0 __tcf_1
FUNC 280e0 94 0 std::__cxx11::basic_string<char, std::char_traits<char>, std::allocator<char> >::_M_construct<char const*>
FUNC 28180 30 0 std::__cxx11::basic_string<char, std::char_traits<char>, std::allocator<char> >::basic_string
FUNC 281b0 375 0 IPC::HandleMsg<IPC::Message<IPC::Id<0, 5>, int, std::__cxx11::basic_string<char, std::char_traits<char>, std::allocator<char> > >, GameVM::QVMSyscall(int, Util::Reader&, IPC::Channel&)::<lambda(int, std::__cxx11::string)> >
FUNC 28530 375 0 IPC::HandleMsg<IPC::Message<IPC::Id<0, 8>, int, std::__cxx11::basic_string<char, std::char_traits<char>, std::allocator<char> > >, GameVM::QVMSyscall(int, Util::Reader&, IPC::Channel&)::<lambda(int, std::__cxx11::string)> >
FUNC 288b0 1f7 0 IPC::HandleMsg<IPC::Message<IPC::Id<0, 13>, int, std::vector<unsigned char, std::allocator<unsigned char> > >, GameVM::QVMSyscall(int, Util::Reader&, IPC::Channel&)::<lambda(int, std::vector<unsigned char>)> >
FUNC 28ab0 3e 0 SV_GentityNum
FUNC 28af0 42 0 SV_GameClientNum
FUNC 28b40 46 0 SV_SvEntityForGentity
FUNC 28b90 6e 0 SV_GameSendServerCommand
FUNC 28c00 2e 0 SV_GameDropClient
FUNC 28c30 dc 0 SV_RSAGenMsg
FUNC 28d10 44 0 SV_GetServerinfo
FUNC 28d60 a0 0 SV_LocateGameData
FUNC 28e00 66 0 SV_GetUsercmd
FUNC 28e70 16 0 GameVM::GameSnapshotCallback
FUNC 28e90 16 0 GameVM::BotAIStartFrame
FUNC 28eb0 4a2 0 IPC::HandleMsg<IPC::SyncMessage<IPC::Message<IPC::Id<0, 3>, int, std::__cxx11::basic_string<char, std::char_traits<char>, std::allocator<char> > > >, GameVM::QVMSyscall(int, Util::Reader&, IPC::Channel&)::<lambda(int, std::__cxx11::string)> >
FUNC 29360 432 0 IPC::HandleMsg<IPC::SyncMessage<IPC::Message<IPC::Id<0, 4>, int, std::__cxx11::basic_string<char, std::char_traits<char>, std::allocator<char> > > >, GameVM::QVMSyscall(int, Util::Reader&, IPC::Channel&)::<lambda(int, std::__cxx11::string)> >
FUNC 297a0 29a 0 IPC::HandleMsg<IPC::SyncMessage<IPC::Message<IPC::Id<0, 29>, int, std::array<float, 3>, float>, IPC::Reply<int, std::array<float, 3> > >, GameVM::QVMSyscall(int, Util::Reader&, IPC::Channel&)::<lambda(int, std::array<float, 3>, float, int&, std::array<float, 3>&)> >
FUNC 29a40 376 0 IPC::HandleMsg<IPC::SyncMessage<IPC::Message<IPC::Id<0, 16>, int, std::vector<char, std::allocator<char> >, int>, IPC::Reply<std::__cxx11::basic_string<char, std::char_traits<char>, std::allocator<char> > > >, GameVM::QVMSyscall(int, Util::Reader&, IPC::Channel&)::<lambda(int, const std::vector<char>&, int, std::__cxx11::string&)> >
FUNC 29dc0 2cb 0 IPC::HandleMsg<IPC::SyncMessage<IPC::Message<IPC::Id<0, 9>, int, int>, IPC::Reply<std::__cxx11::basic_string<char, std::char_traits<char>, std::allocator<char> > > >, GameVM::QVMSyscall(int, Util::Reader&, IPC::Channel&)::<lambda(int, int, std::__cxx11::string&)> >
FUNC 2a090 2cb 0 IPC::HandleMsg<IPC::SyncMessage<IPC::Message<IPC::Id<0, 17>, int, int>, IPC::Reply<std::__cxx11::basic_string<char, std::char_traits<char>, std::allocator<char> > > >, GameVM::QVMSyscall(int, Util::Reader&, IPC::Channel&)::<lambda(int, int, std::__cxx11::string&)> >
FUNC 2a360 306 0 IPC::HandleMsg<IPC::SyncMessage<IPC::Message<IPC::Id<0, 21>, int, int>, IPC::Reply<int, std::__cxx11::basic_string<char, std::char_traits<char>, std::allocator<char> > > >, GameVM::QVMSyscall(int, Util::Reader&, IPC::Channel&)::<lambda(int, int, int&, std::__cxx11::string&)> >
FUNC 2a670 698 0 IPC::HandleMsg<IPC::SyncMessage<IPC::Message<IPC::Id<0, 18>, int, std::__cxx11::basic_string<char, std::char_traits<char>, std::allocator<char> >, qtime_t>, IPC::Reply<std::__cxx11::basic_string<char, std::char_traits<char>, std::allocator<char> > > >, GameVM::QVMSyscall(int, Util::Reader&, IPC::Channel&)::<lambda(int, std::__cxx11::string, const qtime_t&, std::__cxx11::string&)> >
FUNC 2ad10 59b 0 IPC::detail::HandleMsg<GameVM::QVMSyscall(int, Util::Reader&, IPC::Channel&)::<lambda(std::__cxx11::string, int&, std::__cxx11::string&, std::__cxx11::string&)>, IPC::Message<IPC::Id<0, 15>, std::__cxx11::basic_string<char, std::char_traits<char>, std::allocator<char> > >, IPC::Reply<int, std::__cxx11::basic_string<char, std::char_traits<char>, std::allocator<char> >, std::__cxx11::basic_string<char, std::char_traits<char>, std::allocator<char> > > >
FUNC 2b2b0 3785 0 GameVM::QVMSyscall
FUNC 2ea40 f8 0 GameVM::Syscall
FUNC 2eb40 f0 0 GameVM::Start
FUNC 2ec30 56 0 GameVM::GameStaticInit
FUNC 2ec90 8c 0 GameVM::GameInit
FUNC 2ed20 74 0 SV_InitGameVM
FUNC 2eda0 2c 0 SV_InitGameProgs
FUNC 2edd0 ab 0 GameVM::GameShutdown
FUNC 2ee80 45 0 SV_ShutdownGameProgs
FUNC 2eed0 55 0 SV_RestartGameProgs
FUNC 2ef30 119 0 GameVM::GameClientConnect
FUNC 2f050 54 0 GameVM::GameClientBegin
FUNC 2f0b0 54 0 GameVM::GameClientUserInfoChanged
FUNC 2f110 54 0 GameVM::GameClientDisconnect
FUNC 2f170 63 0 GameVM::GameClientCommand
FUNC 2f1e0 54 0 GameVM::GameClientThink
FUNC 2f240 54 0 GameVM::GameRunFrame
FUNC 2f2a0 106 0 GameVM::GameMessageRecieved
FUNC 2f3b0 23 0 SV_GameBinaryMessageReceived
FUNC 2f3e0 1fa 0 GameVM::GameVM
FUNC 2f5e0 c 0 __tcf_0
FUNC 2f5f0 95 0 SV_RateMsec
FUNC 2f690 2b 0 SV_QsortEntityNumbers
FUNC 2f6c0 5c 0 SV_AddEntToSnapshot
FUNC 2f720 94 0 std::__cxx11::basic_string<char, std::char_traits<char>, std::allocator<char> >::_M_construct<char const*>
FUNC 2f7c0 69 0 SV_UpdateServerCommandsToClient
FUNC 2f830 139 0 SV_SendMessageToClient
FUNC 2f970 58f 0 SV_AddEntitiesVisibleFromPoint
FUNC 2ff00 e4 0 SV_SendClientIdle
FUNC 2fff0 85f 0 SV_SendClientSnapshot
FUNC 30850 2fa 0 SV_SendClientMessages
FUNC 30b50 c 0 __tcf_0
FUNC 30b60 94 0 std::__cxx11::basic_string<char, std::char_traits<char>, std::allocator<char> >::_M_construct<char const*>
FUNC 30c00 7b 0 std::__cxx11::basic_string<char, std::char_traits<char>, std::allocator<char> >::_M_construct<__gnu_cxx::__normal_iterator<unsigned char const*, std::vector<unsigned char> > >
FUNC 30c80 75 0 __tcf_1
FUNC 30d00 75 0 __tcf_2
FUNC 30d80 75 0 __tcf_3
FUNC 30e00 21b 0 __tcf_4
FUNC 31020 f 0 Challenge::Timeout
FUNC 31030 8 0 Challenge::Bytes
FUNC 31040 eb 0 Challenge::GenerateString
FUNC 31130 8 0 ChallengeManager::MaxChallenges
FUNC 31140 21c 0 ChallengeManager::Clear
FUNC 31360 3d6 0 Cleanup
FUNC 31740 1c8 0 ChallengeManager::Push
FUNC 31910 21a 0 ChallengeManager::GenerateChallenge
FUNC 31b30 7ad 0 ChallengeManager::Match
FUNC 322e0 208 0 ChallengeManager::MatchString
FUNC 324f0 45 0 Challenge::ValidString
FUNC 32540 c 0 __tcf_0
FUNC 32550 3 0 Keyboard::StringToKey
FUNC 32560 39 0 Keyboard::KeyToString
FUNC 325a0 3 0 Keyboard::GetCharForScancode
FUNC 325b0 3 0 Keyboard::ScancodeToAscii
FUNC 325c0 1 0 Keyboard::CompleteKeyName
FUNC 325d0 3 0 Keyboard::IsDown
FUNC 325e0 1 0 Keyboard::SetBinding
FUNC 325f0 8 0 Keyboard::GetBinding
FUNC 32600 1b 0 Keyboard::GetKeysBoundTo
FUNC 32620 1 0 Keyboard::WriteBindings
FUNC 32640 3 0 Keyboard::GetTeam
FUNC 32650 3 0 Keyboard::AnyKeyDown
FUNC 32670 1 0 Field_Draw
FUNC 32680 1 0 Field_KeyDownEvent
FUNC 32690 1 0 Field_CharEvent
FUNC 326a0 3 0 Key_GetKeyNumber
FUNC 326b0 3 0 Key_GetKeyTime
FUNC 326e0 1 0 CL_KeyEvent
FUNC 32700 1 0 Key_ClearStates
FUNC 32710 c 0 __tcf_0
FUNC 32720 94 0 std::__cxx11::basic_string<char, std::char_traits<char>, std::allocator<char> >::_M_construct<char const*>
FUNC 327c0 1 0 CL_Shutdown
FUNC 327d0 29 0 CL_Init
FUNC 32800 1 0 CL_MouseEvent
FUNC 32830 1 0 CL_Frame
FUNC 32840 1 0 CL_PacketEvent
FUNC 32850 1 0 CL_Disconnect
FUNC 32870 1 0 CL_ConsolePrint
FUNC 328c0 3a 0 CL_ForwardCommandToServer
FUNC 32900 c 0 __tcf_0
FUNC 32910 1 0 IN_Init
FUNC 32920 1 0 IN_Frame
FUNC 32980 3 0 IN_IsNumLockDown
FUNC 32990 1 0 IN_SetMouseMode
FUNC 329a0 31 0 __tcf_0
FUNC 329e0 c 0 __tcf_1
FUNC 329f0 94 0 std::__cxx11::basic_string<char, std::char_traits<char>, std::allocator<char> >::_M_construct<char const*>
FUNC 32a90 e8 0 Application::GetApp
FUNC 32b80 c 0 __tcf_0
FUNC 32b90 ac 0 Cmd::SkipSpaces
FUNC 32c40 1b 0 Cmd::CmdBase::Complete
FUNC 32c60 23 0 Cmd::LambdaCmd::Run
FUNC 32c90 56 0 Cmd::LambdaCmd::Complete
FUNC 32cf0 c 0 __tcf_0
FUNC 32d00 94 0 std::__cxx11::basic_string<char, std::char_traits<char>, std::allocator<char> >::_M_construct<char const*>
FUNC 32da0 30a 0 Cmd::Escape
FUNC 330b0 1a4 0 Cmd::SplitCommand
FUNC 33260 3a7 0 Cmd::SubstituteCvars
FUNC 33610 53 0 Cmd::IsValidCvarName
FUNC 33670 66 0 Cmd::IsValidCmdName
FUNC 336e0 b3 0 Cmd::IsSwitch
FUNC 337a0 18 0 Cmd::Args::Args
FUNC 337c0 2e 0 Cmd::Args::Args
FUNC 337f0 c 0 Cmd::Args::Argc
FUNC 33800 b 0 Cmd::Args::Argv
FUNC 33810 145 0 Cmd::Args::EscapedArgs
FUNC 33960 e8 0 Cmd::Args::ConcatArgs
FUNC 33a50 4 0 Cmd::Args::ArgVector
FUNC 33a80 4 0 Cmd::Args::begin
FUNC 33a90 5 0 Cmd::Args::end
FUNC 33aa0 e 0 Cmd::CmdBase::CmdBase
FUNC 33ab0 4 0 Cmd::CmdBase::GetFlags
FUNC 33ac0 3c 0 Cmd::CmdBase::ExecuteAfter
FUNC 33b00 5 0 Cmd::CmdBase::GetEnv
FUNC 33b10 b0 0 Cmd::StaticCmd::StaticCmd
FUNC 33bc0 ad 0 Cmd::StaticCmd::StaticCmd
FUNC 33c70 1b 0 Cmd::NoopComplete
FUNC 33c90 18b 0 Cmd::LambdaCmd::LambdaCmd
FUNC 33e20 17b 0 Cmd::LambdaCmd::LambdaCmd
FUNC 33fa0 3ba 0 Cmd::Args::Args
FUNC 34360 139 0 Cmd::CmdBase::PrintUsage
FUNC 344a0 23c 0 Cmd::AddToCompletion
FUNC 346e0 ad 0 Cmd::FilterCompletion
FUNC 34790 c 0 __tcf_0
FUNC 347a0 94 0 std::__cxx11::basic_string<char, std::char_traits<char>, std::allocator<char> >::_M_construct<char const*>
FUNC 34840 9c 0 Cvar::CvarProxy::CvarProxy
FUNC 348e0 9 0 Cvar::CvarProxy::SetValue
FUNC 348f0 ad 0 Cvar::CvarProxy::Register
FUNC 349a0 24d 0 Cvar::ParseCvarValue
FUNC 34bf0 45 0 Cvar::SerializeCvarValue
FUNC 34c40 28 0 Cvar::GetCvarTypeName<bool>
FUNC 34c70 27 0 Cvar::ParseCvarValue
FUNC 34ca0 28 0 Cvar::GetCvarTypeName<int>
FUNC 34cd0 24 0 Cvar::ParseCvarValue
FUNC 34d00 28 0 Cvar::GetCvarTypeName<float>
FUNC 34d30 80 0 Cvar::ParseCvarValue
FUNC 34db0 52 0 Cvar::SerializeCvarValue
FUNC 34e10 28 0 Cvar::GetCvarTypeName<std::__cxx11::basic_string<char> >
FUNC 34e40 28 0 Cvar::GetCvarTypeName<long long unsigned int>
FUNC 34e70 128 0 Cvar::ParseCvarValue
FUNC 34fa0 2e 0 Cvar::SerializeCvarValue
FUNC 34fd0 34 0 Cvar::SerializeCvarValue
FUNC 35010 2f 0 Cvar::SerializeCvarValue
FUNC 35080 1 0 std::_Sp_counted_deleter<void*, FS::RawPath::ListFiles(Str::StringRef, std::error_code&)::<lambda(void*)>, std::allocator<void>, (__gnu_cxx::_Lock_policy)2>::~_Sp_counted_deleter
FUNC 350b0 5 0 std::_Sp_counted_deleter<void*, FS::RawPath::ListFiles(Str::StringRef, std::error_code&)::<lambda(void*)>, std::allocator<void>, (__gnu_cxx::_Lock_policy)2>::~_Sp_counted_deleter
FUNC 350c0 21 0 __tcf_2
FUNC 350f0 21 0 __tcf_8
FUNC 35120 21 0 __tcf_7
FUNC 35150 5 0 std::_Sp_counted_deleter<void*, FS::RawPath::ListFiles(Str::StringRef, std::error_code&)::<lambda(void*)>, std::allocator<void>, (__gnu_cxx::_Lock_policy)2>::_M_destroy
FUNC 35160 bb 0 FS::SetErrorCode
FUNC 35220 2a 0 FS::SetErrorCodeSystem
FUNC 35250 54 0 FS::filesystem_category
FUNC 352b0 1a 0 __tcf_0
FUNC 352d0 1a 0 __tcf_1
FUNC 352f0 2c 0 std::_Sp_counted_deleter<void*, FS::RawPath::ListFiles(Str::StringRef, std::error_code&)::<lambda(void*)>, std::allocator<void>, (__gnu_cxx::_Lock_policy)2>::_M_get_deleter
FUNC 35320 b 0 std::_Sp_counted_deleter<void*, FS::RawPath::ListFiles(Str::StringRef, std::error_code&)::<lambda(void*)>, std::allocator<void>, (__gnu_cxx::_Lock_policy)2>::_M_dispose
FUNC 35330 c 0 __tcf_3
FUNC 353b0 244 0 FS::VersionCmp
FUNC 35600 7f 0 __tcf_11
FUNC 35680 66 0 FS::SetErrorCodeZlib
FUNC 356f0 134 0 FS::::ZipArchive::Open
FUNC 35830 6e 0 FS::::ZipArchive::OpenFile
FUNC 358a0 c8 0 FS::::ZipArchive::ReadFile
FUNC 35970 94 0 std::__cxx11::basic_string<char, std::char_traits<char>, std::allocator<char> >::_M_construct<char const*>
FUNC 35a10 3e 0 std::__cxx11::basic_string<char, std::char_traits<char>, std::allocator<char> >::basic_string
FUNC 35a50 256 0 FS::GetRealPath
FUNC 35cb0 27 0 std::__detail::_Hashtable_alloc<std::allocator<std::__detail::_Hash_node<std::pair<const std::__cxx11::basic_string<char, std::char_traits<char>, std::allocator<char> >, std::pair<unsigned int, long long int> >, true> > >::_M_deallocate_node
FUNC 35ce0 3d 0 std::__detail::_Hashtable_alloc<std::allocator<std::__detail::_Hash_node<std::pair<const std::__cxx11::basic_string<char, std::char_traits<char>, std::allocator<char> >, std::pair<unsigned int, long long int> >, true> > >::_M_allocate_buckets
FUNC 35d20 78 0 std::__detail::_Hashtable_alloc<std::allocator<std::__detail::_Hash_node<std::pair<const std::__cxx11::basic_string<char, std::char_traits<char>, std::allocator<char> >, std::pair<unsigned int, long long int> >, true> > >::_M_allocate_node<const std::pair<const std::__cxx11::basic_string<char, std::char_traits<char>, std::allocator<char> >, std::pair<unsigned int, long long int> >&>
FUNC 35da0 75 0 __tcf_5
FUNC 36030 e8 0 __tcf_10
FUNC 36120 c8 0 __tcf_9
FUNC 361f0 5b 0 __tcf_6
FUNC 36250 62 0 __tcf_4
FUNC 363b0 139 0 std::__lower_bound<__gnu_cxx::__normal_iterator<FS::PakInfo*, std::vector<FS::PakInfo> >, FS::PakInfo, __gnu_cxx::__ops::_Iter_comp_val<FS::RefreshPaks()::<lambda(const FS::PakInfo&, const FS::PakInfo&)> > >
FUNC 364f0 13b 0 std::__upper_bound<__gnu_cxx::__normal_iterator<FS::PakInfo*, std::vector<FS::PakInfo> >, FS::PakInfo, __gnu_cxx::__ops::_Val_comp_iter<FS::RefreshPaks()::<lambda(const FS::PakInfo&, const FS::PakInfo&)> > >
FUNC 36630 886 0 std::__move_merge<__gnu_cxx::__normal_iterator<FS::PakInfo*, std::vector<FS::PakInfo> >, FS::PakInfo*, __gnu_cxx::__ops::_Iter_comp_iter<FS::RefreshPaks()::<lambda(const FS::PakInfo&, const FS::PakInfo&)> > >
FUNC 36ec0 887 0 std::__move_merge<FS::PakInfo*, __gnu_cxx::__normal_iterator<FS::PakInfo*, std::vector<FS::PakInfo> >, __gnu_cxx::__ops::_Iter_comp_iter<FS::RefreshPaks()::<lambda(const FS::PakInfo&, const FS::PakInfo&)> > >
FUNC 37750 8 0 FS::UseLegacyPaks
FUNC 37760 a3 0 FS::Path::IsValid
FUNC 37810 192 0 FS::Path::Build
FUNC 379b0 87 0 FS::Path::DirName
FUNC 37a40 95 0 FS::Path::BaseName
FUNC 37ae0 95 0 FS::Path::Extension
FUNC 37b80 c1 0 FS::Path::StripExtension
FUNC 37c50 ba 0 FS::Path::BaseNameStripExtension
FUNC 37d10 4e 0 FS::File::Close
FUNC 37d60 54 0 FS::File::Length
FUNC 37dc0 70 0 FS::File::Timestamp
FUNC 37e30 4d 0 FS::File::SeekCur
FUNC 37e80 42 0 FS::File::SeekSet
FUNC 37ed0 4d 0 FS::File::SeekEnd
FUNC 37f20 8 0 FS::File::Tell
FUNC 37f30 71 0 FS::File::Read
FUNC 37fb0 51 0 FS::File::Write
FUNC 38010 3f 0 FS::File::Flush
FUNC 38050 a4 0 FS::File::ReadAll
FUNC 38100 63 0 FS::File::CopyTo
FUNC 38170 5d 0 FS::File::SetLineBuffered
FUNC 381d0 8 0 FS::PakPath::GetLoadedPaks
FUNC 381e0 232 0 FS::PakPath::DirectoryRange::InternalAdvance
FUNC 38420 3f 0 FS::PakPath::DirectoryRange::Advance
FUNC 38460 135 0 FS::PakPath::ListFiles
FUNC 385a0 135 0 FS::PakPath::ListFilesRecursive
FUNC 386e0 1bd 0 FS::RawPath::CreatePathTo
FUNC 388a0 2e9 0 FS::RawPath::OpenMode
FUNC 38b90 f9 0 FS::HomePath::OpenMode
FUNC 38c90 32 0 FS::RawPath::OpenRead
FUNC 38cd0 35 0 FS::RawPath::OpenWrite
FUNC 38d10 35 0 FS::RawPath::OpenAppend
FUNC 38d50 35 0 FS::RawPath::OpenEdit
FUNC 38d90 7f 0 FS::RawPath::FileExists
FUNC 38e10 d4 0 FS::RawPath::FileTimestamp
FUNC 38ef0 126 0 FS::RawPath::MoveFile
FUNC 39020 b4 0 FS::RawPath::DeleteFile
FUNC 390e0 1ec 0 FS::RawPath::DirectoryRange::Advance
FUNC 392d0 4cb 0 FS::RawPath::ListFiles
FUNC 397a0 32 0 FS::HomePath::OpenRead
FUNC 397e0 35 0 FS::HomePath::OpenWrite
FUNC 39820 35 0 FS::HomePath::OpenAppend
FUNC 39860 35 0 FS::HomePath::OpenEdit
FUNC 398a0 115 0 FS::HomePath::FileExists
FUNC 399c0 de 0 FS::HomePath::FileTimestamp
FUNC 39aa0 195 0 FS::HomePath::MoveFile
FUNC 39c40 d0 0 FS::HomePath::DeleteFile
FUNC 39d10 10f 0 FS::HomePath::ListFiles
FUNC 39e20 bc 0 FS::DefaultBasePath
FUNC 39ee0 13d 0 FS::DefaultHomePath
FUNC 3a020 1 0 FS::MigrateHomePath
FUNC 3a030 7 0 FS::FlushAll
FUNC 3a040 8 0 FS::IsInitialized
FUNC 3a050 104 0 FS::FindPak
FUNC 3a160 164 0 FS::FindPak
FUNC 3a2d0 8 0 FS::GetAvailablePaks
FUNC 3a2e0 8 0 FS::GetHomePath
FUNC 3a2f0 8 0 FS::GetLibPath
FUNC 3a300 2d5 0 FS::FindPak
FUNC 3a5e0 c 0 __tcf_12
FUNC 3a5f0 8f2 0 FS::PakPath::CompleteFilename
FUNC 3aef0 761 0 FS::HomePath::CompleteFilename
FUNC 3b660 26c 0 FS::RawPath::RecursiveDirectoryRange::Advance
FUNC 3b8d0 3df 0 FS::RawPath::ListFilesRecursive
FUNC 3bcb0 fc 0 FS::HomePath::ListFilesRecursive
FUNC 3bdb0 b1 0 FS::MakePakName
FUNC 3be70 3c2 0 FS::ParsePakName
FUNC 3c240 4a3 0 FS::AddPak
FUNC 3c6f0 485 0 FS::FindPaksInPath
FUNC 3cb80 198 0 FS::GetAvailableMapPaks
FUNC 3cd20 fbb 0 IPC::detail::HandleMsg<FS::HandleFileSystemSyscall(int, Util::Reader&, IPC::Channel&, Str::StringRef)::<lambda(std::__cxx11::string&, std::__cxx11::string&, std::vector<FS::PakInfo>&, std::vector<FS::LoadedPakInfo>&, std::unordered_map<std::__cxx11::basic_string<char>, std::pair<unsigned int, long long int> >&)>, IPC::Message<IPC::Id<6, 0> >, IPC::Reply<std::__cxx11::basic_string<char, std::char_traits<char>, std::allocator<char> >, std::__cxx11::basic_string<char, std::char_traits<char>, std::allocator<char> >, std::vector<FS::PakInfo, std::allocator<FS::PakInfo> >, std::vector<FS::LoadedPakInfo, std::allocator<FS::LoadedPakInfo> >, std::unordered_map<std::__cxx11::basic_string<char, std::char_traits<char>, std::allocator<char> >, std::pair<unsigned int, long long int>, std::hash<std::__cxx11::basic_string<char, std::char_traits<char>, std::allocator<char> > >, std::equal_to<std::__cxx11::basic_string<char, std::char_traits<char>, std::allocator<char> > >, std::allocator<std::pair<const std::__cxx11::basic_string<char, std::char_traits<char>, std::allocator<char> >, std::pair<unsigned int, long long int> > > > > >
FUNC 3dce0 4c4 0 FS::PakPath::ReadFile
FUNC 3e1b0 2eb 0 FS::PakPath::CopyFile
FUNC 3e4a0 54 0 FS::PakPath::FileExists
FUNC 3e500 74 0 FS::PakPath::LocateFile
FUNC 3e580 145 0 FS::PakPath::FileTimestamp
FUNC 3e6d0 bd9 0 std::__insertion_sort<__gnu_cxx::__normal_iterator<FS::PakInfo*, std::vector<FS::PakInfo> >, __gnu_cxx::__ops::_Iter_comp_iter<FS::RefreshPaks()::<lambda(const FS::PakInfo&, const FS::PakInfo&)> > >
FUNC 3f2b0 248 0 std::__merge_sort_with_buffer<__gnu_cxx::__normal_iterator<FS::PakInfo*, std::vector<FS::PakInfo> >, FS::PakInfo*, __gnu_cxx::__ops::_Iter_comp_iter<FS::RefreshPaks()::<lambda(const FS::PakInfo&, const FS::PakInfo&)> > >
FUNC 3f500 408 0 FS::::ZipArchive::ForEachFile<FS::PakPath::InternalLoadPak(const FS::PakInfo&, Util::optional<unsigned int>, Str::StringRef, std::error_code&)::<lambda(Str::StringRef, FS::offset_t, uint32_t)> >
FUNC 3f910 1077 0 FS::PakPath::InternalLoadPak
FUNC 40990 36 0 FS::PakPath::LoadPak
FUNC 409d0 32 0 FS::PakPath::LoadPakPrefix
FUNC 40a10 3a 0 FS::PakPath::LoadPakExplicit
FUNC 40a50 3a55 0 FS::HandleFileSystemSyscall
FUNC 444b0 1ca 0 std::__merge_without_buffer<__gnu_cxx::__normal_iterator<FS::PakInfo*, std::vector<FS::PakInfo> >, long long int, __gnu_cxx::__ops::_Iter_comp_iter<FS::RefreshPaks()::<lambda(const FS::PakInfo&, const FS::PakInfo&)> > >
FUNC 44680 b1 0 std::__inplace_stable_sort<__gnu_cxx::__normal_iterator<FS::PakInfo*, std::vector<FS::PakInfo> >, __gnu_cxx::__ops::_Iter_comp_iter<FS::RefreshPaks()::<lambda(const FS::PakInfo&, const FS::PakInfo&)> > >
FUNC 44740 43f 0 std::__merge_adaptive<__gnu_cxx::__normal_iterator<FS::PakInfo*, std::vector<FS::PakInfo> >, long long int, FS::PakInfo*, __gnu_cxx::__ops::_Iter_comp_iter<FS::RefreshPaks()::<lambda(const FS::PakInfo&, const FS::PakInfo&)> > >
FUNC 44b80 f5 0 std::__stable_sort_adaptive<__gnu_cxx::__normal_iterator<FS::PakInfo*, std::vector<FS::PakInfo> >, FS::PakInfo*, long long int, __gnu_cxx::__ops::_Iter_comp_iter<FS::RefreshPaks()::<lambda(const FS::PakInfo&, const FS::PakInfo&)> > >
FUNC 44c80 408 0 FS::RefreshPaks
FUNC 45090 14c 0 FS::PakPath::ClearPaks
FUNC 451e0 679 0 FS::Initialize
FUNC 45860 5f6 0 FS::GetAvailableMaps
FUNC 45e60 2e 0 IPC::FreeHandles
FUNC 45e90 c 0 __tcf_0
FUNC 45ea0 94 0 std::__cxx11::basic_string<char, std::char_traits<char>, std::allocator<char> >::_M_construct<char const*>
FUNC 45f40 8 0 IPC::FileDesc::Close
FUNC 45f50 95 0 IPC::FileHandle::GetDesc
FUNC 45ff0 a8 0 IPC::FileHandle::FromDesc
FUNC 460a0 7 0 IPC::OwnedFileHandle::~OwnedFileHandle
FUNC 460b0 27 0 IPC::Socket::Close
FUNC 460e0 11 0 IPC::Socket::GetDesc
FUNC 46100 11 0 IPC::Socket::FromDesc
FUNC 46120 7 0 IPC::Socket::FromHandle
FUNC 46130 1 0 IPC::Socket::SetRecvTimeout
FUNC 46140 34 0 IPC::SharedMemory::Close
FUNC 46180 19 0 IPC::SharedMemory::GetDesc
FUNC 461a0 360 0 IPC::Socket::SendMsg
FUNC 46500 58 0 IPC::Socket::CreatePair
FUNC 46560 11ae 0 IPC::InternalRecvMsg
FUNC 47710 cd 0 IPC::Socket::RecvMsg
FUNC 477e0 bd 0 IPC::MapSharedMemory
FUNC 478a0 48 0 IPC::SharedMemory::FromDesc
FUNC 478f0 16f 0 IPC::SharedMemory::Create
FUNC 47a60 c 0 __tcf_1
FUNC 47a70 94 0 std::__cxx11::basic_string<char, std::char_traits<char>, std::allocator<char> >::_M_construct<char const*>
FUNC 47b10 87 0 __tcf_0
FUNC 47ba0 62 0 __tcf_2
FUNC 47c10 15e 0 Log::Logger::Prefix
FUNC 47d70 e0 0 Log::ParseCvarValue
FUNC 47e50 bc 0 Log::SerializeCvarValue
FUNC 47f10 28 0 Cvar::GetCvarTypeName<Log::Level>
FUNC 47f40 360 0 Log::DispatchByLevel
FUNC 482a0 a3 0 Log::CommandInteractionMessage
FUNC 48350 68 0 Log::Logger::WithoutSuppression
FUNC 483c0 549 0 Log::Logger::Logger
FUNC 48910 f2 0 Log::GetCvarOrDie<int>
FUNC 48a10 86c 0 Log::DispatchWithSuppression
FUNC 49280 10b 0 Log::Logger::Dispatch
FUNC 49390 181 0 Str::UTF8_DecodeSequence
FUNC 49520 c 0 __tcf_0
FUNC 49530 1ce 0 Str::UTF8_Append
FUNC 49700 c 0 Str::AssertOnTinyFormatError
FUNC 49710 c8 0 Str::ParseInt
FUNC 497e0 15 0 Str::ToFloat
FUNC 49800 3b 0 Str::ToFloat
FUNC 49840 18 0 Str::GetHex
FUNC 49860 d 0 Str::HexDigit
FUNC 49870 d0 0 Str::ToUpper
FUNC 49940 d0 0 Str::ToLower
FUNC 49a10 53 0 Str::IsPrefix
FUNC 49a70 3e 0 Str::IsSuffix
FUNC 49ab0 53 0 Str::LongestPrefixSize
FUNC 49b10 ee 0 Str::IsIPrefix
FUNC 49c00 103 0 Str::LongestIPrefixSize
FUNC 49d10 67 0 Str::IsIEqual
FUNC 49d80 1cb 0 Str::UTF8To32
FUNC 49f50 68 0 Str::UTF32To8
FUNC 49fc0 139 0 Str::UTF8To16
FUNC 4a100 15e 0 Str::UTF16To8
FUNC 4a260 c 0 __tcf_0
FUNC 4a270 94 0 std::__cxx11::basic_string<char, std::char_traits<char>, std::allocator<char> >::_M_construct<char const*>
FUNC 4a310 67 0 Sys::SteadyClock::now
FUNC 4a380 6a 0 Sys::Milliseconds
FUNC 4a3f0 ac 0 Sys::Drop
FUNC 4a4a0 e 0 Sys::SetupCrashHandler
FUNC 4a4b0 23 0 Sys::DynamicLib::Close
FUNC 4a4e0 11 0 Sys::OSExit
FUNC 4a500 8 0 Sys::IsProcessTerminating
FUNC 4a510 33 0 operator new
FUNC 4a550 15 0 operator delete
FUNC 4a570 8e 0 Com_Error
FUNC 4a600 210 0 Sys::Win32StrError
FUNC 4a810 16a 0 Sys::DynamicLib::Open
FUNC 4a980 d2 0 Sys::DynamicLib::InternalLoadSym
FUNC 4aa60 31 0 Sys::DynamicLib::InternalLoadSym
FUNC 4aaa0 c8 0 Sys::GenRandomBytes
FUNC 4ab70 23f 0 Sys::SleepFor
FUNC 4adb0 26 0 Sys::SleepUntil
FUNC 4ade0 224 0 Sys::CrashHandler
FUNC 4b010 12 0 __tcf_3
FUNC 4b030 c 0 __tcf_0
FUNC 4b040 62 0 __tcf_2
FUNC 4b0b0 94 0 std::__cxx11::basic_string<char, std::char_traits<char>, std::allocator<char> >::_M_construct<char const*>
FUNC 4b150 75 0 __tcf_1
FUNC 4b1d0 46 0 CM_FreeAll
FUNC 4b220 69 0 CM_BoundBrush
FUNC 4b290 1b 0 CM_ClearMap
FUNC 4b2b0 37 0 CM_InlineModel
FUNC 4b2f0 7 0 CM_NumInlineModels
FUNC 4b300 8 0 CM_EntityString
FUNC 4b310 45 0 CM_LeafCluster
FUNC 4b360 46 0 CM_LeafArea
FUNC 4b3b0 5f2 0 CM_TempBoxModel
FUNC 4b9b0 6b 0 CM_Alloc
FUNC 4ba20 ac 0 CMod_LoadShaders
FUNC 4bad0 18f 0 CMod_LoadSubmodels
FUNC 4bc60 bb 0 CMod_LoadNodes
FUNC 4bd20 159 0 CMod_LoadLeafs
FUNC 4be80 139 0 CMod_LoadPlanes
FUNC 4bfc0 63 0 CMod_LoadLeafBrushes
FUNC 4c030 63 0 CMod_LoadLeafSurfaces
FUNC 4c0a0 8c 0 CMod_LoadVisibility
FUNC 4c130 3e5 0 CMod_LoadSurfaces
FUNC 4c520 190 0 CM_InitBoxHull
FUNC 4c6b0 1be 0 CMod_LoadEntityString
FUNC 4c870 56 0 Sys::Drop<int&>
FUNC 4c8d0 137 0 CMod_LoadBrushes
FUNC 4ca10 100 0 CMod_LoadBrushSides
FUNC 4cb10 e29 0 CM_LoadMap
FUNC 4d940 bd 0 CM_ClipHandleToModel
FUNC 4da00 51 0 CM_ModelBounds
FUNC 4da60 6e 0 CM_SetGridWrapWidth
FUNC 4dad0 1fb 0 CM_RemoveDegenerateColumns
FUNC 4dcd0 48d 0 CM_SubdivideGridColumns
FUNC 4e160 c 0 __tcf_0
FUNC 4e170 94 0 std::__cxx11::basic_string<char, std::char_traits<char>, std::allocator<char> >::_M_construct<char const*>
FUNC 4e210 17 0 CM_ClearLevelPatches
FUNC 4e230 2af 0 CM_SetBorderInward
FUNC 4e4e0 34 0 CM_GridPlane
FUNC 4e520 11f4 0 CM_GeneratePatchCollide
FUNC 4f720 c 0 __tcf_0
FUNC 4f730 d9 0 CM_CreateNewFloatPlane
FUNC 4f810 94 0 std::__cxx11::basic_string<char, std::char_traits<char>, std::allocator<char> >::_M_construct<char const*>
FUNC 4f8b0 31 0 CM_ResetPlaneCounts
FUNC 4f8f0 24 0 CM_SignbitsForNormal
FUNC 4f920 d2 0 CM_PlaneFromPoints
FUNC 4fa00 129 0 CM_PlaneEqual
FUNC 4fb30 7a 0 CM_SnapVector
FUNC 4fbb0 9a 0 CM_FindPlane2
FUNC 4fc50 1f9 0 CM_FindPlane
FUNC 4fe50 5a 0 CM_GenerateBoundaryForPoints
FUNC 4feb0 6a 0 CM_PointOnPlaneSide
FUNC 4ff20 1fd 0 CM_ValidateFacet
FUNC 50120 d4 0 CM_GenerateFacetFor3Points
FUNC 50200 7b0 0 CM_AddFacetBevels
FUNC 509b0 c 0 __tcf_0
FUNC 509c0 41 0 AllocWinding
FUNC 50a10 42 0 FreeWinding
FUNC 50a60 6e 0 WindingBounds
FUNC 50ad0 320 0 BaseWindingForPlane
FUNC 50df0 32 0 CopyWinding
FUNC 50e30 377 0 ChopWindingInPlace
FUNC 511b0 39 0 CM_StoreLeafs
FUNC 511f0 c 0 __tcf_0
FUNC 51200 94 0 std::__cxx11::basic_string<char, std::char_traits<char>, std::allocator<char> >::_M_construct<char const*>
FUNC 512a0 75 0 __tcf_1
FUNC 51320 8b 0 CM_PointLeafnum_r
FUNC 513b0 18 0 CM_PointLeafnum
FUNC 513d0 7d 0 CM_BoxLeafnums_r
FUNC 51450 a0 0 CM_BoxLeafnums
FUNC 514f0 31 0 CM_ClusterPVS
FUNC 51530 a4 0 CM_FloodArea_r
FUNC 515e0 64 0 CM_FloodAreaConnections
FUNC 51650 115 0 CM_AdjustAreaPortalState
FUNC 51770 6a 0 CM_AreasConnected
FUNC 517e0 aa 0 CM_WriteAreaBits
FUNC 51890 ba 0 CM_BoundsIntersect
FUNC 51950 a5 0 CM_BoundsIntersectPoint
FUNC 51a00 126 0 CM_PointContents
FUNC 51b30 16 0 CM_PointContents
FUNC 51b50 12b 0 CM_TransformedPointContents
FUNC 51c80 c 0 __tcf_0
FUNC 51c90 94 0 std::__cxx11::basic_string<char, std::char_traits<char>, std::allocator<char> >::_M_construct<char const*>
FUNC 51d30 594 0 CM_GenerateTriangleSoupCollide
FUNC 522d0 79 0 m3_det
FUNC 52350 89 0 m4_submat
FUNC 523e0 c 0 __tcf_0
FUNC 523f0 c 0 Q_rand
FUNC 52400 1f 0 Q_random
FUNC 52420 33 0 Q_crandom
FUNC 52460 15 0 ClampByte
FUNC 52480 17 0 ClampChar
FUNC 524a0 5e 0 DirToByte
FUNC 52500 67 0 ByteToDir
FUNC 52570 cd 0 PlaneNormalize
FUNC 52640 157 0 RotatePointAroundVector
FUNC 527a0 191 0 vectoangles
FUNC 52940 27 0 AxisClear
FUNC 52970 59 0 AxisCopy
FUNC 529d0 66 0 ProjectPointOnPlane
FUNC 52a40 69 0 ProjectPointOntoRectangleOutwards
FUNC 52ab0 45 0 ExponentialFade
FUNC 52b00 45 0 LerpAngle
FUNC 52b50 66 0 AngleSubtract
FUNC 52bc0 150 0 AnglesSubtract
FUNC 52d10 28 0 AngleMod
FUNC 52d50 39 0 AngleNormalize180
FUNC 52d90 3d 0 AngleDelta
FUNC 52dd0 f0 0 AngleBetweenVectors
FUNC 52ec0 22 0 SetPlaneSignbits
FUNC 52ef0 c5 0 BoxOnPlaneSide
FUNC 52fc0 66 0 RadiusFromBounds
FUNC 53030 1d 0 ZeroBounds
FUNC 53050 29 0 ClearBounds
FUNC 53080 61 0 AddPointToBounds
FUNC 530f0 61 0 BoundsAdd
FUNC 53160 48 0 BoundsIntersect
FUNC 531b0 58 0 BoundsIntersectSphere
FUNC 53210 37 0 BoundsIntersectPoint
FUNC 53250 4b 0 BoundsMaxExtent
FUNC 532a0 25 0 VectorCompare
FUNC 532d0 96 0 VectorNormalize
FUNC 53370 db 0 PlaneFromPoints
FUNC 53450 10c 0 PlaneFromPointsOrder
FUNC 53560 f6 0 MakeNormalVectors
FUNC 53660 75 0 VectorNormalizeFast
FUNC 536e0 9f 0 VectorNormalize2
FUNC 53780 bc 0 PlaneIntersectRay
FUNC 53840 296 0 PlanesGetIntersectionPoint
FUNC 53ae0 56 0 CrossProduct
FUNC 53b40 27 0 VectorLength
FUNC 53b70 26 0 VectorLengthSquared
FUNC 53ba0 38 0 Distance
FUNC 53be0 34 0 DistanceSquared
FUNC 53c20 2e 0 VectorInverse
FUNC 53c50 17 0 NearestPowerOfTwo
FUNC 53c70 186 0 AxisMultiply
FUNC 53e00 1b2 0 AngleVectors
FUNC 53fc0 55 0 AnglesToAxis
FUNC 54020 80 0 PerpendicularVector
FUNC 540a0 bd 0 RotateAroundDirection
FUNC 54160 e7 0 GetPerpendicularViewVector
FUNC 54250 e2 0 ProjectPointOntoVector
FUNC 54340 3d8 0 DistanceBetweenLineSegmentsSquared
FUNC 54720 194 0 ProjectPointOntoVectorBounded
FUNC 548c0 119 0 DistanceFromLineSquared
FUNC 549e0 1d1 0 AxisToAngles
FUNC 54bd0 42 0 MatrixIdentity
FUNC 54c20 40 0 MatrixClear
FUNC 54c60 9f 0 MatrixCopy
FUNC 54d00 c3 0 MatrixCompare
FUNC 54dd0 9f 0 MatrixTranspose
FUNC 54e70 1ec 0 MatrixInverse
FUNC 55060 9c 0 MatrixSetupXRotation
FUNC 55100 9f 0 MatrixSetupYRotation
FUNC 551a0 9c 0 MatrixSetupZRotation
FUNC 55240 4c 0 MatrixSetupTranslation
FUNC 55290 46 0 MatrixSetupScale
FUNC 552e0 4e 0 MatrixSetupShear
FUNC 55330 5d 0 MatrixMultiply
FUNC 55390 c6 0 MatrixMultiply2
FUNC 55460 15e 0 MatrixMultiplyZRotation
FUNC 555c0 a8 0 MatrixMultiplyTranslation
FUNC 55670 9b 0 MatrixMultiplyScale
FUNC 55710 df 0 MatrixMultiplyShear
FUNC 557f0 14d 0 MatrixToAngles
FUNC 55940 1d0 0 MatrixFromAngles
FUNC 55b10 e3 0 MatrixMultiplyRotation
FUNC 55c00 8e 0 MatrixFromVectorsFLU
FUNC 55c90 9f 0 MatrixFromVectorsFRU
FUNC 55d30 165 0 MatrixFromQuat
FUNC 55ea0 172 0 MatrixFromPlanes
FUNC 56020 6c 0 MatrixToVectorsFLU
FUNC 56090 7d 0 MatrixToVectorsFRU
FUNC 56110 9b 0 MatrixSetupTransformFromVectorsFLU
FUNC 561b0 ac 0 MatrixSetupTransformFromVectorsFRU
FUNC 56260 95 0 MatrixSetupTransformFromRotation
FUNC 56300 b4 0 MatrixSetupTransformFromQuat
FUNC 563c0 104 0 MatrixAffineInverse
FUNC 564d0 80 0 MatrixTransformNormal
FUNC 56550 79 0 MatrixTransformNormal2
FUNC 565d0 8f 0 MatrixTransformPoint
FUNC 56660 88 0 MatrixTransformPoint2
FUNC 566f0 e3 0 MatrixTransform4
FUNC 567e0 5f 0 MatrixTransformPlane
FUNC 56840 3e 0 MatrixTransformPlane2
FUNC 56880 2c0 0 MatrixTransformBounds
FUNC 56b40 d6 0 MatrixPerspectiveProjection
FUNC 56c20 e2 0 MatrixPerspectiveProjectionLH
FUNC 56d10 ce 0 MatrixPerspectiveProjectionRH
FUNC 56de0 d9 0 MatrixPerspectiveProjectionFovYAspectLH
FUNC 56ec0 12c 0 MatrixPerspectiveProjectionFovXYLH
FUNC 56ff0 125 0 MatrixPerspectiveProjectionFovXYRH
FUNC 57120 ff 0 MatrixPerspectiveProjectionFovXYInfiniteRH
FUNC 57220 e8 0 MatrixOrthogonalProjection
FUNC 57310 e5 0 MatrixOrthogonalProjectionLH
FUNC 57400 cb 0 MatrixOrthogonalProjectionRH
FUNC 574d0 138 0 MatrixPlaneReflection
FUNC 57610 1d6 0 MatrixLookAtLH
FUNC 577f0 1e2 0 MatrixLookAtRH
FUNC 579e0 e9 0 MatrixScaleTranslateToUnitCube
FUNC 57ad0 102 0 MatrixCrop
FUNC 57be0 b9 0 QuatNormalize
FUNC 57ca0 22d 0 QuatFromMatrix
FUNC 57ed0 29 0 QuatFromAngles
FUNC 57f00 a2 0 QuatToVectorsFLU
FUNC 57fc0 92 0 QuatToAxis
FUNC 58060 23f 0 QuatToAngles
FUNC 582a0 e0 0 QuatMultiply
FUNC 58380 42 0 QuatMultiply2
FUNC 583d0 28c 0 QuatSlerp
FUNC 58660 12a 0 QuatTransformVector
FUNC 58790 12b 0 QuatTransformVectorInverse
FUNC 588c0 69 0 internalTime
FUNC 58930 c 0 __tcf_0
FUNC 58940 79 0 Q_strnicmp
FUNC 589c0 94 0 std::__cxx11::basic_string<char, std::char_traits<char>, std::allocator<char> >::_M_construct<char const*>
FUNC 58a60 2c 0 Com_InitGrowList
FUNC 58a90 2e 0 Com_DestroyGrowList
FUNC 58ac0 d 0 Com_Clamp
FUNC 58ad0 23 0 COM_FixPath
FUNC 58b00 23 0 COM_SkipPath
FUNC 58b30 bc 0 Com_SkipTokens
FUNC 58bf0 7d 0 COM_GetExtension
FUNC 58c70 2a 0 COM_StripExtension
FUNC 58ca0 3f 0 COM_StripExtension2
FUNC 58ce0 53 0 Com_HashKey
FUNC 58d40 164 0 Com_EntityTypeName
FUNC 58eb0 1 0 COM_BackupParseSession
FUNC 58ec0 c3 0 COM_Compress
FUNC 58f90 255 0 COM_ParseExt
FUNC 591f0 a 0 COM_Parse
FUNC 59200 474 0 COM_ParseExt2
FUNC 59680 a 0 COM_Parse2
FUNC 59690 5a 0 SkipBracedSection_Depth
FUNC 596f0 5a 0 SkipBracedSection
FUNC 59750 2b 0 SkipRestOfLine
FUNC 59780 8f 0 Com_HexStrToInt
FUNC 59810 1e2 0 Com_ClearForeignCharacters
FUNC 59a00 30 0 Q_strtoi
FUNC 59a30 ad 0 Q_strncpyz
FUNC 59ae0 87 0 COM_StripExtension3
FUNC 59b70 5e 0 Q_strncmp
FUNC 59bd0 86 0 Q_stricmp
FUNC 59c60 2d 0 Q_strlwr
FUNC 59c90 2d 0 Q_strupr
FUNC 59cc0 52 0 Q_strcat
FUNC 59d20 26 0 Q_strnicmp
FUNC 59d50 8d 0 Q_stristr
FUNC 59de0 99 0 Com_StringContains
FUNC 59e80 322 0 Com_Filter
FUNC 5a1b0 6a 0 Q_isBadDirChar
FUNC 5a220 2c 0 Q_CountChar
FUNC 5a250 f3 0 va
FUNC 5a350 1d 0 InfoValidItem
FUNC 5a370 80 0 Info_NextPair
FUNC 5a3f0 34 0 Info_Validate
FUNC 5a430 38 0 Com_ClientListContains
FUNC 5a470 30 0 Com_ClientListAdd
FUNC 5a4a0 30 0 Com_ClientListRemove
FUNC 5a4d0 4e 0 Com_ClientListParse
FUNC 5a520 80 0 VectorMatrixMultiply
FUNC 5a5a0 74 0 Q_ParseNewlines
FUNC 5a620 c 0 Com_RealTime
FUNC 5a630 c 0 Com_GMTime
FUNC 5a640 31f 0 Info_ValueForKey
FUNC 5a960 78 0 COM_ParseError
FUNC 5a9e0 78 0 COM_ParseWarning
FUNC 5aa60 304 0 InfoMapToString
FUNC 5ad70 140 0 Com_AddToGrowList
FUNC 5aeb0 ac 0 Com_sprintf
FUNC 5af60 89 0 COM_DefaultExtension
FUNC 5aff0 25 0 COM_BeginParseSession
FUNC 5b020 3e 0 Com_ClientListString
FUNC 5b060 7f 0 Com_GrowListElement
FUNC 5b0e0 45 0 COM_MatchToken
FUNC 5b130 18f 0 Info_RemoveKey
FUNC 5b2c0 193 0 Info_SetValueForKeyRocket
FUNC 5b460 273 0 Info_SetValueForKey
FUNC 5b6e0 17c 0 Com_ParseInfos
FUNC 5b860 b21 0 InfoStringToMap
FUNC 5c390 16 0 CmpHalfOpenInterval
FUNC 5c3b0 16 0 CmpFirstElement
FUNC 5c3d0 c 0 __tcf_0
FUNC 5c3e0 72 0 Q_UTF8_Width
FUNC 5c460 33 0 Q_UTF8_WidthCP
FUNC 5c4a0 2f 0 Q_UTF8_Strlen
FUNC 5c4d0 e 0 Q_UTF8_ContByte
FUNC 5c4e0 200 0 Q_UTF8_CodePoint
FUNC 5c6e0 f4 0 Q_UTF8_Encode
FUNC 5c7e0 3c 0 Q_Unicode_IsAlpha
FUNC 5c820 3c 0 Q_Unicode_IsUpper
FUNC 5c860 3c 0 Q_Unicode_IsLower
FUNC 5c8a0 3c 0 Q_Unicode_IsIdeo
FUNC 5c8e0 3c 0 Q_Unicode_IsDigit
FUNC 5c920 85 0 Q_Unicode_IsAlphaOrIdeo
FUNC 5c9b0 a9 0 Q_Unicode_IsAlphaOrIdeoOrDigit
FUNC 5ca60 20 0 Q_Unicode_IsPrivateUse
FUNC 5ca80 49 0 Q_Unicode_ToUpper
FUNC 5cad0 49 0 Q_Unicode_ToLower
FUNC 5cb20 1 0 Application::Application::LoadInitialConfig
FUNC 5cb30 1 0 Application::Application::Initialize
FUNC 5cb40 1 0 Application::Application::Shutdown
FUNC 5cb50 c 0 __tcf_0
FUNC 5cb60 94 0 std::__cxx11::basic_string<char, std::char_traits<char>, std::allocator<char> >::_M_construct<char const*>
FUNC 5cc00 28 0 Application::Traits::Traits
FUNC 5cc30 33 0 Application::Application::Application
FUNC 5cc70 5 0 Application::Application::GetTraits
FUNC 5cc80 33 0 Application::LoadInitialConfig
FUNC 5ccc0 4d 0 Application::Initialize
FUNC 5cd10 2b 0 Application::Frame
FUNC 5cd40 4d 0 Application::OnDrop
FUNC 5cd90 51 0 Application::Shutdown
FUNC 5cdf0 22 0 Application::OnUnhandledCommand
FUNC 5ce20 12 0 Application::GetTraits
FUNC 5ce40 3d 0 Application::Application::OnUnhandledCommand
FUNC 5ce80 1 0 __tcf_1
FUNC 5ce90 c 0 __tcf_0
FUNC 5cea0 94 0 std::__cxx11::basic_string<char, std::char_traits<char>, std::allocator<char> >::_M_construct<char const*>
FUNC 5d050 a8 0 __tcf_11
FUNC 5d100 508 0 Cmd::GetAliasConfigText
FUNC 5d610 8e 0 Cmd::CmdBase::Print<const std::__cxx11::basic_string<char, std::char_traits<char>, std::allocator<char> >&>
FUNC 5d6a0 a6 0 Cmd::DelayFrame
FUNC 5d750 35 0 __tcf_15
FUNC 5d790 8e 0 Cmd::CmdBase::Print<char const*>
FUNC 5d820 162 0 Cmd::CompleteDelayName
FUNC 5d990 150 0 Cmd::CompleteAliasName
FUNC 5dae0 1 0 __tcf_6
FUNC 5daf0 97 0 __tcf_2
FUNC 5db90 c 0 __tcf_3
FUNC 5dba0 c 0 __tcf_0
FUNC 5dbb0 62 0 __tcf_1
FUNC 5dc20 94 0 std::__cxx11::basic_string<char, std::char_traits<char>, std::allocator<char> >::_M_construct<char const*>
FUNC 5dcc0 6b 0 Cmd::DefaultEnvironment::Print
FUNC 5ddc0 5b 0 __tcf_5
FUNC 5de20 5b 0 __tcf_4
FUNC 5de80 b3 0 Cmd::GetCommandMap
FUNC 5df40 8 0 Cmd::GetCurrentArgs
FUNC 5df50 8 0 Cmd::GetEnv
FUNC 5df60 f 0 Cmd::SetCurrentArgs
FUNC 5df70 13 0 Cmd::SaveArgs
FUNC 5df90 13 0 Cmd::LoadArgs
FUNC 5dfb0 4a8 0 Cmd::BufferCommandTextInternal
FUNC 5e460 2e 0 Cmd::BufferCommandText
FUNC 5e490 2b 0 Cmd::BufferCommandTextAfter
FUNC 5e4c0 32 0 Cmd::DefaultEnvironment::ExecuteAfter
FUNC 5e500 54 0 Cmd::RemoveFlaggedCommands
FUNC 5e560 49 0 Cmd::RemoveSameCommands
FUNC 5e5b0 282 0 Cmd::CompleteCommandNames
FUNC 5e840 95 0 Cmd::ChangeDescription
FUNC 5e8e0 24 0 Cmd::CommandExists
FUNC 5e910 2f0 0 Cmd::ExecuteCommand
FUNC 5ec00 294 0 Cmd::ExecuteCommandBuffer
FUNC 5eea0 1f3 0 Cmd::CompleteArgument
FUNC 5f0a0 98 0 Cmd::RemoveCommand
FUNC 5f140 382 0 Cmd::AddCommand
FUNC 5f4d0 c 0 __tcf_0
FUNC 5f4e0 94 0 std::__cxx11::basic_string<char, std::char_traits<char>, std::allocator<char> >::_M_construct<char const*>
FUNC 5f580 538 0 VM::CommonVMServices::EnvPrint
FUNC 5fac0 5ab 0 VM::CommonVMServices::EnvExecuteAfter
FUNC 60070 d1 0 VM::CommonVMServices::CommonVMServices
FUNC 60150 184 0 VM::CommonVMServices::~CommonVMServices
FUNC 602e0 5 0 VM::CommonVMServices::GetVM
FUNC 602f0 7a4 0 VM::CommonVMServices::SetCvar
FUNC 60aa0 58c 0 VM::CommonVMServices::AddCvarFlags
FUNC 61030 101f 0 VM::CommonVMServices::RegisterCvar
FUNC 62050 930 0 VM::CommonVMServices::HandleMiscSyscall
FUNC 62980 6cf 0 VM::CommonVMServices::GetCvar
FUNC 63050 5d5 0 VM::CommonVMServices::HandleLogSyscall
FUNC 63630 70 0 VM::CommonVMServices::HandleCvarSyscall
FUNC 636a0 36ed 0 VM::CommonVMServices::HandleCommonQVMSyscall
FUNC 66d90 548 0 VM::CommonVMServices::RemoveCommand
FUNC 672e0 95e 0 VM::CommonVMServices::AddCommand
FUNC 67c40 70 0 VM::CommonVMServices::HandleCommandSyscall
FUNC 67cb0 151 0 VM::CommonVMServices::Syscall
FUNC 67e10 4e 0 Sys::CrashDumpPath
FUNC 67e60 c 0 __tcf_0
FUNC 67e70 62 0 __tcf_1
FUNC 67ee0 94 0 std::__cxx11::basic_string<char, std::char_traits<char>, std::allocator<char> >::_M_construct<char const*>
FUNC 67f80 36 0 __tcf_3
FUNC 67fc0 75 0 __tcf_2
FUNC 68040 1f7 0 Sys::CreateCrashDumpPath
FUNC 68240 bc7 0 Sys::BreakpadInitInternal
FUNC 68e10 47 0 Sys::BreakpadInit
FUNC 68e60 32d 0 Sys::NaclCrashDump
FUNC 69190 1 0 __tcf_2
FUNC 691a0 c 0 __tcf_1
FUNC 691b0 94 0 std::__cxx11::basic_string<char, std::char_traits<char>, std::allocator<char> >::_M_construct<char const*>
FUNC 692b0 45 0 __tcf_0
FUNC 69300 b3 0 Cvar::GetCvarMap
FUNC 693c0 c2 0 Cvar::Shutdown
FUNC 69490 6b 0 Cvar::InfoString
FUNC 69500 13c 0 Cvar::Raw
FUNC 69640 155a 0 Cvar::GetCvarConfigText
FUNC 6aba0 1e94 0 Cvar::SetCStyleDescription
FUNC 6ca40 16a 0 Cvar::GetCCvar
FUNC 6cbb0 10de 0 Cvar::ChangeCvarDescription
FUNC 6dc90 16d 0 Cvar::SetCCvar
FUNC 6de00 1bd 0 Cvar::SetCheatsAllowed
FUNC 6dfc0 258 0 Cvar::Complete
FUNC 6e220 ae 0 Cmd::CmdBase::Print<const std::__cxx11::basic_string<char, std::char_traits<char>, std::allocator<char> >&, std::__cxx11::basic_string<char, std::char_traits<char>, std::allocator<char> >&, std::__cxx11::basic_string<char, std::char_traits<char>, std::allocator<char> >&, std::__cxx11::basic_string<char, std::char_traits<char>, std::allocator<char> > >
FUNC 6e2d0 70 0 Cvar::GetValue
FUNC 6e340 36 0 Cvar::Unregister
FUNC 6e380 96 0 Cvar::AddFlags
FUNC 6e420 41 0 Cvar::ClearFlags
FUNC 6e470 34 0 Cvar::FindCCvar
FUNC 6e4b0 3fb 0 Cvar::InternalSetValue
FUNC 6e8b0 7f 0 Cvar::SetValue
FUNC 6e930 82 0 Cvar::SetValueForce
FUNC 6e9c0 82 0 Cvar::SetValueCProxy
FUNC 6ea50 5e2 0 Cvar::Register
FUNC 6f040 59a 0 Cvar::PopulateInfoMap
FUNC 6f5e0 1 0 __tcf_6
FUNC 6f5f0 5b 0 __tcf_0
FUNC 6f650 c 0 __tcf_1
FUNC 6f660 94 0 std::__cxx11::basic_string<char, std::char_traits<char>, std::allocator<char> >::_M_construct<char const*>
FUNC 6f700 3b 0 __tcf_11
FUNC 6f740 75 0 __tcf_7
FUNC 6f7c0 89 0 __tcf_8
FUNC 6f850 75 0 __tcf_9
FUNC 6f8d0 75 0 __tcf_10
FUNC 6f950 75 0 __tcf_2
FUNC 6f9d0 75 0 __tcf_4
FUNC 6fa50 75 0 __tcf_5
FUNC 6fad0 75 0 __tcf_3
FUNC 6fb50 f 0 Log::RegisterTarget
FUNC 6fb60 b 0 Log::Target::Target
FUNC 6fb70 f 0 Log::Target::Register
FUNC 6fb80 3d3 0 Log::OpenLogFile
FUNC 6ff60 25f 0 Log::Dispatch
FUNC 701c0 1 0 __tcf_2
FUNC 701d0 21 0 __tcf_1
FUNC 70200 c 0 __tcf_0
FUNC 70210 94 0 std::__cxx11::basic_string<char, std::char_traits<char>, std::allocator<char> >::_M_construct<char const*>
FUNC 702b0 2eb 0 Sys::GetSingletonSocketPath
FUNC 705a0 33 0 Sys::Quit
FUNC 705e0 92 0 Sys::Error
FUNC 70680 198 0 Sys::ReadSingletonSocketCommands
FUNC 70820 c2 0 Sys::ReadSingletonSocket
FUNC 708f0 99 0 Sys::EarlyCvar
FUNC 70990 16b8 0 Sys::Init
FUNC 72050 24c 0 SDL_main
FUNC 722a0 f 0 std::thread::_State_impl<std::thread::_Invoker<std::tuple<VM::CreateInProcessNativeVM(std::pair<IPC::Socket, IPC::Socket>, Str::StringRef, VM::VMBase::InProcessInfo&)::<lambda()> > > >::~_State_impl
FUNC 722b0 24 0 std::thread::_State_impl<std::thread::_Invoker<std::tuple<VM::CreateInProcessNativeVM(std::pair<IPC::Socket, IPC::Socket>, Str::StringRef, VM::VMBase::InProcessInfo&)::<lambda()> > > >::~_State_impl
FUNC 722e0 c 0 __tcf_0
FUNC 722f0 94 0 std::__cxx11::basic_string<char, std::char_traits<char>, std::allocator<char> >::_M_construct<char const*>
FUNC 72390 4f 0 std::thread::_State_impl<std::thread::_Invoker<std::tuple<VM::CreateInProcessNativeVM(std::pair<IPC::Socket, IPC::Socket>, Str::StringRef, VM::VMBase::InProcessInfo&)::<lambda()> > > >::_M_run
FUNC 723e0 136 0 VM::VMBase::FreeInProcessVM
FUNC 72520 254 0 VM::VMBase::Free
FUNC 72780 7df 0 VM::InternalLoadModule
FUNC 72f60 14c5 0 VM::CreateNaClVM
FUNC 74430 470 0 VM::CreateNativeVM
FUNC 748a0 4e8 0 VM::CreateInProcessNativeVM
FUNC 74d90 8de 0 VM::VMBase::Create
FUNC 75670 173 0 VM::VMBase::LogMessage
FUNC 757f0 c 0 __tcf_0
FUNC 75800 84 0 Crypto::RandomData
FUNC 75890 b5 0 Crypto::Hash::Sha256
FUNC 75950 9f 0 Crypto::Hash::Md5
FUNC 759f0 16d 0 Crypto::Encoding::HexDecode
FUNC 75b60 ed 0 Crypto::Encoding::HexEncode
FUNC 75c50 e7 0 Crypto::Encoding::Base64Encode
FUNC 75d40 12f 0 Crypto::Encoding::Base64Decode
FUNC 75e70 d5 0 Crypto::Aes256Decrypt
FUNC 75f50 58 0 Crypto::AddPadding
FUNC 75fb0 125 0 Crypto::Aes256Encrypt
FUNC 760e0 c 0 __tcf_1
FUNC 760f0 13f 0 Rcon::Message::Message
FUNC 76230 9b 0 Rcon::Message::Message
FUNC 762d0 13c 0 Rcon::Message::Valid
FUNC 76410 21 0 __tcf_0
FUNC 76440 c 0 __tcf_1
FUNC 76450 87 0 std::__cxx11::basic_string<char, std::char_traits<char>, std::allocator<char> >::_M_construct<char const*>
FUNC 764e0 6d 0 std::__cxx11::basic_string<unsigned char, std::char_traits<unsigned char>, std::allocator<unsigned char> >::_M_create
FUNC 76550 39 0 Net::GetPort
FUNC 76590 4b5 0 Net::AddressToString
FUNC 76a50 583 0 Net::OutOfBandData
FUNC 76fe0 821 0 MD5Transform
FUNC 77810 da 0 MD5Final
FUNC 778f0 c 0 __tcf_0
FUNC 77900 121 0 MD5Update
FUNC 77a30 9f 0 Com_MD5Buffer
FUNC 77ad0 68 0 Com_BlockChecksum
FUNC 77b40 c 0 __tcf_0
FUNC 77b50 94 0 std::__cxx11::basic_string<char, std::char_traits<char>, std::allocator<char> >::_M_construct<char const*>
FUNC 77bf0 75 0 __tcf_1
FUNC 77c70 89 0 __tcf_2
FUNC 77d00 212 0 Color::To4bit
FUNC 77f20 c 0 __tcf_0
FUNC 77f40 1 0 CON_Init_TTY
FUNC 77f50 3 0 CON_Input_TTY
FUNC 77f60 1f 0 CON_Print_TTY
FUNC 77f80 45 0 __tcf_1
FUNC 77fd0 c 0 __tcf_0
FUNC 77fe0 48 0 CON_SetColor
FUNC 78030 94 0 std::__cxx11::basic_string<char, std::char_traits<char>, std::allocator<char> >::_M_construct<char const*>
FUNC 780d0 41e 0 CON_ColorPrint
FUNC 784f0 69 0 CON_UpdateClock
FUNC 78560 321 0 CON_Redraw
FUNC 78890 39 0 CON_Shutdown
FUNC 788d0 ca 0 CON_Init
FUNC 789a0 1b1 0 CON_Print
FUNC 78b60 17ac 0 CON_Input
FUNC 7a310 c 0 __tcf_0
FUNC 7a320 1d 0 Color::detail::Indexed
FUNC 7a340 3b8 0 Color::detail::ToString
FUNC 7a700 3a7 0 Color::TokenIterator::NextToken
FUNC 7aab0 29c 0 Color::StripColors
FUNC 7ad50 132 0 Color::StrlenNocolor
FUNC 7ae90 143 0 Color::StripColors
FUNC 7afe0 239 0 Color::StripColors
FUNC 7b220 c 0 __tcf_0
FUNC 7b230 7d 0 std::__cxx11::basic_string<char32_t, std::char_traits<char32_t>, std::allocator<char32_t> >::_M_create
FUNC 7b2b0 26 0 Util::LineEditData::LineEditData
FUNC 7b2e0 4 0 Util::LineEditData::GetText
FUNC 7b300 b 0 Util::LineEditData::GetViewText
FUNC 7b310 4 0 Util::LineEditData::GetViewStartPos
FUNC 7b320 4 0 Util::LineEditData::GetCursorPos
FUNC 7b330 7 0 Util::LineEditData::GetViewCursorPos
FUNC 7b340 14d 0 Util::LineEditData::SetText
FUNC 7b490 9 0 Util::LineEditData::CursorStart
FUNC 7b4a0 3b 0 Util::LineEditData::SwapWithNext
FUNC 7b4e0 1a 0 Util::LineEditData::Clear
FUNC 7b500 4 0 Util::LineEditData::GetWidth
FUNC 7b510 45 0 Util::LineEditData::UpdateScroll
FUNC 7b560 9 0 Util::LineEditData::CursorEnd
FUNC 7b570 5 0 Util::LineEditData::SetCursor
FUNC 7b580 14 0 Util::LineEditData::CursorRight
FUNC 7b5a0 19 0 Util::LineEditData::CursorLeft
FUNC 7b5c0 12 0 Util::LineEditData::SetWidth
FUNC 7b5e0 17f 0 Util::LineEditData::AddChar
FUNC 7b760 7e 0 Util::LineEditData::DeletePrev
FUNC 7b7e0 5e 0 Util::LineEditData::DeleteNext
FUNC 7b840 c 0 __tcf_0
FUNC 7b850 94 0 std::__cxx11::basic_string<char, std::char_traits<char>, std::allocator<char> >::_M_construct<char const*>
FUNC 7b8f0 7d 0 std::__cxx11::basic_string<char32_t, std::char_traits<char32_t>, std::allocator<char32_t> >::_M_create
FUNC 7b970 42 0 Console::Field::Field
FUNC 7b9c0 d7 0 Console::Field::HistoryPrev
FUNC 7baa0 d7 0 Console::Field::HistoryNext
FUNC 7bb80 35e 0 Console::Field::RunCommand
FUNC 7bee0 ccb 0 std::__introsort_loop<__gnu_cxx::__normal_iterator<std::pair<std::__cxx11::basic_string<char>, std::__cxx11::basic_string<char> >*, std::vector<std::pair<std::__cxx11::basic_string<char>, std::__cxx11::basic_string<char> > > >, long long int, __gnu_cxx::__ops::_Iter_less_iter>
FUNC 7cbb0 2b8c 0 Console::Field::AutoComplete
FUNC 7f740 5b 0 __tcf_1
FUNC 7f7a0 c 0 __tcf_2
FUNC 7f7b0 c 0 __tcf_0
FUNC 7f7c0 94 0 std::__cxx11::basic_string<char, std::char_traits<char>, std::allocator<char> >::_M_construct<char const*>
FUNC 7f860 1c 0 Console::History::History
FUNC 7f880 29 0 Console::History::GetFilename
FUNC 7f8b0 13c 0 Console::History::PrevLine
FUNC 7f9f0 f0 0 Console::History::NextLine
FUNC 7fae0 283 0 Console::History::Save
FUNC 7fd70 43d 0 Console::History::Load
FUNC 801b0 173 0 Console::History::Add
FUNC 80330 278 0 accumulate_locstring
FUNC 805b0 1e6 0 FL_FindLocale
FUNC 807a0 55 0 FL_FreeLocale
FUNC 80800 94 0 std::__cxx11::basic_string<char, std::char_traits<char>, std::allocator<char> >::_M_construct<char*>
FUNC 808a0 2b 0 tinygettext::Dictionary::get_charset
FUNC 808d0 16 0 tinygettext::Dictionary::set_plural_forms
FUNC 808f0 19 0 tinygettext::Dictionary::get_plural_forms
FUNC 80910 ae 0 tinygettext::Dictionary::Dictionary
FUNC 809c0 38 0 tinygettext::Dictionary::~Dictionary
FUNC 80a00 3a3 0 tinygettext::Dictionary::translate_plural
FUNC 80db0 29 0 tinygettext::Dictionary::translate_plural
FUNC 80de0 16a 0 tinygettext::Dictionary::translate
FUNC 80f50 1c 0 tinygettext::Dictionary::translate
FUNC 80f70 14a 0 tinygettext::Dictionary::translate_ctxt
FUNC 810c0 19a 0 tinygettext::Dictionary::translate_ctxt_plural
FUNC 81260 3eb 0 std::_Rb_tree<std::__cxx11::basic_string<char, std::char_traits<char>, std::allocator<char> >, std::pair<const std::__cxx11::basic_string<char, std::char_traits<char>, std::allocator<char> >, std::vector<std::__cxx11::basic_string<char, std::char_traits<char>, std::allocator<char> >, std::allocator<std::__cxx11::basic_string<char, std::char_traits<char>, std::allocator<char> > > > >, std::_Select1st<std::pair<const std::__cxx11::basic_string<char, std::char_traits<char>, std::allocator<char> >, std::vector<std::__cxx11::basic_string<char, std::char_traits<char>, std::allocator<char> >, std::allocator<std::__cxx11::basic_string<char, std::char_traits<char>, std::allocator<char> > > > > >, std::less<std::__cxx11::basic_string<char, std::char_traits<char>, std::allocator<char> > >, std::allocator<std::pair<const std::__cxx11::basic_string<char, std::char_traits<char>, std::allocator<char> >, std::vector<std::__cxx11::basic_string<char, std::char_traits<char>, std::allocator<char> >, std::allocator<std::__cxx11::basic_string<char, std::char_traits<char>, std::allocator<char> > > > > > >::_M_emplace_hint_unique<const std::piecewise_construct_t&, std::tuple<const std::__cxx11::basic_string<char, std::char_traits<char>, std::allocator<char> >&>, std::tuple<> >
FUNC 81650 248 0 tinygettext::Dictionary::add_translation
FUNC 818a0 2ea 0 tinygettext::Dictionary::add_translation
FUNC 81b90 3fe 0 std::_Rb_tree<std::__cxx11::basic_string<char, std::char_traits<char>, std::allocator<char> >, std::pair<const std::__cxx11::basic_string<char, std::char_traits<char>, std::allocator<char> >, std::map<std::__cxx11::basic_string<char, std::char_traits<char>, std::allocator<char> >, std::vector<std::__cxx11::basic_string<char, std::char_traits<char>, std::allocator<char> >, std::allocator<std::__cxx11::basic_string<char, std::char_traits<char>, std::allocator<char> > > >, std::less<std::__cxx11::basic_string<char, std::char_traits<char>, std::allocator<char> > >, std::allocator<std::pair<const std::__cxx11::basic_string<char, std::char_traits<char>, std::allocator<char> >, std::vector<std::__cxx11::basic_string<char, std::char_traits<char>, std::allocator<char> >, std::allocator<std::__cxx11::basic_string<char, std::char_traits<char>, std::allocator<char> > > > > > > >, std::_Select1st<std::pair<const std::__cxx11::basic_string<char, std::char_traits<char>, std::allocator<char> >, std::map<std::__cxx11::basic_string<char, std::char_traits<char>, std::allocator<char> >, std::vector<std::__cxx11::basic_string<char, std::char_traits<char>, std::allocator<char> >, std::allocator<std::__cxx11::basic_string<char, std::char_traits<char>, std::allocator<char> > > >, std::less<std::__cxx11::basic_string<char, std::char_traits<char>, std::allocator<char> > >, std::allocator<std::pair<const std::__cxx11::basic_string<char, std::char_traits<char>, std::allocator<char> >, std::vector<std::__cxx11::basic_string<char, std::char_traits<char>, std::allocator<char> >, std::allocator<std::__cxx11::basic_string<char, std::char_traits<char>, std::allocator<char> > > > > > > > >, std::less<std::__cxx11::basic_string<char, std::char_traits<char>, std::allocator<char> > >, std::allocator<std::pair<const std::__cxx11::basic_string<char, std::char_traits<char>, std::allocator<char> >, std::map<std::__cxx11::basic_string<char, std::char_traits<char>, std::allocator<char> >, std::vector<std::__cxx11::basic_string<char, std::char_traits<char>, std::allocator<char> >, std::allocator<std::__cxx11::basic_string<char, std::char_traits<char>, std::allocator<char> > > >, std::less<std::__cxx11::basic_string<char, std::char_traits<char>, std::allocator<char> > >, std::allocator<std::pair<const std::__cxx11::basic_string<char, std::char_traits<char>, std::allocator<char> >, std::vector<std::__cxx11::basic_string<char, std::char_traits<char>, std::allocator<char> >, std::allocator<std::__cxx11::basic_string<char, std::char_traits<char>, std::allocator<char> > > > > > > > > >::_M_emplace_hint_unique<const std::piecewise_construct_t&, std::tuple<const std::__cxx11::basic_string<char, std::char_traits<char>, std::allocator<char> >&>, std::tuple<> >
FUNC 81f90 3c3 0 tinygettext::Dictionary::add_translation
FUNC 82360 3ef 0 tinygettext::Dictionary::add_translation
FUNC 82750 94 0 std::__cxx11::basic_string<char, std::char_traits<char>, std::allocator<char> >::_M_construct<char*>
FUNC 827f0 2f 0 tinygettext::DictionaryManager::set_language
FUNC 82820 5 0 tinygettext::DictionaryManager::get_language
FUNC 82830 5 0 tinygettext::DictionaryManager::get_use_fuzzy
FUNC 82840 31 0 tinygettext::DictionaryManager::set_filesystem
FUNC 82880 cf 0 tinygettext::DictionaryManager::~DictionaryManager
FUNC 82950 7e 0 tinygettext::DictionaryManager::clear_cache
FUNC 829d0 23 0 tinygettext::DictionaryManager::set_charset
FUNC 82a00 1b 0 tinygettext::DictionaryManager::set_use_fuzzy
FUNC 82a20 121 0 tinygettext::DictionaryManager::DictionaryManager
FUNC 82b50 28f 0 tinygettext::DictionaryManager::get_languages
FUNC 82de0 68 0 tinygettext::DictionaryManager::add_directory
FUNC 82e50 927 0 tinygettext::DictionaryManager::get_dictionary
FUNC 83780 41 0 tinygettext::DictionaryManager::get_dictionary
FUNC 837d0 94 0 std::__cxx11::basic_string<char, std::char_traits<char>, std::allocator<char> >::_M_construct<char const*>
FUNC 83870 4 0 tinygettext::Language::Language
FUNC 83880 8 0 tinygettext::Language::Language
FUNC 83890 6c 0 tinygettext::Language::get_language
FUNC 83900 64 0 tinygettext::Language::get_country
FUNC 83970 64 0 tinygettext::Language::get_modifier
FUNC 839e0 317 0 tinygettext::Language::match
FUNC 83d00 6c 0 tinygettext::Language::get_name
FUNC 83d70 1e5 0 tinygettext::Language::str
FUNC 83f60 a 0 tinygettext::Language::operator==
FUNC 83f70 a 0 tinygettext::Language::operator!=
FUNC 83f80 13 0 __tcf_0
FUNC 83fa0 13 0 __tcf_1
FUNC 83fc0 3e9 0 std::_Rb_tree<std::__cxx11::basic_string<char, std::char_traits<char>, std::allocator<char> >, std::pair<const std::__cxx11::basic_string<char, std::char_traits<char>, std::allocator<char> >, std::__cxx11::basic_string<char, std::char_traits<char>, std::allocator<char> > >, std::_Select1st<std::pair<const std::__cxx11::basic_string<char, std::char_traits<char>, std::allocator<char> >, std::__cxx11::basic_string<char, std::char_traits<char>, std::allocator<char> > > >, std::less<std::__cxx11::basic_string<char, std::char_traits<char>, std::allocator<char> > >, std::allocator<std::pair<const std::__cxx11::basic_string<char, std::char_traits<char>, std::allocator<char> >, std::__cxx11::basic_string<char, std::char_traits<char>, std::allocator<char> > > > >::_M_emplace_hint_unique<const std::piecewise_construct_t&, std::tuple<std::__cxx11::basic_string<char, std::char_traits<char>, std::allocator<char> >&&>, std::tuple<> >
FUNC 843b0 20e4 0 tinygettext::resolve_language_alias
FUNC 864a0 83c 0 tinygettext::Language::from_spec
FUNC 86ce0 698 0 tinygettext::Language::from_env
FUNC 87380 61 0 tinygettext::Language::from_name
FUNC 873f0 39 0 tinygettext::Log::default_log_callback
FUNC 87430 c 0 __tcf_0
FUNC 87440 94 0 std::__cxx11::basic_string<char, std::char_traits<char>, std::allocator<char> >::_M_construct<char*>
FUNC 874e0 8 0 tinygettext::Log::set_log_info_callback
FUNC 874f0 8 0 tinygettext::Log::set_log_warning_callback
FUNC 87500 8 0 tinygettext::Log::set_log_error_callback
FUNC 87510 1b6 0 tinygettext::Log::Log
FUNC 876d0 2a3 0 tinygettext::Log::~Log
FUNC 87980 5 0 tinygettext::Log::get
FUNC 87990 c 0 __tcf_0
FUNC 879a0 94 0 std::__cxx11::basic_string<char, std::char_traits<char>, std::allocator<char> >::_M_construct<char*>
FUNC 87a40 9f 0 tinygettext::POParser::POParser
FUNC 87ae0 46 0 tinygettext::POParser::~POParser
FUNC 87b30 143 0 tinygettext::POParser::warning
FUNC 87c80 97 0 tinygettext::POParser::next_line
FUNC 87d20 5ce 0 tinygettext::POParser::parse_header
FUNC 882f0 8d 0 tinygettext::POParser::is_empty_line
FUNC 88380 11a 0 tinygettext::POParser::error
FUNC 884a0 31 0 tinygettext::POParser::prefix
FUNC 884e0 94b 0 tinygettext::POParser::get_string_line
FUNC 88e30 6ed 0 tinygettext::POParser::get_string
FUNC 89520 bf3 0 tinygettext::POParser::parse
FUNC 8a120 56 0 tinygettext::POParser::parse
FUNC 8a180 94 0 std::__cxx11::basic_string<char, std::char_traits<char>, std::allocator<char> >::_M_construct<char*>
FUNC 8a220 30 0 tinygettext::IConv::IConv
FUNC 8a250 46 0 tinygettext::IConv::~IConv
FUNC 8a2a0 250 0 tinygettext::IConv::convert
FUNC 8a4f0 997 0 tinygettext::IConv::set_charsets
FUNC 8ae90 70 0 tinygettext::IConv::IConv
FUNC 8af00 3 0 tinygettext::plural1
FUNC 8af10 9 0 tinygettext::plural2_1
FUNC 8af20 9 0 tinygettext::plural2_2
FUNC 8af30 2a 0 tinygettext::plural2_mk
FUNC 8af60 50 0 tinygettext::plural3_lv
FUNC 8afb0 13 0 tinygettext::plural3_ga
FUNC 8afd0 76 0 tinygettext::plural3_lt
FUNC 8b050 76 0 tinygettext::plural3_1
FUNC 8b0d0 16 0 tinygettext::plural3_sk
FUNC 8b0f0 3a 0 tinygettext::plural3_sl
FUNC 8b130 56 0 tinygettext::plural3_pl
FUNC 8b190 20 0 tinygettext::plural4_ar
FUNC 8b1b0 13 0 __tcf_0
FUNC 8b1d0 3e9 0 std::_Rb_tree<std::__cxx11::basic_string<char, std::char_traits<char>, std::allocator<char> >, std::pair<const std::__cxx11::basic_string<char, std::char_traits<char>, std::allocator<char> >, tinygettext::PluralForms>, std::_Select1st<std::pair<const std::__cxx11::basic_string<char, std::char_traits<char>, std::allocator<char> >, tinygettext::PluralForms> >, std::less<std::__cxx11::basic_string<char, std::char_traits<char>, std::allocator<char> > >, std::allocator<std::pair<const std::__cxx11::basic_string<char, std::char_traits<char>, std::allocator<char> >, tinygettext::PluralForms> > >::_M_emplace_hint_unique<const std::piecewise_construct_t&, std::tuple<std::__cxx11::basic_string<char, std::char_traits<char>, std::allocator<char> >&&>, std::tuple<> >
FUNC 8b5c0 1ae2 0 tinygettext::PluralForms::from_string
FUNC 8d0b0 439 0 fastlz1_compress
FUNC 8d4f0 566 0 fastlz2_compress
FUNC 8da60 15 0 fastlz_compress
FUNC 8da80 418 0 fastlz_decompress
FUNC 8dea0 2b 0 fastlz_compress_level
FUNC 8ded0 5 0 dtFreeDefault
FUNC 8dee0 5 0 dtAllocDefault
FUNC 8def0 2b 0 dtAllocSetCustom
FUNC 8df20 7 0 dtAlloc
FUNC 8df30 11 0 dtFree
FUNC 8df50 c 0 __tcf_0
FUNC 8df60 d5 0 calcSlabEndPoints
FUNC 8e040 115 0 dtNavMesh::unconnectLinks
FUNC 8e160 3e2 0 dtNavMesh::findConnectingPolys
FUNC 8e550 2ea 0 dtNavMesh::connectExtLinks
FUNC 8e840 6c 0 dtNavMesh::dtNavMesh
FUNC 8e8b0 22 0 dtAllocNavMesh
FUNC 8e8e0 80 0 dtNavMesh::~dtNavMesh
FUNC 8e960 26 0 dtFreeNavMesh
FUNC 8e990 2a9 0 dtNavMesh::init
FUNC 8ec40 4 0 dtNavMesh::getParams
FUNC 8ec50 13 0 dtNavMesh::findConnectingPolys
FUNC 8ec70 11 0 dtNavMesh::unconnectLinks
FUNC 8ec90 b 0 dtNavMesh::connectExtLinks
FUNC 8eca0 f7 0 dtNavMesh::connectIntLinks
FUNC 8eda0 454 0 dtNavMesh::closestPointOnPoly
FUNC 8f200 343 0 dtNavMesh::queryPolygonsInTile
FUNC 8f550 209 0 dtNavMesh::findNearestPolyInTile
FUNC 8f760 245 0 dtNavMesh::connectExtOffMeshLinks
FUNC 8f9b0 1d2 0 dtNavMesh::baseOffMeshLinks
FUNC 8fb90 48 0 dtNavMesh::getTileAt
FUNC 8fbe0 68 0 dtNavMesh::getTilesAt
FUNC 8fc50 a4 0 dtNavMesh::getNeighbourTilesAt
FUNC 8fd00 420 0 dtNavMesh::addTile
FUNC 90120 c1 0 dtNavMesh::init
FUNC 90200 83 0 dtNavMesh::getTileRefAt
FUNC 90290 64 0 dtNavMesh::getTileByRef
FUNC 90300 4 0 dtNavMesh::getMaxTiles
FUNC 90330 14 0 dtNavMesh::getTile
FUNC 90350 a1 0 dtNavMesh::calcTileLoc
FUNC 90400 a3 0 dtNavMesh::getTileAndPolyByRef
FUNC 904b0 5a 0 dtNavMesh::getTileAndPolyByRefUnsafe
FUNC 90510 82 0 dtNavMesh::isValidPolyRef
FUNC 905a0 2c5 0 dtNavMesh::removeTile
FUNC 90870 2e 0 dtNavMesh::getTileRef
FUNC 908b0 16 0 dtNavMesh::getTileStateSize
FUNC 908d0 ab 0 dtNavMesh::storeTileState
FUNC 90980 c7 0 dtNavMesh::restoreTileState
FUNC 90a50 16d 0 dtNavMesh::getOffMeshConnectionPolyEndPoints
FUNC 90bc0 b4 0 dtNavMesh::getOffMeshConnectionByRef
FUNC 90c80 a1 0 dtNavMesh::setPolyFlags
FUNC 90d30 a4 0 dtNavMesh::getPolyFlags
FUNC 90de0 ae 0 dtNavMesh::setPolyArea
FUNC 90e90 a6 0 dtNavMesh::getPolyArea
FUNC 90f40 c 0 __tcf_0
FUNC 90f50 c7 0 insertInterval
FUNC 91020 2e 0 dtQueryFilter::dtQueryFilter
FUNC 91050 81 0 dtAllocNavMeshQuery
FUNC 910e0 68 0 dtNavMeshQuery::dtNavMeshQuery
FUNC 91150 52 0 dtNavMeshQuery::~dtNavMeshQuery
FUNC 911b0 26 0 dtFreeNavMeshQuery
FUNC 911e0 1b2 0 dtNavMeshQuery::init
FUNC 913a0 477 0 dtNavMeshQuery::closestPointOnPoly
FUNC 91820 221 0 dtNavMeshQuery::closestPointOnPolyBoundary
FUNC 91a50 224 0 dtNavMeshQuery::getPolyHeight
FUNC 91c80 329 0 dtNavMeshQuery::findRandomPoint
FUNC 91fb0 4fc 0 dtNavMeshQuery::queryPolygonsInTile
FUNC 924b0 18f 0 dtNavMeshQuery::queryPolygons
FUNC 92640 26 0 dtNavMeshQuery::queryPolygons
FUNC 92670 ac 0 dtNavMeshQuery::findNearestPoly
FUNC 92720 9c 0 dtNavMeshQuery::queryPolygons
FUNC 927c0 e6 0 dtNavMeshQuery::getPathToNode
FUNC 928b0 22a 0 dtNavMeshQuery::initSlicedFindPath
FUNC 92ae0 18c 0 dtNavMeshQuery::appendVertex
FUNC 92c70 785 0 dtNavMeshQuery::moveAlongSurface
FUNC 93400 33e 0 dtNavMeshQuery::getPortalPoints
FUNC 93740 ee 0 dtNavMeshQuery::getPortalPoints
FUNC 93830 87b 0 dtNavMeshQuery::findRandomPointAroundCircle
FUNC 940b0 2d7 0 dtNavMeshQuery::appendPortals
FUNC 94390 bf4 0 dtNavMeshQuery::findStraightPath
FUNC 94f90 8c 0 dtNavMeshQuery::getEdgeMidPoint
FUNC 95020 a7 0 dtNavMeshQuery::getEdgeMidPoint
FUNC 950d0 6ab 0 dtNavMeshQuery::findPath
FUNC 95780 911 0 dtNavMeshQuery::raycast
FUNC 960a0 7b4 0 dtNavMeshQuery::updateSlicedFindPath
FUNC 96860 a3 0 dtNavMeshQuery::raycast
FUNC 96910 332 0 dtNavMeshQuery::finalizeSlicedFindPath
FUNC 96c50 3ad 0 dtNavMeshQuery::finalizeSlicedFindPathPartial
FUNC 97000 648 0 dtNavMeshQuery::findPolysAroundCircle
FUNC 97650 758 0 dtNavMeshQuery::findPolysAroundShape
FUNC 97db0 8f 0 dtNavMeshQuery::getPathFromDijkstraSearch
FUNC 97e40 640 0 dtNavMeshQuery::findLocalNeighbourhood
FUNC 98480 655 0 dtNavMeshQuery::getPolyWallSegments
FUNC 98ae0 88b 0 dtNavMeshQuery::findDistanceToWall
FUNC 99370 56 0 dtNavMeshQuery::isValidPolyRef
FUNC 993d0 6b 0 dtNavMeshQuery::isInClosedList
FUNC 99440 c 0 __tcf_0
FUNC 99450 9f 0 dtNodePool::dtNodePool
FUNC 994f0 27 0 dtNodePool::~dtNodePool
FUNC 99520 2a 0 dtNodePool::clear
FUNC 99550 a9 0 dtNodePool::findNodes
FUNC 99600 96 0 dtNodePool::findNode
FUNC 996a0 111 0 dtNodePool::getNode
FUNC 997c0 33 0 dtNodeQueue::dtNodeQueue
FUNC 99800 8 0 dtNodeQueue::~dtNodeQueue
FUNC 99810 7b 0 dtNodeQueue::bubbleUp
FUNC 99890 6b 0 dtNodeQueue::trickleDown
FUNC 99900 c 0 __tcf_0
FUNC 99910 190 0 dtMergeCorridorStartMoved
FUNC 99aa0 fc 0 dtMergeCorridorEndMoved
FUNC 99ba0 135 0 dtMergeCorridorStartShortcut
FUNC 99ce0 11 0 dtPathCorridor::dtPathCorridor
FUNC 99d00 9 0 dtPathCorridor::~dtPathCorridor
FUNC 99d10 3e 0 dtPathCorridor::init
FUNC 99d50 4d 0 dtPathCorridor::reset
FUNC 99da0 165 0 dtPathCorridor::findCorners
FUNC 99f10 16c 0 dtPathCorridor::optimizePathVisibility
FUNC 9a080 e1 0 dtPathCorridor::optimizePathTopology
FUNC 9a170 11a 0 dtPathCorridor::moveOverOffmeshConnection
FUNC 9a290 d3 0 dtPathCorridor::movePosition
FUNC 9a370 b6 0 dtPathCorridor::moveTargetPosition
FUNC 9a430 49 0 dtPathCorridor::setCorridor
FUNC 9a480 6c 0 dtPathCorridor::fixPathStart
FUNC 9a4f0 fc 0 dtPathCorridor::trimInvalidPath
FUNC 9a5f0 70 0 dtPathCorridor::isValid
FUNC 9a660 c 0 __tcf_0
FUNC 9a670 d1 0 dtTileCache::dtTileCache
FUNC 9a750 28 0 dtAllocTileCache
FUNC 9a780 8d 0 dtTileCache::~dtTileCache
FUNC 9a810 26 0 dtFreeTileCache
FUNC 9a840 63 0 dtTileCache::getTileByRef
FUNC 9a8b0 2d4 0 dtTileCache::init
FUNC 9ab90 9d 0 dtTileCache::getTilesAt
FUNC 9ac30 48 0 dtTileCache::getTileAt
FUNC 9ac80 22 0 dtTileCache::getTileRef
FUNC 9acb0 22 0 dtTileCache::getObstacleRef
FUNC 9ace0 33 0 dtTileCache::getObstacleByRef
FUNC 9ad20 f7 0 dtTileCache::addTile
FUNC 9ae20 199 0 dtTileCache::removeTile
FUNC 9afc0 ff 0 dtTileCache::addObstacle
FUNC 9b0c0 111 0 dtTileCache::addBoxObstacle
FUNC 9b1e0 44 0 dtTileCache::removeObstacle
FUNC 9b230 571 0 dtTileCache::buildNavMeshTile
FUNC 9b7b0 71 0 dtTileCache::buildNavMeshTilesAt
FUNC 9b830 8c 0 dtTileCache::calcTightTileBounds
FUNC 9b8c0 322 0 dtTileCache::queryTiles
FUNC 9bbf0 a8 0 dtTileCache::getObstacleBounds
FUNC 9bca0 3e0 0 dtTileCache::update
FUNC 9c080 a5 0 getNeighbourReg
FUNC 9c130 92 0 between
FUNC 9c1d0 29c 0 getPolyMergeValue
FUNC 9c470 132 0 mergePolys
FUNC 9c5b0 c 0 __tcf_0
FUNC 9c5c0 48c 0 diagonal
FUNC 9ca50 34b 0 triangulate
FUNC 9cda0 49 0 dtAllocTileCacheContourSet
FUNC 9cdf0 cd 0 dtFreeTileCacheContourSet
FUNC 9cec0 69 0 dtAllocTileCachePolyMesh
FUNC 9cf30 12d 0 dtFreeTileCachePolyMesh
FUNC 9d060 8c8 0 dtBuildTileCacheRegions
FUNC 9d930 cd8 0 dtBuildTileCacheContours
FUNC 9e610 1c5f 0 dtBuildTileCachePolyMesh
FUNC a0270 3e1 0 dtMarkCylinderArea
FUNC a0660 304 0 dtMarkBoxArea
FUNC a0970 18c 0 dtBuildTileCacheLayer
FUNC a0b00 23 0 dtFreeTileCacheLayer
FUNC a0b30 1a2 0 dtDecompressTileCacheLayer
FUNC a0ce0 1b2 0 dtTileCacheHeaderSwapEndian
FUNC a0ea0 79 0 projectPoly
FUNC a0f20 4d1 0 dtClosestPtPointTriangle
FUNC a1400 197 0 dtIntersectSegmentPoly2D
FUNC a15a0 d1 0 dtDistancePtSegSqr2D
FUNC a1680 ab 0 dtCalcPolyCenter
FUNC a1730 166 0 dtClosestHeightPointTriangle
FUNC a18a0 a5 0 dtPointInPolygon
FUNC a1950 ef 0 dtDistancePtPolyEdgesSqr
FUNC a1a40 22a 0 dtOverlapPolyPoly2D
FUNC a1c70 19d 0 dtRandomPointInConvexPoly
FUNC a1e10 f3 0 dtIntersectSegSeg2D
FUNC a1f10 16 0 compareItemX
FUNC a1f30 17 0 compareItemY
FUNC a1f50 17 0 compareItemZ
FUNC a1f70 c 0 __tcf_0
FUNC a1f80 289 0 subdivide
FUNC a2210 1054 0 dtCreateNavMeshData
FUNC a3270 322 0 dtNavMeshHeaderSwapEndian
FUNC a35a0 2e3 0 dtNavMeshDataSwapEndian
FUNC e20d0 5c 0 google_breakpad::ExceptionHandler::MinidumpWriteDumpCallback
FUNC e2130 27d 0 google_breakpad::ExceptionHandler::WriteMinidumpWithExceptionForProcess
FUNC e23b0 295 0 google_breakpad::ExceptionHandler::~ExceptionHandler
FUNC e2650 9 0 google_breakpad::ExceptionHandler::RequestUpload
FUNC e2660 c6 0 google_breakpad::ExceptionHandler::WriteMinidumpOnHandlerThread
FUNC e2730 a9 0 google_breakpad::ExceptionHandler::WriteMinidumpWithException
FUNC e27e0 7b 0 google_breakpad::ExceptionHandler::ExceptionHandlerThreadMain
FUNC e2860 176 0 google_breakpad::ExceptionHandler::HandleException
FUNC e29e0 1ba 0 google_breakpad::ExceptionHandler::HandlePureVirtualCall
FUNC e2ba0 23 0 google_breakpad::ExceptionHandler::WriteMinidumpWithExceptionForProcess
FUNC e2bd0 152 0 google_breakpad::ExceptionHandler::UpdateNextID
FUNC e2d30 4b 0 google_breakpad::ExceptionHandler::WriteMinidumpForException
FUNC e2d80 67 0 google_breakpad::ExceptionHandler::WriteMinidump
FUNC e2df0 75 0 google_breakpad::ExceptionHandler::RegisterAppMemory
FUNC e2e70 56 0 google_breakpad::ExceptionHandler::UnregisterAppMemory
FUNC e2ed0 4bd 0 google_breakpad::ExceptionHandler::Initialize
FUNC e3390 13c 0 google_breakpad::ExceptionHandler::ExceptionHandler
FUNC e34d0 13c 0 google_breakpad::ExceptionHandler::ExceptionHandler
FUNC e3610 135 0 google_breakpad::ExceptionHandler::ExceptionHandler
FUNC e3750 131 0 google_breakpad::ExceptionHandler::ExceptionHandler
FUNC e3890 5e 0 google_breakpad::ExceptionHandler::WriteMinidump
FUNC e38f0 1dc 0 google_breakpad::ExceptionHandler::WriteMinidumpForChild
FUNC e3ad0 97 0 google_breakpad::CrashGenerationClient::ConnectToPipe
FUNC e3b70 14d 0 google_breakpad::CrashGenerationClient::CrashGenerationClient
FUNC e3cc0 9c 0 google_breakpad::CrashGenerationClient::CrashGenerationClient
FUNC e3d60 56 0 google_breakpad::CrashGenerationClient::~CrashGenerationClient
FUNC e3dc0 6d 0 google_breakpad::CrashGenerationClient::ConnectToServer
FUNC e3e30 c7 0 google_breakpad::CrashGenerationClient::RequestUpload
FUNC e3f00 270 0 google_breakpad::CrashGenerationClient::RegisterClient
FUNC e4170 4f 0 google_breakpad::CrashGenerationClient::Register
FUNC e41c0 2b 0 google_breakpad::CrashGenerationClient::ConnectToPipe
FUNC e41f0 2e 0 google_breakpad::CrashGenerationClient::ValidateResponse
FUNC e4220 9 0 google_breakpad::CrashGenerationClient::IsRegistered
FUNC e4230 64 0 google_breakpad::CrashGenerationClient::SignalCrashEventAndWait
FUNC e42a0 9d 0 google_breakpad::CrashGenerationClient::RequestDump
FUNC e4340 13 0 google_breakpad::CrashGenerationClient::RequestDump
FUNC e4360 13 0 google_breakpad::CrashGenerationClient::RequestDump
FUNC e4380 14 0 google_breakpad::CrashGenerationClient::RequestDump
FUNC e43a0 ec 0 google_breakpad::CrashGenerationClient::DuplicatePipeToClientProcess
FUNC e4490 b1 0 google_breakpad::GUIDString::GUIDToSymbolServerWString
FUNC e4550 b1 0 google_breakpad::GUIDString::GUIDToWString
FUNC e4610 95 0 ReadAll
FUNC e46b0 5e 0 SkipHandles
FUNC e4710 80 0 SkipFile
FUNC e4790 95 0 WriteAll
FUNC e4830 38c 0 ReceiveDatagram
FUNC e4bc0 b0 0 ASCIIToWide
FUNC e4c70 66 0 GetSocketName
FUNC e4ce0 8 0 NaClSetBrokerDuplicateHandleFunc
FUNC e4cf0 5f 0 NaClDuplicateNaClHandle
FUNC e4d50 1a 0 NaClWouldBlock
FUNC e4d70 5b 0 NaClGetLastErrorString
FUNC e4dd0 c0 0 NaClBoundSocket
FUNC e4e90 1e1 0 NaClSocketPair
FUNC e5080 25 0 NaClClose
FUNC e50b0 33b 0 NaClSendDatagram
FUNC e53f0 242 0 NaClSendDatagramTo
FUNC e5640 1a9 0 NaClReceiveDatagram
FUNC e57f0 1 0 NaClSetCreateMemoryObjectFunc
FUNC e5800 67 0 NaClCreateMemoryObject
FUNC e5870 d3 0 NaClMap
FUNC e5950 11 0 NaClUnmap
FUNC e5970 58 0 NaClMessageSizeIsValid
FUNC e5aa0 2a 0 gai_strerrorA
FUNC e5ad0 41 0 gai_strerrorW
FUNC e5b20 4e 0 unz64local_getByte
FUNC e5b70 6f 0 unz64local_getShort
FUNC e5be0 bd 0 unz64local_getLong
FUNC e5ca0 151 0 unz64local_getLong64
FUNC e5e00 7a6 0 unz64local_GetCurrentFileInfoInternal
FUNC e65b0 7b 0 unzStringFileNameCompare
FUNC e6630 1d 0 unzGetGlobalInfo64
FUNC e6650 1a 0 unzGetGlobalInfo
FUNC e6670 49 0 unzGetCurrentFileInfo64
FUNC e66c0 fd 0 unzGetCurrentFileInfo
FUNC e67c0 87 0 unzGoToFirstFile
FUNC e6850 7ee 0 unzOpenInternal
FUNC e7040 54 0 unzOpen2
FUNC e70a0 95 0 unzOpen2_64
FUNC e7140 a 0 unzOpen
FUNC e7150 d 0 unzOpen64
FUNC e7160 ce 0 unzGoToNextFile
FUNC e7230 2ee 0 unzLocateFile
FUNC e7520 46 0 unzGetFilePos64
FUNC e7570 31 0 unzGetFilePos
FUNC e75b0 87 0 unzGoToFilePos64
FUNC e7640 37 0 unzGoToFilePos
FUNC e7680 1f 0 unzGetCurrentFileZStreamPos64
FUNC e76a0 312 0 unzReadCurrentFile
FUNC e79c0 1b 0 unztell
FUNC e79e0 20 0 unztell64
FUNC e7a00 26 0 unzeof
FUNC e7a30 9a 0 unzGetLocalExtrafield
FUNC e7ad0 a7 0 unzCloseCurrentFile
FUNC e7b80 3e 0 unzClose
FUNC e7bc0 61c 0 unzOpenCurrentFile3
FUNC e81e0 1f 0 unzOpenCurrentFile
FUNC e8200 1b 0 unzOpenCurrentFilePassword
FUNC e8220 17 0 unzOpenCurrentFile2
FUNC e8240 9e 0 unzGetGlobalComment
FUNC e82e0 38 0 unzGetOffset64
FUNC e8320 33 0 unzGetOffset
FUNC e8360 7a 0 unzSetOffset64
FUNC e83e0 7 0 unzSetOffset
FUNC e83f0 8 0 ferror_file_func
FUNC e8400 8 0 fclose_file_func
FUNC e8410 2c 0 fseek_file_func
FUNC e8440 8 0 ftell_file_func
FUNC e8450 1c 0 fwrite_file_func
FUNC e8470 1c 0 fread_file_func
FUNC e8490 3e 0 fopen_file_func
FUNC e84d0 3e 0 fopen64_file_func
FUNC e8510 2c 0 fseek64_file_func
FUNC e8540 13 0 ftell64_file_func
FUNC e8560 16 0 call_zopen64
FUNC e8580 2a 0 call_zseek64
FUNC e85b0 38 0 call_ztell64
FUNC e85f0 5f 0 fill_zlib_filefunc64_32_def_from_filefunc32
FUNC e8650 55 0 fill_fopen_filefunc
FUNC e86b0 55 0 fill_fopen64_filefunc
FUNC e8730 344 0 waddch
FUNC e8a80 12 0 addch
FUNC e8aa0 36 0 mvaddch
FUNC e8ae0 37 0 mvwaddch
FUNC e8b20 26 0 wechochar
FUNC e8b50 f 0 echochar
FUNC e8b60 2c 0 waddrawch
FUNC e8b90 3c 0 addrawch
FUNC e8bd0 5a 0 mvaddrawch
FUNC e8c30 57 0 mvwaddrawch
FUNC e8c90 16 0 wadd_wch
FUNC e8cb0 26 0 add_wch
FUNC e8ce0 3b 0 mvadd_wch
FUNC e8d20 3c 0 mvwadd_wch
FUNC e8d60 3b 0 wecho_wchar
FUNC e8da0 f 0 echo_wchar
FUNC e8db0 7d 0 waddnstr
FUNC e8e30 48 0 waddnwstr
FUNC e8e80 13 0 waddnstr
FUNC e8ea0 28 0 addstr
FUNC e8ed0 28 0 addnstr
FUNC e8f00 1b 0 waddstr
FUNC e8f20 4b 0 mvaddstr
FUNC e8f70 4c 0 mvaddnstr
FUNC e8fc0 4c 0 mvwaddstr
FUNC e9010 4d 0 mvwaddnstr
FUNC e9060 13 0 waddnwstr
FUNC e9080 28 0 addwstr
FUNC e90b0 28 0 addnwstr
FUNC e90e0 1b 0 waddwstr
FUNC e9100 4b 0 mvaddwstr
FUNC e9150 4c 0 mvaddnwstr
FUNC e91a0 4c 0 mvwaddwstr
FUNC e91f0 4d 0 mvwaddnwstr
FUNC e9240 1c 0 wattroff
FUNC e9260 2c 0 attroff
FUNC e9290 50 0 wattron
FUNC e92e0 60 0 attron
FUNC e9340 19 0 wattrset
FUNC e9360 23 0 attrset
FUNC e9390 20 0 standend
FUNC e93b0 20 0 standout
FUNC e93d0 16 0 wstandend
FUNC e93f0 16 0 wstandout
FUNC e9410 c 0 getattrs
FUNC e9420 2b 0 wcolor_set
FUNC e9450 35 0 color_set
FUNC e9490 35 0 wattr_get
FUNC e94d0 3e 0 attr_get
FUNC e9510 1c 0 wattr_off
FUNC e9530 2c 0 attr_off
FUNC e9560 50 0 wattr_on
FUNC e95b0 60 0 attr_on
FUNC e9610 2a 0 wattr_set
FUNC e9640 34 0 attr_set
FUNC e9680 c2 0 wchgat
FUNC e9750 26 0 chgat
FUNC e9780 59 0 mvchgat
FUNC e97e0 5b 0 mvwchgat
FUNC e9840 77 0 wclrtoeol
FUNC e98c0 f 0 clrtoeol
FUNC e98d0 53 0 wclrtobot
FUNC e9930 c 0 clrtobot
FUNC e9940 2a 0 werase
FUNC e9970 c 0 erase
FUNC e9980 16 0 wclear
FUNC e99a0 1b 0 clear
FUNC e99c0 50 0 _normalize
FUNC e9a10 fd 0 init_pair
FUNC e9b10 12 0 has_colors
FUNC e9b30 6e 0 init_color
FUNC e9ba0 b7 0 color_content
FUNC e9c60 5 0 can_change_color
FUNC e9c70 26 0 pair_content
FUNC e9ca0 ba 0 assume_default_colors
FUNC e9d60 1f 0 use_default_colors
FUNC e9d80 28 0 PDC_set_line_color
FUNC e9db0 78 0 PDC_init_atrtab
FUNC e9e30 7a 0 start_color
FUNC e9eb0 40e 0 wgetch
FUNC ea2c0 26 0 mvgetch
FUNC ea2f0 26 0 mvwgetch
FUNC ea320 2a 0 PDC_ungetch
FUNC ea350 2e 0 flushinp
FUNC ea380 a 0 PDC_get_key_modifiers
FUNC ea390 10 0 PDC_save_key_modifiers
FUNC ea3a0 12 0 PDC_return_key_modifiers
FUNC ea3c0 47 0 wget_wch
FUNC ea410 f 0 get_wch
FUNC ea420 36 0 mvget_wch
FUNC ea460 37 0 mvwget_wch
FUNC ea4a0 36 0 unget_wch
FUNC ea4e0 f 0 getbegy
FUNC ea4f0 f 0 getbegx
FUNC ea500 e 0 getcury
FUNC ea510 f 0 getcurx
FUNC ea520 f 0 getpary
FUNC ea530 f 0 getparx
FUNC ea540 f 0 getmaxy
FUNC ea550 f 0 getmaxx
FUNC ea560 31 0 setsyx
FUNC ea5a0 39d 0 Xinitscr
FUNC ea940 9 0 initscr
FUNC ea950 1f 0 endwin
FUNC ea970 15 0 isendwin
FUNC ea990 22 0 newterm
FUNC ea9c0 14 0 set_term
FUNC ea9e0 7b 0 delscreen
FUNC eaa60 15b 0 resize_term
FUNC eabc0 c 0 is_termresized
FUNC eabd0 8 0 curses_version
FUNC eabe0 11 0 cbreak
FUNC eac00 1b 0 nocbreak
FUNC eac20 11 0 echo
FUNC eac40 11 0 noecho
FUNC eac60 26 0 halfdelay
FUNC eac90 3 0 intrflush
FUNC eaca0 11 0 keypad
FUNC eacc0 10 0 meta
FUNC eacd0 11 0 nl
FUNC eacf0 11 0 nonl
FUNC ead10 11 0 nodelay
FUNC ead40 23 0 raw
FUNC ead70 20 0 noraw
FUNC ead90 1 0 noqiflush
FUNC eadb0 3 0 typeahead
FUNC eadc0 2c 0 wtimeout
FUNC eadf0 3c 0 timeout
FUNC eae60 8c 0 _save_mode
FUNC eaef0 12f 0 _restore_mode
FUNC eb020 15 0 def_prog_mode
FUNC eb040 12 0 def_shell_mode
FUNC eb060 1a 0 reset_prog_mode
FUNC eb080 17 0 reset_shell_mode
FUNC eb0a0 a 0 resetty
FUNC eb0b0 15 0 savetty
FUNC eb0d0 47 0 curs_set
FUNC eb120 14 0 napms
FUNC eb140 46 0 ripoffline
FUNC eb1e0 36 0 move
FUNC eb220 36 0 wmove
FUNC eb260 11 0 clearok
FUNC eb280 3 0 idlok
FUNC eb290 1 0 idcok
FUNC eb2a0 9 0 immedok
FUNC eb2b0 27 0 leaveok
FUNC eb2e0 36 0 setscrreg
FUNC eb320 2a 0 wsetscrreg
FUNC eb350 11 0 scrollok
FUNC eb370 10 0 raw_output
FUNC eb380 9d 0 newpad
FUNC eb420 18d 0 subpad
FUNC eb5b0 29a 0 pnoutrefresh
FUNC eb850 35 0 prefresh
FUNC eb890 67 0 pechochar
FUNC eb900 77 0 pecho_wchar
FUNC eb980 226 0 wnoutrefresh
FUNC ebbb0 2d1 0 doupdate
FUNC ebe90 80 0 wrefresh
FUNC ebf10 f 0 refresh
FUNC ebf20 5d 0 wredrawln
FUNC ebf80 4b 0 redrawwin
FUNC ebfd0 13c 0 wscrl
FUNC ec110 11 0 scrl
FUNC ec130 a 0 scroll
FUNC ec140 f8 0 _drawone
FUNC ec240 10e 0 _redraw
FUNC ec350 2a 0 slk_refresh
FUNC ec380 13 0 slk_noutrefresh
FUNC ec3a0 95 0 slk_label
FUNC ec440 30 0 slk_clear
FUNC ec470 27 0 slk_restore
FUNC ec4a0 13 0 slk_touch
FUNC ec4c0 2a 0 slk_attron
FUNC ec4f0 2a 0 slk_attr_on
FUNC ec520 2a 0 slk_attroff
FUNC ec550 2a 0 slk_attr_off
FUNC ec580 2a 0 slk_attrset
FUNC ec5b0 2d 0 slk_color
FUNC ec5e0 32 0 slk_attr_set
FUNC ec620 2e3 0 PDC_slk_initialize
FUNC ec910 15e 0 slk_init
FUNC eca70 83 0 PDC_slk_free
FUNC ecb00 82 0 PDC_mouse_in_slk
FUNC ecb90 1a5 0 slk_wset
FUNC ecd40 34 0 slk_set
FUNC ecd80 81 0 slk_wlabel
FUNC ece10 41 0 touchwin
FUNC ece60 5d 0 touchline
FUNC ecec0 3f 0 untouchwin
FUNC ecf00 80 0 wtouchln
FUNC ecf80 23 0 is_linetouched
FUNC ecfb0 46 0 is_wintouched
FUNC ed000 54 0 unctrl
FUNC ed060 1 0 filter
FUNC ed070 1 0 use_env
FUNC ed080 5 0 delay_output
FUNC ed090 56 0 getcchar
FUNC ed0f0 28 0 setcchar
FUNC ed120 5a 0 wunctrl
FUNC ed180 b6 0 PDC_mbtowc
FUNC ed240 b5 0 PDC_mbstowcs
FUNC ed300 a2 0 PDC_wcstombs
FUNC ed3b0 fc 0 PDC_makenew
FUNC ed4b0 d4 0 PDC_makelines
FUNC ed590 37 0 PDC_sync
FUNC ed5d0 7b 0 newwin
FUNC ed650 83 0 delwin
FUNC ed6e0 57 0 mvwin
FUNC ed740 14b 0 subwin
FUNC ed890 10 0 derwin
FUNC ed8a0 9a 0 mvderwin
FUNC ed940 159 0 dupwin
FUNC edaa0 2bd 0 resize_window
FUNC edd60 19 0 wresize
FUNC edd80 27 0 wsyncup
FUNC eddb0 11 0 syncok
FUNC eddd0 3a 0 wcursyncup
FUNC ede10 47 0 wsyncdown
FUNC ede60 6b 0 PDC_current_cursor_state
FUNC eded0 1e8 0 redraw_cursor
FUNC ee0c0 134 0 PDC_get_logical_font
FUNC ee200 24 0 PDC_get_font_handle
FUNC ee230 f2 0 PDC_choose_a_new_font
FUNC ee330 b08 0 PDC_transform_line_given_hdc
FUNC eee40 86 0 PDC_transform_line
FUNC eeed0 c9 0 PDC_gotoyx
FUNC eefa0 e 0 PDC_get_cursor_mode
FUNC eefb0 a 0 PDC_get_rows
FUNC eefc0 a 0 PDC_get_columns
FUNC eefd0 3 0 PDC_get_input_fd
FUNC eefe0 1 0 PDC_set_keyboard_binary
FUNC eeff0 fa 0 PDC_add_clipboard_to_key_queue
FUNC ef0f0 37 0 PDC_check_key
FUNC ef130 dc 0 PDC_get_key
FUNC ef210 4e 0 PDC_flushinp
FUNC ef270 3 0 PDC_modifiers_set
FUNC ef280 90 0 rectangle_from_chars_to_pixels
FUNC ef310 f7 0 fix_up_edges
FUNC ef410 48 0 set_menu
FUNC ef460 4d 0 adjust_window_size
FUNC ef4b0 7f 0 get_character_sizes
FUNC ef530 96 0 debug_printf
FUNC ef5d0 b8 0 final_cleanup
FUNC ef690 614 0 set_up_window
FUNC efcb0 18 0 PDC_scr_close
FUNC efcd0 5e 0 PDC_scr_free
FUNC efd30 f4 0 PDC_find_ends_of_selected_text
FUNC efe30 3a 0 PDC_set_resize_limits
FUNC efe70 88 0 PDC_set_function_key
FUNC eff00 289 0 PDC_scr_open
FUNC f0190 10b 0 PDC_resize_screen
FUNC f02a0 177 0 adjust_font_size
FUNC f0420 b0 0 add_key_to_queue
FUNC f04d0 2a7 0 set_mouse
FUNC f0780 1d82 0 WndProc
FUNC f2510 1 0 PDC_reset_prog_mode
FUNC f2530 1 0 PDC_restore_screen_mode
FUNC f2550 164 0 PDC_init_pair
FUNC f26c0 23 0 PDC_pair_content
FUNC f26f0 6 0 PDC_can_change_color
FUNC f2700 64 0 PDC_color_content
FUNC f2770 25d 0 PDC_init_color
FUNC f29d0 2c 0 PDC_curs_set
FUNC f2a00 3b 0 PDC_set_title
FUNC f2a40 c 0 PDC_set_blink
FUNC f2a50 c 0 PDC_beep
FUNC f2a60 a3 0 PDC_napms
FUNC f2b10 8 0 PDC_sysname
FUNC f2b20 616 0 wborder
FUNC f3140 5a 0 border
FUNC f31a0 3d 0 box
FUNC f31e0 144 0 whline
FUNC f3330 15 0 hline
FUNC f3350 38 0 mvhline
FUNC f3390 38 0 mvwhline
FUNC f33d0 145 0 wvline
FUNC f3520 15 0 vline
FUNC f3540 38 0 mvvline
FUNC f3580 38 0 mvwvline
FUNC f35c0 9a 0 wborder_set
FUNC f3660 5a 0 border_set
FUNC f36c0 3d 0 box_set
FUNC f3700 16 0 whline_set
FUNC f3720 26 0 hline_set
FUNC f3750 4c 0 mvhline_set
FUNC f37a0 42 0 mvwhline_set
FUNC f37f0 16 0 wvline_set
FUNC f3810 26 0 vline_set
FUNC f3840 4c 0 mvvline_set
FUNC f3890 42 0 mvwvline_set
FUNC f38e0 ea 0 PDC_debug
FUNC f39d0 8 0 traceon
FUNC f39e0 8 0 traceoff
FUNC f39f0 1b1 0 _copy_win
FUNC f3bb0 e7 0 overlay
FUNC f3ca0 e7 0 overwrite
FUNC f3d90 9a 0 copywin
FUNC f3e30 4a 0 vwprintw
FUNC f3e80 34 0 printw
FUNC f3ec0 22 0 wprintw
FUNC f3ef0 39 0 mvprintw
FUNC f3f30 32 0 mvwprintw
FUNC f3f70 5 0 vw_printw
FUNC f3f80 43 0 PDC_getclipboard_handle
FUNC f3fd0 87 0 PDC_getclipboard
FUNC f4060 d3 0 PDC_setclipboard_raw
FUNC f4140 b 0 PDC_setclipboard
FUNC f4150 11 0 PDC_freeclipboard
FUNC f4170 11 0 PDC_clearclipboard
FUNC f4190 b6 0 mingw_onexit
FUNC f4250 19 0 atexit
FUNC f4270 35 0 __do_global_dtors
FUNC f42b0 66 0 __do_global_ctors
FUNC f4320 1f 0 __main
FUNC f4340 7 0 my_lconv_init
FUNC f4350 3 0 _setargv
FUNC f4360 d6 0 __security_init_cookie
FUNC f4440 f8 0 __report_gsfailure
FUNC f4540 2f 0 __dyn_tls_dtor
FUNC f4570 73 0 __dyn_tls_init
FUNC f45f0 3 0 __tlregdtor
FUNC f4600 41 0 __mingw_raise_matherr
FUNC f4650 c 0 __mingw_setusermatherr
FUNC f4660 ec 0 _matherr
FUNC f4750 3 0 _fpreset
FUNC f4770 4 0 _encode_pointer
FUNC f4780 1f9 0 __write_memory
FUNC f4980 2bb 0 _pei386_runtime_relocator
FUNC f4c40 1a0 0 __mingw_SEH_error_handler
FUNC f4de0 ec 0 __mingw_init_ehandler
FUNC f4ed0 1e7 0 _gnu_exception_handler
FUNC f50c0 6a 0 __mingwthr_run_key_dtors
FUNC f5130 7f 0 ___w64_mingwthr_add_key_dtor
FUNC f51b0 a0 0 ___w64_mingwthr_remove_key_dtor
FUNC f5250 da 0 __mingw_TLScallback
FUNC f5330 1e 0 _ValidateImageBase
FUNC f5350 12 0 _ValidateImageBase
FUNC f5370 44 0 _FindPESection
FUNC f53c0 8d 0 _FindPESectionByName
FUNC f5450 74 0 __mingw_GetSectionForAddress
FUNC f54d0 3e 0 __mingw_GetSectionCount
FUNC f5510 6f 0 _FindPESectionExec
FUNC f5580 37 0 _GetPEImageBase
FUNC f55c0 91 0 _IsNonwritableInCurrentImage
FUNC f5660 a6 0 __mingw_enum_import_library_names
FUNC f63a0 e0 0 __strtod
FUNC f6480 a4 0 __strtof
FUNC f6530 16 0 expf
FUNC f6550 133 0 _wassert
FUNC f6690 d5 0 _assert
FUNC f6770 ab 0 fstat
FUNC f6820 224 0 stat
FUNC f6a50 8 0 fseeko
FUNC f6a60 8b 0 _flush
FUNC f6af0 9c 0 fseeko64
FUNC f6b90 244 0 _ftelli64
FUNC f6de0 a4 0 _fseeki64
FUNC f6e90 a2 0 mingw_dosmaperr
FUNC f6f40 e 0 ftello
FUNC f6f50 29 0 ftello64
FUNC f6f80 41 0 __mingw_vfprintf
FUNC f6fd0 5c 0 __mingw_vsnprintf
FUNC f7030 5 0 __ms_vsnprintf
FUNC f7040 2b 0 acosf
FUNC f7070 29 0 asinf
FUNC f70a0 29 0 atan2f
FUNC f70d0 111 0 cos
FUNC f71f0 16 0 cosf
FUNC f7240 1c3 0 exp
FUNC f7410 111 0 sin
FUNC f7530 16 0 sinf
FUNC f7590 16 0 tanf
FUNC f75b0 ac 0 __increment_D2A
FUNC f7660 384 0 rvOK
FUNC f79f0 2c 0 __decrement_D2A
FUNC f7a20 8b 0 __set_ones_D2A
FUNC f7ab0 1b66 0 __strtodg
FUNC f9620 148 0 __sum_D2A
FUNC f9770 e7 0 __pformat_cvt
FUNC f9860 54 0 __pformat_putc
FUNC f98c0 10b 0 __pformat_wputchars
FUNC f99d0 c9 0 __pformat_putchars
FUNC f9aa0 47 0 __pformat_puts
FUNC f9af0 9a 0 __pformat_emit_inf_or_nan
FUNC f9b90 f8 0 __pformat_emit_radix_point
FUNC f9c90 39e 0 __pformat_emit_float
FUNC fa030 cf 0 __pformat_float
FUNC fa100 2de 0 __pformat_int
FUNC fa3e0 12e 0 __pformat_emit_efloat
FUNC fa510 af 0 __pformat_efloat
FUNC fa5c0 1a5 0 __pformat_gfloat
FUNC fa770 34e 0 __pformat_xint
FUNC faac0 4c4 0 __pformat_xldouble
FUNC faf90 8ff 0 __mingw_pformat
FUNC fb890 30 0 __rv_alloc_D2A
FUNC fb8c0 84 0 __nrv_alloc_D2A
FUNC fb950 1c 0 __freedtoa
FUNC fb970 19c 0 __quorem_D2A
FUNC fbb10 15b9 0 __gdtoa
FUNC fd0d0 90f 0 __gethex_D2A
FUNC fd9e0 f3 0 __rshift_D2A
FUNC fdae0 43 0 __trailz_D2A
FUNC fdb30 96 0 __mingw_hexdig_init_D2A
FUNC fdbd0 399 0 __hexnan_D2A
FUNC fdf70 c2 0 dtoa_lock
FUNC fe040 42 0 dtoa_lock_cleanup
FUNC fe090 f5 0 __Balloc_D2A
FUNC fe190 63 0 __Bfree_D2A
FUNC fe200 a9 0 __multadd_D2A
FUNC fe2b0 26 0 __i2b_D2A
FUNC fe2e0 121 0 __mult_D2A
FUNC fe410 179 0 __pow5mult_D2A
FUNC fe590 fe 0 __lshift_D2A
FUNC fe690 3e 0 __cmp_D2A
FUNC fe6d0 16d 0 __diff_D2A
FUNC fe840 105 0 __b2d_D2A
FUNC fe950 118 0 __d2b_D2A
FUNC fea70 23 0 __strcp_D2A
FUNC feaa0 f7 0 __s2b_D2A
FUNC feba0 a4 0 __ratio_D2A
FUNC fec50 43 0 __match_D2A
FUNC feca0 53 0 __copybits_D2A
FUNC fed00 93 0 __any_on_D2A
FUNC feda0 17f 0 __mbrtowc_cp
FUNC fef20 6b 0 mbrtowc
FUNC fef90 fd 0 mbsrtowcs
FUNC ff090 5d 0 mbrlen
FUNC ff0f0 28 0 strnlen
FUNC ff120 7f 0 __wcrtomb_cp
FUNC ff1a0 44 0 wcrtomb
FUNC ff1f0 ea 0 wcsrtombs
FUNC ff2e0 21 0 wcsnlen
FUNC ff6a0 8 0 mingw_get_invalid_parameter_handler
FUNC ff6b0 b 0 mingw_set_invalid_parameter_handler
FUNC ff6c0 7 0 fake_get_output_format
FUNC ff6d0 9 0 fake_set_output_format
FUNC ff6e0 43 0 init_set_output_format
FUNC ff730 3d 0 init_get_output_format
FUNC ff770 7 0 _set_output_format
FUNC ff780 7 0 _get_output_format
FUNC ff790 b 0 _set_purecall_handler
FUNC ff7a0 5f 0 _lock_file
FUNC ff800 58 0 _unlock_file
FUNC ff8b0 5 0 dtFreeCustom
FUNC ff8c0 a 0 dtAllocCustom
FUNC ff8d0 22 0 fprintf
FUNC ff900 1d 0 snprintf
FUNC ff920 9ef 0 tinyformat::detail::formatImpl
FUNC 100310 4d1 0 tinyformat::detail::formatTruncated<VM::vmType_t>
FUNC 1007f0 b0 0 tinyformat::detail::formatTruncated<IPC::SyncMessage<IPC::Message<IPC::Id<0, 0>, int> >::<unnamed enum> >
FUNC 1008a0 b0 0 tinyformat::detail::formatTruncated<IPC::SyncMessage<IPC::Message<IPC::Id<0, 14>, int, IPC::SharedMemory, long long unsigned int, int> >::<unnamed enum> >
FUNC 100950 b0 0 tinyformat::detail::formatTruncated<IPC::SyncMessage<IPC::Message<IPC::Id<0, 1>, int, int, bool, bool> >::<unnamed enum> >
FUNC 100a00 b0 0 tinyformat::detail::formatTruncated<IPC::SyncMessage<IPC::Message<IPC::Id<0, 2>, bool> >::<unnamed enum> >
FUNC 100ab0 b0 0 tinyformat::detail::formatTruncated<IPC::SyncMessage<IPC::Message<IPC::Id<0, 3>, int, bool, int>, IPC::Reply<bool, std::__cxx11::basic_string<char, std::char_traits<char>, std::allocator<char> > > >::<unnamed enum> >
FUNC 100b60 b0 0 tinyformat::detail::formatTruncated<IPC::SyncMessage<IPC::Message<IPC::Id<0, 4>, int> >::<unnamed enum> >
FUNC 100c10 b0 0 tinyformat::detail::formatTruncated<IPC::SyncMessage<IPC::Message<IPC::Id<0, 5>, int> >::<unnamed enum> >
FUNC 100cc0 b0 0 tinyformat::detail::formatTruncated<IPC::SyncMessage<IPC::Message<IPC::Id<0, 6>, int> >::<unnamed enum> >
FUNC 100d70 b0 0 tinyformat::detail::formatTruncated<IPC::SyncMessage<IPC::Message<IPC::Id<0, 7>, int, std::__cxx11::basic_string<char, std::char_traits<char>, std::allocator<char> > > >::<unnamed enum> >
FUNC 100e20 b0 0 tinyformat::detail::formatTruncated<IPC::SyncMessage<IPC::Message<IPC::Id<0, 8>, int> >::<unnamed enum> >
FUNC 100ed0 b0 0 tinyformat::detail::formatTruncated<IPC::SyncMessage<IPC::Message<IPC::Id<0, 9>, int> >::<unnamed enum> >
FUNC 100f80 4d1 0 tinyformat::detail::formatTruncated<IPC::SyncMessage<IPC::Message<IPC::Id<3, 0>, std::__cxx11::basic_string<char, std::char_traits<char>, std::allocator<char> > > >::<unnamed enum> >
FUNC 101460 4d1 0 tinyformat::detail::formatTruncated<IPC::SyncMessage<IPC::Message<IPC::Id<3, 1>, int, std::__cxx11::basic_string<char, std::char_traits<char>, std::allocator<char> >, std::__cxx11::basic_string<char, std::char_traits<char>, std::allocator<char> > >, IPC::Reply<std::vector<std::pair<std::__cxx11::basic_string<char, std::char_traits<char>, std::allocator<char> >, std::__cxx11::basic_string<char, std::char_traits<char>, std::allocator<char> > >, std::allocator<std::pair<std::__cxx11::basic_string<char, std::char_traits<char>, std::allocator<char> >, std::__cxx11::basic_string<char, std::char_traits<char>, std::allocator<char> > > > > > >::<unnamed enum> >
FUNC 101940 4d1 0 tinyformat::detail::formatTruncated<IPC::SyncMessage<IPC::Message<IPC::Id<4, 0>, std::__cxx11::basic_string<char, std::char_traits<char>, std::allocator<char> >, std::__cxx11::basic_string<char, std::char_traits<char>, std::allocator<char> > >, IPC::Reply<bool, std::__cxx11::basic_string<char, std::char_traits<char>, std::allocator<char> > > >::<unnamed enum> >
FUNC 101e20 501 0 tinyformat::detail::formatTruncated<Str::BasicStringRef<char> >
FUNC 102330 4d1 0 tinyformat::detail::formatTruncated<std::__cxx11::basic_string<char> >
FUNC 102810 4d1 0 tinyformat::detail::formatTruncated<float (*)[3]>
FUNC 102cf0 4d1 0 tinyformat::detail::formatTruncated<int*>
FUNC 1031d0 4d1 0 tinyformat::detail::formatTruncated<void*>
FUNC 1036b0 4d1 0 tinyformat::detail::formatTruncated<float>
FUNC 103b90 4d1 0 tinyformat::detail::formatTruncated<int>
FUNC 104070 b0 0 tinyformat::detail::formatTruncated<unsigned int>
FUNC 104120 4d1 0 tinyformat::detail::formatTruncated<long int>
FUNC 104600 4d1 0 tinyformat::detail::formatTruncated<long unsigned int>
FUNC 104ae0 4d1 0 tinyformat::detail::formatTruncated<short int>
FUNC 104fc0 4d1 0 tinyformat::detail::formatTruncated<long long int>
FUNC 1054a0 4d1 0 tinyformat::detail::formatTruncated<long long unsigned int>
FUNC 105980 8b5 0 tinyformat::detail::streamStateFromFormat
FUNC 106240 c8 0 tinyformat::detail::FormatArg::formatImpl<char [1024]>
FUNC 106310 c8 0 tinyformat::detail::FormatArg::formatImpl<char [128]>
FUNC 1063e0 c8 0 tinyformat::detail::FormatArg::formatImpl<char [14]>
FUNC 1064b0 c8 0 tinyformat::detail::FormatArg::formatImpl<char [16]>
FUNC 106580 c8 0 tinyformat::detail::FormatArg::formatImpl<char [22]>
FUNC 106650 c8 0 tinyformat::detail::FormatArg::formatImpl<char [256]>
FUNC 106720 c8 0 tinyformat::detail::FormatArg::formatImpl<char [4096]>
FUNC 1067f0 c8 0 tinyformat::detail::FormatArg::formatImpl<char [40]>
FUNC 1068c0 c8 0 tinyformat::detail::FormatArg::formatImpl<char [48]>
FUNC 106990 c8 0 tinyformat::detail::FormatArg::formatImpl<char [5]>
FUNC 106a60 c8 0 tinyformat::detail::FormatArg::formatImpl<char [64]>
FUNC 106b30 c8 0 tinyformat::detail::FormatArg::formatImpl<char [6]>
FUNC 106c00 c8 0 tinyformat::detail::FormatArg::formatImpl<char [8192]>
FUNC 106cd0 c8 0 tinyformat::detail::FormatArg::formatImpl<char [8]>
FUNC 106da0 c8 0 tinyformat::detail::FormatArg::formatImpl<char [9]>
FUNC 106e70 56 0 tinyformat::detail::FormatArg::formatImpl<VM::vmType_t>
FUNC 106ed0 56 0 tinyformat::detail::FormatArg::formatImpl<IPC::SyncMessage<IPC::Message<IPC::Id<0, 0>, int> >::<unnamed enum> >
FUNC 106f30 56 0 tinyformat::detail::FormatArg::formatImpl<IPC::SyncMessage<IPC::Message<IPC::Id<0, 14>, int, IPC::SharedMemory, long long unsigned int, int> >::<unnamed enum> >
FUNC 106f90 56 0 tinyformat::detail::FormatArg::formatImpl<IPC::SyncMessage<IPC::Message<IPC::Id<0, 1>, int, int, bool, bool> >::<unnamed enum> >
FUNC 106ff0 56 0 tinyformat::detail::FormatArg::formatImpl<IPC::SyncMessage<IPC::Message<IPC::Id<0, 2>, bool> >::<unnamed enum> >
FUNC 107050 56 0 tinyformat::detail::FormatArg::formatImpl<IPC::SyncMessage<IPC::Message<IPC::Id<0, 3>, int, bool, int>, IPC::Reply<bool, std::__cxx11::basic_string<char, std::char_traits<char>, std::allocator<char> > > >::<unnamed enum> >
FUNC 1070b0 56 0 tinyformat::detail::FormatArg::formatImpl<IPC::SyncMessage<IPC::Message<IPC::Id<0, 4>, int> >::<unnamed enum> >
FUNC 107110 56 0 tinyformat::detail::FormatArg::formatImpl<IPC::SyncMessage<IPC::Message<IPC::Id<0, 5>, int> >::<unnamed enum> >
FUNC 107170 56 0 tinyformat::detail::FormatArg::formatImpl<IPC::SyncMessage<IPC::Message<IPC::Id<0, 6>, int> >::<unnamed enum> >
FUNC 1071d0 56 0 tinyformat::detail::FormatArg::formatImpl<IPC::SyncMessage<IPC::Message<IPC::Id<0, 7>, int, std::__cxx11::basic_string<char, std::char_traits<char>, std::allocator<char> > > >::<unnamed enum> >
FUNC 107230 56 0 tinyformat::detail::FormatArg::formatImpl<IPC::SyncMessage<IPC::Message<IPC::Id<0, 8>, int> >::<unnamed enum> >
FUNC 107290 56 0 tinyformat::detail::FormatArg::formatImpl<IPC::SyncMessage<IPC::Message<IPC::Id<0, 9>, int> >::<unnamed enum> >
FUNC 1072f0 56 0 tinyformat::detail::FormatArg::formatImpl<IPC::SyncMessage<IPC::Message<IPC::Id<3, 0>, std::__cxx11::basic_string<char, std::char_traits<char>, std::allocator<char> > > >::<unnamed enum> >
FUNC 107350 56 0 tinyformat::detail::FormatArg::formatImpl<IPC::SyncMessage<IPC::Message<IPC::Id<3, 1>, int, std::__cxx11::basic_string<char, std::char_traits<char>, std::allocator<char> >, std::__cxx11::basic_string<char, std::char_traits<char>, std::allocator<char> > >, IPC::Reply<std::vector<std::pair<std::__cxx11::basic_string<char, std::char_traits<char>, std::allocator<char> >, std::__cxx11::basic_string<char, std::char_traits<char>, std::allocator<char> > >, std::allocator<std::pair<std::__cxx11::basic_string<char, std::char_traits<char>, std::allocator<char> >, std::__cxx11::basic_string<char, std::char_traits<char>, std::allocator<char> > > > > > >::<unnamed enum> >
FUNC 1073b0 56 0 tinyformat::detail::FormatArg::formatImpl<IPC::SyncMessage<IPC::Message<IPC::Id<4, 0>, std::__cxx11::basic_string<char, std::char_traits<char>, std::allocator<char> >, std::__cxx11::basic_string<char, std::char_traits<char>, std::allocator<char> > >, IPC::Reply<bool, std::__cxx11::basic_string<char, std::char_traits<char>, std::allocator<char> > > >::<unnamed enum> >
FUNC 107410 60 0 tinyformat::detail::FormatArg::formatImpl<Str::BasicStringRef<char> >
FUNC 107470 1e 0 tinyformat::detail::FormatArg::formatImpl<std::__cxx11::basic_string<char> >
FUNC 107490 28 0 tinyformat::detail::FormatArg::formatImpl<float (*)[3]>
FUNC 1074c0 14c 0 tinyformat::detail::FormatArg::formatImpl<char const*>
FUNC 107610 14c 0 tinyformat::detail::FormatArg::formatImpl<char*>
FUNC 107760 28 0 tinyformat::detail::FormatArg::formatImpl<int*>
FUNC 107790 28 0 tinyformat::detail::FormatArg::formatImpl<void*>
FUNC 1077c0 63 0 tinyformat::detail::FormatArg::formatImpl<float>
FUNC 107830 4d 0 tinyformat::detail::FormatArg::formatImpl<unsigned char>
FUNC 107880 56 0 tinyformat::detail::FormatArg::formatImpl<int>
FUNC 1078e0 56 0 tinyformat::detail::FormatArg::formatImpl<unsigned int>
FUNC 107940 56 0 tinyformat::detail::FormatArg::formatImpl<long int>
FUNC 1079a0 56 0 tinyformat::detail::FormatArg::formatImpl<long unsigned int>
FUNC 107a00 62 0 tinyformat::detail::FormatArg::formatImpl<short int>
FUNC 107a70 62 0 tinyformat::detail::FormatArg::formatImpl<long long int>
FUNC 107ae0 62 0 tinyformat::detail::FormatArg::formatImpl<long long unsigned int>
FUNC 107b50 6a 0 tinyformat::detail::FormatArg::toIntImpl<char [1024]>
FUNC 107bc0 6a 0 tinyformat::detail::FormatArg::toIntImpl<char [128]>
FUNC 107c30 6a 0 tinyformat::detail::FormatArg::toIntImpl<char [14]>
FUNC 107ca0 6a 0 tinyformat::detail::FormatArg::toIntImpl<char [16]>
FUNC 107d10 6a 0 tinyformat::detail::FormatArg::toIntImpl<char [22]>
FUNC 107d80 6a 0 tinyformat::detail::FormatArg::toIntImpl<char [256]>
FUNC 107df0 6a 0 tinyformat::detail::FormatArg::toIntImpl<char [4096]>
FUNC 107e60 6a 0 tinyformat::detail::FormatArg::toIntImpl<char [40]>
FUNC 107ed0 6a 0 tinyformat::detail::FormatArg::toIntImpl<char [48]>
FUNC 107f40 6a 0 tinyformat::detail::FormatArg::toIntImpl<char [5]>
FUNC 107fb0 6a 0 tinyformat::detail::FormatArg::toIntImpl<char [64]>
FUNC 108020 6a 0 tinyformat::detail::FormatArg::toIntImpl<char [6]>
FUNC 108090 6a 0 tinyformat::detail::FormatArg::toIntImpl<char [8192]>
FUNC 108100 6a 0 tinyformat::detail::FormatArg::toIntImpl<char [8]>
FUNC 108170 6a 0 tinyformat::detail::FormatArg::toIntImpl<char [9]>
FUNC 1081e0 3 0 tinyformat::detail::FormatArg::toIntImpl<VM::vmType_t>
FUNC 1081f0 3 0 tinyformat::detail::FormatArg::toIntImpl<IPC::SyncMessage<IPC::Message<IPC::Id<0, 0>, int> >::<unnamed enum> >
FUNC 108200 3 0 tinyformat::detail::FormatArg::toIntImpl<IPC::SyncMessage<IPC::Message<IPC::Id<0, 14>, int, IPC::SharedMemory, long long unsigned int, int> >::<unnamed enum> >
FUNC 108210 3 0 tinyformat::detail::FormatArg::toIntImpl<IPC::SyncMessage<IPC::Message<IPC::Id<0, 1>, int, int, bool, bool> >::<unnamed enum> >
FUNC 108220 3 0 tinyformat::detail::FormatArg::toIntImpl<IPC::SyncMessage<IPC::Message<IPC::Id<0, 2>, bool> >::<unnamed enum> >
FUNC 108230 3 0 tinyformat::detail::FormatArg::toIntImpl<IPC::SyncMessage<IPC::Message<IPC::Id<0, 3>, int, bool, int>, IPC::Reply<bool, std::__cxx11::basic_string<char, std::char_traits<char>, std::allocator<char> > > >::<unnamed enum> >
FUNC 108240 3 0 tinyformat::detail::FormatArg::toIntImpl<IPC::SyncMessage<IPC::Message<IPC::Id<0, 4>, int> >::<unnamed enum> >
FUNC 108250 3 0 tinyformat::detail::FormatArg::toIntImpl<IPC::SyncMessage<IPC::Message<IPC::Id<0, 5>, int> >::<unnamed enum> >
FUNC 108260 3 0 tinyformat::detail::FormatArg::toIntImpl<IPC::SyncMessage<IPC::Message<IPC::Id<0, 6>, int> >::<unnamed enum> >
FUNC 108270 3 0 tinyformat::detail::FormatArg::toIntImpl<IPC::SyncMessage<IPC::Message<IPC::Id<0, 7>, int, std::__cxx11::basic_string<char, std::char_traits<char>, std::allocator<char> > > >::<unnamed enum> >
FUNC 108280 3 0 tinyformat::detail::FormatArg::toIntImpl<IPC::SyncMessage<IPC::Message<IPC::Id<0, 8>, int> >::<unnamed enum> >
FUNC 108290 3 0 tinyformat::detail::FormatArg::toIntImpl<IPC::SyncMessage<IPC::Message<IPC::Id<0, 9>, int> >::<unnamed enum> >
FUNC 1082a0 3 0 tinyformat::detail::FormatArg::toIntImpl<IPC::SyncMessage<IPC::Message<IPC::Id<3, 0>, std::__cxx11::basic_string<char, std::char_traits<char>, std::allocator<char> > > >::<unnamed enum> >
FUNC 1082b0 3 0 tinyformat::detail::FormatArg::toIntImpl<IPC::SyncMessage<IPC::Message<IPC::Id<3, 1>, int, std::__cxx11::basic_string<char, std::char_traits<char>, std::allocator<char> >, std::__cxx11::basic_string<char, std::char_traits<char>, std::allocator<char> > >, IPC::Reply<std::vector<std::pair<std::__cxx11::basic_string<char, std::char_traits<char>, std::allocator<char> >, std::__cxx11::basic_string<char, std::char_traits<char>, std::allocator<char> > >, std::allocator<std::pair<std::__cxx11::basic_string<char, std::char_traits<char>, std::allocator<char> >, std::__cxx11::basic_string<char, std::char_traits<char>, std::allocator<char> > > > > > >::<unnamed enum> >
FUNC 1082c0 3 0 tinyformat::detail::FormatArg::toIntImpl<IPC::SyncMessage<IPC::Message<IPC::Id<4, 0>, std::__cxx11::basic_string<char, std::char_traits<char>, std::allocator<char> >, std::__cxx11::basic_string<char, std::char_traits<char>, std::allocator<char> > >, IPC::Reply<bool, std::__cxx11::basic_string<char, std::char_traits<char>, std::allocator<char> > > >::<unnamed enum> >
FUNC 1082d0 6a 0 tinyformat::detail::FormatArg::toIntImpl<Str::BasicStringRef<char> >
FUNC 108340 6a 0 tinyformat::detail::FormatArg::toIntImpl<std::__cxx11::basic_string<char> >
FUNC 1083b0 6a 0 tinyformat::detail::FormatArg::toIntImpl<float (*)[3]>
FUNC 108420 6a 0 tinyformat::detail::FormatArg::toIntImpl<char const*>
FUNC 108490 6a 0 tinyformat::detail::FormatArg::toIntImpl<char*>
FUNC 108500 6a 0 tinyformat::detail::FormatArg::toIntImpl<int*>
FUNC 108570 6a 0 tinyformat::detail::FormatArg::toIntImpl<void*>
FUNC 1085e0 5 0 tinyformat::detail::FormatArg::toIntImpl<float>
FUNC 1085f0 4 0 tinyformat::detail::FormatArg::toIntImpl<unsigned char>
FUNC 108600 3 0 tinyformat::detail::FormatArg::toIntImpl<int>
FUNC 108610 3 0 tinyformat::detail::FormatArg::toIntImpl<unsigned int>
FUNC 108620 3 0 tinyformat::detail::FormatArg::toIntImpl<long int>
FUNC 108630 3 0 tinyformat::detail::FormatArg::toIntImpl<long unsigned int>
FUNC 108640 4 0 tinyformat::detail::FormatArg::toIntImpl<short int>
FUNC 108650 4 0 tinyformat::detail::FormatArg::toIntImpl<long long int>
FUNC 108660 4 0 tinyformat::detail::FormatArg::toIntImpl<long long unsigned int>
FUNC 108670 e75 0 tinyformat::format<char [1024]>
FUNC 1094f0 e75 0 tinyformat::format<char [128]>
FUNC 10a370 e75 0 tinyformat::format<char [256]>
FUNC 10b1f0 ec8 0 tinyformat::format<char [6], char const*, char const*>
FUNC 10c0c0 ee8 0 tinyformat::format<char [6], char const*, char const*, char const*>
FUNC 10cfb0 14d 0 tinyformat::format<Str::BasicStringRef<char>, char [5]>
FUNC 10d100 e78 0 tinyformat::format<Str::BasicStringRef<char> >
FUNC 10df80 ea8 0 tinyformat::format<Str::BasicStringRef<char>, std::__cxx11::basic_string<char, std::char_traits<char>, std::allocator<char> > >
FUNC 10ee30 176 0 tinyformat::format<Str::BasicStringRef<char>, Str::BasicStringRef<char>, char [5]>
FUNC 10efb0 1a1 0 tinyformat::format<Str::BasicStringRef<char>, Str::BasicStringRef<char>, unsigned int, char [5]>
FUNC 10f160 e78 0 tinyformat::format<std::__cxx11::basic_string<char, std::char_traits<char>, std::allocator<char> > >
FUNC 10ffe0 e98 0 tinyformat::format<std::__cxx11::basic_string<char, std::char_traits<char>, std::allocator<char> >, std::__cxx11::basic_string<char, std::char_traits<char>, std::allocator<char> > >
FUNC 110e80 eb8 0 tinyformat::format<std::__cxx11::basic_string<char, std::char_traits<char>, std::allocator<char> >, std::__cxx11::basic_string<char, std::char_traits<char>, std::allocator<char> >, std::__cxx11::basic_string<char, std::char_traits<char>, std::allocator<char> > >
FUNC 111d40 ed8 0 tinyformat::format<std::__cxx11::basic_string<char, std::char_traits<char>, std::allocator<char> >, std::__cxx11::basic_string<char, std::char_traits<char>, std::allocator<char> >, std::__cxx11::basic_string<char, std::char_traits<char>, std::allocator<char> >, std::__cxx11::basic_string<char, std::char_traits<char>, std::allocator<char> > >
FUNC 112c20 e78 0 tinyformat::format<char const*>
FUNC 113aa0 e98 0 tinyformat::format<char const*, char const*>
FUNC 114940 eb8 0 tinyformat::format<char const*, char const*, char const*>
FUNC 115800 f15 0 tinyformat::format<char const*, char const*, int, int, long long unsigned int>
FUNC 116720 ea5 0 tinyformat::format<char*, char const*>
FUNC 1175d0 ec5 0 tinyformat::format<char*, char const*, char const*>
FUNC 1184a0 ea5 0 tinyformat::format<int, char [64]>
FUNC 119350 e78 0 tinyformat::format<int>
FUNC 11a1d0 ea5 0 tinyformat::format<int, std::__cxx11::basic_string<char, std::char_traits<char>, std::allocator<char> > >
FUNC 11b080 ef8 0 tinyformat::format<int, float (*)[3], int, int*>
FUNC 11bf80 e95 0 tinyformat::format<int, int>
FUNC 11ce20 4c1 0 tinyformat::format<unsigned int>
FUNC 11d2f0 501 0 tinyformat::format<long unsigned int, char const*>
FUNC 11d800 ea5 0 tinyformat::format<long long unsigned int, std::__cxx11::basic_string<char, std::char_traits<char>, std::allocator<char> > >
FUNC 11e6b0 1 0 Application::Application::Frame
FUNC 11e6c0 31 0 Application::Application::~Application
FUNC 11e700 21 0 Application::Application::~Application
FUNC 11e730 c 0 Application::ServerApplication::Initialize
FUNC 11e740 3b 0 Application::ServerApplication::LoadInitialConfig
FUNC 11e780 5 0 Application::ServerApplication::Frame
FUNC 11e790 7e 0 Application::ServerApplication::OnDrop
FUNC 11e810 10b 0 Application::ServerApplication::Shutdown
FUNC 11e920 35 0 Application::ServerApplication::~ServerApplication
FUNC 11e960 24 0 Application::ServerApplication::~ServerApplication
FUNC 11e990 ce 0 ListMapsCmd::ListMapsCmd
FUNC 11ea60 5 0 ListMapsCmd::~ListMapsCmd
FUNC 11ea70 1 0 ListMapsCmd::~ListMapsCmd
FUNC 11ea80 c4 0 MeshProcess::process
FUNC 11eb50 5 0 MeshProcess::~MeshProcess
FUNC 11eb60 1 0 MeshProcess::~MeshProcess
FUNC 11eb70 ce 0 ListPathsCmd::ListPathsCmd
FUNC 11ec40 5 0 ListPathsCmd::~ListPathsCmd
FUNC 11ec50 1 0 ListPathsCmd::~ListPathsCmd
FUNC 11ec60 63 0 DaemonIstream::~DaemonIstream
FUNC 11ecd0 5b 0 DaemonIstream::~DaemonIstream
FUNC 11ed30 42 0 DaemonInputbuf::~DaemonInputbuf
FUNC 11ed80 3a 0 DaemonInputbuf::~DaemonInputbuf
FUNC 11edc0 1 0 LinearAllocator::free
FUNC 11edd0 23 0 LinearAllocator::alloc
FUNC 11ee00 1a 0 LinearAllocator::reset
FUNC 11ee20 5 0 LinearAllocator::~LinearAllocator
FUNC 11ee30 1 0 LinearAllocator::~LinearAllocator
FUNC 11ee40 139 0 RconEnvironment::Print
FUNC 11ef80 43 0 RconEnvironment::~RconEnvironment
FUNC 11efd0 46 0 RconEnvironment::~RconEnvironment
FUNC 11f020 28 0 google_breakpad::scoped_ptr<google_breakpad::CrashGenerationClient>::~scoped_ptr
FUNC 11f050 37 0 google_breakpad::AutoExceptionHandler::~AutoExceptionHandler
FUNC 11f090 1a8 0 DaemonFileSystem::open_directory
FUNC 11f240 1a0 0 DaemonFileSystem::open_file
FUNC 11f3e0 5 0 DaemonFileSystem::~DaemonFileSystem
FUNC 11f3f0 1 0 DaemonFileSystem::~DaemonFileSystem
FUNC 11f400 30 0 FastLZCompressor::decompress
FUNC 11f430 15 0 FastLZCompressor::maxCompressedSize
FUNC 11f450 23 0 FastLZCompressor::compress
FUNC 11f480 5 0 FastLZCompressor::~FastLZCompressor
FUNC 11f490 1 0 FastLZCompressor::~FastLZCompressor
FUNC 11f4a0 8 0 dtTileCacheAlloc::free
FUNC 11f4b0 d 0 dtTileCacheAlloc::alloc
FUNC 11f4c0 1 0 dtTileCacheAlloc::reset
FUNC 11f4d0 41 0 dtCollectPolysQuery::process
FUNC 11f520 5 0 dtCollectPolysQuery::~dtCollectPolysQuery
FUNC 11f530 1 0 dtCollectPolysQuery::~dtCollectPolysQuery
FUNC 11f540 139 0 dtFindNearestPolyQuery::process
FUNC 11f680 5 0 dtFindNearestPolyQuery::~dtFindNearestPolyQuery
FUNC 11f690 1 0 dtFindNearestPolyQuery::~dtFindNearestPolyQuery
FUNC 11f6a0 66 0 FS::LoadedPakInfo::~LoadedPakInfo
FUNC 11f710 24 0 FS::minizip_category_impl::~minizip_category_impl
FUNC 11f740 f 0 FS::minizip_category_impl::~minizip_category_impl
FUNC 11f750 24 0 FS::filesystem_category_impl::~filesystem_category_impl
FUNC 11f780 f 0 FS::filesystem_category_impl::~filesystem_category_impl
FUNC 11f790 2e 0 FS::File::~File
FUNC 11f7c0 112 0 FS::PakInfo::PakInfo
FUNC 11f8e0 aa 0 FS::PakInfo::PakInfo
FUNC 11f990 48 0 FS::PakInfo::~PakInfo
FUNC 11f9e0 1f0 0 FS::PakInfo::operator=
FUNC 11fbd0 36 0 FS::PakPath::DirectoryRange::~DirectoryRange
FUNC 11fc10 5b 0 FS::RawPath::DirectoryRange::~DirectoryRange
FUNC 11fc70 eb 0 FS::RawPath::RecursiveDirectoryRange::~RecursiveDirectoryRange
FUNC 11fd60 183 0 FS::my_open
FUNC 11fef0 5 0 VM::CommonVMServices::ProxyCmd::~ProxyCmd
FUNC 11ff00 1 0 VM::CommonVMServices::ProxyCmd::~ProxyCmd
FUNC 11ff10 c0 0 VM::CommonVMServices::ProxyCvar::OnValueChanged
FUNC 11ffd0 5c 0 VM::CommonVMServices::ProxyCvar::~ProxyCvar
FUNC 120030 5a 0 VM::CommonVMServices::ProxyCvar::~ProxyCvar
FUNC 120090 84d 0 VM::VMParams::VMParams
FUNC 1208e0 5 0 Cmd::AliasProxy::~AliasProxy
FUNC 1208f0 1 0 Cmd::AliasProxy::~AliasProxy
FUNC 120900 ce 0 Cmd::UnaliasCmd::UnaliasCmd
FUNC 1209d0 5 0 Cmd::UnaliasCmd::~UnaliasCmd
FUNC 1209e0 1 0 Cmd::UnaliasCmd::~UnaliasCmd
FUNC 1209f0 ce 0 Cmd::UndelayCmd::UndelayCmd
FUNC 120ac0 5 0 Cmd::UndelayCmd::~UndelayCmd
FUNC 120ad0 1 0 Cmd::UndelayCmd::~UndelayCmd
FUNC 120ae0 13c 0 Cmd::ListCmdsCmd::ListCmdsCmd
FUNC 120c20 5 0 Cmd::ListCmdsCmd::~ListCmdsCmd
FUNC 120c30 1 0 Cmd::ListCmdsCmd::~ListCmdsCmd
FUNC 120c40 ce 0 Cmd::UndelayAllCmd::UndelayAllCmd
FUNC 120d10 5 0 Cmd::UndelayAllCmd::~UndelayAllCmd
FUNC 120d20 1 0 Cmd::UndelayAllCmd::~UndelayAllCmd
FUNC 120d30 36 0 Cmd::delayRecord_t::~delayRecord_t
FUNC 120d70 ce 0 Cmd::ListAliasesCmd::ListAliasesCmd
FUNC 120e40 5 0 Cmd::ListAliasesCmd::~ListAliasesCmd
FUNC 120e50 1 0 Cmd::ListAliasesCmd::~ListAliasesCmd
FUNC 120e60 ce 0 Cmd::ClearAliasesCmd::ClearAliasesCmd
FUNC 120f30 5 0 Cmd::ClearAliasesCmd::~ClearAliasesCmd
FUNC 120f40 1 0 Cmd::ClearAliasesCmd::~ClearAliasesCmd
FUNC 120f50 5 0 Cmd::DefaultEnvironment::~DefaultEnvironment
FUNC 120f60 1 0 Cmd::DefaultEnvironment::~DefaultEnvironment
FUNC 120f70 ce 0 Cmd::IfCmd::IfCmd
FUNC 121040 5 0 Cmd::IfCmd::~IfCmd
FUNC 121050 1 0 Cmd::IfCmd::~IfCmd
FUNC 121060 ce 0 Cmd::EchoCmd::EchoCmd
FUNC 121130 5 0 Cmd::EchoCmd::~EchoCmd
FUNC 121140 1 0 Cmd::EchoCmd::~EchoCmd
FUNC 121150 e3 0 Cmd::ExecCmd::ExecCmd
FUNC 121240 5 0 Cmd::ExecCmd::~ExecCmd
FUNC 121250 1 0 Cmd::ExecCmd::~ExecCmd
FUNC 121260 ce 0 Cmd::MathCmd::MathCmd
FUNC 121330 5 0 Cmd::MathCmd::~MathCmd
FUNC 121340 1 0 Cmd::MathCmd::~MathCmd
FUNC 121350 ce 0 Cmd::VstrCmd::VstrCmd
FUNC 121420 5 0 Cmd::VstrCmd::~VstrCmd
FUNC 121430 1 0 Cmd::VstrCmd::~VstrCmd
FUNC 121440 ce 0 Cmd::AliasCmd::AliasCmd
FUNC 121510 5 0 Cmd::AliasCmd::~AliasCmd
FUNC 121520 1 0 Cmd::AliasCmd::~AliasCmd
FUNC 121530 ce 0 Cmd::CycleCmd::CycleCmd
FUNC 121600 5 0 Cmd::CycleCmd::~CycleCmd
FUNC 121610 1 0 Cmd::CycleCmd::~CycleCmd
FUNC 121620 ce 0 Cmd::DelayCmd::DelayCmd
FUNC 1216f0 5 0 Cmd::DelayCmd::~DelayCmd
FUNC 121700 1 0 Cmd::DelayCmd::~DelayCmd
FUNC 121710 ce 0 Cmd::ConcatCmd::ConcatCmd
FUNC 1217e0 5 0 Cmd::ConcatCmd::~ConcatCmd
FUNC 1217f0 1 0 Cmd::ConcatCmd::~ConcatCmd
FUNC 121800 4f 0 Cmd::LambdaCmd::~LambdaCmd
FUNC 121850 56 0 Cmd::LambdaCmd::~LambdaCmd
FUNC 1218b0 ce 0 Cmd::RandomCmd::RandomCmd
FUNC 121980 5 0 Cmd::RandomCmd::~RandomCmd
FUNC 121990 1 0 Cmd::RandomCmd::~RandomCmd
FUNC 1219a0 ce 0 Cmd::ToggleCmd::ToggleCmd
FUNC 121a70 5 0 Cmd::ToggleCmd::~ToggleCmd
FUNC 121a80 1 0 Cmd::ToggleCmd::~ToggleCmd
FUNC 121a90 74a 0 IPC::detail::SendMsg<VM::VMBase::SendMsg(Args&& ...) [with Msg = IPC::SyncMessage<IPC::Message<IPC::Id<0, 0>, int> >; Args = {int}]::<lambda(uint32_t, Util::Reader)>&, IPC::Message<IPC::Id<0, 0>, int>, IPC::Reply<>, int>
FUNC 1221e0 809 0 IPC::detail::SendMsg<VM::VMBase::SendMsg(Args&& ...) [with Msg = IPC::SyncMessage<IPC::Message<IPC::Id<0, 14>, int, IPC::SharedMemory, long long unsigned int, int> >; Args = {int&, IPC::SharedMemory&, long long unsigned int&, int&}]::<lambda(uint32_t, Util::Reader)>&, IPC::Message<IPC::Id<0, 14>, int, IPC::SharedMemory, long long unsigned int, int>, IPC::Reply<>, int&, IPC::SharedMemory&, long long unsigned int&, int&>
FUNC 1229f0 7aa 0 IPC::detail::SendMsg<VM::VMBase::SendMsg(Args&& ...) [with Msg = IPC::SyncMessage<IPC::Message<IPC::Id<0, 1>, int, int, bool, bool> >; Args = {int&, int&, bool, bool}]::<lambda(uint32_t, Util::Reader)>&, IPC::Message<IPC::Id<0, 1>, int, int, bool, bool>, IPC::Reply<>, int&, int&, bool, bool>
FUNC 1231a0 76e 0 IPC::detail::SendMsg<VM::VMBase::SendMsg(Args&& ...) [with Msg = IPC::SyncMessage<IPC::Message<IPC::Id<0, 2>, bool> >; Args = {bool&}]::<lambda(uint32_t, Util::Reader)>&, IPC::Message<IPC::Id<0, 2>, bool>, IPC::Reply<>, bool&>
FUNC 123910 94b 0 IPC::detail::SendMsg<VM::VMBase::SendMsg(Args&& ...) [with Msg = IPC::SyncMessage<IPC::Message<IPC::Id<0, 3>, int, bool, int>, IPC::Reply<bool, std::__cxx11::basic_string<char, std::char_traits<char>, std::allocator<char> > > >; Args = {int&, bool&, bool&, bool&, std::__cxx11::basic_string<char, std::char_traits<char>, std::allocator<char> >&}]::<lambda(uint32_t, Util::Reader)>&, IPC::Message<IPC::Id<0, 3>, int, bool, int>, IPC::Reply<bool, std::__cxx11::basic_string<char, std::char_traits<char>, std::allocator<char> > >, int&, bool&, bool&, bool&, std::__cxx11::basic_string<char, std::char_traits<char>, std::allocator<char> >&>
FUNC 124260 74a 0 IPC::detail::SendMsg<VM::VMBase::SendMsg(Args&& ...) [with Msg = IPC::SyncMessage<IPC::Message<IPC::Id<0, 4>, int> >; Args = {int&}]::<lambda(uint32_t, Util::Reader)>&, IPC::Message<IPC::Id<0, 4>, int>, IPC::Reply<>, int&>
FUNC 1249b0 76e 0 IPC::detail::SendMsg<VM::VMBase::SendMsg(Args&& ...) [with Msg = IPC::SyncMessage<IPC::Message<IPC::Id<0, 5>, int> >; Args = {int&}]::<lambda(uint32_t, Util::Reader)>&, IPC::Message<IPC::Id<0, 5>, int>, IPC::Reply<>, int&>
FUNC 125120 76e 0 IPC::detail::SendMsg<VM::VMBase::SendMsg(Args&& ...) [with Msg = IPC::SyncMessage<IPC::Message<IPC::Id<0, 6>, int> >; Args = {int&}]::<lambda(uint32_t, Util::Reader)>&, IPC::Message<IPC::Id<0, 6>, int>, IPC::Reply<>, int&>
FUNC 125890 7c9 0 IPC::detail::SendMsg<VM::VMBase::SendMsg(Args&& ...) [with Msg = IPC::SyncMessage<IPC::Message<IPC::Id<0, 7>, int, std::__cxx11::basic_string<char, std::char_traits<char>, std::allocator<char> > > >; Args = {int&, char const*&}]::<lambda(uint32_t, Util::Reader)>&, IPC::Message<IPC::Id<0, 7>, int, std::__cxx11::basic_string<char, std::char_traits<char>, std::allocator<char> > >, IPC::Reply<>, int&, char const*&>
FUNC 126060 74a 0 IPC::detail::SendMsg<VM::VMBase::SendMsg(Args&& ...) [with Msg = IPC::SyncMessage<IPC::Message<IPC::Id<0, 8>, int> >; Args = {int&}]::<lambda(uint32_t, Util::Reader)>&, IPC::Message<IPC::Id<0, 8>, int>, IPC::Reply<>, int&>
FUNC 1267b0 76e 0 IPC::detail::SendMsg<VM::VMBase::SendMsg(Args&& ...) [with Msg = IPC::SyncMessage<IPC::Message<IPC::Id<0, 9>, int> >; Args = {int&}]::<lambda(uint32_t, Util::Reader)>&, IPC::Message<IPC::Id<0, 9>, int>, IPC::Reply<>, int&>
FUNC 126f20 822 0 IPC::detail::SendMsg<VM::VMBase::SendMsg(Args&& ...) [with Msg = IPC::SyncMessage<IPC::Message<IPC::Id<3, 0>, std::__cxx11::basic_string<char, std::char_traits<char>, std::allocator<char> > > >; Args = {std::__cxx11::basic_string<char, std::char_traits<char>, std::allocator<char> >}]::<lambda(uint32_t, Util::Reader)>&, IPC::Message<IPC::Id<3, 0>, std::__cxx11::basic_string<char, std::char_traits<char>, std::allocator<char> > >, IPC::Reply<>, std::__cxx11::basic_string<char, std::char_traits<char>, std::allocator<char> > >
FUNC 127750 107e 0 IPC::detail::SendMsg<VM::VMBase::SendMsg(Args&& ...) [with Msg = IPC::SyncMessage<IPC::Message<IPC::Id<3, 1>, int, std::__cxx11::basic_string<char, std::char_traits<char>, std::allocator<char> >, std::__cxx11::basic_string<char, std::char_traits<char>, std::allocator<char> > >, IPC::Reply<std::vector<std::pair<std::__cxx11::basic_string<char, std::char_traits<char>, std::allocator<char> >, std::__cxx11::basic_string<char, std::char_traits<char>, std::allocator<char> > >, std::allocator<std::pair<std::__cxx11::basic_string<char, std::char_traits<char>, std::allocator<char> >, std::__cxx11::basic_string<char, std::char_traits<char>, std::allocator<char> > > > > > >; Args = {int&, std::__cxx11::basic_string<char, std::char_traits<char>, std::allocator<char> >, Str::BasicStringRef<char>&, std::vector<std::pair<std::__cxx11::basic_string<char, std::char_traits<char>, std::allocator<char> >, std::__cxx11::basic_string<char, std::char_traits<char>, std::allocator<char> > >, std::allocator<std::pair<std::__cxx11::basic_string<char, std::char_traits<char>, std::allocator<char> >, std::__cxx11::basic_string<char, std::char_traits<char>, std::allocator<char> > > > >&}]::<lambda(uint32_t, Util::Reader)>&, IPC::Message<IPC::Id<3, 1>, int, std::__cxx11::basic_string<char, std::char_traits<char>, std::allocator<char> >, std::__cxx11::basic_string<char, std::char_traits<char>, std::allocator<char> > >, IPC::Reply<std::vector<std::pair<std::__cxx11::basic_string<char, std::char_traits<char>, std::allocator<char> >, std::__cxx11::basic_string<char, std::char_traits<char>, std::allocator<char> > >, std::allocator<std::pair<std::__cxx11::basic_string<char, std::char_traits<char>, std::allocator<char> >, std::__cxx11::basic_string<char, std::char_traits<char>, std::allocator<char> > > > > >, int&, std::__cxx11::basic_string<char, std::char_traits<char>, std::allocator<char> >, Str::BasicStringRef<char>&, std::vector<std::pair<std::__cxx11::basic_string<char, std::char_traits<char>, std::allocator<char> >, std::__cxx11::basic_string<char, std::char_traits<char>, std::allocator<char> > >, std::allocator<std::pair<std::__cxx11::basic_string<char, std::char_traits<char>, std::allocator<char> >, std::__cxx11::basic_string<char, std::char_traits<char>, std::allocator<char> > > > >&>
FUNC 1287d0 a60 0 IPC::detail::SendMsg<VM::VMBase::SendMsg(Args&& ...) [with Msg = IPC::SyncMessage<IPC::Message<IPC::Id<4, 0>, std::__cxx11::basic_string<char, std::char_traits<char>, std::allocator<char> >, std::__cxx11::basic_string<char, std::char_traits<char>, std::allocator<char> > >, IPC::Reply<bool, std::__cxx11::basic_string<char, std::char_traits<char>, std::allocator<char> > > >; Args = {std::__cxx11::basic_string<char, std::char_traits<char>, std::allocator<char> >&, Str::BasicStringRef<char>&, bool&, std::__cxx11::basic_string<char, std::char_traits<char>, std::allocator<char> >&}]::<lambda(uint32_t, Util::Reader)>&, IPC::Message<IPC::Id<4, 0>, std::__cxx11::basic_string<char, std::char_traits<char>, std::allocator<char> >, std::__cxx11::basic_string<char, std::char_traits<char>, std::allocator<char> > >, IPC::Reply<bool, std::__cxx11::basic_string<char, std::char_traits<char>, std::allocator<char> > >, std::__cxx11::basic_string<char, std::char_traits<char>, std::allocator<char> >&, Str::BasicStringRef<char>&, bool&, std::__cxx11::basic_string<char, std::char_traits<char>, std::allocator<char> >&>
FUNC 129230 d3 0 IPC::Channel::RecvReplyMsg
FUNC 129310 c4 0 Log::LogFileTarget::Process
FUNC 1293e0 41 0 Log::LogFileTarget::~LogFileTarget
FUNC 129430 39 0 Log::LogFileTarget::~LogFileTarget
FUNC 129470 ed 0 Log::Logger::Warn<>
FUNC 129560 db 0 Log::Logger::Warn<std::__cxx11::basic_string<char, std::char_traits<char>, std::allocator<char> > >
FUNC 129640 ff0 0 Log::Logger::Warn<std::__cxx11::basic_string<char, std::char_traits<char>, std::allocator<char> >, char const*>
FUNC 12a630 db 0 Log::Logger::Warn<std::__cxx11::basic_string<char, std::char_traits<char>, std::allocator<char> >, std::__cxx11::basic_string<char, std::char_traits<char>, std::allocator<char> > >
FUNC 12a710 db 0 Log::Logger::Warn<char const*>
FUNC 12a7f0 fe0 0 Log::Logger::Warn<char const*, char const*&>
FUNC 12b7d0 fcf 0 Log::Logger::Warn<char (&)[1024]>
FUNC 12c7a0 1020 0 Log::Logger::Warn<char (&)[1024], int&, char (&)[4096]>
FUNC 12d7c0 db 0 Log::Logger::Warn<char (&)[128]>
FUNC 12d8a0 5c7 0 Log::Logger::Warn<char (&)[128], char (&)[64]>
FUNC 12de70 db 0 Log::Logger::Warn<const std::__cxx11::basic_string<char, std::char_traits<char>, std::allocator<char> >&>
FUNC 12df50 db 0 Log::Logger::Warn<Str::BasicStringRef<char>&, const std::__cxx11::basic_string<char, std::char_traits<char>, std::allocator<char> >&>
FUNC 12e030 db 0 Log::Logger::Warn<std::__cxx11::basic_string<char, std::char_traits<char>, std::allocator<char> >&>
FUNC 12e110 188 0 Log::Logger::Warn<std::__cxx11::basic_string<char, std::char_traits<char>, std::allocator<char> >&, char const*>
FUNC 12e2a0 17a 0 Log::Logger::Warn<std::__cxx11::basic_string<char, std::char_traits<char>, std::allocator<char> >&, const std::__cxx11::basic_string<char, std::char_traits<char>, std::allocator<char> >&>
FUNC 12e420 db 0 Log::Logger::Warn<std::__cxx11::basic_string<char, std::char_traits<char>, std::allocator<char> >&, std::__cxx11::basic_string<char, std::char_traits<char>, std::allocator<char> >&>
FUNC 12e500 fcf 0 Log::Logger::Warn<char*&>
FUNC 12f4d0 db 0 Log::Logger::Warn<int&>
FUNC 12f5b0 188 0 Log::Logger::Warn<int&, std::__cxx11::basic_string<char, std::char_traits<char>, std::allocator<char> > >
FUNC 12f740 fe0 0 Log::Logger::Warn<int&, int const&>
FUNC 130720 db 0 Log::Logger::Warn<int>
FUNC 130800 e5 0 Log::Logger::Debug<>
FUNC 1308f0 d8 0 Log::Logger::Debug<std::__cxx11::basic_string<char, std::char_traits<char>, std::allocator<char> > >
FUNC 1309d0 d8 0 Log::Logger::Debug<std::__cxx11::basic_string<char, std::char_traits<char>, std::allocator<char> >, const std::__cxx11::basic_string<char, std::char_traits<char>, std::allocator<char> >&>
FUNC 130ab0 d8 0 Log::Logger::Debug<char const*>
FUNC 130b90 d8 0 Log::Logger::Debug<char (&)[1024]>
FUNC 130c70 d8 0 Log::Logger::Debug<char (&)[128]>
FUNC 130d50 5c7 0 Log::Logger::Debug<char (&)[128], char const*&>
FUNC 131320 5f7 0 Log::Logger::Debug<char (&)[128], int&, char*&>
FUNC 131920 fd0 0 Log::Logger::Debug<Str::BasicStringRef<char>&>
FUNC 1328f0 d8 0 Log::Logger::Debug<char const*&, char const*>
FUNC 1329d0 d8 0 Log::Logger::Debug<int&>
FUNC 132ab0 ff1 0 Log::Logger::Debug<int&, std::__cxx11::basic_string<char, std::char_traits<char>, std::allocator<char> > >
FUNC 133ab0 5c7 0 Log::Logger::Debug<int&, char (&)[1024]>
FUNC 134080 5c7 0 Log::Logger::Debug<int&, char const*&>
FUNC 134650 d8 0 Log::Logger::Debug<int&, int&>
FUNC 134730 5c7 0 Log::Logger::Debug<int&, long int>
FUNC 134d00 1091 0 Log::Logger::Debug<float, float&, int&, float&, int&, float&, float>
FUNC 135da0 d8 0 Log::Logger::Debug<int, char (&)[64]>
FUNC 135e80 d8 0 Log::Logger::Debug<int, int&>
FUNC 135f60 ed 0 Log::Logger::Notice<>
FUNC 136050 5c7 0 Log::Logger::Notice<std::__cxx11::basic_string<char, std::char_traits<char>, std::allocator<char> >, char const*>
FUNC 136620 5e7 0 Log::Logger::Notice<std::__cxx11::basic_string<char, std::char_traits<char>, std::allocator<char> >, char const*, char const*>
FUNC 136c10 fcf 0 Log::Logger::Notice<char const*>
FUNC 137be0 ff0 0 Log::Logger::Notice<char const*, int&>
FUNC 138bd0 fe0 0 Log::Logger::Notice<char const*, char const*>
FUNC 139bb0 ec 0 Log::Logger::Notice<char const*, char const*, char const*>
FUNC 139ca0 1020 0 Log::Logger::Notice<char const*, char const*, char const*, char const*>
FUNC 13acc0 1010 0 Log::Logger::Notice<char (&)[1024], int&, char (&)[1024]>
FUNC 13bcd0 5c7 0 Log::Logger::Notice<char (&)[128], char (&)[256]>
FUNC 13c2a0 5c7 0 Log::Logger::Notice<char (&)[128], char*&>
FUNC 13c870 5c7 0 Log::Logger::Notice<char (&)[128], int&>
FUNC 13ce40 fcf 0 Log::Logger::Notice<char const (&)[14]>
FUNC 13de10 fcf 0 Log::Logger::Notice<char const (&)[16]>
FUNC 13ede0 fcf 0 Log::Logger::Notice<char const (&)[22]>
FUNC 13fdb0 fcf 0 Log::Logger::Notice<char (&)[256]>
FUNC 140d80 fcf 0 Log::Logger::Notice<char (&)[48]>
FUNC 141d50 fcf 0 Log::Logger::Notice<char (&)[64]>
FUNC 142d20 1010 0 Log::Logger::Notice<char const (&)[6], char const*, char const*&>
FUNC 143d30 fcf 0 Log::Logger::Notice<char (&)[8192]>
FUNC 144d00 fcf 0 Log::Logger::Notice<char const (&)[8]>
FUNC 145cd0 fcf 0 Log::Logger::Notice<char const (&)[9]>
FUNC 146ca0 fcf 0 Log::Logger::Notice<const std::__cxx11::basic_string<char, std::char_traits<char>, std::allocator<char> >&>
FUNC 147c70 1010 0 Log::Logger::Notice<char const* const&, int&, int&>
FUNC 148c80 1050 0 Log::Logger::Notice<char const* const&, int&, int&, int&, int&>
FUNC 149cd0 1030 0 Log::Logger::Notice<char const* const&, int&, int, int&>
FUNC 14ad00 db 0 Log::Logger::Notice<std::__cxx11::basic_string<char, std::char_traits<char>, std::allocator<char> >&>
FUNC 14ade0 fcf 0 Log::Logger::Notice<char const*&>
FUNC 14bdb0 ff0 0 Log::Logger::Notice<char const*&, char*>
FUNC 14cda0 5c7 0 Log::Logger::Notice<char const*&, char (&)[128]>
FUNC 14d370 ff0 0 Log::Logger::Notice<char const*&, float&>
FUNC 14e360 ff0 0 Log::Logger::Notice<char const*&, int&>
FUNC 14f350 db 0 Log::Logger::Notice<char const*&, char const*>
FUNC 14f430 1000 0 Log::Logger::Notice<char const*&, char const*&, char const*>
FUNC 150430 598 0 Log::Logger::Notice<char*&>
FUNC 1509d0 5c7 0 Log::Logger::Notice<char*&, std::__cxx11::basic_string<char, std::char_traits<char>, std::allocator<char> > >
FUNC 150fa0 fcf 0 Log::Logger::Notice<unsigned char&>
FUNC 151f70 5f7 0 Log::Logger::Notice<unsigned char&, unsigned char&, unsigned char&, unsigned char&>
FUNC 152570 db 0 Log::Logger::Notice<int&>
FUNC 152650 5c7 0 Log::Logger::Notice<int&, char const*&>
FUNC 152c20 fe0 0 Log::Logger::Notice<int&, int&>
FUNC 153c00 1040 0 Log::Logger::Notice<int&, int&, int&, int&, int&>
FUNC 154c40 10c0 0 Log::Logger::Notice<int&, int&, int&, int&, int&, int&, int&, int&, int&>
FUNC 155d00 ff0 0 Log::Logger::Notice<int&, float>
FUNC 156cf0 db 0 Log::Logger::Notice<int&, int>
FUNC 156dd0 ff0 0 Log::Logger::Notice<short int&, char const*>
FUNC 157dc0 fcf 0 Log::Logger::Notice<int>
FUNC 158d90 db 0 Log::Logger::Notice<int, char (&)[64]>
FUNC 158e70 fe0 0 Log::Logger::Notice<int, int>
FUNC 159e50 ff0 0 Log::Logger::Notice<long unsigned int, char const*>
FUNC 15ae40 db 0 Log::Logger::Verbose<std::__cxx11::basic_string<char, std::char_traits<char>, std::allocator<char> >&>
FUNC 15af20 52 0 Log::Logger::~Logger
FUNC 15af80 46 0 Log::TTYTarget::Process
FUNC 15afd0 5 0 Log::TTYTarget::~TTYTarget
FUNC 15afe0 1 0 Log::TTYTarget::~TTYTarget
FUNC 15aff0 1da 0 Net::OutOfBandPrint<>
FUNC 15b1d0 6e0 0 Net::OutOfBandPrint<std::__cxx11::basic_string<char, std::char_traits<char>, std::allocator<char> > >
FUNC 15b8b0 1da 0 Net::OutOfBandPrint<std::__cxx11::basic_string<char, std::char_traits<char>, std::allocator<char> >, std::__cxx11::basic_string<char, std::char_traits<char>, std::allocator<char> >&>
FUNC 15ba90 1ca 0 Net::OutOfBandPrint<char (&)[1024]>
FUNC 15bc60 6e0 0 Net::OutOfBandPrint<std::__cxx11::basic_string<char, std::char_traits<char>, std::allocator<char> >&>
FUNC 15c340 1ca 0 Net::OutOfBandPrint<char const*&>
FUNC 15c510 6e0 0 Net::OutOfBandPrint<char*&>
FUNC 15cbf0 1a 0 Str::cisxdigit
FUNC 15cc10 2d 0 Sys::PacketEvent::~PacketEvent
FUNC 15cc40 21 0 Sys::PacketEvent::~PacketEvent
FUNC 15cc70 11d 0 Sys::cmdlineArgs_t::~cmdlineArgs_t
FUNC 15cd90 31 0 Sys::ConsoleInputEvent::~ConsoleInputEvent
FUNC 15cdd0 21 0 Sys::ConsoleInputEvent::~ConsoleInputEvent
FUNC 15ce00 3d 0 Sys::DropErr::~DropErr
FUNC 15ce40 f 0 Sys::DropErr::~DropErr
FUNC 15ce50 ce 0 Sys::QuitCmd::QuitCmd
FUNC 15cf20 5 0 Sys::QuitCmd::~QuitCmd
FUNC 15cf30 1 0 Sys::QuitCmd::~QuitCmd
FUNC 15cf40 5 0 Cvar::CvarCommand::~CvarCommand
FUNC 15cf50 1 0 Cvar::CvarCommand::~CvarCommand
FUNC 15cf60 103 0 Cvar::Cvar<ServerPrivate>::GetDescription
FUNC 15d070 1fc 0 Cvar::Cvar<ServerPrivate>::OnValueChanged
FUNC 15d270 27 0 Cvar::Cvar<ServerPrivate>::GetAdditionalDescription
FUNC 15d2a0 2f 0 Cvar::Cvar<ServerPrivate>::Validate
FUNC 15d2d0 5f 0 Cvar::Cvar<ServerPrivate>::~Cvar
FUNC 15d330 66 0 Cvar::Cvar<ServerPrivate>::~Cvar
FUNC 15d3a0 fd5 0 Cvar::Cvar<Log::Level>::GetDescription
FUNC 15e380 25a 0 Cvar::Cvar<Log::Level>::OnValueChanged
FUNC 15e5e0 27 0 Cvar::Cvar<Log::Level>::GetAdditionalDescription
FUNC 15e610 2f 0 Cvar::Cvar<Log::Level>::Validate
FUNC 15e640 5f 0 Cvar::Cvar<Log::Level>::~Cvar
FUNC 15e6a0 66 0 Cvar::Cvar<Log::Level>::~Cvar
FUNC 15e710 e0 0 Cvar::Cvar<std::__cxx11::basic_string<char, std::char_traits<char>, std::allocator<char> > >::GetDescription
FUNC 15e7f0 27c 0 Cvar::Cvar<std::__cxx11::basic_string<char, std::char_traits<char>, std::allocator<char> > >::OnValueChanged
FUNC 15ea70 27 0 Cvar::Cvar<std::__cxx11::basic_string<char, std::char_traits<char>, std::allocator<char> > >::GetAdditionalDescription
FUNC 15eaa0 2f 0 Cvar::Cvar<std::__cxx11::basic_string<char, std::char_traits<char>, std::allocator<char> > >::Validate
FUNC 15ead0 2e4 0 Cvar::Cvar<std::__cxx11::basic_string<char, std::char_traits<char>, std::allocator<char> > >::Cvar
FUNC 15edc0 74 0 Cvar::Cvar<std::__cxx11::basic_string<char, std::char_traits<char>, std::allocator<char> > >::~Cvar
FUNC 15ee40 76 0 Cvar::Cvar<std::__cxx11::basic_string<char, std::char_traits<char>, std::allocator<char> > >::~Cvar
FUNC 15eec0 e0 0 Cvar::Cvar<bool>::GetDescription
FUNC 15efa0 1dc 0 Cvar::Cvar<bool>::OnValueChanged
FUNC 15f180 27 0 Cvar::Cvar<bool>::GetAdditionalDescription
FUNC 15f1b0 5e 0 Cvar::Cvar<bool>::Register
FUNC 15f210 2f 0 Cvar::Cvar<bool>::Validate
FUNC 15f240 195 0 Cvar::Cvar<bool>::Cvar
FUNC 15f3e0 5f 0 Cvar::Cvar<bool>::~Cvar
FUNC 15f440 66 0 Cvar::Cvar<bool>::~Cvar
FUNC 15f4b0 e0 0 Cvar::Cvar<int>::GetDescription
FUNC 15f590 1dc 0 Cvar::Cvar<int>::OnValueChanged
FUNC 15f770 27 0 Cvar::Cvar<int>::GetAdditionalDescription
FUNC 15f7a0 2f 0 Cvar::Cvar<int>::Validate
FUNC 15f7d0 1cf 0 Cvar::Cvar<int>::Cvar
FUNC 15f9a0 5f 0 Cvar::Cvar<int>::~Cvar
FUNC 15fa00 66 0 Cvar::Cvar<int>::~Cvar
FUNC 15fa70 af 0 Cvar::Cvar<long long unsigned int>::GetDescription
FUNC 15fb20 18d 0 Cvar::Cvar<long long unsigned int>::OnValueChanged
FUNC 15fcb0 27 0 Cvar::Cvar<long long unsigned int>::GetAdditionalDescription
FUNC 15fce0 2f 0 Cvar::Cvar<long long unsigned int>::Validate
FUNC 15fd10 5f 0 Cvar::Cvar<long long unsigned int>::~Cvar
FUNC 15fd70 66 0 Cvar::Cvar<long long unsigned int>::~Cvar
FUNC 15fde0 ab 0 Cvar::Range<Cvar::Cvar<int> >::GetAdditionalDescription
FUNC 15fe90 132 0 Cvar::Range<Cvar::Cvar<int> >::Validate
FUNC 15ffd0 32b 0 Cvar::Range<Cvar::Cvar<int> >::Range<>
FUNC 160300 5f 0 Cvar::Range<Cvar::Cvar<int> >::~Range
FUNC 160360 66 0 Cvar::Range<Cvar::Cvar<int> >::~Range
FUNC 1603d0 b0 0 Cvar::Range<Cvar::Cvar<long long unsigned int> >::GetAdditionalDescription
FUNC 160480 141 0 Cvar::Range<Cvar::Cvar<long long unsigned int> >::Validate
FUNC 1605d0 32b 0 Cvar::Range<Cvar::Cvar<long long unsigned int> >::Range<>
FUNC 160900 5f 0 Cvar::Range<Cvar::Cvar<long long unsigned int> >::~Range
FUNC 160960 66 0 Cvar::Range<Cvar::Cvar<long long unsigned int> >::~Range
FUNC 1609d0 e0 0 Cvar::SetCmd::SetCmd
FUNC 160ab0 5 0 Cvar::SetCmd::~SetCmd
FUNC 160ac0 1 0 Cvar::SetCmd::~SetCmd
FUNC 160ad0 7d 0 Cvar::Callback<Cvar::Cvar<bool> >::OnValueChanged
FUNC 160b50 359 0 Cvar::Callback<Cvar::Cvar<bool> >::Callback<>
FUNC 160eb0 84 0 Cvar::Callback<Cvar::Cvar<bool> >::~Callback
FUNC 160f40 86 0 Cvar::Callback<Cvar::Cvar<bool> >::~Callback
FUNC 160fd0 ce 0 Cvar::ResetCmd::ResetCmd
FUNC 1610a0 5 0 Cvar::ResetCmd::~ResetCmd
FUNC 1610b0 1 0 Cvar::ResetCmd::~ResetCmd
FUNC 1610c0 46 0 Cvar::CvarProxy::~CvarProxy
FUNC 161110 ce 0 Cvar::ListCvars::ListCvars
FUNC 1611e0 5 0 Cvar::ListCvars::~ListCvars
FUNC 1611f0 1 0 Cvar::ListCvars::~ListCvars
FUNC 161200 75 0 Util::SerializeTraits<std::__cxx11::basic_string<char, std::char_traits<char>, std::allocator<char> >, void>::Read
FUNC 161280 78 0 Util::SerializeTraits<std::__cxx11::basic_string<char, std::char_traits<char>, std::allocator<char> >, void>::Write
FUNC 161300 24 0 Util::bad_optional_access::~bad_optional_access
FUNC 161330 f 0 Util::bad_optional_access::~bad_optional_access
FUNC 161340 75 0 Util::Reader::CheckEndRead
FUNC 1613c0 5c 0 Util::Reader::ReadData
FUNC 161420 99 0 Util::Reader::~Reader
FUNC 1614c0 50 0 Util::Writer::WriteSize
FUNC 161510 36 0 Util::Writer::~Writer
FUNC 161550 66 0 Util::optional<float>::value
FUNC 1615c0 ce 0 DirCmd::DirCmd
FUNC 161690 5 0 DirCmd::~DirCmd
FUNC 1616a0 1 0 DirCmd::~DirCmd
FUNC 1616b0 243 0 GameVM::~GameVM
FUNC 161900 23a 0 GameVM::~GameVM
FUNC 161b40 e1 0 MapCmd::MapCmd
FUNC 161c30 5 0 MapCmd::~MapCmd
FUNC 161c40 1 0 MapCmd::~MapCmd
FUNC 161c50 5 0 ProxyCmd::~ProxyCmd
FUNC 161c60 1 0 ProxyCmd::~ProxyCmd
FUNC 161c70 ce 0 WhichCmd::WhichCmd
FUNC 161d40 5 0 WhichCmd::~WhichCmd
FUNC 161d50 1 0 WhichCmd::~WhichCmd
FUNC 161d60 ce 0 StatusCmd::StatusCmd
FUNC 161e30 5 0 StatusCmd::~StatusCmd
FUNC 161e40 1 0 StatusCmd::~StatusCmd
FUNC 161e50 5b 0 __gnu_cxx::__to_xstring<std::__cxx11::basic_string<char>, char>
FUNC 161eb0 101a 0 ListMapsCmd::Run
FUNC 162ed0 a3 0 ListPathsCmd::Run
FUNC 162f80 8 0 FS::minizip_category_impl::name
FUNC 162f90 f5 0 FS::minizip_category_impl::message
FUNC 163090 8 0 FS::filesystem_category_impl::name
FUNC 1630a0 b8 0 FS::filesystem_category_impl::message
FUNC 163160 a0 0 VM::CommonVMServices::ProxyCmd::Run
FUNC 163200 10a 0 VM::CommonVMServices::ProxyCmd::Complete
FUNC 163310 27e 0 Cmd::AliasProxy::Run
FUNC 163590 a1 0 Cmd::UnaliasCmd::Run
FUNC 163640 58 0 Cmd::UnaliasCmd::Complete
FUNC 1636a0 168 0 Cmd::UndelayCmd::Run
FUNC 163810 58 0 Cmd::UndelayCmd::Complete
FUNC 163870 2240 0 Cmd::ListCmdsCmd::Run
FUNC 165ab0 58 0 Cmd::ListCmdsCmd::Complete
FUNC 165b10 8b 0 Cmd::UndelayAllCmd::Run
FUNC 165ba0 2278 0 Cmd::ListAliasesCmd::Run
FUNC 167e20 1e 0 Cmd::ClearAliasesCmd::Run
FUNC 167e40 4bf 0 Cmd::IfCmd::Run
FUNC 168300 63 0 Cmd::IfCmd::Complete
FUNC 168370 99 0 Cmd::CmdBase::Print<>
FUNC 168410 149 0 Cmd::EchoCmd::Run
FUNC 168560 2040 0 Cmd::ExecCmd::SetExecArgs
FUNC 16a5a0 5ee 0 Cmd::ExecCmd::Run
FUNC 16ab90 191 0 Cmd::ExecCmd::Complete
FUNC 16ad30 86d 0 Cmd::MathCmd::Run
FUNC 16b5a0 e3 0 Cmd::MathCmd::Usage
FUNC 16b690 58 0 Cmd::MathCmd::Complete
FUNC 16b6f0 de 0 Cmd::VstrCmd::Run
FUNC 16b7d0 58 0 Cmd::VstrCmd::Complete
FUNC 16b830 137f 0 Cmd::AliasCmd::Run
FUNC 16cbb0 17b 0 Cmd::AliasCmd::Complete
FUNC 16cd30 303 0 Cmd::CycleCmd::Run
FUNC 16d040 58 0 Cmd::CycleCmd::Complete
FUNC 16d0a0 3db 0 Cmd::DelayCmd::Run
FUNC 16d480 58 0 Cmd::DelayCmd::Complete
FUNC 16d4e0 151 0 Cmd::ConcatCmd::Run
FUNC 16d640 5d 0 Cmd::ConcatCmd::Complete
FUNC 16d6a0 16c 0 Cmd::RandomCmd::Run
FUNC 16d810 58 0 Cmd::RandomCmd::Complete
FUNC 16d870 29e 0 Cmd::ToggleCmd::Run
FUNC 16db10 63 0 Cmd::ToggleCmd::Complete
FUNC 16db80 3a 0 Str::BasicStringRef<char>::compare
FUNC 16dbc0 5c 0 Sys::QuitCmd::Run
FUNC 16dc20 128 0 Cvar::CvarCommand::Run
FUNC 16dd50 e8 0 Cvar::SetCmd::Run
FUNC 16de40 58 0 Cvar::SetCmd::Complete
FUNC 16dea0 180 0 Cvar::ResetCmd::Run
FUNC 16e020 57 0 Cvar::ResetCmd::Complete
FUNC 16e080 1a29 0 Cvar::ListCvars::Run
FUNC 16fab0 1e3 0 Cvar::ListCvars::Complete
FUNC 16fca0 456 0 DirCmd::Run
FUNC 170100 35d 0 MapCmd::Run
FUNC 170460 4af 0 MapCmd::Complete
FUNC 170910 27 0 ProxyCmd::Run
FUNC 170940 5c1 0 ProxyCmd::Complete
FUNC 170f10 154 0 WhichCmd::Run
FUNC 171070 a0 0 WhichCmd::Complete
FUNC 171110 36d4 0 StatusCmd::Run
FUNC 1747f0 c0 0 std::_Hashtable<std::__cxx11::basic_string<char, std::char_traits<char>, std::allocator<char> >, std::pair<const std::__cxx11::basic_string<char, std::char_traits<char>, std::allocator<char> >, proxyInfo_t>, std::allocator<std::pair<const std::__cxx11::basic_string<char, std::char_traits<char>, std::allocator<char> >, proxyInfo_t> >, std::__detail::_Select1st, Str::IEqual, Str::IHash, std::__detail::_Mod_range_hashing, std::__detail::_Default_ranged_hash, std::__detail::_Prime_rehash_policy, std::__detail::_Hashtable_traits<true, false, true> >::_M_find_before_node
FUNC 1748b0 c0 0 std::_Hashtable<std::__cxx11::basic_string<char, std::char_traits<char>, std::allocator<char> >, std::pair<const std::__cxx11::basic_string<char, std::char_traits<char>, std::allocator<char> >, Cmd::aliasRecord_t>, std::allocator<std::pair<const std::__cxx11::basic_string<char, std::char_traits<char>, std::allocator<char> >, Cmd::aliasRecord_t> >, std::__detail::_Select1st, Str::IEqual, Str::IHash, std::__detail::_Mod_range_hashing, std::__detail::_Default_ranged_hash, std::__detail::_Prime_rehash_policy, std::__detail::_Hashtable_traits<true, false, true> >::_M_find_before_node
FUNC 174970 c0 0 std::_Hashtable<std::__cxx11::basic_string<char, std::char_traits<char>, std::allocator<char> >, std::pair<const std::__cxx11::basic_string<char, std::char_traits<char>, std::allocator<char> >, Cmd::commandRecord_t>, std::allocator<std::pair<const std::__cxx11::basic_string<char, std::char_traits<char>, std::allocator<char> >, Cmd::commandRecord_t> >, std::__detail::_Select1st, Str::IEqual, Str::IHash, std::__detail::_Mod_range_hashing, std::__detail::_Default_ranged_hash, std::__detail::_Prime_rehash_policy, std::__detail::_Hashtable_traits<true, false, true> >::_M_find_before_node
FUNC 174a30 c0 0 std::_Hashtable<std::__cxx11::basic_string<char, std::char_traits<char>, std::allocator<char> >, std::pair<const std::__cxx11::basic_string<char, std::char_traits<char>, std::allocator<char> >, Cvar::cvarRecord_t*>, std::allocator<std::pair<const std::__cxx11::basic_string<char, std::char_traits<char>, std::allocator<char> >, Cvar::cvarRecord_t*> >, std::__detail::_Select1st, Str::IEqual, Str::IHash, std::__detail::_Mod_range_hashing, std::__detail::_Default_ranged_hash, std::__detail::_Prime_rehash_policy, std::__detail::_Hashtable_traits<true, false, true> >::_M_find_before_node
FUNC 174af0 97 0 std::_Hashtable<std::__cxx11::basic_string<char, std::char_traits<char>, std::allocator<char> >, std::pair<const std::__cxx11::basic_string<char, std::char_traits<char>, std::allocator<char> >, std::__cxx11::basic_string<char, std::char_traits<char>, std::allocator<char> > >, std::allocator<std::pair<const std::__cxx11::basic_string<char, std::char_traits<char>, std::allocator<char> >, std::__cxx11::basic_string<char, std::char_traits<char>, std::allocator<char> > > >, std::__detail::_Select1st, std::equal_to<std::__cxx11::basic_string<char, std::char_traits<char>, std::allocator<char> > >, std::hash<std::__cxx11::basic_string<char, std::char_traits<char>, std::allocator<char> > >, std::__detail::_Mod_range_hashing, std::__detail::_Default_ranged_hash, std::__detail::_Prime_rehash_policy, std::__detail::_Hashtable_traits<true, false, true> >::_M_find_before_node
FUNC 174b90 97 0 std::_Hashtable<std::__cxx11::basic_string<char, std::char_traits<char>, std::allocator<char> >, std::pair<const std::__cxx11::basic_string<char, std::char_traits<char>, std::allocator<char> >, std::pair<unsigned int, long long int> >, std::allocator<std::pair<const std::__cxx11::basic_string<char, std::char_traits<char>, std::allocator<char> >, std::pair<unsigned int, long long int> > >, std::__detail::_Select1st, std::equal_to<std::__cxx11::basic_string<char, std::char_traits<char>, std::allocator<char> > >, std::hash<std::__cxx11::basic_string<char, std::char_traits<char>, std::allocator<char> > >, std::__detail::_Mod_range_hashing, std::__detail::_Default_ranged_hash, std::__detail::_Prime_rehash_policy, std::__detail::_Hashtable_traits<true, false, true> >::_M_find_before_node
FUNC 174c30 97 0 std::_Hashtable<std::__cxx11::basic_string<char, std::char_traits<char>, std::allocator<char> >, std::pair<const std::__cxx11::basic_string<char, std::char_traits<char>, std::allocator<char> >, long long unsigned int>, std::allocator<std::pair<const std::__cxx11::basic_string<char, std::char_traits<char>, std::allocator<char> >, long long unsigned int> >, std::__detail::_Select1st, std::equal_to<std::__cxx11::basic_string<char, std::char_traits<char>, std::allocator<char> > >, std::hash<std::__cxx11::basic_string<char, std::char_traits<char>, std::allocator<char> > >, std::__detail::_Mod_range_hashing, std::__detail::_Default_ranged_hash, std::__detail::_Prime_rehash_policy, std::__detail::_Hashtable_traits<true, false, true> >::_M_find_before_node
FUNC 174cd0 3 0 std::ctype<char>::do_widen
FUNC 174ce0 fe 0 std::_Rb_tree<std::__cxx11::basic_string<char, std::char_traits<char>, std::allocator<char> >, std::pair<const std::__cxx11::basic_string<char, std::char_traits<char>, std::allocator<char> >, std::vector<std::__cxx11::basic_string<char, std::char_traits<char>, std::allocator<char> >, std::allocator<std::__cxx11::basic_string<char, std::char_traits<char>, std::allocator<char> > > > >, std::_Select1st<std::pair<const std::__cxx11::basic_string<char, std::char_traits<char>, std::allocator<char> >, std::vector<std::__cxx11::basic_string<char, std::char_traits<char>, std::allocator<char> >, std::allocator<std::__cxx11::basic_string<char, std::char_traits<char>, std::allocator<char> > > > > >, std::less<std::__cxx11::basic_string<char, std::char_traits<char>, std::allocator<char> > >, std::allocator<std::pair<const std::__cxx11::basic_string<char, std::char_traits<char>, std::allocator<char> >, std::vector<std::__cxx11::basic_string<char, std::char_traits<char>, std::allocator<char> >, std::allocator<std::__cxx11::basic_string<char, std::char_traits<char>, std::allocator<char> > > > > > >::find
FUNC 174de0 f7 0 std::_Hashtable<std::__cxx11::basic_string<char, std::char_traits<char>, std::allocator<char> >, std::pair<const std::__cxx11::basic_string<char, std::char_traits<char>, std::allocator<char> >, proxyInfo_t>, std::allocator<std::pair<const std::__cxx11::basic_string<char, std::char_traits<char>, std::allocator<char> >, proxyInfo_t> >, std::__detail::_Select1st, Str::IEqual, Str::IHash, std::__detail::_Mod_range_hashing, std::__detail::_Default_ranged_hash, std::__detail::_Prime_rehash_policy, std::__detail::_Hashtable_traits<true, false, true> >::_M_insert_unique_node
FUNC 174ee0 123 0 std::_Hashtable<std::__cxx11::basic_string<char, std::char_traits<char>, std::allocator<char> >, std::pair<const std::__cxx11::basic_string<char, std::char_traits<char>, std::allocator<char> >, proxyInfo_t>, std::allocator<std::pair<const std::__cxx11::basic_string<char, std::char_traits<char>, std::allocator<char> >, proxyInfo_t> >, std::__detail::_Select1st, Str::IEqual, Str::IHash, std::__detail::_Mod_range_hashing, std::__detail::_Default_ranged_hash, std::__detail::_Prime_rehash_policy, std::__detail::_Hashtable_traits<true, false, true> >::_M_rehash
FUNC 175010 11b 0 std::_Hashtable<std::__cxx11::basic_string<char, std::char_traits<char>, std::allocator<char> >, std::pair<const std::__cxx11::basic_string<char, std::char_traits<char>, std::allocator<char> >, Cmd::aliasRecord_t>, std::allocator<std::pair<const std::__cxx11::basic_string<char, std::char_traits<char>, std::allocator<char> >, Cmd::aliasRecord_t> >, std::__detail::_Select1st, Str::IEqual, Str::IHash, std::__detail::_Mod_range_hashing, std::__detail::_Default_ranged_hash, std::__detail::_Prime_rehash_policy, std::__detail::_Hashtable_traits<true, false, true> >::_M_insert_unique_node
FUNC 175130 9b 0 std::_Hashtable<std::__cxx11::basic_string<char, std::char_traits<char>, std::allocator<char> >, std::pair<const std::__cxx11::basic_string<char, std::char_traits<char>, std::allocator<char> >, Cmd::aliasRecord_t>, std::allocator<std::pair<const std::__cxx11::basic_string<char, std::char_traits<char>, std::allocator<char> >, Cmd::aliasRecord_t> >, std::__detail::_Select1st, Str::IEqual, Str::IHash, std::__detail::_Mod_range_hashing, std::__detail::_Default_ranged_hash, std::__detail::_Prime_rehash_policy, std::__detail::_Hashtable_traits<true, false, true> >::find
FUNC 1751d0 74 0 std::_Hashtable<std::__cxx11::basic_string<char, std::char_traits<char>, std::allocator<char> >, std::pair<const std::__cxx11::basic_string<char, std::char_traits<char>, std::allocator<char> >, Cmd::aliasRecord_t>, std::allocator<std::pair<const std::__cxx11::basic_string<char, std::char_traits<char>, std::allocator<char> >, Cmd::aliasRecord_t> >, std::__detail::_Select1st, Str::IEqual, Str::IHash, std::__detail::_Mod_range_hashing, std::__detail::_Default_ranged_hash, std::__detail::_Prime_rehash_policy, std::__detail::_Hashtable_traits<true, false, true> >::clear
FUNC 175250 eb 0 std::_Hashtable<std::__cxx11::basic_string<char, std::char_traits<char>, std::allocator<char> >, std::pair<const std::__cxx11::basic_string<char, std::char_traits<char>, std::allocator<char> >, Cmd::aliasRecord_t>, std::allocator<std::pair<const std::__cxx11::basic_string<char, std::char_traits<char>, std::allocator<char> >, Cmd::aliasRecord_t> >, std::__detail::_Select1st, Str::IEqual, Str::IHash, std::__detail::_Mod_range_hashing, std::__detail::_Default_ranged_hash, std::__detail::_Prime_rehash_policy, std::__detail::_Hashtable_traits<true, false, true> >::erase
FUNC 175340 123 0 std::_Hashtable<std::__cxx11::basic_string<char, std::char_traits<char>, std::allocator<char> >, std::pair<const std::__cxx11::basic_string<char, std::char_traits<char>, std::allocator<char> >, Cmd::aliasRecord_t>, std::allocator<std::pair<const std::__cxx11::basic_string<char, std::char_traits<char>, std::allocator<char> >, Cmd::aliasRecord_t> >, std::__detail::_Select1st, Str::IEqual, Str::IHash, std::__detail::_Mod_range_hashing, std::__detail::_Default_ranged_hash, std::__detail::_Prime_rehash_policy, std::__detail::_Hashtable_traits<true, false, true> >::_M_rehash
FUNC 175470 100 0 std::_Hashtable<std::__cxx11::basic_string<char, std::char_traits<char>, std::allocator<char> >, std::pair<const std::__cxx11::basic_string<char, std::char_traits<char>, std::allocator<char> >, Cmd::commandRecord_t>, std::allocator<std::pair<const std::__cxx11::basic_string<char, std::char_traits<char>, std::allocator<char> >, Cmd::commandRecord_t> >, std::__detail::_Select1st, Str::IEqual, Str::IHash, std::__detail::_Mod_range_hashing, std::__detail::_Default_ranged_hash, std::__detail::_Prime_rehash_policy, std::__detail::_Hashtable_traits<true, false, true> >::_M_insert_unique_node
FUNC 175570 9b 0 std::_Hashtable<std::__cxx11::basic_string<char, std::char_traits<char>, std::allocator<char> >, std::pair<const std::__cxx11::basic_string<char, std::char_traits<char>, std::allocator<char> >, Cmd::commandRecord_t>, std::allocator<std::pair<const std::__cxx11::basic_string<char, std::char_traits<char>, std::allocator<char> >, Cmd::commandRecord_t> >, std::__detail::_Select1st, Str::IEqual, Str::IHash, std::__detail::_Mod_range_hashing, std::__detail::_Default_ranged_hash, std::__detail::_Prime_rehash_policy, std::__detail::_Hashtable_traits<true, false, true> >::find
FUNC 175610 30 0 std::_Hashtable<std::__cxx11::basic_string<char, std::char_traits<char>, std::allocator<char> >, std::pair<const std::__cxx11::basic_string<char, std::char_traits<char>, std::allocator<char> >, Cmd::commandRecord_t>, std::allocator<std::pair<const std::__cxx11::basic_string<char, std::char_traits<char>, std::allocator<char> >, Cmd::commandRecord_t> >, std::__detail::_Select1st, Str::IEqual, Str::IHash, std::__detail::_Mod_range_hashing, std::__detail::_Default_ranged_hash, std::__detail::_Prime_rehash_policy, std::__detail::_Hashtable_traits<true, false, true> >::erase
FUNC 175640 cb 0 std::_Hashtable<std::__cxx11::basic_string<char, std::char_traits<char>, std::allocator<char> >, std::pair<const std::__cxx11::basic_string<char, std::char_traits<char>, std::allocator<char> >, Cmd::commandRecord_t>, std::allocator<std::pair<const std::__cxx11::basic_string<char, std::char_traits<char>, std::allocator<char> >, Cmd::commandRecord_t> >, std::__detail::_Select1st, Str::IEqual, Str::IHash, std::__detail::_Mod_range_hashing, std::__detail::_Default_ranged_hash, std::__detail::_Prime_rehash_policy, std::__detail::_Hashtable_traits<true, false, true> >::_M_erase
FUNC 175710 123 0 std::_Hashtable<std::__cxx11::basic_string<char, std::char_traits<char>, std::allocator<char> >, std::pair<const std::__cxx11::basic_string<char, std::char_traits<char>, std::allocator<char> >, Cmd::commandRecord_t>, std::allocator<std::pair<const std::__cxx11::basic_string<char, std::char_traits<char>, std::allocator<char> >, Cmd::commandRecord_t> >, std::__detail::_Select1st, Str::IEqual, Str::IHash, std::__detail::_Mod_range_hashing, std::__detail::_Default_ranged_hash, std::__detail::_Prime_rehash_policy, std::__detail::_Hashtable_traits<true, false, true> >::_M_rehash
FUNC 175840 109 0 std::_Hashtable<std::__cxx11::basic_string<char, std::char_traits<char>, std::allocator<char> >, std::pair<const std::__cxx11::basic_string<char, std::char_traits<char>, std::allocator<char> >, Cvar::cvarRecord_t*>, std::allocator<std::pair<const std::__cxx11::basic_string<char, std::char_traits<char>, std::allocator<char> >, Cvar::cvarRecord_t*> >, std::__detail::_Select1st, Str::IEqual, Str::IHash, std::__detail::_Mod_range_hashing, std::__detail::_Default_ranged_hash, std::__detail::_Prime_rehash_policy, std::__detail::_Hashtable_traits<true, false, true> >::_M_insert_unique_node
FUNC 175950 9b 0 std::_Hashtable<std::__cxx11::basic_string<char, std::char_traits<char>, std::allocator<char> >, std::pair<const std::__cxx11::basic_string<char, std::char_traits<char>, std::allocator<char> >, Cvar::cvarRecord_t*>, std::allocator<std::pair<const std::__cxx11::basic_string<char, std::char_traits<char>, std::allocator<char> >, Cvar::cvarRecord_t*> >, std::__detail::_Select1st, Str::IEqual, Str::IHash, std::__detail::_Mod_range_hashing, std::__detail::_Default_ranged_hash, std::__detail::_Prime_rehash_policy, std::__detail::_Hashtable_traits<true, false, true> >::find
FUNC 1759f0 123 0 std::_Hashtable<std::__cxx11::basic_string<char, std::char_traits<char>, std::allocator<char> >, std::pair<const std::__cxx11::basic_string<char, std::char_traits<char>, std::allocator<char> >, Cvar::cvarRecord_t*>, std::allocator<std::pair<const std::__cxx11::basic_string<char, std::char_traits<char>, std::allocator<char> >, Cvar::cvarRecord_t*> >, std::__detail::_Select1st, Str::IEqual, Str::IHash, std::__detail::_Mod_range_hashing, std::__detail::_Default_ranged_hash, std::__detail::_Prime_rehash_policy, std::__detail::_Hashtable_traits<true, false, true> >::_M_rehash
FUNC 175b20 11b 0 std::_Hashtable<std::__cxx11::basic_string<char, std::char_traits<char>, std::allocator<char> >, std::pair<const std::__cxx11::basic_string<char, std::char_traits<char>, std::allocator<char> >, std::__cxx11::basic_string<char, std::char_traits<char>, std::allocator<char> > >, std::allocator<std::pair<const std::__cxx11::basic_string<char, std::char_traits<char>, std::allocator<char> >, std::__cxx11::basic_string<char, std::char_traits<char>, std::allocator<char> > > >, std::__detail::_Select1st, std::equal_to<std::__cxx11::basic_string<char, std::char_traits<char>, std::allocator<char> > >, std::hash<std::__cxx11::basic_string<char, std::char_traits<char>, std::allocator<char> > >, std::__detail::_Mod_range_hashing, std::__detail::_Default_ranged_hash, std::__detail::_Prime_rehash_policy, std::__detail::_Hashtable_traits<true, false, true> >::_M_insert_unique_node
FUNC 175c40 123 0 std::_Hashtable<std::__cxx11::basic_string<char, std::char_traits<char>, std::allocator<char> >, std::pair<const std::__cxx11::basic_string<char, std::char_traits<char>, std::allocator<char> >, std::__cxx11::basic_string<char, std::char_traits<char>, std::allocator<char> > >, std::allocator<std::pair<const std::__cxx11::basic_string<char, std::char_traits<char>, std::allocator<char> >, std::__cxx11::basic_string<char, std::char_traits<char>, std::allocator<char> > > >, std::__detail::_Select1st, std::equal_to<std::__cxx11::basic_string<char, std::char_traits<char>, std::allocator<char> > >, std::hash<std::__cxx11::basic_string<char, std::char_traits<char>, std::allocator<char> > >, std::__detail::_Mod_range_hashing, std::__detail::_Default_ranged_hash, std::__detail::_Prime_rehash_policy, std::__detail::_Hashtable_traits<true, false, true> >::_M_rehash
FUNC 175d70 107 0 std::_Hashtable<std::__cxx11::basic_string<char, std::char_traits<char>, std::allocator<char> >, std::pair<const std::__cxx11::basic_string<char, std::char_traits<char>, std::allocator<char> >, std::pair<unsigned int, long long int> >, std::allocator<std::pair<const std::__cxx11::basic_string<char, std::char_traits<char>, std::allocator<char> >, std::pair<unsigned int, long long int> > >, std::__detail::_Select1st, std::equal_to<std::__cxx11::basic_string<char, std::char_traits<char>, std::allocator<char> > >, std::hash<std::__cxx11::basic_string<char, std::char_traits<char>, std::allocator<char> > >, std::__detail::_Mod_range_hashing, std::__detail::_Default_ranged_hash, std::__detail::_Prime_rehash_policy, std::__detail::_Hashtable_traits<true, false, true> >::_M_emplace<Str::BasicStringRef<char>&, std::pair<unsigned int, long long int> >
FUNC 175e80 107 0 std::_Hashtable<std::__cxx11::basic_string<char, std::char_traits<char>, std::allocator<char> >, std::pair<const std::__cxx11::basic_string<char, std::char_traits<char>, std::allocator<char> >, std::pair<unsigned int, long long int> >, std::allocator<std::pair<const std::__cxx11::basic_string<char, std::char_traits<char>, std::allocator<char> >, std::pair<unsigned int, long long int> > >, std::__detail::_Select1st, std::equal_to<std::__cxx11::basic_string<char, std::char_traits<char>, std::allocator<char> > >, std::hash<std::__cxx11::basic_string<char, std::char_traits<char>, std::allocator<char> > >, std::__detail::_Mod_range_hashing, std::__detail::_Default_ranged_hash, std::__detail::_Prime_rehash_policy, std::__detail::_Hashtable_traits<true, false, true> >::_M_emplace<const std::__cxx11::basic_string<char, std::char_traits<char>, std::allocator<char> >&, std::pair<unsigned int, long long int> >
FUNC 175f90 f7 0 std::_Hashtable<std::__cxx11::basic_string<char, std::char_traits<char>, std::allocator<char> >, std::pair<const std::__cxx11::basic_string<char, std::char_traits<char>, std::allocator<char> >, std::pair<unsigned int, long long int> >, std::allocator<std::pair<const std::__cxx11::basic_string<char, std::char_traits<char>, std::allocator<char> >, std::pair<unsigned int, long long int> > >, std::__detail::_Select1st, std::equal_to<std::__cxx11::basic_string<char, std::char_traits<char>, std::allocator<char> > >, std::hash<std::__cxx11::basic_string<char, std::char_traits<char>, std::allocator<char> > >, std::__detail::_Mod_range_hashing, std::__detail::_Default_ranged_hash, std::__detail::_Prime_rehash_policy, std::__detail::_Hashtable_traits<true, false, true> >::_M_insert_unique_node
FUNC 176090 59 0 std::_Hashtable<std::__cxx11::basic_string<char, std::char_traits<char>, std::allocator<char> >, std::pair<const std::__cxx11::basic_string<char, std::char_traits<char>, std::allocator<char> >, std::pair<unsigned int, long long int> >, std::allocator<std::pair<const std::__cxx11::basic_string<char, std::char_traits<char>, std::allocator<char> >, std::pair<unsigned int, long long int> > >, std::__detail::_Select1st, std::equal_to<std::__cxx11::basic_string<char, std::char_traits<char>, std::allocator<char> > >, std::hash<std::__cxx11::basic_string<char, std::char_traits<char>, std::allocator<char> > >, std::__detail::_Mod_range_hashing, std::__detail::_Default_ranged_hash, std::__detail::_Prime_rehash_policy, std::__detail::_Hashtable_traits<true, false, true> >::find
FUNC 1760f0 4b 0 std::_Hashtable<std::__cxx11::basic_string<char, std::char_traits<char>, std::allocator<char> >, std::pair<const std::__cxx11::basic_string<char, std::char_traits<char>, std::allocator<char> >, std::pair<unsigned int, long long int> >, std::allocator<std::pair<const std::__cxx11::basic_string<char, std::char_traits<char>, std::allocator<char> >, std::pair<unsigned int, long long int> > >, std::__detail::_Select1st, std::equal_to<std::__cxx11::basic_string<char, std::char_traits<char>, std::allocator<char> > >, std::hash<std::__cxx11::basic_string<char, std::char_traits<char>, std::allocator<char> > >, std::__detail::_Mod_range_hashing, std::__detail::_Default_ranged_hash, std::__detail::_Prime_rehash_policy, std::__detail::_Hashtable_traits<true, false, true> >::clear
FUNC 176140 240 0 std::_Hashtable<std::__cxx11::basic_string<char, std::char_traits<char>, std::allocator<char> >, std::pair<const std::__cxx11::basic_string<char, std::char_traits<char>, std::allocator<char> >, std::pair<unsigned int, long long int> >, std::allocator<std::pair<const std::__cxx11::basic_string<char, std::char_traits<char>, std::allocator<char> >, std::pair<unsigned int, long long int> > >, std::__detail::_Select1st, std::equal_to<std::__cxx11::basic_string<char, std::char_traits<char>, std::allocator<char> > >, std::hash<std::__cxx11::basic_string<char, std::char_traits<char>, std::allocator<char> > >, std::__detail::_Mod_range_hashing, std::__detail::_Default_ranged_hash, std::__detail::_Prime_rehash_policy, std::__detail::_Hashtable_traits<true, false, true> >::_M_assign<std::_Hashtable<_Key, _Value, _Alloc, _ExtractKey, _Equal, _H1, _H2, _Hash, _RehashPolicy, _Traits>::operator=(const std::_Hashtable<_Key, _Value, _Alloc, _ExtractKey, _Equal, _H1, _H2, _Hash, _RehashPolicy, _Traits>&) [with _Key = std::__cxx11::basic_string<char>; _Value = std::pair<const std::__cxx11::basic_string<char>, std::pair<unsigned int, long long int> >; _Alloc = std::allocator<std::pair<const std::__cxx11::basic_string<char>, std::pair<unsigned int, long long int> > >; _ExtractKey = std::__detail::_Select1st; _Equal = std::equal_to<std::__cxx11::basic_string<char> >; _H1 = std::hash<std::__cxx11::basic_string<char> >; _H2 = std::__detail::_Mod_range_hashing; _Hash = std::__detail::_Default_ranged_hash; _RehashPolicy = std::__detail::_Prime_rehash_policy; _Traits = std::__detail::_Hashtable_traits<true, false, true>]::<lambda(const __node_type*)> >
FUNC 176380 ee 0 std::_Hashtable<std::__cxx11::basic_string<char, std::char_traits<char>, std::allocator<char> >, std::pair<const std::__cxx11::basic_string<char, std::char_traits<char>, std::allocator<char> >, std::pair<unsigned int, long long int> >, std::allocator<std::pair<const std::__cxx11::basic_string<char, std::char_traits<char>, std::allocator<char> >, std::pair<unsigned int, long long int> > >, std::__detail::_Select1st, std::equal_to<std::__cxx11::basic_string<char, std::char_traits<char>, std::allocator<char> > >, std::hash<std::__cxx11::basic_string<char, std::char_traits<char>, std::allocator<char> > >, std::__detail::_Mod_range_hashing, std::__detail::_Default_ranged_hash, std::__detail::_Prime_rehash_policy, std::__detail::_Hashtable_traits<true, false, true> >::_M_rehash
FUNC 176470 29 0 std::_Hashtable<std::__cxx11::basic_string<char, std::char_traits<char>, std::allocator<char> >, std::pair<const std::__cxx11::basic_string<char, std::char_traits<char>, std::allocator<char> >, std::pair<unsigned int, long long int> >, std::allocator<std::pair<const std::__cxx11::basic_string<char, std::char_traits<char>, std::allocator<char> >, std::pair<unsigned int, long long int> > >, std::__detail::_Select1st, std::equal_to<std::__cxx11::basic_string<char, std::char_traits<char>, std::allocator<char> > >, std::hash<std::__cxx11::basic_string<char, std::char_traits<char>, std::allocator<char> > >, std::__detail::_Mod_range_hashing, std::__detail::_Default_ranged_hash, std::__detail::_Prime_rehash_policy, std::__detail::_Hashtable_traits<true, false, true> >::~_Hashtable
FUNC 1764a0 109 0 std::_Hashtable<std::__cxx11::basic_string<char, std::char_traits<char>, std::allocator<char> >, std::pair<const std::__cxx11::basic_string<char, std::char_traits<char>, std::allocator<char> >, long long unsigned int>, std::allocator<std::pair<const std::__cxx11::basic_string<char, std::char_traits<char>, std::allocator<char> >, long long unsigned int> >, std::__detail::_Select1st, std::equal_to<std::__cxx11::basic_string<char, std::char_traits<char>, std::allocator<char> > >, std::hash<std::__cxx11::basic_string<char, std::char_traits<char>, std::allocator<char> > >, std::__detail::_Mod_range_hashing, std::__detail::_Default_ranged_hash, std::__detail::_Prime_rehash_policy, std::__detail::_Hashtable_traits<true, false, true> >::_M_insert_unique_node
FUNC 1765b0 123 0 std::_Hashtable<std::__cxx11::basic_string<char, std::char_traits<char>, std::allocator<char> >, std::pair<const std::__cxx11::basic_string<char, std::char_traits<char>, std::allocator<char> >, long long unsigned int>, std::allocator<std::pair<const std::__cxx11::basic_string<char, std::char_traits<char>, std::allocator<char> >, long long unsigned int> >, std::__detail::_Select1st, std::equal_to<std::__cxx11::basic_string<char, std::char_traits<char>, std::allocator<char> > >, std::hash<std::__cxx11::basic_string<char, std::char_traits<char>, std::allocator<char> > >, std::__detail::_Mod_range_hashing, std::__detail::_Default_ranged_hash, std::__detail::_Prime_rehash_policy, std::__detail::_Hashtable_traits<true, false, true> >::_M_rehash
FUNC 1766e0 104 0 std::_Hashtable<unsigned int, std::pair<unsigned int const, Util::Reader>, std::allocator<std::pair<unsigned int const, Util::Reader> >, std::__detail::_Select1st, std::equal_to<unsigned int>, std::hash<unsigned int>, std::__detail::_Mod_range_hashing, std::__detail::_Default_ranged_hash, std::__detail::_Prime_rehash_policy, std::__detail::_Hashtable_traits<false, false, true> >::~_Hashtable
FUNC 1767f0 16f 0 std::_Deque_base<Challenge, std::allocator<Challenge> >::_M_initialize_map
FUNC 176960 36 0 std::_Tuple_impl<0, std::__cxx11::basic_string<char, std::char_traits<char>, std::allocator<char> >, std::__cxx11::basic_string<char, std::char_traits<char>, std::allocator<char> > >::~_Tuple_impl
FUNC 1769a0 19f 0 std::_Tuple_impl<0, std::__cxx11::basic_string<char, std::char_traits<char>, std::allocator<char> >, std::__cxx11::basic_string<char, std::char_traits<char>, std::allocator<char> >, std::vector<FS::PakInfo, std::allocator<FS::PakInfo> >, std::vector<FS::LoadedPakInfo, std::allocator<FS::LoadedPakInfo> >, std::unordered_map<std::__cxx11::basic_string<char, std::char_traits<char>, std::allocator<char> >, std::pair<unsigned int, long long int>, std::hash<std::__cxx11::basic_string<char, std::char_traits<char>, std::allocator<char> > >, std::equal_to<std::__cxx11::basic_string<char, std::char_traits<char>, std::allocator<char> > >, std::allocator<std::pair<const std::__cxx11::basic_string<char, std::char_traits<char>, std::allocator<char> >, std::pair<unsigned int, long long int> > > > >::~_Tuple_impl
FUNC 176b40 37 0 std::_Tuple_impl<0, std::__cxx11::basic_string<char, std::char_traits<char>, std::allocator<char> >, std::__cxx11::basic_string<char, std::char_traits<char>, std::allocator<char> >, int>::~_Tuple_impl
FUNC 176b80 30 0 std::unique_lock<std::mutex>::unlock
FUNC 176bb0 36 0 std::_Function_base::_Base_manager<void (*)(bool)>::_M_manager
FUNC 176bf0 5 0 std::_Sp_counted_ptr<Cvar::Cvar<Log::Level>*, (__gnu_cxx::_Lock_policy)2>::_M_destroy
FUNC 176c00 11 0 std::_Sp_counted_ptr<Cvar::Cvar<Log::Level>*, (__gnu_cxx::_Lock_policy)2>::_M_dispose
FUNC 176c20 3 0 std::_Sp_counted_ptr<Cvar::Cvar<Log::Level>*, (__gnu_cxx::_Lock_policy)2>::_M_get_deleter
FUNC 176c30 5 0 std::_Sp_counted_ptr<Cvar::Cvar<Log::Level>*, (__gnu_cxx::_Lock_policy)2>::~_Sp_counted_ptr
FUNC 176c40 1 0 std::_Sp_counted_ptr<Cvar::Cvar<Log::Level>*, (__gnu_cxx::_Lock_policy)2>::~_Sp_counted_ptr
FUNC 176c50 34 0 std::_Sp_counted_base<(__gnu_cxx::_Lock_policy)2>::_M_release
FUNC 176c90 b 0 std::_Function_handler<void(bool), void (*)(bool)>::_M_invoke
FUNC 176ca0 ec1 0 std::_V2::__rotate<__gnu_cxx::__normal_iterator<FS::PakInfo*, std::vector<FS::PakInfo> > >
FUNC 177b70 115 0 std::map<std::__cxx11::basic_string<char, std::char_traits<char>, std::allocator<char> >, std::__cxx11::basic_string<char, std::char_traits<char>, std::allocator<char> >, std::less<std::__cxx11::basic_string<char, std::char_traits<char>, std::allocator<char> > >, std::allocator<std::pair<const std::__cxx11::basic_string<char, std::char_traits<char>, std::allocator<char> >, std::__cxx11::basic_string<char, std::char_traits<char>, std::allocator<char> > > > >::operator[]
FUNC 177c90 36 0 std::pair<const std::__cxx11::basic_string<char, std::char_traits<char>, std::allocator<char> >, Cmd::commandRecord_t>::~pair
FUNC 177cd0 36 0 std::pair<std::__cxx11::basic_string<char, std::char_traits<char>, std::allocator<char> >, std::__cxx11::basic_string<char, std::char_traits<char>, std::allocator<char> > >::~pair
FUNC 177d10 4c 0 std::deque<Challenge, std::allocator<Challenge> >::_M_pop_front_aux
FUNC 177d60 28c 0 std::deque<Challenge, std::allocator<Challenge> >::_M_push_back_aux<const Challenge&>
FUNC 177ff0 803 0 std::deque<Challenge, std::allocator<Challenge> >::_M_erase
FUNC 178800 eec 0 std::deque<Challenge, std::allocator<Challenge> >::_M_erase
FUNC 1796f0 208 0 std::deque<Challenge, std::allocator<Challenge> >::~deque
FUNC 179900 4 0 std::thread::_State_impl<std::thread::_Invoker<std::tuple<void (*)()> > >::_M_run
FUNC 179910 24 0 std::thread::_State_impl<std::thread::_Invoker<std::tuple<void (*)()> > >::~_State_impl
FUNC 179940 f 0 std::thread::_State_impl<std::thread::_Invoker<std::tuple<void (*)()> > >::~_State_impl
FUNC 179950 74 0 std::thread::thread<void (&)()>
FUNC 1799d0 627 0 std::vector<FS::LoadedPakInfo, std::allocator<FS::LoadedPakInfo> >::_M_realloc_insert<>
FUNC 17a000 5f7 0 std::vector<FS::LoadedPakInfo, std::allocator<FS::LoadedPakInfo> >::operator=
FUNC 17a600 4f3 0 std::vector<FS::PakInfo, std::allocator<FS::PakInfo> >::_M_realloc_insert<const FS::PakInfo&>
FUNC 17ab00 487 0 std::vector<FS::PakInfo, std::allocator<FS::PakInfo> >::_M_realloc_insert<FS::PakInfo>
FUNC 17af90 c9 0 std::vector<FS::PakInfo, std::allocator<FS::PakInfo> >::~vector
FUNC 17b060 42f 0 std::vector<FS::PakInfo, std::allocator<FS::PakInfo> >::operator=
FUNC 17b490 40c 0 std::vector<FS::RawPath::DirectoryRange, std::allocator<FS::RawPath::DirectoryRange> >::emplace_back<FS::RawPath::DirectoryRange>
FUNC 17b8a0 316 0 std::vector<Cmd::BufferEntry, std::allocator<Cmd::BufferEntry> >::_M_realloc_insert<Cmd::BufferEntry>
FUNC 17bbc0 e7 0 std::vector<Cmd::delayRecord_t, std::allocator<Cmd::delayRecord_t> >::emplace_back<Cmd::delayRecord_t>
FUNC 17bcb0 42a 0 std::vector<Cmd::delayRecord_t, std::allocator<Cmd::delayRecord_t> >::_M_realloc_insert<Cmd::delayRecord_t>
FUNC 17c0e0 1c6 0 std::vector<Cmd::delayRecord_t, std::allocator<Cmd::delayRecord_t> >::_M_erase
FUNC 17c2b0 128 0 std::vector<IPC::FileDesc, std::allocator<IPC::FileDesc> >::_M_realloc_insert<>
FUNC 17c3e0 137 0 std::vector<IPC::FileDesc, std::allocator<IPC::FileDesc> >::_M_realloc_insert<const IPC::FileDesc&>
FUNC 17c520 278 0 std::vector<Log::Event, std::allocator<Log::Event> >::_M_realloc_insert<const Log::Event&>
FUNC 17c7a0 6e 0 std::vector<std::__cxx11::basic_string<char, std::char_traits<char>, std::allocator<char> >, std::allocator<std::__cxx11::basic_string<char, std::char_traits<char>, std::allocator<char> > > >::emplace_back<std::__cxx11::basic_string<char, std::char_traits<char>, std::allocator<char> > >
FUNC 17c810 221 0 std::vector<std::__cxx11::basic_string<char, std::char_traits<char>, std::allocator<char> >, std::allocator<std::__cxx11::basic_string<char, std::char_traits<char>, std::allocator<char> > > >::_M_default_append
FUNC 17ca40 278 0 std::vector<std::__cxx11::basic_string<char, std::char_traits<char>, std::allocator<char> >, std::allocator<std::__cxx11::basic_string<char, std::char_traits<char>, std::allocator<char> > > >::_M_realloc_insert<const std::__cxx11::basic_string<char, std::char_traits<char>, std::allocator<char> >&>
FUNC 17ccc0 2c0 0 std::vector<std::__cxx11::basic_string<char, std::char_traits<char>, std::allocator<char> >, std::allocator<std::__cxx11::basic_string<char, std::char_traits<char>, std::allocator<char> > > >::_M_realloc_insert<std::__cxx11::basic_string<char, std::char_traits<char>, std::allocator<char> >&, long long unsigned int&, long long unsigned int>
FUNC 17cf80 276 0 std::vector<std::__cxx11::basic_string<char, std::char_traits<char>, std::allocator<char> >, std::allocator<std::__cxx11::basic_string<char, std::char_traits<char>, std::allocator<char> > > >::_M_realloc_insert<std::__cxx11::basic_string<char, std::char_traits<char>, std::allocator<char> > >
FUNC 17d200 59 0 std::vector<std::__cxx11::basic_string<char, std::char_traits<char>, std::allocator<char> >, std::allocator<std::__cxx11::basic_string<char, std::char_traits<char>, std::allocator<char> > > >::~vector
FUNC 17d260 2ac 0 std::vector<std::__cxx11::basic_string<char, std::char_traits<char>, std::allocator<char> >, std::allocator<std::__cxx11::basic_string<char, std::char_traits<char>, std::allocator<char> > > >::operator=
FUNC 17d510 117 0 std::vector<const Cmd::aliasRecord_t*, std::allocator<const Cmd::aliasRecord_t*> >::_M_realloc_insert<const Cmd::aliasRecord_t*>
FUNC 17d630 117 0 std::vector<const Cmd::commandRecord_t*, std::allocator<const Cmd::commandRecord_t*> >::_M_realloc_insert<const Cmd::commandRecord_t*>
FUNC 17d750 117 0 std::vector<const std::__cxx11::basic_string<char, std::char_traits<char>, std::allocator<char> >*, std::allocator<const std::__cxx11::basic_string<char, std::char_traits<char>, std::allocator<char> >*> >::_M_realloc_insert<const std::__cxx11::basic_string<char, std::char_traits<char>, std::allocator<char> >*>
FUNC 17d870 2d 0 std::vector<char const*, std::allocator<char const*> >::emplace_back<char const*>
FUNC 17d8a0 117 0 std::vector<char const*, std::allocator<char const*> >::_M_realloc_insert<char const*>
FUNC 17d9c0 117 0 std::vector<tinygettext::LanguageSpec*, std::allocator<tinygettext::LanguageSpec*> >::_M_realloc_insert<tinygettext::LanguageSpec*>
FUNC 17dae0 117 0 std::vector<google_breakpad::ExceptionHandler*, std::allocator<google_breakpad::ExceptionHandler*> >::_M_realloc_insert<google_breakpad::ExceptionHandler*>
FUNC 17dc00 117 0 std::vector<Cvar::cvarRecord_t*, std::allocator<Cvar::cvarRecord_t*> >::_M_realloc_insert<Cvar::cvarRecord_t* const&>
FUNC 17dd20 117 0 std::vector<char*, std::allocator<char*> >::_M_realloc_insert<char* const&>
FUNC 17de40 117 0 std::vector<void*, std::allocator<void*> >::_M_realloc_insert<void* const&>
FUNC 17df60 20f 0 std::vector<std::unique_ptr<VM::CommonVMServices::ProxyCvar, std::default_delete<VM::CommonVMServices::ProxyCvar> >, std::allocator<std::unique_ptr<VM::CommonVMServices::ProxyCvar, std::default_delete<VM::CommonVMServices::ProxyCvar> > > >::_M_realloc_insert<VM::CommonVMServices::ProxyCvar*>
FUNC 17e170 8f 0 std::vector<std::pair<std::__cxx11::basic_string<char, std::char_traits<char>, std::allocator<char> >, std::__cxx11::basic_string<char, std::char_traits<char>, std::allocator<char> > >, std::allocator<std::pair<std::__cxx11::basic_string<char, std::char_traits<char>, std::allocator<char> >, std::__cxx11::basic_string<char, std::char_traits<char>, std::allocator<char> > > > >::emplace_back<std::__cxx11::basic_string<char, std::char_traits<char>, std::allocator<char> >&, char const (&)[1]>
FUNC 17e200 c7 0 std::vector<std::pair<std::__cxx11::basic_string<char, std::char_traits<char>, std::allocator<char> >, std::__cxx11::basic_string<char, std::char_traits<char>, std::allocator<char> > >, std::allocator<std::pair<std::__cxx11::basic_string<char, std::char_traits<char>, std::allocator<char> >, std::__cxx11::basic_string<char, std::char_traits<char>, std::allocator<char> > > > >::emplace_back<std::pair<std::__cxx11::basic_string<char, std::char_traits<char>, std::allocator<char> >, std::__cxx11::basic_string<char, std::char_traits<char>, std::allocator<char> > > >
FUNC 17e2d0 2b1 0 std::vector<std::pair<std::__cxx11::basic_string<char, std::char_traits<char>, std::allocator<char> >, std::__cxx11::basic_string<char, std::char_traits<char>, std::allocator<char> > >, std::allocator<std::pair<std::__cxx11::basic_string<char, std::char_traits<char>, std::allocator<char> >, std::__cxx11::basic_string<char, std::char_traits<char>, std::allocator<char> > > > >::_M_default_append
FUNC 17e590 369 0 std::vector<std::pair<std::__cxx11::basic_string<char, std::char_traits<char>, std::allocator<char> >, std::__cxx11::basic_string<char, std::char_traits<char>, std::allocator<char> > >, std::allocator<std::pair<std::__cxx11::basic_string<char, std::char_traits<char>, std::allocator<char> >, std::__cxx11::basic_string<char, std::char_traits<char>, std::allocator<char> > > > >::_M_realloc_insert<std::__cxx11::basic_string<char, std::char_traits<char>, std::allocator<char> >&, char const (&)[1]>
FUNC 17e900 37c 0 std::vector<std::pair<std::__cxx11::basic_string<char, std::char_traits<char>, std::allocator<char> >, std::__cxx11::basic_string<char, std::char_traits<char>, std::allocator<char> > >, std::allocator<std::pair<std::__cxx11::basic_string<char, std::char_traits<char>, std::allocator<char> >, std::__cxx11::basic_string<char, std::char_traits<char>, std::allocator<char> > > > >::_M_realloc_insert<std::pair<std::__cxx11::basic_string<char, std::char_traits<char>, std::allocator<char> >, std::__cxx11::basic_string<char, std::char_traits<char>, std::allocator<char> > > >
FUNC 17ec80 6b 0 std::vector<std::pair<std::__cxx11::basic_string<char, std::char_traits<char>, std::allocator<char> >, std::__cxx11::basic_string<char, std::char_traits<char>, std::allocator<char> > >, std::allocator<std::pair<std::__cxx11::basic_string<char, std::char_traits<char>, std::allocator<char> >, std::__cxx11::basic_string<char, std::char_traits<char>, std::allocator<char> > > > >::~vector
FUNC 17ecf0 db 0 std::vector<std::tuple<std::__cxx11::basic_string<char, std::char_traits<char>, std::allocator<char> >, std::__cxx11::basic_string<char, std::char_traits<char>, std::allocator<char> >, unsigned int>, std::allocator<std::tuple<std::__cxx11::basic_string<char, std::char_traits<char>, std::allocator<char> >, std::__cxx11::basic_string<char, std::char_traits<char>, std::allocator<char> >, unsigned int> > >::emplace_back<std::__cxx11::basic_string<char, std::char_traits<char>, std::allocator<char> >, std::__cxx11::basic_string<char, std::char_traits<char>, std::allocator<char> >, unsigned int&>
FUNC 17edd0 3a7 0 std::vector<std::tuple<std::__cxx11::basic_string<char, std::char_traits<char>, std::allocator<char> >, std::__cxx11::basic_string<char, std::char_traits<char>, std::allocator<char> >, unsigned int>, std::allocator<std::tuple<std::__cxx11::basic_string<char, std::char_traits<char>, std::allocator<char> >, std::__cxx11::basic_string<char, std::char_traits<char>, std::allocator<char> >, unsigned int> > >::_M_realloc_insert<std::__cxx11::basic_string<char, std::char_traits<char>, std::allocator<char> >, std::__cxx11::basic_string<char, std::char_traits<char>, std::allocator<char> >, unsigned int&>
FUNC 17f180 221 0 std::vector<char, std::allocator<char> >::_M_range_insert<char const*>
FUNC 17f3b0 221 0 std::vector<char, std::allocator<char> >::_M_range_insert<char*>
FUNC 17f5e0 102 0 std::vector<unsigned char, std::allocator<unsigned char> >::emplace_back<unsigned char>
FUNC 17f6f0 212 0 std::vector<unsigned char, std::allocator<unsigned char> >::_M_fill_insert
FUNC 17f910 57 0 std::vector<unsigned char, std::allocator<unsigned char> >::_M_erase
FUNC 17f970 fe 0 std::vector<unsigned char, std::allocator<unsigned char> >::operator=
FUNC 17fa70 2cc 0 std::__cxx11::basic_string<char32_t, std::char_traits<char32_t>, std::allocator<char32_t> >::_M_replace
FUNC 17fd40 6d 0 std::__cxx11::basic_string<char32_t, std::char_traits<char32_t>, std::allocator<char32_t> >::_M_erase
FUNC 17fdb0 12a 0 std::__cxx11::basic_string<char32_t, std::char_traits<char32_t>, std::allocator<char32_t> >::_M_mutate
FUNC 17fee0 262 0 std::__cxx11::basic_string<unsigned char, std::char_traits<unsigned char>, std::allocator<unsigned char> >::_M_replace
FUNC 180150 108 0 std::__cxx11::basic_string<unsigned char, std::char_traits<unsigned char>, std::allocator<unsigned char> >::_M_mutate
FUNC 180260 a4 0 std::__cxx11::basic_string<wchar_t, std::char_traits<wchar_t>, std::allocator<wchar_t> >::_M_construct<wchar_t const*>
FUNC 180310 44 0 std::__cxx11::basic_stringbuf<char, std::char_traits<char>, std::allocator<char> >::~basic_stringbuf
FUNC 180360 3a 0 std::_Rb_tree<tinygettext::Language, tinygettext::Language, std::_Identity<tinygettext::Language>, std::less<tinygettext::Language>, std::allocator<tinygettext::Language> >::_M_erase
FUNC 1803a0 c8 0 std::_Rb_tree<tinygettext::Language, std::pair<const tinygettext::Language, tinygettext::Dictionary*>, std::_Select1st<std::pair<const tinygettext::Language, tinygettext::Dictionary*> >, std::less<tinygettext::Language>, std::allocator<std::pair<const tinygettext::Language, tinygettext::Dictionary*> > >::_M_get_insert_unique_pos
FUNC 180470 3a 0 std::_Rb_tree<tinygettext::Language, std::pair<const tinygettext::Language, tinygettext::Dictionary*>, std::_Select1st<std::pair<const tinygettext::Language, tinygettext::Dictionary*> >, std::less<tinygettext::Language>, std::allocator<std::pair<const tinygettext::Language, tinygettext::Dictionary*> > >::_M_erase
FUNC 1804b0 4c 0 std::_Rb_tree<std::__cxx11::basic_string<char, std::char_traits<char>, std::allocator<char> >, std::__cxx11::basic_string<char, std::char_traits<char>, std::allocator<char> >, std::_Identity<std::__cxx11::basic_string<char, std::char_traits<char>, std::allocator<char> > >, std::less<std::__cxx11::basic_string<char, std::char_traits<char>, std::allocator<char> > >, std::allocator<std::__cxx11::basic_string<char, std::char_traits<char>, std::allocator<char> > > >::_M_erase
FUNC 180500 181 0 std::_Rb_tree<std::__cxx11::basic_string<char, std::char_traits<char>, std::allocator<char> >, std::pair<const std::__cxx11::basic_string<char, std::char_traits<char>, std::allocator<char> >, tinygettext::PluralForms>, std::_Select1st<std::pair<const std::__cxx11::basic_string<char, std::char_traits<char>, std::allocator<char> >, tinygettext::PluralForms> >, std::less<std::__cxx11::basic_string<char, std::char_traits<char>, std::allocator<char> > >, std::allocator<std::pair<const std::__cxx11::basic_string<char, std::char_traits<char>, std::allocator<char> >, tinygettext::PluralForms> > >::_M_get_insert_unique_pos
FUNC 180690 4c 0 std::_Rb_tree<std::__cxx11::basic_string<char, std::char_traits<char>, std::allocator<char> >, std::pair<const std::__cxx11::basic_string<char, std::char_traits<char>, std::allocator<char> >, tinygettext::PluralForms>, std::_Select1st<std::pair<const std::__cxx11::basic_string<char, std::char_traits<char>, std::allocator<char> >, tinygettext::PluralForms> >, std::less<std::__cxx11::basic_string<char, std::char_traits<char>, std::allocator<char> > >, std::allocator<std::pair<const std::__cxx11::basic_string<char, std::char_traits<char>, std::allocator<char> >, tinygettext::PluralForms> > >::_M_erase
FUNC 1806e0 181 0 std::_Rb_tree<std::__cxx11::basic_string<char, std::char_traits<char>, std::allocator<char> >, std::pair<const std::__cxx11::basic_string<char, std::char_traits<char>, std::allocator<char> >, std::__cxx11::basic_string<char, std::char_traits<char>, std::allocator<char> > >, std::_Select1st<std::pair<const std::__cxx11::basic_string<char, std::char_traits<char>, std::allocator<char> >, std::__cxx11::basic_string<char, std::char_traits<char>, std::allocator<char> > > >, std::less<std::__cxx11::basic_string<char, std::char_traits<char>, std::allocator<char> > >, std::allocator<std::pair<const std::__cxx11::basic_string<char, std::char_traits<char>, std::allocator<char> >, std::__cxx11::basic_string<char, std::char_traits<char>, std::allocator<char> > > > >::_M_get_insert_unique_pos
FUNC 180870 282 0 std::_Rb_tree<std::__cxx11::basic_string<char, std::char_traits<char>, std::allocator<char> >, std::pair<const std::__cxx11::basic_string<char, std::char_traits<char>, std::allocator<char> >, std::__cxx11::basic_string<char, std::char_traits<char>, std::allocator<char> > >, std::_Select1st<std::pair<const std::__cxx11::basic_string<char, std::char_traits<char>, std::allocator<char> >, std::__cxx11::basic_string<char, std::char_traits<char>, std::allocator<char> > > >, std::less<std::__cxx11::basic_string<char, std::char_traits<char>, std::allocator<char> > >, std::allocator<std::pair<const std::__cxx11::basic_string<char, std::char_traits<char>, std::allocator<char> >, std::__cxx11::basic_string<char, std::char_traits<char>, std::allocator<char> > > > >::_M_get_insert_hint_unique_pos
FUNC 180b00 2d3 0 std::_Rb_tree<std::__cxx11::basic_string<char, std::char_traits<char>, std::allocator<char> >, std::pair<const std::__cxx11::basic_string<char, std::char_traits<char>, std::allocator<char> >, std::__cxx11::basic_string<char, std::char_traits<char>, std::allocator<char> > >, std::_Select1st<std::pair<const std::__cxx11::basic_string<char, std::char_traits<char>, std::allocator<char> >, std::__cxx11::basic_string<char, std::char_traits<char>, std::allocator<char> > > >, std::less<std::__cxx11::basic_string<char, std::char_traits<char>, std::allocator<char> > >, std::allocator<std::pair<const std::__cxx11::basic_string<char, std::char_traits<char>, std::allocator<char> >, std::__cxx11::basic_string<char, std::char_traits<char>, std::allocator<char> > > > >::erase
FUNC 180de0 5e 0 std::_Rb_tree<std::__cxx11::basic_string<char, std::char_traits<char>, std::allocator<char> >, std::pair<const std::__cxx11::basic_string<char, std::char_traits<char>, std::allocator<char> >, std::__cxx11::basic_string<char, std::char_traits<char>, std::allocator<char> > >, std::_Select1st<std::pair<const std::__cxx11::basic_string<char, std::char_traits<char>, std::allocator<char> >, std::__cxx11::basic_string<char, std::char_traits<char>, std::allocator<char> > > >, std::less<std::__cxx11::basic_string<char, std::char_traits<char>, std::allocator<char> > >, std::allocator<std::pair<const std::__cxx11::basic_string<char, std::char_traits<char>, std::allocator<char> >, std::__cxx11::basic_string<char, std::char_traits<char>, std::allocator<char> > > > >::_M_erase
FUNC 180e40 181 0 std::_Rb_tree<std::__cxx11::basic_string<char, std::char_traits<char>, std::allocator<char> >, std::pair<const std::__cxx11::basic_string<char, std::char_traits<char>, std::allocator<char> >, std::map<std::__cxx11::basic_string<char, std::char_traits<char>, std::allocator<char> >, std::vector<std::__cxx11::basic_string<char, std::char_traits<char>, std::allocator<char> >, std::allocator<std::__cxx11::basic_string<char, std::char_traits<char>, std::allocator<char> > > >, std::less<std::__cxx11::basic_string<char, std::char_traits<char>, std::allocator<char> > >, std::allocator<std::pair<const std::__cxx11::basic_string<char, std::char_traits<char>, std::allocator<char> >, std::vector<std::__cxx11::basic_string<char, std::char_traits<char>, std::allocator<char> >, std::allocator<std::__cxx11::basic_string<char, std::char_traits<char>, std::allocator<char> > > > > > > >, std::_Select1st<std::pair<const std::__cxx11::basic_string<char, std::char_traits<char>, std::allocator<char> >, std::map<std::__cxx11::basic_string<char, std::char_traits<char>, std::allocator<char> >, std::vector<std::__cxx11::basic_string<char, std::char_traits<char>, std::allocator<char> >, std::allocator<std::__cxx11::basic_string<char, std::char_traits<char>, std::allocator<char> > > >, std::less<std::__cxx11::basic_string<char, std::char_traits<char>, std::allocator<char> > >, std::allocator<std::pair<const std::__cxx11::basic_string<char, std::char_traits<char>, std::allocator<char> >, std::vector<std::__cxx11::basic_string<char, std::char_traits<char>, std::allocator<char> >, std::allocator<std::__cxx11::basic_string<char, std::char_traits<char>, std::allocator<char> > > > > > > > >, std::less<std::__cxx11::basic_string<char, std::char_traits<char>, std::allocator<char> > >, std::allocator<std::pair<const std::__cxx11::basic_string<char, std::char_traits<char>, std::allocator<char> >, std::map<std::__cxx11::basic_string<char, std::char_traits<char>, std::allocator<char> >, std::vector<std::__cxx11::basic_string<char, std::char_traits<char>, std::allocator<char> >, std::allocator<std::__cxx11::basic_string<char, std::char_traits<char>, std::allocator<char> > > >, std::less<std::__cxx11::basic_string<char, std::char_traits<char>, std::allocator<char> > >, std::allocator<std::pair<const std::__cxx11::basic_string<char, std::char_traits<char>, std::allocator<char> >, std::vector<std::__cxx11::basic_string<char, std::char_traits<char>, std::allocator<char> >, std::allocator<std::__cxx11::basic_string<char, std::char_traits<char>, std::allocator<char> > > > > > > > > >::_M_get_insert_unique_pos
FUNC 180fd0 fe 0 std::_Rb_tree<std::__cxx11::basic_string<char, std::char_traits<char>, std::allocator<char> >, std::pair<const std::__cxx11::basic_string<char, std::char_traits<char>, std::allocator<char> >, std::map<std::__cxx11::basic_string<char, std::char_traits<char>, std::allocator<char> >, std::vector<std::__cxx11::basic_string<char, std::char_traits<char>, std::allocator<char> >, std::allocator<std::__cxx11::basic_string<char, std::char_traits<char>, std::allocator<char> > > >, std::less<std::__cxx11::basic_string<char, std::char_traits<char>, std::allocator<char> > >, std::allocator<std::pair<const std::__cxx11::basic_string<char, std::char_traits<char>, std::allocator<char> >, std::vector<std::__cxx11::basic_string<char, std::char_traits<char>, std::allocator<char> >, std::allocator<std::__cxx11::basic_string<char, std::char_traits<char>, std::allocator<char> > > > > > > >, std::_Select1st<std::pair<const std::__cxx11::basic_string<char, std::char_traits<char>, std::allocator<char> >, std::map<std::__cxx11::basic_string<char, std::char_traits<char>, std::allocator<char> >, std::vector<std::__cxx11::basic_string<char, std::char_traits<char>, std::allocator<char> >, std::allocator<std::__cxx11::basic_string<char, std::char_traits<char>, std::allocator<char> > > >, std::less<std::__cxx11::basic_string<char, std::char_traits<char>, std::allocator<char> > >, std::allocator<std::pair<const std::__cxx11::basic_string<char, std::char_traits<char>, std::allocator<char> >, std::vector<std::__cxx11::basic_string<char, std::char_traits<char>, std::allocator<char> >, std::allocator<std::__cxx11::basic_string<char, std::char_traits<char>, std::allocator<char> > > > > > > > >, std::less<std::__cxx11::basic_string<char, std::char_traits<char>, std::allocator<char> > >, std::allocator<std::pair<const std::__cxx11::basic_string<char, std::char_traits<char>, std::allocator<char> >, std::map<std::__cxx11::basic_string<char, std::char_traits<char>, std::allocator<char> >, std::vector<std::__cxx11::basic_string<char, std::char_traits<char>, std::allocator<char> >, std::allocator<std::__cxx11::basic_string<char, std::char_traits<char>, std::allocator<char> > > >, std::less<std::__cxx11::basic_string<char, std::char_traits<char>, std::allocator<char> > >, std::allocator<std::pair<const std::__cxx11::basic_string<char, std::char_traits<char>, std::allocator<char> >, std::vector<std::__cxx11::basic_string<char, std::char_traits<char>, std::allocator<char> >, std::allocator<std::__cxx11::basic_string<char, std::char_traits<char>, std::allocator<char> > > > > > > > > >::find
FUNC 1810d0 59 0 std::_Rb_tree<std::__cxx11::basic_string<char, std::char_traits<char>, std::allocator<char> >, std::pair<const std::__cxx11::basic_string<char, std::char_traits<char>, std::allocator<char> >, std::map<std::__cxx11::basic_string<char, std::char_traits<char>, std::allocator<char> >, std::vector<std::__cxx11::basic_string<char, std::char_traits<char>, std::allocator<char> >, std::allocator<std::__cxx11::basic_string<char, std::char_traits<char>, std::allocator<char> > > >, std::less<std::__cxx11::basic_string<char, std::char_traits<char>, std::allocator<char> > >, std::allocator<std::pair<const std::__cxx11::basic_string<char, std::char_traits<char>, std::allocator<char> >, std::vector<std::__cxx11::basic_string<char, std::char_traits<char>, std::allocator<char> >, std::allocator<std::__cxx11::basic_string<char, std::char_traits<char>, std::allocator<char> > > > > > > >, std::_Select1st<std::pair<const std::__cxx11::basic_string<char, std::char_traits<char>, std::allocator<char> >, std::map<std::__cxx11::basic_string<char, std::char_traits<char>, std::allocator<char> >, std::vector<std::__cxx11::basic_string<char, std::char_traits<char>, std::allocator<char> >, std::allocator<std::__cxx11::basic_string<char, std::char_traits<char>, std::allocator<char> > > >, std::less<std::__cxx11::basic_string<char, std::char_traits<char>, std::allocator<char> > >, std::allocator<std::pair<const std::__cxx11::basic_string<char, std::char_traits<char>, std::allocator<char> >, std::vector<std::__cxx11::basic_string<char, std::char_traits<char>, std::allocator<char> >, std::allocator<std::__cxx11::basic_string<char, std::char_traits<char>, std::allocator<char> > > > > > > > >, std::less<std::__cxx11::basic_string<char, std::char_traits<char>, std::allocator<char> > >, std::allocator<std::pair<const std::__cxx11::basic_string<char, std::char_traits<char>, std::allocator<char> >, std::map<std::__cxx11::basic_string<char, std::char_traits<char>, std::allocator<char> >, std::vector<std::__cxx11::basic_string<char, std::char_traits<char>, std::allocator<char> >, std::allocator<std::__cxx11::basic_string<char, std::char_traits<char>, std::allocator<char> > > >, std::less<std::__cxx11::basic_string<char, std::char_traits<char>, std::allocator<char> > >, std::allocator<std::pair<const std::__cxx11::basic_string<char, std::char_traits<char>, std::allocator<char> >, std::vector<std::__cxx11::basic_string<char, std::char_traits<char>, std::allocator<char> >, std::allocator<std::__cxx11::basic_string<char, std::char_traits<char>, std::allocator<char> > > > > > > > > >::_M_erase
FUNC 181130 181 0 std::_Rb_tree<std::__cxx11::basic_string<char, std::char_traits<char>, std::allocator<char> >, std::pair<const std::__cxx11::basic_string<char, std::char_traits<char>, std::allocator<char> >, std::vector<tinygettext::LanguageSpec*, std::allocator<tinygettext::LanguageSpec*> > >, std::_Select1st<std::pair<const std::__cxx11::basic_string<char, std::char_traits<char>, std::allocator<char> >, std::vector<tinygettext::LanguageSpec*, std::allocator<tinygettext::LanguageSpec*> > > >, std::less<std::__cxx11::basic_string<char, std::char_traits<char>, std::allocator<char> > >, std::allocator<std::pair<const std::__cxx11::basic_string<char, std::char_traits<char>, std::allocator<char> >, std::vector<tinygettext::LanguageSpec*, std::allocator<tinygettext::LanguageSpec*> > > > >::_M_get_insert_unique_pos
FUNC 1812c0 5a 0 std::_Rb_tree<std::__cxx11::basic_string<char, std::char_traits<char>, std::allocator<char> >, std::pair<const std::__cxx11::basic_string<char, std::char_traits<char>, std::allocator<char> >, std::vector<tinygettext::LanguageSpec*, std::allocator<tinygettext::LanguageSpec*> > >, std::_Select1st<std::pair<const std::__cxx11::basic_string<char, std::char_traits<char>, std::allocator<char> >, std::vector<tinygettext::LanguageSpec*, std::allocator<tinygettext::LanguageSpec*> > > >, std::less<std::__cxx11::basic_string<char, std::char_traits<char>, std::allocator<char> > >, std::allocator<std::pair<const std::__cxx11::basic_string<char, std::char_traits<char>, std::allocator<char> >, std::vector<tinygettext::LanguageSpec*, std::allocator<tinygettext::LanguageSpec*> > > > >::_M_erase
FUNC 181320 181 0 std::_Rb_tree<std::__cxx11::basic_string<char, std::char_traits<char>, std::allocator<char> >, std::pair<const std::__cxx11::basic_string<char, std::char_traits<char>, std::allocator<char> >, std::vector<std::__cxx11::basic_string<char, std::char_traits<char>, std::allocator<char> >, std::allocator<std::__cxx11::basic_string<char, std::char_traits<char>, std::allocator<char> > > > >, std::_Select1st<std::pair<const std::__cxx11::basic_string<char, std::char_traits<char>, std::allocator<char> >, std::vector<std::__cxx11::basic_string<char, std::char_traits<char>, std::allocator<char> >, std::allocator<std::__cxx11::basic_string<char, std::char_traits<char>, std::allocator<char> > > > > >, std::less<std::__cxx11::basic_string<char, std::char_traits<char>, std::allocator<char> > >, std::allocator<std::pair<const std::__cxx11::basic_string<char, std::char_traits<char>, std::allocator<char> >, std::vector<std::__cxx11::basic_string<char, std::char_traits<char>, std::allocator<char> >, std::allocator<std::__cxx11::basic_string<char, std::char_traits<char>, std::allocator<char> > > > > > >::_M_get_insert_unique_pos
FUNC 1814b0 8a 0 std::_Rb_tree<std::__cxx11::basic_string<char, std::char_traits<char>, std::allocator<char> >, std::pair<const std::__cxx11::basic_string<char, std::char_traits<char>, std::allocator<char> >, std::vector<std::__cxx11::basic_string<char, std::char_traits<char>, std::allocator<char> >, std::allocator<std::__cxx11::basic_string<char, std::char_traits<char>, std::allocator<char> > > > >, std::_Select1st<std::pair<const std::__cxx11::basic_string<char, std::char_traits<char>, std::allocator<char> >, std::vector<std::__cxx11::basic_string<char, std::char_traits<char>, std::allocator<char> >, std::allocator<std::__cxx11::basic_string<char, std::char_traits<char>, std::allocator<char> > > > > >, std::less<std::__cxx11::basic_string<char, std::char_traits<char>, std::allocator<char> > >, std::allocator<std::pair<const std::__cxx11::basic_string<char, std::char_traits<char>, std::allocator<char> >, std::vector<std::__cxx11::basic_string<char, std::char_traits<char>, std::allocator<char> >, std::allocator<std::__cxx11::basic_string<char, std::char_traits<char>, std::allocator<char> > > > > > >::_M_erase
FUNC 181540 11c 0 std::__detail::_Map_base<std::__cxx11::basic_string<char, std::char_traits<char>, std::allocator<char> >, std::pair<const std::__cxx11::basic_string<char, std::char_traits<char>, std::allocator<char> >, proxyInfo_t>, std::allocator<std::pair<const std::__cxx11::basic_string<char, std::char_traits<char>, std::allocator<char> >, proxyInfo_t> >, std::__detail::_Select1st, Str::IEqual, Str::IHash, std::__detail::_Mod_range_hashing, std::__detail::_Default_ranged_hash, std::__detail::_Prime_rehash_policy, std::__detail::_Hashtable_traits<true, false, true>, true>::operator[]
FUNC 181660 119 0 std::__detail::_Map_base<std::__cxx11::basic_string<char, std::char_traits<char>, std::allocator<char> >, std::pair<const std::__cxx11::basic_string<char, std::char_traits<char>, std::allocator<char> >, proxyInfo_t>, std::allocator<std::pair<const std::__cxx11::basic_string<char, std::char_traits<char>, std::allocator<char> >, proxyInfo_t> >, std::__detail::_Select1st, Str::IEqual, Str::IHash, std::__detail::_Mod_range_hashing, std::__detail::_Default_ranged_hash, std::__detail::_Prime_rehash_policy, std::__detail::_Hashtable_traits<true, false, true>, true>::operator[]
FUNC 181780 131 0 std::__detail::_Map_base<std::__cxx11::basic_string<char, std::char_traits<char>, std::allocator<char> >, std::pair<const std::__cxx11::basic_string<char, std::char_traits<char>, std::allocator<char> >, Cmd::aliasRecord_t>, std::allocator<std::pair<const std::__cxx11::basic_string<char, std::char_traits<char>, std::allocator<char> >, Cmd::aliasRecord_t> >, std::__detail::_Select1st, Str::IEqual, Str::IHash, std::__detail::_Mod_range_hashing, std::__detail::_Default_ranged_hash, std::__detail::_Prime_rehash_policy, std::__detail::_Hashtable_traits<true, false, true>, true>::operator[]
FUNC 1818c0 111 0 std::__detail::_Map_base<std::__cxx11::basic_string<char, std::char_traits<char>, std::allocator<char> >, std::pair<const std::__cxx11::basic_string<char, std::char_traits<char>, std::allocator<char> >, Cvar::cvarRecord_t*>, std::allocator<std::pair<const std::__cxx11::basic_string<char, std::char_traits<char>, std::allocator<char> >, Cvar::cvarRecord_t*> >, std::__detail::_Select1st, Str::IEqual, Str::IHash, std::__detail::_Mod_range_hashing, std::__detail::_Default_ranged_hash, std::__detail::_Prime_rehash_policy, std::__detail::_Hashtable_traits<true, false, true>, true>::operator[]
FUNC 1819e0 5f 0 std::function<std::vector<std::pair<std::__cxx11::basic_string<char, std::char_traits<char>, std::allocator<char> >, std::__cxx11::basic_string<char, std::char_traits<char>, std::allocator<char> > >, std::allocator<std::pair<std::__cxx11::basic_string<char, std::char_traits<char>, std::allocator<char> >, std::__cxx11::basic_string<char, std::char_traits<char>, std::allocator<char> > > > >(int, const Cmd::Args&, Str::BasicStringRef<char>)>::function
FUNC 181a40 5f 0 std::function<void(const Cmd::Args&)>::function
FUNC 181aa0 2a0 0 std::__make_heap<__gnu_cxx::__normal_iterator<std::pair<std::__cxx11::basic_string<char>, std::__cxx11::basic_string<char> >*, std::vector<std::pair<std::__cxx11::basic_string<char>, std::__cxx11::basic_string<char> > > >, __gnu_cxx::__ops::_Iter_less_iter>
FUNC 181d40 a87 0 std::__adjust_heap<__gnu_cxx::__normal_iterator<std::pair<std::__cxx11::basic_string<char>, std::__cxx11::basic_string<char> >*, std::vector<std::pair<std::__cxx11::basic_string<char>, std::__cxx11::basic_string<char> > > >, long long int, std::pair<std::__cxx11::basic_string<char>, std::__cxx11::basic_string<char> >, __gnu_cxx::__ops::_Iter_less_iter>
FUNC 1827d0 4f8 0 std::__insertion_sort<__gnu_cxx::__normal_iterator<std::pair<std::__cxx11::basic_string<char>, std::__cxx11::basic_string<char> >*, std::vector<std::pair<std::__cxx11::basic_string<char>, std::__cxx11::basic_string<char> > > >, __gnu_cxx::__ops::_Iter_less_iter>
FUNC 182cd0 276 0 std::__rotate_adaptive<__gnu_cxx::__normal_iterator<FS::PakInfo*, std::vector<FS::PakInfo> >, FS::PakInfo*, long long int>
FUNC 182f50 559 0 std::__unguarded_linear_insert<__gnu_cxx::__normal_iterator<std::pair<std::__cxx11::basic_string<char>, std::__cxx11::basic_string<char> >*, std::vector<std::pair<std::__cxx11::basic_string<char>, std::__cxx11::basic_string<char> > > >, __gnu_cxx::__ops::_Val_less_iter>
FUNC 1834b0 241 0 std::__unique<__gnu_cxx::__normal_iterator<std::pair<std::__cxx11::basic_string<char>, std::__cxx11::basic_string<char> >*, std::vector<std::pair<std::__cxx11::basic_string<char>, std::__cxx11::basic_string<char> > > >, __gnu_cxx::__ops::_Iter_equal_to_iter>
FUNC 183700 ed 0 std::__find_if<__gnu_cxx::__normal_iterator<char const*, std::__cxx11::basic_string<char> >, __gnu_cxx::__ops::_Iter_negate<bool (*)(int)> >
FUNC 1837f0 1c7 0 std::__find_if<__gnu_cxx::__normal_iterator<std::__cxx11::basic_string<char>*, std::vector<std::__cxx11::basic_string<char> > >, __gnu_cxx::__ops::_Iter_equals_val<const Util::optional<std::__cxx11::basic_string<char> > > >
FUNC 1839c0 e4 0 std::__find_if<char const*, __gnu_cxx::__ops::_Iter_equals_val<char const> >
FUNC 183ab0 34 0 std::operator==<char>
FUNC 183af0 a3 0 std::operator+<char, std::char_traits<char>, std::allocator<char> >
FUNC 183c80 7 0 gmtime
FUNC 183c90 7 0 localtime
FUNC 183ca0 5 0 vsnprintf
FUNC 183cb0 ff 0 _GLOBAL__sub_I__Z18Cmd_SaveCmdContextv
FUNC 183db0 7 0 std::default_delete<Sys::EventBase>::operator()
FUNC 183dc0 3e 0 std::__cxx11::basic_string<char, std::char_traits<char>, std::allocator<char> >::basic_string
FUNC 183e00 56a 0 __static_initialization_and_destruction_0
FUNC 184370 5 0 _GLOBAL__sub_I_com_crashed
FUNC 184380 20 0 _GLOBAL__sub_I__Z14qnettle_randomPvyPh
FUNC 1843a0 20 0 _GLOBAL__sub_I_cvar_vars
FUNC 1843c0 3e 0 std::__cxx11::basic_string<char, std::char_traits<char>, std::allocator<char> >::basic_string
FUNC 184400 4e6 0 _GLOBAL__sub_I__Z13FS_FileExistsPKc
FUNC 1848f0 20 0 _GLOBAL__sub_I__Z11Huff_putBitiPhPi
FUNC 184910 20 0 _GLOBAL__sub_I__Z8MSG_InitP5msg_tPhi
FUNC 184930 20 0 _GLOBAL__sub_I_showpackets
FUNC 184950 20 0 _GLOBAL__sub_I_net_enabled
FUNC 184970 20 0 _GLOBAL__sub_I_numtokens
FUNC 184990 3e 0 std::__cxx11::basic_string<char, std::char_traits<char>, std::allocator<char> >::basic_string
FUNC 1849d0 1a7 0 _GLOBAL__sub_I_trans_manager
FUNC 184b80 20 0 _GLOBAL__sub_I__ZN4rVecC2Efff
FUNC 184ba0 c2 0 _GLOBAL__sub_I_numNavData
FUNC 184c70 20 0 _GLOBAL__sub_I__Z15BotCalcSteerDirP5Bot_tR4rVec
FUNC 184c90 98 0 _GLOBAL__sub_I_agents
FUNC 184d30 20 0 _GLOBAL__sub_I__Z20SV_BotAllocateClientv
FUNC 184d50 f7 0 _GLOBAL__sub_I__Z14SV_Heartbeat_fv
FUNC 184e50 b3 0 _GLOBAL__sub_I__Z15SV_GetChallenge8netadr_t
FUNC 184f10 20 0 _GLOBAL__sub_I__Z18SV_SetConfigstringiPKc
FUNC 184f30 55f 0 __static_initialization_and_destruction_0
FUNC 185490 5 0 _GLOBAL__sub_I_svs
FUNC 1854a0 20 0 _GLOBAL__sub_I__Z20SV_Netchan_FreeQueueP8client_t
FUNC 1854c0 20 0 _GLOBAL__sub_I__Z13SV_GentityNumi
FUNC 1854e0 20 0 _GLOBAL__sub_I__Z31SV_UpdateServerCommandsToClientP8client_tP5msg_t
FUNC 185500 30 0 std::__cxx11::basic_string<char, std::char_traits<char>, std::allocator<char> >::basic_string
FUNC 185530 35a 0 __static_initialization_and_destruction_0
FUNC 185890 5 0 _GLOBAL__sub_I__ZN9Challenge7TimeoutEv
FUNC 1858a0 20 0 _GLOBAL__sub_I__ZN8Keyboard11StringToKeyEN3Str14BasicStringRefIcEE
FUNC 1858c0 20 0 _GLOBAL__sub_I_cl_shownet
FUNC 1858e0 20 0 _GLOBAL__sub_I__Z7IN_InitPv
FUNC 185900 20 0 _GLOBAL__sub_I__ZN11Application6GetAppEv
FUNC 185920 20 0 _GLOBAL__sub_I_SDLCompat.cpp
FUNC 185940 20 0 _GLOBAL__sub_I__ZN3Cmd6EscapeB5cxx11EN3Str14BasicStringRefIcEE
FUNC 185960 20 0 _GLOBAL__sub_I__ZN4Cvar9CvarProxyC2ENSt7__cxx1112basic_stringIcSt11char_traitsIcESaIcEEEiS6_
FUNC 185980 56 0 Sys::Error<std::__cxx11::basic_string<char, std::char_traits<char>, std::allocator<char> > >
FUNC 1859e0 4d2 0 _GLOBAL__sub_I_fsLogs
FUNC 185ec0 56 0 Sys::Drop<char (&)[256]>
FUNC 185f20 20 0 _GLOBAL__sub_I__ZNK3IPC8FileDesc5CloseEv
FUNC 185f40 5d 0 Sys::Error<Str::BasicStringRef<char>&, std::__cxx11::basic_string<char, std::char_traits<char>, std::allocator<char> >&>
FUNC 185fa0 b3 0 _GLOBAL__sub_I__ZN3Log6LoggerC2EN3Str14BasicStringRefIcEENSt7__cxx1112basic_stringIcSt11char_traitsIcESaIcEEENS_5LevelE
FUNC 186060 20 0 _GLOBAL__sub_I__ZN3Str23AssertOnTinyFormatErrorENSt7__cxx1112basic_stringIcSt11char_traitsIcESaIcEEE
FUNC 186080 5f 0 Sys::Error<std::__cxx11::basic_string<char, std::char_traits<char>, std::allocator<char> >&>
FUNC 1860e0 20 0 _GLOBAL__sub_I__ZN3Sys11SteadyClock3nowEv
FUNC 186100 30 0 std::__cxx11::basic_string<char, std::char_traits<char>, std::allocator<char> >::basic_string
FUNC 186130 3a6 0 _GLOBAL__sub_I_cm
FUNC 1864e0 24 0 CMod_LoadNodes
FUNC 186510 20 0 _GLOBAL__sub_I_c_totalPatchBlocks
FUNC 186530 20 0 _GLOBAL__sub_I_numPlanes
FUNC 186550 20 0 _GLOBAL__sub_I_c_active_windings
FUNC 186570 312 0 _GLOBAL__sub_I__Z17CM_PointLeafnum_rPKfi
FUNC 186890 20 0 _GLOBAL__sub_I__Z30CM_GenerateTriangleSoupCollideiPA3_fiPi
FUNC 1868b0 20 0 _GLOBAL__sub_I_vec3_origin
FUNC 1868d0 59 0 Sys::Drop<char*&, char const*&>
FUNC 186929 62 0 Sys::Drop<char*&, char const*&, char const*&>
FUNC 186990 20 0 _GLOBAL__sub_I__Z16Com_InitGrowListP10growList_ti
FUNC 1869b0 20 0 _GLOBAL__sub_I__Z12Q_UTF8_WidthPKc
FUNC 1869d0 20 0 _GLOBAL__sub_I__ZN11Application6TraitsC2Ev
FUNC 1869f0 2a8 0 _GLOBAL__sub_I__ZN3Cmd10DelayFrameEv
FUNC 186ca0 30 0 std::__cxx11::basic_string<char, std::char_traits<char>, std::allocator<char> >::basic_string
FUNC 186cd0 55d 0 __static_initialization_and_destruction_0
FUNC 187230 5 0 _GLOBAL__sub_I__ZN3Cmd10commandLogE
FUNC 187240 fc 0 Util::Reader::FillTuple<0, std::__cxx11::basic_string<char>, std::tuple<std::__cxx11::basic_string<char, std::char_traits<char>, std::allocator<char> > > >
FUNC 18733c 59 0 Sys::Drop<int&, std::__cxx11::basic_string<char, std::char_traits<char>, std::allocator<char> >&>
FUNC 1873a0 20 0 _GLOBAL__sub_I__ZN2VM16CommonVMServices17HandleMiscSyscallEiRN4Util6ReaderERN3IPC7ChannelE
FUNC 1873c0 30 0 std::__cxx11::basic_string<char, std::char_traits<char>, std::allocator<char> >::basic_string
FUNC 1873f0 388 0 _GLOBAL__sub_I_crashDumpLogs
FUNC 187780 3e 0 std::__cxx11::basic_string<char, std::char_traits<char>, std::allocator<char> >::basic_string
FUNC 1877c0 26f 0 _GLOBAL__sub_I_cvar_modifiedFlags
FUNC 187a30 30 0 std::__cxx11::basic_string<char, std::char_traits<char>, std::allocator<char> >::basic_string
FUNC 187a60 4dc 0 __static_initialization_and_destruction_0
FUNC 187f40 5 0 _GLOBAL__sub_I__ZN3Log8DispatchENS_5EventEi
FUNC 187f50 56 0 Sys::Error<char const*>
FUNC 187fa6 5d 0 Sys::Error<char const*, char const*>
FUNC 188010 64 0 _GLOBAL__sub_I__ZN3Sys22GetSingletonSocketPathB5cxx11Ev
FUNC 188080 56 0 Sys::Drop<std::__cxx11::basic_string<char, std::char_traits<char>, std::allocator<char> > >
FUNC 1880d6 59 0 Sys::Drop<std::__cxx11::basic_string<char, std::char_traits<char>, std::allocator<char> >&, std::__cxx11::basic_string<char, std::char_traits<char>, std::allocator<char> >&>
FUNC 188130 20 0 _GLOBAL__sub_I__ZN2VM12CreateNaClVMESt4pairIN3IPC6SocketES2_EN3Str14BasicStringRefIcEEbbi
FUNC 188150 20 0 _GLOBAL__sub_I__ZN6Crypto10RandomDataEy
FUNC 188170 20 0 _GLOBAL__sub_I__ZN4Rcon7MessageC2ERK8netadr_tNSt7__cxx1112basic_stringIcSt11char_traitsIcESaIcEEENS_6SecureES9_S9_
FUNC 188190 20 0 _GLOBAL__sub_I__ZN3Net13OutOfBandDataE8netsrc_tRK8netadr_tPhy
FUNC 1881b0 20 0 _GLOBAL__sub_I__Z13Com_MD5BufferPKciPci
FUNC 1881d0 30 0 std::__cxx11::basic_string<char, std::char_traits<char>, std::allocator<char> >::basic_string
FUNC 188200 3a4 0 _GLOBAL__sub_I_com_ansiColor
FUNC 1885b0 20 0 _GLOBAL__sub_I__Z16CON_Shutdown_TTYv
FUNC 1885d0 3d 0 _GLOBAL__sub_I__Z12CON_Shutdownv
FUNC 188610 20 0 _GLOBAL__sub_I__ZN5Color13StrlenNocolorEPKc
FUNC 188630 20 0 _GLOBAL__sub_I__ZN4Util12LineEditDataC2Ejj
FUNC 188650 20 0 _GLOBAL__sub_I__ZN7Console5FieldC2Ei
FUNC 188670 67 0 _GLOBAL__sub_I__ZN7Console7History5linesB5cxx11E
FUNC 1886e0 20 0 _GLOBAL__sub_I__ZN11tinygettext3Log17log_info_callbackB5cxx11E
FUNC 188700 27 0 std::__cxx11::basic_string<char, std::char_traits<char>, std::allocator<char> >::basic_string
FUNC 188730 20 0 _GLOBAL__sub_I__ZN11tinygettext8POParser8pedanticE
FUNC 188750 20 0 _GLOBAL__sub_I__Z14dtAllocNavMeshv
FUNC 188770 20 0 _GLOBAL__sub_I__ZN13dtQueryFilterC2Ev
FUNC 188790 20 0 _GLOBAL__sub_I__ZN10dtNodePoolC2Eii
FUNC 1887b0 20 0 _GLOBAL__sub_I__Z25dtMergeCorridorStartMovedPjiiPKji
FUNC 1887d0 20 0 _GLOBAL__sub_I__Z16dtAllocTileCachev
FUNC 1887f0 20 0 _GLOBAL__sub_I__Z26dtAllocTileCacheContourSetP16dtTileCacheAlloc
FUNC 188810 20 0 _GLOBAL__sub_I__Z19dtCreateNavMeshDataP21dtNavMeshCreateParamsPPhPi
FUNC 188830 32 0 main
FUNC 188870 61 0 __report_error
FUNC 1888e0 1b 0 set_fast_math
STACK CFI INIT 1000 1 .cfa: $rsp 8 + .ra: .cfa -8 + ^
STACK CFI INIT 1010 141 .cfa: $rsp 8 + .ra: .cfa -8 + ^
STACK CFI 1014 .cfa: $rsp 48 +
STACK CFI 10c1 .cfa: $rsp 8 +
STACK CFI 10c2 .cfa: $rsp 48 +
STACK CFI 1132 .cfa: $rsp 8 +
STACK CFI 1133 .cfa: $rsp 48 +
STACK CFI INIT 1160 49 .cfa: $rsp 8 + .ra: .cfa -8 + ^
STACK CFI 1164 .cfa: $rsp 64 +
STACK CFI 11a8 .cfa: $rsp 8 +
STACK CFI INIT 11b0 326 .cfa: $rsp 8 + .ra: .cfa -8 + ^
STACK CFI 11b2 $r13: .cfa -16 + ^ .cfa: $rsp 16 +
STACK CFI 11b4 $r12: .cfa -24 + ^ .cfa: $rsp 24 +
STACK CFI 11b5 $rbp: .cfa -32 + ^ .cfa: $rsp 32 +
STACK CFI 11b6 $rdi: .cfa -40 + ^ .cfa: $rsp 40 +
STACK CFI 11b7 $rsi: .cfa -48 + ^ .cfa: $rsp 48 +
STACK CFI 11b8 $rbx: .cfa -56 + ^ .cfa: $rsp 56 +
STACK CFI 11bf .cfa: $rsp 208 +
STACK CFI 1427 .cfa: $rsp 56 +
STACK CFI 1428 $rbx: $rbx .cfa: $rsp 48 +
STACK CFI 1429 $rsi: $rsi .cfa: $rsp 40 +
STACK CFI 142a $rdi: $rdi .cfa: $rsp 32 +
STACK CFI 142b $rbp: $rbp .cfa: $rsp 24 +
STACK CFI 142d $r12: $r12 .cfa: $rsp 16 +
STACK CFI 142f $r13: $r13 .cfa: $rsp 8 +
STACK CFI 1430 $r12: .cfa -24 + ^ $r13: .cfa -16 + ^ $rbp: .cfa -32 + ^ $rbx: .cfa -56 + ^ $rdi: .cfa -40 + ^ $rsi: .cfa -48 + ^ .cfa: $rsp 208 +
STACK CFI INIT 14e0 22 .cfa: $rsp 8 + .ra: .cfa -8 + ^
STACK CFI 14e4 .cfa: $rsp 48 +
STACK CFI 1501 .cfa: $rsp 8 +
STACK CFI INIT 1510 22 .cfa: $rsp 8 + .ra: .cfa -8 + ^
STACK CFI 1514 .cfa: $rsp 48 +
STACK CFI 1531 .cfa: $rsp 8 +
STACK CFI INIT 1570 1 .cfa: $rsp 8 + .ra: .cfa -8 + ^
STACK CFI INIT 1580 21 .cfa: $rsp 8 + .ra: .cfa -8 + ^
STACK CFI INIT 15b0 c .cfa: $rsp 8 + .ra: .cfa -8 + ^
STACK CFI INIT 15c0 94 .cfa: $rsp 8 + .ra: .cfa -8 + ^
STACK CFI 15c1 $rdi: .cfa -16 + ^ .cfa: $rsp 16 +
STACK CFI 15c2 $rsi: .cfa -24 + ^ .cfa: $rsp 24 +
STACK CFI 15c3 $rbx: .cfa -32 + ^ .cfa: $rsp 32 +
STACK CFI 15c7 .cfa: $rsp 80 +
STACK CFI 160d .cfa: $rsp 32 +
STACK CFI 160e $rbx: $rbx .cfa: $rsp 24 +
STACK CFI 160f $rsi: $rsi .cfa: $rsp 16 +
STACK CFI 1610 $rdi: $rdi .cfa: $rsp 8 +
STACK CFI 1611 $rbx: .cfa -32 + ^ $rdi: .cfa -16 + ^ $rsi: .cfa -24 + ^ .cfa: $rsp 80 +
STACK CFI INIT 1660 27 .cfa: $rsp 8 + .ra: .cfa -8 + ^
STACK CFI 1661 $rbx: .cfa -16 + ^ .cfa: $rsp 16 +
STACK CFI 1665 .cfa: $rsp 48 +
STACK CFI 1681 .cfa: $rsp 16 +
STACK CFI 1682 $rbx: $rbx .cfa: $rsp 8 +
STACK CFI INIT 1690 76 .cfa: $rsp 8 + .ra: .cfa -8 + ^
STACK CFI 1691 $rbx: .cfa -16 + ^ .cfa: $rsp 16 +
STACK CFI 1695 .cfa: $rsp 48 +
STACK CFI 16f7 .cfa: $rsp 16 +
STACK CFI 16f8 $rbx: $rbx .cfa: $rsp 8 +
STACK CFI 1700 $rbx: .cfa -16 + ^ .cfa: $rsp 48 +
STACK CFI 1704 .cfa: $rsp 16 +
STACK CFI 1705 $rbx: $rbx .cfa: $rsp 8 +
STACK CFI INIT 1710 157 .cfa: $rsp 8 + .ra: .cfa -8 + ^
STACK CFI 1711 $rbp: .cfa -16 + ^ .cfa: $rsp 16 +
STACK CFI 1712 $rdi: .cfa -24 + ^ .cfa: $rsp 24 +
STACK CFI 1713 $rsi: .cfa -32 + ^ .cfa: $rsp 32 +
STACK CFI 1714 $rbx: .cfa -40 + ^ .cfa: $rsp 40 +
STACK CFI 1718 .cfa: $rsp 80 +
STACK CFI 1805 .cfa: $rsp 40 +
STACK CFI 1806 $rbx: $rbx .cfa: $rsp 32 +
STACK CFI 1807 $rsi: $rsi .cfa: $rsp 24 +
STACK CFI 1808 $rdi: $rdi .cfa: $rsp 16 +
STACK CFI 1809 $rbp: $rbp .cfa: $rsp 8 +
STACK CFI 1810 $rbp: .cfa -16 + ^ $rbx: .cfa -40 + ^ $rdi: .cfa -24 + ^ $rsi: .cfa -32 + ^ .cfa: $rsp 80 +
STACK CFI 1862 .cfa: $rsp 40 +
STACK CFI 1863 $rbx: $rbx .cfa: $rsp 32 +
STACK CFI 1864 $rsi: $rsi .cfa: $rsp 24 +
STACK CFI 1865 $rdi: $rdi .cfa: $rsp 16 +
STACK CFI 1866 $rbp: $rbp .cfa: $rsp 8 +
STACK CFI INIT 1870 77 .cfa: $rsp 8 + .ra: .cfa -8 + ^
STACK CFI 1871 $rsi: .cfa -16 + ^ .cfa: $rsp 16 +
STACK CFI 1872 $rbx: .cfa -24 + ^ .cfa: $rsp 24 +
STACK CFI 1876 .cfa: $rsp 64 +
STACK CFI 18cf .cfa: $rsp 24 +
STACK CFI 18d0 $rbx: $rbx .cfa: $rsp 16 +
STACK CFI 18d1 $rsi: $rsi .cfa: $rsp 8 +
STACK CFI 18e0 $rbx: .cfa -24 + ^ $rsi: .cfa -16 + ^ .cfa: $rsp 64 +
STACK CFI 18e4 .cfa: $rsp 24 +
STACK CFI 18e5 $rbx: $rbx .cfa: $rsp 16 +
STACK CFI 18e6 $rsi: $rsi .cfa: $rsp 8 +
STACK CFI INIT 18f0 5 .cfa: $rsp 8 + .ra: .cfa -8 + ^
STACK CFI INIT 1900 5 .cfa: $rsp 8 + .ra: .cfa -8 + ^
STACK CFI INIT 1910 15 .cfa: $rsp 8 + .ra: .cfa -8 + ^
STACK CFI 1914 .cfa: $rsp 48 +
STACK CFI 1920 .cfa: $rsp 8 +
STACK CFI INIT 1930 67 .cfa: $rsp 8 + .ra: .cfa -8 + ^
STACK CFI 1931 $rbx: .cfa -16 + ^ .cfa: $rsp 16 +
STACK CFI 1935 .cfa: $rsp 48 +
STACK CFI 195b .cfa: $rsp 16 +
STACK CFI 195c $rbx: $rbx .cfa: $rsp 8 +
STACK CFI 1960 $rbx: .cfa -16 + ^ .cfa: $rsp 48 +
STACK CFI 1995 .cfa: $rsp 16 +
STACK CFI 1996 $rbx: $rbx .cfa: $rsp 8 +
STACK CFI INIT 19a0 7d .cfa: $rsp 8 + .ra: .cfa -8 + ^
STACK CFI 19a1 $rsi: .cfa -16 + ^ .cfa: $rsp 16 +
STACK CFI 19a2 $rbx: .cfa -24 + ^ .cfa: $rsp 24 +
STACK CFI 19a6 .cfa: $rsp 96 +
STACK CFI 19fb .cfa: $rsp 24 +
STACK CFI 19fc $rbx: $rbx .cfa: $rsp 16 +
STACK CFI 19fd $rsi: $rsi .cfa: $rsp 8 +
STACK CFI 19fe $rbx: .cfa -24 + ^ $rsi: .cfa -16 + ^ .cfa: $rsp 96 +
STACK CFI INIT 1a20 a .cfa: $rsp 8 + .ra: .cfa -8 + ^
STACK CFI INIT 1a30 5 .cfa: $rsp 8 + .ra: .cfa -8 + ^
STACK CFI INIT 1a40 27 .cfa: $rsp 8 + .ra: .cfa -8 + ^
STACK CFI 1a41 $rbx: .cfa -16 + ^ .cfa: $rsp 16 +
STACK CFI 1a45 .cfa: $rsp 64 +
STACK CFI 1a61 .cfa: $rsp 16 +
STACK CFI 1a62 $rbx: $rbx .cfa: $rsp 8 +
STACK CFI INIT 1a70 1b0 .cfa: $rsp 8 + .ra: .cfa -8 + ^
STACK CFI INIT 1c20 89 .cfa: $rsp 8 + .ra: .cfa -8 + ^
STACK CFI 1c21 $rsi: .cfa -16 + ^ .cfa: $rsp 16 +
STACK CFI 1c22 $rbx: .cfa -24 + ^ .cfa: $rsp 24 +
STACK CFI 1c26 .cfa: $rsp 112 +
STACK CFI 1c92 .cfa: $rsp 24 +
STACK CFI 1c93 $rbx: $rbx .cfa: $rsp 16 +
STACK CFI 1c94 $rsi: $rsi .cfa: $rsp 8 +
STACK CFI 1c95 $rbx: .cfa -24 + ^ $rsi: .cfa -16 + ^ .cfa: $rsp 112 +
STACK CFI INIT 1cb0 1080 .cfa: $rsp 8 + .ra: .cfa -8 + ^
STACK CFI 1cb2 $r15: .cfa -16 + ^ .cfa: $rsp 16 +
STACK CFI 1cb4 $r14: .cfa -24 + ^ .cfa: $rsp 24 +
STACK CFI 1cb6 $r13: .cfa -32 + ^ .cfa: $rsp 32 +
STACK CFI 1cb8 $r12: .cfa -40 + ^ .cfa: $rsp 40 +
STACK CFI 1cb9 $rbp: .cfa -48 + ^ .cfa: $rsp 48 +
STACK CFI 1cba $rdi: .cfa -56 + ^ .cfa: $rsp 56 +
STACK CFI 1cbb $rsi: .cfa -64 + ^ .cfa: $rsp 64 +
STACK CFI 1cbc $rbx: .cfa -72 + ^ .cfa: $rsp 72 +
STACK CFI 1cc3 .cfa: $rsp 1248 +
STACK CFI 1d02 .cfa: $rsp 72 +
STACK CFI 1d03 $rbx: $rbx .cfa: $rsp 64 +
STACK CFI 1d04 $rsi: $rsi .cfa: $rsp 56 +
STACK CFI 1d05 $rdi: $rdi .cfa: $rsp 48 +
STACK CFI 1d06 $rbp: $rbp .cfa: $rsp 40 +
STACK CFI 1d08 $r12: $r12 .cfa: $rsp 32 +
STACK CFI 1d0a $r13: $r13 .cfa: $rsp 24 +
STACK CFI 1d0c $r14: $r14 .cfa: $rsp 16 +
STACK CFI 1d0e $r15: $r15 .cfa: $rsp 8 +
STACK CFI 1d10 $r12: .cfa -40 + ^ $r13: .cfa -32 + ^ $r14: .cfa -24 + ^ $r15: .cfa -16 + ^ $rbp: .cfa -48 + ^ $rbx: .cfa -72 + ^ $rdi: .cfa -56 + ^ $rsi: .cfa -64 + ^ .cfa: $rsp 1248 +
STACK CFI INIT 2d30 202 .cfa: $rsp 8 + .ra: .cfa -8 + ^
STACK CFI 2d31 $rsi: .cfa -16 + ^ .cfa: $rsp 16 +
STACK CFI 2d32 $rbx: .cfa -24 + ^ .cfa: $rsp 24 +
STACK CFI 2d39 .cfa: $rsp 160 +
STACK CFI 2d7d .cfa: $rsp 24 +
STACK CFI 2d7e $rbx: $rbx .cfa: $rsp 16 +
STACK CFI 2d7f $rsi: $rsi .cfa: $rsp 8 +
STACK CFI 2d80 $rbx: .cfa -24 + ^ $rsi: .cfa -16 + ^ .cfa: $rsp 160 +
STACK CFI 2eae .cfa: $rsp 24 +
STACK CFI 2eaf $rbx: $rbx .cfa: $rsp 16 +
STACK CFI 2eb0 $rsi: $rsi .cfa: $rsp 8 +
STACK CFI 2eb1 $rbx: .cfa -24 + ^ $rsi: .cfa -16 + ^ .cfa: $rsp 160 +
STACK CFI INIT 2f40 206 .cfa: $rsp 8 + .ra: .cfa -8 + ^
STACK CFI 2f42 $r13: .cfa -16 + ^ .cfa: $rsp 16 +
STACK CFI 2f44 $r12: .cfa -24 + ^ .cfa: $rsp 24 +
STACK CFI 2f45 $rbp: .cfa -32 + ^ .cfa: $rsp 32 +
STACK CFI 2f46 $rdi: .cfa -40 + ^ .cfa: $rsp 40 +
STACK CFI 2f47 $rsi: .cfa -48 + ^ .cfa: $rsp 48 +
STACK CFI 2f48 $rbx: .cfa -56 + ^ .cfa: $rsp 56 +
STACK CFI 2f4c .cfa: $rsp 176 +
STACK CFI 30a5 .cfa: $rsp 56 +
STACK CFI 30a6 $rbx: $rbx .cfa: $rsp 48 +
STACK CFI 30a7 $rsi: $rsi .cfa: $rsp 40 +
STACK CFI 30a8 $rdi: $rdi .cfa: $rsp 32 +
STACK CFI 30a9 $rbp: $rbp .cfa: $rsp 24 +
STACK CFI 30ab $r12: $r12 .cfa: $rsp 16 +
STACK CFI 30ad $r13: $r13 .cfa: $rsp 8 +
STACK CFI 30b0 $r12: .cfa -24 + ^ $r13: .cfa -16 + ^ $rbp: .cfa -32 + ^ $rbx: .cfa -56 + ^ $rdi: .cfa -40 + ^ $rsi: .cfa -48 + ^ .cfa: $rsp 176 +
STACK CFI INIT 3150 18c .cfa: $rsp 8 + .ra: .cfa -8 + ^
STACK CFI 3151 $rdi: .cfa -16 + ^ .cfa: $rsp 16 +
STACK CFI 3152 $rsi: .cfa -24 + ^ .cfa: $rsp 24 +
STACK CFI 3153 $rbx: .cfa -32 + ^ .cfa: $rsp 32 +
STACK CFI 3157 .cfa: $rsp 128 +
STACK CFI 320a .cfa: $rsp 32 +
STACK CFI 320b $rbx: $rbx .cfa: $rsp 24 +
STACK CFI 320c $rsi: $rsi .cfa: $rsp 16 +
STACK CFI 320d $rdi: $rdi .cfa: $rsp 8 +
STACK CFI 3210 $rbx: .cfa -32 + ^ $rdi: .cfa -16 + ^ $rsi: .cfa -24 + ^ .cfa: $rsp 128 +
STACK CFI 329e .cfa: $rsp 32 +
STACK CFI 329f $rbx: $rbx .cfa: $rsp 24 +
STACK CFI 32a0 $rsi: $rsi .cfa: $rsp 16 +
STACK CFI 32a1 $rdi: $rdi .cfa: $rsp 8 +
STACK CFI 32a2 $rbx: .cfa -32 + ^ $rdi: .cfa -16 + ^ $rsi: .cfa -24 + ^ .cfa: $rsp 128 +
STACK CFI INIT 32e0 89 .cfa: $rsp 8 + .ra: .cfa -8 + ^
STACK CFI 32e1 $rdi: .cfa -16 + ^ .cfa: $rsp 16 +
STACK CFI 32e2 $rsi: .cfa -24 + ^ .cfa: $rsp 24 +
STACK CFI 32e3 $rbx: .cfa -32 + ^ .cfa: $rsp 32 +
STACK CFI 32e7 .cfa: $rsp 96 +
STACK CFI 3346 .cfa: $rsp 32 +
STACK CFI 3347 $rbx: $rbx .cfa: $rsp 24 +
STACK CFI 3348 $rsi: $rsi .cfa: $rsp 16 +
STACK CFI 3349 $rdi: $rdi .cfa: $rsp 8 +
STACK CFI 334a $rbx: .cfa -32 + ^ $rdi: .cfa -16 + ^ $rsi: .cfa -24 + ^ .cfa: $rsp 96 +
STACK CFI INIT 183cb0 ff .cfa: $rsp 8 + .ra: .cfa -8 + ^
STACK CFI 183cb4 .cfa: $rsp 48 +
STACK CFI 183daa .cfa: $rsp 8 +
STACK CFI INIT 3370 8 .cfa: $rsp 8 + .ra: .cfa -8 + ^
STACK CFI INIT 3380 5 .cfa: $rsp 8 + .ra: .cfa -8 + ^
STACK CFI INIT 3390 2e .cfa: $rsp 8 + .ra: .cfa -8 + ^
STACK CFI 3394 .cfa: $rsp 48 +
STACK CFI INIT 33c0 d .cfa: $rsp 8 + .ra: .cfa -8 + ^
STACK CFI INIT 33d0 c .cfa: $rsp 8 + .ra: .cfa -8 + ^
STACK CFI INIT 183db0 7 .cfa: $rsp 8 + .ra: .cfa -8 + ^
STACK CFI INIT 33e0 94 .cfa: $rsp 8 + .ra: .cfa -8 + ^
STACK CFI 33e1 $rdi: .cfa -16 + ^ .cfa: $rsp 16 +
STACK CFI 33e2 $rsi: .cfa -24 + ^ .cfa: $rsp 24 +
STACK CFI 33e3 $rbx: .cfa -32 + ^ .cfa: $rsp 32 +
STACK CFI 33e7 .cfa: $rsp 80 +
STACK CFI 342d .cfa: $rsp 32 +
STACK CFI 342e $rbx: $rbx .cfa: $rsp 24 +
STACK CFI 342f $rsi: $rsi .cfa: $rsp 16 +
STACK CFI 3430 $rdi: $rdi .cfa: $rsp 8 +
STACK CFI 3431 $rbx: .cfa -32 + ^ $rdi: .cfa -16 + ^ $rsi: .cfa -24 + ^ .cfa: $rsp 80 +
STACK CFI INIT 183dc0 3e .cfa: $rsp 8 + .ra: .cfa -8 + ^
STACK CFI 183dc1 $rbx: .cfa -16 + ^ .cfa: $rsp 16 +
STACK CFI 183dc5 .cfa: $rsp 64 +
STACK CFI 183df8 .cfa: $rsp 16 +
STACK CFI 183df9 $rbx: $rbx .cfa: $rsp 8 +
STACK CFI INIT 3480 32 .cfa: $rsp 8 + .ra: .cfa -8 + ^
STACK CFI 3481 $rsi: .cfa -16 + ^ .cfa: $rsp 16 +
STACK CFI 3482 $rbx: .cfa -24 + ^ .cfa: $rsp 24 +
STACK CFI 3486 .cfa: $rsp 64 +
STACK CFI 34af .cfa: $rsp 24 +
STACK CFI 34b0 $rbx: $rbx .cfa: $rsp 16 +
STACK CFI 34b1 $rsi: $rsi .cfa: $rsp 8 +
STACK CFI INIT 34c0 75 .cfa: $rsp 8 + .ra: .cfa -8 + ^
STACK CFI 34c4 .cfa: $rsp 48 +
STACK CFI 3527 .cfa: $rsp 8 +
STACK CFI 3530 .cfa: $rsp 48 +
STACK CFI 3534 .cfa: $rsp 8 +
STACK CFI INIT 3540 75 .cfa: $rsp 8 + .ra: .cfa -8 + ^
STACK CFI 3544 .cfa: $rsp 48 +
STACK CFI 35a7 .cfa: $rsp 8 +
STACK CFI 35b0 .cfa: $rsp 48 +
STACK CFI 35b4 .cfa: $rsp 8 +
STACK CFI INIT 35c0 75 .cfa: $rsp 8 + .ra: .cfa -8 + ^
STACK CFI 35c4 .cfa: $rsp 48 +
STACK CFI 3627 .cfa: $rsp 8 +
STACK CFI 3630 .cfa: $rsp 48 +
STACK CFI 3634 .cfa: $rsp 8 +
STACK CFI INIT 3640 a5 .cfa: $rsp 8 + .ra: .cfa -8 + ^
STACK CFI 3644 .cfa: $rsp 48 +
STACK CFI 36d3 .cfa: $rsp 8 +
STACK CFI 36e0 .cfa: $rsp 48 +
STACK CFI 36e4 .cfa: $rsp 8 +
STACK CFI INIT 36f0 75 .cfa: $rsp 8 + .ra: .cfa -8 + ^
STACK CFI 36f4 .cfa: $rsp 48 +
STACK CFI 3757 .cfa: $rsp 8 +
STACK CFI 3760 .cfa: $rsp 48 +
STACK CFI 3764 .cfa: $rsp 8 +
STACK CFI INIT 3770 75 .cfa: $rsp 8 + .ra: .cfa -8 + ^
STACK CFI 3774 .cfa: $rsp 48 +
STACK CFI 37d7 .cfa: $rsp 8 +
STACK CFI 37e0 .cfa: $rsp 48 +
STACK CFI 37e4 .cfa: $rsp 8 +
STACK CFI INIT 37f0 75 .cfa: $rsp 8 + .ra: .cfa -8 + ^
STACK CFI 37f4 .cfa: $rsp 48 +
STACK CFI 3857 .cfa: $rsp 8 +
STACK CFI 3860 .cfa: $rsp 48 +
STACK CFI 3864 .cfa: $rsp 8 +
STACK CFI INIT 3870 75 .cfa: $rsp 8 + .ra: .cfa -8 + ^
STACK CFI 3874 .cfa: $rsp 48 +
STACK CFI 38d7 .cfa: $rsp 8 +
STACK CFI 38e0 .cfa: $rsp 48 +
STACK CFI 38e4 .cfa: $rsp 8 +
STACK CFI INIT 38f0 89 .cfa: $rsp 8 + .ra: .cfa -8 + ^
STACK CFI 38f4 .cfa: $rsp 48 +
STACK CFI 396f .cfa: $rsp 8 +
STACK CFI 3974 .cfa: $rsp 48 +
STACK CFI 3978 .cfa: $rsp 8 +
STACK CFI INIT 3980 65 .cfa: $rsp 8 + .ra: .cfa -8 + ^
STACK CFI INIT 39f0 1de .cfa: $rsp 8 + .ra: .cfa -8 + ^
STACK CFI 39f2 $r15: .cfa -16 + ^ .cfa: $rsp 16 +
STACK CFI 39f4 $r14: .cfa -24 + ^ .cfa: $rsp 24 +
STACK CFI 39f6 $r13: .cfa -32 + ^ .cfa: $rsp 32 +
STACK CFI 39f8 $r12: .cfa -40 + ^ .cfa: $rsp 40 +
STACK CFI 39f9 $rbp: .cfa -48 + ^ .cfa: $rsp 48 +
STACK CFI 39fa $rdi: .cfa -56 + ^ .cfa: $rsp 56 +
STACK CFI 39fb $rsi: .cfa -64 + ^ .cfa: $rsp 64 +
STACK CFI 39fc $rbx: .cfa -72 + ^ .cfa: $rsp 72 +
STACK CFI 3a00 .cfa: $rsp 160 +
STACK CFI 3b43 .cfa: $rsp 72 +
STACK CFI 3b44 $rbx: $rbx .cfa: $rsp 64 +
STACK CFI 3b45 $rsi: $rsi .cfa: $rsp 56 +
STACK CFI 3b46 $rdi: $rdi .cfa: $rsp 48 +
STACK CFI 3b47 $rbp: $rbp .cfa: $rsp 40 +
STACK CFI 3b49 $r12: $r12 .cfa: $rsp 32 +
STACK CFI 3b4b $r13: $r13 .cfa: $rsp 24 +
STACK CFI 3b4d $r14: $r14 .cfa: $rsp 16 +
STACK CFI 3b4f $r15: $r15 .cfa: $rsp 8 +
STACK CFI 3b50 $r12: .cfa -40 + ^ $r13: .cfa -32 + ^ $r14: .cfa -24 + ^ $r15: .cfa -16 + ^ $rbp: .cfa -48 + ^ $rbx: .cfa -72 + ^ $rdi: .cfa -56 + ^ $rsi: .cfa -64 + ^ .cfa: $rsp 160 +
STACK CFI INIT 3bd0 8 .cfa: $rsp 8 + .ra: .cfa -8 + ^
STACK CFI INIT 3be0 81 .cfa: $rsp 8 + .ra: .cfa -8 + ^
STACK CFI 3be1 $rsi: .cfa -16 + ^ .cfa: $rsp 16 +
STACK CFI 3be2 $rbx: .cfa -24 + ^ .cfa: $rsp 24 +
STACK CFI 3be6 .cfa: $rsp 112 +
STACK CFI 3c5e .cfa: $rsp 24 +
STACK CFI 3c5f $rbx: $rbx .cfa: $rsp 16 +
STACK CFI 3c60 $rsi: $rsi .cfa: $rsp 8 +
STACK CFI INIT 3c70 11 .cfa: $rsp 8 + .ra: .cfa -8 + ^
STACK CFI 3c74 .cfa: $rsp 48 +
STACK CFI 3c80 .cfa: $rsp 8 +
STACK CFI INIT 3c90 10 .cfa: $rsp 8 + .ra: .cfa -8 + ^
STACK CFI INIT 3ca0 10 .cfa: $rsp 8 + .ra: .cfa -8 + ^
STACK CFI INIT 3cb0 7 .cfa: $rsp 8 + .ra: .cfa -8 + ^
STACK CFI INIT 3cc0 19 .cfa: $rsp 8 + .ra: .cfa -8 + ^
STACK CFI INIT 3ce0 25 .cfa: $rsp 8 + .ra: .cfa -8 + ^
STACK CFI INIT 3d10 147 .cfa: $rsp 8 + .ra: .cfa -8 + ^
STACK CFI 3d11 $rbx: .cfa -16 + ^ .cfa: $rsp 16 +
STACK CFI 3d15 .cfa: $rsp 48 +
STACK CFI 3dea .cfa: $rsp 16 +
STACK CFI 3deb $rbx: $rbx .cfa: $rsp 8 +
STACK CFI 3df0 $rbx: .cfa -16 + ^ .cfa: $rsp 48 +
STACK CFI INIT 3e60 f4 .cfa: $rsp 8 + .ra: .cfa -8 + ^
STACK CFI 3e61 $rbx: .cfa -16 + ^ .cfa: $rsp 16 +
STACK CFI 3e65 .cfa: $rsp 48 +
STACK CFI 3eef .cfa: $rsp 16 +
STACK CFI 3ef0 $rbx: $rbx .cfa: $rsp 8 +
STACK CFI 3ef1 $rbx: .cfa -16 + ^ .cfa: $rsp 48 +
STACK CFI 3f3c .cfa: $rsp 16 +
STACK CFI 3f3d $rbx: $rbx .cfa: $rsp 8 +
STACK CFI 3f42 $rbx: .cfa -16 + ^ .cfa: $rsp 48 +
STACK CFI INIT 3f60 5 .cfa: $rsp 8 + .ra: .cfa -8 + ^
STACK CFI INIT 3f70 2b .cfa: $rsp 8 + .ra: .cfa -8 + ^
STACK CFI 3f74 .cfa: $rsp 48 +
STACK CFI 3f96 .cfa: $rsp 8 +
STACK CFI INIT 3fa0 cb .cfa: $rsp 8 + .ra: .cfa -8 + ^
STACK CFI 3fa4 .cfa: $rsp 64 +
STACK CFI 4023 .cfa: $rsp 8 +
STACK CFI 4024 .cfa: $rsp 64 +
STACK CFI 4030 .cfa: $rsp 8 +
STACK CFI 4031 .cfa: $rsp 64 +
STACK CFI 4052 .cfa: $rsp 8 +
STACK CFI 4053 .cfa: $rsp 64 +
STACK CFI 4057 .cfa: $rsp 8 +
STACK CFI 405c .cfa: $rsp 64 +
STACK CFI INIT 4070 96 .cfa: $rsp 8 + .ra: .cfa -8 + ^
STACK CFI 4071 $rbx: .cfa -16 + ^ .cfa: $rsp 16 +
STACK CFI 4075 .cfa: $rsp 64 +
STACK CFI 40cf .cfa: $rsp 16 +
STACK CFI 40d0 $rbx: $rbx .cfa: $rsp 8 +
STACK CFI 40d1 $rbx: .cfa -16 + ^ .cfa: $rsp 64 +
STACK CFI INIT 4110 2ab .cfa: $rsp 8 + .ra: .cfa -8 + ^
STACK CFI 4112 $r14: .cfa -16 + ^ .cfa: $rsp 16 +
STACK CFI 4114 $r13: .cfa -24 + ^ .cfa: $rsp 24 +
STACK CFI 4116 $r12: .cfa -32 + ^ .cfa: $rsp 32 +
STACK CFI 4117 $rbp: .cfa -40 + ^ .cfa: $rsp 40 +
STACK CFI 4118 $rdi: .cfa -48 + ^ .cfa: $rsp 48 +
STACK CFI 4119 $rsi: .cfa -56 + ^ .cfa: $rsp 56 +
STACK CFI 411a $rbx: .cfa -64 + ^ .cfa: $rsp 64 +
STACK CFI 4121 .cfa: $rsp 208 +
STACK CFI 4162 .cfa: $rsp 64 +
STACK CFI 4163 $rbx: $rbx .cfa: $rsp 56 +
STACK CFI 4164 $rsi: $rsi .cfa: $rsp 48 +
STACK CFI 4165 $rdi: $rdi .cfa: $rsp 40 +
STACK CFI 4166 $rbp: $rbp .cfa: $rsp 32 +
STACK CFI 4168 $r12: $r12 .cfa: $rsp 24 +
STACK CFI 416a $r13: $r13 .cfa: $rsp 16 +
STACK CFI 416c $r14: $r14 .cfa: $rsp 8 +
STACK CFI 4170 $r12: .cfa -32 + ^ $r13: .cfa -24 + ^ $r14: .cfa -16 + ^ $rbp: .cfa -40 + ^ $rbx: .cfa -64 + ^ $rdi: .cfa -48 + ^ $rsi: .cfa -56 + ^ .cfa: $rsp 208 +
STACK CFI INIT 43c0 e4 .cfa: $rsp 8 + .ra: .cfa -8 + ^
STACK CFI 43c1 $rbx: .cfa -16 + ^ .cfa: $rsp 16 +
STACK CFI 43c5 .cfa: $rsp 64 +
STACK CFI 4444 .cfa: $rsp 16 +
STACK CFI 4445 $rbx: $rbx .cfa: $rsp 8 +
STACK CFI 4450 $rbx: .cfa -16 + ^ .cfa: $rsp 64 +
STACK CFI INIT 44b0 a9 .cfa: $rsp 8 + .ra: .cfa -8 + ^
STACK CFI 44b1 $rbx: .cfa -16 + ^ .cfa: $rsp 16 +
STACK CFI 44b5 .cfa: $rsp 96 +
STACK CFI 44bf $xmm6: .cfa -48 + ^ $xmm7: .cfa -32 + ^
STACK CFI 44fe $xmm6: $xmm6 $xmm7: $xmm7 .cfa: $rsp 16 +
STACK CFI 44ff $rbx: $rbx .cfa: $rsp 8 +
STACK CFI 4500 $rbx: .cfa -16 + ^ $xmm6: .cfa -48 + ^ $xmm7: .cfa -32 + ^ .cfa: $rsp 96 +
STACK CFI 4557 $xmm6: $xmm6 $xmm7: $xmm7 .cfa: $rsp 16 +
STACK CFI 4558 $rbx: $rbx .cfa: $rsp 8 +
STACK CFI INIT 4560 1ae .cfa: $rsp 8 + .ra: .cfa -8 + ^
STACK CFI 4562 $r14: .cfa -16 + ^ .cfa: $rsp 16 +
STACK CFI 4564 $r13: .cfa -24 + ^ .cfa: $rsp 24 +
STACK CFI 456b $r12: .cfa -32 + ^ .cfa: $rsp 32 +
STACK CFI 456c $rbp: .cfa -40 + ^ .cfa: $rsp 40 +
STACK CFI 456d $rdi: .cfa -48 + ^ .cfa: $rsp 48 +
STACK CFI 456e $rsi: .cfa -56 + ^ .cfa: $rsp 56 +
STACK CFI 456f $rbx: .cfa -64 + ^ .cfa: $rsp 64 +
STACK CFI 4577 .cfa: $rsp 16496 +
STACK CFI 46ae .cfa: $rsp 64 +
STACK CFI 46af $rbx: $rbx .cfa: $rsp 56 +
STACK CFI 46b0 $rsi: $rsi .cfa: $rsp 48 +
STACK CFI 46b1 $rdi: $rdi .cfa: $rsp 40 +
STACK CFI 46b2 $rbp: $rbp .cfa: $rsp 32 +
STACK CFI 46b4 $r12: $r12 .cfa: $rsp 24 +
STACK CFI 46b6 $r13: $r13 .cfa: $rsp 16 +
STACK CFI 46b8 $r14: $r14 .cfa: $rsp 8 +
STACK CFI 46c0 $r12: .cfa -32 + ^ $r13: .cfa -24 + ^ $r14: .cfa -16 + ^ $rbp: .cfa -40 + ^ $rbx: .cfa -64 + ^ $rdi: .cfa -48 + ^ $rsi: .cfa -56 + ^ .cfa: $rsp 16496 +
STACK CFI INIT 4710 3c9 .cfa: $rsp 8 + .ra: .cfa -8 + ^
STACK CFI 4711 $rdi: .cfa -16 + ^ .cfa: $rsp 16 +
STACK CFI 4712 $rsi: .cfa -24 + ^ .cfa: $rsp 24 +
STACK CFI 4713 $rbx: .cfa -32 + ^ .cfa: $rsp 32 +
STACK CFI 4717 .cfa: $rsp 112 +
STACK CFI 471c $xmm6: .cfa -48 + ^
STACK CFI 4ad5 $xmm6: $xmm6 .cfa: $rsp 32 +
STACK CFI 4ad6 $rbx: $rbx .cfa: $rsp 24 +
STACK CFI 4ad7 $rsi: $rsi .cfa: $rsp 16 +
STACK CFI 4ad8 $rdi: $rdi .cfa: $rsp 8 +
STACK CFI INIT 4ae0 ac .cfa: $rsp 8 + .ra: .cfa -8 + ^
STACK CFI 4ae4 .cfa: $rsp 64 +
STACK CFI 4b8b .cfa: $rsp 8 +
STACK CFI INIT 4b90 c8 .cfa: $rsp 8 + .ra: .cfa -8 + ^
STACK CFI 4b94 .cfa: $rsp 64 +
STACK CFI 4bf2 .cfa: $rsp 8 +
STACK CFI 4c00 .cfa: $rsp 64 +
STACK CFI INIT 4c60 371 .cfa: $rsp 8 + .ra: .cfa -8 + ^
STACK CFI 4c64 .cfa: $rsp 96 +
STACK CFI 4f92 .cfa: $rsp 8 +
STACK CFI 4f93 .cfa: $rsp 96 +
STACK CFI INIT 4fe0 96 .cfa: $rsp 8 + .ra: .cfa -8 + ^
STACK CFI 4fe1 $rsi: .cfa -16 + ^ .cfa: $rsp 16 +
STACK CFI 4fe2 $rbx: .cfa -24 + ^ .cfa: $rsp 24 +
STACK CFI 4fe6 .cfa: $rsp 144 +
STACK CFI 5039 .cfa: $rsp 24 +
STACK CFI 503a $rbx: $rbx .cfa: $rsp 16 +
STACK CFI 503b $rsi: $rsi .cfa: $rsp 8 +
STACK CFI 5040 $rbx: .cfa -24 + ^ $rsi: .cfa -16 + ^ .cfa: $rsp 144 +
STACK CFI 5073 .cfa: $rsp 24 +
STACK CFI 5074 $rbx: $rbx .cfa: $rsp 16 +
STACK CFI 5075 $rsi: $rsi .cfa: $rsp 8 +
STACK CFI INIT 5080 2b .cfa: $rsp 8 + .ra: .cfa -8 + ^
STACK CFI INIT 50b0 11 .cfa: $rsp 8 + .ra: .cfa -8 + ^
STACK CFI INIT 50d0 97 .cfa: $rsp 8 + .ra: .cfa -8 + ^
STACK CFI 50d1 $rbx: .cfa -16 + ^ .cfa: $rsp 16 +
STACK CFI 50d5 .cfa: $rsp 128 +
STACK CFI 50f2 .cfa: $rsp 16 +
STACK CFI 50f3 $rbx: $rbx .cfa: $rsp 8 +
STACK CFI 50f4 $rbx: .cfa -16 + ^ .cfa: $rsp 128 +
STACK CFI 5165 .cfa: $rsp 16 +
STACK CFI 5166 $rbx: $rbx .cfa: $rsp 8 +
STACK CFI INIT 5170 c5 .cfa: $rsp 8 + .ra: .cfa -8 + ^
STACK CFI 5171 $rbx: .cfa -16 + ^ .cfa: $rsp 16 +
STACK CFI 5175 .cfa: $rsp 144 +
STACK CFI 51cd .cfa: $rsp 16 +
STACK CFI 51ce $rbx: $rbx .cfa: $rsp 8 +
STACK CFI 51d0 $rbx: .cfa -16 + ^ .cfa: $rsp 144 +
STACK CFI INIT 5240 147e .cfa: $rsp 8 + .ra: .cfa -8 + ^
STACK CFI 5242 $r15: .cfa -16 + ^ .cfa: $rsp 16 +
STACK CFI 5244 $r14: .cfa -24 + ^ .cfa: $rsp 24 +
STACK CFI 524b $r13: .cfa -32 + ^ .cfa: $rsp 32 +
STACK CFI 524d $r12: .cfa -40 + ^ .cfa: $rsp 40 +
STACK CFI 524e $rbp: .cfa -48 + ^ .cfa: $rsp 48 +
STACK CFI 524f $rdi: .cfa -56 + ^ .cfa: $rsp 56 +
STACK CFI 5250 $rsi: .cfa -64 + ^ .cfa: $rsp 64 +
STACK CFI 5251 $rbx: .cfa -72 + ^ .cfa: $rsp 72 +
STACK CFI 5259 .cfa: $rsp 66672 +
STACK CFI 560d .cfa: $rsp 72 +
STACK CFI 560e $rbx: $rbx .cfa: $rsp 64 +
STACK CFI 560f $rsi: $rsi .cfa: $rsp 56 +
STACK CFI 5610 $rdi: $rdi .cfa: $rsp 48 +
STACK CFI 5611 $rbp: $rbp .cfa: $rsp 40 +
STACK CFI 5613 $r12: $r12 .cfa: $rsp 32 +
STACK CFI 5615 $r13: $r13 .cfa: $rsp 24 +
STACK CFI 5617 $r14: $r14 .cfa: $rsp 16 +
STACK CFI 5619 $r15: $r15 .cfa: $rsp 8 +
STACK CFI 5620 $r12: .cfa -40 + ^ $r13: .cfa -32 + ^ $r14: .cfa -24 + ^ $r15: .cfa -16 + ^ $rbp: .cfa -48 + ^ $rbx: .cfa -72 + ^ $rdi: .cfa -56 + ^ $rsi: .cfa -64 + ^ .cfa: $rsp 66672 +
STACK CFI INIT 66c0 10c .cfa: $rsp 8 + .ra: .cfa -8 + ^
STACK CFI 66c1 $rbx: .cfa -16 + ^ .cfa: $rsp 16 +
STACK CFI 66c5 .cfa: $rsp 64 +
STACK CFI 670b .cfa: $rsp 16 +
STACK CFI 670c $rbx: $rbx .cfa: $rsp 8 +
STACK CFI 6710 $rbx: .cfa -16 + ^ .cfa: $rsp 64 +
STACK CFI 6732 .cfa: $rsp 16 +
STACK CFI 6733 $rbx: $rbx .cfa: $rsp 8 +
STACK CFI 6734 $rbx: .cfa -16 + ^ .cfa: $rsp 64 +
STACK CFI 67ca .cfa: $rsp 16 +
STACK CFI 67cb $rbx: $rbx .cfa: $rsp 8 +
STACK CFI INIT 67d0 5dd .cfa: $rsp 8 + .ra: .cfa -8 + ^
STACK CFI 67d2 $r15: .cfa -16 + ^ .cfa: $rsp 16 +
STACK CFI 67d4 $r14: .cfa -24 + ^ .cfa: $rsp 24 +
STACK CFI 67d6 $r13: .cfa -32 + ^ .cfa: $rsp 32 +
STACK CFI 67d8 $r12: .cfa -40 + ^ .cfa: $rsp 40 +
STACK CFI 67d9 $rbp: .cfa -48 + ^ .cfa: $rsp 48 +
STACK CFI 67da $rdi: .cfa -56 + ^ .cfa: $rsp 56 +
STACK CFI 67db $rsi: .cfa -64 + ^ .cfa: $rsp 64 +
STACK CFI 67dc $rbx: .cfa -72 + ^ .cfa: $rsp 72 +
STACK CFI 67e3 .cfa: $rsp 256 +
STACK CFI 69dd .cfa: $rsp 72 +
STACK CFI 69de $rbx: $rbx .cfa: $rsp 64 +
STACK CFI 69df $rsi: $rsi .cfa: $rsp 56 +
STACK CFI 69e0 $rdi: $rdi .cfa: $rsp 48 +
STACK CFI 69e1 $rbp: $rbp .cfa: $rsp 40 +
STACK CFI 69e3 $r12: $r12 .cfa: $rsp 32 +
STACK CFI 69e5 $r13: $r13 .cfa: $rsp 24 +
STACK CFI 69e7 $r14: $r14 .cfa: $rsp 16 +
STACK CFI 69e9 $r15: $r15 .cfa: $rsp 8 +
STACK CFI 69f0 $r12: .cfa -40 + ^ $r13: .cfa -32 + ^ $r14: .cfa -24 + ^ $r15: .cfa -16 + ^ $rbp: .cfa -48 + ^ $rbx: .cfa -72 + ^ $rdi: .cfa -56 + ^ $rsi: .cfa -64 + ^ .cfa: $rsp 256 +
STACK CFI INIT 183e00 56a .cfa: $rsp 8 + .ra: .cfa -8 + ^
STACK CFI 183e01 $rbp: .cfa -16 + ^ .cfa: $rsp 16 +
STACK CFI 183e02 $rdi: .cfa -24 + ^ .cfa: $rsp 24 +
STACK CFI 183e03 $rsi: .cfa -32 + ^ .cfa: $rsp 32 +
STACK CFI 183e04 $rbx: .cfa -40 + ^ .cfa: $rsp 40 +
STACK CFI 183e0b .cfa: $rsp 192 +
STACK CFI 184290 .cfa: $rsp 40 +
STACK CFI 184291 $rbx: $rbx .cfa: $rsp 32 +
STACK CFI 184292 $rsi: $rsi .cfa: $rsp 24 +
STACK CFI 184293 $rdi: $rdi .cfa: $rsp 16 +
STACK CFI 184294 $rbp: $rbp .cfa: $rsp 8 +
STACK CFI 184295 $rbp: .cfa -16 + ^ $rbx: .cfa -40 + ^ $rdi: .cfa -24 + ^ $rsi: .cfa -32 + ^ .cfa: $rsp 192 +
STACK CFI INIT 184370 5 .cfa: $rsp 8 + .ra: .cfa -8 + ^
STACK CFI INIT 6db0 c .cfa: $rsp 8 + .ra: .cfa -8 + ^
STACK CFI INIT 6dc0 8 .cfa: $rsp 8 + .ra: .cfa -8 + ^
STACK CFI INIT 184380 20 .cfa: $rsp 8 + .ra: .cfa -8 + ^
STACK CFI 184384 .cfa: $rsp 48 +
STACK CFI 18439b .cfa: $rsp 8 +
STACK CFI INIT 6dd0 c .cfa: $rsp 8 + .ra: .cfa -8 + ^
STACK CFI INIT 6de0 f9 .cfa: $rsp 8 + .ra: .cfa -8 + ^
STACK CFI 6de1 $rbp: .cfa -16 + ^ .cfa: $rsp 16 +
STACK CFI 6de2 $rdi: .cfa -24 + ^ .cfa: $rsp 24 +
STACK CFI 6de3 $rsi: .cfa -32 + ^ .cfa: $rsp 32 +
STACK CFI 6de4 $rbx: .cfa -40 + ^ .cfa: $rsp 40 +
STACK CFI 6de8 .cfa: $rsp 144 +
STACK CFI 6e58 .cfa: $rsp 40 +
STACK CFI 6e59 $rbx: $rbx .cfa: $rsp 32 +
STACK CFI 6e5a $rsi: $rsi .cfa: $rsp 24 +
STACK CFI 6e5b $rdi: $rdi .cfa: $rsp 16 +
STACK CFI 6e5c $rbp: $rbp .cfa: $rsp 8 +
STACK CFI 6e60 $rbp: .cfa -16 + ^ $rbx: .cfa -40 + ^ $rdi: .cfa -24 + ^ $rsi: .cfa -32 + ^ .cfa: $rsp 144 +
STACK CFI INIT 6ee0 1c .cfa: $rsp 8 + .ra: .cfa -8 + ^
STACK CFI 6ee4 .cfa: $rsp 48 +
STACK CFI 6efb .cfa: $rsp 8 +
STACK CFI INIT 6f00 1a .cfa: $rsp 8 + .ra: .cfa -8 + ^
STACK CFI 6f04 .cfa: $rsp 48 +
STACK CFI 6f19 .cfa: $rsp 8 +
STACK CFI INIT 6f20 21 .cfa: $rsp 8 + .ra: .cfa -8 + ^
STACK CFI 6f24 .cfa: $rsp 48 +
STACK CFI 6f40 .cfa: $rsp 8 +
STACK CFI INIT 6f50 3a .cfa: $rsp 8 + .ra: .cfa -8 + ^
STACK CFI 6f51 $rsi: .cfa -16 + ^ .cfa: $rsp 16 +
STACK CFI 6f52 $rbx: .cfa -24 + ^ .cfa: $rsp 24 +
STACK CFI 6f56 .cfa: $rsp 64 +
STACK CFI 6f74 .cfa: $rsp 24 +
STACK CFI 6f75 $rbx: $rbx .cfa: $rsp 16 +
STACK CFI 6f76 $rsi: $rsi .cfa: $rsp 8 +
STACK CFI 6f80 $rbx: .cfa -24 + ^ $rsi: .cfa -16 + ^ .cfa: $rsp 64 +
STACK CFI 6f87 .cfa: $rsp 24 +
STACK CFI 6f88 $rbx: $rbx .cfa: $rsp 16 +
STACK CFI 6f89 $rsi: $rsi .cfa: $rsp 8 +
STACK CFI INIT 6f90 271 .cfa: $rsp 8 + .ra: .cfa -8 + ^
STACK CFI 6f92 $r14: .cfa -16 + ^ .cfa: $rsp 16 +
STACK CFI 6f94 $r13: .cfa -24 + ^ .cfa: $rsp 24 +
STACK CFI 6f96 $r12: .cfa -32 + ^ .cfa: $rsp 32 +
STACK CFI 6f97 $rbp: .cfa -40 + ^ .cfa: $rsp 40 +
STACK CFI 6f98 $rdi: .cfa -48 + ^ .cfa: $rsp 48 +
STACK CFI 6f99 $rsi: .cfa -56 + ^ .cfa: $rsp 56 +
STACK CFI 6f9a $rbx: .cfa -64 + ^ .cfa: $rsp 64 +
STACK CFI 6fa1 .cfa: $rsp 224 +
STACK CFI 70d8 .cfa: $rsp 64 +
STACK CFI 70d9 $rbx: $rbx .cfa: $rsp 56 +
STACK CFI 70da $rsi: $rsi .cfa: $rsp 48 +
STACK CFI 70db $rdi: $rdi .cfa: $rsp 40 +
STACK CFI 70dc $rbp: $rbp .cfa: $rsp 32 +
STACK CFI 70de $r12: $r12 .cfa: $rsp 24 +
STACK CFI 70e0 $r13: $r13 .cfa: $rsp 16 +
STACK CFI 70e2 $r14: $r14 .cfa: $rsp 8 +
STACK CFI 70e3 $r12: .cfa -32 + ^ $r13: .cfa -24 + ^ $r14: .cfa -16 + ^ $rbp: .cfa -40 + ^ $rbx: .cfa -64 + ^ $rdi: .cfa -48 + ^ $rsi: .cfa -56 + ^ .cfa: $rsp 224 +
STACK CFI INIT 7210 109 .cfa: $rsp 8 + .ra: .cfa -8 + ^
STACK CFI 7211 $rbp: .cfa -16 + ^ .cfa: $rsp 16 +
STACK CFI 7212 $rdi: .cfa -24 + ^ .cfa: $rsp 24 +
STACK CFI 7213 $rsi: .cfa -32 + ^ .cfa: $rsp 32 +
STACK CFI 7214 $rbx: .cfa -40 + ^ .cfa: $rsp 40 +
STACK CFI 7218 .cfa: $rsp 128 +
STACK CFI 7293 .cfa: $rsp 40 +
STACK CFI 7294 $rbx: $rbx .cfa: $rsp 32 +
STACK CFI 7295 $rsi: $rsi .cfa: $rsp 24 +
STACK CFI 7296 $rdi: $rdi .cfa: $rsp 16 +
STACK CFI 7297 $rbp: $rbp .cfa: $rsp 8 +
STACK CFI 72a0 $rbp: .cfa -16 + ^ $rbx: .cfa -40 + ^ $rdi: .cfa -24 + ^ $rsi: .cfa -32 + ^ .cfa: $rsp 128 +
STACK CFI INIT 7320 1f0 .cfa: $rsp 8 + .ra: .cfa -8 + ^
STACK CFI 7322 $r12: .cfa -16 + ^ .cfa: $rsp 16 +
STACK CFI 7323 $rbp: .cfa -24 + ^ .cfa: $rsp 24 +
STACK CFI 7324 $rdi: .cfa -32 + ^ .cfa: $rsp 32 +
STACK CFI 7325 $rsi: .cfa -40 + ^ .cfa: $rsp 40 +
STACK CFI 7326 $rbx: .cfa -48 + ^ .cfa: $rsp 48 +
STACK CFI 732a .cfa: $rsp 160 +
STACK CFI 7403 .cfa: $rsp 48 +
STACK CFI 7404 $rbx: $rbx .cfa: $rsp 40 +
STACK CFI 7405 $rsi: $rsi .cfa: $rsp 32 +
STACK CFI 7406 $rdi: $rdi .cfa: $rsp 24 +
STACK CFI 7407 $rbp: $rbp .cfa: $rsp 16 +
STACK CFI 7409 $r12: $r12 .cfa: $rsp 8 +
STACK CFI 7410 $r12: .cfa -16 + ^ $rbp: .cfa -24 + ^ $rbx: .cfa -48 + ^ $rdi: .cfa -32 + ^ $rsi: .cfa -40 + ^ .cfa: $rsp 160 +
STACK CFI 745a .cfa: $rsp 48 +
STACK CFI 745b $rbx: $rbx .cfa: $rsp 40 +
STACK CFI 745c $rsi: $rsi .cfa: $rsp 32 +
STACK CFI 745d $rdi: $rdi .cfa: $rsp 24 +
STACK CFI 745e $rbp: $rbp .cfa: $rsp 16 +
STACK CFI 7460 $r12: $r12 .cfa: $rsp 8 +
STACK CFI 7461 $r12: .cfa -16 + ^ $rbp: .cfa -24 + ^ $rbx: .cfa -48 + ^ $rdi: .cfa -32 + ^ $rsi: .cfa -40 + ^ .cfa: $rsp 160 +
STACK CFI INIT 7510 6c .cfa: $rsp 8 + .ra: .cfa -8 + ^
STACK CFI 7511 $rbx: .cfa -16 + ^ .cfa: $rsp 16 +
STACK CFI 7515 .cfa: $rsp 48 +
STACK CFI 7550 .cfa: $rsp 16 +
STACK CFI 7551 $rbx: $rbx .cfa: $rsp 8 +
STACK CFI 7560 $rbx: .cfa -16 + ^ .cfa: $rsp 48 +
STACK CFI 7576 .cfa: $rsp 16 +
STACK CFI 7577 $rbx: $rbx .cfa: $rsp 8 +
STACK CFI INIT 7580 60 .cfa: $rsp 8 + .ra: .cfa -8 + ^
STACK CFI 7581 $rsi: .cfa -16 + ^ .cfa: $rsp 16 +
STACK CFI 7582 $rbx: .cfa -24 + ^ .cfa: $rsp 24 +
STACK CFI 7586 .cfa: $rsp 96 +
STACK CFI 75be .cfa: $rsp 24 +
STACK CFI 75bf $rbx: $rbx .cfa: $rsp 16 +
STACK CFI 75c0 $rsi: $rsi .cfa: $rsp 8 +
STACK CFI 75c1 $rbx: .cfa -24 + ^ $rsi: .cfa -16 + ^ .cfa: $rsp 96 +
STACK CFI INIT 75e0 8 .cfa: $rsp 8 + .ra: .cfa -8 + ^
STACK CFI INIT 1843a0 20 .cfa: $rsp 8 + .ra: .cfa -8 + ^
STACK CFI 1843a4 .cfa: $rsp 48 +
STACK CFI 1843bb .cfa: $rsp 8 +
STACK CFI INIT 75f0 1 .cfa: $rsp 8 + .ra: .cfa -8 + ^
STACK CFI INIT 7600 c .cfa: $rsp 8 + .ra: .cfa -8 + ^
STACK CFI INIT 7610 16 .cfa: $rsp 8 + .ra: .cfa -8 + ^
STACK CFI 7614 .cfa: $rsp 48 +
STACK CFI INIT 7630 67 .cfa: $rsp 8 + .ra: .cfa -8 + ^
STACK CFI 7634 .cfa: $rsp 48 +
STACK CFI 7662 .cfa: $rsp 8 +
STACK CFI 7663 .cfa: $rsp 48 +
STACK CFI INIT 76a0 94 .cfa: $rsp 8 + .ra: .cfa -8 + ^
STACK CFI 76a1 $rdi: .cfa -16 + ^ .cfa: $rsp 16 +
STACK CFI 76a2 $rsi: .cfa -24 + ^ .cfa: $rsp 24 +
STACK CFI 76a3 $rbx: .cfa -32 + ^ .cfa: $rsp 32 +
STACK CFI 76a7 .cfa: $rsp 80 +
STACK CFI 76ed .cfa: $rsp 32 +
STACK CFI 76ee $rbx: $rbx .cfa: $rsp 24 +
STACK CFI 76ef $rsi: $rsi .cfa: $rsp 16 +
STACK CFI 76f0 $rdi: $rdi .cfa: $rsp 8 +
STACK CFI 76f1 $rbx: .cfa -32 + ^ $rdi: .cfa -16 + ^ $rsi: .cfa -24 + ^ .cfa: $rsp 80 +
STACK CFI INIT 1843c0 3e .cfa: $rsp 8 + .ra: .cfa -8 + ^
STACK CFI 1843c1 $rbx: .cfa -16 + ^ .cfa: $rsp 16 +
STACK CFI 1843c5 .cfa: $rsp 64 +
STACK CFI 1843f8 .cfa: $rsp 16 +
STACK CFI 1843f9 $rbx: $rbx .cfa: $rsp 8 +
STACK CFI INIT 7740 1 .cfa: $rsp 8 + .ra: .cfa -8 + ^
STACK CFI INIT 7750 1 .cfa: $rsp 8 + .ra: .cfa -8 + ^
STACK CFI INIT 7760 78 .cfa: $rsp 8 + .ra: .cfa -8 + ^
STACK CFI 7761 $rbp: .cfa -16 + ^ .cfa: $rsp 16 +
STACK CFI 7762 $rdi: .cfa -24 + ^ .cfa: $rsp 24 +
STACK CFI 7763 $rsi: .cfa -32 + ^ .cfa: $rsp 32 +
STACK CFI 7764 $rbx: .cfa -40 + ^ .cfa: $rsp 40 +
STACK CFI 7768 .cfa: $rsp 96 +
STACK CFI 77d3 .cfa: $rsp 40 +
STACK CFI 77d4 $rbx: $rbx .cfa: $rsp 32 +
STACK CFI 77d5 $rsi: $rsi .cfa: $rsp 24 +
STACK CFI 77d6 $rdi: $rdi .cfa: $rsp 16 +
STACK CFI 77d7 $rbp: $rbp .cfa: $rsp 8 +
STACK CFI INIT 77e0 88 .cfa: $rsp 8 + .ra: .cfa -8 + ^
STACK CFI 77e1 $rdi: .cfa -16 + ^ .cfa: $rsp 16 +
STACK CFI 77e2 $rsi: .cfa -24 + ^ .cfa: $rsp 24 +
STACK CFI 77e3 $rbx: .cfa -32 + ^ .cfa: $rsp 32 +
STACK CFI 77e7 .cfa: $rsp 64 +
STACK CFI 7853 .cfa: $rsp 32 +
STACK CFI 7854 $rbx: $rbx .cfa: $rsp 24 +
STACK CFI 7855 $rsi: $rsi .cfa: $rsp 16 +
STACK CFI 7856 $rdi: $rdi .cfa: $rsp 8 +
STACK CFI 7860 $rbx: .cfa -32 + ^ $rdi: .cfa -16 + ^ $rsi: .cfa -24 + ^ .cfa: $rsp 64 +
STACK CFI 7864 .cfa: $rsp 32 +
STACK CFI 7865 $rbx: $rbx .cfa: $rsp 24 +
STACK CFI 7866 $rsi: $rsi .cfa: $rsp 16 +
STACK CFI 7867 $rdi: $rdi .cfa: $rsp 8 +
STACK CFI INIT 7870 75 .cfa: $rsp 8 + .ra: .cfa -8 + ^
STACK CFI 7874 .cfa: $rsp 48 +
STACK CFI 78d7 .cfa: $rsp 8 +
STACK CFI 78e0 .cfa: $rsp 48 +
STACK CFI 78e4 .cfa: $rsp 8 +
STACK CFI INIT 78f0 89 .cfa: $rsp 8 + .ra: .cfa -8 + ^
STACK CFI 78f4 .cfa: $rsp 48 +
STACK CFI 796f .cfa: $rsp 8 +
STACK CFI 7974 .cfa: $rsp 48 +
STACK CFI 7978 .cfa: $rsp 8 +
STACK CFI INIT 7980 89 .cfa: $rsp 8 + .ra: .cfa -8 + ^
STACK CFI 7984 .cfa: $rsp 48 +
STACK CFI 79ff .cfa: $rsp 8 +
STACK CFI 7a04 .cfa: $rsp 48 +
STACK CFI 7a08 .cfa: $rsp 8 +
STACK CFI INIT 7a10 4a .cfa: $rsp 8 + .ra: .cfa -8 + ^
STACK CFI 7a11 $rsi: .cfa -16 + ^ .cfa: $rsp 16 +
STACK CFI 7a12 $rbx: .cfa -24 + ^ .cfa: $rsp 24 +
STACK CFI 7a16 .cfa: $rsp 80 +
STACK CFI 7a57 .cfa: $rsp 24 +
STACK CFI 7a58 $rbx: $rbx .cfa: $rsp 16 +
STACK CFI 7a59 $rsi: $rsi .cfa: $rsp 8 +
STACK CFI INIT 7a60 50 .cfa: $rsp 8 + .ra: .cfa -8 + ^
STACK CFI 7a61 $rbx: .cfa -16 + ^ .cfa: $rsp 16 +
STACK CFI 7a65 .cfa: $rsp 48 +
STACK CFI 7a95 .cfa: $rsp 16 +
STACK CFI 7a96 $rbx: $rbx .cfa: $rsp 8 +
STACK CFI 7aa0 $rbx: .cfa -16 + ^ .cfa: $rsp 48 +
STACK CFI 7aae .cfa: $rsp 16 +
STACK CFI 7aaf $rbx: $rbx .cfa: $rsp 8 +
STACK CFI INIT 7ab0 2e .cfa: $rsp 8 + .ra: .cfa -8 + ^
STACK CFI 7ab1 $rbx: .cfa -16 + ^ .cfa: $rsp 16 +
STACK CFI 7ab5 .cfa: $rsp 48 +
STACK CFI 7adc .cfa: $rsp 16 +
STACK CFI 7add $rbx: $rbx .cfa: $rsp 8 +
STACK CFI INIT 7ae0 11 .cfa: $rsp 8 + .ra: .cfa -8 + ^
STACK CFI INIT 7b00 47 .cfa: $rsp 8 + .ra: .cfa -8 + ^
STACK CFI 7b01 $rsi: .cfa -16 + ^ .cfa: $rsp 16 +
STACK CFI 7b02 $rbx: .cfa -24 + ^ .cfa: $rsp 24 +
STACK CFI 7b06 .cfa: $rsp 64 +
STACK CFI 7b38 .cfa: $rsp 24 +
STACK CFI 7b39 $rbx: $rbx .cfa: $rsp 16 +
STACK CFI 7b3a $rsi: $rsi .cfa: $rsp 8 +
STACK CFI 7b40 $rbx: .cfa -24 + ^ $rsi: .cfa -16 + ^ .cfa: $rsp 64 +
STACK CFI 7b44 .cfa: $rsp 24 +
STACK CFI 7b45 $rbx: $rbx .cfa: $rsp 16 +
STACK CFI 7b46 $rsi: $rsi .cfa: $rsp 8 +
STACK CFI INIT 7b50 46b .cfa: $rsp 8 + .ra: .cfa -8 + ^
STACK CFI 7b52 $r15: .cfa -16 + ^ .cfa: $rsp 16 +
STACK CFI 7b54 $r14: .cfa -24 + ^ .cfa: $rsp 24 +
STACK CFI 7b56 $r13: .cfa -32 + ^ .cfa: $rsp 32 +
STACK CFI 7b58 $r12: .cfa -40 + ^ .cfa: $rsp 40 +
STACK CFI 7b59 $rbp: .cfa -48 + ^ .cfa: $rsp 48 +
STACK CFI 7b5a $rdi: .cfa -56 + ^ .cfa: $rsp 56 +
STACK CFI 7b5b $rsi: .cfa -64 + ^ .cfa: $rsp 64 +
STACK CFI 7b5c $rbx: .cfa -72 + ^ .cfa: $rsp 72 +
STACK CFI 7b63 .cfa: $rsp 336 +
STACK CFI 7e93 .cfa: $rsp 72 +
STACK CFI 7e94 $rbx: $rbx .cfa: $rsp 64 +
STACK CFI 7e95 $rsi: $rsi .cfa: $rsp 56 +
STACK CFI 7e96 $rdi: $rdi .cfa: $rsp 48 +
STACK CFI 7e97 $rbp: $rbp .cfa: $rsp 40 +
STACK CFI 7e99 $r12: $r12 .cfa: $rsp 32 +
STACK CFI 7e9b $r13: $r13 .cfa: $rsp 24 +
STACK CFI 7e9d $r14: $r14 .cfa: $rsp 16 +
STACK CFI 7e9f $r15: $r15 .cfa: $rsp 8 +
STACK CFI 7ea0 $r12: .cfa -40 + ^ $r13: .cfa -32 + ^ $r14: .cfa -24 + ^ $r15: .cfa -16 + ^ $rbp: .cfa -48 + ^ $rbx: .cfa -72 + ^ $rdi: .cfa -56 + ^ $rsi: .cfa -64 + ^ .cfa: $rsp 336 +
STACK CFI INIT 7fc0 46b .cfa: $rsp 8 + .ra: .cfa -8 + ^
STACK CFI 7fc2 $r15: .cfa -16 + ^ .cfa: $rsp 16 +
STACK CFI 7fc4 $r14: .cfa -24 + ^ .cfa: $rsp 24 +
STACK CFI 7fc6 $r13: .cfa -32 + ^ .cfa: $rsp 32 +
STACK CFI 7fc8 $r12: .cfa -40 + ^ .cfa: $rsp 40 +
STACK CFI 7fc9 $rbp: .cfa -48 + ^ .cfa: $rsp 48 +
STACK CFI 7fca $rdi: .cfa -56 + ^ .cfa: $rsp 56 +
STACK CFI 7fcb $rsi: .cfa -64 + ^ .cfa: $rsp 64 +
STACK CFI 7fcc $rbx: .cfa -72 + ^ .cfa: $rsp 72 +
STACK CFI 7fd3 .cfa: $rsp 336 +
STACK CFI 8303 .cfa: $rsp 72 +
STACK CFI 8304 $rbx: $rbx .cfa: $rsp 64 +
STACK CFI 8305 $rsi: $rsi .cfa: $rsp 56 +
STACK CFI 8306 $rdi: $rdi .cfa: $rsp 48 +
STACK CFI 8307 $rbp: $rbp .cfa: $rsp 40 +
STACK CFI 8309 $r12: $r12 .cfa: $rsp 32 +
STACK CFI 830b $r13: $r13 .cfa: $rsp 24 +
STACK CFI 830d $r14: $r14 .cfa: $rsp 16 +
STACK CFI 830f $r15: $r15 .cfa: $rsp 8 +
STACK CFI 8310 $r12: .cfa -40 + ^ $r13: .cfa -32 + ^ $r14: .cfa -24 + ^ $r15: .cfa -16 + ^ $rbp: .cfa -48 + ^ $rbx: .cfa -72 + ^ $rdi: .cfa -56 + ^ $rsi: .cfa -64 + ^ .cfa: $rsp 336 +
STACK CFI INIT 8430 123 .cfa: $rsp 8 + .ra: .cfa -8 + ^
STACK CFI 8432 $r13: .cfa -16 + ^ .cfa: $rsp 16 +
STACK CFI 8434 $r12: .cfa -24 + ^ .cfa: $rsp 24 +
STACK CFI 8435 $rbp: .cfa -32 + ^ .cfa: $rsp 32 +
STACK CFI 8436 $rdi: .cfa -40 + ^ .cfa: $rsp 40 +
STACK CFI 8437 $rsi: .cfa -48 + ^ .cfa: $rsp 48 +
STACK CFI 8438 $rbx: .cfa -56 + ^ .cfa: $rsp 56 +
STACK CFI 843c .cfa: $rsp 176 +
STACK CFI 852b .cfa: $rsp 56 +
STACK CFI 852c $rbx: $rbx .cfa: $rsp 48 +
STACK CFI 852d $rsi: $rsi .cfa: $rsp 40 +
STACK CFI 852e $rdi: $rdi .cfa: $rsp 32 +
STACK CFI 852f $rbp: $rbp .cfa: $rsp 24 +
STACK CFI 8531 $r12: $r12 .cfa: $rsp 16 +
STACK CFI 8533 $r13: $r13 .cfa: $rsp 8 +
STACK CFI 8534 $r12: .cfa -24 + ^ $r13: .cfa -16 + ^ $rbp: .cfa -32 + ^ $rbx: .cfa -56 + ^ $rdi: .cfa -40 + ^ $rsi: .cfa -48 + ^ .cfa: $rsp 176 +
STACK CFI INIT 8560 252 .cfa: $rsp 8 + .ra: .cfa -8 + ^
STACK CFI 8562 $r14: .cfa -16 + ^ .cfa: $rsp 16 +
STACK CFI 8564 $r13: .cfa -24 + ^ .cfa: $rsp 24 +
STACK CFI 8566 $r12: .cfa -32 + ^ .cfa: $rsp 32 +
STACK CFI 8567 $rbp: .cfa -40 + ^ .cfa: $rsp 40 +
STACK CFI 8568 $rdi: .cfa -48 + ^ .cfa: $rsp 48 +
STACK CFI 8569 $rsi: .cfa -56 + ^ .cfa: $rsp 56 +
STACK CFI 856a $rbx: .cfa -64 + ^ .cfa: $rsp 64 +
STACK CFI 856e .cfa: $rsp 176 +
STACK CFI 86d8 .cfa: $rsp 64 +
STACK CFI 86d9 $rbx: $rbx .cfa: $rsp 56 +
STACK CFI 86da $rsi: $rsi .cfa: $rsp 48 +
STACK CFI 86db $rdi: $rdi .cfa: $rsp 40 +
STACK CFI 86dc $rbp: $rbp .cfa: $rsp 32 +
STACK CFI 86de $r12: $r12 .cfa: $rsp 24 +
STACK CFI 86e0 $r13: $r13 .cfa: $rsp 16 +
STACK CFI 86e2 $r14: $r14 .cfa: $rsp 8 +
STACK CFI 86e3 $r12: .cfa -32 + ^ $r13: .cfa -24 + ^ $r14: .cfa -16 + ^ $rbp: .cfa -40 + ^ $rbx: .cfa -64 + ^ $rdi: .cfa -48 + ^ $rsi: .cfa -56 + ^ .cfa: $rsp 176 +
STACK CFI INIT 87c0 ee .cfa: $rsp 8 + .ra: .cfa -8 + ^
STACK CFI 87c1 $rsi: .cfa -16 + ^ .cfa: $rsp 16 +
STACK CFI 87c2 $rbx: .cfa -24 + ^ .cfa: $rsp 24 +
STACK CFI 87c6 .cfa: $rsp 144 +
STACK CFI 87f4 .cfa: $rsp 24 +
STACK CFI 87f5 $rbx: $rbx .cfa: $rsp 16 +
STACK CFI 87f6 $rsi: $rsi .cfa: $rsp 8 +
STACK CFI 8800 $rbx: .cfa -24 + ^ $rsi: .cfa -16 + ^ .cfa: $rsp 144 +
STACK CFI 888c .cfa: $rsp 24 +
STACK CFI 888d $rbx: $rbx .cfa: $rsp 16 +
STACK CFI 888e $rsi: $rsi .cfa: $rsp 8 +
STACK CFI 888f $rbx: .cfa -24 + ^ $rsi: .cfa -16 + ^ .cfa: $rsp 144 +
STACK CFI INIT 88b0 16b .cfa: $rsp 8 + .ra: .cfa -8 + ^
STACK CFI 88b1 $rdi: .cfa -16 + ^ .cfa: $rsp 16 +
STACK CFI 88b2 $rsi: .cfa -24 + ^ .cfa: $rsp 24 +
STACK CFI 88b3 $rbx: .cfa -32 + ^ .cfa: $rsp 32 +
STACK CFI 88b7 .cfa: $rsp 96 +
STACK CFI 8949 .cfa: $rsp 32 +
STACK CFI 894a $rbx: $rbx .cfa: $rsp 24 +
STACK CFI 894b $rsi: $rsi .cfa: $rsp 16 +
STACK CFI 894c $rdi: $rdi .cfa: $rsp 8 +
STACK CFI 8950 $rbx: .cfa -32 + ^ $rdi: .cfa -16 + ^ $rsi: .cfa -24 + ^ .cfa: $rsp 96 +
STACK CFI 899a .cfa: $rsp 32 +
STACK CFI 899b $rbx: $rbx .cfa: $rsp 24 +
STACK CFI 899c $rsi: $rsi .cfa: $rsp 16 +
STACK CFI 899d $rdi: $rdi .cfa: $rsp 8 +
STACK CFI 89a0 $rbx: .cfa -32 + ^ $rdi: .cfa -16 + ^ $rsi: .cfa -24 + ^ .cfa: $rsp 96 +
STACK CFI INIT 8a20 9a .cfa: $rsp 8 + .ra: .cfa -8 + ^
STACK CFI 8a21 $rbx: .cfa -16 + ^ .cfa: $rsp 16 +
STACK CFI 8a25 .cfa: $rsp 80 +
STACK CFI 8a59 .cfa: $rsp 16 +
STACK CFI 8a5a $rbx: $rbx .cfa: $rsp 8 +
STACK CFI 8a5b $rbx: .cfa -16 + ^ .cfa: $rsp 80 +
STACK CFI INIT 8ac0 e0 .cfa: $rsp 8 + .ra: .cfa -8 + ^
STACK CFI 8ac2 $r12: .cfa -16 + ^ .cfa: $rsp 16 +
STACK CFI 8ac3 $rbp: .cfa -24 + ^ .cfa: $rsp 24 +
STACK CFI 8ac4 $rdi: .cfa -32 + ^ .cfa: $rsp 32 +
STACK CFI 8ac5 $rsi: .cfa -40 + ^ .cfa: $rsp 40 +
STACK CFI 8ac6 $rbx: .cfa -48 + ^ .cfa: $rsp 48 +
STACK CFI 8aca .cfa: $rsp 112 +
STACK CFI 8b1c .cfa: $rsp 48 +
STACK CFI 8b1d $rbx: $rbx .cfa: $rsp 40 +
STACK CFI 8b1e $rsi: $rsi .cfa: $rsp 32 +
STACK CFI 8b1f $rdi: $rdi .cfa: $rsp 24 +
STACK CFI 8b20 $rbp: $rbp .cfa: $rsp 16 +
STACK CFI 8b22 $r12: $r12 .cfa: $rsp 8 +
STACK CFI 8b23 $r12: .cfa -16 + ^ $rbp: .cfa -24 + ^ $rbx: .cfa -48 + ^ $rdi: .cfa -32 + ^ $rsi: .cfa -40 + ^ .cfa: $rsp 112 +
STACK CFI 8b38 .cfa: $rsp 48 +
STACK CFI 8b39 $rbx: $rbx .cfa: $rsp 40 +
STACK CFI 8b3a $rsi: $rsi .cfa: $rsp 32 +
STACK CFI 8b3b $rdi: $rdi .cfa: $rsp 24 +
STACK CFI 8b3c $rbp: $rbp .cfa: $rsp 16 +
STACK CFI 8b3e $r12: $r12 .cfa: $rsp 8 +
STACK CFI 8b3f $r12: .cfa -16 + ^ $rbp: .cfa -24 + ^ $rbx: .cfa -48 + ^ $rdi: .cfa -32 + ^ $rsi: .cfa -40 + ^ .cfa: $rsp 112 +
STACK CFI INIT 8ba0 94 .cfa: $rsp 8 + .ra: .cfa -8 + ^
STACK CFI 8ba1 $rsi: .cfa -16 + ^ .cfa: $rsp 16 +
STACK CFI 8ba2 $rbx: .cfa -24 + ^ .cfa: $rsp 24 +
STACK CFI 8baf .cfa: $rsp 4176 +
STACK CFI 8c31 .cfa: $rsp 24 +
STACK CFI 8c32 $rbx: $rbx .cfa: $rsp 16 +
STACK CFI 8c33 $rsi: $rsi .cfa: $rsp 8 +
STACK CFI INIT 8c40 123 .cfa: $rsp 8 + .ra: .cfa -8 + ^
STACK CFI 8c42 $r12: .cfa -16 + ^ .cfa: $rsp 16 +
STACK CFI 8c43 $rbp: .cfa -24 + ^ .cfa: $rsp 24 +
STACK CFI 8c44 $rdi: .cfa -32 + ^ .cfa: $rsp 32 +
STACK CFI 8c45 $rsi: .cfa -40 + ^ .cfa: $rsp 40 +
STACK CFI 8c46 $rbx: .cfa -48 + ^ .cfa: $rsp 48 +
STACK CFI 8c4a .cfa: $rsp 112 +
STACK CFI 8cbe .cfa: $rsp 48 +
STACK CFI 8cbf $rbx: $rbx .cfa: $rsp 40 +
STACK CFI 8cc0 $rsi: $rsi .cfa: $rsp 32 +
STACK CFI 8cc1 $rdi: $rdi .cfa: $rsp 24 +
STACK CFI 8cc2 $rbp: $rbp .cfa: $rsp 16 +
STACK CFI 8cc4 $r12: $r12 .cfa: $rsp 8 +
STACK CFI 8cc5 $r12: .cfa -16 + ^ $rbp: .cfa -24 + ^ $rbx: .cfa -48 + ^ $rdi: .cfa -32 + ^ $rsi: .cfa -40 + ^ .cfa: $rsp 112 +
STACK CFI 8ce6 .cfa: $rsp 48 +
STACK CFI 8ce7 $rbx: $rbx .cfa: $rsp 40 +
STACK CFI 8ce8 $rsi: $rsi .cfa: $rsp 32 +
STACK CFI 8ce9 $rdi: $rdi .cfa: $rsp 24 +
STACK CFI 8cea $rbp: $rbp .cfa: $rsp 16 +
STACK CFI 8cec $r12: $r12 .cfa: $rsp 8 +
STACK CFI 8ced $r12: .cfa -16 + ^ $rbp: .cfa -24 + ^ $rbx: .cfa -48 + ^ $rdi: .cfa -32 + ^ $rsi: .cfa -40 + ^ .cfa: $rsp 112 +
STACK CFI INIT 8d70 da .cfa: $rsp 8 + .ra: .cfa -8 + ^
STACK CFI 8d71 $rdi: .cfa -16 + ^ .cfa: $rsp 16 +
STACK CFI 8d72 $rsi: .cfa -24 + ^ .cfa: $rsp 24 +
STACK CFI 8d73 $rbx: .cfa -32 + ^ .cfa: $rsp 32 +
STACK CFI 8d77 .cfa: $rsp 128 +
STACK CFI 8dd4 .cfa: $rsp 32 +
STACK CFI 8dd5 $rbx: $rbx .cfa: $rsp 24 +
STACK CFI 8dd6 $rsi: $rsi .cfa: $rsp 16 +
STACK CFI 8dd7 $rdi: $rdi .cfa: $rsp 8 +
STACK CFI 8dd8 $rbx: .cfa -32 + ^ $rdi: .cfa -16 + ^ $rsi: .cfa -24 + ^ .cfa: $rsp 128 +
STACK CFI INIT 8e50 5 .cfa: $rsp 8 + .ra: .cfa -8 + ^
STACK CFI INIT 8e60 49d .cfa: $rsp 8 + .ra: .cfa -8 + ^
STACK CFI 8e62 $r15: .cfa -16 + ^ .cfa: $rsp 16 +
STACK CFI 8e64 $r14: .cfa -24 + ^ .cfa: $rsp 24 +
STACK CFI 8e66 $r13: .cfa -32 + ^ .cfa: $rsp 32 +
STACK CFI 8e68 $r12: .cfa -40 + ^ .cfa: $rsp 40 +
STACK CFI 8e69 $rbp: .cfa -48 + ^ .cfa: $rsp 48 +
STACK CFI 8e6a $rdi: .cfa -56 + ^ .cfa: $rsp 56 +
STACK CFI 8e6b $rsi: .cfa -64 + ^ .cfa: $rsp 64 +
STACK CFI 8e6c $rbx: .cfa -72 + ^ .cfa: $rsp 72 +
STACK CFI 8e73 .cfa: $rsp 352 +
STACK CFI 9120 .cfa: $rsp 72 +
STACK CFI 9121 $rbx: $rbx .cfa: $rsp 64 +
STACK CFI 9122 $rsi: $rsi .cfa: $rsp 56 +
STACK CFI 9123 $rdi: $rdi .cfa: $rsp 48 +
STACK CFI 9124 $rbp: $rbp .cfa: $rsp 40 +
STACK CFI 9126 $r12: $r12 .cfa: $rsp 32 +
STACK CFI 9128 $r13: $r13 .cfa: $rsp 24 +
STACK CFI 912a $r14: $r14 .cfa: $rsp 16 +
STACK CFI 912c $r15: $r15 .cfa: $rsp 8 +
STACK CFI 9130 $r12: .cfa -40 + ^ $r13: .cfa -32 + ^ $r14: .cfa -24 + ^ $r15: .cfa -16 + ^ $rbp: .cfa -48 + ^ $rbx: .cfa -72 + ^ $rdi: .cfa -56 + ^ $rsi: .cfa -64 + ^ .cfa: $rsp 352 +
STACK CFI INIT 9300 37c .cfa: $rsp 8 + .ra: .cfa -8 + ^
STACK CFI 9302 $r15: .cfa -16 + ^ .cfa: $rsp 16 +
STACK CFI 9304 $r14: .cfa -24 + ^ .cfa: $rsp 24 +
STACK CFI 9306 $r13: .cfa -32 + ^ .cfa: $rsp 32 +
STACK CFI 9308 $r12: .cfa -40 + ^ .cfa: $rsp 40 +
STACK CFI 9309 $rbp: .cfa -48 + ^ .cfa: $rsp 48 +
STACK CFI 930a $rdi: .cfa -56 + ^ .cfa: $rsp 56 +
STACK CFI 930b $rsi: .cfa -64 + ^ .cfa: $rsp 64 +
STACK CFI 930c $rbx: .cfa -72 + ^ .cfa: $rsp 72 +
STACK CFI 9313 .cfa: $rsp 256 +
STACK CFI 95fa .cfa: $rsp 72 +
STACK CFI 95fb $rbx: $rbx .cfa: $rsp 64 +
STACK CFI 95fc $rsi: $rsi .cfa: $rsp 56 +
STACK CFI 95fd $rdi: $rdi .cfa: $rsp 48 +
STACK CFI 95fe $rbp: $rbp .cfa: $rsp 40 +
STACK CFI 9600 $r12: $r12 .cfa: $rsp 32 +
STACK CFI 9602 $r13: $r13 .cfa: $rsp 24 +
STACK CFI 9604 $r14: $r14 .cfa: $rsp 16 +
STACK CFI 9606 $r15: $r15 .cfa: $rsp 8 +
STACK CFI 9610 $r12: .cfa -40 + ^ $r13: .cfa -32 + ^ $r14: .cfa -24 + ^ $r15: .cfa -16 + ^ $rbp: .cfa -48 + ^ $rbx: .cfa -72 + ^ $rdi: .cfa -56 + ^ $rsi: .cfa -64 + ^ .cfa: $rsp 256 +
STACK CFI INIT 9680 8e .cfa: $rsp 8 + .ra: .cfa -8 + ^
STACK CFI 9681 $rbp: .cfa -16 + ^ .cfa: $rsp 16 +
STACK CFI 9682 $rdi: .cfa -24 + ^ .cfa: $rsp 24 +
STACK CFI 9683 $rsi: .cfa -32 + ^ .cfa: $rsp 32 +
STACK CFI 9684 $rbx: .cfa -40 + ^ .cfa: $rsp 40 +
STACK CFI 9688 .cfa: $rsp 144 +
STACK CFI 96ea .cfa: $rsp 40 +
STACK CFI 96eb $rbx: $rbx .cfa: $rsp 32 +
STACK CFI 96ec $rsi: $rsi .cfa: $rsp 24 +
STACK CFI 96ed $rdi: $rdi .cfa: $rsp 16 +
STACK CFI 96ee $rbp: $rbp .cfa: $rsp 8 +
STACK CFI 96ef $rbp: .cfa -16 + ^ $rbx: .cfa -40 + ^ $rdi: .cfa -24 + ^ $rsi: .cfa -32 + ^ .cfa: $rsp 144 +
STACK CFI INIT 9710 35f .cfa: $rsp 8 + .ra: .cfa -8 + ^
STACK CFI 9712 $r13: .cfa -16 + ^ .cfa: $rsp 16 +
STACK CFI 9714 $r12: .cfa -24 + ^ .cfa: $rsp 24 +
STACK CFI 9715 $rbp: .cfa -32 + ^ .cfa: $rsp 32 +
STACK CFI 9716 $rdi: .cfa -40 + ^ .cfa: $rsp 40 +
STACK CFI 9717 $rsi: .cfa -48 + ^ .cfa: $rsp 48 +
STACK CFI 9718 $rbx: .cfa -56 + ^ .cfa: $rsp 56 +
STACK CFI 971c .cfa: $rsp 176 +
STACK CFI 98b5 .cfa: $rsp 56 +
STACK CFI 98b6 $rbx: $rbx .cfa: $rsp 48 +
STACK CFI 98b7 $rsi: $rsi .cfa: $rsp 40 +
STACK CFI 98b8 $rdi: $rdi .cfa: $rsp 32 +
STACK CFI 98b9 $rbp: $rbp .cfa: $rsp 24 +
STACK CFI 98bb $r12: $r12 .cfa: $rsp 16 +
STACK CFI 98bd $r13: $r13 .cfa: $rsp 8 +
STACK CFI 98c0 $r12: .cfa -24 + ^ $r13: .cfa -16 + ^ $rbp: .cfa -32 + ^ $rbx: .cfa -56 + ^ $rdi: .cfa -40 + ^ $rsi: .cfa -48 + ^ .cfa: $rsp 176 +
STACK CFI 99d0 .cfa: $rsp 56 +
STACK CFI 99d1 $rbx: $rbx .cfa: $rsp 48 +
STACK CFI 99d2 $rsi: $rsi .cfa: $rsp 40 +
STACK CFI 99d3 $rdi: $rdi .cfa: $rsp 32 +
STACK CFI 99d4 $rbp: $rbp .cfa: $rsp 24 +
STACK CFI 99d6 $r12: $r12 .cfa: $rsp 16 +
STACK CFI 99d8 $r13: $r13 .cfa: $rsp 8 +
STACK CFI 99e0 $r12: .cfa -24 + ^ $r13: .cfa -16 + ^ $rbp: .cfa -32 + ^ $rbx: .cfa -56 + ^ $rdi: .cfa -40 + ^ $rsi: .cfa -48 + ^ .cfa: $rsp 176 +
STACK CFI 9a35 .cfa: $rsp 56 +
STACK CFI 9a36 $rbx: $rbx .cfa: $rsp 48 +
STACK CFI 9a37 $rsi: $rsi .cfa: $rsp 40 +
STACK CFI 9a38 $rdi: $rdi .cfa: $rsp 32 +
STACK CFI 9a39 $rbp: $rbp .cfa: $rsp 24 +
STACK CFI 9a3b $r12: $r12 .cfa: $rsp 16 +
STACK CFI 9a3d $r13: $r13 .cfa: $rsp 8 +
STACK CFI 9a3e $r12: .cfa -24 + ^ $r13: .cfa -16 + ^ $rbp: .cfa -32 + ^ $rbx: .cfa -56 + ^ $rdi: .cfa -40 + ^ $rsi: .cfa -48 + ^ .cfa: $rsp 176 +
STACK CFI INIT 9a70 1f4 .cfa: $rsp 8 + .ra: .cfa -8 + ^
STACK CFI 9a72 $r12: .cfa -16 + ^ .cfa: $rsp 16 +
STACK CFI 9a73 $rbp: .cfa -24 + ^ .cfa: $rsp 24 +
STACK CFI 9a74 $rdi: .cfa -32 + ^ .cfa: $rsp 32 +
STACK CFI 9a75 $rsi: .cfa -40 + ^ .cfa: $rsp 40 +
STACK CFI 9a76 $rbx: .cfa -48 + ^ .cfa: $rsp 48 +
STACK CFI 9a7a .cfa: $rsp 160 +
STACK CFI 9bb4 .cfa: $rsp 48 +
STACK CFI 9bb5 $rbx: $rbx .cfa: $rsp 40 +
STACK CFI 9bb6 $rsi: $rsi .cfa: $rsp 32 +
STACK CFI 9bb7 $rdi: $rdi .cfa: $rsp 24 +
STACK CFI 9bb8 $rbp: $rbp .cfa: $rsp 16 +
STACK CFI 9bba $r12: $r12 .cfa: $rsp 8 +
STACK CFI 9bc0 $r12: .cfa -16 + ^ $rbp: .cfa -24 + ^ $rbx: .cfa -48 + ^ $rdi: .cfa -32 + ^ $rsi: .cfa -40 + ^ .cfa: $rsp 160 +
STACK CFI 9c00 .cfa: $rsp 48 +
STACK CFI 9c01 $rbx: $rbx .cfa: $rsp 40 +
STACK CFI 9c02 $rsi: $rsi .cfa: $rsp 32 +
STACK CFI 9c03 $rdi: $rdi .cfa: $rsp 24 +
STACK CFI 9c04 $rbp: $rbp .cfa: $rsp 16 +
STACK CFI 9c06 $r12: $r12 .cfa: $rsp 8 +
STACK CFI 9c10 $r12: .cfa -16 + ^ $rbp: .cfa -24 + ^ $rbx: .cfa -48 + ^ $rdi: .cfa -32 + ^ $rsi: .cfa -40 + ^ .cfa: $rsp 160 +
STACK CFI 9c33 .cfa: $rsp 48 +
STACK CFI 9c34 $rbx: $rbx .cfa: $rsp 40 +
STACK CFI 9c35 $rsi: $rsi .cfa: $rsp 32 +
STACK CFI 9c36 $rdi: $rdi .cfa: $rsp 24 +
STACK CFI 9c37 $rbp: $rbp .cfa: $rsp 16 +
STACK CFI 9c39 $r12: $r12 .cfa: $rsp 8 +
STACK CFI 9c40 $r12: .cfa -16 + ^ $rbp: .cfa -24 + ^ $rbx: .cfa -48 + ^ $rdi: .cfa -32 + ^ $rsi: .cfa -40 + ^ .cfa: $rsp 160 +
STACK CFI INIT 9c70 490 .cfa: $rsp 8 + .ra: .cfa -8 + ^
STACK CFI 9c72 $r15: .cfa -16 + ^ .cfa: $rsp 16 +
STACK CFI 9c74 $r14: .cfa -24 + ^ .cfa: $rsp 24 +
STACK CFI 9c76 $r13: .cfa -32 + ^ .cfa: $rsp 32 +
STACK CFI 9c78 $r12: .cfa -40 + ^ .cfa: $rsp 40 +
STACK CFI 9c79 $rbp: .cfa -48 + ^ .cfa: $rsp 48 +
STACK CFI 9c7a $rdi: .cfa -56 + ^ .cfa: $rsp 56 +
STACK CFI 9c7b $rsi: .cfa -64 + ^ .cfa: $rsp 64 +
STACK CFI 9c7c $rbx: .cfa -72 + ^ .cfa: $rsp 72 +
STACK CFI 9c83 .cfa: $rsp 256 +
STACK CFI 9de5 .cfa: $rsp 72 +
STACK CFI 9de6 $rbx: $rbx .cfa: $rsp 64 +
STACK CFI 9de7 $rsi: $rsi .cfa: $rsp 56 +
STACK CFI 9de8 $rdi: $rdi .cfa: $rsp 48 +
STACK CFI 9de9 $rbp: $rbp .cfa: $rsp 40 +
STACK CFI 9deb $r12: $r12 .cfa: $rsp 32 +
STACK CFI 9ded $r13: $r13 .cfa: $rsp 24 +
STACK CFI 9def $r14: $r14 .cfa: $rsp 16 +
STACK CFI 9df1 $r15: $r15 .cfa: $rsp 8 +
STACK CFI 9df2 $r12: .cfa -40 + ^ $r13: .cfa -32 + ^ $r14: .cfa -24 + ^ $r15: .cfa -16 + ^ $rbp: .cfa -48 + ^ $rbx: .cfa -72 + ^ $rdi: .cfa -56 + ^ $rsi: .cfa -64 + ^ .cfa: $rsp 256 +
STACK CFI INIT a100 7 .cfa: $rsp 8 + .ra: .cfa -8 + ^
STACK CFI INIT a110 2 .cfa: $rsp 8 + .ra: .cfa -8 + ^
STACK CFI INIT a120 a .cfa: $rsp 8 + .ra: .cfa -8 + ^
STACK CFI INIT a130 13f .cfa: $rsp 8 + .ra: .cfa -8 + ^
STACK CFI a131 $rbp: .cfa -16 + ^ .cfa: $rsp 16 +
STACK CFI a132 $rdi: .cfa -24 + ^ .cfa: $rsp 24 +
STACK CFI a133 $rsi: .cfa -32 + ^ .cfa: $rsp 32 +
STACK CFI a134 $rbx: .cfa -40 + ^ .cfa: $rsp 40 +
STACK CFI a138 .cfa: $rsp 128 +
STACK CFI a1fe .cfa: $rsp 40 +
STACK CFI a1ff $rbx: $rbx .cfa: $rsp 32 +
STACK CFI a200 $rsi: $rsi .cfa: $rsp 24 +
STACK CFI a201 $rdi: $rdi .cfa: $rsp 16 +
STACK CFI a202 $rbp: $rbp .cfa: $rsp 8 +
STACK CFI a203 $rbp: .cfa -16 + ^ $rbx: .cfa -40 + ^ $rdi: .cfa -24 + ^ $rsi: .cfa -32 + ^ .cfa: $rsp 128 +
STACK CFI INIT a270 24b .cfa: $rsp 8 + .ra: .cfa -8 + ^
STACK CFI a271 $rbp: .cfa -16 + ^ .cfa: $rsp 16 +
STACK CFI a272 $rdi: .cfa -24 + ^ .cfa: $rsp 24 +
STACK CFI a273 $rsi: .cfa -32 + ^ .cfa: $rsp 32 +
STACK CFI a274 $rbx: .cfa -40 + ^ .cfa: $rsp 40 +
STACK CFI a278 .cfa: $rsp 160 +
STACK CFI a327 .cfa: $rsp 40 +
STACK CFI a328 $rbx: $rbx .cfa: $rsp 32 +
STACK CFI a329 $rsi: $rsi .cfa: $rsp 24 +
STACK CFI a32a $rdi: $rdi .cfa: $rsp 16 +
STACK CFI a32b $rbp: $rbp .cfa: $rsp 8 +
STACK CFI a330 $rbp: .cfa -16 + ^ $rbx: .cfa -40 + ^ $rdi: .cfa -24 + ^ $rsi: .cfa -32 + ^ .cfa: $rsp 160 +
STACK CFI a3a4 .cfa: $rsp 40 +
STACK CFI a3a5 $rbx: $rbx .cfa: $rsp 32 +
STACK CFI a3a6 $rsi: $rsi .cfa: $rsp 24 +
STACK CFI a3a7 $rdi: $rdi .cfa: $rsp 16 +
STACK CFI a3a8 $rbp: $rbp .cfa: $rsp 8 +
STACK CFI a3b0 $rbp: .cfa -16 + ^ $rbx: .cfa -40 + ^ $rdi: .cfa -24 + ^ $rsi: .cfa -32 + ^ .cfa: $rsp 160 +
STACK CFI a452 .cfa: $rsp 40 +
STACK CFI a453 $rbx: $rbx .cfa: $rsp 32 +
STACK CFI a454 $rsi: $rsi .cfa: $rsp 24 +
STACK CFI a455 $rdi: $rdi .cfa: $rsp 16 +
STACK CFI a456 $rbp: $rbp .cfa: $rsp 8 +
STACK CFI a460 $rbp: .cfa -16 + ^ $rbx: .cfa -40 + ^ $rdi: .cfa -24 + ^ $rsi: .cfa -32 + ^ .cfa: $rsp 160 +
STACK CFI a472 .cfa: $rsp 40 +
STACK CFI a473 $rbx: $rbx .cfa: $rsp 32 +
STACK CFI a474 $rsi: $rsi .cfa: $rsp 24 +
STACK CFI a475 $rdi: $rdi .cfa: $rsp 16 +
STACK CFI a476 $rbp: $rbp .cfa: $rsp 8 +
STACK CFI a477 $rbp: .cfa -16 + ^ $rbx: .cfa -40 + ^ $rdi: .cfa -24 + ^ $rsi: .cfa -32 + ^ .cfa: $rsp 160 +
STACK CFI INIT a4c0 9a .cfa: $rsp 8 + .ra: .cfa -8 + ^
STACK CFI a4c1 $rbx: .cfa -16 + ^ .cfa: $rsp 16 +
STACK CFI a4c5 .cfa: $rsp 80 +
STACK CFI a4f6 .cfa: $rsp 16 +
STACK CFI a4f7 $rbx: $rbx .cfa: $rsp 8 +
STACK CFI a4f8 $rbx: .cfa -16 + ^ .cfa: $rsp 80 +
STACK CFI INIT a560 12a .cfa: $rsp 8 + .ra: .cfa -8 + ^
STACK CFI a561 $rbp: .cfa -16 + ^ .cfa: $rsp 16 +
STACK CFI a562 $rdi: .cfa -24 + ^ .cfa: $rsp 24 +
STACK CFI a563 $rsi: .cfa -32 + ^ .cfa: $rsp 32 +
STACK CFI a564 $rbx: .cfa -40 + ^ .cfa: $rsp 40 +
STACK CFI a568 .cfa: $rsp 128 +
STACK CFI a5ec .cfa: $rsp 40 +
STACK CFI a5ed $rbx: $rbx .cfa: $rsp 32 +
STACK CFI a5ee $rsi: $rsi .cfa: $rsp 24 +
STACK CFI a5ef $rdi: $rdi .cfa: $rsp 16 +
STACK CFI a5f0 $rbp: $rbp .cfa: $rsp 8 +
STACK CFI a5f1 $rbp: .cfa -16 + ^ $rbx: .cfa -40 + ^ $rdi: .cfa -24 + ^ $rsi: .cfa -32 + ^ .cfa: $rsp 128 +
STACK CFI INIT a690 b0 .cfa: $rsp 8 + .ra: .cfa -8 + ^
STACK CFI a691 $rbx: .cfa -16 + ^ .cfa: $rsp 16 +
STACK CFI a695 .cfa: $rsp 80 +
STACK CFI a6d6 .cfa: $rsp 16 +
STACK CFI a6d7 $rbx: $rbx .cfa: $rsp 8 +
STACK CFI a6d8 $rbx: .cfa -16 + ^ .cfa: $rsp 80 +
STACK CFI a72d .cfa: $rsp 16 +
STACK CFI a72e $rbx: $rbx .cfa: $rsp 8 +
STACK CFI a72f $rbx: .cfa -16 + ^ .cfa: $rsp 80 +
STACK CFI INIT a740 224 .cfa: $rsp 8 + .ra: .cfa -8 + ^
STACK CFI a742 $r12: .cfa -16 + ^ .cfa: $rsp 16 +
STACK CFI a743 $rbp: .cfa -24 + ^ .cfa: $rsp 24 +
STACK CFI a744 $rdi: .cfa -32 + ^ .cfa: $rsp 32 +
STACK CFI a745 $rsi: .cfa -40 + ^ .cfa: $rsp 40 +
STACK CFI a746 $rbx: .cfa -48 + ^ .cfa: $rsp 48 +
STACK CFI a74a .cfa: $rsp 176 +
STACK CFI a8f1 .cfa: $rsp 48 +
STACK CFI a8f2 $rbx: $rbx .cfa: $rsp 40 +
STACK CFI a8f3 $rsi: $rsi .cfa: $rsp 32 +
STACK CFI a8f4 $rdi: $rdi .cfa: $rsp 24 +
STACK CFI a8f5 $rbp: $rbp .cfa: $rsp 16 +
STACK CFI a8f7 $r12: $r12 .cfa: $rsp 8 +
STACK CFI a8f8 $r12: .cfa -16 + ^ $rbp: .cfa -24 + ^ $rbx: .cfa -48 + ^ $rdi: .cfa -32 + ^ $rsi: .cfa -40 + ^ .cfa: $rsp 176 +
STACK CFI INIT a970 484 .cfa: $rsp 8 + .ra: .cfa -8 + ^
STACK CFI a972 $r15: .cfa -16 + ^ .cfa: $rsp 16 +
STACK CFI a974 $r14: .cfa -24 + ^ .cfa: $rsp 24 +
STACK CFI a976 $r13: .cfa -32 + ^ .cfa: $rsp 32 +
STACK CFI a978 $r12: .cfa -40 + ^ .cfa: $rsp 40 +
STACK CFI a979 $rbp: .cfa -48 + ^ .cfa: $rsp 48 +
STACK CFI a97a $rdi: .cfa -56 + ^ .cfa: $rsp 56 +
STACK CFI a97b $rsi: .cfa -64 + ^ .cfa: $rsp 64 +
STACK CFI a97c $rbx: .cfa -72 + ^ .cfa: $rsp 72 +
STACK CFI a983 .cfa: $rsp 288 +
STACK CFI acf5 .cfa: $rsp 72 +
STACK CFI acf6 $rbx: $rbx .cfa: $rsp 64 +
STACK CFI acf7 $rsi: $rsi .cfa: $rsp 56 +
STACK CFI acf8 $rdi: $rdi .cfa: $rsp 48 +
STACK CFI acf9 $rbp: $rbp .cfa: $rsp 40 +
STACK CFI acfb $r12: $r12 .cfa: $rsp 32 +
STACK CFI acfd $r13: $r13 .cfa: $rsp 24 +
STACK CFI acff $r14: $r14 .cfa: $rsp 16 +
STACK CFI ad01 $r15: $r15 .cfa: $rsp 8 +
STACK CFI ad02 $r12: .cfa -40 + ^ $r13: .cfa -32 + ^ $r14: .cfa -24 + ^ $r15: .cfa -16 + ^ $rbp: .cfa -48 + ^ $rbx: .cfa -72 + ^ $rdi: .cfa -56 + ^ $rsi: .cfa -64 + ^ .cfa: $rsp 288 +
STACK CFI INIT ae00 30e .cfa: $rsp 8 + .ra: .cfa -8 + ^
STACK CFI ae01 $rbp: .cfa -16 + ^ .cfa: $rsp 16 +
STACK CFI ae02 $rdi: .cfa -24 + ^ .cfa: $rsp 24 +
STACK CFI ae03 $rsi: .cfa -32 + ^ .cfa: $rsp 32 +
STACK CFI ae04 $rbx: .cfa -40 + ^ .cfa: $rsp 40 +
STACK CFI ae0b .cfa: $rsp 192 +
STACK CFI ae1b .cfa: $rsp 40 +
STACK CFI ae1c $rbx: $rbx .cfa: $rsp 32 +
STACK CFI ae1d $rsi: $rsi .cfa: $rsp 24 +
STACK CFI ae1e $rdi: $rdi .cfa: $rsp 16 +
STACK CFI ae1f $rbp: $rbp .cfa: $rsp 8 +
STACK CFI ae20 $rbp: .cfa -16 + ^ $rbx: .cfa -40 + ^ $rdi: .cfa -24 + ^ $rsi: .cfa -32 + ^ .cfa: $rsp 192 +
STACK CFI INIT b110 7b .cfa: $rsp 8 + .ra: .cfa -8 + ^
STACK CFI b111 $rdi: .cfa -16 + ^ .cfa: $rsp 16 +
STACK CFI b112 $rsi: .cfa -24 + ^ .cfa: $rsp 24 +
STACK CFI b113 $rbx: .cfa -32 + ^ .cfa: $rsp 32 +
STACK CFI b117 .cfa: $rsp 80 +
STACK CFI b16b .cfa: $rsp 32 +
STACK CFI b16c $rbx: $rbx .cfa: $rsp 24 +
STACK CFI b16d $rsi: $rsi .cfa: $rsp 16 +
STACK CFI b16e $rdi: $rdi .cfa: $rsp 8 +
STACK CFI b170 $rbx: .cfa -32 + ^ $rdi: .cfa -16 + ^ $rsi: .cfa -24 + ^ .cfa: $rsp 80 +
STACK CFI b187 .cfa: $rsp 32 +
STACK CFI b188 $rbx: $rbx .cfa: $rsp 24 +
STACK CFI b189 $rsi: $rsi .cfa: $rsp 16 +
STACK CFI b18a $rdi: $rdi .cfa: $rsp 8 +
STACK CFI INIT 184400 4e6 .cfa: $rsp 8 + .ra: .cfa -8 + ^
STACK CFI 184402 $r12: .cfa -16 + ^ .cfa: $rsp 16 +
STACK CFI 184403 $rbp: .cfa -24 + ^ .cfa: $rsp 24 +
STACK CFI 184404 $rdi: .cfa -32 + ^ .cfa: $rsp 32 +
STACK CFI 184405 $rsi: .cfa -40 + ^ .cfa: $rsp 40 +
STACK CFI 184406 $rbx: .cfa -48 + ^ .cfa: $rsp 48 +
STACK CFI 18440d .cfa: $rsp 224 +
STACK CFI 1847a6 .cfa: $rsp 48 +
STACK CFI 1847a7 $rbx: $rbx .cfa: $rsp 40 +
STACK CFI 1847a8 $rsi: $rsi .cfa: $rsp 32 +
STACK CFI 1847a9 $rdi: $rdi .cfa: $rsp 24 +
STACK CFI 1847aa $rbp: $rbp .cfa: $rsp 16 +
STACK CFI 1847ac $r12: $r12 .cfa: $rsp 8 +
STACK CFI 1847ad $r12: .cfa -16 + ^ $rbp: .cfa -24 + ^ $rbx: .cfa -48 + ^ $rdi: .cfa -32 + ^ $rsi: .cfa -40 + ^ .cfa: $rsp 224 +
STACK CFI INIT b190 71 .cfa: $rsp 8 + .ra: .cfa -8 + ^
STACK CFI INIT b210 1a8 .cfa: $rsp 8 + .ra: .cfa -8 + ^
STACK CFI b211 $rbx: .cfa -16 + ^ .cfa: $rsp 16 +
STACK CFI b215 .cfa: $rsp 48 +
STACK CFI b2c9 .cfa: $rsp 16 +
STACK CFI b2ca $rbx: $rbx .cfa: $rsp 8 +
STACK CFI b2d0 $rbx: .cfa -16 + ^ .cfa: $rsp 48 +
STACK CFI INIT b3c0 c .cfa: $rsp 8 + .ra: .cfa -8 + ^
STACK CFI INIT b3d0 90 .cfa: $rsp 8 + .ra: .cfa -8 + ^
STACK CFI b3d1 $rdi: .cfa -16 + ^ .cfa: $rsp 16 +
STACK CFI b3d2 $rsi: .cfa -24 + ^ .cfa: $rsp 24 +
STACK CFI b3d3 $rbx: .cfa -32 + ^ .cfa: $rsp 32 +
STACK CFI b3d7 .cfa: $rsp 64 +
STACK CFI b419 .cfa: $rsp 32 +
STACK CFI b41a $rbx: $rbx .cfa: $rsp 24 +
STACK CFI b41b $rsi: $rsi .cfa: $rsp 16 +
STACK CFI b41c $rdi: $rdi .cfa: $rsp 8 +
STACK CFI b420 $rbx: .cfa -32 + ^ $rdi: .cfa -16 + ^ $rsi: .cfa -24 + ^ .cfa: $rsp 64 +
STACK CFI b44a .cfa: $rsp 32 +
STACK CFI b44b $rbx: $rbx .cfa: $rsp 24 +
STACK CFI b44c $rsi: $rsi .cfa: $rsp 16 +
STACK CFI b44d $rdi: $rdi .cfa: $rsp 8 +
STACK CFI b450 $rbx: .cfa -32 + ^ $rdi: .cfa -16 + ^ $rsi: .cfa -24 + ^ .cfa: $rsp 64 +
STACK CFI INIT b460 3b .cfa: $rsp 8 + .ra: .cfa -8 + ^
STACK CFI INIT b4a0 29 .cfa: $rsp 8 + .ra: .cfa -8 + ^
STACK CFI INIT b4d0 2e5 .cfa: $rsp 8 + .ra: .cfa -8 + ^
STACK CFI b4d1 $rdi: .cfa -16 + ^ .cfa: $rsp 16 +
STACK CFI b4d2 $rsi: .cfa -24 + ^ .cfa: $rsp 24 +
STACK CFI b4d3 $rbx: .cfa -32 + ^ .cfa: $rsp 32 +
STACK CFI b4e7 $rbx: $rbx .cfa: $rsp 24 +
STACK CFI b4e8 $rsi: $rsi .cfa: $rsp 16 +
STACK CFI b4e9 $rdi: $rdi .cfa: $rsp 8 +
STACK CFI b4f0 $rbx: .cfa -32 + ^ $rdi: .cfa -16 + ^ $rsi: .cfa -24 + ^ .cfa: $rsp 32 +
STACK CFI b6df $rbx: $rbx .cfa: $rsp 24 +
STACK CFI b6e0 $rsi: $rsi .cfa: $rsp 16 +
STACK CFI b6e1 $rdi: $rdi .cfa: $rsp 8 +
STACK CFI b6f0 $rbx: .cfa -32 + ^ $rdi: .cfa -16 + ^ $rsi: .cfa -24 + ^ .cfa: $rsp 32 +
STACK CFI INIT b7c0 6a .cfa: $rsp 8 + .ra: .cfa -8 + ^
STACK CFI INIT b830 7d .cfa: $rsp 8 + .ra: .cfa -8 + ^
STACK CFI INIT b8b0 9c .cfa: $rsp 8 + .ra: .cfa -8 + ^
STACK CFI b8b1 $rdi: .cfa -16 + ^ .cfa: $rsp 16 +
STACK CFI b8b2 $rsi: .cfa -24 + ^ .cfa: $rsp 24 +
STACK CFI b8b3 $rbx: .cfa -32 + ^ .cfa: $rsp 32 +
STACK CFI b8b7 .cfa: $rsp 64 +
STACK CFI b8d7 .cfa: $rsp 32 +
STACK CFI b8d8 $rbx: $rbx .cfa: $rsp 24 +
STACK CFI b8d9 $rsi: $rsi .cfa: $rsp 16 +
STACK CFI b8da $rdi: $rdi .cfa: $rsp 8 +
STACK CFI b8e0 $rbx: .cfa -32 + ^ $rdi: .cfa -16 + ^ $rsi: .cfa -24 + ^ .cfa: $rsp 64 +
STACK CFI b948 .cfa: $rsp 32 +
STACK CFI b949 $rbx: $rbx .cfa: $rsp 24 +
STACK CFI b94a $rsi: $rsi .cfa: $rsp 16 +
STACK CFI b94b $rdi: $rdi .cfa: $rsp 8 +
STACK CFI INIT b950 31 .cfa: $rsp 8 + .ra: .cfa -8 + ^
STACK CFI b954 .cfa: $rsp 48 +
STACK CFI b980 .cfa: $rsp 8 +
STACK CFI INIT b990 1f6 .cfa: $rsp 8 + .ra: .cfa -8 + ^
STACK CFI b992 $r15: .cfa -16 + ^ .cfa: $rsp 16 +
STACK CFI b994 $r14: .cfa -24 + ^ .cfa: $rsp 24 +
STACK CFI b99b $r13: .cfa -32 + ^ .cfa: $rsp 32 +
STACK CFI b99d $r12: .cfa -40 + ^ .cfa: $rsp 40 +
STACK CFI b99e $rbp: .cfa -48 + ^ .cfa: $rsp 48 +
STACK CFI b99f $rdi: .cfa -56 + ^ .cfa: $rsp 56 +
STACK CFI b9a0 $rsi: .cfa -64 + ^ .cfa: $rsp 64 +
STACK CFI b9a1 $rbx: .cfa -72 + ^ .cfa: $rsp 72 +
STACK CFI b9a9 .cfa: $rsp 116928 +
STACK CFI b9be .cfa: $rsp 72 +
STACK CFI b9bf $rbx: $rbx .cfa: $rsp 64 +
STACK CFI b9c0 $rsi: $rsi .cfa: $rsp 56 +
STACK CFI b9c1 $rdi: $rdi .cfa: $rsp 48 +
STACK CFI b9c2 $rbp: $rbp .cfa: $rsp 40 +
STACK CFI b9c4 $r12: $r12 .cfa: $rsp 32 +
STACK CFI b9c6 $r13: $r13 .cfa: $rsp 24 +
STACK CFI b9c8 $r14: $r14 .cfa: $rsp 16 +
STACK CFI b9ca $r15: $r15 .cfa: $rsp 8 +
STACK CFI b9d0 $r12: .cfa -40 + ^ $r13: .cfa -32 + ^ $r14: .cfa -24 + ^ $r15: .cfa -16 + ^ $rbp: .cfa -48 + ^ $rbx: .cfa -72 + ^ $rdi: .cfa -56 + ^ $rsi: .cfa -64 + ^ .cfa: $rsp 116928 +
STACK CFI INIT bb90 116 .cfa: $rsp 8 + .ra: .cfa -8 + ^
STACK CFI bb92 $r15: .cfa -16 + ^ .cfa: $rsp 16 +
STACK CFI bb94 $r14: .cfa -24 + ^ .cfa: $rsp 24 +
STACK CFI bb9b $r13: .cfa -32 + ^ .cfa: $rsp 32 +
STACK CFI bb9d $r12: .cfa -40 + ^ .cfa: $rsp 40 +
STACK CFI bb9e $rbp: .cfa -48 + ^ .cfa: $rsp 48 +
STACK CFI bb9f $rdi: .cfa -56 + ^ .cfa: $rsp 56 +
STACK CFI bba0 $rsi: .cfa -64 + ^ .cfa: $rsp 64 +
STACK CFI bba1 $rbx: .cfa -72 + ^ .cfa: $rsp 72 +
STACK CFI bba9 .cfa: $rsp 116896 +
STACK CFI bbbf .cfa: $rsp 72 +
STACK CFI bbc0 $rbx: $rbx .cfa: $rsp 64 +
STACK CFI bbc1 $rsi: $rsi .cfa: $rsp 56 +
STACK CFI bbc2 $rdi: $rdi .cfa: $rsp 48 +
STACK CFI bbc3 $rbp: $rbp .cfa: $rsp 40 +
STACK CFI bbc5 $r12: $r12 .cfa: $rsp 32 +
STACK CFI bbc7 $r13: $r13 .cfa: $rsp 24 +
STACK CFI bbc9 $r14: $r14 .cfa: $rsp 16 +
STACK CFI bbcb $r15: $r15 .cfa: $rsp 8 +
STACK CFI bbd0 $r12: .cfa -40 + ^ $r13: .cfa -32 + ^ $r14: .cfa -24 + ^ $r15: .cfa -16 + ^ $rbp: .cfa -48 + ^ $rbx: .cfa -72 + ^ $rdi: .cfa -56 + ^ $rsi: .cfa -64 + ^ .cfa: $rsp 116896 +
STACK CFI INIT bcb0 116 .cfa: $rsp 8 + .ra: .cfa -8 + ^
STACK CFI bcb1 $rbx: .cfa -16 + ^ .cfa: $rsp 16 +
STACK CFI bcb5 .cfa: $rsp 48 +
STACK CFI bdc4 .cfa: $rsp 16 +
STACK CFI bdc5 $rbx: $rbx .cfa: $rsp 8 +
STACK CFI INIT 1848f0 20 .cfa: $rsp 8 + .ra: .cfa -8 + ^
STACK CFI 1848f4 .cfa: $rsp 48 +
STACK CFI 18490b .cfa: $rsp 8 +
STACK CFI INIT bdd0 36 .cfa: $rsp 8 + .ra: .cfa -8 + ^
STACK CFI INIT be10 36 .cfa: $rsp 8 + .ra: .cfa -8 + ^
STACK CFI INIT be50 c .cfa: $rsp 8 + .ra: .cfa -8 + ^
STACK CFI INIT be60 94 .cfa: $rsp 8 + .ra: .cfa -8 + ^
STACK CFI be61 $rdi: .cfa -16 + ^ .cfa: $rsp 16 +
STACK CFI be62 $rsi: .cfa -24 + ^ .cfa: $rsp 24 +
STACK CFI be63 $rbx: .cfa -32 + ^ .cfa: $rsp 32 +
STACK CFI be67 .cfa: $rsp 80 +
STACK CFI bead .cfa: $rsp 32 +
STACK CFI beae $rbx: $rbx .cfa: $rsp 24 +
STACK CFI beaf $rsi: $rsi .cfa: $rsp 16 +
STACK CFI beb0 $rdi: $rdi .cfa: $rsp 8 +
STACK CFI beb1 $rbx: .cfa -32 + ^ $rdi: .cfa -16 + ^ $rsi: .cfa -24 + ^ .cfa: $rsp 80 +
STACK CFI INIT bf00 13 .cfa: $rsp 8 + .ra: .cfa -8 + ^
STACK CFI INIT bf20 5 .cfa: $rsp 8 + .ra: .cfa -8 + ^
STACK CFI INIT bf30 11 .cfa: $rsp 8 + .ra: .cfa -8 + ^
STACK CFI INIT bf50 d .cfa: $rsp 8 + .ra: .cfa -8 + ^
STACK CFI INIT bf60 d .cfa: $rsp 8 + .ra: .cfa -8 + ^
STACK CFI INIT bf70 2 .cfa: $rsp 8 + .ra: .cfa -8 + ^
STACK CFI INIT bf80 5a .cfa: $rsp 8 + .ra: .cfa -8 + ^
STACK CFI bf84 .cfa: $rsp 48 +
STACK CFI bfbd .cfa: $rsp 8 +
STACK CFI bfc2 .cfa: $rsp 48 +
STACK CFI INIT bfe0 17c .cfa: $rsp 8 + .ra: .cfa -8 + ^
STACK CFI bfe2 $r13: .cfa -16 + ^ .cfa: $rsp 16 +
STACK CFI bfe4 $r12: .cfa -24 + ^ .cfa: $rsp 24 +
STACK CFI bfe5 $rbp: .cfa -32 + ^ .cfa: $rsp 32 +
STACK CFI bfe6 $rdi: .cfa -40 + ^ .cfa: $rsp 40 +
STACK CFI bfe7 $rsi: .cfa -48 + ^ .cfa: $rsp 48 +
STACK CFI bfe8 $rbx: .cfa -56 + ^ .cfa: $rsp 56 +
STACK CFI bfec .cfa: $rsp 96 +
STACK CFI c05c .cfa: $rsp 56 +
STACK CFI c05d $rbx: $rbx .cfa: $rsp 48 +
STACK CFI c05e $rsi: $rsi .cfa: $rsp 40 +
STACK CFI c05f $rdi: $rdi .cfa: $rsp 32 +
STACK CFI c060 $rbp: $rbp .cfa: $rsp 24 +
STACK CFI c062 $r12: $r12 .cfa: $rsp 16 +
STACK CFI c064 $r13: $r13 .cfa: $rsp 8 +
STACK CFI c065 $r12: .cfa -24 + ^ $r13: .cfa -16 + ^ $rbp: .cfa -32 + ^ $rbx: .cfa -56 + ^ $rdi: .cfa -40 + ^ $rsi: .cfa -48 + ^ .cfa: $rsp 96 +
STACK CFI c0bc .cfa: $rsp 56 +
STACK CFI c0bd $rbx: $rbx .cfa: $rsp 48 +
STACK CFI c0be $rsi: $rsi .cfa: $rsp 40 +
STACK CFI c0bf $rdi: $rdi .cfa: $rsp 32 +
STACK CFI c0c0 $rbp: $rbp .cfa: $rsp 24 +
STACK CFI c0c2 $r12: $r12 .cfa: $rsp 16 +
STACK CFI c0c4 $r13: $r13 .cfa: $rsp 8 +
STACK CFI c0c5 $r12: .cfa -24 + ^ $r13: .cfa -16 + ^ $rbp: .cfa -32 + ^ $rbx: .cfa -56 + ^ $rdi: .cfa -40 + ^ $rsi: .cfa -48 + ^ .cfa: $rsp 96 +
STACK CFI c0cd .cfa: $rsp 56 +
STACK CFI c0ce $rbx: $rbx .cfa: $rsp 48 +
STACK CFI c0cf $rsi: $rsi .cfa: $rsp 40 +
STACK CFI c0d0 $rdi: $rdi .cfa: $rsp 32 +
STACK CFI c0d1 $rbp: $rbp .cfa: $rsp 24 +
STACK CFI c0d3 $r12: $r12 .cfa: $rsp 16 +
STACK CFI c0d5 $r13: $r13 .cfa: $rsp 8 +
STACK CFI c0e0 $r12: .cfa -24 + ^ $r13: .cfa -16 + ^ $rbp: .cfa -32 + ^ $rbx: .cfa -56 + ^ $rdi: .cfa -40 + ^ $rsi: .cfa -48 + ^ .cfa: $rsp 96 +
STACK CFI INIT c160 170 .cfa: $rsp 8 + .ra: .cfa -8 + ^
STACK CFI c162 $r15: .cfa -16 + ^ .cfa: $rsp 16 +
STACK CFI c164 $r14: .cfa -24 + ^ .cfa: $rsp 24 +
STACK CFI c166 $r13: .cfa -32 + ^ .cfa: $rsp 32 +
STACK CFI c168 $r12: .cfa -40 + ^ .cfa: $rsp 40 +
STACK CFI c169 $rbp: .cfa -48 + ^ .cfa: $rsp 48 +
STACK CFI c16a $rdi: .cfa -56 + ^ .cfa: $rsp 56 +
STACK CFI c16b $rsi: .cfa -64 + ^ .cfa: $rsp 64 +
STACK CFI c16c $rbx: .cfa -72 + ^ .cfa: $rsp 72 +
STACK CFI c170 .cfa: $rsp 128 +
STACK CFI c1cc .cfa: $rsp 72 +
STACK CFI c1cd $rbx: $rbx .cfa: $rsp 64 +
STACK CFI c1ce $rsi: $rsi .cfa: $rsp 56 +
STACK CFI c1cf $rdi: $rdi .cfa: $rsp 48 +
STACK CFI c1d0 $rbp: $rbp .cfa: $rsp 40 +
STACK CFI c1d2 $r12: $r12 .cfa: $rsp 32 +
STACK CFI c1d4 $r13: $r13 .cfa: $rsp 24 +
STACK CFI c1d6 $r14: $r14 .cfa: $rsp 16 +
STACK CFI c1d8 $r15: $r15 .cfa: $rsp 8 +
STACK CFI c1e0 $r12: .cfa -40 + ^ $r13: .cfa -32 + ^ $r14: .cfa -24 + ^ $r15: .cfa -16 + ^ $rbp: .cfa -48 + ^ $rbx: .cfa -72 + ^ $rdi: .cfa -56 + ^ $rsi: .cfa -64 + ^ .cfa: $rsp 128 +
STACK CFI INIT c2d0 b .cfa: $rsp 8 + .ra: .cfa -8 + ^
STACK CFI INIT c2e0 2 .cfa: $rsp 8 + .ra: .cfa -8 + ^
STACK CFI INIT c2f0 42 .cfa: $rsp 8 + .ra: .cfa -8 + ^
STACK CFI c2f1 $rdi: .cfa -16 + ^ .cfa: $rsp 16 +
STACK CFI c2f2 $rsi: .cfa -24 + ^ .cfa: $rsp 24 +
STACK CFI c2f3 $rbx: .cfa -32 + ^ .cfa: $rsp 32 +
STACK CFI c2f7 .cfa: $rsp 64 +
STACK CFI c32e .cfa: $rsp 32 +
STACK CFI c32f $rbx: $rbx .cfa: $rsp 24 +
STACK CFI c330 $rsi: $rsi .cfa: $rsp 16 +
STACK CFI c331 $rdi: $rdi .cfa: $rsp 8 +
STACK CFI INIT c340 b .cfa: $rsp 8 + .ra: .cfa -8 + ^
STACK CFI INIT c350 b .cfa: $rsp 8 + .ra: .cfa -8 + ^
STACK CFI INIT c360 f .cfa: $rsp 8 + .ra: .cfa -8 + ^
STACK CFI INIT c370 1a .cfa: $rsp 8 + .ra: .cfa -8 + ^
STACK CFI INIT c390 1a .cfa: $rsp 8 + .ra: .cfa -8 + ^
STACK CFI INIT c3b0 29 .cfa: $rsp 8 + .ra: .cfa -8 + ^
STACK CFI c3b1 $rbx: .cfa -16 + ^ .cfa: $rsp 16 +
STACK CFI c3b5 .cfa: $rsp 48 +
STACK CFI c3d7 .cfa: $rsp 16 +
STACK CFI c3d8 $rbx: $rbx .cfa: $rsp 8 +
STACK CFI INIT c3e0 29 .cfa: $rsp 8 + .ra: .cfa -8 + ^
STACK CFI c3e1 $rbx: .cfa -16 + ^ .cfa: $rsp 16 +
STACK CFI c3e5 .cfa: $rsp 48 +
STACK CFI c407 .cfa: $rsp 16 +
STACK CFI c408 $rbx: $rbx .cfa: $rsp 8 +
STACK CFI INIT c410 27 .cfa: $rsp 8 + .ra: .cfa -8 + ^
STACK CFI c411 $rbx: .cfa -16 + ^ .cfa: $rsp 16 +
STACK CFI c415 .cfa: $rsp 48 +
STACK CFI c435 .cfa: $rsp 16 +
STACK CFI c436 $rbx: $rbx .cfa: $rsp 8 +
STACK CFI INIT c440 26 .cfa: $rsp 8 + .ra: .cfa -8 + ^
STACK CFI c441 $rbx: .cfa -16 + ^ .cfa: $rsp 16 +
STACK CFI c445 .cfa: $rsp 48 +
STACK CFI c464 .cfa: $rsp 16 +
STACK CFI c465 $rbx: $rbx .cfa: $rsp 8 +
STACK CFI INIT c470 32 .cfa: $rsp 8 + .ra: .cfa -8 + ^
STACK CFI c471 $rbx: .cfa -16 + ^ .cfa: $rsp 16 +
STACK CFI c475 .cfa: $rsp 64 +
STACK CFI c4a0 .cfa: $rsp 16 +
STACK CFI c4a1 $rbx: $rbx .cfa: $rsp 8 +
STACK CFI INIT c4b0 5c .cfa: $rsp 8 + .ra: .cfa -8 + ^
STACK CFI c4b1 $rbp: .cfa -16 + ^ .cfa: $rsp 16 +
STACK CFI c4b2 $rdi: .cfa -24 + ^ .cfa: $rsp 24 +
STACK CFI c4b3 $rsi: .cfa -32 + ^ .cfa: $rsp 32 +
STACK CFI c4b4 $rbx: .cfa -40 + ^ .cfa: $rsp 40 +
STACK CFI c4b8 .cfa: $rsp 80 +
STACK CFI c4eb .cfa: $rsp 40 +
STACK CFI c4ec $rbx: $rbx .cfa: $rsp 32 +
STACK CFI c4ed $rsi: $rsi .cfa: $rsp 24 +
STACK CFI c4ee $rdi: $rdi .cfa: $rsp 16 +
STACK CFI c4ef $rbp: $rbp .cfa: $rsp 8 +
STACK CFI c4f0 $rbp: .cfa -16 + ^ $rbx: .cfa -40 + ^ $rdi: .cfa -24 + ^ $rsi: .cfa -32 + ^ .cfa: $rsp 80 +
STACK CFI INIT c510 5c .cfa: $rsp 8 + .ra: .cfa -8 + ^
STACK CFI c511 $rbp: .cfa -16 + ^ .cfa: $rsp 16 +
STACK CFI c512 $rdi: .cfa -24 + ^ .cfa: $rsp 24 +
STACK CFI c513 $rsi: .cfa -32 + ^ .cfa: $rsp 32 +
STACK CFI c514 $rbx: .cfa -40 + ^ .cfa: $rsp 40 +
STACK CFI c518 .cfa: $rsp 80 +
STACK CFI c54b .cfa: $rsp 40 +
STACK CFI c54c $rbx: $rbx .cfa: $rsp 32 +
STACK CFI c54d $rsi: $rsi .cfa: $rsp 24 +
STACK CFI c54e $rdi: $rdi .cfa: $rsp 16 +
STACK CFI c54f $rbp: $rbp .cfa: $rsp 8 +
STACK CFI c550 $rbp: .cfa -16 + ^ $rbx: .cfa -40 + ^ $rdi: .cfa -24 + ^ $rsi: .cfa -32 + ^ .cfa: $rsp 80 +
STACK CFI INIT c570 64 .cfa: $rsp 8 + .ra: .cfa -8 + ^
STACK CFI c571 $rbp: .cfa -16 + ^ .cfa: $rsp 16 +
STACK CFI c572 $rdi: .cfa -24 + ^ .cfa: $rsp 24 +
STACK CFI c573 $rsi: .cfa -32 + ^ .cfa: $rsp 32 +
STACK CFI c574 $rbx: .cfa -40 + ^ .cfa: $rsp 40 +
STACK CFI c578 .cfa: $rsp 80 +
STACK CFI c5ab .cfa: $rsp 40 +
STACK CFI c5ac $rbx: $rbx .cfa: $rsp 32 +
STACK CFI c5ad $rsi: $rsi .cfa: $rsp 24 +
STACK CFI c5ae $rdi: $rdi .cfa: $rsp 16 +
STACK CFI c5af $rbp: $rbp .cfa: $rsp 8 +
STACK CFI c5b0 $rbp: .cfa -16 + ^ $rbx: .cfa -40 + ^ $rdi: .cfa -24 + ^ $rsi: .cfa -32 + ^ .cfa: $rsp 80 +
STACK CFI INIT c5e0 3d .cfa: $rsp 8 + .ra: .cfa -8 + ^
STACK CFI c5e1 $rbx: .cfa -16 + ^ .cfa: $rsp 16 +
STACK CFI c5e5 .cfa: $rsp 48 +
STACK CFI c61b .cfa: $rsp 16 +
STACK CFI c61c $rbx: $rbx .cfa: $rsp 8 +
STACK CFI INIT c620 4c .cfa: $rsp 8 + .ra: .cfa -8 + ^
STACK CFI c621 $rbp: .cfa -16 + ^ .cfa: $rsp 16 +
STACK CFI c622 $rdi: .cfa -24 + ^ .cfa: $rsp 24 +
STACK CFI c623 $rsi: .cfa -32 + ^ .cfa: $rsp 32 +
STACK CFI c624 $rbx: .cfa -40 + ^ .cfa: $rsp 40 +
STACK CFI c628 .cfa: $rsp 80 +
STACK CFI c667 .cfa: $rsp 40 +
STACK CFI c668 $rbx: $rbx .cfa: $rsp 32 +
STACK CFI c669 $rsi: $rsi .cfa: $rsp 24 +
STACK CFI c66a $rdi: $rdi .cfa: $rsp 16 +
STACK CFI c66b $rbp: $rbp .cfa: $rsp 8 +
STACK CFI INIT c670 63 .cfa: $rsp 8 + .ra: .cfa -8 + ^
STACK CFI INIT c6e0 51 .cfa: $rsp 8 + .ra: .cfa -8 + ^
STACK CFI c6e1 $rdi: .cfa -16 + ^ .cfa: $rsp 16 +
STACK CFI c6e2 $rsi: .cfa -24 + ^ .cfa: $rsp 24 +
STACK CFI c6e3 $rbx: .cfa -32 + ^ .cfa: $rsp 32 +
STACK CFI c6e7 .cfa: $rsp 64 +
STACK CFI c710 .cfa: $rsp 32 +
STACK CFI c711 $rbx: $rbx .cfa: $rsp 24 +
STACK CFI c712 $rsi: $rsi .cfa: $rsp 16 +
STACK CFI c713 $rdi: $rdi .cfa: $rsp 8 +
STACK CFI c720 $rbx: .cfa -32 + ^ $rdi: .cfa -16 + ^ $rsi: .cfa -24 + ^ .cfa: $rsp 64 +
STACK CFI c729 .cfa: $rsp 32 +
STACK CFI c72a $rbx: $rbx .cfa: $rsp 24 +
STACK CFI c72b $rsi: $rsi .cfa: $rsp 16 +
STACK CFI c72c $rdi: $rdi .cfa: $rsp 8 +
STACK CFI INIT c740 41 .cfa: $rsp 8 + .ra: .cfa -8 + ^
STACK CFI c741 $rdi: .cfa -16 + ^ .cfa: $rsp 16 +
STACK CFI c742 $rsi: .cfa -24 + ^ .cfa: $rsp 24 +
STACK CFI c743 $rbx: .cfa -32 + ^ .cfa: $rsp 32 +
STACK CFI c747 .cfa: $rsp 64 +
STACK CFI c763 .cfa: $rsp 32 +
STACK CFI c764 $rbx: $rbx .cfa: $rsp 24 +
STACK CFI c765 $rsi: $rsi .cfa: $rsp 16 +
STACK CFI c766 $rdi: $rdi .cfa: $rsp 8 +
STACK CFI c770 $rbx: .cfa -32 + ^ $rdi: .cfa -16 + ^ $rsi: .cfa -24 + ^ .cfa: $rsp 64 +
STACK CFI c779 .cfa: $rsp 32 +
STACK CFI c77a $rbx: $rbx .cfa: $rsp 24 +
STACK CFI c77b $rsi: $rsi .cfa: $rsp 16 +
STACK CFI c77c $rdi: $rdi .cfa: $rsp 8 +
STACK CFI INIT c790 43 .cfa: $rsp 8 + .ra: .cfa -8 + ^
STACK CFI c791 $rbx: .cfa -16 + ^ .cfa: $rsp 16 +
STACK CFI c795 .cfa: $rsp 64 +
STACK CFI c79a $xmm6: .cfa -32 + ^
STACK CFI c7cd $xmm6: $xmm6 .cfa: $rsp 16 +
STACK CFI c7ce $rbx: $rbx .cfa: $rsp 8 +
STACK CFI INIT c7e0 43 .cfa: $rsp 8 + .ra: .cfa -8 + ^
STACK CFI c7e1 $rbx: .cfa -16 + ^ .cfa: $rsp 16 +
STACK CFI c7e5 .cfa: $rsp 80 +
STACK CFI c7ea $xmm6: .cfa -32 + ^
STACK CFI c821 $xmm6: $xmm6 .cfa: $rsp 16 +
STACK CFI c822 $rbx: $rbx .cfa: $rsp 8 +
STACK CFI INIT c830 52 .cfa: $rsp 8 + .ra: .cfa -8 + ^
STACK CFI c831 $rbp: .cfa -16 + ^ .cfa: $rsp 16 +
STACK CFI c832 $rdi: .cfa -24 + ^ .cfa: $rsp 24 +
STACK CFI c833 $rsi: .cfa -32 + ^ .cfa: $rsp 32 +
STACK CFI c834 $rbx: .cfa -40 + ^ .cfa: $rsp 40 +
STACK CFI c838 .cfa: $rsp 80 +
STACK CFI c867 .cfa: $rsp 40 +
STACK CFI c868 $rbx: $rbx .cfa: $rsp 32 +
STACK CFI c869 $rsi: $rsi .cfa: $rsp 24 +
STACK CFI c86a $rdi: $rdi .cfa: $rsp 16 +
STACK CFI c86b $rbp: $rbp .cfa: $rsp 8 +
STACK CFI c870 $rbp: .cfa -16 + ^ $rbx: .cfa -40 + ^ $rdi: .cfa -24 + ^ $rsi: .cfa -32 + ^ .cfa: $rsp 80 +
STACK CFI c879 .cfa: $rsp 40 +
STACK CFI c87a $rbx: $rbx .cfa: $rsp 32 +
STACK CFI c87b $rsi: $rsi .cfa: $rsp 24 +
STACK CFI c87c $rdi: $rdi .cfa: $rsp 16 +
STACK CFI c87d $rbp: $rbp .cfa: $rsp 8 +
STACK CFI INIT c890 4a .cfa: $rsp 8 + .ra: .cfa -8 + ^
STACK CFI c891 $rbp: .cfa -16 + ^ .cfa: $rsp 16 +
STACK CFI c892 $rdi: .cfa -24 + ^ .cfa: $rsp 24 +
STACK CFI c893 $rsi: .cfa -32 + ^ .cfa: $rsp 32 +
STACK CFI c894 $rbx: .cfa -40 + ^ .cfa: $rsp 40 +
STACK CFI c898 .cfa: $rsp 80 +
STACK CFI c8d5 .cfa: $rsp 40 +
STACK CFI c8d6 $rbx: $rbx .cfa: $rsp 32 +
STACK CFI c8d7 $rsi: $rsi .cfa: $rsp 24 +
STACK CFI c8d8 $rdi: $rdi .cfa: $rsp 16 +
STACK CFI c8d9 $rbp: $rbp .cfa: $rsp 8 +
STACK CFI INIT c8e0 49 .cfa: $rsp 8 + .ra: .cfa -8 + ^
STACK CFI c8e1 $rsi: .cfa -16 + ^ .cfa: $rsp 16 +
STACK CFI c8e2 $rbx: .cfa -24 + ^ .cfa: $rsp 24 +
STACK CFI c8e6 .cfa: $rsp 80 +
STACK CFI c8eb $xmm6: .cfa -48 + ^
STACK CFI c922 $xmm6: $xmm6 .cfa: $rsp 24 +
STACK CFI c923 $rbx: $rbx .cfa: $rsp 16 +
STACK CFI c924 $rsi: $rsi .cfa: $rsp 8 +
STACK CFI INIT c930 3f .cfa: $rsp 8 + .ra: .cfa -8 + ^
STACK CFI c931 $rsi: .cfa -16 + ^ .cfa: $rsp 16 +
STACK CFI c932 $rbx: .cfa -24 + ^ .cfa: $rsp 24 +
STACK CFI c936 .cfa: $rsp 64 +
STACK CFI c96c .cfa: $rsp 24 +
STACK CFI c96d $rbx: $rbx .cfa: $rsp 16 +
STACK CFI c96e $rsi: $rsi .cfa: $rsp 8 +
STACK CFI INIT c970 1cd .cfa: $rsp 8 + .ra: .cfa -8 + ^
STACK CFI c971 $rdi: .cfa -16 + ^ .cfa: $rsp 16 +
STACK CFI c972 $rsi: .cfa -24 + ^ .cfa: $rsp 24 +
STACK CFI c973 $rbx: .cfa -32 + ^ .cfa: $rsp 32 +
STACK CFI c977 .cfa: $rsp 64 +
STACK CFI ca03 .cfa: $rsp 32 +
STACK CFI ca04 $rbx: $rbx .cfa: $rsp 24 +
STACK CFI ca05 $rsi: $rsi .cfa: $rsp 16 +
STACK CFI ca06 $rdi: $rdi .cfa: $rsp 8 +
STACK CFI ca10 $rbx: .cfa -32 + ^ $rdi: .cfa -16 + ^ $rsi: .cfa -24 + ^ .cfa: $rsp 64 +
STACK CFI cb19 .cfa: $rsp 32 +
STACK CFI cb1a $rbx: $rbx .cfa: $rsp 24 +
STACK CFI cb1b $rsi: $rsi .cfa: $rsp 16 +
STACK CFI cb1c $rdi: $rdi .cfa: $rsp 8 +
STACK CFI cb21 $rbx: .cfa -32 + ^ $rdi: .cfa -16 + ^ $rsi: .cfa -24 + ^ .cfa: $rsp 64 +
STACK CFI INIT cb40 1ad .cfa: $rsp 8 + .ra: .cfa -8 + ^
STACK CFI cb41 $rbp: .cfa -16 + ^ .cfa: $rsp 16 +
STACK CFI cb42 $rdi: .cfa -24 + ^ .cfa: $rsp 24 +
STACK CFI cb43 $rsi: .cfa -32 + ^ .cfa: $rsp 32 +
STACK CFI cb44 $rbx: .cfa -40 + ^ .cfa: $rsp 40 +
STACK CFI cb48 .cfa: $rsp 80 +
STACK CFI cbcb .cfa: $rsp 40 +
STACK CFI cbcc $rbx: $rbx .cfa: $rsp 32 +
STACK CFI cbcd $rsi: $rsi .cfa: $rsp 24 +
STACK CFI cbce $rdi: $rdi .cfa: $rsp 16 +
STACK CFI cbcf $rbp: $rbp .cfa: $rsp 8 +
STACK CFI cbd0 $rbp: .cfa -16 + ^ $rbx: .cfa -40 + ^ $rdi: .cfa -24 + ^ $rsi: .cfa -32 + ^ .cfa: $rsp 80 +
STACK CFI cce8 .cfa: $rsp 40 +
STACK CFI cce9 $rbx: $rbx .cfa: $rsp 32 +
STACK CFI ccea $rsi: $rsi .cfa: $rsp 24 +
STACK CFI cceb $rdi: $rdi .cfa: $rsp 16 +
STACK CFI ccec $rbp: $rbp .cfa: $rsp 8 +
STACK CFI INIT ccf0 8d .cfa: $rsp 8 + .ra: .cfa -8 + ^
STACK CFI ccf2 $r14: .cfa -16 + ^ .cfa: $rsp 16 +
STACK CFI ccf4 $r13: .cfa -24 + ^ .cfa: $rsp 24 +
STACK CFI ccf6 $r12: .cfa -32 + ^ .cfa: $rsp 32 +
STACK CFI ccf7 $rbp: .cfa -40 + ^ .cfa: $rsp 40 +
STACK CFI ccf8 $rdi: .cfa -48 + ^ .cfa: $rsp 48 +
STACK CFI ccf9 $rsi: .cfa -56 + ^ .cfa: $rsp 56 +
STACK CFI ccfa $rbx: .cfa -64 + ^ .cfa: $rsp 64 +
STACK CFI ccfe .cfa: $rsp 96 +
STACK CFI cd72 .cfa: $rsp 64 +
STACK CFI cd73 $rbx: $rbx .cfa: $rsp 56 +
STACK CFI cd74 $rsi: $rsi .cfa: $rsp 48 +
STACK CFI cd75 $rdi: $rdi .cfa: $rsp 40 +
STACK CFI cd76 $rbp: $rbp .cfa: $rsp 32 +
STACK CFI cd78 $r12: $r12 .cfa: $rsp 24 +
STACK CFI cd7a $r13: $r13 .cfa: $rsp 16 +
STACK CFI cd7c $r14: $r14 .cfa: $rsp 8 +
STACK CFI INIT cd80 5c .cfa: $rsp 8 + .ra: .cfa -8 + ^
STACK CFI cd84 .cfa: $rsp 80 +
STACK CFI cddb .cfa: $rsp 8 +
STACK CFI INIT cde0 60 .cfa: $rsp 8 + .ra: .cfa -8 + ^
STACK CFI cde4 .cfa: $rsp 80 +
STACK CFI ce3f .cfa: $rsp 8 +
STACK CFI INIT ce40 c3 .cfa: $rsp 8 + .ra: .cfa -8 + ^
STACK CFI ce41 $rbp: .cfa -16 + ^ .cfa: $rsp 16 +
STACK CFI ce42 $rdi: .cfa -24 + ^ .cfa: $rsp 24 +
STACK CFI ce43 $rsi: .cfa -32 + ^ .cfa: $rsp 32 +
STACK CFI ce44 $rbx: .cfa -40 + ^ .cfa: $rsp 40 +
STACK CFI ce4b .cfa: $rsp 1120 +
STACK CFI ceb1 .cfa: $rsp 40 +
STACK CFI ceb2 $rbx: $rbx .cfa: $rsp 32 +
STACK CFI ceb3 $rsi: $rsi .cfa: $rsp 24 +
STACK CFI ceb4 $rdi: $rdi .cfa: $rsp 16 +
STACK CFI ceb5 $rbp: $rbp .cfa: $rsp 8 +
STACK CFI cec0 $rbp: .cfa -16 + ^ $rbx: .cfa -40 + ^ $rdi: .cfa -24 + ^ $rsi: .cfa -32 + ^ .cfa: $rsp 1120 +
STACK CFI cefe .cfa: $rsp 40 +
STACK CFI ceff $rbx: $rbx .cfa: $rsp 32 +
STACK CFI cf00 $rsi: $rsi .cfa: $rsp 24 +
STACK CFI cf01 $rdi: $rdi .cfa: $rsp 16 +
STACK CFI cf02 $rbp: $rbp .cfa: $rsp 8 +
STACK CFI INIT cf10 c3 .cfa: $rsp 8 + .ra: .cfa -8 + ^
STACK CFI cf11 $rbp: .cfa -16 + ^ .cfa: $rsp 16 +
STACK CFI cf12 $rdi: .cfa -24 + ^ .cfa: $rsp 24 +
STACK CFI cf18 $rsi: .cfa -32 + ^ .cfa: $rsp 32 +
STACK CFI cf19 $rbx: .cfa -40 + ^ .cfa: $rsp 40 +
STACK CFI cf21 .cfa: $rsp 8288 +
STACK CFI cf84 .cfa: $rsp 40 +
STACK CFI cf85 $rbx: $rbx .cfa: $rsp 32 +
STACK CFI cf86 $rsi: $rsi .cfa: $rsp 24 +
STACK CFI cf87 $rdi: $rdi .cfa: $rsp 16 +
STACK CFI cf88 $rbp: $rbp .cfa: $rsp 8 +
STACK CFI cf90 $rbp: .cfa -16 + ^ $rbx: .cfa -40 + ^ $rdi: .cfa -24 + ^ $rsi: .cfa -32 + ^ .cfa: $rsp 8288 +
STACK CFI cfce .cfa: $rsp 40 +
STACK CFI cfcf $rbx: $rbx .cfa: $rsp 32 +
STACK CFI cfd0 $rsi: $rsi .cfa: $rsp 24 +
STACK CFI cfd1 $rdi: $rdi .cfa: $rsp 16 +
STACK CFI cfd2 $rbp: $rbp .cfa: $rsp 8 +
STACK CFI INIT cfe0 11c .cfa: $rsp 8 + .ra: .cfa -8 + ^
STACK CFI cfe2 $r13: .cfa -16 + ^ .cfa: $rsp 16 +
STACK CFI cfe4 $r12: .cfa -24 + ^ .cfa: $rsp 24 +
STACK CFI cfe5 $rbp: .cfa -32 + ^ .cfa: $rsp 32 +
STACK CFI cfe6 $rdi: .cfa -40 + ^ .cfa: $rsp 40 +
STACK CFI cfe7 $rsi: .cfa -48 + ^ .cfa: $rsp 48 +
STACK CFI cfe8 $rbx: .cfa -56 + ^ .cfa: $rsp 56 +
STACK CFI cfef .cfa: $rsp 368 +
STACK CFI d0f3 .cfa: $rsp 56 +
STACK CFI d0f4 $rbx: $rbx .cfa: $rsp 48 +
STACK CFI d0f5 $rsi: $rsi .cfa: $rsp 40 +
STACK CFI d0f6 $rdi: $rdi .cfa: $rsp 32 +
STACK CFI d0f7 $rbp: $rbp .cfa: $rsp 24 +
STACK CFI d0f9 $r12: $r12 .cfa: $rsp 16 +
STACK CFI d0fb $r13: $r13 .cfa: $rsp 8 +
STACK CFI INIT d100 11c .cfa: $rsp 8 + .ra: .cfa -8 + ^
STACK CFI d102 $r13: .cfa -16 + ^ .cfa: $rsp 16 +
STACK CFI d104 $r12: .cfa -24 + ^ .cfa: $rsp 24 +
STACK CFI d105 $rbp: .cfa -32 + ^ .cfa: $rsp 32 +
STACK CFI d106 $rdi: .cfa -40 + ^ .cfa: $rsp 40 +
STACK CFI d107 $rsi: .cfa -48 + ^ .cfa: $rsp 48 +
STACK CFI d108 $rbx: .cfa -56 + ^ .cfa: $rsp 56 +
STACK CFI d10f .cfa: $rsp 336 +
STACK CFI d213 .cfa: $rsp 56 +
STACK CFI d214 $rbx: $rbx .cfa: $rsp 48 +
STACK CFI d215 $rsi: $rsi .cfa: $rsp 40 +
STACK CFI d216 $rdi: $rdi .cfa: $rsp 32 +
STACK CFI d217 $rbp: $rbp .cfa: $rsp 24 +
STACK CFI d219 $r12: $r12 .cfa: $rsp 16 +
STACK CFI d21b $r13: $r13 .cfa: $rsp 8 +
STACK CFI INIT d220 2c9 .cfa: $rsp 8 + .ra: .cfa -8 + ^
STACK CFI d222 $r14: .cfa -16 + ^ .cfa: $rsp 16 +
STACK CFI d224 $r13: .cfa -24 + ^ .cfa: $rsp 24 +
STACK CFI d226 $r12: .cfa -32 + ^ .cfa: $rsp 32 +
STACK CFI d227 $rbp: .cfa -40 + ^ .cfa: $rsp 40 +
STACK CFI d228 $rdi: .cfa -48 + ^ .cfa: $rsp 48 +
STACK CFI d229 $rsi: .cfa -56 + ^ .cfa: $rsp 56 +
STACK CFI d22a $rbx: .cfa -64 + ^ .cfa: $rsp 64 +
STACK CFI d22e .cfa: $rsp 144 +
STACK CFI d238 $xmm6: .cfa -96 + ^ $xmm7: .cfa -80 + ^
STACK CFI d2ab $xmm6: $xmm6 $xmm7: $xmm7 .cfa: $rsp 64 +
STACK CFI d2ac $rbx: $rbx .cfa: $rsp 56 +
STACK CFI d2ad $rsi: $rsi .cfa: $rsp 48 +
STACK CFI d2ae $rdi: $rdi .cfa: $rsp 40 +
STACK CFI d2af $rbp: $rbp .cfa: $rsp 32 +
STACK CFI d2b1 $r12: $r12 .cfa: $rsp 24 +
STACK CFI d2b3 $r13: $r13 .cfa: $rsp 16 +
STACK CFI d2b5 $r14: $r14 .cfa: $rsp 8 +
STACK CFI d2b6 $r12: .cfa -32 + ^ $r13: .cfa -24 + ^ $r14: .cfa -16 + ^ $rbp: .cfa -40 + ^ $rbx: .cfa -64 + ^ $rdi: .cfa -48 + ^ $rsi: .cfa -56 + ^ $xmm6: .cfa -96 + ^ $xmm7: .cfa -80 + ^ .cfa: $rsp 144 +
STACK CFI d472 $xmm6: $xmm6 $xmm7: $xmm7 .cfa: $rsp 64 +
STACK CFI d473 $rbx: $rbx .cfa: $rsp 56 +
STACK CFI d474 $rsi: $rsi .cfa: $rsp 48 +
STACK CFI d475 $rdi: $rdi .cfa: $rsp 40 +
STACK CFI d476 $rbp: $rbp .cfa: $rsp 32 +
STACK CFI d478 $r12: $r12 .cfa: $rsp 24 +
STACK CFI d47a $r13: $r13 .cfa: $rsp 16 +
STACK CFI d47c $r14: $r14 .cfa: $rsp 8 +
STACK CFI d481 $r12: .cfa -32 + ^ $r13: .cfa -24 + ^ $r14: .cfa -16 + ^ $rbp: .cfa -40 + ^ $rbx: .cfa -64 + ^ $rdi: .cfa -48 + ^ $rsi: .cfa -56 + ^ $xmm6: .cfa -96 + ^ $xmm7: .cfa -80 + ^ .cfa: $rsp 144 +
STACK CFI INIT d4f0 5a4 .cfa: $rsp 8 + .ra: .cfa -8 + ^
STACK CFI d4f2 $r15: .cfa -16 + ^ .cfa: $rsp 16 +
STACK CFI d4f4 $r14: .cfa -24 + ^ .cfa: $rsp 24 +
STACK CFI d4f6 $r13: .cfa -32 + ^ .cfa: $rsp 32 +
STACK CFI d4f8 $r12: .cfa -40 + ^ .cfa: $rsp 40 +
STACK CFI d4f9 $rbp: .cfa -48 + ^ .cfa: $rsp 48 +
STACK CFI d4fa $rdi: .cfa -56 + ^ .cfa: $rsp 56 +
STACK CFI d4fb $rsi: .cfa -64 + ^ .cfa: $rsp 64 +
STACK CFI d4fc $rbx: .cfa -72 + ^ .cfa: $rsp 72 +
STACK CFI d500 .cfa: $rsp 160 +
STACK CFI d6bd .cfa: $rsp 72 +
STACK CFI d6be $rbx: $rbx .cfa: $rsp 64 +
STACK CFI d6bf $rsi: $rsi .cfa: $rsp 56 +
STACK CFI d6c0 $rdi: $rdi .cfa: $rsp 48 +
STACK CFI d6c1 $rbp: $rbp .cfa: $rsp 40 +
STACK CFI d6c3 $r12: $r12 .cfa: $rsp 32 +
STACK CFI d6c5 $r13: $r13 .cfa: $rsp 24 +
STACK CFI d6c7 $r14: $r14 .cfa: $rsp 16 +
STACK CFI d6c9 $r15: $r15 .cfa: $rsp 8 +
STACK CFI d6d0 $r12: .cfa -40 + ^ $r13: .cfa -32 + ^ $r14: .cfa -24 + ^ $r15: .cfa -16 + ^ $rbp: .cfa -48 + ^ $rbx: .cfa -72 + ^ $rdi: .cfa -56 + ^ $rsi: .cfa -64 + ^ .cfa: $rsp 160 +
STACK CFI INIT daa0 464 .cfa: $rsp 8 + .ra: .cfa -8 + ^
STACK CFI daa2 $r15: .cfa -16 + ^ .cfa: $rsp 16 +
STACK CFI daa4 $r14: .cfa -24 + ^ .cfa: $rsp 24 +
STACK CFI daa6 $r13: .cfa -32 + ^ .cfa: $rsp 32 +
STACK CFI daa8 $r12: .cfa -40 + ^ .cfa: $rsp 40 +
STACK CFI daa9 $rbp: .cfa -48 + ^ .cfa: $rsp 48 +
STACK CFI daaa $rdi: .cfa -56 + ^ .cfa: $rsp 56 +
STACK CFI daab $rsi: .cfa -64 + ^ .cfa: $rsp 64 +
STACK CFI daac $rbx: .cfa -72 + ^ .cfa: $rsp 72 +
STACK CFI dab3 .cfa: $rsp 608 +
STACK CFI de00 .cfa: $rsp 72 +
STACK CFI de01 $rbx: $rbx .cfa: $rsp 64 +
STACK CFI de02 $rsi: $rsi .cfa: $rsp 56 +
STACK CFI de03 $rdi: $rdi .cfa: $rsp 48 +
STACK CFI de04 $rbp: $rbp .cfa: $rsp 40 +
STACK CFI de06 $r12: $r12 .cfa: $rsp 32 +
STACK CFI de08 $r13: $r13 .cfa: $rsp 24 +
STACK CFI de0a $r14: $r14 .cfa: $rsp 16 +
STACK CFI de0c $r15: $r15 .cfa: $rsp 8 +
STACK CFI de10 $r12: .cfa -40 + ^ $r13: .cfa -32 + ^ $r14: .cfa -24 + ^ $r15: .cfa -16 + ^ $rbp: .cfa -48 + ^ $rbx: .cfa -72 + ^ $rdi: .cfa -56 + ^ $rsi: .cfa -64 + ^ .cfa: $rsp 608 +
STACK CFI INIT df10 5c7 .cfa: $rsp 8 + .ra: .cfa -8 + ^
STACK CFI df12 $r15: .cfa -16 + ^ .cfa: $rsp 16 +
STACK CFI df14 $r14: .cfa -24 + ^ .cfa: $rsp 24 +
STACK CFI df16 $r13: .cfa -32 + ^ .cfa: $rsp 32 +
STACK CFI df18 $r12: .cfa -40 + ^ .cfa: $rsp 40 +
STACK CFI df19 $rbp: .cfa -48 + ^ .cfa: $rsp 48 +
STACK CFI df1a $rdi: .cfa -56 + ^ .cfa: $rsp 56 +
STACK CFI df1b $rsi: .cfa -64 + ^ .cfa: $rsp 64 +
STACK CFI df1c $rbx: .cfa -72 + ^ .cfa: $rsp 72 +
STACK CFI df23 .cfa: $rsp 608 +
STACK CFI e16f .cfa: $rsp 72 +
STACK CFI e170 $rbx: $rbx .cfa: $rsp 64 +
STACK CFI e171 $rsi: $rsi .cfa: $rsp 56 +
STACK CFI e172 $rdi: $rdi .cfa: $rsp 48 +
STACK CFI e173 $rbp: $rbp .cfa: $rsp 40 +
STACK CFI e175 $r12: $r12 .cfa: $rsp 32 +
STACK CFI e177 $r13: $r13 .cfa: $rsp 24 +
STACK CFI e179 $r14: $r14 .cfa: $rsp 16 +
STACK CFI e17b $r15: $r15 .cfa: $rsp 8 +
STACK CFI e180 $r12: .cfa -40 + ^ $r13: .cfa -32 + ^ $r14: .cfa -24 + ^ $r15: .cfa -16 + ^ $rbp: .cfa -48 + ^ $rbx: .cfa -72 + ^ $rdi: .cfa -56 + ^ $rsi: .cfa -64 + ^ .cfa: $rsp 608 +
STACK CFI INIT 184910 20 .cfa: $rsp 8 + .ra: .cfa -8 + ^
STACK CFI 184914 .cfa: $rsp 48 +
STACK CFI 18492b .cfa: $rsp 8 +
STACK CFI INIT e4e0 c .cfa: $rsp 8 + .ra: .cfa -8 + ^
STACK CFI INIT e4f0 94 .cfa: $rsp 8 + .ra: .cfa -8 + ^
STACK CFI e4f1 $rdi: .cfa -16 + ^ .cfa: $rsp 16 +
STACK CFI e4f2 $rsi: .cfa -24 + ^ .cfa: $rsp 24 +
STACK CFI e4f3 $rbx: .cfa -32 + ^ .cfa: $rsp 32 +
STACK CFI e4f7 .cfa: $rsp 80 +
STACK CFI e53d .cfa: $rsp 32 +
STACK CFI e53e $rbx: $rbx .cfa: $rsp 24 +
STACK CFI e53f $rsi: $rsi .cfa: $rsp 16 +
STACK CFI e540 $rdi: $rdi .cfa: $rsp 8 +
STACK CFI e541 $rbx: .cfa -32 + ^ $rdi: .cfa -16 + ^ $rsi: .cfa -24 + ^ .cfa: $rsp 80 +
STACK CFI INIT e590 78 .cfa: $rsp 8 + .ra: .cfa -8 + ^
STACK CFI e591 $rbx: .cfa -16 + ^ .cfa: $rsp 16 +
STACK CFI e595 .cfa: $rsp 48 +
STACK CFI e606 .cfa: $rsp 16 +
STACK CFI e607 $rbx: $rbx .cfa: $rsp 8 +
STACK CFI INIT e610 67 .cfa: $rsp 8 + .ra: .cfa -8 + ^
STACK CFI e611 $rdi: .cfa -16 + ^ .cfa: $rsp 16 +
STACK CFI e612 $rsi: .cfa -24 + ^ .cfa: $rsp 24 +
STACK CFI e613 $rbx: .cfa -32 + ^ .cfa: $rsp 32 +
STACK CFI e617 .cfa: $rsp 64 +
STACK CFI e673 .cfa: $rsp 32 +
STACK CFI e674 $rbx: $rbx .cfa: $rsp 24 +
STACK CFI e675 $rsi: $rsi .cfa: $rsp 16 +
STACK CFI e676 $rdi: $rdi .cfa: $rsp 8 +
STACK CFI INIT e680 c0 .cfa: $rsp 8 + .ra: .cfa -8 + ^
STACK CFI e681 $rdi: .cfa -16 + ^ .cfa: $rsp 16 +
STACK CFI e682 $rsi: .cfa -24 + ^ .cfa: $rsp 24 +
STACK CFI e683 $rbx: .cfa -32 + ^ .cfa: $rsp 32 +
STACK CFI e687 .cfa: $rsp 64 +
STACK CFI e73c .cfa: $rsp 32 +
STACK CFI e73d $rbx: $rbx .cfa: $rsp 24 +
STACK CFI e73e $rsi: $rsi .cfa: $rsp 16 +
STACK CFI e73f $rdi: $rdi .cfa: $rsp 8 +
STACK CFI INIT e740 5b .cfa: $rsp 8 + .ra: .cfa -8 + ^
STACK CFI e741 $rbx: .cfa -16 + ^ .cfa: $rsp 16 +
STACK CFI e745 .cfa: $rsp 48 +
STACK CFI e799 .cfa: $rsp 16 +
STACK CFI e79a $rbx: $rbx .cfa: $rsp 8 +
STACK CFI INIT e7a0 9e .cfa: $rsp 8 + .ra: .cfa -8 + ^
STACK CFI e7a1 $rsi: .cfa -16 + ^ .cfa: $rsp 16 +
STACK CFI e7a2 $rbx: .cfa -24 + ^ .cfa: $rsp 24 +
STACK CFI e7a6 .cfa: $rsp 112 +
STACK CFI e83b .cfa: $rsp 24 +
STACK CFI e83c $rbx: $rbx .cfa: $rsp 16 +
STACK CFI e83d $rsi: $rsi .cfa: $rsp 8 +
STACK CFI INIT e840 1ce .cfa: $rsp 8 + .ra: .cfa -8 + ^
STACK CFI e841 $rbp: .cfa -16 + ^ .cfa: $rsp 16 +
STACK CFI e842 $rdi: .cfa -24 + ^ .cfa: $rsp 24 +
STACK CFI e843 $rsi: .cfa -32 + ^ .cfa: $rsp 32 +
STACK CFI e844 $rbx: .cfa -40 + ^ .cfa: $rsp 40 +
STACK CFI e84b .cfa: $rsp 1104 +
STACK CFI e8fa .cfa: $rsp 40 +
STACK CFI e8fb $rbx: $rbx .cfa: $rsp 32 +
STACK CFI e8fc $rsi: $rsi .cfa: $rsp 24 +
STACK CFI e8fd $rdi: $rdi .cfa: $rsp 16 +
STACK CFI e8fe $rbp: $rbp .cfa: $rsp 8 +
STACK CFI e900 $rbp: .cfa -16 + ^ $rbx: .cfa -40 + ^ $rdi: .cfa -24 + ^ $rsi: .cfa -32 + ^ .cfa: $rsp 1104 +
STACK CFI e972 .cfa: $rsp 40 +
STACK CFI e973 $rbx: $rbx .cfa: $rsp 32 +
STACK CFI e974 $rsi: $rsi .cfa: $rsp 24 +
STACK CFI e975 $rdi: $rdi .cfa: $rsp 16 +
STACK CFI e976 $rbp: $rbp .cfa: $rsp 8 +
STACK CFI e980 $rbp: .cfa -16 + ^ $rbx: .cfa -40 + ^ $rdi: .cfa -24 + ^ $rsi: .cfa -32 + ^ .cfa: $rsp 1104 +
STACK CFI e9a2 .cfa: $rsp 40 +
STACK CFI e9a3 $rbx: $rbx .cfa: $rsp 32 +
STACK CFI e9a4 $rsi: $rsi .cfa: $rsp 24 +
STACK CFI e9a5 $rdi: $rdi .cfa: $rsp 16 +
STACK CFI e9a6 $rbp: $rbp .cfa: $rsp 8 +
STACK CFI e9b0 $rbp: .cfa -16 + ^ $rbx: .cfa -40 + ^ $rdi: .cfa -24 + ^ $rsi: .cfa -32 + ^ .cfa: $rsp 1104 +
STACK CFI INIT ea10 56b .cfa: $rsp 8 + .ra: .cfa -8 + ^
STACK CFI ea12 $r13: .cfa -16 + ^ .cfa: $rsp 16 +
STACK CFI ea14 $r12: .cfa -24 + ^ .cfa: $rsp 24 +
STACK CFI ea15 $rbp: .cfa -32 + ^ .cfa: $rsp 32 +
STACK CFI ea16 $rdi: .cfa -40 + ^ .cfa: $rsp 40 +
STACK CFI ea17 $rsi: .cfa -48 + ^ .cfa: $rsp 48 +
STACK CFI ea18 $rbx: .cfa -56 + ^ .cfa: $rsp 56 +
STACK CFI ea1f .cfa: $rsp 224 +
STACK CFI ebff .cfa: $rsp 56 +
STACK CFI ec00 $rbx: $rbx .cfa: $rsp 48 +
STACK CFI ec01 $rsi: $rsi .cfa: $rsp 40 +
STACK CFI ec02 $rdi: $rdi .cfa: $rsp 32 +
STACK CFI ec03 $rbp: $rbp .cfa: $rsp 24 +
STACK CFI ec05 $r12: $r12 .cfa: $rsp 16 +
STACK CFI ec07 $r13: $r13 .cfa: $rsp 8 +
STACK CFI ec10 $r12: .cfa -24 + ^ $r13: .cfa -16 + ^ $rbp: .cfa -32 + ^ $rbx: .cfa -56 + ^ $rdi: .cfa -40 + ^ $rsi: .cfa -48 + ^ .cfa: $rsp 224 +
STACK CFI INIT ef80 299 .cfa: $rsp 8 + .ra: .cfa -8 + ^
STACK CFI ef82 $r13: .cfa -16 + ^ .cfa: $rsp 16 +
STACK CFI ef84 $r12: .cfa -24 + ^ .cfa: $rsp 24 +
STACK CFI ef85 $rbp: .cfa -32 + ^ .cfa: $rsp 32 +
STACK CFI ef86 $rdi: .cfa -40 + ^ .cfa: $rsp 40 +
STACK CFI ef87 $rsi: .cfa -48 + ^ .cfa: $rsp 48 +
STACK CFI ef88 $rbx: .cfa -56 + ^ .cfa: $rsp 56 +
STACK CFI ef8f .cfa: $rsp 224 +
STACK CFI efcb .cfa: $rsp 56 +
STACK CFI efcc $rbx: $rbx .cfa: $rsp 48 +
STACK CFI efcd $rsi: $rsi .cfa: $rsp 40 +
STACK CFI efce $rdi: $rdi .cfa: $rsp 32 +
STACK CFI efcf $rbp: $rbp .cfa: $rsp 24 +
STACK CFI efd1 $r12: $r12 .cfa: $rsp 16 +
STACK CFI efd3 $r13: $r13 .cfa: $rsp 8 +
STACK CFI efd4 $r12: .cfa -24 + ^ $r13: .cfa -16 + ^ $rbp: .cfa -32 + ^ $rbx: .cfa -56 + ^ $rdi: .cfa -40 + ^ $rsi: .cfa -48 + ^ .cfa: $rsp 224 +
STACK CFI f152 .cfa: $rsp 56 +
STACK CFI f153 $rbx: $rbx .cfa: $rsp 48 +
STACK CFI f154 $rsi: $rsi .cfa: $rsp 40 +
STACK CFI f155 $rdi: $rdi .cfa: $rsp 32 +
STACK CFI f156 $rbp: $rbp .cfa: $rsp 24 +
STACK CFI f158 $r12: $r12 .cfa: $rsp 16 +
STACK CFI f15a $r13: $r13 .cfa: $rsp 8 +
STACK CFI f160 $r12: .cfa -24 + ^ $r13: .cfa -16 + ^ $rbp: .cfa -32 + ^ $rbx: .cfa -56 + ^ $rdi: .cfa -40 + ^ $rsi: .cfa -48 + ^ .cfa: $rsp 224 +
STACK CFI f1fc .cfa: $rsp 56 +
STACK CFI f1fd $rbx: $rbx .cfa: $rsp 48 +
STACK CFI f1fe $rsi: $rsi .cfa: $rsp 40 +
STACK CFI f1ff $rdi: $rdi .cfa: $rsp 32 +
STACK CFI f200 $rbp: $rbp .cfa: $rsp 24 +
STACK CFI f202 $r12: $r12 .cfa: $rsp 16 +
STACK CFI f204 $r13: $r13 .cfa: $rsp 8 +
STACK CFI f205 $r12: .cfa -24 + ^ $r13: .cfa -16 + ^ $rbp: .cfa -32 + ^ $rbx: .cfa -56 + ^ $rdi: .cfa -40 + ^ $rsi: .cfa -48 + ^ .cfa: $rsp 224 +
STACK CFI INIT f220 1bb .cfa: $rsp 8 + .ra: .cfa -8 + ^
STACK CFI f221 $rsi: .cfa -16 + ^ .cfa: $rsp 16 +
STACK CFI f222 $rbx: .cfa -24 + ^ .cfa: $rsp 24 +
STACK CFI f229 .cfa: $rsp 1632 +
STACK CFI f345 .cfa: $rsp 24 +
STACK CFI f346 $rbx: $rbx .cfa: $rsp 16 +
STACK CFI f347 $rsi: $rsi .cfa: $rsp 8 +
STACK CFI f350 $rbx: .cfa -24 + ^ $rsi: .cfa -16 + ^ .cfa: $rsp 1632 +
STACK CFI f362 .cfa: $rsp 24 +
STACK CFI f363 $rbx: $rbx .cfa: $rsp 16 +
STACK CFI f364 $rsi: $rsi .cfa: $rsp 8 +
STACK CFI f365 $rbx: .cfa -24 + ^ $rsi: .cfa -16 + ^ .cfa: $rsp 1632 +
STACK CFI INIT f3e0 1ac .cfa: $rsp 8 + .ra: .cfa -8 + ^
STACK CFI f3e1 $rbp: .cfa -16 + ^ .cfa: $rsp 16 +
STACK CFI f3e2 $rdi: .cfa -24 + ^ .cfa: $rsp 24 +
STACK CFI f3e3 $rsi: .cfa -32 + ^ .cfa: $rsp 32 +
STACK CFI f3e4 $rbx: .cfa -40 + ^ .cfa: $rsp 40 +
STACK CFI f3eb .cfa: $rsp 1632 +
STACK CFI f4b5 .cfa: $rsp 40 +
STACK CFI f4b6 $rbx: $rbx .cfa: $rsp 32 +
STACK CFI f4b7 $rsi: $rsi .cfa: $rsp 24 +
STACK CFI f4b8 $rdi: $rdi .cfa: $rsp 16 +
STACK CFI f4b9 $rbp: $rbp .cfa: $rsp 8 +
STACK CFI f4c0 $rbp: .cfa -16 + ^ $rbx: .cfa -40 + ^ $rdi: .cfa -24 + ^ $rsi: .cfa -32 + ^ .cfa: $rsp 1632 +
STACK CFI f4ef .cfa: $rsp 40 +
STACK CFI f4f0 $rbx: $rbx .cfa: $rsp 32 +
STACK CFI f4f1 $rsi: $rsi .cfa: $rsp 24 +
STACK CFI f4f2 $rdi: $rdi .cfa: $rsp 16 +
STACK CFI f4f3 $rbp: $rbp .cfa: $rsp 8 +
STACK CFI f4f4 $rbp: .cfa -16 + ^ $rbx: .cfa -40 + ^ $rdi: .cfa -24 + ^ $rsi: .cfa -32 + ^ .cfa: $rsp 1632 +
STACK CFI f551 .cfa: $rsp 40 +
STACK CFI f552 $rbx: $rbx .cfa: $rsp 32 +
STACK CFI f553 $rsi: $rsi .cfa: $rsp 24 +
STACK CFI f554 $rdi: $rdi .cfa: $rsp 16 +
STACK CFI f555 $rbp: $rbp .cfa: $rsp 8 +
STACK CFI f560 $rbp: .cfa -16 + ^ $rbx: .cfa -40 + ^ $rdi: .cfa -24 + ^ $rsi: .cfa -32 + ^ .cfa: $rsp 1632 +
STACK CFI INIT 184930 20 .cfa: $rsp 8 + .ra: .cfa -8 + ^
STACK CFI 184934 .cfa: $rsp 48 +
STACK CFI 18494b .cfa: $rsp 8 +
STACK CFI INIT f590 c .cfa: $rsp 8 + .ra: .cfa -8 + ^
STACK CFI INIT f5a0 94 .cfa: $rsp 8 + .ra: .cfa -8 + ^
STACK CFI f5a1 $rdi: .cfa -16 + ^ .cfa: $rsp 16 +
STACK CFI f5a2 $rsi: .cfa -24 + ^ .cfa: $rsp 24 +
STACK CFI f5a3 $rbx: .cfa -32 + ^ .cfa: $rsp 32 +
STACK CFI f5a7 .cfa: $rsp 80 +
STACK CFI f5ed .cfa: $rsp 32 +
STACK CFI f5ee $rbx: $rbx .cfa: $rsp 24 +
STACK CFI f5ef $rsi: $rsi .cfa: $rsp 16 +
STACK CFI f5f0 $rdi: $rdi .cfa: $rsp 8 +
STACK CFI f5f1 $rbx: .cfa -32 + ^ $rdi: .cfa -16 + ^ $rsi: .cfa -24 + ^ .cfa: $rsp 80 +
STACK CFI INIT f640 137 .cfa: $rsp 8 + .ra: .cfa -8 + ^
STACK CFI f642 $r12: .cfa -16 + ^ .cfa: $rsp 16 +
STACK CFI f643 $rbp: .cfa -24 + ^ .cfa: $rsp 24 +
STACK CFI f644 $rdi: .cfa -32 + ^ .cfa: $rsp 32 +
STACK CFI f645 $rsi: .cfa -40 + ^ .cfa: $rsp 40 +
STACK CFI f646 $rbx: .cfa -48 + ^ .cfa: $rsp 48 +
STACK CFI f64a .cfa: $rsp 80 +
STACK CFI f673 .cfa: $rsp 48 +
STACK CFI f674 $rbx: $rbx .cfa: $rsp 40 +
STACK CFI f675 $rsi: $rsi .cfa: $rsp 32 +
STACK CFI f676 $rdi: $rdi .cfa: $rsp 24 +
STACK CFI f677 $rbp: $rbp .cfa: $rsp 16 +
STACK CFI f679 $r12: $r12 .cfa: $rsp 8 +
STACK CFI f680 $r12: .cfa -16 + ^ $rbp: .cfa -24 + ^ $rbx: .cfa -48 + ^ $rdi: .cfa -32 + ^ $rsi: .cfa -40 + ^ .cfa: $rsp 80 +
STACK CFI INIT f780 43c .cfa: $rsp 8 + .ra: .cfa -8 + ^
STACK CFI f784 .cfa: $rsp 48 +
STACK CFI f7f6 .cfa: $rsp 8 +
STACK CFI f800 .cfa: $rsp 48 +
STACK CFI INIT fbc0 f5 .cfa: $rsp 8 + .ra: .cfa -8 + ^
STACK CFI INIT fcc0 57 .cfa: $rsp 8 + .ra: .cfa -8 + ^
STACK CFI fcc1 $rsi: .cfa -16 + ^ .cfa: $rsp 16 +
STACK CFI fcc2 $rbx: .cfa -24 + ^ .cfa: $rsp 24 +
STACK CFI fcc6 .cfa: $rsp 96 +
STACK CFI fd14 .cfa: $rsp 24 +
STACK CFI fd15 $rbx: $rbx .cfa: $rsp 16 +
STACK CFI fd16 $rsi: $rsi .cfa: $rsp 8 +
STACK CFI INIT fd20 c8 .cfa: $rsp 8 + .ra: .cfa -8 + ^
STACK CFI fd21 $rdi: .cfa -16 + ^ .cfa: $rsp 16 +
STACK CFI fd28 .cfa: $rsp 176 +
STACK CFI fd50 .cfa: $rsp 16 +
STACK CFI fd51 $rdi: $rdi .cfa: $rsp 8 +
STACK CFI fd52 $rdi: .cfa -16 + ^ .cfa: $rsp 176 +
STACK CFI fd91 .cfa: $rsp 16 +
STACK CFI fd92 $rdi: $rdi .cfa: $rsp 8 +
STACK CFI fd93 $rdi: .cfa -16 + ^ .cfa: $rsp 176 +
STACK CFI fdb9 .cfa: $rsp 16 +
STACK CFI fdba $rdi: $rdi .cfa: $rsp 8 +
STACK CFI fdc0 $rdi: .cfa -16 + ^ .cfa: $rsp 176 +
STACK CFI fde6 .cfa: $rsp 16 +
STACK CFI fde7 $rdi: $rdi .cfa: $rsp 8 +
STACK CFI INIT fdf0 1b1 .cfa: $rsp 8 + .ra: .cfa -8 + ^
STACK CFI fdf1 $rsi: .cfa -16 + ^ .cfa: $rsp 16 +
STACK CFI fdf2 $rbx: .cfa -24 + ^ .cfa: $rsp 24 +
STACK CFI fdf6 .cfa: $rsp 128 +
STACK CFI fe8e .cfa: $rsp 24 +
STACK CFI fe8f $rbx: $rbx .cfa: $rsp 16 +
STACK CFI fe90 $rsi: $rsi .cfa: $rsp 8 +
STACK CFI fe91 $rbx: .cfa -24 + ^ $rsi: .cfa -16 + ^ .cfa: $rsp 128 +
STACK CFI ff1c .cfa: $rsp 24 +
STACK CFI ff1d $rbx: $rbx .cfa: $rsp 16 +
STACK CFI ff1e $rsi: $rsi .cfa: $rsp 8 +
STACK CFI ff20 $rbx: .cfa -24 + ^ $rsi: .cfa -16 + ^ .cfa: $rsp 128 +
STACK CFI ff43 .cfa: $rsp 24 +
STACK CFI ff44 $rbx: $rbx .cfa: $rsp 16 +
STACK CFI ff45 $rsi: $rsi .cfa: $rsp 8 +
STACK CFI ff50 $rbx: .cfa -24 + ^ $rsi: .cfa -16 + ^ .cfa: $rsp 128 +
STACK CFI ff73 .cfa: $rsp 24 +
STACK CFI ff74 $rbx: $rbx .cfa: $rsp 16 +
STACK CFI ff75 $rsi: $rsi .cfa: $rsp 8 +
STACK CFI ff80 $rbx: .cfa -24 + ^ $rsi: .cfa -16 + ^ .cfa: $rsp 128 +
STACK CFI INIT ffb0 7 .cfa: $rsp 8 + .ra: .cfa -8 + ^
STACK CFI INIT ffc0 150 .cfa: $rsp 8 + .ra: .cfa -8 + ^
STACK CFI ffc1 $rbp: .cfa -16 + ^ .cfa: $rsp 16 +
STACK CFI ffc2 $rdi: .cfa -24 + ^ .cfa: $rsp 24 +
STACK CFI ffc3 $rsi: .cfa -32 + ^ .cfa: $rsp 32 +
STACK CFI ffc4 $rbx: .cfa -40 + ^ .cfa: $rsp 40 +
STACK CFI 10070 $rbx: $rbx .cfa: $rsp 32 +
STACK CFI 10071 $rsi: $rsi .cfa: $rsp 24 +
STACK CFI 10072 $rdi: $rdi .cfa: $rsp 16 +
STACK CFI 10073 $rbp: $rbp .cfa: $rsp 8 +
STACK CFI 10074 $rbp: .cfa -16 + ^ $rbx: .cfa -40 + ^ $rdi: .cfa -24 + ^ $rsi: .cfa -32 + ^ .cfa: $rsp 40 +
STACK CFI 100a3 $rbx: $rbx .cfa: $rsp 32 +
STACK CFI 100a4 $rsi: $rsi .cfa: $rsp 24 +
STACK CFI 100a5 $rdi: $rdi .cfa: $rsp 16 +
STACK CFI 100a6 $rbp: $rbp .cfa: $rsp 8 +
STACK CFI 100b0 $rbp: .cfa -16 + ^ $rbx: .cfa -40 + ^ $rdi: .cfa -24 + ^ $rsi: .cfa -32 + ^ .cfa: $rsp 40 +
STACK CFI INIT 10110 52 .cfa: $rsp 8 + .ra: .cfa -8 + ^
STACK CFI 10114 .cfa: $rsp 64 +
STACK CFI 1013f .cfa: $rsp 8 +
STACK CFI 10140 .cfa: $rsp 64 +
STACK CFI INIT 10170 75 .cfa: $rsp 8 + .ra: .cfa -8 + ^
STACK CFI 10174 .cfa: $rsp 64 +
STACK CFI 101af .cfa: $rsp 8 +
STACK CFI 101b0 .cfa: $rsp 64 +
STACK CFI 101b6 .cfa: $rsp 8 +
STACK CFI 101c0 .cfa: $rsp 64 +
STACK CFI 101e0 .cfa: $rsp 8 +
STACK CFI INIT 101f0 d6 .cfa: $rsp 8 + .ra: .cfa -8 + ^
STACK CFI 101f7 .cfa: $rsp 608 +
STACK CFI 1029b .cfa: $rsp 8 +
STACK CFI 102a0 .cfa: $rsp 608 +
STACK CFI INIT 102d0 1e6 .cfa: $rsp 8 + .ra: .cfa -8 + ^
STACK CFI 102d1 $rbp: .cfa -16 + ^ .cfa: $rsp 16 +
STACK CFI 102d2 $rdi: .cfa -24 + ^ .cfa: $rsp 24 +
STACK CFI 102d3 $rsi: .cfa -32 + ^ .cfa: $rsp 32 +
STACK CFI 102d4 $rbx: .cfa -40 + ^ .cfa: $rsp 40 +
STACK CFI 102d8 .cfa: $rsp 96 +
STACK CFI 102f7 .cfa: $rsp 40 +
STACK CFI 102f8 $rbx: $rbx .cfa: $rsp 32 +
STACK CFI 102f9 $rsi: $rsi .cfa: $rsp 24 +
STACK CFI 102fa $rdi: $rdi .cfa: $rsp 16 +
STACK CFI 102fb $rbp: $rbp .cfa: $rsp 8 +
STACK CFI 10300 $rbp: .cfa -16 + ^ $rbx: .cfa -40 + ^ $rdi: .cfa -24 + ^ $rsi: .cfa -32 + ^ .cfa: $rsp 96 +
STACK CFI INIT 104c0 78 .cfa: $rsp 8 + .ra: .cfa -8 + ^
STACK CFI 104c7 .cfa: $rsp 144 +
STACK CFI 10537 .cfa: $rsp 8 +
STACK CFI INIT 10540 87 .cfa: $rsp 8 + .ra: .cfa -8 + ^
STACK CFI 10541 $rdi: .cfa -16 + ^ .cfa: $rsp 16 +
STACK CFI 10542 $rsi: .cfa -24 + ^ .cfa: $rsp 24 +
STACK CFI 10543 $rbx: .cfa -32 + ^ .cfa: $rsp 32 +
STACK CFI 1054a .cfa: $rsp 256 +
STACK CFI 105c3 .cfa: $rsp 32 +
STACK CFI 105c4 $rbx: $rbx .cfa: $rsp 24 +
STACK CFI 105c5 $rsi: $rsi .cfa: $rsp 16 +
STACK CFI 105c6 $rdi: $rdi .cfa: $rsp 8 +
STACK CFI INIT 105d0 b4 .cfa: $rsp 8 + .ra: .cfa -8 + ^
STACK CFI 105d2 $r12: .cfa -16 + ^ .cfa: $rsp 16 +
STACK CFI 105d3 $rbp: .cfa -24 + ^ .cfa: $rsp 24 +
STACK CFI 105d4 $rdi: .cfa -32 + ^ .cfa: $rsp 32 +
STACK CFI 105d5 $rsi: .cfa -40 + ^ .cfa: $rsp 40 +
STACK CFI 105d6 $rbx: .cfa -48 + ^ .cfa: $rsp 48 +
STACK CFI 105da .cfa: $rsp 144 +
STACK CFI 10659 .cfa: $rsp 48 +
STACK CFI 1065a $rbx: $rbx .cfa: $rsp 40 +
STACK CFI 1065b $rsi: $rsi .cfa: $rsp 32 +
STACK CFI 1065c $rdi: $rdi .cfa: $rsp 24 +
STACK CFI 1065d $rbp: $rbp .cfa: $rsp 16 +
STACK CFI 1065f $r12: $r12 .cfa: $rsp 8 +
STACK CFI 10660 $r12: .cfa -16 + ^ $rbp: .cfa -24 + ^ $rbx: .cfa -48 + ^ $rdi: .cfa -32 + ^ $rsi: .cfa -40 + ^ .cfa: $rsp 144 +
STACK CFI INIT 10690 1b3 .cfa: $rsp 8 + .ra: .cfa -8 + ^
STACK CFI 10691 $rdi: .cfa -16 + ^ .cfa: $rsp 16 +
STACK CFI 10692 $rsi: .cfa -24 + ^ .cfa: $rsp 24 +
STACK CFI 10693 $rbx: .cfa -32 + ^ .cfa: $rsp 32 +
STACK CFI 1069a .cfa: $rsp 448 +
STACK CFI 106cf .cfa: $rsp 32 +
STACK CFI 106d0 $rbx: $rbx .cfa: $rsp 24 +
STACK CFI 106d1 $rsi: $rsi .cfa: $rsp 16 +
STACK CFI 106d2 $rdi: $rdi .cfa: $rsp 8 +
STACK CFI 106d3 $rbx: .cfa -32 + ^ $rdi: .cfa -16 + ^ $rsi: .cfa -24 + ^ .cfa: $rsp 448 +
STACK CFI 1077b .cfa: $rsp 32 +
STACK CFI 1077c $rbx: $rbx .cfa: $rsp 24 +
STACK CFI 1077d $rsi: $rsi .cfa: $rsp 16 +
STACK CFI 1077e $rdi: $rdi .cfa: $rsp 8 +
STACK CFI 10780 $rbx: .cfa -32 + ^ $rdi: .cfa -16 + ^ $rsi: .cfa -24 + ^ .cfa: $rsp 448 +
STACK CFI INIT 10850 2f1 .cfa: $rsp 8 + .ra: .cfa -8 + ^
STACK CFI 10851 $rbp: .cfa -16 + ^ .cfa: $rsp 16 +
STACK CFI 10852 $rdi: .cfa -24 + ^ .cfa: $rsp 24 +
STACK CFI 10853 $rsi: .cfa -32 + ^ .cfa: $rsp 32 +
STACK CFI 10854 $rbx: .cfa -40 + ^ .cfa: $rsp 40 +
STACK CFI 1085b .cfa: $rsp 176 +
STACK CFI 109fb .cfa: $rsp 40 +
STACK CFI 109fc $rbx: $rbx .cfa: $rsp 32 +
STACK CFI 109fd $rsi: $rsi .cfa: $rsp 24 +
STACK CFI 109fe $rdi: $rdi .cfa: $rsp 16 +
STACK CFI 109ff $rbp: $rbp .cfa: $rsp 8 +
STACK CFI 10a00 $rbp: .cfa -16 + ^ $rbx: .cfa -40 + ^ $rdi: .cfa -24 + ^ $rsi: .cfa -32 + ^ .cfa: $rsp 176 +
STACK CFI 10a61 .cfa: $rsp 40 +
STACK CFI 10a62 $rbx: $rbx .cfa: $rsp 32 +
STACK CFI 10a63 $rsi: $rsi .cfa: $rsp 24 +
STACK CFI 10a64 $rdi: $rdi .cfa: $rsp 16 +
STACK CFI 10a65 $rbp: $rbp .cfa: $rsp 8 +
STACK CFI 10a70 $rbp: .cfa -16 + ^ $rbx: .cfa -40 + ^ $rdi: .cfa -24 + ^ $rsi: .cfa -32 + ^ .cfa: $rsp 176 +
STACK CFI INIT 10b50 aa .cfa: $rsp 8 + .ra: .cfa -8 + ^
STACK CFI 10b51 $rbx: .cfa -16 + ^ .cfa: $rsp 16 +
STACK CFI 10b58 .cfa: $rsp 176 +
STACK CFI 10ba6 .cfa: $rsp 16 +
STACK CFI 10ba7 $rbx: $rbx .cfa: $rsp 8 +
STACK CFI 10bb0 $rbx: .cfa -16 + ^ .cfa: $rsp 176 +
STACK CFI 10bcd .cfa: $rsp 16 +
STACK CFI 10bce $rbx: $rbx .cfa: $rsp 8 +
STACK CFI 10bd0 $rbx: .cfa -16 + ^ .cfa: $rsp 176 +
STACK CFI INIT 10c00 c3 .cfa: $rsp 8 + .ra: .cfa -8 + ^
STACK CFI 10c04 .cfa: $rsp 96 +
STACK CFI 10c63 .cfa: $rsp 8 +
STACK CFI 10c64 .cfa: $rsp 96 +
STACK CFI 10cb3 .cfa: $rsp 8 +
STACK CFI 10cb4 .cfa: $rsp 96 +
STACK CFI 10cc2 .cfa: $rsp 8 +
STACK CFI INIT 10cd0 2f7 .cfa: $rsp 8 + .ra: .cfa -8 + ^
STACK CFI 10cd2 $r13: .cfa -16 + ^ .cfa: $rsp 16 +
STACK CFI 10cd4 $r12: .cfa -24 + ^ .cfa: $rsp 24 +
STACK CFI 10cd5 $rbp: .cfa -32 + ^ .cfa: $rsp 32 +
STACK CFI 10cd6 $rdi: .cfa -40 + ^ .cfa: $rsp 40 +
STACK CFI 10cd7 $rsi: .cfa -48 + ^ .cfa: $rsp 48 +
STACK CFI 10cd8 $rbx: .cfa -56 + ^ .cfa: $rsp 56 +
STACK CFI 10cdf .cfa: $rsp 272 +
STACK CFI 10de3 .cfa: $rsp 56 +
STACK CFI 10de4 $rbx: $rbx .cfa: $rsp 48 +
STACK CFI 10de5 $rsi: $rsi .cfa: $rsp 40 +
STACK CFI 10de6 $rdi: $rdi .cfa: $rsp 32 +
STACK CFI 10de7 $rbp: $rbp .cfa: $rsp 24 +
STACK CFI 10de9 $r12: $r12 .cfa: $rsp 16 +
STACK CFI 10deb $r13: $r13 .cfa: $rsp 8 +
STACK CFI 10df0 $r12: .cfa -24 + ^ $r13: .cfa -16 + ^ $rbp: .cfa -32 + ^ $rbx: .cfa -56 + ^ $rdi: .cfa -40 + ^ $rsi: .cfa -48 + ^ .cfa: $rsp 272 +
STACK CFI 10e5e .cfa: $rsp 56 +
STACK CFI 10e5f $rbx: $rbx .cfa: $rsp 48 +
STACK CFI 10e60 $rsi: $rsi .cfa: $rsp 40 +
STACK CFI 10e61 $rdi: $rdi .cfa: $rsp 32 +
STACK CFI 10e62 $rbp: $rbp .cfa: $rsp 24 +
STACK CFI 10e64 $r12: $r12 .cfa: $rsp 16 +
STACK CFI 10e66 $r13: $r13 .cfa: $rsp 8 +
STACK CFI 10e70 $r12: .cfa -24 + ^ $r13: .cfa -16 + ^ $rbp: .cfa -32 + ^ $rbx: .cfa -56 + ^ $rdi: .cfa -40 + ^ $rsi: .cfa -48 + ^ .cfa: $rsp 272 +
STACK CFI INIT 10fd0 479 .cfa: $rsp 8 + .ra: .cfa -8 + ^
STACK CFI 10fd2 $r12: .cfa -16 + ^ .cfa: $rsp 16 +
STACK CFI 10fd3 $rbp: .cfa -24 + ^ .cfa: $rsp 24 +
STACK CFI 10fd4 $rdi: .cfa -32 + ^ .cfa: $rsp 32 +
STACK CFI 10fd5 $rsi: .cfa -40 + ^ .cfa: $rsp 40 +
STACK CFI 10fd6 $rbx: .cfa -48 + ^ .cfa: $rsp 48 +
STACK CFI 10fdd .cfa: $rsp 304 +
STACK CFI 1101b .cfa: $rsp 48 +
STACK CFI 1101c $rbx: $rbx .cfa: $rsp 40 +
STACK CFI 1101d $rsi: $rsi .cfa: $rsp 32 +
STACK CFI 1101e $rdi: $rdi .cfa: $rsp 24 +
STACK CFI 1101f $rbp: $rbp .cfa: $rsp 16 +
STACK CFI 11021 $r12: $r12 .cfa: $rsp 8 +
STACK CFI 11022 $r12: .cfa -16 + ^ $rbp: .cfa -24 + ^ $rbx: .cfa -48 + ^ $rdi: .cfa -32 + ^ $rsi: .cfa -40 + ^ .cfa: $rsp 304 +
STACK CFI 1109a .cfa: $rsp 48 +
STACK CFI 1109b $rbx: $rbx .cfa: $rsp 40 +
STACK CFI 1109c $rsi: $rsi .cfa: $rsp 32 +
STACK CFI 1109d $rdi: $rdi .cfa: $rsp 24 +
STACK CFI 1109e $rbp: $rbp .cfa: $rsp 16 +
STACK CFI 110a0 $r12: $r12 .cfa: $rsp 8 +
STACK CFI 110a1 $r12: .cfa -16 + ^ $rbp: .cfa -24 + ^ $rbx: .cfa -48 + ^ $rdi: .cfa -32 + ^ $rsi: .cfa -40 + ^ .cfa: $rsp 304 +
STACK CFI 111cb .cfa: $rsp 48 +
STACK CFI 111cc $rbx: $rbx .cfa: $rsp 40 +
STACK CFI 111cd $rsi: $rsi .cfa: $rsp 32 +
STACK CFI 111ce $rdi: $rdi .cfa: $rsp 24 +
STACK CFI 111cf $rbp: $rbp .cfa: $rsp 16 +
STACK CFI 111d1 $r12: $r12 .cfa: $rsp 8 +
STACK CFI 111d2 $r12: .cfa -16 + ^ $rbp: .cfa -24 + ^ $rbx: .cfa -48 + ^ $rdi: .cfa -32 + ^ $rsi: .cfa -40 + ^ .cfa: $rsp 304 +
STACK CFI INIT 11450 304 .cfa: $rsp 8 + .ra: .cfa -8 + ^
STACK CFI 11452 $r15: .cfa -16 + ^ .cfa: $rsp 16 +
STACK CFI 11454 $r14: .cfa -24 + ^ .cfa: $rsp 24 +
STACK CFI 11456 $r13: .cfa -32 + ^ .cfa: $rsp 32 +
STACK CFI 11458 $r12: .cfa -40 + ^ .cfa: $rsp 40 +
STACK CFI 11459 $rbp: .cfa -48 + ^ .cfa: $rsp 48 +
STACK CFI 1145a $rdi: .cfa -56 + ^ .cfa: $rsp 56 +
STACK CFI 1145b $rsi: .cfa -64 + ^ .cfa: $rsp 64 +
STACK CFI 1145c $rbx: .cfa -72 + ^ .cfa: $rsp 72 +
STACK CFI 11460 .cfa: $rsp 192 +
STACK CFI 115cb .cfa: $rsp 72 +
STACK CFI 115cc $rbx: $rbx .cfa: $rsp 64 +
STACK CFI 115cd $rsi: $rsi .cfa: $rsp 56 +
STACK CFI 115ce $rdi: $rdi .cfa: $rsp 48 +
STACK CFI 115cf $rbp: $rbp .cfa: $rsp 40 +
STACK CFI 115d1 $r12: $r12 .cfa: $rsp 32 +
STACK CFI 115d3 $r13: $r13 .cfa: $rsp 24 +
STACK CFI 115d5 $r14: $r14 .cfa: $rsp 16 +
STACK CFI 115d7 $r15: $r15 .cfa: $rsp 8 +
STACK CFI 115e0 $r12: .cfa -40 + ^ $r13: .cfa -32 + ^ $r14: .cfa -24 + ^ $r15: .cfa -16 + ^ $rbp: .cfa -48 + ^ $rbx: .cfa -72 + ^ $rdi: .cfa -56 + ^ $rsi: .cfa -64 + ^ .cfa: $rsp 192 +
STACK CFI INIT 11760 437 .cfa: $rsp 8 + .ra: .cfa -8 + ^
STACK CFI 11762 $r15: .cfa -16 + ^ .cfa: $rsp 16 +
STACK CFI 11764 $r14: .cfa -24 + ^ .cfa: $rsp 24 +
STACK CFI 11766 $r13: .cfa -32 + ^ .cfa: $rsp 32 +
STACK CFI 11768 $r12: .cfa -40 + ^ .cfa: $rsp 40 +
STACK CFI 11769 $rbp: .cfa -48 + ^ .cfa: $rsp 48 +
STACK CFI 1176a $rdi: .cfa -56 + ^ .cfa: $rsp 56 +
STACK CFI 1176b $rsi: .cfa -64 + ^ .cfa: $rsp 64 +
STACK CFI 1176c $rbx: .cfa -72 + ^ .cfa: $rsp 72 +
STACK CFI 11773 .cfa: $rsp 256 +
STACK CFI 1195c .cfa: $rsp 72 +
STACK CFI 1195d $rbx: $rbx .cfa: $rsp 64 +
STACK CFI 1195e $rsi: $rsi .cfa: $rsp 56 +
STACK CFI 1195f $rdi: $rdi .cfa: $rsp 48 +
STACK CFI 11960 $rbp: $rbp .cfa: $rsp 40 +
STACK CFI 11962 $r12: $r12 .cfa: $rsp 32 +
STACK CFI 11964 $r13: $r13 .cfa: $rsp 24 +
STACK CFI 11966 $r14: $r14 .cfa: $rsp 16 +
STACK CFI 11968 $r15: $r15 .cfa: $rsp 8 +
STACK CFI 11970 $r12: .cfa -40 + ^ $r13: .cfa -32 + ^ $r14: .cfa -24 + ^ $r15: .cfa -16 + ^ $rbp: .cfa -48 + ^ $rbx: .cfa -72 + ^ $rdi: .cfa -56 + ^ $rsi: .cfa -64 + ^ .cfa: $rsp 256 +
STACK CFI INIT 11ba0 215 .cfa: $rsp 8 + .ra: .cfa -8 + ^
STACK CFI 11ba1 $rbx: .cfa -16 + ^ .cfa: $rsp 16 +
STACK CFI 11ba5 .cfa: $rsp 96 +
STACK CFI 11bc0 .cfa: $rsp 16 +
STACK CFI 11bc1 $rbx: $rbx .cfa: $rsp 8 +
STACK CFI 11bc2 $rbx: .cfa -16 + ^ .cfa: $rsp 96 +
STACK CFI INIT 11dc0 590 .cfa: $rsp 8 + .ra: .cfa -8 + ^
STACK CFI 11dc2 $r15: .cfa -16 + ^ .cfa: $rsp 16 +
STACK CFI 11dc4 $r14: .cfa -24 + ^ .cfa: $rsp 24 +
STACK CFI 11dc6 $r13: .cfa -32 + ^ .cfa: $rsp 32 +
STACK CFI 11dc8 $r12: .cfa -40 + ^ .cfa: $rsp 40 +
STACK CFI 11dc9 $rbp: .cfa -48 + ^ .cfa: $rsp 48 +
STACK CFI 11dca $rdi: .cfa -56 + ^ .cfa: $rsp 56 +
STACK CFI 11dcb $rsi: .cfa -64 + ^ .cfa: $rsp 64 +
STACK CFI 11dcc $rbx: .cfa -72 + ^ .cfa: $rsp 72 +
STACK CFI 11dd3 .cfa: $rsp 240 +
STACK CFI 11e75 .cfa: $rsp 72 +
STACK CFI 11e76 $rbx: $rbx .cfa: $rsp 64 +
STACK CFI 11e77 $rsi: $rsi .cfa: $rsp 56 +
STACK CFI 11e78 $rdi: $rdi .cfa: $rsp 48 +
STACK CFI 11e79 $rbp: $rbp .cfa: $rsp 40 +
STACK CFI 11e7b $r12: $r12 .cfa: $rsp 32 +
STACK CFI 11e7d $r13: $r13 .cfa: $rsp 24 +
STACK CFI 11e7f $r14: $r14 .cfa: $rsp 16 +
STACK CFI 11e81 $r15: $r15 .cfa: $rsp 8 +
STACK CFI 11e82 $r12: .cfa -40 + ^ $r13: .cfa -32 + ^ $r14: .cfa -24 + ^ $r15: .cfa -16 + ^ $rbp: .cfa -48 + ^ $rbx: .cfa -72 + ^ $rdi: .cfa -56 + ^ $rsi: .cfa -64 + ^ .cfa: $rsp 240 +
STACK CFI INIT 12350 61d .cfa: $rsp 8 + .ra: .cfa -8 + ^
STACK CFI 12352 $r15: .cfa -16 + ^ .cfa: $rsp 16 +
STACK CFI 12354 $r14: .cfa -24 + ^ .cfa: $rsp 24 +
STACK CFI 12356 $r13: .cfa -32 + ^ .cfa: $rsp 32 +
STACK CFI 12358 $r12: .cfa -40 + ^ .cfa: $rsp 40 +
STACK CFI 12359 $rbp: .cfa -48 + ^ .cfa: $rsp 48 +
STACK CFI 1235a $rdi: .cfa -56 + ^ .cfa: $rsp 56 +
STACK CFI 1235b $rsi: .cfa -64 + ^ .cfa: $rsp 64 +
STACK CFI 1235c $rbx: .cfa -72 + ^ .cfa: $rsp 72 +
STACK CFI 12360 .cfa: $rsp 176 +
STACK CFI 12626 .cfa: $rsp 72 +
STACK CFI 12627 $rbx: $rbx .cfa: $rsp 64 +
STACK CFI 12628 $rsi: $rsi .cfa: $rsp 56 +
STACK CFI 12629 $rdi: $rdi .cfa: $rsp 48 +
STACK CFI 1262a $rbp: $rbp .cfa: $rsp 40 +
STACK CFI 1262c $r12: $r12 .cfa: $rsp 32 +
STACK CFI 1262e $r13: $r13 .cfa: $rsp 24 +
STACK CFI 12630 $r14: $r14 .cfa: $rsp 16 +
STACK CFI 12632 $r15: $r15 .cfa: $rsp 8 +
STACK CFI 12633 $r12: .cfa -40 + ^ $r13: .cfa -32 + ^ $r14: .cfa -24 + ^ $r15: .cfa -16 + ^ $rbp: .cfa -48 + ^ $rbx: .cfa -72 + ^ $rdi: .cfa -56 + ^ $rsi: .cfa -64 + ^ .cfa: $rsp 176 +
STACK CFI INIT 12970 62 .cfa: $rsp 8 + .ra: .cfa -8 + ^
STACK CFI 12974 .cfa: $rsp 48 +
STACK CFI 12981 .cfa: $rsp 8 +
STACK CFI 12982 .cfa: $rsp 48 +
STACK CFI 129cb .cfa: $rsp 8 +
STACK CFI INIT 129e0 a .cfa: $rsp 8 + .ra: .cfa -8 + ^
STACK CFI INIT 129f0 270 .cfa: $rsp 8 + .ra: .cfa -8 + ^
STACK CFI 129f1 $rdi: .cfa -16 + ^ .cfa: $rsp 16 +
STACK CFI 129f2 $rsi: .cfa -24 + ^ .cfa: $rsp 24 +
STACK CFI 129f3 $rbx: .cfa -32 + ^ .cfa: $rsp 32 +
STACK CFI 129f7 .cfa: $rsp 160 +
STACK CFI 12aca .cfa: $rsp 32 +
STACK CFI 12acb $rbx: $rbx .cfa: $rsp 24 +
STACK CFI 12acc $rsi: $rsi .cfa: $rsp 16 +
STACK CFI 12acd $rdi: $rdi .cfa: $rsp 8 +
STACK CFI 12ad0 $rbx: .cfa -32 + ^ $rdi: .cfa -16 + ^ $rsi: .cfa -24 + ^ .cfa: $rsp 160 +
STACK CFI 12b00 .cfa: $rsp 32 +
STACK CFI 12b01 $rbx: $rbx .cfa: $rsp 24 +
STACK CFI 12b02 $rsi: $rsi .cfa: $rsp 16 +
STACK CFI 12b03 $rdi: $rdi .cfa: $rsp 8 +
STACK CFI 12b04 $rbx: .cfa -32 + ^ $rdi: .cfa -16 + ^ $rsi: .cfa -24 + ^ .cfa: $rsp 160 +
STACK CFI INIT 184950 20 .cfa: $rsp 8 + .ra: .cfa -8 + ^
STACK CFI 184954 .cfa: $rsp 48 +
STACK CFI 18496b .cfa: $rsp 8 +
STACK CFI INIT 12c60 61 .cfa: $rsp 8 + .ra: .cfa -8 + ^
STACK CFI INIT 12cd0 82 .cfa: $rsp 8 + .ra: .cfa -8 + ^
STACK CFI 12cd1 $rsi: .cfa -16 + ^ .cfa: $rsp 16 +
STACK CFI 12cd2 $rbx: .cfa -24 + ^ .cfa: $rsp 24 +
STACK CFI 12cd6 .cfa: $rsp 64 +
STACK CFI 12d4f .cfa: $rsp 24 +
STACK CFI 12d50 $rbx: $rbx .cfa: $rsp 16 +
STACK CFI 12d51 $rsi: $rsi .cfa: $rsp 8 +
STACK CFI INIT 12d60 5f .cfa: $rsp 8 + .ra: .cfa -8 + ^
STACK CFI INIT 12dc0 26 .cfa: $rsp 8 + .ra: .cfa -8 + ^
STACK CFI 12dc1 $rbx: .cfa -16 + ^ .cfa: $rsp 16 +
STACK CFI 12dc5 .cfa: $rsp 48 +
STACK CFI 12de0 .cfa: $rsp 16 +
STACK CFI 12de1 $rbx: $rbx .cfa: $rsp 8 +
STACK CFI INIT 12df0 69 .cfa: $rsp 8 + .ra: .cfa -8 + ^
STACK CFI 12df1 $rsi: .cfa -16 + ^ .cfa: $rsp 16 +
STACK CFI 12df2 $rbx: .cfa -24 + ^ .cfa: $rsp 24 +
STACK CFI 12df6 .cfa: $rsp 64 +
STACK CFI 12e52 .cfa: $rsp 24 +
STACK CFI 12e53 $rbx: $rbx .cfa: $rsp 16 +
STACK CFI 12e54 $rsi: $rsi .cfa: $rsp 8 +
STACK CFI INIT 12e60 4e .cfa: $rsp 8 + .ra: .cfa -8 + ^
STACK CFI 12e61 $rdi: .cfa -16 + ^ .cfa: $rsp 16 +
STACK CFI 12e62 $rsi: .cfa -24 + ^ .cfa: $rsp 24 +
STACK CFI 12e63 $rbx: .cfa -32 + ^ .cfa: $rsp 32 +
STACK CFI 12e67 .cfa: $rsp 64 +
STACK CFI 12eaa .cfa: $rsp 32 +
STACK CFI 12eab $rbx: $rbx .cfa: $rsp 24 +
STACK CFI 12eac $rsi: $rsi .cfa: $rsp 16 +
STACK CFI 12ead $rdi: $rdi .cfa: $rsp 8 +
STACK CFI INIT 12eb0 3f .cfa: $rsp 8 + .ra: .cfa -8 + ^
STACK CFI 12eb1 $rbx: .cfa -16 + ^ .cfa: $rsp 16 +
STACK CFI 12eb5 .cfa: $rsp 48 +
STACK CFI 12ed3 .cfa: $rsp 16 +
STACK CFI 12ed4 $rbx: $rbx .cfa: $rsp 8 +
STACK CFI 12ed5 $rbx: .cfa -16 + ^ .cfa: $rsp 48 +
STACK CFI INIT 12ef0 5e .cfa: $rsp 8 + .ra: .cfa -8 + ^
STACK CFI 12ef1 $rsi: .cfa -16 + ^ .cfa: $rsp 16 +
STACK CFI 12ef2 $rbx: .cfa -24 + ^ .cfa: $rsp 24 +
STACK CFI 12ef6 .cfa: $rsp 64 +
STACK CFI 12f29 .cfa: $rsp 24 +
STACK CFI 12f2a $rbx: $rbx .cfa: $rsp 16 +
STACK CFI 12f2b $rsi: $rsi .cfa: $rsp 8 +
STACK CFI 12f30 $rbx: .cfa -24 + ^ $rsi: .cfa -16 + ^ .cfa: $rsp 64 +
STACK CFI INIT 12f50 c .cfa: $rsp 8 + .ra: .cfa -8 + ^
STACK CFI INIT 12f60 f0 .cfa: $rsp 8 + .ra: .cfa -8 + ^
STACK CFI INIT 13050 50 .cfa: $rsp 8 + .ra: .cfa -8 + ^
STACK CFI 13051 $rdi: .cfa -16 + ^ .cfa: $rsp 16 +
STACK CFI 13052 $rsi: .cfa -24 + ^ .cfa: $rsp 24 +
STACK CFI 13056 .cfa: $rsp 64 +
STACK CFI 1308e .cfa: $rsp 24 +
STACK CFI 1308f $rsi: $rsi .cfa: $rsp 16 +
STACK CFI 13090 $rdi: $rdi .cfa: $rsp 8 +
STACK CFI 13091 $rdi: .cfa -16 + ^ $rsi: .cfa -24 + ^ .cfa: $rsp 64 +
STACK CFI INIT 130a0 90 .cfa: $rsp 8 + .ra: .cfa -8 + ^
STACK CFI 130a1 $rbx: .cfa -16 + ^ .cfa: $rsp 16 +
STACK CFI 130a8 .cfa: $rsp 1136 +
STACK CFI 1312e .cfa: $rsp 16 +
STACK CFI 1312f $rbx: $rbx .cfa: $rsp 8 +
STACK CFI INIT 13130 94 .cfa: $rsp 8 + .ra: .cfa -8 + ^
STACK CFI 13131 $rdi: .cfa -16 + ^ .cfa: $rsp 16 +
STACK CFI 13132 $rsi: .cfa -24 + ^ .cfa: $rsp 24 +
STACK CFI 13133 $rbx: .cfa -32 + ^ .cfa: $rsp 32 +
STACK CFI 13137 .cfa: $rsp 80 +
STACK CFI 1317d .cfa: $rsp 32 +
STACK CFI 1317e $rbx: $rbx .cfa: $rsp 24 +
STACK CFI 1317f $rsi: $rsi .cfa: $rsp 16 +
STACK CFI 13180 $rdi: $rdi .cfa: $rsp 8 +
STACK CFI 13181 $rbx: .cfa -32 + ^ $rdi: .cfa -16 + ^ $rsi: .cfa -24 + ^ .cfa: $rsp 80 +
STACK CFI INIT 131d0 112 .cfa: $rsp 8 + .ra: .cfa -8 + ^
STACK CFI 131d2 $r13: .cfa -16 + ^ .cfa: $rsp 16 +
STACK CFI 131d4 $r12: .cfa -24 + ^ .cfa: $rsp 24 +
STACK CFI 131d5 $rbp: .cfa -32 + ^ .cfa: $rsp 32 +
STACK CFI 131d6 $rdi: .cfa -40 + ^ .cfa: $rsp 40 +
STACK CFI 131d7 $rsi: .cfa -48 + ^ .cfa: $rsp 48 +
STACK CFI 131d8 $rbx: .cfa -56 + ^ .cfa: $rsp 56 +
STACK CFI 131dc .cfa: $rsp 96 +
STACK CFI 1328b .cfa: $rsp 56 +
STACK CFI 1328c $rbx: $rbx .cfa: $rsp 48 +
STACK CFI 1328d $rsi: $rsi .cfa: $rsp 40 +
STACK CFI 1328e $rdi: $rdi .cfa: $rsp 32 +
STACK CFI 1328f $rbp: $rbp .cfa: $rsp 24 +
STACK CFI 13291 $r12: $r12 .cfa: $rsp 16 +
STACK CFI 13293 $r13: $r13 .cfa: $rsp 8 +
STACK CFI 13294 $r12: .cfa -24 + ^ $r13: .cfa -16 + ^ $rbp: .cfa -32 + ^ $rbx: .cfa -56 + ^ $rdi: .cfa -40 + ^ $rsi: .cfa -48 + ^ .cfa: $rsp 96 +
STACK CFI INIT 132f0 c5 .cfa: $rsp 8 + .ra: .cfa -8 + ^
STACK CFI 132f1 $rbp: .cfa -16 + ^ .cfa: $rsp 16 +
STACK CFI 132f2 $rdi: .cfa -24 + ^ .cfa: $rsp 24 +
STACK CFI 132f3 $rsi: .cfa -32 + ^ .cfa: $rsp 32 +
STACK CFI 132f4 $rbx: .cfa -40 + ^ .cfa: $rsp 40 +
STACK CFI 132f8 .cfa: $rsp 80 +
STACK CFI 133b0 .cfa: $rsp 40 +
STACK CFI 133b1 $rbx: $rbx .cfa: $rsp 32 +
STACK CFI 133b2 $rsi: $rsi .cfa: $rsp 24 +
STACK CFI 133b3 $rdi: $rdi .cfa: $rsp 16 +
STACK CFI 133b4 $rbp: $rbp .cfa: $rsp 8 +
STACK CFI INIT 133c0 fe .cfa: $rsp 8 + .ra: .cfa -8 + ^
STACK CFI 133c1 $rbp: .cfa -16 + ^ .cfa: $rsp 16 +
STACK CFI 133c2 $rdi: .cfa -24 + ^ .cfa: $rsp 24 +
STACK CFI 133c3 $rsi: .cfa -32 + ^ .cfa: $rsp 32 +
STACK CFI 133c4 $rbx: .cfa -40 + ^ .cfa: $rsp 40 +
STACK CFI 133c8 .cfa: $rsp 96 +
STACK CFI 134a1 .cfa: $rsp 40 +
STACK CFI 134a2 $rbx: $rbx .cfa: $rsp 32 +
STACK CFI 134a3 $rsi: $rsi .cfa: $rsp 24 +
STACK CFI 134a4 $rdi: $rdi .cfa: $rsp 16 +
STACK CFI 134a5 $rbp: $rbp .cfa: $rsp 8 +
STACK CFI 134b0 $rbp: .cfa -16 + ^ $rbx: .cfa -40 + ^ $rdi: .cfa -24 + ^ $rsi: .cfa -32 + ^ .cfa: $rsp 96 +
STACK CFI 134b9 .cfa: $rsp 40 +
STACK CFI 134ba $rbx: $rbx .cfa: $rsp 32 +
STACK CFI 134bb $rsi: $rsi .cfa: $rsp 24 +
STACK CFI 134bc $rdi: $rdi .cfa: $rsp 16 +
STACK CFI 134bd $rbp: $rbp .cfa: $rsp 8 +
STACK CFI INIT 134c0 209 .cfa: $rsp 8 + .ra: .cfa -8 + ^
STACK CFI 134c2 $r14: .cfa -16 + ^ .cfa: $rsp 16 +
STACK CFI 134c4 $r13: .cfa -24 + ^ .cfa: $rsp 24 +
STACK CFI 134c6 $r12: .cfa -32 + ^ .cfa: $rsp 32 +
STACK CFI 134c7 $rbp: .cfa -40 + ^ .cfa: $rsp 40 +
STACK CFI 134c8 $rdi: .cfa -48 + ^ .cfa: $rsp 48 +
STACK CFI 134c9 $rsi: .cfa -56 + ^ .cfa: $rsp 56 +
STACK CFI 134ca $rbx: .cfa -64 + ^ .cfa: $rsp 64 +
STACK CFI 134ce .cfa: $rsp 96 +
STACK CFI 136ba .cfa: $rsp 64 +
STACK CFI 136bb $rbx: $rbx .cfa: $rsp 56 +
STACK CFI 136bc $rsi: $rsi .cfa: $rsp 48 +
STACK CFI 136bd $rdi: $rdi .cfa: $rsp 40 +
STACK CFI 136be $rbp: $rbp .cfa: $rsp 32 +
STACK CFI 136c0 $r12: $r12 .cfa: $rsp 24 +
STACK CFI 136c2 $r13: $r13 .cfa: $rsp 16 +
STACK CFI 136c4 $r14: $r14 .cfa: $rsp 8 +
STACK CFI 136c5 $r12: .cfa -32 + ^ $r13: .cfa -24 + ^ $r14: .cfa -16 + ^ $rbp: .cfa -40 + ^ $rbx: .cfa -64 + ^ $rdi: .cfa -48 + ^ $rsi: .cfa -56 + ^ .cfa: $rsp 96 +
STACK CFI INIT 136d0 10b .cfa: $rsp 8 + .ra: .cfa -8 + ^
STACK CFI 136d1 $rbp: .cfa -16 + ^ .cfa: $rsp 16 +
STACK CFI 136d2 $rdi: .cfa -24 + ^ .cfa: $rsp 24 +
STACK CFI 136d3 $rsi: .cfa -32 + ^ .cfa: $rsp 32 +
STACK CFI 136d4 $rbx: .cfa -40 + ^ .cfa: $rsp 40 +
STACK CFI 136d8 .cfa: $rsp 80 +
STACK CFI 136fa .cfa: $rsp 40 +
STACK CFI 136fb $rbx: $rbx .cfa: $rsp 32 +
STACK CFI 136fc $rsi: $rsi .cfa: $rsp 24 +
STACK CFI 136fd $rdi: $rdi .cfa: $rsp 16 +
STACK CFI 136fe $rbp: $rbp .cfa: $rsp 8 +
STACK CFI 136ff $rbp: .cfa -16 + ^ $rbx: .cfa -40 + ^ $rdi: .cfa -24 + ^ $rsi: .cfa -32 + ^ .cfa: $rsp 80 +
STACK CFI 137d6 .cfa: $rsp 40 +
STACK CFI 137d7 $rbx: $rbx .cfa: $rsp 32 +
STACK CFI 137d8 $rsi: $rsi .cfa: $rsp 24 +
STACK CFI 137d9 $rdi: $rdi .cfa: $rsp 16 +
STACK CFI 137da $rbp: $rbp .cfa: $rsp 8 +
STACK CFI INIT 137e0 73 .cfa: $rsp 8 + .ra: .cfa -8 + ^
STACK CFI 137e1 $rsi: .cfa -16 + ^ .cfa: $rsp 16 +
STACK CFI 137e2 $rbx: .cfa -24 + ^ .cfa: $rsp 24 +
STACK CFI 137e6 .cfa: $rsp 80 +
STACK CFI 1383a .cfa: $rsp 24 +
STACK CFI 1383b $rbx: $rbx .cfa: $rsp 16 +
STACK CFI 1383c $rsi: $rsi .cfa: $rsp 8 +
STACK CFI 13840 $rbx: .cfa -24 + ^ $rsi: .cfa -16 + ^ .cfa: $rsp 80 +
STACK CFI 13850 .cfa: $rsp 24 +
STACK CFI 13851 $rbx: $rbx .cfa: $rsp 16 +
STACK CFI 13852 $rsi: $rsi .cfa: $rsp 8 +
STACK CFI INIT 13860 7a .cfa: $rsp 8 + .ra: .cfa -8 + ^
STACK CFI 13861 $rsi: .cfa -16 + ^ .cfa: $rsp 16 +
STACK CFI 13862 $rbx: .cfa -24 + ^ .cfa: $rsp 24 +
STACK CFI 13869 .cfa: $rsp 1136 +
STACK CFI 138d7 .cfa: $rsp 24 +
STACK CFI 138d8 $rbx: $rbx .cfa: $rsp 16 +
STACK CFI 138d9 $rsi: $rsi .cfa: $rsp 8 +
STACK CFI INIT 138e0 c6f .cfa: $rsp 8 + .ra: .cfa -8 + ^
STACK CFI 138e2 $r15: .cfa -16 + ^ .cfa: $rsp 16 +
STACK CFI 138e4 $r14: .cfa -24 + ^ .cfa: $rsp 24 +
STACK CFI 138eb $r13: .cfa -32 + ^ .cfa: $rsp 32 +
STACK CFI 138ed $r12: .cfa -40 + ^ .cfa: $rsp 40 +
STACK CFI 138ee $rbp: .cfa -48 + ^ .cfa: $rsp 48 +
STACK CFI 138ef $rdi: .cfa -56 + ^ .cfa: $rsp 56 +
STACK CFI 138f0 $rsi: .cfa -64 + ^ .cfa: $rsp 64 +
STACK CFI 138f1 $rbx: .cfa -72 + ^ .cfa: $rsp 72 +
STACK CFI 138f9 .cfa: $rsp 4880 +
STACK CFI 13936 $xmm10: .cfa -128 + ^ $xmm11: .cfa -112 + ^ $xmm12: .cfa -96 + ^ $xmm6: .cfa -192 + ^ $xmm7: .cfa -176 + ^ $xmm8: .cfa -160 + ^ $xmm9: .cfa -144 + ^
STACK CFI 13a7c $xmm10: $xmm10 $xmm11: $xmm11 $xmm12: $xmm12 $xmm6: $xmm6 $xmm7: $xmm7 $xmm8: $xmm8 $xmm9: $xmm9 .cfa: $rsp 72 +
STACK CFI 13a7d $rbx: $rbx .cfa: $rsp 64 +
STACK CFI 13a7e $rsi: $rsi .cfa: $rsp 56 +
STACK CFI 13a7f $rdi: $rdi .cfa: $rsp 48 +
STACK CFI 13a80 $rbp: $rbp .cfa: $rsp 40 +
STACK CFI 13a82 $r12: $r12 .cfa: $rsp 32 +
STACK CFI 13a84 $r13: $r13 .cfa: $rsp 24 +
STACK CFI 13a86 $r14: $r14 .cfa: $rsp 16 +
STACK CFI 13a88 $r15: $r15 .cfa: $rsp 8 +
STACK CFI 13a89 $r12: .cfa -40 + ^ $r13: .cfa -32 + ^ $r14: .cfa -24 + ^ $r15: .cfa -16 + ^ $rbp: .cfa -48 + ^ $rbx: .cfa -72 + ^ $rdi: .cfa -56 + ^ $rsi: .cfa -64 + ^ $xmm10: .cfa -128 + ^ $xmm11: .cfa -112 + ^ $xmm12: .cfa -96 + ^ $xmm6: .cfa -192 + ^ $xmm7: .cfa -176 + ^ $xmm8: .cfa -160 + ^ $xmm9: .cfa -144 + ^ .cfa: $rsp 4880 +
STACK CFI INIT 14550 17 .cfa: $rsp 8 + .ra: .cfa -8 + ^
STACK CFI 14554 .cfa: $rsp 48 +
STACK CFI 14566 .cfa: $rsp 8 +
STACK CFI INIT 14570 71 .cfa: $rsp 8 + .ra: .cfa -8 + ^
STACK CFI 14571 $rdi: .cfa -16 + ^ .cfa: $rsp 16 +
STACK CFI 14572 $rsi: .cfa -24 + ^ .cfa: $rsp 24 +
STACK CFI 14573 $rbx: .cfa -32 + ^ .cfa: $rsp 32 +
STACK CFI 14577 .cfa: $rsp 64 +
STACK CFI 145bc .cfa: $rsp 32 +
STACK CFI 145bd $rbx: $rbx .cfa: $rsp 24 +
STACK CFI 145be $rsi: $rsi .cfa: $rsp 16 +
STACK CFI 145bf $rdi: $rdi .cfa: $rsp 8 +
STACK CFI 145c4 $rbx: .cfa -32 + ^ $rdi: .cfa -16 + ^ $rsi: .cfa -24 + ^ .cfa: $rsp 64 +
STACK CFI 145dd .cfa: $rsp 32 +
STACK CFI 145de $rbx: $rbx .cfa: $rsp 24 +
STACK CFI 145df $rsi: $rsi .cfa: $rsp 16 +
STACK CFI 145e0 $rdi: $rdi .cfa: $rsp 8 +
STACK CFI INIT 145f0 4d .cfa: $rsp 8 + .ra: .cfa -8 + ^
STACK CFI 145f1 $rbx: .cfa -16 + ^ .cfa: $rsp 16 +
STACK CFI 145f5 .cfa: $rsp 80 +
STACK CFI 14618 .cfa: $rsp 16 +
STACK CFI 14619 $rbx: $rbx .cfa: $rsp 8 +
STACK CFI 14620 $rbx: .cfa -16 + ^ .cfa: $rsp 80 +
STACK CFI 1463b .cfa: $rsp 16 +
STACK CFI 1463c $rbx: $rbx .cfa: $rsp 8 +
STACK CFI INIT 14640 8d .cfa: $rsp 8 + .ra: .cfa -8 + ^
STACK CFI 14641 $rbx: .cfa -16 + ^ .cfa: $rsp 16 +
STACK CFI 14645 .cfa: $rsp 80 +
STACK CFI 14687 .cfa: $rsp 16 +
STACK CFI 14688 $rbx: $rbx .cfa: $rsp 8 +
STACK CFI 14690 $rbx: .cfa -16 + ^ .cfa: $rsp 80 +
STACK CFI 146a5 .cfa: $rsp 16 +
STACK CFI 146a6 $rbx: $rbx .cfa: $rsp 8 +
STACK CFI 146b0 $rbx: .cfa -16 + ^ .cfa: $rsp 80 +
STACK CFI 146cb .cfa: $rsp 16 +
STACK CFI 146cc $rbx: $rbx .cfa: $rsp 8 +
STACK CFI INIT 146d0 8a .cfa: $rsp 8 + .ra: .cfa -8 + ^
STACK CFI 146d1 $rsi: .cfa -16 + ^ .cfa: $rsp 16 +
STACK CFI 146d2 $rbx: .cfa -24 + ^ .cfa: $rsp 24 +
STACK CFI 146d9 .cfa: $rsp 1136 +
STACK CFI 146fc .cfa: $rsp 24 +
STACK CFI 146fd $rbx: $rbx .cfa: $rsp 16 +
STACK CFI 146fe $rsi: $rsi .cfa: $rsp 8 +
STACK CFI 14700 $rbx: .cfa -24 + ^ $rsi: .cfa -16 + ^ .cfa: $rsp 1136 +
STACK CFI 14757 .cfa: $rsp 24 +
STACK CFI 14758 $rbx: $rbx .cfa: $rsp 16 +
STACK CFI 14759 $rsi: $rsi .cfa: $rsp 8 +
STACK CFI INIT 14760 91 .cfa: $rsp 8 + .ra: .cfa -8 + ^
STACK CFI 14761 $rsi: .cfa -16 + ^ .cfa: $rsp 16 +
STACK CFI 14762 $rbx: .cfa -24 + ^ .cfa: $rsp 24 +
STACK CFI 14769 .cfa: $rsp 1136 +
STACK CFI 1478c .cfa: $rsp 24 +
STACK CFI 1478d $rbx: $rbx .cfa: $rsp 16 +
STACK CFI 1478e $rsi: $rsi .cfa: $rsp 8 +
STACK CFI 14790 $rbx: .cfa -24 + ^ $rsi: .cfa -16 + ^ .cfa: $rsp 1136 +
STACK CFI 147ee .cfa: $rsp 24 +
STACK CFI 147ef $rbx: $rbx .cfa: $rsp 16 +
STACK CFI 147f0 $rsi: $rsi .cfa: $rsp 8 +
STACK CFI INIT 14800 362 .cfa: $rsp 8 + .ra: .cfa -8 + ^
STACK CFI 14802 $r15: .cfa -16 + ^ .cfa: $rsp 16 +
STACK CFI 14804 $r14: .cfa -24 + ^ .cfa: $rsp 24 +
STACK CFI 14806 $r13: .cfa -32 + ^ .cfa: $rsp 32 +
STACK CFI 14808 $r12: .cfa -40 + ^ .cfa: $rsp 40 +
STACK CFI 14809 $rbp: .cfa -48 + ^ .cfa: $rsp 48 +
STACK CFI 1480a $rdi: .cfa -56 + ^ .cfa: $rsp 56 +
STACK CFI 1480b $rsi: .cfa -64 + ^ .cfa: $rsp 64 +
STACK CFI 1480c $rbx: .cfa -72 + ^ .cfa: $rsp 72 +
STACK CFI 14810 .cfa: $rsp 112 +
STACK CFI 1492b .cfa: $rsp 72 +
STACK CFI 1492c $rbx: $rbx .cfa: $rsp 64 +
STACK CFI 1492d $rsi: $rsi .cfa: $rsp 56 +
STACK CFI 1492e $rdi: $rdi .cfa: $rsp 48 +
STACK CFI 1492f $rbp: $rbp .cfa: $rsp 40 +
STACK CFI 14931 $r12: $r12 .cfa: $rsp 32 +
STACK CFI 14933 $r13: $r13 .cfa: $rsp 24 +
STACK CFI 14935 $r14: $r14 .cfa: $rsp 16 +
STACK CFI 14937 $r15: $r15 .cfa: $rsp 8 +
STACK CFI 14940 $r12: .cfa -40 + ^ $r13: .cfa -32 + ^ $r14: .cfa -24 + ^ $r15: .cfa -16 + ^ $rbp: .cfa -48 + ^ $rbx: .cfa -72 + ^ $rdi: .cfa -56 + ^ $rsi: .cfa -64 + ^ .cfa: $rsp 112 +
STACK CFI INIT 14b70 a65 .cfa: $rsp 8 + .ra: .cfa -8 + ^
STACK CFI 14b72 $r15: .cfa -16 + ^ .cfa: $rsp 16 +
STACK CFI 14b74 $r14: .cfa -24 + ^ .cfa: $rsp 24 +
STACK CFI 14b76 $r13: .cfa -32 + ^ .cfa: $rsp 32 +
STACK CFI 14b78 $r12: .cfa -40 + ^ .cfa: $rsp 40 +
STACK CFI 14b79 $rbp: .cfa -48 + ^ .cfa: $rsp 48 +
STACK CFI 14b7a $rdi: .cfa -56 + ^ .cfa: $rsp 56 +
STACK CFI 14b7b $rsi: .cfa -64 + ^ .cfa: $rsp 64 +
STACK CFI 14b7c $rbx: .cfa -72 + ^ .cfa: $rsp 72 +
STACK CFI 14b80 .cfa: $rsp 160 +
STACK CFI 14d84 .cfa: $rsp 72 +
STACK CFI 14d85 $rbx: $rbx .cfa: $rsp 64 +
STACK CFI 14d86 $rsi: $rsi .cfa: $rsp 56 +
STACK CFI 14d87 $rdi: $rdi .cfa: $rsp 48 +
STACK CFI 14d88 $rbp: $rbp .cfa: $rsp 40 +
STACK CFI 14d8a $r12: $r12 .cfa: $rsp 32 +
STACK CFI 14d8c $r13: $r13 .cfa: $rsp 24 +
STACK CFI 14d8e $r14: $r14 .cfa: $rsp 16 +
STACK CFI 14d90 $r15: $r15 .cfa: $rsp 8 +
STACK CFI 14d91 $r12: .cfa -40 + ^ $r13: .cfa -32 + ^ $r14: .cfa -24 + ^ $r15: .cfa -16 + ^ $rbp: .cfa -48 + ^ $rbx: .cfa -72 + ^ $rdi: .cfa -56 + ^ $rsi: .cfa -64 + ^ .cfa: $rsp 160 +
STACK CFI INIT 155e0 a0 .cfa: $rsp 8 + .ra: .cfa -8 + ^
STACK CFI 155e2 $r12: .cfa -16 + ^ .cfa: $rsp 16 +
STACK CFI 155e3 $rbp: .cfa -24 + ^ .cfa: $rsp 24 +
STACK CFI 155e4 $rdi: .cfa -32 + ^ .cfa: $rsp 32 +
STACK CFI 155e5 $rsi: .cfa -40 + ^ .cfa: $rsp 40 +
STACK CFI 155e6 $rbx: .cfa -48 + ^ .cfa: $rsp 48 +
STACK CFI 155ea .cfa: $rsp 80 +
STACK CFI 15637 .cfa: $rsp 48 +
STACK CFI 15638 $rbx: $rbx .cfa: $rsp 40 +
STACK CFI 15639 $rsi: $rsi .cfa: $rsp 32 +
STACK CFI 1563a $rdi: $rdi .cfa: $rsp 24 +
STACK CFI 1563b $rbp: $rbp .cfa: $rsp 16 +
STACK CFI 1563d $r12: $r12 .cfa: $rsp 8 +
STACK CFI 15640 $r12: .cfa -16 + ^ $rbp: .cfa -24 + ^ $rbx: .cfa -48 + ^ $rdi: .cfa -32 + ^ $rsi: .cfa -40 + ^ .cfa: $rsp 80 +
STACK CFI 15663 .cfa: $rsp 48 +
STACK CFI 15664 $rbx: $rbx .cfa: $rsp 40 +
STACK CFI 15665 $rsi: $rsi .cfa: $rsp 32 +
STACK CFI 15666 $rdi: $rdi .cfa: $rsp 24 +
STACK CFI 15667 $rbp: $rbp .cfa: $rsp 16 +
STACK CFI 15669 $r12: $r12 .cfa: $rsp 8 +
STACK CFI 15670 $r12: .cfa -16 + ^ $rbp: .cfa -24 + ^ $rbx: .cfa -48 + ^ $rdi: .cfa -32 + ^ $rsi: .cfa -40 + ^ .cfa: $rsp 80 +
STACK CFI 15679 .cfa: $rsp 48 +
STACK CFI 1567a $rbx: $rbx .cfa: $rsp 40 +
STACK CFI 1567b $rsi: $rsi .cfa: $rsp 32 +
STACK CFI 1567c $rdi: $rdi .cfa: $rsp 24 +
STACK CFI 1567d $rbp: $rbp .cfa: $rsp 16 +
STACK CFI 1567f $r12: $r12 .cfa: $rsp 8 +
STACK CFI INIT 15680 3e .cfa: $rsp 8 + .ra: .cfa -8 + ^
STACK CFI 15681 $rsi: .cfa -16 + ^ .cfa: $rsp 16 +
STACK CFI 15682 $rbx: .cfa -24 + ^ .cfa: $rsp 24 +
STACK CFI 15689 .cfa: $rsp 1152 +
STACK CFI 156bb .cfa: $rsp 24 +
STACK CFI 156bc $rbx: $rbx .cfa: $rsp 16 +
STACK CFI 156bd $rsi: $rsi .cfa: $rsp 8 +
STACK CFI INIT 156c0 1b9 .cfa: $rsp 8 + .ra: .cfa -8 + ^
STACK CFI 156c2 $r12: .cfa -16 + ^ .cfa: $rsp 16 +
STACK CFI 156c3 $rbp: .cfa -24 + ^ .cfa: $rsp 24 +
STACK CFI 156c4 $rdi: .cfa -32 + ^ .cfa: $rsp 32 +
STACK CFI 156c5 $rsi: .cfa -40 + ^ .cfa: $rsp 40 +
STACK CFI 156c6 $rbx: .cfa -48 + ^ .cfa: $rsp 48 +
STACK CFI 156cd .cfa: $rsp 1184 +
STACK CFI 157b4 .cfa: $rsp 48 +
STACK CFI 157b5 $rbx: $rbx .cfa: $rsp 40 +
STACK CFI 157b6 $rsi: $rsi .cfa: $rsp 32 +
STACK CFI 157b7 $rdi: $rdi .cfa: $rsp 24 +
STACK CFI 157b8 $rbp: $rbp .cfa: $rsp 16 +
STACK CFI 157ba $r12: $r12 .cfa: $rsp 8 +
STACK CFI 157c0 $r12: .cfa -16 + ^ $rbp: .cfa -24 + ^ $rbx: .cfa -48 + ^ $rdi: .cfa -32 + ^ $rsi: .cfa -40 + ^ .cfa: $rsp 1184 +
STACK CFI 157f8 .cfa: $rsp 48 +
STACK CFI 157f9 $rbx: $rbx .cfa: $rsp 40 +
STACK CFI 157fa $rsi: $rsi .cfa: $rsp 32 +
STACK CFI 157fb $rdi: $rdi .cfa: $rsp 24 +
STACK CFI 157fc $rbp: $rbp .cfa: $rsp 16 +
STACK CFI 157fe $r12: $r12 .cfa: $rsp 8 +
STACK CFI 15800 $r12: .cfa -16 + ^ $rbp: .cfa -24 + ^ $rbx: .cfa -48 + ^ $rdi: .cfa -32 + ^ $rsi: .cfa -40 + ^ .cfa: $rsp 1184 +
STACK CFI 1581e .cfa: $rsp 48 +
STACK CFI 1581f $rbx: $rbx .cfa: $rsp 40 +
STACK CFI 15820 $rsi: $rsi .cfa: $rsp 32 +
STACK CFI 15821 $rdi: $rdi .cfa: $rsp 24 +
STACK CFI 15822 $rbp: $rbp .cfa: $rsp 16 +
STACK CFI 15824 $r12: $r12 .cfa: $rsp 8 +
STACK CFI 15825 $r12: .cfa -16 + ^ $rbp: .cfa -24 + ^ $rbx: .cfa -48 + ^ $rdi: .cfa -32 + ^ $rsi: .cfa -40 + ^ .cfa: $rsp 1184 +
STACK CFI 15831 .cfa: $rsp 48 +
STACK CFI 15832 $rbx: $rbx .cfa: $rsp 40 +
STACK CFI 15833 $rsi: $rsi .cfa: $rsp 32 +
STACK CFI 15834 $rdi: $rdi .cfa: $rsp 24 +
STACK CFI 15835 $rbp: $rbp .cfa: $rsp 16 +
STACK CFI 15837 $r12: $r12 .cfa: $rsp 8 +
STACK CFI 15840 $r12: .cfa -16 + ^ $rbp: .cfa -24 + ^ $rbx: .cfa -48 + ^ $rdi: .cfa -32 + ^ $rsi: .cfa -40 + ^ .cfa: $rsp 1184 +
STACK CFI INIT 15880 15 .cfa: $rsp 8 + .ra: .cfa -8 + ^
STACK CFI INIT 158a0 d2 .cfa: $rsp 8 + .ra: .cfa -8 + ^
STACK CFI 158a1 $rdi: .cfa -16 + ^ .cfa: $rsp 16 +
STACK CFI 158a2 $rsi: .cfa -24 + ^ .cfa: $rsp 24 +
STACK CFI 158a3 $rbx: .cfa -32 + ^ .cfa: $rsp 32 +
STACK CFI 158aa .cfa: $rsp 1168 +
STACK CFI 15906 .cfa: $rsp 32 +
STACK CFI 15907 $rbx: $rbx .cfa: $rsp 24 +
STACK CFI 15908 $rsi: $rsi .cfa: $rsp 16 +
STACK CFI 15909 $rdi: $rdi .cfa: $rsp 8 +
STACK CFI 15910 $rbx: .cfa -32 + ^ $rdi: .cfa -16 + ^ $rsi: .cfa -24 + ^ .cfa: $rsp 1168 +
STACK CFI 15949 .cfa: $rsp 32 +
STACK CFI 1594a $rbx: $rbx .cfa: $rsp 24 +
STACK CFI 1594b $rsi: $rsi .cfa: $rsp 16 +
STACK CFI 1594c $rdi: $rdi .cfa: $rsp 8 +
STACK CFI 15950 $rbx: .cfa -32 + ^ $rdi: .cfa -16 + ^ $rsi: .cfa -24 + ^ .cfa: $rsp 1168 +
STACK CFI 1596e .cfa: $rsp 32 +
STACK CFI 1596f $rbx: $rbx .cfa: $rsp 24 +
STACK CFI 15970 $rsi: $rsi .cfa: $rsp 16 +
STACK CFI 15971 $rdi: $rdi .cfa: $rsp 8 +
STACK CFI INIT 15980 a .cfa: $rsp 8 + .ra: .cfa -8 + ^
STACK CFI INIT 15990 a .cfa: $rsp 8 + .ra: .cfa -8 + ^
STACK CFI INIT 159a0 3c .cfa: $rsp 8 + .ra: .cfa -8 + ^
STACK CFI 159a1 $rsi: .cfa -16 + ^ .cfa: $rsp 16 +
STACK CFI 159a2 $rbx: .cfa -24 + ^ .cfa: $rsp 24 +
STACK CFI 159a9 .cfa: $rsp 1152 +
STACK CFI 159d9 .cfa: $rsp 24 +
STACK CFI 159da $rbx: $rbx .cfa: $rsp 16 +
STACK CFI 159db $rsi: $rsi .cfa: $rsp 8 +
STACK CFI INIT 159e0 1c2 .cfa: $rsp 8 + .ra: .cfa -8 + ^
STACK CFI 159e1 $rdi: .cfa -16 + ^ .cfa: $rsp 16 +
STACK CFI 159e2 $rsi: .cfa -24 + ^ .cfa: $rsp 24 +
STACK CFI 159e3 $rbx: .cfa -32 + ^ .cfa: $rsp 32 +
STACK CFI 159ea .cfa: $rsp 1216 +
STACK CFI 15a38 .cfa: $rsp 32 +
STACK CFI 15a39 $rbx: $rbx .cfa: $rsp 24 +
STACK CFI 15a3a $rsi: $rsi .cfa: $rsp 16 +
STACK CFI 15a3b $rdi: $rdi .cfa: $rsp 8 +
STACK CFI 15a40 $rbx: .cfa -32 + ^ $rdi: .cfa -16 + ^ $rsi: .cfa -24 + ^ .cfa: $rsp 1216 +
STACK CFI 15a78 .cfa: $rsp 32 +
STACK CFI 15a79 $rbx: $rbx .cfa: $rsp 24 +
STACK CFI 15a7a $rsi: $rsi .cfa: $rsp 16 +
STACK CFI 15a7b $rdi: $rdi .cfa: $rsp 8 +
STACK CFI 15a80 $rbx: .cfa -32 + ^ $rdi: .cfa -16 + ^ $rsi: .cfa -24 + ^ .cfa: $rsp 1216 +
STACK CFI INIT 15bb0 15 .cfa: $rsp 8 + .ra: .cfa -8 + ^
STACK CFI INIT 15bd0 901 .cfa: $rsp 8 + .ra: .cfa -8 + ^
STACK CFI 15bd2 $r15: .cfa -16 + ^ .cfa: $rsp 16 +
STACK CFI 15bd4 $r14: .cfa -24 + ^ .cfa: $rsp 24 +
STACK CFI 15bd6 $r13: .cfa -32 + ^ .cfa: $rsp 32 +
STACK CFI 15bd8 $r12: .cfa -40 + ^ .cfa: $rsp 40 +
STACK CFI 15bd9 $rbp: .cfa -48 + ^ .cfa: $rsp 48 +
STACK CFI 15bda $rdi: .cfa -56 + ^ .cfa: $rsp 56 +
STACK CFI 15bdb $rsi: .cfa -64 + ^ .cfa: $rsp 64 +
STACK CFI 15bdc $rbx: .cfa -72 + ^ .cfa: $rsp 72 +
STACK CFI 15be3 .cfa: $rsp 2256 +
STACK CFI 160d1 .cfa: $rsp 72 +
STACK CFI 160d2 $rbx: $rbx .cfa: $rsp 64 +
STACK CFI 160d3 $rsi: $rsi .cfa: $rsp 56 +
STACK CFI 160d4 $rdi: $rdi .cfa: $rsp 48 +
STACK CFI 160d5 $rbp: $rbp .cfa: $rsp 40 +
STACK CFI 160d7 $r12: $r12 .cfa: $rsp 32 +
STACK CFI 160d9 $r13: $r13 .cfa: $rsp 24 +
STACK CFI 160db $r14: $r14 .cfa: $rsp 16 +
STACK CFI 160dd $r15: $r15 .cfa: $rsp 8 +
STACK CFI 160e0 $r12: .cfa -40 + ^ $r13: .cfa -32 + ^ $r14: .cfa -24 + ^ $r15: .cfa -16 + ^ $rbp: .cfa -48 + ^ $rbx: .cfa -72 + ^ $rdi: .cfa -56 + ^ $rsi: .cfa -64 + ^ .cfa: $rsp 2256 +
STACK CFI INIT 164e0 56 .cfa: $rsp 8 + .ra: .cfa -8 + ^
STACK CFI 164e1 $rbx: .cfa -16 + ^ .cfa: $rsp 16 +
STACK CFI 164e5 .cfa: $rsp 80 +
STACK CFI 16534 .cfa: $rsp 16 +
STACK CFI 16535 $rbx: $rbx .cfa: $rsp 8 +
STACK CFI INIT 16540 36f .cfa: $rsp 8 + .ra: .cfa -8 + ^
STACK CFI 16542 $r15: .cfa -16 + ^ .cfa: $rsp 16 +
STACK CFI 16544 $r14: .cfa -24 + ^ .cfa: $rsp 24 +
STACK CFI 16546 $r13: .cfa -32 + ^ .cfa: $rsp 32 +
STACK CFI 16548 $r12: .cfa -40 + ^ .cfa: $rsp 40 +
STACK CFI 16549 $rbp: .cfa -48 + ^ .cfa: $rsp 48 +
STACK CFI 1654a $rdi: .cfa -56 + ^ .cfa: $rsp 56 +
STACK CFI 1654b $rsi: .cfa -64 + ^ .cfa: $rsp 64 +
STACK CFI 1654c $rbx: .cfa -72 + ^ .cfa: $rsp 72 +
STACK CFI 16553 .cfa: $rsp 1216 +
STACK CFI 16809 .cfa: $rsp 72 +
STACK CFI 1680a $rbx: $rbx .cfa: $rsp 64 +
STACK CFI 1680b $rsi: $rsi .cfa: $rsp 56 +
STACK CFI 1680c $rdi: $rdi .cfa: $rsp 48 +
STACK CFI 1680d $rbp: $rbp .cfa: $rsp 40 +
STACK CFI 1680f $r12: $r12 .cfa: $rsp 32 +
STACK CFI 16811 $r13: $r13 .cfa: $rsp 24 +
STACK CFI 16813 $r14: $r14 .cfa: $rsp 16 +
STACK CFI 16815 $r15: $r15 .cfa: $rsp 8 +
STACK CFI 16820 $r12: .cfa -40 + ^ $r13: .cfa -32 + ^ $r14: .cfa -24 + ^ $r15: .cfa -16 + ^ $rbp: .cfa -48 + ^ $rbx: .cfa -72 + ^ $rdi: .cfa -56 + ^ $rsi: .cfa -64 + ^ .cfa: $rsp 1216 +
STACK CFI INIT 168b0 10d .cfa: $rsp 8 + .ra: .cfa -8 + ^
STACK CFI 168b1 $rsi: .cfa -16 + ^ .cfa: $rsp 16 +
STACK CFI 168b2 $rbx: .cfa -24 + ^ .cfa: $rsp 24 +
STACK CFI 168b9 .cfa: $rsp 1168 +
STACK CFI 168d6 .cfa: $rsp 24 +
STACK CFI 168d7 $rbx: $rbx .cfa: $rsp 16 +
STACK CFI 168d8 $rsi: $rsi .cfa: $rsp 8 +
STACK CFI 168e0 $rbx: .cfa -24 + ^ $rsi: .cfa -16 + ^ .cfa: $rsp 1168 +
STACK CFI INIT 169c0 108 .cfa: $rsp 8 + .ra: .cfa -8 + ^
STACK CFI 169c1 $rsi: .cfa -16 + ^ .cfa: $rsp 16 +
STACK CFI 169c2 $rbx: .cfa -24 + ^ .cfa: $rsp 24 +
STACK CFI 169c9 .cfa: $rsp 1184 +
STACK CFI 169ea .cfa: $rsp 24 +
STACK CFI 169eb $rbx: $rbx .cfa: $rsp 16 +
STACK CFI 169ec $rsi: $rsi .cfa: $rsp 8 +
STACK CFI 169f0 $rbx: .cfa -24 + ^ $rsi: .cfa -16 + ^ .cfa: $rsp 1184 +
STACK CFI INIT 16ad0 304 .cfa: $rsp 8 + .ra: .cfa -8 + ^
STACK CFI 16ad2 $r15: .cfa -16 + ^ .cfa: $rsp 16 +
STACK CFI 16ad4 $r14: .cfa -24 + ^ .cfa: $rsp 24 +
STACK CFI 16ad6 $r13: .cfa -32 + ^ .cfa: $rsp 32 +
STACK CFI 16ad8 $r12: .cfa -40 + ^ .cfa: $rsp 40 +
STACK CFI 16ad9 $rbp: .cfa -48 + ^ .cfa: $rsp 48 +
STACK CFI 16ada $rdi: .cfa -56 + ^ .cfa: $rsp 56 +
STACK CFI 16adb $rsi: .cfa -64 + ^ .cfa: $rsp 64 +
STACK CFI 16adc $rbx: .cfa -72 + ^ .cfa: $rsp 72 +
STACK CFI 16ae3 .cfa: $rsp 1216 +
STACK CFI 16c7e .cfa: $rsp 72 +
STACK CFI 16c7f $rbx: $rbx .cfa: $rsp 64 +
STACK CFI 16c80 $rsi: $rsi .cfa: $rsp 56 +
STACK CFI 16c81 $rdi: $rdi .cfa: $rsp 48 +
STACK CFI 16c82 $rbp: $rbp .cfa: $rsp 40 +
STACK CFI 16c84 $r12: $r12 .cfa: $rsp 32 +
STACK CFI 16c86 $r13: $r13 .cfa: $rsp 24 +
STACK CFI 16c88 $r14: $r14 .cfa: $rsp 16 +
STACK CFI 16c8a $r15: $r15 .cfa: $rsp 8 +
STACK CFI 16c90 $r12: .cfa -40 + ^ $r13: .cfa -32 + ^ $r14: .cfa -24 + ^ $r15: .cfa -16 + ^ $rbp: .cfa -48 + ^ $rbx: .cfa -72 + ^ $rdi: .cfa -56 + ^ $rsi: .cfa -64 + ^ .cfa: $rsp 1216 +
STACK CFI INIT 16de0 f2 .cfa: $rsp 8 + .ra: .cfa -8 + ^
STACK CFI 16de1 $rsi: .cfa -16 + ^ .cfa: $rsp 16 +
STACK CFI 16de2 $rbx: .cfa -24 + ^ .cfa: $rsp 24 +
STACK CFI 16de9 .cfa: $rsp 1168 +
STACK CFI 16e06 .cfa: $rsp 24 +
STACK CFI 16e07 $rbx: $rbx .cfa: $rsp 16 +
STACK CFI 16e08 $rsi: $rsi .cfa: $rsp 8 +
STACK CFI 16e10 $rbx: .cfa -24 + ^ $rsi: .cfa -16 + ^ .cfa: $rsp 1168 +
STACK CFI INIT 16ee0 ec .cfa: $rsp 8 + .ra: .cfa -8 + ^
STACK CFI 16ee1 $rsi: .cfa -16 + ^ .cfa: $rsp 16 +
STACK CFI 16ee2 $rbx: .cfa -24 + ^ .cfa: $rsp 24 +
STACK CFI 16ee9 .cfa: $rsp 1184 +
STACK CFI 16f0a .cfa: $rsp 24 +
STACK CFI 16f0b $rbx: $rbx .cfa: $rsp 16 +
STACK CFI 16f0c $rsi: $rsi .cfa: $rsp 8 +
STACK CFI 16f10 $rbx: .cfa -24 + ^ $rsi: .cfa -16 + ^ .cfa: $rsp 1184 +
STACK CFI INIT 16fd0 89 .cfa: $rsp 8 + .ra: .cfa -8 + ^
STACK CFI 16fd1 $rsi: .cfa -16 + ^ .cfa: $rsp 16 +
STACK CFI 16fd2 $rbx: .cfa -24 + ^ .cfa: $rsp 24 +
STACK CFI 16fd6 .cfa: $rsp 80 +
STACK CFI 17006 .cfa: $rsp 24 +
STACK CFI 17007 $rbx: $rbx .cfa: $rsp 16 +
STACK CFI 17008 $rsi: $rsi .cfa: $rsp 8 +
STACK CFI 17010 $rbx: .cfa -24 + ^ $rsi: .cfa -16 + ^ .cfa: $rsp 80 +
STACK CFI 17056 .cfa: $rsp 24 +
STACK CFI 17057 $rbx: $rbx .cfa: $rsp 16 +
STACK CFI 17058 $rsi: $rsi .cfa: $rsp 8 +
STACK CFI INIT 17060 44 .cfa: $rsp 8 + .ra: .cfa -8 + ^
STACK CFI 17061 $rbx: .cfa -16 + ^ .cfa: $rsp 16 +
STACK CFI 17065 .cfa: $rsp 64 +
STACK CFI 170a2 .cfa: $rsp 16 +
STACK CFI 170a3 $rbx: $rbx .cfa: $rsp 8 +
STACK CFI INIT 170b0 799 .cfa: $rsp 8 + .ra: .cfa -8 + ^
STACK CFI 170b2 $r15: .cfa -16 + ^ .cfa: $rsp 16 +
STACK CFI 170b4 $r14: .cfa -24 + ^ .cfa: $rsp 24 +
STACK CFI 170b6 $r13: .cfa -32 + ^ .cfa: $rsp 32 +
STACK CFI 170b8 $r12: .cfa -40 + ^ .cfa: $rsp 40 +
STACK CFI 170b9 $rbp: .cfa -48 + ^ .cfa: $rsp 48 +
STACK CFI 170ba $rdi: .cfa -56 + ^ .cfa: $rsp 56 +
STACK CFI 170bb $rsi: .cfa -64 + ^ .cfa: $rsp 64 +
STACK CFI 170bc $rbx: .cfa -72 + ^ .cfa: $rsp 72 +
STACK CFI 170c3 .cfa: $rsp 2320 +
STACK CFI 1716a .cfa: $rsp 72 +
STACK CFI 1716b $rbx: $rbx .cfa: $rsp 64 +
STACK CFI 1716c $rsi: $rsi .cfa: $rsp 56 +
STACK CFI 1716d $rdi: $rdi .cfa: $rsp 48 +
STACK CFI 1716e $rbp: $rbp .cfa: $rsp 40 +
STACK CFI 17170 $r12: $r12 .cfa: $rsp 32 +
STACK CFI 17172 $r13: $r13 .cfa: $rsp 24 +
STACK CFI 17174 $r14: $r14 .cfa: $rsp 16 +
STACK CFI 17176 $r15: $r15 .cfa: $rsp 8 +
STACK CFI 17180 $r12: .cfa -40 + ^ $r13: .cfa -32 + ^ $r14: .cfa -24 + ^ $r15: .cfa -16 + ^ $rbp: .cfa -48 + ^ $rbx: .cfa -72 + ^ $rdi: .cfa -56 + ^ $rsi: .cfa -64 + ^ .cfa: $rsp 2320 +
STACK CFI INIT 17850 a5 .cfa: $rsp 8 + .ra: .cfa -8 + ^
STACK CFI 17851 $rdi: .cfa -16 + ^ .cfa: $rsp 16 +
STACK CFI 17852 $rsi: .cfa -24 + ^ .cfa: $rsp 24 +
STACK CFI 17853 $rbx: .cfa -32 + ^ .cfa: $rsp 32 +
STACK CFI 1785a .cfa: $rsp 1152 +
STACK CFI 178d7 .cfa: $rsp 32 +
STACK CFI 178d8 $rbx: $rbx .cfa: $rsp 24 +
STACK CFI 178d9 $rsi: $rsi .cfa: $rsp 16 +
STACK CFI 178da $rdi: $rdi .cfa: $rsp 8 +
STACK CFI 178e0 $rbx: .cfa -32 + ^ $rdi: .cfa -16 + ^ $rsi: .cfa -24 + ^ .cfa: $rsp 1152 +
STACK CFI 178f1 .cfa: $rsp 32 +
STACK CFI 178f2 $rbx: $rbx .cfa: $rsp 24 +
STACK CFI 178f3 $rsi: $rsi .cfa: $rsp 16 +
STACK CFI 178f4 $rdi: $rdi .cfa: $rsp 8 +
STACK CFI INIT 17900 4f5 .cfa: $rsp 8 + .ra: .cfa -8 + ^
STACK CFI 17902 $r15: .cfa -16 + ^ .cfa: $rsp 16 +
STACK CFI 17904 $r14: .cfa -24 + ^ .cfa: $rsp 24 +
STACK CFI 17906 $r13: .cfa -32 + ^ .cfa: $rsp 32 +
STACK CFI 17908 $r12: .cfa -40 + ^ .cfa: $rsp 40 +
STACK CFI 17909 $rbp: .cfa -48 + ^ .cfa: $rsp 48 +
STACK CFI 1790a $rdi: .cfa -56 + ^ .cfa: $rsp 56 +
STACK CFI 1790b $rsi: .cfa -64 + ^ .cfa: $rsp 64 +
STACK CFI 1790c $rbx: .cfa -72 + ^ .cfa: $rsp 72 +
STACK CFI 17913 .cfa: $rsp 2304 +
STACK CFI 1796d .cfa: $rsp 72 +
STACK CFI 1796e $rbx: $rbx .cfa: $rsp 64 +
STACK CFI 1796f $rsi: $rsi .cfa: $rsp 56 +
STACK CFI 17970 $rdi: $rdi .cfa: $rsp 48 +
STACK CFI 17971 $rbp: $rbp .cfa: $rsp 40 +
STACK CFI 17973 $r12: $r12 .cfa: $rsp 32 +
STACK CFI 17975 $r13: $r13 .cfa: $rsp 24 +
STACK CFI 17977 $r14: $r14 .cfa: $rsp 16 +
STACK CFI 17979 $r15: $r15 .cfa: $rsp 8 +
STACK CFI 17980 $r12: .cfa -40 + ^ $r13: .cfa -32 + ^ $r14: .cfa -24 + ^ $r15: .cfa -16 + ^ $rbp: .cfa -48 + ^ $rbx: .cfa -72 + ^ $rdi: .cfa -56 + ^ $rsi: .cfa -64 + ^ .cfa: $rsp 2304 +
STACK CFI INIT 17e00 15 .cfa: $rsp 8 + .ra: .cfa -8 + ^
STACK CFI INIT 17e20 132 .cfa: $rsp 8 + .ra: .cfa -8 + ^
STACK CFI 17e21 $rdi: .cfa -16 + ^ .cfa: $rsp 16 +
STACK CFI 17e22 $rsi: .cfa -24 + ^ .cfa: $rsp 24 +
STACK CFI 17e23 $rbx: .cfa -32 + ^ .cfa: $rsp 32 +
STACK CFI 17e2a .cfa: $rsp 1328 +
STACK CFI 17f0c .cfa: $rsp 32 +
STACK CFI 17f0d $rbx: $rbx .cfa: $rsp 24 +
STACK CFI 17f0e $rsi: $rsi .cfa: $rsp 16 +
STACK CFI 17f0f $rdi: $rdi .cfa: $rsp 8 +
STACK CFI 17f10 $rbx: .cfa -32 + ^ $rdi: .cfa -16 + ^ $rsi: .cfa -24 + ^ .cfa: $rsp 1328 +
STACK CFI 17f2f .cfa: $rsp 32 +
STACK CFI 17f30 $rbx: $rbx .cfa: $rsp 24 +
STACK CFI 17f31 $rsi: $rsi .cfa: $rsp 16 +
STACK CFI 17f32 $rdi: $rdi .cfa: $rsp 8 +
STACK CFI 17f33 $rbx: .cfa -32 + ^ $rdi: .cfa -16 + ^ $rsi: .cfa -24 + ^ .cfa: $rsp 1328 +
STACK CFI 17f4e .cfa: $rsp 32 +
STACK CFI 17f4f $rbx: $rbx .cfa: $rsp 24 +
STACK CFI 17f50 $rsi: $rsi .cfa: $rsp 16 +
STACK CFI 17f51 $rdi: $rdi .cfa: $rsp 8 +
STACK CFI INIT 17f60 8e .cfa: $rsp 8 + .ra: .cfa -8 + ^
STACK CFI 17f62 $r12: .cfa -16 + ^ .cfa: $rsp 16 +
STACK CFI 17f63 $rbp: .cfa -24 + ^ .cfa: $rsp 24 +
STACK CFI 17f64 $rdi: .cfa -32 + ^ .cfa: $rsp 32 +
STACK CFI 17f65 $rsi: .cfa -40 + ^ .cfa: $rsp 40 +
STACK CFI 17f66 $rbx: .cfa -48 + ^ .cfa: $rsp 48 +
STACK CFI 17f6a .cfa: $rsp 80 +
STACK CFI 17fcc .cfa: $rsp 48 +
STACK CFI 17fcd $rbx: $rbx .cfa: $rsp 40 +
STACK CFI 17fce $rsi: $rsi .cfa: $rsp 32 +
STACK CFI 17fcf $rdi: $rdi .cfa: $rsp 24 +
STACK CFI 17fd0 $rbp: $rbp .cfa: $rsp 16 +
STACK CFI 17fd2 $r12: $r12 .cfa: $rsp 8 +
STACK CFI 17fd3 $r12: .cfa -16 + ^ $rbp: .cfa -24 + ^ $rbx: .cfa -48 + ^ $rdi: .cfa -32 + ^ $rsi: .cfa -40 + ^ .cfa: $rsp 80 +
STACK CFI 17fe7 .cfa: $rsp 48 +
STACK CFI 17fe8 $rbx: $rbx .cfa: $rsp 40 +
STACK CFI 17fe9 $rsi: $rsi .cfa: $rsp 32 +
STACK CFI 17fea $rdi: $rdi .cfa: $rsp 24 +
STACK CFI 17feb $rbp: $rbp .cfa: $rsp 16 +
STACK CFI 17fed $r12: $r12 .cfa: $rsp 8 +
STACK CFI INIT 184970 20 .cfa: $rsp 8 + .ra: .cfa -8 + ^
STACK CFI 184974 .cfa: $rsp 48 +
STACK CFI 18498b .cfa: $rsp 8 +
STACK CFI INIT 17ff0 32 .cfa: $rsp 8 + .ra: .cfa -8 + ^
STACK CFI 17ff1 $rsi: .cfa -16 + ^ .cfa: $rsp 16 +
STACK CFI 17ff2 $rbx: .cfa -24 + ^ .cfa: $rsp 24 +
STACK CFI 17ff6 .cfa: $rsp 64 +
STACK CFI 1801f .cfa: $rsp 24 +
STACK CFI 18020 $rbx: $rbx .cfa: $rsp 16 +
STACK CFI 18021 $rsi: $rsi .cfa: $rsp 8 +
STACK CFI INIT 18030 c .cfa: $rsp 8 + .ra: .cfa -8 + ^
STACK CFI INIT 18040 c .cfa: $rsp 8 + .ra: .cfa -8 + ^
STACK CFI INIT 18050 c .cfa: $rsp 8 + .ra: .cfa -8 + ^
STACK CFI INIT 18060 62 .cfa: $rsp 8 + .ra: .cfa -8 + ^
STACK CFI 18061 $rbx: .cfa -16 + ^ .cfa: $rsp 16 +
STACK CFI 18065 .cfa: $rsp 48 +
STACK CFI 18094 .cfa: $rsp 16 +
STACK CFI 18095 $rbx: $rbx .cfa: $rsp 8 +
STACK CFI 180a0 $rbx: .cfa -16 + ^ .cfa: $rsp 48 +
STACK CFI 180be .cfa: $rsp 16 +
STACK CFI 180bf $rbx: $rbx .cfa: $rsp 8 +
STACK CFI INIT 180d0 94 .cfa: $rsp 8 + .ra: .cfa -8 + ^
STACK CFI 180d1 $rdi: .cfa -16 + ^ .cfa: $rsp 16 +
STACK CFI 180d2 $rsi: .cfa -24 + ^ .cfa: $rsp 24 +
STACK CFI 180d3 $rbx: .cfa -32 + ^ .cfa: $rsp 32 +
STACK CFI 180d7 .cfa: $rsp 80 +
STACK CFI 1811d .cfa: $rsp 32 +
STACK CFI 1811e $rbx: $rbx .cfa: $rsp 24 +
STACK CFI 1811f $rsi: $rsi .cfa: $rsp 16 +
STACK CFI 18120 $rdi: $rdi .cfa: $rsp 8 +
STACK CFI 18121 $rbx: .cfa -32 + ^ $rdi: .cfa -16 + ^ $rsi: .cfa -24 + ^ .cfa: $rsp 80 +
STACK CFI INIT 184990 3e .cfa: $rsp 8 + .ra: .cfa -8 + ^
STACK CFI 184991 $rbx: .cfa -16 + ^ .cfa: $rsp 16 +
STACK CFI 184995 .cfa: $rsp 64 +
STACK CFI 1849c8 .cfa: $rsp 16 +
STACK CFI 1849c9 $rbx: $rbx .cfa: $rsp 8 +
STACK CFI INIT 18170 165 .cfa: $rsp 8 + .ra: .cfa -8 + ^
STACK CFI 18171 $rdi: .cfa -16 + ^ .cfa: $rsp 16 +
STACK CFI 18172 $rsi: .cfa -24 + ^ .cfa: $rsp 24 +
STACK CFI 18173 $rbx: .cfa -32 + ^ .cfa: $rsp 32 +
STACK CFI 18177 .cfa: $rsp 128 +
STACK CFI 1827e .cfa: $rsp 32 +
STACK CFI 1827f $rbx: $rbx .cfa: $rsp 24 +
STACK CFI 18280 $rsi: $rsi .cfa: $rsp 16 +
STACK CFI 18281 $rdi: $rdi .cfa: $rsp 8 +
STACK CFI 18282 $rbx: .cfa -32 + ^ $rdi: .cfa -16 + ^ $rsi: .cfa -24 + ^ .cfa: $rsp 128 +
STACK CFI 18288 .cfa: $rsp 32 +
STACK CFI 18289 $rbx: $rbx .cfa: $rsp 24 +
STACK CFI 1828a $rsi: $rsi .cfa: $rsp 16 +
STACK CFI 1828b $rdi: $rdi .cfa: $rsp 8 +
STACK CFI 18290 $rbx: .cfa -32 + ^ $rdi: .cfa -16 + ^ $rsi: .cfa -24 + ^ .cfa: $rsp 128 +
STACK CFI INIT 182e0 1d8 .cfa: $rsp 8 + .ra: .cfa -8 + ^
STACK CFI 182e1 $rbp: .cfa -16 + ^ .cfa: $rsp 16 +
STACK CFI 182e2 $rdi: .cfa -24 + ^ .cfa: $rsp 24 +
STACK CFI 182e3 $rsi: .cfa -32 + ^ .cfa: $rsp 32 +
STACK CFI 182e4 $rbx: .cfa -40 + ^ .cfa: $rsp 40 +
STACK CFI 182eb .cfa: $rsp 176 +
STACK CFI 18445 .cfa: $rsp 40 +
STACK CFI 18446 $rbx: $rbx .cfa: $rsp 32 +
STACK CFI 18447 $rsi: $rsi .cfa: $rsp 24 +
STACK CFI 18448 $rdi: $rdi .cfa: $rsp 16 +
STACK CFI 18449 $rbp: $rbp .cfa: $rsp 8 +
STACK CFI 18450 $rbp: .cfa -16 + ^ $rbx: .cfa -40 + ^ $rdi: .cfa -24 + ^ $rsi: .cfa -32 + ^ .cfa: $rsp 176 +
STACK CFI INIT 184c0 1f8 .cfa: $rsp 8 + .ra: .cfa -8 + ^
STACK CFI 184c2 $r12: .cfa -16 + ^ .cfa: $rsp 16 +
STACK CFI 184c3 $rbp: .cfa -24 + ^ .cfa: $rsp 24 +
STACK CFI 184c4 $rdi: .cfa -32 + ^ .cfa: $rsp 32 +
STACK CFI 184c5 $rsi: .cfa -40 + ^ .cfa: $rsp 40 +
STACK CFI 184c6 $rbx: .cfa -48 + ^ .cfa: $rsp 48 +
STACK CFI 184cd .cfa: $rsp 192 +
STACK CFI 184f1 .cfa: $rsp 48 +
STACK CFI 184f2 $rbx: $rbx .cfa: $rsp 40 +
STACK CFI 184f3 $rsi: $rsi .cfa: $rsp 32 +
STACK CFI 184f4 $rdi: $rdi .cfa: $rsp 24 +
STACK CFI 184f5 $rbp: $rbp .cfa: $rsp 16 +
STACK CFI 184f7 $r12: $r12 .cfa: $rsp 8 +
STACK CFI 18500 $r12: .cfa -16 + ^ $rbp: .cfa -24 + ^ $rbx: .cfa -48 + ^ $rdi: .cfa -32 + ^ $rsi: .cfa -40 + ^ .cfa: $rsp 192 +
STACK CFI 18645 .cfa: $rsp 48 +
STACK CFI 18646 $rbx: $rbx .cfa: $rsp 40 +
STACK CFI 18647 $rsi: $rsi .cfa: $rsp 32 +
STACK CFI 18648 $rdi: $rdi .cfa: $rsp 24 +
STACK CFI 18649 $rbp: $rbp .cfa: $rsp 16 +
STACK CFI 1864b $r12: $r12 .cfa: $rsp 8 +
STACK CFI 18650 $r12: .cfa -16 + ^ $rbp: .cfa -24 + ^ $rbx: .cfa -48 + ^ $rdi: .cfa -32 + ^ $rsi: .cfa -40 + ^ .cfa: $rsp 192 +
STACK CFI INIT 186c0 c .cfa: $rsp 8 + .ra: .cfa -8 + ^
STACK CFI INIT 186d0 c .cfa: $rsp 8 + .ra: .cfa -8 + ^
STACK CFI INIT 186e0 c .cfa: $rsp 8 + .ra: .cfa -8 + ^
STACK CFI INIT 186f0 c .cfa: $rsp 8 + .ra: .cfa -8 + ^
STACK CFI INIT 18700 c .cfa: $rsp 8 + .ra: .cfa -8 + ^
STACK CFI INIT 18710 c .cfa: $rsp 8 + .ra: .cfa -8 + ^
STACK CFI INIT 18720 3d .cfa: $rsp 8 + .ra: .cfa -8 + ^
STACK CFI 18724 .cfa: $rsp 80 +
STACK CFI 1875c .cfa: $rsp 8 +
STACK CFI INIT 18760 4b .cfa: $rsp 8 + .ra: .cfa -8 + ^
STACK CFI 18764 .cfa: $rsp 80 +
STACK CFI 187aa .cfa: $rsp 8 +
STACK CFI INIT 187b0 40 .cfa: $rsp 8 + .ra: .cfa -8 + ^
STACK CFI 187b1 $rbx: .cfa -16 + ^ .cfa: $rsp 16 +
STACK CFI 187b5 .cfa: $rsp 64 +
STACK CFI 187ee .cfa: $rsp 16 +
STACK CFI 187ef $rbx: $rbx .cfa: $rsp 8 +
STACK CFI INIT 187f0 325 .cfa: $rsp 8 + .ra: .cfa -8 + ^
STACK CFI 187f2 $r13: .cfa -16 + ^ .cfa: $rsp 16 +
STACK CFI 187f4 $r12: .cfa -24 + ^ .cfa: $rsp 24 +
STACK CFI 187f5 $rbp: .cfa -32 + ^ .cfa: $rsp 32 +
STACK CFI 187f6 $rdi: .cfa -40 + ^ .cfa: $rsp 40 +
STACK CFI 187f7 $rsi: .cfa -48 + ^ .cfa: $rsp 48 +
STACK CFI 187f8 $rbx: .cfa -56 + ^ .cfa: $rsp 56 +
STACK CFI 187ff .cfa: $rsp 256 +
STACK CFI 18a6a .cfa: $rsp 56 +
STACK CFI 18a6b $rbx: $rbx .cfa: $rsp 48 +
STACK CFI 18a6c $rsi: $rsi .cfa: $rsp 40 +
STACK CFI 18a6d $rdi: $rdi .cfa: $rsp 32 +
STACK CFI 18a6e $rbp: $rbp .cfa: $rsp 24 +
STACK CFI 18a70 $r12: $r12 .cfa: $rsp 16 +
STACK CFI 18a72 $r13: $r13 .cfa: $rsp 8 +
STACK CFI 18a73 $r12: .cfa -24 + ^ $r13: .cfa -16 + ^ $rbp: .cfa -32 + ^ $rbx: .cfa -56 + ^ $rdi: .cfa -40 + ^ $rsi: .cfa -48 + ^ .cfa: $rsp 256 +
STACK CFI INIT 18b20 10 .cfa: $rsp 8 + .ra: .cfa -8 + ^
STACK CFI INIT 18b30 a7 .cfa: $rsp 8 + .ra: .cfa -8 + ^
STACK CFI 18b31 $rbx: .cfa -16 + ^ .cfa: $rsp 16 +
STACK CFI 18b35 .cfa: $rsp 64 +
STACK CFI 18b4f .cfa: $rsp 16 +
STACK CFI 18b50 $rbx: $rbx .cfa: $rsp 8 +
STACK CFI 18b51 $rbx: .cfa -16 + ^ .cfa: $rsp 64 +
STACK CFI 18ba2 .cfa: $rsp 16 +
STACK CFI 18ba3 $rbx: $rbx .cfa: $rsp 8 +
STACK CFI 18ba4 $rbx: .cfa -16 + ^ .cfa: $rsp 64 +
STACK CFI INIT 18be0 4aa .cfa: $rsp 8 + .ra: .cfa -8 + ^
STACK CFI 18be2 $r15: .cfa -16 + ^ .cfa: $rsp 16 +
STACK CFI 18be4 $r14: .cfa -24 + ^ .cfa: $rsp 24 +
STACK CFI 18be6 $r13: .cfa -32 + ^ .cfa: $rsp 32 +
STACK CFI 18be8 $r12: .cfa -40 + ^ .cfa: $rsp 40 +
STACK CFI 18be9 $rbp: .cfa -48 + ^ .cfa: $rsp 48 +
STACK CFI 18bea $rdi: .cfa -56 + ^ .cfa: $rsp 56 +
STACK CFI 18beb $rsi: .cfa -64 + ^ .cfa: $rsp 64 +
STACK CFI 18bec $rbx: .cfa -72 + ^ .cfa: $rsp 72 +
STACK CFI 18bf3 .cfa: $rsp 2288 +
STACK CFI 1901f .cfa: $rsp 72 +
STACK CFI 19020 $rbx: $rbx .cfa: $rsp 64 +
STACK CFI 19021 $rsi: $rsi .cfa: $rsp 56 +
STACK CFI 19022 $rdi: $rdi .cfa: $rsp 48 +
STACK CFI 19023 $rbp: $rbp .cfa: $rsp 40 +
STACK CFI 19025 $r12: $r12 .cfa: $rsp 32 +
STACK CFI 19027 $r13: $r13 .cfa: $rsp 24 +
STACK CFI 19029 $r14: $r14 .cfa: $rsp 16 +
STACK CFI 1902b $r15: $r15 .cfa: $rsp 8 +
STACK CFI 19030 $r12: .cfa -40 + ^ $r13: .cfa -32 + ^ $r14: .cfa -24 + ^ $r15: .cfa -16 + ^ $rbp: .cfa -48 + ^ $rbx: .cfa -72 + ^ $rdi: .cfa -56 + ^ $rsi: .cfa -64 + ^ .cfa: $rsp 2288 +
STACK CFI INIT 1849d0 1a7 .cfa: $rsp 8 + .ra: .cfa -8 + ^
STACK CFI 1849d1 $rsi: .cfa -16 + ^ .cfa: $rsp 16 +
STACK CFI 1849d2 $rbx: .cfa -24 + ^ .cfa: $rsp 24 +
STACK CFI 1849d6 .cfa: $rsp 112 +
STACK CFI 184b52 .cfa: $rsp 24 +
STACK CFI 184b53 $rbx: $rbx .cfa: $rsp 16 +
STACK CFI 184b54 $rsi: $rsi .cfa: $rsp 8 +
STACK CFI 184b55 $rbx: .cfa -24 + ^ $rsi: .cfa -16 + ^ .cfa: $rsp 112 +
STACK CFI INIT 19090 c .cfa: $rsp 8 + .ra: .cfa -8 + ^
STACK CFI INIT 190a0 f .cfa: $rsp 8 + .ra: .cfa -8 + ^
STACK CFI INIT 190b0 1d .cfa: $rsp 8 + .ra: .cfa -8 + ^
STACK CFI INIT 190d0 1d .cfa: $rsp 8 + .ra: .cfa -8 + ^
STACK CFI INIT 190f0 f .cfa: $rsp 8 + .ra: .cfa -8 + ^
STACK CFI INIT 19100 1d .cfa: $rsp 8 + .ra: .cfa -8 + ^
STACK CFI INIT 19120 1d .cfa: $rsp 8 + .ra: .cfa -8 + ^
STACK CFI INIT 19140 23 .cfa: $rsp 8 + .ra: .cfa -8 + ^
STACK CFI INIT 19170 4f .cfa: $rsp 8 + .ra: .cfa -8 + ^
STACK CFI INIT 191c0 b5 .cfa: $rsp 8 + .ra: .cfa -8 + ^
STACK CFI 191c4 .cfa: $rsp 80 +
STACK CFI 19274 .cfa: $rsp 8 +
STACK CFI INIT 19280 2a .cfa: $rsp 8 + .ra: .cfa -8 + ^
STACK CFI INIT 192b0 52 .cfa: $rsp 8 + .ra: .cfa -8 + ^
STACK CFI INIT 184b80 20 .cfa: $rsp 8 + .ra: .cfa -8 + ^
STACK CFI 184b84 .cfa: $rsp 48 +
STACK CFI 184b9b .cfa: $rsp 8 +
STACK CFI INIT 19310 1 .cfa: $rsp 8 + .ra: .cfa -8 + ^
STACK CFI INIT 19320 c .cfa: $rsp 8 + .ra: .cfa -8 + ^
STACK CFI INIT 19330 94 .cfa: $rsp 8 + .ra: .cfa -8 + ^
STACK CFI 19331 $rdi: .cfa -16 + ^ .cfa: $rsp 16 +
STACK CFI 19332 $rsi: .cfa -24 + ^ .cfa: $rsp 24 +
STACK CFI 19333 $rbx: .cfa -32 + ^ .cfa: $rsp 32 +
STACK CFI 19337 .cfa: $rsp 80 +
STACK CFI 1937d .cfa: $rsp 32 +
STACK CFI 1937e $rbx: $rbx .cfa: $rsp 24 +
STACK CFI 1937f $rsi: $rsi .cfa: $rsp 16 +
STACK CFI 19380 $rdi: $rdi .cfa: $rsp 8 +
STACK CFI 19381 $rbx: .cfa -32 + ^ $rdi: .cfa -16 + ^ $rsi: .cfa -24 + ^ .cfa: $rsp 80 +
STACK CFI INIT 193d0 1 .cfa: $rsp 8 + .ra: .cfa -8 + ^
STACK CFI INIT 193e0 1 .cfa: $rsp 8 + .ra: .cfa -8 + ^
STACK CFI INIT 193f0 1c6 .cfa: $rsp 8 + .ra: .cfa -8 + ^
STACK CFI 193f2 $r14: .cfa -16 + ^ .cfa: $rsp 16 +
STACK CFI 193f4 $r13: .cfa -24 + ^ .cfa: $rsp 24 +
STACK CFI 193f6 $r12: .cfa -32 + ^ .cfa: $rsp 32 +
STACK CFI 193f7 $rbp: .cfa -40 + ^ .cfa: $rsp 40 +
STACK CFI 193f8 $rdi: .cfa -48 + ^ .cfa: $rsp 48 +
STACK CFI 193f9 $rsi: .cfa -56 + ^ .cfa: $rsp 56 +
STACK CFI 193fa $rbx: .cfa -64 + ^ .cfa: $rsp 64 +
STACK CFI 19401 .cfa: $rsp 256 +
STACK CFI 1945e .cfa: $rsp 64 +
STACK CFI 1945f $rbx: $rbx .cfa: $rsp 56 +
STACK CFI 19460 $rsi: $rsi .cfa: $rsp 48 +
STACK CFI 19461 $rdi: $rdi .cfa: $rsp 40 +
STACK CFI 19462 $rbp: $rbp .cfa: $rsp 32 +
STACK CFI 19464 $r12: $r12 .cfa: $rsp 24 +
STACK CFI 19466 $r13: $r13 .cfa: $rsp 16 +
STACK CFI 19468 $r14: $r14 .cfa: $rsp 8 +
STACK CFI 19470 $r12: .cfa -32 + ^ $r13: .cfa -24 + ^ $r14: .cfa -16 + ^ $rbp: .cfa -40 + ^ $rbx: .cfa -64 + ^ $rdi: .cfa -48 + ^ $rsi: .cfa -56 + ^ .cfa: $rsp 256 +
STACK CFI INIT 195c0 14c .cfa: $rsp 8 + .ra: .cfa -8 + ^
STACK CFI 195c1 $rbp: .cfa -16 + ^ .cfa: $rsp 16 +
STACK CFI 195c2 $rdi: .cfa -24 + ^ .cfa: $rsp 24 +
STACK CFI 195c3 $rsi: .cfa -32 + ^ .cfa: $rsp 32 +
STACK CFI 195c4 $rbx: .cfa -40 + ^ .cfa: $rsp 40 +
STACK CFI 195cb .cfa: $rsp 240 +
STACK CFI 1963b .cfa: $rsp 40 +
STACK CFI 1963c $rbx: $rbx .cfa: $rsp 32 +
STACK CFI 1963d $rsi: $rsi .cfa: $rsp 24 +
STACK CFI 1963e $rdi: $rdi .cfa: $rsp 16 +
STACK CFI 1963f $rbp: $rbp .cfa: $rsp 8 +
STACK CFI 19640 $rbp: .cfa -16 + ^ $rbx: .cfa -40 + ^ $rdi: .cfa -24 + ^ $rsi: .cfa -32 + ^ .cfa: $rsp 240 +
STACK CFI 19707 .cfa: $rsp 40 +
STACK CFI 19708 $rbx: $rbx .cfa: $rsp 32 +
STACK CFI 19709 $rsi: $rsi .cfa: $rsp 24 +
STACK CFI 1970a $rdi: $rdi .cfa: $rsp 16 +
STACK CFI 1970b $rbp: $rbp .cfa: $rsp 8 +
STACK CFI INIT 19710 f0 .cfa: $rsp 8 + .ra: .cfa -8 + ^
STACK CFI 19711 $rsi: .cfa -16 + ^ .cfa: $rsp 16 +
STACK CFI 19712 $rbx: .cfa -24 + ^ .cfa: $rsp 24 +
STACK CFI 19716 .cfa: $rsp 64 +
STACK CFI 197fd .cfa: $rsp 24 +
STACK CFI 197fe $rbx: $rbx .cfa: $rsp 16 +
STACK CFI 197ff $rsi: $rsi .cfa: $rsp 8 +
STACK CFI INIT 19800 507 .cfa: $rsp 8 + .ra: .cfa -8 + ^
STACK CFI 19802 $r13: .cfa -16 + ^ .cfa: $rsp 16 +
STACK CFI 19804 $r12: .cfa -24 + ^ .cfa: $rsp 24 +
STACK CFI 19805 $rbp: .cfa -32 + ^ .cfa: $rsp 32 +
STACK CFI 19806 $rdi: .cfa -40 + ^ .cfa: $rsp 40 +
STACK CFI 19807 $rsi: .cfa -48 + ^ .cfa: $rsp 48 +
STACK CFI 19808 $rbx: .cfa -56 + ^ .cfa: $rsp 56 +
STACK CFI 1980f .cfa: $rsp 1392 +
STACK CFI 19944 .cfa: $rsp 56 +
STACK CFI 19945 $rbx: $rbx .cfa: $rsp 48 +
STACK CFI 19946 $rsi: $rsi .cfa: $rsp 40 +
STACK CFI 19947 $rdi: $rdi .cfa: $rsp 32 +
STACK CFI 19948 $rbp: $rbp .cfa: $rsp 24 +
STACK CFI 1994a $r12: $r12 .cfa: $rsp 16 +
STACK CFI 1994c $r13: $r13 .cfa: $rsp 8 +
STACK CFI 19950 $r12: .cfa -24 + ^ $r13: .cfa -16 + ^ $rbp: .cfa -32 + ^ $rbx: .cfa -56 + ^ $rdi: .cfa -40 + ^ $rsi: .cfa -48 + ^ .cfa: $rsp 1392 +
STACK CFI 1997d .cfa: $rsp 56 +
STACK CFI 1997e $rbx: $rbx .cfa: $rsp 48 +
STACK CFI 1997f $rsi: $rsi .cfa: $rsp 40 +
STACK CFI 19980 $rdi: $rdi .cfa: $rsp 32 +
STACK CFI 19981 $rbp: $rbp .cfa: $rsp 24 +
STACK CFI 19983 $r12: $r12 .cfa: $rsp 16 +
STACK CFI 19985 $r13: $r13 .cfa: $rsp 8 +
STACK CFI 19990 $r12: .cfa -24 + ^ $r13: .cfa -16 + ^ $rbp: .cfa -32 + ^ $rbx: .cfa -56 + ^ $rdi: .cfa -40 + ^ $rsi: .cfa -48 + ^ .cfa: $rsp 1392 +
STACK CFI 199bd .cfa: $rsp 56 +
STACK CFI 199be $rbx: $rbx .cfa: $rsp 48 +
STACK CFI 199bf $rsi: $rsi .cfa: $rsp 40 +
STACK CFI 199c0 $rdi: $rdi .cfa: $rsp 32 +
STACK CFI 199c1 $rbp: $rbp .cfa: $rsp 24 +
STACK CFI 199c3 $r12: $r12 .cfa: $rsp 16 +
STACK CFI 199c5 $r13: $r13 .cfa: $rsp 8 +
STACK CFI 199d0 $r12: .cfa -24 + ^ $r13: .cfa -16 + ^ $rbp: .cfa -32 + ^ $rbx: .cfa -56 + ^ $rdi: .cfa -40 + ^ $rsi: .cfa -48 + ^ .cfa: $rsp 1392 +
STACK CFI 19a06 .cfa: $rsp 56 +
STACK CFI 19a07 $rbx: $rbx .cfa: $rsp 48 +
STACK CFI 19a08 $rsi: $rsi .cfa: $rsp 40 +
STACK CFI 19a09 $rdi: $rdi .cfa: $rsp 32 +
STACK CFI 19a0a $rbp: $rbp .cfa: $rsp 24 +
STACK CFI 19a0c $r12: $r12 .cfa: $rsp 16 +
STACK CFI 19a0e $r13: $r13 .cfa: $rsp 8 +
STACK CFI 19a10 $r12: .cfa -24 + ^ $r13: .cfa -16 + ^ $rbp: .cfa -32 + ^ $rbx: .cfa -56 + ^ $rdi: .cfa -40 + ^ $rsi: .cfa -48 + ^ .cfa: $rsp 1392 +
STACK CFI INIT 19d10 25a .cfa: $rsp 8 + .ra: .cfa -8 + ^
STACK CFI 19d12 $r15: .cfa -16 + ^ .cfa: $rsp 16 +
STACK CFI 19d14 $r14: .cfa -24 + ^ .cfa: $rsp 24 +
STACK CFI 19d16 $r13: .cfa -32 + ^ .cfa: $rsp 32 +
STACK CFI 19d18 $r12: .cfa -40 + ^ .cfa: $rsp 40 +
STACK CFI 19d19 $rbp: .cfa -48 + ^ .cfa: $rsp 48 +
STACK CFI 19d1a $rdi: .cfa -56 + ^ .cfa: $rsp 56 +
STACK CFI 19d1b $rsi: .cfa -64 + ^ .cfa: $rsp 64 +
STACK CFI 19d1c $rbx: .cfa -72 + ^ .cfa: $rsp 72 +
STACK CFI 19d20 .cfa: $rsp 144 +
STACK CFI 19dfb .cfa: $rsp 72 +
STACK CFI 19dfc $rbx: $rbx .cfa: $rsp 64 +
STACK CFI 19dfd $rsi: $rsi .cfa: $rsp 56 +
STACK CFI 19dfe $rdi: $rdi .cfa: $rsp 48 +
STACK CFI 19dff $rbp: $rbp .cfa: $rsp 40 +
STACK CFI 19e01 $r12: $r12 .cfa: $rsp 32 +
STACK CFI 19e03 $r13: $r13 .cfa: $rsp 24 +
STACK CFI 19e05 $r14: $r14 .cfa: $rsp 16 +
STACK CFI 19e07 $r15: $r15 .cfa: $rsp 8 +
STACK CFI 19e10 $r12: .cfa -40 + ^ $r13: .cfa -32 + ^ $r14: .cfa -24 + ^ $r15: .cfa -16 + ^ $rbp: .cfa -48 + ^ $rbx: .cfa -72 + ^ $rdi: .cfa -56 + ^ $rsi: .cfa -64 + ^ .cfa: $rsp 144 +
STACK CFI INIT 184ba0 c2 .cfa: $rsp 8 + .ra: .cfa -8 + ^
STACK CFI 184ba1 $rdi: .cfa -16 + ^ .cfa: $rsp 16 +
STACK CFI 184ba2 $rsi: .cfa -24 + ^ .cfa: $rsp 24 +
STACK CFI 184ba3 $rbx: .cfa -32 + ^ .cfa: $rsp 32 +
STACK CFI 184ba7 .cfa: $rsp 64 +
STACK CFI 184c5a .cfa: $rsp 32 +
STACK CFI 184c5b $rbx: $rbx .cfa: $rsp 24 +
STACK CFI 184c5c $rsi: $rsi .cfa: $rsp 16 +
STACK CFI 184c5d $rdi: $rdi .cfa: $rsp 8 +
STACK CFI INIT 19f70 c .cfa: $rsp 8 + .ra: .cfa -8 + ^
STACK CFI INIT 19f80 14e .cfa: $rsp 8 + .ra: .cfa -8 + ^
STACK CFI 19f81 $rbx: .cfa -16 + ^ .cfa: $rsp 16 +
STACK CFI 19f85 .cfa: $rsp 96 +
STACK CFI 19f8a $xmm6: .cfa -32 + ^
STACK CFI 1a0b6 $xmm6: $xmm6 .cfa: $rsp 16 +
STACK CFI 1a0b7 $rbx: $rbx .cfa: $rsp 8 +
STACK CFI 1a0c0 $rbx: .cfa -16 + ^ $xmm6: .cfa -32 + ^ .cfa: $rsp 96 +
STACK CFI INIT 1a0d0 6b .cfa: $rsp 8 + .ra: .cfa -8 + ^
STACK CFI 1a0d1 $rsi: .cfa -16 + ^ .cfa: $rsp 16 +
STACK CFI 1a0d2 $rbx: .cfa -24 + ^ .cfa: $rsp 24 +
STACK CFI 1a0d6 .cfa: $rsp 80 +
STACK CFI 1a138 .cfa: $rsp 24 +
STACK CFI 1a139 $rbx: $rbx .cfa: $rsp 16 +
STACK CFI 1a13a $rsi: $rsi .cfa: $rsp 8 +
STACK CFI INIT 1a140 65 .cfa: $rsp 8 + .ra: .cfa -8 + ^
STACK CFI 1a141 $rdi: .cfa -16 + ^ .cfa: $rsp 16 +
STACK CFI 1a142 $rsi: .cfa -24 + ^ .cfa: $rsp 24 +
STACK CFI 1a143 $rbx: .cfa -32 + ^ .cfa: $rsp 32 +
STACK CFI 1a147 .cfa: $rsp 112 +
STACK CFI 1a1a1 .cfa: $rsp 32 +
STACK CFI 1a1a2 $rbx: $rbx .cfa: $rsp 24 +
STACK CFI 1a1a3 $rsi: $rsi .cfa: $rsp 16 +
STACK CFI 1a1a4 $rdi: $rdi .cfa: $rsp 8 +
STACK CFI INIT 1a1b0 c9 .cfa: $rsp 8 + .ra: .cfa -8 + ^
STACK CFI 1a1b2 $r13: .cfa -16 + ^ .cfa: $rsp 16 +
STACK CFI 1a1b4 $r12: .cfa -24 + ^ .cfa: $rsp 24 +
STACK CFI 1a1b5 $rbp: .cfa -32 + ^ .cfa: $rsp 32 +
STACK CFI 1a1b6 $rdi: .cfa -40 + ^ .cfa: $rsp 40 +
STACK CFI 1a1b7 $rsi: .cfa -48 + ^ .cfa: $rsp 48 +
STACK CFI 1a1b8 $rbx: .cfa -56 + ^ .cfa: $rsp 56 +
STACK CFI 1a1bc .cfa: $rsp 144 +
STACK CFI 1a270 .cfa: $rsp 56 +
STACK CFI 1a271 $rbx: $rbx .cfa: $rsp 48 +
STACK CFI 1a272 $rsi: $rsi .cfa: $rsp 40 +
STACK CFI 1a273 $rdi: $rdi .cfa: $rsp 32 +
STACK CFI 1a274 $rbp: $rbp .cfa: $rsp 24 +
STACK CFI 1a276 $r12: $r12 .cfa: $rsp 16 +
STACK CFI 1a278 $r13: $r13 .cfa: $rsp 8 +
STACK CFI INIT 1a280 269 .cfa: $rsp 8 + .ra: .cfa -8 + ^
STACK CFI 1a282 $r15: .cfa -16 + ^ .cfa: $rsp 16 +
STACK CFI 1a284 $r14: .cfa -24 + ^ .cfa: $rsp 24 +
STACK CFI 1a286 $r13: .cfa -32 + ^ .cfa: $rsp 32 +
STACK CFI 1a288 $r12: .cfa -40 + ^ .cfa: $rsp 40 +
STACK CFI 1a289 $rbp: .cfa -48 + ^ .cfa: $rsp 48 +
STACK CFI 1a28a $rdi: .cfa -56 + ^ .cfa: $rsp 56 +
STACK CFI 1a28b $rsi: .cfa -64 + ^ .cfa: $rsp 64 +
STACK CFI 1a28c $rbx: .cfa -72 + ^ .cfa: $rsp 72 +
STACK CFI 1a293 .cfa: $rsp 2272 +
STACK CFI 1a356 .cfa: $rsp 72 +
STACK CFI 1a357 $rbx: $rbx .cfa: $rsp 64 +
STACK CFI 1a358 $rsi: $rsi .cfa: $rsp 56 +
STACK CFI 1a359 $rdi: $rdi .cfa: $rsp 48 +
STACK CFI 1a35a $rbp: $rbp .cfa: $rsp 40 +
STACK CFI 1a35c $r12: $r12 .cfa: $rsp 32 +
STACK CFI 1a35e $r13: $r13 .cfa: $rsp 24 +
STACK CFI 1a360 $r14: $r14 .cfa: $rsp 16 +
STACK CFI 1a362 $r15: $r15 .cfa: $rsp 8 +
STACK CFI 1a363 $r12: .cfa -40 + ^ $r13: .cfa -32 + ^ $r14: .cfa -24 + ^ $r15: .cfa -16 + ^ $rbp: .cfa -48 + ^ $rbx: .cfa -72 + ^ $rdi: .cfa -56 + ^ $rsi: .cfa -64 + ^ .cfa: $rsp 2272 +
STACK CFI INIT 1a4f0 7c .cfa: $rsp 8 + .ra: .cfa -8 + ^
STACK CFI 1a4f4 .cfa: $rsp 96 +
STACK CFI 1a532 .cfa: $rsp 8 +
STACK CFI 1a533 .cfa: $rsp 96 +
STACK CFI 1a56b .cfa: $rsp 8 +
STACK CFI INIT 184c70 20 .cfa: $rsp 8 + .ra: .cfa -8 + ^
STACK CFI 184c74 .cfa: $rsp 48 +
STACK CFI 184c8b .cfa: $rsp 8 +
STACK CFI INIT 1a570 1e .cfa: $rsp 8 + .ra: .cfa -8 + ^
STACK CFI 1a574 .cfa: $rsp 48 +
STACK CFI 1a58d .cfa: $rsp 8 +
STACK CFI INIT 1a590 c .cfa: $rsp 8 + .ra: .cfa -8 + ^
STACK CFI INIT 1a5a0 30 .cfa: $rsp 8 + .ra: .cfa -8 + ^
STACK CFI 1a5a1 $rsi: .cfa -16 + ^ .cfa: $rsp 16 +
STACK CFI 1a5a2 $rbx: .cfa -24 + ^ .cfa: $rsp 24 +
STACK CFI 1a5a6 .cfa: $rsp 64 +
STACK CFI 1a5cd .cfa: $rsp 24 +
STACK CFI 1a5ce $rbx: $rbx .cfa: $rsp 16 +
STACK CFI 1a5cf $rsi: $rsi .cfa: $rsp 8 +
STACK CFI INIT 1a5d0 2c8 .cfa: $rsp 8 + .ra: .cfa -8 + ^
STACK CFI 1a5d2 $r15: .cfa -16 + ^ .cfa: $rsp 16 +
STACK CFI 1a5d4 $r14: .cfa -24 + ^ .cfa: $rsp 24 +
STACK CFI 1a5d6 $r13: .cfa -32 + ^ .cfa: $rsp 32 +
STACK CFI 1a5d8 $r12: .cfa -40 + ^ .cfa: $rsp 40 +
STACK CFI 1a5d9 $rbp: .cfa -48 + ^ .cfa: $rsp 48 +
STACK CFI 1a5da $rdi: .cfa -56 + ^ .cfa: $rsp 56 +
STACK CFI 1a5db $rsi: .cfa -64 + ^ .cfa: $rsp 64 +
STACK CFI 1a5dc $rbx: .cfa -72 + ^ .cfa: $rsp 72 +
STACK CFI 1a5e3 .cfa: $rsp 672 +
STACK CFI 1a605 $xmm6: .cfa -144 + ^ $xmm7: .cfa -128 + ^ $xmm8: .cfa -112 + ^ $xmm9: .cfa -96 + ^
STACK CFI 1a88b $xmm6: $xmm6 $xmm7: $xmm7 $xmm8: $xmm8 $xmm9: $xmm9 .cfa: $rsp 72 +
STACK CFI 1a88c $rbx: $rbx .cfa: $rsp 64 +
STACK CFI 1a88d $rsi: $rsi .cfa: $rsp 56 +
STACK CFI 1a88e $rdi: $rdi .cfa: $rsp 48 +
STACK CFI 1a88f $rbp: $rbp .cfa: $rsp 40 +
STACK CFI 1a891 $r12: $r12 .cfa: $rsp 32 +
STACK CFI 1a893 $r13: $r13 .cfa: $rsp 24 +
STACK CFI 1a895 $r14: $r14 .cfa: $rsp 16 +
STACK CFI 1a897 $r15: $r15 .cfa: $rsp 8 +
STACK CFI INIT 1a8a0 8e .cfa: $rsp 8 + .ra: .cfa -8 + ^
STACK CFI 1a8a1 $rsi: .cfa -16 + ^ .cfa: $rsp 16 +
STACK CFI 1a8a2 $rbx: .cfa -24 + ^ .cfa: $rsp 24 +
STACK CFI 1a8a9 .cfa: $rsp 160 +
STACK CFI 1a92b .cfa: $rsp 24 +
STACK CFI 1a92c $rbx: $rbx .cfa: $rsp 16 +
STACK CFI 1a92d $rsi: $rsi .cfa: $rsp 8 +
STACK CFI INIT 1a930 91 .cfa: $rsp 8 + .ra: .cfa -8 + ^
STACK CFI 1a931 $rsi: .cfa -16 + ^ .cfa: $rsp 16 +
STACK CFI 1a932 $rbx: .cfa -24 + ^ .cfa: $rsp 24 +
STACK CFI 1a939 .cfa: $rsp 160 +
STACK CFI 1a9be .cfa: $rsp 24 +
STACK CFI 1a9bf $rbx: $rbx .cfa: $rsp 16 +
STACK CFI 1a9c0 $rsi: $rsi .cfa: $rsp 8 +
STACK CFI INIT 1a9d0 51 .cfa: $rsp 8 + .ra: .cfa -8 + ^
STACK CFI 1a9d1 $rbx: .cfa -16 + ^ .cfa: $rsp 16 +
STACK CFI 1a9d5 .cfa: $rsp 96 +
STACK CFI 1aa1f .cfa: $rsp 16 +
STACK CFI 1aa20 $rbx: $rbx .cfa: $rsp 8 +
STACK CFI INIT 1aa30 30 .cfa: $rsp 8 + .ra: .cfa -8 + ^
STACK CFI 1aa31 $rbx: .cfa -16 + ^ .cfa: $rsp 16 +
STACK CFI 1aa35 .cfa: $rsp 64 +
STACK CFI 1aa5e .cfa: $rsp 16 +
STACK CFI 1aa5f $rbx: $rbx .cfa: $rsp 8 +
STACK CFI INIT 1aa60 8f .cfa: $rsp 8 + .ra: .cfa -8 + ^
STACK CFI 1aa61 $rdi: .cfa -16 + ^ .cfa: $rsp 16 +
STACK CFI 1aa62 $rsi: .cfa -24 + ^ .cfa: $rsp 24 +
STACK CFI 1aa63 $rbx: .cfa -32 + ^ .cfa: $rsp 32 +
STACK CFI 1aa67 .cfa: $rsp 160 +
STACK CFI 1aaeb .cfa: $rsp 32 +
STACK CFI 1aaec $rbx: $rbx .cfa: $rsp 24 +
STACK CFI 1aaed $rsi: $rsi .cfa: $rsp 16 +
STACK CFI 1aaee $rdi: $rdi .cfa: $rsp 8 +
STACK CFI INIT 1aaf0 dc .cfa: $rsp 8 + .ra: .cfa -8 + ^
STACK CFI 1aaf1 $rbp: .cfa -16 + ^ .cfa: $rsp 16 +
STACK CFI 1aaf2 $rdi: .cfa -24 + ^ .cfa: $rsp 24 +
STACK CFI 1aaf3 $rsi: .cfa -32 + ^ .cfa: $rsp 32 +
STACK CFI 1aaf4 $rbx: .cfa -40 + ^ .cfa: $rsp 40 +
STACK CFI 1aaf8 .cfa: $rsp 96 +
STACK CFI 1ab92 .cfa: $rsp 40 +
STACK CFI 1ab93 $rbx: $rbx .cfa: $rsp 32 +
STACK CFI 1ab94 $rsi: $rsi .cfa: $rsp 24 +
STACK CFI 1ab95 $rdi: $rdi .cfa: $rsp 16 +
STACK CFI 1ab96 $rbp: $rbp .cfa: $rsp 8 +
STACK CFI 1aba0 $rbp: .cfa -16 + ^ $rbx: .cfa -40 + ^ $rdi: .cfa -24 + ^ $rsi: .cfa -32 + ^ .cfa: $rsp 96 +
STACK CFI INIT 1abd0 804 .cfa: $rsp 8 + .ra: .cfa -8 + ^
STACK CFI 1abd2 $r15: .cfa -16 + ^ .cfa: $rsp 16 +
STACK CFI 1abd4 $r14: .cfa -24 + ^ .cfa: $rsp 24 +
STACK CFI 1abd6 $r13: .cfa -32 + ^ .cfa: $rsp 32 +
STACK CFI 1abd8 $r12: .cfa -40 + ^ .cfa: $rsp 40 +
STACK CFI 1abd9 $rbp: .cfa -48 + ^ .cfa: $rsp 48 +
STACK CFI 1abda $rdi: .cfa -56 + ^ .cfa: $rsp 56 +
STACK CFI 1abdb $rsi: .cfa -64 + ^ .cfa: $rsp 64 +
STACK CFI 1abdc $rbx: .cfa -72 + ^ .cfa: $rsp 72 +
STACK CFI 1abe3 .cfa: $rsp 432 +
STACK CFI 1ac05 $xmm6: .cfa -144 + ^ $xmm7: .cfa -128 + ^ $xmm8: .cfa -112 + ^ $xmm9: .cfa -96 + ^
STACK CFI 1ac41 $xmm6: $xmm6 $xmm7: $xmm7 $xmm8: $xmm8 $xmm9: $xmm9 .cfa: $rsp 72 +
STACK CFI 1ac42 $rbx: $rbx .cfa: $rsp 64 +
STACK CFI 1ac43 $rsi: $rsi .cfa: $rsp 56 +
STACK CFI 1ac44 $rdi: $rdi .cfa: $rsp 48 +
STACK CFI 1ac45 $rbp: $rbp .cfa: $rsp 40 +
STACK CFI 1ac47 $r12: $r12 .cfa: $rsp 32 +
STACK CFI 1ac49 $r13: $r13 .cfa: $rsp 24 +
STACK CFI 1ac4b $r14: $r14 .cfa: $rsp 16 +
STACK CFI 1ac4d $r15: $r15 .cfa: $rsp 8 +
STACK CFI 1ac50 $r12: .cfa -40 + ^ $r13: .cfa -32 + ^ $r14: .cfa -24 + ^ $r15: .cfa -16 + ^ $rbp: .cfa -48 + ^ $rbx: .cfa -72 + ^ $rdi: .cfa -56 + ^ $rsi: .cfa -64 + ^ $xmm6: .cfa -144 + ^ $xmm7: .cfa -128 + ^ $xmm8: .cfa -112 + ^ $xmm9: .cfa -96 + ^ .cfa: $rsp 432 +
STACK CFI INIT 1b3e0 121 .cfa: $rsp 8 + .ra: .cfa -8 + ^
STACK CFI 1b3e2 $r13: .cfa -16 + ^ .cfa: $rsp 16 +
STACK CFI 1b3e4 $r12: .cfa -24 + ^ .cfa: $rsp 24 +
STACK CFI 1b3e5 $rbp: .cfa -32 + ^ .cfa: $rsp 32 +
STACK CFI 1b3e6 $rdi: .cfa -40 + ^ .cfa: $rsp 40 +
STACK CFI 1b3e7 $rsi: .cfa -48 + ^ .cfa: $rsp 48 +
STACK CFI 1b3e8 $rbx: .cfa -56 + ^ .cfa: $rsp 56 +
STACK CFI 1b3ef .cfa: $rsp 192 +
STACK CFI 1b3f4 $xmm6: .cfa -80 + ^
STACK CFI 1b48f $xmm6: $xmm6 .cfa: $rsp 56 +
STACK CFI 1b490 $rbx: $rbx .cfa: $rsp 48 +
STACK CFI 1b491 $rsi: $rsi .cfa: $rsp 40 +
STACK CFI 1b492 $rdi: $rdi .cfa: $rsp 32 +
STACK CFI 1b493 $rbp: $rbp .cfa: $rsp 24 +
STACK CFI 1b495 $r12: $r12 .cfa: $rsp 16 +
STACK CFI 1b497 $r13: $r13 .cfa: $rsp 8 +
STACK CFI 1b4a0 $r12: .cfa -24 + ^ $r13: .cfa -16 + ^ $rbp: .cfa -32 + ^ $rbx: .cfa -56 + ^ $rdi: .cfa -40 + ^ $rsi: .cfa -48 + ^ $xmm6: .cfa -80 + ^ .cfa: $rsp 192 +
STACK CFI INIT 1b510 63 .cfa: $rsp 8 + .ra: .cfa -8 + ^
STACK CFI 1b511 $rdi: .cfa -16 + ^ .cfa: $rsp 16 +
STACK CFI 1b512 $rsi: .cfa -24 + ^ .cfa: $rsp 24 +
STACK CFI 1b513 $rbx: .cfa -32 + ^ .cfa: $rsp 32 +
STACK CFI 1b517 .cfa: $rsp 80 +
STACK CFI 1b56f .cfa: $rsp 32 +
STACK CFI 1b570 $rbx: $rbx .cfa: $rsp 24 +
STACK CFI 1b571 $rsi: $rsi .cfa: $rsp 16 +
STACK CFI 1b572 $rdi: $rdi .cfa: $rsp 8 +
STACK CFI INIT 1b580 1d4 .cfa: $rsp 8 + .ra: .cfa -8 + ^
STACK CFI 1b582 $r14: .cfa -16 + ^ .cfa: $rsp 16 +
STACK CFI 1b584 $r13: .cfa -24 + ^ .cfa: $rsp 24 +
STACK CFI 1b586 $r12: .cfa -32 + ^ .cfa: $rsp 32 +
STACK CFI 1b587 $rbp: .cfa -40 + ^ .cfa: $rsp 40 +
STACK CFI 1b588 $rdi: .cfa -48 + ^ .cfa: $rsp 48 +
STACK CFI 1b589 $rsi: .cfa -56 + ^ .cfa: $rsp 56 +
STACK CFI 1b58a $rbx: .cfa -64 + ^ .cfa: $rsp 64 +
STACK CFI 1b591 .cfa: $rsp 208 +
STACK CFI 1b749 .cfa: $rsp 64 +
STACK CFI 1b74a $rbx: $rbx .cfa: $rsp 56 +
STACK CFI 1b74b $rsi: $rsi .cfa: $rsp 48 +
STACK CFI 1b74c $rdi: $rdi .cfa: $rsp 40 +
STACK CFI 1b74d $rbp: $rbp .cfa: $rsp 32 +
STACK CFI 1b74f $r12: $r12 .cfa: $rsp 24 +
STACK CFI 1b751 $r13: $r13 .cfa: $rsp 16 +
STACK CFI 1b753 $r14: $r14 .cfa: $rsp 8 +
STACK CFI INIT 1b760 17d .cfa: $rsp 8 + .ra: .cfa -8 + ^
STACK CFI 1b762 $r14: .cfa -16 + ^ .cfa: $rsp 16 +
STACK CFI 1b764 $r13: .cfa -24 + ^ .cfa: $rsp 24 +
STACK CFI 1b766 $r12: .cfa -32 + ^ .cfa: $rsp 32 +
STACK CFI 1b767 $rbp: .cfa -40 + ^ .cfa: $rsp 40 +
STACK CFI 1b768 $rdi: .cfa -48 + ^ .cfa: $rsp 48 +
STACK CFI 1b769 $rsi: .cfa -56 + ^ .cfa: $rsp 56 +
STACK CFI 1b76a $rbx: .cfa -64 + ^ .cfa: $rsp 64 +
STACK CFI 1b771 .cfa: $rsp 224 +
STACK CFI 1b8d2 .cfa: $rsp 64 +
STACK CFI 1b8d3 $rbx: $rbx .cfa: $rsp 56 +
STACK CFI 1b8d4 $rsi: $rsi .cfa: $rsp 48 +
STACK CFI 1b8d5 $rdi: $rdi .cfa: $rsp 40 +
STACK CFI 1b8d6 $rbp: $rbp .cfa: $rsp 32 +
STACK CFI 1b8d8 $r12: $r12 .cfa: $rsp 24 +
STACK CFI 1b8da $r13: $r13 .cfa: $rsp 16 +
STACK CFI 1b8dc $r14: $r14 .cfa: $rsp 8 +
STACK CFI INIT 1b8e0 48 .cfa: $rsp 8 + .ra: .cfa -8 + ^
STACK CFI 1b8e1 $rbp: .cfa -16 + ^ .cfa: $rsp 16 +
STACK CFI 1b8e2 $rdi: .cfa -24 + ^ .cfa: $rsp 24 +
STACK CFI 1b8e3 $rsi: .cfa -32 + ^ .cfa: $rsp 32 +
STACK CFI 1b8e4 $rbx: .cfa -40 + ^ .cfa: $rsp 40 +
STACK CFI 1b8e8 .cfa: $rsp 80 +
STACK CFI 1b923 .cfa: $rsp 40 +
STACK CFI 1b924 $rbx: $rbx .cfa: $rsp 32 +
STACK CFI 1b925 $rsi: $rsi .cfa: $rsp 24 +
STACK CFI 1b926 $rdi: $rdi .cfa: $rsp 16 +
STACK CFI 1b927 $rbp: $rbp .cfa: $rsp 8 +
STACK CFI INIT 1b930 50 .cfa: $rsp 8 + .ra: .cfa -8 + ^
STACK CFI 1b931 $rdi: .cfa -16 + ^ .cfa: $rsp 16 +
STACK CFI 1b932 $rsi: .cfa -24 + ^ .cfa: $rsp 24 +
STACK CFI 1b933 $rbx: .cfa -32 + ^ .cfa: $rsp 32 +
STACK CFI 1b937 .cfa: $rsp 80 +
STACK CFI 1b93c $xmm6: .cfa -48 + ^
STACK CFI 1b97c $xmm6: $xmm6 .cfa: $rsp 32 +
STACK CFI 1b97d $rbx: $rbx .cfa: $rsp 24 +
STACK CFI 1b97e $rsi: $rsi .cfa: $rsp 16 +
STACK CFI 1b97f $rdi: $rdi .cfa: $rsp 8 +
STACK CFI INIT 1b980 7c .cfa: $rsp 8 + .ra: .cfa -8 + ^
STACK CFI 1b984 .cfa: $rsp 64 +
STACK CFI 1b9c5 .cfa: $rsp 8 +
STACK CFI 1b9d0 .cfa: $rsp 64 +
STACK CFI 1b9fb .cfa: $rsp 8 +
STACK CFI INIT 184c90 98 .cfa: $rsp 8 + .ra: .cfa -8 + ^
STACK CFI 184c91 $rdi: .cfa -16 + ^ .cfa: $rsp 16 +
STACK CFI 184c92 $rsi: .cfa -24 + ^ .cfa: $rsp 24 +
STACK CFI 184c93 $rbx: .cfa -32 + ^ .cfa: $rsp 32 +
STACK CFI 184c97 .cfa: $rsp 64 +
STACK CFI 184ce4 .cfa: $rsp 32 +
STACK CFI 184ce5 $rbx: $rbx .cfa: $rsp 24 +
STACK CFI 184ce6 $rsi: $rsi .cfa: $rsp 16 +
STACK CFI 184ce7 $rdi: $rdi .cfa: $rsp 8 +
STACK CFI 184cec $rbx: .cfa -32 + ^ $rdi: .cfa -16 + ^ $rsi: .cfa -24 + ^ .cfa: $rsp 64 +
STACK CFI INIT 1ba00 c .cfa: $rsp 8 + .ra: .cfa -8 + ^
STACK CFI INIT 1ba10 cd .cfa: $rsp 8 + .ra: .cfa -8 + ^
STACK CFI 1ba11 $rdi: .cfa -16 + ^ .cfa: $rsp 16 +
STACK CFI 1ba12 $rsi: .cfa -24 + ^ .cfa: $rsp 24 +
STACK CFI 1ba13 $rbx: .cfa -32 + ^ .cfa: $rsp 32 +
STACK CFI 1ba17 .cfa: $rsp 64 +
STACK CFI 1ba95 .cfa: $rsp 32 +
STACK CFI 1ba96 $rbx: $rbx .cfa: $rsp 24 +
STACK CFI 1ba97 $rsi: $rsi .cfa: $rsp 16 +
STACK CFI 1ba98 $rdi: $rdi .cfa: $rsp 8 +
STACK CFI 1baa0 $rbx: .cfa -32 + ^ $rdi: .cfa -16 + ^ $rsi: .cfa -24 + ^ .cfa: $rsp 64 +
STACK CFI 1bad9 .cfa: $rsp 32 +
STACK CFI 1bada $rbx: $rbx .cfa: $rsp 24 +
STACK CFI 1badb $rsi: $rsi .cfa: $rsp 16 +
STACK CFI 1badc $rdi: $rdi .cfa: $rsp 8 +
STACK CFI INIT 1bae0 53 .cfa: $rsp 8 + .ra: .cfa -8 + ^
STACK CFI 1bae4 .cfa: $rsp 48 +
STACK CFI 1bb1d .cfa: $rsp 8 +
STACK CFI 1bb1e .cfa: $rsp 48 +
STACK CFI INIT 1bb40 13 .cfa: $rsp 8 + .ra: .cfa -8 + ^
STACK CFI INIT 1bb60 4d .cfa: $rsp 8 + .ra: .cfa -8 + ^
STACK CFI INIT 184d30 20 .cfa: $rsp 8 + .ra: .cfa -8 + ^
STACK CFI 184d34 .cfa: $rsp 48 +
STACK CFI 184d4b .cfa: $rsp 8 +
STACK CFI INIT 1bbb0 f .cfa: $rsp 8 + .ra: .cfa -8 + ^
STACK CFI INIT 1bbc0 1 .cfa: $rsp 8 + .ra: .cfa -8 + ^
STACK CFI INIT 1bbd0 13 .cfa: $rsp 8 + .ra: .cfa -8 + ^
STACK CFI 1bbd4 .cfa: $rsp 48 +
STACK CFI 1bbde .cfa: $rsp 8 +
STACK CFI INIT 1bbf0 c .cfa: $rsp 8 + .ra: .cfa -8 + ^
STACK CFI INIT 1bc00 94 .cfa: $rsp 8 + .ra: .cfa -8 + ^
STACK CFI 1bc01 $rdi: .cfa -16 + ^ .cfa: $rsp 16 +
STACK CFI 1bc02 $rsi: .cfa -24 + ^ .cfa: $rsp 24 +
STACK CFI 1bc03 $rbx: .cfa -32 + ^ .cfa: $rsp 32 +
STACK CFI 1bc07 .cfa: $rsp 80 +
STACK CFI 1bc4d .cfa: $rsp 32 +
STACK CFI 1bc4e $rbx: $rbx .cfa: $rsp 24 +
STACK CFI 1bc4f $rsi: $rsi .cfa: $rsp 16 +
STACK CFI 1bc50 $rdi: $rdi .cfa: $rsp 8 +
STACK CFI 1bc51 $rbx: .cfa -32 + ^ $rdi: .cfa -16 + ^ $rsi: .cfa -24 + ^ .cfa: $rsp 80 +
STACK CFI INIT 1bca0 1 .cfa: $rsp 8 + .ra: .cfa -8 + ^
STACK CFI INIT 1bcb0 1 .cfa: $rsp 8 + .ra: .cfa -8 + ^
STACK CFI INIT 1bcc0 1 .cfa: $rsp 8 + .ra: .cfa -8 + ^
STACK CFI INIT 1bcd0 83 .cfa: $rsp 8 + .ra: .cfa -8 + ^
STACK CFI 1bcd4 .cfa: $rsp 48 +
STACK CFI 1bce9 .cfa: $rsp 8 +
STACK CFI 1bcf0 .cfa: $rsp 48 +
STACK CFI 1bd4e .cfa: $rsp 8 +
STACK CFI INIT 1bd60 50 .cfa: $rsp 8 + .ra: .cfa -8 + ^
STACK CFI 1bd64 .cfa: $rsp 48 +
STACK CFI 1bdab .cfa: $rsp 8 +
STACK CFI INIT 1bdb0 7f .cfa: $rsp 8 + .ra: .cfa -8 + ^
STACK CFI 1bdb4 .cfa: $rsp 64 +
STACK CFI 1bdfe .cfa: $rsp 8 +
STACK CFI 1be03 .cfa: $rsp 64 +
STACK CFI 1be2e .cfa: $rsp 8 +
STACK CFI INIT 1be30 7f .cfa: $rsp 8 + .ra: .cfa -8 + ^
STACK CFI 1be34 .cfa: $rsp 64 +
STACK CFI 1be7e .cfa: $rsp 8 +
STACK CFI 1be83 .cfa: $rsp 64 +
STACK CFI 1beae .cfa: $rsp 8 +
STACK CFI INIT 1beb0 3d8 .cfa: $rsp 8 + .ra: .cfa -8 + ^
STACK CFI 1beb2 $r15: .cfa -16 + ^ .cfa: $rsp 16 +
STACK CFI 1beb4 $r14: .cfa -24 + ^ .cfa: $rsp 24 +
STACK CFI 1beb6 $r13: .cfa -32 + ^ .cfa: $rsp 32 +
STACK CFI 1beb8 $r12: .cfa -40 + ^ .cfa: $rsp 40 +
STACK CFI 1beb9 $rbp: .cfa -48 + ^ .cfa: $rsp 48 +
STACK CFI 1beba $rdi: .cfa -56 + ^ .cfa: $rsp 56 +
STACK CFI 1bebb $rsi: .cfa -64 + ^ .cfa: $rsp 64 +
STACK CFI 1bebc $rbx: .cfa -72 + ^ .cfa: $rsp 72 +
STACK CFI 1bec3 .cfa: $rsp 1296 +
STACK CFI 1c051 .cfa: $rsp 72 +
STACK CFI 1c052 $rbx: $rbx .cfa: $rsp 64 +
STACK CFI 1c053 $rsi: $rsi .cfa: $rsp 56 +
STACK CFI 1c054 $rdi: $rdi .cfa: $rsp 48 +
STACK CFI 1c055 $rbp: $rbp .cfa: $rsp 40 +
STACK CFI 1c057 $r12: $r12 .cfa: $rsp 32 +
STACK CFI 1c059 $r13: $r13 .cfa: $rsp 24 +
STACK CFI 1c05b $r14: $r14 .cfa: $rsp 16 +
STACK CFI 1c05d $r15: $r15 .cfa: $rsp 8 +
STACK CFI 1c060 $r12: .cfa -40 + ^ $r13: .cfa -32 + ^ $r14: .cfa -24 + ^ $r15: .cfa -16 + ^ $rbp: .cfa -48 + ^ $rbx: .cfa -72 + ^ $rdi: .cfa -56 + ^ $rsi: .cfa -64 + ^ .cfa: $rsp 1296 +
STACK CFI INIT 184d50 f7 .cfa: $rsp 8 + .ra: .cfa -8 + ^
STACK CFI 184d51 $rsi: .cfa -16 + ^ .cfa: $rsp 16 +
STACK CFI 184d52 $rbx: .cfa -24 + ^ .cfa: $rsp 24 +
STACK CFI 184d56 .cfa: $rsp 96 +
STACK CFI 184e40 .cfa: $rsp 24 +
STACK CFI 184e41 $rbx: $rbx .cfa: $rsp 16 +
STACK CFI 184e42 $rsi: $rsi .cfa: $rsp 8 +
STACK CFI INIT 1c290 21 .cfa: $rsp 8 + .ra: .cfa -8 + ^
STACK CFI INIT 1c2c0 c .cfa: $rsp 8 + .ra: .cfa -8 + ^
STACK CFI INIT 1c2d0 62 .cfa: $rsp 8 + .ra: .cfa -8 + ^
STACK CFI 1c2d1 $rbx: .cfa -16 + ^ .cfa: $rsp 16 +
STACK CFI 1c2d5 .cfa: $rsp 48 +
STACK CFI 1c304 .cfa: $rsp 16 +
STACK CFI 1c305 $rbx: $rbx .cfa: $rsp 8 +
STACK CFI 1c310 $rbx: .cfa -16 + ^ .cfa: $rsp 48 +
STACK CFI 1c32e .cfa: $rsp 16 +
STACK CFI 1c32f $rbx: $rbx .cfa: $rsp 8 +
STACK CFI INIT 1c340 94 .cfa: $rsp 8 + .ra: .cfa -8 + ^
STACK CFI 1c341 $rdi: .cfa -16 + ^ .cfa: $rsp 16 +
STACK CFI 1c342 $rsi: .cfa -24 + ^ .cfa: $rsp 24 +
STACK CFI 1c343 $rbx: .cfa -32 + ^ .cfa: $rsp 32 +
STACK CFI 1c347 .cfa: $rsp 80 +
STACK CFI 1c38d .cfa: $rsp 32 +
STACK CFI 1c38e $rbx: $rbx .cfa: $rsp 24 +
STACK CFI 1c38f $rsi: $rsi .cfa: $rsp 16 +
STACK CFI 1c390 $rdi: $rdi .cfa: $rsp 8 +
STACK CFI 1c391 $rbx: .cfa -32 + ^ $rdi: .cfa -16 + ^ $rsi: .cfa -24 + ^ .cfa: $rsp 80 +
STACK CFI INIT 1c3e0 84 .cfa: $rsp 8 + .ra: .cfa -8 + ^
STACK CFI 1c3e1 $rsi: .cfa -16 + ^ .cfa: $rsp 16 +
STACK CFI 1c3e2 $rbx: .cfa -24 + ^ .cfa: $rsp 24 +
STACK CFI 1c3e6 .cfa: $rsp 80 +
STACK CFI 1c461 .cfa: $rsp 24 +
STACK CFI 1c462 $rbx: $rbx .cfa: $rsp 16 +
STACK CFI 1c463 $rsi: $rsi .cfa: $rsp 8 +
STACK CFI INIT 1c470 79 .cfa: $rsp 8 + .ra: .cfa -8 + ^
STACK CFI 1c471 $rdi: .cfa -16 + ^ .cfa: $rsp 16 +
STACK CFI 1c472 $rsi: .cfa -24 + ^ .cfa: $rsp 24 +
STACK CFI 1c473 $rbx: .cfa -32 + ^ .cfa: $rsp 32 +
STACK CFI 1c477 .cfa: $rsp 64 +
STACK CFI 1c4d9 .cfa: $rsp 32 +
STACK CFI 1c4da $rbx: $rbx .cfa: $rsp 24 +
STACK CFI 1c4db $rsi: $rsi .cfa: $rsp 16 +
STACK CFI 1c4dc $rdi: $rdi .cfa: $rsp 8 +
STACK CFI 1c4e1 $rbx: .cfa -32 + ^ $rdi: .cfa -16 + ^ $rsi: .cfa -24 + ^ .cfa: $rsp 64 +
STACK CFI 1c4e5 .cfa: $rsp 32 +
STACK CFI 1c4e6 $rbx: $rbx .cfa: $rsp 24 +
STACK CFI 1c4e7 $rsi: $rsi .cfa: $rsp 16 +
STACK CFI 1c4e8 $rdi: $rdi .cfa: $rsp 8 +
STACK CFI INIT 1c4f0 1a .cfa: $rsp 8 + .ra: .cfa -8 + ^
STACK CFI 1c4f1 $rbx: .cfa -16 + ^ .cfa: $rsp 16 +
STACK CFI 1c4f5 .cfa: $rsp 48 +
STACK CFI 1c504 .cfa: $rsp 16 +
STACK CFI 1c505 $rbx: $rbx .cfa: $rsp 8 +
STACK CFI INIT 1c510 3e .cfa: $rsp 8 + .ra: .cfa -8 + ^
STACK CFI 1c511 $rsi: .cfa -16 + ^ .cfa: $rsp 16 +
STACK CFI 1c512 $rbx: .cfa -24 + ^ .cfa: $rsp 24 +
STACK CFI 1c516 .cfa: $rsp 64 +
STACK CFI 1c54b .cfa: $rsp 24 +
STACK CFI 1c54c $rbx: $rbx .cfa: $rsp 16 +
STACK CFI 1c54d $rsi: $rsi .cfa: $rsp 8 +
STACK CFI INIT 1c550 24b .cfa: $rsp 8 + .ra: .cfa -8 + ^
STACK CFI 1c551 $rdi: .cfa -16 + ^ .cfa: $rsp 16 +
STACK CFI 1c552 $rsi: .cfa -24 + ^ .cfa: $rsp 24 +
STACK CFI 1c553 $rbx: .cfa -32 + ^ .cfa: $rsp 32 +
STACK CFI 1c557 .cfa: $rsp 112 +
STACK CFI 1c696 .cfa: $rsp 32 +
STACK CFI 1c697 $rbx: $rbx .cfa: $rsp 24 +
STACK CFI 1c698 $rsi: $rsi .cfa: $rsp 16 +
STACK CFI 1c699 $rdi: $rdi .cfa: $rsp 8 +
STACK CFI 1c6a0 $rbx: .cfa -32 + ^ $rdi: .cfa -16 + ^ $rsi: .cfa -24 + ^ .cfa: $rsp 112 +
STACK CFI INIT 1c7a0 79 .cfa: $rsp 8 + .ra: .cfa -8 + ^
STACK CFI 1c7a1 $rsi: .cfa -16 + ^ .cfa: $rsp 16 +
STACK CFI 1c7a2 $rbx: .cfa -24 + ^ .cfa: $rsp 24 +
STACK CFI 1c7a6 .cfa: $rsp 64 +
STACK CFI 1c80b .cfa: $rsp 24 +
STACK CFI 1c80c $rbx: $rbx .cfa: $rsp 16 +
STACK CFI 1c80d $rsi: $rsi .cfa: $rsp 8 +
STACK CFI 1c812 $rbx: .cfa -24 + ^ $rsi: .cfa -16 + ^ .cfa: $rsp 64 +
STACK CFI 1c816 .cfa: $rsp 24 +
STACK CFI 1c817 $rbx: $rbx .cfa: $rsp 16 +
STACK CFI 1c818 $rsi: $rsi .cfa: $rsp 8 +
STACK CFI INIT 1c820 5c .cfa: $rsp 8 + .ra: .cfa -8 + ^
STACK CFI INIT 1c880 c9 .cfa: $rsp 8 + .ra: .cfa -8 + ^
STACK CFI 1c881 $rsi: .cfa -16 + ^ .cfa: $rsp 16 +
STACK CFI 1c882 $rbx: .cfa -24 + ^ .cfa: $rsp 24 +
STACK CFI 1c889 .cfa: $rsp 160 +
STACK CFI 1c927 .cfa: $rsp 24 +
STACK CFI 1c928 $rbx: $rbx .cfa: $rsp 16 +
STACK CFI 1c929 $rsi: $rsi .cfa: $rsp 8 +
STACK CFI 1c92a $rbx: .cfa -24 + ^ $rsi: .cfa -16 + ^ .cfa: $rsp 160 +
STACK CFI INIT 1c950 3e9 .cfa: $rsp 8 + .ra: .cfa -8 + ^
STACK CFI 1c952 $r15: .cfa -16 + ^ .cfa: $rsp 16 +
STACK CFI 1c954 $r14: .cfa -24 + ^ .cfa: $rsp 24 +
STACK CFI 1c956 $r13: .cfa -32 + ^ .cfa: $rsp 32 +
STACK CFI 1c958 $r12: .cfa -40 + ^ .cfa: $rsp 40 +
STACK CFI 1c959 $rbp: .cfa -48 + ^ .cfa: $rsp 48 +
STACK CFI 1c95a $rdi: .cfa -56 + ^ .cfa: $rsp 56 +
STACK CFI 1c95b $rsi: .cfa -64 + ^ .cfa: $rsp 64 +
STACK CFI 1c95c $rbx: .cfa -72 + ^ .cfa: $rsp 72 +
STACK CFI 1c960 .cfa: $rsp 160 +
STACK CFI 1cc30 .cfa: $rsp 72 +
STACK CFI 1cc31 $rbx: $rbx .cfa: $rsp 64 +
STACK CFI 1cc32 $rsi: $rsi .cfa: $rsp 56 +
STACK CFI 1cc33 $rdi: $rdi .cfa: $rsp 48 +
STACK CFI 1cc34 $rbp: $rbp .cfa: $rsp 40 +
STACK CFI 1cc36 $r12: $r12 .cfa: $rsp 32 +
STACK CFI 1cc38 $r13: $r13 .cfa: $rsp 24 +
STACK CFI 1cc3a $r14: $r14 .cfa: $rsp 16 +
STACK CFI 1cc3c $r15: $r15 .cfa: $rsp 8 +
STACK CFI 1cc40 $r12: .cfa -40 + ^ $r13: .cfa -32 + ^ $r14: .cfa -24 + ^ $r15: .cfa -16 + ^ $rbp: .cfa -48 + ^ $rbx: .cfa -72 + ^ $rdi: .cfa -56 + ^ $rsi: .cfa -64 + ^ .cfa: $rsp 160 +
STACK CFI INIT 1cd40 28a .cfa: $rsp 8 + .ra: .cfa -8 + ^
STACK CFI 1cd42 $r15: .cfa -16 + ^ .cfa: $rsp 16 +
STACK CFI 1cd44 $r14: .cfa -24 + ^ .cfa: $rsp 24 +
STACK CFI 1cd46 $r13: .cfa -32 + ^ .cfa: $rsp 32 +
STACK CFI 1cd48 $r12: .cfa -40 + ^ .cfa: $rsp 40 +
STACK CFI 1cd49 $rbp: .cfa -48 + ^ .cfa: $rsp 48 +
STACK CFI 1cd4a $rdi: .cfa -56 + ^ .cfa: $rsp 56 +
STACK CFI 1cd4b $rsi: .cfa -64 + ^ .cfa: $rsp 64 +
STACK CFI 1cd4c $rbx: .cfa -72 + ^ .cfa: $rsp 72 +
STACK CFI 1cd50 .cfa: $rsp 176 +
STACK CFI 1cea1 .cfa: $rsp 72 +
STACK CFI 1cea2 $rbx: $rbx .cfa: $rsp 64 +
STACK CFI 1cea3 $rsi: $rsi .cfa: $rsp 56 +
STACK CFI 1cea4 $rdi: $rdi .cfa: $rsp 48 +
STACK CFI 1cea5 $rbp: $rbp .cfa: $rsp 40 +
STACK CFI 1cea7 $r12: $r12 .cfa: $rsp 32 +
STACK CFI 1cea9 $r13: $r13 .cfa: $rsp 24 +
STACK CFI 1ceab $r14: $r14 .cfa: $rsp 16 +
STACK CFI 1cead $r15: $r15 .cfa: $rsp 8 +
STACK CFI 1ceb0 $r12: .cfa -40 + ^ $r13: .cfa -32 + ^ $r14: .cfa -24 + ^ $r15: .cfa -16 + ^ $rbp: .cfa -48 + ^ $rbx: .cfa -72 + ^ $rdi: .cfa -56 + ^ $rsi: .cfa -64 + ^ .cfa: $rsp 176 +
STACK CFI INIT 1cfd0 176 .cfa: $rsp 8 + .ra: .cfa -8 + ^
STACK CFI 1cfd2 $r13: .cfa -16 + ^ .cfa: $rsp 16 +
STACK CFI 1cfd4 $r12: .cfa -24 + ^ .cfa: $rsp 24 +
STACK CFI 1cfd5 $rbp: .cfa -32 + ^ .cfa: $rsp 32 +
STACK CFI 1cfd6 $rdi: .cfa -40 + ^ .cfa: $rsp 40 +
STACK CFI 1cfd7 $rsi: .cfa -48 + ^ .cfa: $rsp 48 +
STACK CFI 1cfd8 $rbx: .cfa -56 + ^ .cfa: $rsp 56 +
STACK CFI 1cfdc .cfa: $rsp 112 +
STACK CFI 1d0dd .cfa: $rsp 56 +
STACK CFI 1d0de $rbx: $rbx .cfa: $rsp 48 +
STACK CFI 1d0df $rsi: $rsi .cfa: $rsp 40 +
STACK CFI 1d0e0 $rdi: $rdi .cfa: $rsp 32 +
STACK CFI 1d0e1 $rbp: $rbp .cfa: $rsp 24 +
STACK CFI 1d0e3 $r12: $r12 .cfa: $rsp 16 +
STACK CFI 1d0e5 $r13: $r13 .cfa: $rsp 8 +
STACK CFI 1d0f0 $r12: .cfa -24 + ^ $r13: .cfa -16 + ^ $rbp: .cfa -32 + ^ $rbx: .cfa -56 + ^ $rdi: .cfa -40 + ^ $rsi: .cfa -48 + ^ .cfa: $rsp 112 +
STACK CFI 1d0f6 .cfa: $rsp 56 +
STACK CFI 1d0f7 $rbx: $rbx .cfa: $rsp 48 +
STACK CFI 1d0f8 $rsi: $rsi .cfa: $rsp 40 +
STACK CFI 1d0f9 $rdi: $rdi .cfa: $rsp 32 +
STACK CFI 1d0fa $rbp: $rbp .cfa: $rsp 24 +
STACK CFI 1d0fc $r12: $r12 .cfa: $rsp 16 +
STACK CFI 1d0fe $r13: $r13 .cfa: $rsp 8 +
STACK CFI 1d100 $r12: .cfa -24 + ^ $r13: .cfa -16 + ^ $rbp: .cfa -32 + ^ $rbx: .cfa -56 + ^ $rdi: .cfa -40 + ^ $rsi: .cfa -48 + ^ .cfa: $rsp 112 +
STACK CFI INIT 1d150 11 .cfa: $rsp 8 + .ra: .cfa -8 + ^
STACK CFI INIT 1d170 12 .cfa: $rsp 8 + .ra: .cfa -8 + ^
STACK CFI INIT 1d190 273 .cfa: $rsp 8 + .ra: .cfa -8 + ^
STACK CFI 1d191 $rbp: .cfa -16 + ^ .cfa: $rsp 16 +
STACK CFI 1d192 $rdi: .cfa -24 + ^ .cfa: $rsp 24 +
STACK CFI 1d193 $rsi: .cfa -32 + ^ .cfa: $rsp 32 +
STACK CFI 1d194 $rbx: .cfa -40 + ^ .cfa: $rsp 40 +
STACK CFI 1d198 .cfa: $rsp 144 +
STACK CFI 1d1cf .cfa: $rsp 40 +
STACK CFI 1d1d0 $rbx: $rbx .cfa: $rsp 32 +
STACK CFI 1d1d1 $rsi: $rsi .cfa: $rsp 24 +
STACK CFI 1d1d2 $rdi: $rdi .cfa: $rsp 16 +
STACK CFI 1d1d3 $rbp: $rbp .cfa: $rsp 8 +
STACK CFI 1d1d4 $rbp: .cfa -16 + ^ $rbx: .cfa -40 + ^ $rdi: .cfa -24 + ^ $rsi: .cfa -32 + ^ .cfa: $rsp 144 +
STACK CFI 1d3d1 .cfa: $rsp 40 +
STACK CFI 1d3d2 $rbx: $rbx .cfa: $rsp 32 +
STACK CFI 1d3d3 $rsi: $rsi .cfa: $rsp 24 +
STACK CFI 1d3d4 $rdi: $rdi .cfa: $rsp 16 +
STACK CFI 1d3d5 $rbp: $rbp .cfa: $rsp 8 +
STACK CFI 1d3d6 $rbp: .cfa -16 + ^ $rbx: .cfa -40 + ^ $rdi: .cfa -24 + ^ $rsi: .cfa -32 + ^ .cfa: $rsp 144 +
STACK CFI INIT 1d410 ce .cfa: $rsp 8 + .ra: .cfa -8 + ^
STACK CFI 1d412 $r12: .cfa -16 + ^ .cfa: $rsp 16 +
STACK CFI 1d413 $rbp: .cfa -24 + ^ .cfa: $rsp 24 +
STACK CFI 1d414 $rdi: .cfa -32 + ^ .cfa: $rsp 32 +
STACK CFI 1d415 $rsi: .cfa -40 + ^ .cfa: $rsp 40 +
STACK CFI 1d416 $rbx: .cfa -48 + ^ .cfa: $rsp 48 +
STACK CFI 1d41a .cfa: $rsp 96 +
STACK CFI 1d4d3 .cfa: $rsp 48 +
STACK CFI 1d4d4 $rbx: $rbx .cfa: $rsp 40 +
STACK CFI 1d4d5 $rsi: $rsi .cfa: $rsp 32 +
STACK CFI 1d4d6 $rdi: $rdi .cfa: $rsp 24 +
STACK CFI 1d4d7 $rbp: $rbp .cfa: $rsp 16 +
STACK CFI 1d4d9 $r12: $r12 .cfa: $rsp 8 +
STACK CFI INIT 1d4e0 1f7 .cfa: $rsp 8 + .ra: .cfa -8 + ^
STACK CFI 1d4e2 $r15: .cfa -16 + ^ .cfa: $rsp 16 +
STACK CFI 1d4e4 $r14: .cfa -24 + ^ .cfa: $rsp 24 +
STACK CFI 1d4e6 $r13: .cfa -32 + ^ .cfa: $rsp 32 +
STACK CFI 1d4e8 $r12: .cfa -40 + ^ .cfa: $rsp 40 +
STACK CFI 1d4e9 $rbp: .cfa -48 + ^ .cfa: $rsp 48 +
STACK CFI 1d4ea $rdi: .cfa -56 + ^ .cfa: $rsp 56 +
STACK CFI 1d4eb $rsi: .cfa -64 + ^ .cfa: $rsp 64 +
STACK CFI 1d4ec $rbx: .cfa -72 + ^ .cfa: $rsp 72 +
STACK CFI 1d4f3 .cfa: $rsp 944 +
STACK CFI 1d5c5 .cfa: $rsp 72 +
STACK CFI 1d5c6 $rbx: $rbx .cfa: $rsp 64 +
STACK CFI 1d5c7 $rsi: $rsi .cfa: $rsp 56 +
STACK CFI 1d5c8 $rdi: $rdi .cfa: $rsp 48 +
STACK CFI 1d5c9 $rbp: $rbp .cfa: $rsp 40 +
STACK CFI 1d5cb $r12: $r12 .cfa: $rsp 32 +
STACK CFI 1d5cd $r13: $r13 .cfa: $rsp 24 +
STACK CFI 1d5cf $r14: $r14 .cfa: $rsp 16 +
STACK CFI 1d5d1 $r15: $r15 .cfa: $rsp 8 +
STACK CFI 1d5d2 $r12: .cfa -40 + ^ $r13: .cfa -32 + ^ $r14: .cfa -24 + ^ $r15: .cfa -16 + ^ $rbp: .cfa -48 + ^ $rbx: .cfa -72 + ^ $rdi: .cfa -56 + ^ $rsi: .cfa -64 + ^ .cfa: $rsp 944 +
STACK CFI INIT 1d6e0 1bab .cfa: $rsp 8 + .ra: .cfa -8 + ^
STACK CFI 1d6e2 $r15: .cfa -16 + ^ .cfa: $rsp 16 +
STACK CFI 1d6e4 $r14: .cfa -24 + ^ .cfa: $rsp 24 +
STACK CFI 1d6e6 $r13: .cfa -32 + ^ .cfa: $rsp 32 +
STACK CFI 1d6e8 $r12: .cfa -40 + ^ .cfa: $rsp 40 +
STACK CFI 1d6e9 $rbp: .cfa -48 + ^ .cfa: $rsp 48 +
STACK CFI 1d6ea $rdi: .cfa -56 + ^ .cfa: $rsp 56 +
STACK CFI 1d6eb $rsi: .cfa -64 + ^ .cfa: $rsp 64 +
STACK CFI 1d6ec $rbx: .cfa -72 + ^ .cfa: $rsp 72 +
STACK CFI 1d6f3 .cfa: $rsp 1536 +
STACK CFI 1d70d .cfa: $rsp 72 +
STACK CFI 1d70e $rbx: $rbx .cfa: $rsp 64 +
STACK CFI 1d70f $rsi: $rsi .cfa: $rsp 56 +
STACK CFI 1d710 $rdi: $rdi .cfa: $rsp 48 +
STACK CFI 1d711 $rbp: $rbp .cfa: $rsp 40 +
STACK CFI 1d713 $r12: $r12 .cfa: $rsp 32 +
STACK CFI 1d715 $r13: $r13 .cfa: $rsp 24 +
STACK CFI 1d717 $r14: $r14 .cfa: $rsp 16 +
STACK CFI 1d719 $r15: $r15 .cfa: $rsp 8 +
STACK CFI 1d720 $r12: .cfa -40 + ^ $r13: .cfa -32 + ^ $r14: .cfa -24 + ^ $r15: .cfa -16 + ^ $rbp: .cfa -48 + ^ $rbx: .cfa -72 + ^ $rdi: .cfa -56 + ^ $rsi: .cfa -64 + ^ .cfa: $rsp 1536 +
STACK CFI INIT 1f290 244 .cfa: $rsp 8 + .ra: .cfa -8 + ^
STACK CFI 1f292 $r15: .cfa -16 + ^ .cfa: $rsp 16 +
STACK CFI 1f294 $r14: .cfa -24 + ^ .cfa: $rsp 24 +
STACK CFI 1f29b $r13: .cfa -32 + ^ .cfa: $rsp 32 +
STACK CFI 1f29d $r12: .cfa -40 + ^ .cfa: $rsp 40 +
STACK CFI 1f29e $rbp: .cfa -48 + ^ .cfa: $rsp 48 +
STACK CFI 1f29f $rdi: .cfa -56 + ^ .cfa: $rsp 56 +
STACK CFI 1f2a0 $rsi: .cfa -64 + ^ .cfa: $rsp 64 +
STACK CFI 1f2a1 $rbx: .cfa -72 + ^ .cfa: $rsp 72 +
STACK CFI 1f2a9 .cfa: $rsp 33216 +
STACK CFI 1f4c7 .cfa: $rsp 72 +
STACK CFI 1f4c8 $rbx: $rbx .cfa: $rsp 64 +
STACK CFI 1f4c9 $rsi: $rsi .cfa: $rsp 56 +
STACK CFI 1f4ca $rdi: $rdi .cfa: $rsp 48 +
STACK CFI 1f4cb $rbp: $rbp .cfa: $rsp 40 +
STACK CFI 1f4cd $r12: $r12 .cfa: $rsp 32 +
STACK CFI 1f4cf $r13: $r13 .cfa: $rsp 24 +
STACK CFI 1f4d1 $r14: $r14 .cfa: $rsp 16 +
STACK CFI 1f4d3 $r15: $r15 .cfa: $rsp 8 +
STACK CFI INIT 1f4e0 56 .cfa: $rsp 8 + .ra: .cfa -8 + ^
STACK CFI 1f4e1 $rbx: .cfa -16 + ^ .cfa: $rsp 16 +
STACK CFI 1f4e5 .cfa: $rsp 64 +
STACK CFI 1f521 .cfa: $rsp 16 +
STACK CFI 1f522 $rbx: $rbx .cfa: $rsp 8 +
STACK CFI 1f530 $rbx: .cfa -16 + ^ .cfa: $rsp 64 +
STACK CFI 1f534 .cfa: $rsp 16 +
STACK CFI 1f535 $rbx: $rbx .cfa: $rsp 8 +
STACK CFI INIT 1f540 2f5 .cfa: $rsp 8 + .ra: .cfa -8 + ^
STACK CFI 1f542 $r12: .cfa -16 + ^ .cfa: $rsp 16 +
STACK CFI 1f543 $rbp: .cfa -24 + ^ .cfa: $rsp 24 +
STACK CFI 1f544 $rdi: .cfa -32 + ^ .cfa: $rsp 32 +
STACK CFI 1f545 $rsi: .cfa -40 + ^ .cfa: $rsp 40 +
STACK CFI 1f546 $rbx: .cfa -48 + ^ .cfa: $rsp 48 +
STACK CFI 1f54a .cfa: $rsp 112 +
STACK CFI 1f61f .cfa: $rsp 48 +
STACK CFI 1f620 $rbx: $rbx .cfa: $rsp 40 +
STACK CFI 1f621 $rsi: $rsi .cfa: $rsp 32 +
STACK CFI 1f622 $rdi: $rdi .cfa: $rsp 24 +
STACK CFI 1f623 $rbp: $rbp .cfa: $rsp 16 +
STACK CFI 1f625 $r12: $r12 .cfa: $rsp 8 +
STACK CFI 1f630 $r12: .cfa -16 + ^ $rbp: .cfa -24 + ^ $rbx: .cfa -48 + ^ $rdi: .cfa -32 + ^ $rsi: .cfa -40 + ^ .cfa: $rsp 112 +
STACK CFI 1f6cf .cfa: $rsp 48 +
STACK CFI 1f6d0 $rbx: $rbx .cfa: $rsp 40 +
STACK CFI 1f6d1 $rsi: $rsi .cfa: $rsp 32 +
STACK CFI 1f6d2 $rdi: $rdi .cfa: $rsp 24 +
STACK CFI 1f6d3 $rbp: $rbp .cfa: $rsp 16 +
STACK CFI 1f6d5 $r12: $r12 .cfa: $rsp 8 +
STACK CFI 1f6e0 $r12: .cfa -16 + ^ $rbp: .cfa -24 + ^ $rbx: .cfa -48 + ^ $rdi: .cfa -32 + ^ $rsi: .cfa -40 + ^ .cfa: $rsp 112 +
STACK CFI INIT 1f840 23c .cfa: $rsp 8 + .ra: .cfa -8 + ^
STACK CFI 1f841 $rsi: .cfa -16 + ^ .cfa: $rsp 16 +
STACK CFI 1f842 $rbx: .cfa -24 + ^ .cfa: $rsp 24 +
STACK CFI 1f846 .cfa: $rsp 96 +
STACK CFI 1f85d .cfa: $rsp 24 +
STACK CFI 1f85e $rbx: $rbx .cfa: $rsp 16 +
STACK CFI 1f85f $rsi: $rsi .cfa: $rsp 8 +
STACK CFI 1f860 $rbx: .cfa -24 + ^ $rsi: .cfa -16 + ^ .cfa: $rsp 96 +
STACK CFI 1f8aa .cfa: $rsp 24 +
STACK CFI 1f8ab $rbx: $rbx .cfa: $rsp 16 +
STACK CFI 1f8ac $rsi: $rsi .cfa: $rsp 8 +
STACK CFI 1f8b0 $rbx: .cfa -24 + ^ $rsi: .cfa -16 + ^ .cfa: $rsp 96 +
STACK CFI 1f90c .cfa: $rsp 24 +
STACK CFI 1f90d $rbx: $rbx .cfa: $rsp 16 +
STACK CFI 1f90e $rsi: $rsi .cfa: $rsp 8 +
STACK CFI 1f910 $rbx: .cfa -24 + ^ $rsi: .cfa -16 + ^ .cfa: $rsp 96 +
STACK CFI INIT 1fa80 79 .cfa: $rsp 8 + .ra: .cfa -8 + ^
STACK CFI 1fa81 $rbx: .cfa -16 + ^ .cfa: $rsp 16 +
STACK CFI 1fa85 .cfa: $rsp 80 +
STACK CFI 1faf7 .cfa: $rsp 16 +
STACK CFI 1faf8 $rbx: $rbx .cfa: $rsp 8 +
STACK CFI INIT 1fb00 16f .cfa: $rsp 8 + .ra: .cfa -8 + ^
STACK CFI 1fb02 $r13: .cfa -16 + ^ .cfa: $rsp 16 +
STACK CFI 1fb04 $r12: .cfa -24 + ^ .cfa: $rsp 24 +
STACK CFI 1fb05 $rbp: .cfa -32 + ^ .cfa: $rsp 32 +
STACK CFI 1fb06 $rdi: .cfa -40 + ^ .cfa: $rsp 40 +
STACK CFI 1fb07 $rsi: .cfa -48 + ^ .cfa: $rsp 48 +
STACK CFI 1fb08 $rbx: .cfa -56 + ^ .cfa: $rsp 56 +
STACK CFI 1fb0c .cfa: $rsp 128 +
STACK CFI 1fb23 .cfa: $rsp 56 +
STACK CFI 1fb24 $rbx: $rbx .cfa: $rsp 48 +
STACK CFI 1fb25 $rsi: $rsi .cfa: $rsp 40 +
STACK CFI 1fb26 $rdi: $rdi .cfa: $rsp 32 +
STACK CFI 1fb27 $rbp: $rbp .cfa: $rsp 24 +
STACK CFI 1fb29 $r12: $r12 .cfa: $rsp 16 +
STACK CFI 1fb2b $r13: $r13 .cfa: $rsp 8 +
STACK CFI 1fb30 $r12: .cfa -24 + ^ $r13: .cfa -16 + ^ $rbp: .cfa -32 + ^ $rbx: .cfa -56 + ^ $rdi: .cfa -40 + ^ $rsi: .cfa -48 + ^ .cfa: $rsp 128 +
STACK CFI INIT 1fc70 e15 .cfa: $rsp 8 + .ra: .cfa -8 + ^
STACK CFI 1fc72 $r15: .cfa -16 + ^ .cfa: $rsp 16 +
STACK CFI 1fc74 $r14: .cfa -24 + ^ .cfa: $rsp 24 +
STACK CFI 1fc76 $r13: .cfa -32 + ^ .cfa: $rsp 32 +
STACK CFI 1fc78 $r12: .cfa -40 + ^ .cfa: $rsp 40 +
STACK CFI 1fc79 $rbp: .cfa -48 + ^ .cfa: $rsp 48 +
STACK CFI 1fc7a $rdi: .cfa -56 + ^ .cfa: $rsp 56 +
STACK CFI 1fc7b $rsi: .cfa -64 + ^ .cfa: $rsp 64 +
STACK CFI 1fc7c $rbx: .cfa -72 + ^ .cfa: $rsp 72 +
STACK CFI 1fc83 .cfa: $rsp 1296 +
STACK CFI 1fca6 .cfa: $rsp 72 +
STACK CFI 1fca7 $rbx: $rbx .cfa: $rsp 64 +
STACK CFI 1fca8 $rsi: $rsi .cfa: $rsp 56 +
STACK CFI 1fca9 $rdi: $rdi .cfa: $rsp 48 +
STACK CFI 1fcaa $rbp: $rbp .cfa: $rsp 40 +
STACK CFI 1fcac $r12: $r12 .cfa: $rsp 32 +
STACK CFI 1fcae $r13: $r13 .cfa: $rsp 24 +
STACK CFI 1fcb0 $r14: $r14 .cfa: $rsp 16 +
STACK CFI 1fcb2 $r15: $r15 .cfa: $rsp 8 +
STACK CFI 1fcb3 $r12: .cfa -40 + ^ $r13: .cfa -32 + ^ $r14: .cfa -24 + ^ $r15: .cfa -16 + ^ $rbp: .cfa -48 + ^ $rbx: .cfa -72 + ^ $rdi: .cfa -56 + ^ $rsi: .cfa -64 + ^ .cfa: $rsp 1296 +
STACK CFI INIT 184e50 b3 .cfa: $rsp 8 + .ra: .cfa -8 + ^
STACK CFI 184e51 $rsi: .cfa -16 + ^ .cfa: $rsp 16 +
STACK CFI 184e52 $rbx: .cfa -24 + ^ .cfa: $rsp 24 +
STACK CFI 184e56 .cfa: $rsp 112 +
STACK CFI 184ee1 .cfa: $rsp 24 +
STACK CFI 184ee2 $rbx: $rbx .cfa: $rsp 16 +
STACK CFI 184ee3 $rsi: $rsi .cfa: $rsp 8 +
STACK CFI 184ee4 $rbx: .cfa -24 + ^ $rsi: .cfa -16 + ^ .cfa: $rsp 112 +
STACK CFI INIT 20a90 c .cfa: $rsp 8 + .ra: .cfa -8 + ^
STACK CFI INIT 20aa0 94 .cfa: $rsp 8 + .ra: .cfa -8 + ^
STACK CFI 20aa1 $rdi: .cfa -16 + ^ .cfa: $rsp 16 +
STACK CFI 20aa2 $rsi: .cfa -24 + ^ .cfa: $rsp 24 +
STACK CFI 20aa3 $rbx: .cfa -32 + ^ .cfa: $rsp 32 +
STACK CFI 20aa7 .cfa: $rsp 80 +
STACK CFI 20aed .cfa: $rsp 32 +
STACK CFI 20aee $rbx: $rbx .cfa: $rsp 24 +
STACK CFI 20aef $rsi: $rsi .cfa: $rsp 16 +
STACK CFI 20af0 $rdi: $rdi .cfa: $rsp 8 +
STACK CFI 20af1 $rbx: .cfa -32 + ^ $rdi: .cfa -16 + ^ $rsi: .cfa -24 + ^ .cfa: $rsp 80 +
STACK CFI INIT 20b40 83 .cfa: $rsp 8 + .ra: .cfa -8 + ^
STACK CFI 20b42 $r12: .cfa -16 + ^ .cfa: $rsp 16 +
STACK CFI 20b43 $rbp: .cfa -24 + ^ .cfa: $rsp 24 +
STACK CFI 20b44 $rdi: .cfa -32 + ^ .cfa: $rsp 32 +
STACK CFI 20b45 $rsi: .cfa -40 + ^ .cfa: $rsp 40 +
STACK CFI 20b46 $rbx: .cfa -48 + ^ .cfa: $rsp 48 +
STACK CFI 20b4a .cfa: $rsp 80 +
STACK CFI 20ba7 .cfa: $rsp 48 +
STACK CFI 20ba8 $rbx: $rbx .cfa: $rsp 40 +
STACK CFI 20ba9 $rsi: $rsi .cfa: $rsp 32 +
STACK CFI 20baa $rdi: $rdi .cfa: $rsp 24 +
STACK CFI 20bab $rbp: $rbp .cfa: $rsp 16 +
STACK CFI 20bad $r12: $r12 .cfa: $rsp 8 +
STACK CFI 20bae $r12: .cfa -16 + ^ $rbp: .cfa -24 + ^ $rbx: .cfa -48 + ^ $rdi: .cfa -32 + ^ $rsi: .cfa -40 + ^ .cfa: $rsp 80 +
STACK CFI INIT 20bd0 1bf .cfa: $rsp 8 + .ra: .cfa -8 + ^
STACK CFI 20bd2 $r15: .cfa -16 + ^ .cfa: $rsp 16 +
STACK CFI 20bd4 $r14: .cfa -24 + ^ .cfa: $rsp 24 +
STACK CFI 20bd6 $r13: .cfa -32 + ^ .cfa: $rsp 32 +
STACK CFI 20bd8 $r12: .cfa -40 + ^ .cfa: $rsp 40 +
STACK CFI 20bd9 $rbp: .cfa -48 + ^ .cfa: $rsp 48 +
STACK CFI 20bda $rdi: .cfa -56 + ^ .cfa: $rsp 56 +
STACK CFI 20bdb $rsi: .cfa -64 + ^ .cfa: $rsp 64 +
STACK CFI 20bdc $rbx: .cfa -72 + ^ .cfa: $rsp 72 +
STACK CFI 20be3 .cfa: $rsp 1168 +
STACK CFI 20d82 .cfa: $rsp 72 +
STACK CFI 20d83 $rbx: $rbx .cfa: $rsp 64 +
STACK CFI 20d84 $rsi: $rsi .cfa: $rsp 56 +
STACK CFI 20d85 $rdi: $rdi .cfa: $rsp 48 +
STACK CFI 20d86 $rbp: $rbp .cfa: $rsp 40 +
STACK CFI 20d88 $r12: $r12 .cfa: $rsp 32 +
STACK CFI 20d8a $r13: $r13 .cfa: $rsp 24 +
STACK CFI 20d8c $r14: $r14 .cfa: $rsp 16 +
STACK CFI 20d8e $r15: $r15 .cfa: $rsp 8 +
STACK CFI INIT 20d90 6f .cfa: $rsp 8 + .ra: .cfa -8 + ^
STACK CFI 20d94 .cfa: $rsp 48 +
STACK CFI 20dc2 .cfa: $rsp 8 +
STACK CFI 20dd0 .cfa: $rsp 48 +
STACK CFI 20dd8 .cfa: $rsp 8 +
STACK CFI 20dd9 .cfa: $rsp 48 +
STACK CFI INIT 20e00 9c .cfa: $rsp 8 + .ra: .cfa -8 + ^
STACK CFI 20e01 $rdi: .cfa -16 + ^ .cfa: $rsp 16 +
STACK CFI 20e02 $rsi: .cfa -24 + ^ .cfa: $rsp 24 +
STACK CFI 20e03 $rbx: .cfa -32 + ^ .cfa: $rsp 32 +
STACK CFI 20e07 .cfa: $rsp 64 +
STACK CFI 20e7f .cfa: $rsp 32 +
STACK CFI 20e80 $rbx: $rbx .cfa: $rsp 24 +
STACK CFI 20e81 $rsi: $rsi .cfa: $rsp 16 +
STACK CFI 20e82 $rdi: $rdi .cfa: $rsp 8 +
STACK CFI 20e87 $rbx: .cfa -32 + ^ $rdi: .cfa -16 + ^ $rsi: .cfa -24 + ^ .cfa: $rsp 64 +
STACK CFI INIT 20ea0 6a .cfa: $rsp 8 + .ra: .cfa -8 + ^
STACK CFI 20ea4 .cfa: $rsp 48 +
STACK CFI 20edf .cfa: $rsp 8 +
STACK CFI 20ee4 .cfa: $rsp 48 +
STACK CFI INIT 20f10 6d .cfa: $rsp 8 + .ra: .cfa -8 + ^
STACK CFI 20f14 .cfa: $rsp 48 +
STACK CFI 20f52 .cfa: $rsp 8 +
STACK CFI 20f57 .cfa: $rsp 48 +
STACK CFI INIT 20f80 1b4 .cfa: $rsp 8 + .ra: .cfa -8 + ^
STACK CFI 20f81 $rdi: .cfa -16 + ^ .cfa: $rsp 16 +
STACK CFI 20f82 $rsi: .cfa -24 + ^ .cfa: $rsp 24 +
STACK CFI 20f83 $rbx: .cfa -32 + ^ .cfa: $rsp 32 +
STACK CFI 20f87 .cfa: $rsp 64 +
STACK CFI 21130 .cfa: $rsp 32 +
STACK CFI 21131 $rbx: $rbx .cfa: $rsp 24 +
STACK CFI 21132 $rsi: $rsi .cfa: $rsp 16 +
STACK CFI 21133 $rdi: $rdi .cfa: $rsp 8 +
STACK CFI INIT 21140 65 .cfa: $rsp 8 + .ra: .cfa -8 + ^
STACK CFI 21141 $rbx: .cfa -16 + ^ .cfa: $rsp 16 +
STACK CFI 21145 .cfa: $rsp 48 +
STACK CFI 2117d .cfa: $rsp 16 +
STACK CFI 2117e $rbx: $rbx .cfa: $rsp 8 +
STACK CFI 21180 $rbx: .cfa -16 + ^ .cfa: $rsp 48 +
STACK CFI 2119f .cfa: $rsp 16 +
STACK CFI 211a0 $rbx: $rbx .cfa: $rsp 8 +
STACK CFI INIT 211b0 8c .cfa: $rsp 8 + .ra: .cfa -8 + ^
STACK CFI 211b1 $rsi: .cfa -16 + ^ .cfa: $rsp 16 +
STACK CFI 211b2 $rbx: .cfa -24 + ^ .cfa: $rsp 24 +
STACK CFI 211b6 .cfa: $rsp 64 +
STACK CFI 21218 .cfa: $rsp 24 +
STACK CFI 21219 $rbx: $rbx .cfa: $rsp 16 +
STACK CFI 2121a $rsi: $rsi .cfa: $rsp 8 +
STACK CFI 2121f $rbx: .cfa -24 + ^ $rsi: .cfa -16 + ^ .cfa: $rsp 64 +
STACK CFI INIT 21240 180 .cfa: $rsp 8 + .ra: .cfa -8 + ^
STACK CFI 21242 $r13: .cfa -16 + ^ .cfa: $rsp 16 +
STACK CFI 21244 $r12: .cfa -24 + ^ .cfa: $rsp 24 +
STACK CFI 21245 $rbp: .cfa -32 + ^ .cfa: $rsp 32 +
STACK CFI 21246 $rdi: .cfa -40 + ^ .cfa: $rsp 40 +
STACK CFI 21247 $rsi: .cfa -48 + ^ .cfa: $rsp 48 +
STACK CFI 21248 $rbx: .cfa -56 + ^ .cfa: $rsp 56 +
STACK CFI 2124c .cfa: $rsp 96 +
STACK CFI 21377 .cfa: $rsp 56 +
STACK CFI 21378 $rbx: $rbx .cfa: $rsp 48 +
STACK CFI 21379 $rsi: $rsi .cfa: $rsp 40 +
STACK CFI 2137a $rdi: $rdi .cfa: $rsp 32 +
STACK CFI 2137b $rbp: $rbp .cfa: $rsp 24 +
STACK CFI 2137d $r12: $r12 .cfa: $rsp 16 +
STACK CFI 2137f $r13: $r13 .cfa: $rsp 8 +
STACK CFI 21380 $r12: .cfa -24 + ^ $r13: .cfa -16 + ^ $rbp: .cfa -32 + ^ $rbx: .cfa -56 + ^ $rdi: .cfa -40 + ^ $rsi: .cfa -48 + ^ .cfa: $rsp 96 +
STACK CFI INIT 213c0 4d .cfa: $rsp 8 + .ra: .cfa -8 + ^
STACK CFI 213c1 $rdi: .cfa -16 + ^ .cfa: $rsp 16 +
STACK CFI 213c2 $rsi: .cfa -24 + ^ .cfa: $rsp 24 +
STACK CFI 213c3 $rbx: .cfa -32 + ^ .cfa: $rsp 32 +
STACK CFI 213c7 .cfa: $rsp 64 +
STACK CFI 21405 .cfa: $rsp 32 +
STACK CFI 21406 $rbx: $rbx .cfa: $rsp 24 +
STACK CFI 21407 $rsi: $rsi .cfa: $rsp 16 +
STACK CFI 21408 $rdi: $rdi .cfa: $rsp 8 +
STACK CFI INIT 21410 4a9 .cfa: $rsp 8 + .ra: .cfa -8 + ^
STACK CFI 21411 $rbx: .cfa -16 + ^ .cfa: $rsp 16 +
STACK CFI 21415 .cfa: $rsp 48 +
STACK CFI 218b7 .cfa: $rsp 16 +
STACK CFI 218b8 $rbx: $rbx .cfa: $rsp 8 +
STACK CFI INIT 218c0 dc .cfa: $rsp 8 + .ra: .cfa -8 + ^
STACK CFI 218c2 $r15: .cfa -16 + ^ .cfa: $rsp 16 +
STACK CFI 218c4 $r14: .cfa -24 + ^ .cfa: $rsp 24 +
STACK CFI 218c6 $r13: .cfa -32 + ^ .cfa: $rsp 32 +
STACK CFI 218c8 $r12: .cfa -40 + ^ .cfa: $rsp 40 +
STACK CFI 218c9 $rbp: .cfa -48 + ^ .cfa: $rsp 48 +
STACK CFI 218ca $rdi: .cfa -56 + ^ .cfa: $rsp 56 +
STACK CFI 218cb $rsi: .cfa -64 + ^ .cfa: $rsp 64 +
STACK CFI 218cc $rbx: .cfa -72 + ^ .cfa: $rsp 72 +
STACK CFI 218d0 .cfa: $rsp 112 +
STACK CFI 2196b .cfa: $rsp 72 +
STACK CFI 2196c $rbx: $rbx .cfa: $rsp 64 +
STACK CFI 2196d $rsi: $rsi .cfa: $rsp 56 +
STACK CFI 2196e $rdi: $rdi .cfa: $rsp 48 +
STACK CFI 2196f $rbp: $rbp .cfa: $rsp 40 +
STACK CFI 21971 $r12: $r12 .cfa: $rsp 32 +
STACK CFI 21973 $r13: $r13 .cfa: $rsp 24 +
STACK CFI 21975 $r14: $r14 .cfa: $rsp 16 +
STACK CFI 21977 $r15: $r15 .cfa: $rsp 8 +
STACK CFI 21980 $r12: .cfa -40 + ^ $r13: .cfa -32 + ^ $r14: .cfa -24 + ^ $r15: .cfa -16 + ^ $rbp: .cfa -48 + ^ $rbx: .cfa -72 + ^ $rdi: .cfa -56 + ^ $rsi: .cfa -64 + ^ .cfa: $rsp 112 +
STACK CFI INIT 219a0 411 .cfa: $rsp 8 + .ra: .cfa -8 + ^
STACK CFI 219a2 $r15: .cfa -16 + ^ .cfa: $rsp 16 +
STACK CFI 219a4 $r14: .cfa -24 + ^ .cfa: $rsp 24 +
STACK CFI 219a6 $r13: .cfa -32 + ^ .cfa: $rsp 32 +
STACK CFI 219a8 $r12: .cfa -40 + ^ .cfa: $rsp 40 +
STACK CFI 219a9 $rbp: .cfa -48 + ^ .cfa: $rsp 48 +
STACK CFI 219aa $rdi: .cfa -56 + ^ .cfa: $rsp 56 +
STACK CFI 219ab $rsi: .cfa -64 + ^ .cfa: $rsp 64 +
STACK CFI 219ac $rbx: .cfa -72 + ^ .cfa: $rsp 72 +
STACK CFI 219b3 .cfa: $rsp 1184 +
STACK CFI 21d26 .cfa: $rsp 72 +
STACK CFI 21d27 $rbx: $rbx .cfa: $rsp 64 +
STACK CFI 21d28 $rsi: $rsi .cfa: $rsp 56 +
STACK CFI 21d29 $rdi: $rdi .cfa: $rsp 48 +
STACK CFI 21d2a $rbp: $rbp .cfa: $rsp 40 +
STACK CFI 21d2c $r12: $r12 .cfa: $rsp 32 +
STACK CFI 21d2e $r13: $r13 .cfa: $rsp 24 +
STACK CFI 21d30 $r14: $r14 .cfa: $rsp 16 +
STACK CFI 21d32 $r15: $r15 .cfa: $rsp 8 +
STACK CFI 21d33 $r12: .cfa -40 + ^ $r13: .cfa -32 + ^ $r14: .cfa -24 + ^ $r15: .cfa -16 + ^ $rbp: .cfa -48 + ^ $rbx: .cfa -72 + ^ $rdi: .cfa -56 + ^ $rsi: .cfa -64 + ^ .cfa: $rsp 1184 +
STACK CFI INIT 21dc0 157 .cfa: $rsp 8 + .ra: .cfa -8 + ^
STACK CFI 21dc2 $r12: .cfa -16 + ^ .cfa: $rsp 16 +
STACK CFI 21dc3 $rbp: .cfa -24 + ^ .cfa: $rsp 24 +
STACK CFI 21dc4 $rdi: .cfa -32 + ^ .cfa: $rsp 32 +
STACK CFI 21dc5 $rsi: .cfa -40 + ^ .cfa: $rsp 40 +
STACK CFI 21dc6 $rbx: .cfa -48 + ^ .cfa: $rsp 48 +
STACK CFI 21dca .cfa: $rsp 96 +
STACK CFI 21de7 .cfa: $rsp 48 +
STACK CFI 21de8 $rbx: $rbx .cfa: $rsp 40 +
STACK CFI 21de9 $rsi: $rsi .cfa: $rsp 32 +
STACK CFI 21dea $rdi: $rdi .cfa: $rsp 24 +
STACK CFI 21deb $rbp: $rbp .cfa: $rsp 16 +
STACK CFI 21ded $r12: $r12 .cfa: $rsp 8 +
STACK CFI 21df0 $r12: .cfa -16 + ^ $rbp: .cfa -24 + ^ $rbx: .cfa -48 + ^ $rdi: .cfa -32 + ^ $rsi: .cfa -40 + ^ .cfa: $rsp 96 +
STACK CFI 21f0c .cfa: $rsp 48 +
STACK CFI 21f0d $rbx: $rbx .cfa: $rsp 40 +
STACK CFI 21f0e $rsi: $rsi .cfa: $rsp 32 +
STACK CFI 21f0f $rdi: $rdi .cfa: $rsp 24 +
STACK CFI 21f10 $rbp: $rbp .cfa: $rsp 16 +
STACK CFI 21f12 $r12: $r12 .cfa: $rsp 8 +
STACK CFI INIT 184f10 20 .cfa: $rsp 8 + .ra: .cfa -8 + ^
STACK CFI 184f14 .cfa: $rsp 48 +
STACK CFI 184f2b .cfa: $rsp 8 +
STACK CFI INIT 21f20 21 .cfa: $rsp 8 + .ra: .cfa -8 + ^
STACK CFI INIT 21f50 36 .cfa: $rsp 8 + .ra: .cfa -8 + ^
STACK CFI 21f51 $rsi: .cfa -16 + ^ .cfa: $rsp 16 +
STACK CFI 21f52 $rbx: .cfa -24 + ^ .cfa: $rsp 24 +
STACK CFI 21f56 .cfa: $rsp 64 +
STACK CFI 21f83 .cfa: $rsp 24 +
STACK CFI 21f84 $rbx: $rbx .cfa: $rsp 16 +
STACK CFI 21f85 $rsi: $rsi .cfa: $rsp 8 +
STACK CFI INIT 21f90 c .cfa: $rsp 8 + .ra: .cfa -8 + ^
STACK CFI INIT 21fa0 94 .cfa: $rsp 8 + .ra: .cfa -8 + ^
STACK CFI 21fa1 $rdi: .cfa -16 + ^ .cfa: $rsp 16 +
STACK CFI 21fa2 $rsi: .cfa -24 + ^ .cfa: $rsp 24 +
STACK CFI 21fa3 $rbx: .cfa -32 + ^ .cfa: $rsp 32 +
STACK CFI 21fa7 .cfa: $rsp 80 +
STACK CFI 21fed .cfa: $rsp 32 +
STACK CFI 21fee $rbx: $rbx .cfa: $rsp 24 +
STACK CFI 21fef $rsi: $rsi .cfa: $rsp 16 +
STACK CFI 21ff0 $rdi: $rdi .cfa: $rsp 8 +
STACK CFI 21ff1 $rbx: .cfa -32 + ^ $rdi: .cfa -16 + ^ $rsi: .cfa -24 + ^ .cfa: $rsp 80 +
STACK CFI INIT 22040 3e .cfa: $rsp 8 + .ra: .cfa -8 + ^
STACK CFI 22041 $rbx: .cfa -16 + ^ .cfa: $rsp 16 +
STACK CFI 22045 .cfa: $rsp 64 +
STACK CFI 22078 .cfa: $rsp 16 +
STACK CFI 22079 $rbx: $rbx .cfa: $rsp 8 +
STACK CFI INIT 22080 75 .cfa: $rsp 8 + .ra: .cfa -8 + ^
STACK CFI 22084 .cfa: $rsp 48 +
STACK CFI 220e7 .cfa: $rsp 8 +
STACK CFI 220f0 .cfa: $rsp 48 +
STACK CFI 220f4 .cfa: $rsp 8 +
STACK CFI INIT 22100 89 .cfa: $rsp 8 + .ra: .cfa -8 + ^
STACK CFI 22104 .cfa: $rsp 48 +
STACK CFI 2217f .cfa: $rsp 8 +
STACK CFI 22184 .cfa: $rsp 48 +
STACK CFI 22188 .cfa: $rsp 8 +
STACK CFI INIT 22190 75 .cfa: $rsp 8 + .ra: .cfa -8 + ^
STACK CFI 22194 .cfa: $rsp 48 +
STACK CFI 221f7 .cfa: $rsp 8 +
STACK CFI 22200 .cfa: $rsp 48 +
STACK CFI 22204 .cfa: $rsp 8 +
STACK CFI INIT 22210 75 .cfa: $rsp 8 + .ra: .cfa -8 + ^
STACK CFI 22214 .cfa: $rsp 48 +
STACK CFI 22277 .cfa: $rsp 8 +
STACK CFI 22280 .cfa: $rsp 48 +
STACK CFI 22284 .cfa: $rsp 8 +
STACK CFI INIT 22290 332 .cfa: $rsp 8 + .ra: .cfa -8 + ^
STACK CFI 22292 $r12: .cfa -16 + ^ .cfa: $rsp 16 +
STACK CFI 22293 $rbp: .cfa -24 + ^ .cfa: $rsp 24 +
STACK CFI 22294 $rdi: .cfa -32 + ^ .cfa: $rsp 32 +
STACK CFI 22295 $rsi: .cfa -40 + ^ .cfa: $rsp 40 +
STACK CFI 22296 $rbx: .cfa -48 + ^ .cfa: $rsp 48 +
STACK CFI 2229a .cfa: $rsp 96 +
STACK CFI 225b5 .cfa: $rsp 48 +
STACK CFI 225b6 $rbx: $rbx .cfa: $rsp 40 +
STACK CFI 225b7 $rsi: $rsi .cfa: $rsp 32 +
STACK CFI 225b8 $rdi: $rdi .cfa: $rsp 24 +
STACK CFI 225b9 $rbp: $rbp .cfa: $rsp 16 +
STACK CFI 225bb $r12: $r12 .cfa: $rsp 8 +
STACK CFI 225bc $r12: .cfa -16 + ^ $rbp: .cfa -24 + ^ $rbx: .cfa -48 + ^ $rdi: .cfa -32 + ^ $rsi: .cfa -40 + ^ .cfa: $rsp 96 +
STACK CFI INIT 225d0 28 .cfa: $rsp 8 + .ra: .cfa -8 + ^
STACK CFI 225d1 $rbx: .cfa -16 + ^ .cfa: $rsp 16 +
STACK CFI 225d5 .cfa: $rsp 48 +
STACK CFI 225f6 .cfa: $rsp 16 +
STACK CFI 225f7 $rbx: $rbx .cfa: $rsp 8 +
STACK CFI INIT 22600 4d .cfa: $rsp 8 + .ra: .cfa -8 + ^
STACK CFI 22601 $rbx: .cfa -16 + ^ .cfa: $rsp 16 +
STACK CFI 22605 .cfa: $rsp 80 +
STACK CFI 22643 .cfa: $rsp 16 +
STACK CFI 22644 $rbx: $rbx .cfa: $rsp 8 +
STACK CFI 22645 $rbx: .cfa -16 + ^ .cfa: $rsp 80 +
STACK CFI 2264b .cfa: $rsp 16 +
STACK CFI 2264c $rbx: $rbx .cfa: $rsp 8 +
STACK CFI INIT 22650 a .cfa: $rsp 8 + .ra: .cfa -8 + ^
STACK CFI INIT 22660 3c .cfa: $rsp 8 + .ra: .cfa -8 + ^
STACK CFI INIT 226a0 104 .cfa: $rsp 8 + .ra: .cfa -8 + ^
STACK CFI 226a1 $rbp: .cfa -16 + ^ .cfa: $rsp 16 +
STACK CFI 226a2 $rdi: .cfa -24 + ^ .cfa: $rsp 24 +
STACK CFI 226a3 $rsi: .cfa -32 + ^ .cfa: $rsp 32 +
STACK CFI 226a4 $rbx: .cfa -40 + ^ .cfa: $rsp 40 +
STACK CFI 226a8 .cfa: $rsp 80 +
STACK CFI 22723 .cfa: $rsp 40 +
STACK CFI 22724 $rbx: $rbx .cfa: $rsp 32 +
STACK CFI 22725 $rsi: $rsi .cfa: $rsp 24 +
STACK CFI 22726 $rdi: $rdi .cfa: $rsp 16 +
STACK CFI 22727 $rbp: $rbp .cfa: $rsp 8 +
STACK CFI 22730 $rbp: .cfa -16 + ^ $rbx: .cfa -40 + ^ $rdi: .cfa -24 + ^ $rsi: .cfa -32 + ^ .cfa: $rsp 80 +
STACK CFI INIT 227b0 c9 .cfa: $rsp 8 + .ra: .cfa -8 + ^
STACK CFI 227b4 .cfa: $rsp 64 +
STACK CFI 2282f .cfa: $rsp 8 +
STACK CFI 22830 .cfa: $rsp 64 +
STACK CFI 22850 .cfa: $rsp 8 +
STACK CFI 22851 .cfa: $rsp 64 +
STACK CFI INIT 22880 37 .cfa: $rsp 8 + .ra: .cfa -8 + ^
STACK CFI INIT 228c0 2e .cfa: $rsp 8 + .ra: .cfa -8 + ^
STACK CFI 228c1 $rbx: .cfa -16 + ^ .cfa: $rsp 16 +
STACK CFI 228c5 .cfa: $rsp 64 +
STACK CFI 228ec .cfa: $rsp 16 +
STACK CFI 228ed $rbx: $rbx .cfa: $rsp 8 +
STACK CFI INIT 228f0 3f .cfa: $rsp 8 + .ra: .cfa -8 + ^
STACK CFI 228f4 .cfa: $rsp 64 +
STACK CFI 22901 .cfa: $rsp 8 +
STACK CFI 22902 .cfa: $rsp 64 +
STACK CFI 2292e .cfa: $rsp 8 +
STACK CFI INIT 22930 12f .cfa: $rsp 8 + .ra: .cfa -8 + ^
STACK CFI 22932 $r12: .cfa -16 + ^ .cfa: $rsp 16 +
STACK CFI 22933 $rbp: .cfa -24 + ^ .cfa: $rsp 24 +
STACK CFI 22934 $rdi: .cfa -32 + ^ .cfa: $rsp 32 +
STACK CFI 22935 $rsi: .cfa -40 + ^ .cfa: $rsp 40 +
STACK CFI 22936 $rbx: .cfa -48 + ^ .cfa: $rsp 48 +
STACK CFI 2293a .cfa: $rsp 112 +
STACK CFI 22985 .cfa: $rsp 48 +
STACK CFI 22986 $rbx: $rbx .cfa: $rsp 40 +
STACK CFI 22987 $rsi: $rsi .cfa: $rsp 32 +
STACK CFI 22988 $rdi: $rdi .cfa: $rsp 24 +
STACK CFI 22989 $rbp: $rbp .cfa: $rsp 16 +
STACK CFI 2298b $r12: $r12 .cfa: $rsp 8 +
STACK CFI 22990 $r12: .cfa -16 + ^ $rbp: .cfa -24 + ^ $rbx: .cfa -48 + ^ $rdi: .cfa -32 + ^ $rsi: .cfa -40 + ^ .cfa: $rsp 112 +
STACK CFI 22a58 .cfa: $rsp 48 +
STACK CFI 22a59 $rbx: $rbx .cfa: $rsp 40 +
STACK CFI 22a5a $rsi: $rsi .cfa: $rsp 32 +
STACK CFI 22a5b $rdi: $rdi .cfa: $rsp 24 +
STACK CFI 22a5c $rbp: $rbp .cfa: $rsp 16 +
STACK CFI 22a5e $r12: $r12 .cfa: $rsp 8 +
STACK CFI INIT 22a60 338 .cfa: $rsp 8 + .ra: .cfa -8 + ^
STACK CFI 22a62 $r15: .cfa -16 + ^ .cfa: $rsp 16 +
STACK CFI 22a64 $r14: .cfa -24 + ^ .cfa: $rsp 24 +
STACK CFI 22a66 $r13: .cfa -32 + ^ .cfa: $rsp 32 +
STACK CFI 22a68 $r12: .cfa -40 + ^ .cfa: $rsp 40 +
STACK CFI 22a69 $rbp: .cfa -48 + ^ .cfa: $rsp 48 +
STACK CFI 22a6a $rdi: .cfa -56 + ^ .cfa: $rsp 56 +
STACK CFI 22a6b $rsi: .cfa -64 + ^ .cfa: $rsp 64 +
STACK CFI 22a6c $rbx: .cfa -72 + ^ .cfa: $rsp 72 +
STACK CFI 22a70 .cfa: $rsp 160 +
STACK CFI 22ad9 .cfa: $rsp 72 +
STACK CFI 22ada $rbx: $rbx .cfa: $rsp 64 +
STACK CFI 22adb $rsi: $rsi .cfa: $rsp 56 +
STACK CFI 22adc $rdi: $rdi .cfa: $rsp 48 +
STACK CFI 22add $rbp: $rbp .cfa: $rsp 40 +
STACK CFI 22adf $r12: $r12 .cfa: $rsp 32 +
STACK CFI 22ae1 $r13: $r13 .cfa: $rsp 24 +
STACK CFI 22ae3 $r14: $r14 .cfa: $rsp 16 +
STACK CFI 22ae5 $r15: $r15 .cfa: $rsp 8 +
STACK CFI 22af0 $r12: .cfa -40 + ^ $r13: .cfa -32 + ^ $r14: .cfa -24 + ^ $r15: .cfa -16 + ^ $rbp: .cfa -48 + ^ $rbx: .cfa -72 + ^ $rdi: .cfa -56 + ^ $rsi: .cfa -64 + ^ .cfa: $rsp 160 +
STACK CFI INIT 22da0 394 .cfa: $rsp 8 + .ra: .cfa -8 + ^
STACK CFI 22da2 $r15: .cfa -16 + ^ .cfa: $rsp 16 +
STACK CFI 22da4 $r14: .cfa -24 + ^ .cfa: $rsp 24 +
STACK CFI 22da6 $r13: .cfa -32 + ^ .cfa: $rsp 32 +
STACK CFI 22da8 $r12: .cfa -40 + ^ .cfa: $rsp 40 +
STACK CFI 22da9 $rbp: .cfa -48 + ^ .cfa: $rsp 48 +
STACK CFI 22daa $rdi: .cfa -56 + ^ .cfa: $rsp 56 +
STACK CFI 22dab $rsi: .cfa -64 + ^ .cfa: $rsp 64 +
STACK CFI 22dac $rbx: .cfa -72 + ^ .cfa: $rsp 72 +
STACK CFI 22db3 .cfa: $rsp 1168 +
STACK CFI 22e68 .cfa: $rsp 72 +
STACK CFI 22e69 $rbx: $rbx .cfa: $rsp 64 +
STACK CFI 22e6a $rsi: $rsi .cfa: $rsp 56 +
STACK CFI 22e6b $rdi: $rdi .cfa: $rsp 48 +
STACK CFI 22e6c $rbp: $rbp .cfa: $rsp 40 +
STACK CFI 22e6e $r12: $r12 .cfa: $rsp 32 +
STACK CFI 22e70 $r13: $r13 .cfa: $rsp 24 +
STACK CFI 22e72 $r14: $r14 .cfa: $rsp 16 +
STACK CFI 22e74 $r15: $r15 .cfa: $rsp 8 +
STACK CFI 22e75 $r12: .cfa -40 + ^ $r13: .cfa -32 + ^ $r14: .cfa -24 + ^ $r15: .cfa -16 + ^ $rbp: .cfa -48 + ^ $rbx: .cfa -72 + ^ $rdi: .cfa -56 + ^ $rsi: .cfa -64 + ^ .cfa: $rsp 1168 +
STACK CFI INIT 23140 2f4 .cfa: $rsp 8 + .ra: .cfa -8 + ^
STACK CFI 23142 $r15: .cfa -16 + ^ .cfa: $rsp 16 +
STACK CFI 23144 $r14: .cfa -24 + ^ .cfa: $rsp 24 +
STACK CFI 23146 $r13: .cfa -32 + ^ .cfa: $rsp 32 +
STACK CFI 23148 $r12: .cfa -40 + ^ .cfa: $rsp 40 +
STACK CFI 23149 $rbp: .cfa -48 + ^ .cfa: $rsp 48 +
STACK CFI 2314a $rdi: .cfa -56 + ^ .cfa: $rsp 56 +
STACK CFI 2314b $rsi: .cfa -64 + ^ .cfa: $rsp 64 +
STACK CFI 2314c $rbx: .cfa -72 + ^ .cfa: $rsp 72 +
STACK CFI 23153 .cfa: $rsp 304 +
STACK CFI 23203 .cfa: $rsp 72 +
STACK CFI 23204 $rbx: $rbx .cfa: $rsp 64 +
STACK CFI 23205 $rsi: $rsi .cfa: $rsp 56 +
STACK CFI 23206 $rdi: $rdi .cfa: $rsp 48 +
STACK CFI 23207 $rbp: $rbp .cfa: $rsp 40 +
STACK CFI 23209 $r12: $r12 .cfa: $rsp 32 +
STACK CFI 2320b $r13: $r13 .cfa: $rsp 24 +
STACK CFI 2320d $r14: $r14 .cfa: $rsp 16 +
STACK CFI 2320f $r15: $r15 .cfa: $rsp 8 +
STACK CFI 23210 $r12: .cfa -40 + ^ $r13: .cfa -32 + ^ $r14: .cfa -24 + ^ $r15: .cfa -16 + ^ $rbp: .cfa -48 + ^ $rbx: .cfa -72 + ^ $rdi: .cfa -56 + ^ $rsi: .cfa -64 + ^ .cfa: $rsp 304 +
STACK CFI INIT 23440 12d .cfa: $rsp 8 + .ra: .cfa -8 + ^
STACK CFI 23442 $r12: .cfa -16 + ^ .cfa: $rsp 16 +
STACK CFI 23443 $rbp: .cfa -24 + ^ .cfa: $rsp 24 +
STACK CFI 23444 $rdi: .cfa -32 + ^ .cfa: $rsp 32 +
STACK CFI 23445 $rsi: .cfa -40 + ^ .cfa: $rsp 40 +
STACK CFI 23446 $rbx: .cfa -48 + ^ .cfa: $rsp 48 +
STACK CFI 2344a .cfa: $rsp 112 +
STACK CFI 23514 .cfa: $rsp 48 +
STACK CFI 23515 $rbx: $rbx .cfa: $rsp 40 +
STACK CFI 23516 $rsi: $rsi .cfa: $rsp 32 +
STACK CFI 23517 $rdi: $rdi .cfa: $rsp 24 +
STACK CFI 23518 $rbp: $rbp .cfa: $rsp 16 +
STACK CFI 2351a $r12: $r12 .cfa: $rsp 8 +
STACK CFI 23520 $r12: .cfa -16 + ^ $rbp: .cfa -24 + ^ $rbx: .cfa -48 + ^ $rdi: .cfa -32 + ^ $rsi: .cfa -40 + ^ .cfa: $rsp 112 +
STACK CFI INIT 23570 81 .cfa: $rsp 8 + .ra: .cfa -8 + ^
STACK CFI 23571 $rdi: .cfa -16 + ^ .cfa: $rsp 16 +
STACK CFI 23572 $rsi: .cfa -24 + ^ .cfa: $rsp 24 +
STACK CFI 23573 $rbx: .cfa -32 + ^ .cfa: $rsp 32 +
STACK CFI 23577 .cfa: $rsp 96 +
STACK CFI 235ed .cfa: $rsp 32 +
STACK CFI 235ee $rbx: $rbx .cfa: $rsp 24 +
STACK CFI 235ef $rsi: $rsi .cfa: $rsp 16 +
STACK CFI 235f0 $rdi: $rdi .cfa: $rsp 8 +
STACK CFI INIT 23600 1c8 .cfa: $rsp 8 + .ra: .cfa -8 + ^
STACK CFI 23601 $rdi: .cfa -16 + ^ .cfa: $rsp 16 +
STACK CFI 23602 $rsi: .cfa -24 + ^ .cfa: $rsp 24 +
STACK CFI 23608 $rbx: .cfa -32 + ^ .cfa: $rsp 32 +
STACK CFI 23610 .cfa: $rsp 32864 +
STACK CFI 23691 .cfa: $rsp 32 +
STACK CFI 23692 $rbx: $rbx .cfa: $rsp 24 +
STACK CFI 23693 $rsi: $rsi .cfa: $rsp 16 +
STACK CFI 23694 $rdi: $rdi .cfa: $rsp 8 +
STACK CFI 23695 $rbx: .cfa -32 + ^ $rdi: .cfa -16 + ^ $rsi: .cfa -24 + ^ .cfa: $rsp 32864 +
STACK CFI 236ad .cfa: $rsp 32 +
STACK CFI 236ae $rbx: $rbx .cfa: $rsp 24 +
STACK CFI 236af $rsi: $rsi .cfa: $rsp 16 +
STACK CFI 236b0 $rdi: $rdi .cfa: $rsp 8 +
STACK CFI 236b1 $rbx: .cfa -32 + ^ $rdi: .cfa -16 + ^ $rsi: .cfa -24 + ^ .cfa: $rsp 32864 +
STACK CFI 23790 .cfa: $rsp 32 +
STACK CFI 23791 $rbx: $rbx .cfa: $rsp 24 +
STACK CFI 23792 $rsi: $rsi .cfa: $rsp 16 +
STACK CFI 23793 $rdi: $rdi .cfa: $rsp 8 +
STACK CFI 23794 $rbx: .cfa -32 + ^ $rdi: .cfa -16 + ^ $rsi: .cfa -24 + ^ .cfa: $rsp 32864 +
STACK CFI INIT 237d0 125 .cfa: $rsp 8 + .ra: .cfa -8 + ^
STACK CFI 237d2 $r13: .cfa -16 + ^ .cfa: $rsp 16 +
STACK CFI 237d4 $r12: .cfa -24 + ^ .cfa: $rsp 24 +
STACK CFI 237d5 $rbp: .cfa -32 + ^ .cfa: $rsp 32 +
STACK CFI 237d6 $rdi: .cfa -40 + ^ .cfa: $rsp 40 +
STACK CFI 237d7 $rsi: .cfa -48 + ^ .cfa: $rsp 48 +
STACK CFI 237d8 $rbx: .cfa -56 + ^ .cfa: $rsp 56 +
STACK CFI 237dc .cfa: $rsp 112 +
STACK CFI 237fb .cfa: $rsp 56 +
STACK CFI 237fc $rbx: $rbx .cfa: $rsp 48 +
STACK CFI 237fd $rsi: $rsi .cfa: $rsp 40 +
STACK CFI 237fe $rdi: $rdi .cfa: $rsp 32 +
STACK CFI 237ff $rbp: $rbp .cfa: $rsp 24 +
STACK CFI 23801 $r12: $r12 .cfa: $rsp 16 +
STACK CFI 23803 $r13: $r13 .cfa: $rsp 8 +
STACK CFI 23804 $r12: .cfa -24 + ^ $r13: .cfa -16 + ^ $rbp: .cfa -32 + ^ $rbx: .cfa -56 + ^ $rdi: .cfa -40 + ^ $rsi: .cfa -48 + ^ .cfa: $rsp 112 +
STACK CFI INIT 23900 16 .cfa: $rsp 8 + .ra: .cfa -8 + ^
STACK CFI INIT 23920 4a7 .cfa: $rsp 8 + .ra: .cfa -8 + ^
STACK CFI 23922 $r13: .cfa -16 + ^ .cfa: $rsp 16 +
STACK CFI 23924 $r12: .cfa -24 + ^ .cfa: $rsp 24 +
STACK CFI 23925 $rbp: .cfa -32 + ^ .cfa: $rsp 32 +
STACK CFI 23926 $rdi: .cfa -40 + ^ .cfa: $rsp 40 +
STACK CFI 23927 $rsi: .cfa -48 + ^ .cfa: $rsp 48 +
STACK CFI 23928 $rbx: .cfa -56 + ^ .cfa: $rsp 56 +
STACK CFI 2392f .cfa: $rsp 192 +
STACK CFI 23934 $xmm6: .cfa -80 + ^
STACK CFI 23996 $xmm6: $xmm6 .cfa: $rsp 56 +
STACK CFI 23997 $rbx: $rbx .cfa: $rsp 48 +
STACK CFI 23998 $rsi: $rsi .cfa: $rsp 40 +
STACK CFI 23999 $rdi: $rdi .cfa: $rsp 32 +
STACK CFI 2399a $rbp: $rbp .cfa: $rsp 24 +
STACK CFI 2399c $r12: $r12 .cfa: $rsp 16 +
STACK CFI 2399e $r13: $r13 .cfa: $rsp 8 +
STACK CFI 239a0 $r12: .cfa -24 + ^ $r13: .cfa -16 + ^ $rbp: .cfa -32 + ^ $rbx: .cfa -56 + ^ $rdi: .cfa -40 + ^ $rsi: .cfa -48 + ^ $xmm6: .cfa -80 + ^ .cfa: $rsp 192 +
STACK CFI INIT 23dd0 16dc .cfa: $rsp 8 + .ra: .cfa -8 + ^
STACK CFI 23dd2 $r15: .cfa -16 + ^ .cfa: $rsp 16 +
STACK CFI 23dd4 $r14: .cfa -24 + ^ .cfa: $rsp 24 +
STACK CFI 23dd6 $r13: .cfa -32 + ^ .cfa: $rsp 32 +
STACK CFI 23dd8 $r12: .cfa -40 + ^ .cfa: $rsp 40 +
STACK CFI 23dd9 $rbp: .cfa -48 + ^ .cfa: $rsp 48 +
STACK CFI 23dda $rdi: .cfa -56 + ^ .cfa: $rsp 56 +
STACK CFI 23ddb $rsi: .cfa -64 + ^ .cfa: $rsp 64 +
STACK CFI 23ddc $rbx: .cfa -72 + ^ .cfa: $rsp 72 +
STACK CFI 23de3 .cfa: $rsp 1056 +
STACK CFI 23e0b .cfa: $rsp 72 +
STACK CFI 23e0c $rbx: $rbx .cfa: $rsp 64 +
STACK CFI 23e0d $rsi: $rsi .cfa: $rsp 56 +
STACK CFI 23e0e $rdi: $rdi .cfa: $rsp 48 +
STACK CFI 23e0f $rbp: $rbp .cfa: $rsp 40 +
STACK CFI 23e11 $r12: $r12 .cfa: $rsp 32 +
STACK CFI 23e13 $r13: $r13 .cfa: $rsp 24 +
STACK CFI 23e15 $r14: $r14 .cfa: $rsp 16 +
STACK CFI 23e17 $r15: $r15 .cfa: $rsp 8 +
STACK CFI 23e20 $r12: .cfa -40 + ^ $r13: .cfa -32 + ^ $r14: .cfa -24 + ^ $r15: .cfa -16 + ^ $rbp: .cfa -48 + ^ $rbx: .cfa -72 + ^ $rdi: .cfa -56 + ^ $rsi: .cfa -64 + ^ .cfa: $rsp 1056 +
STACK CFI INIT 254b0 8b6 .cfa: $rsp 8 + .ra: .cfa -8 + ^
STACK CFI 254b2 $r15: .cfa -16 + ^ .cfa: $rsp 16 +
STACK CFI 254b4 $r14: .cfa -24 + ^ .cfa: $rsp 24 +
STACK CFI 254b6 $r13: .cfa -32 + ^ .cfa: $rsp 32 +
STACK CFI 254b8 $r12: .cfa -40 + ^ .cfa: $rsp 40 +
STACK CFI 254b9 $rbp: .cfa -48 + ^ .cfa: $rsp 48 +
STACK CFI 254ba $rdi: .cfa -56 + ^ .cfa: $rsp 56 +
STACK CFI 254bb $rsi: .cfa -64 + ^ .cfa: $rsp 64 +
STACK CFI 254bc $rbx: .cfa -72 + ^ .cfa: $rsp 72 +
STACK CFI 254c3 .cfa: $rsp 848 +
STACK CFI 254de .cfa: $rsp 72 +
STACK CFI 254df $rbx: $rbx .cfa: $rsp 64 +
STACK CFI 254e0 $rsi: $rsi .cfa: $rsp 56 +
STACK CFI 254e1 $rdi: $rdi .cfa: $rsp 48 +
STACK CFI 254e2 $rbp: $rbp .cfa: $rsp 40 +
STACK CFI 254e4 $r12: $r12 .cfa: $rsp 32 +
STACK CFI 254e6 $r13: $r13 .cfa: $rsp 24 +
STACK CFI 254e8 $r14: $r14 .cfa: $rsp 16 +
STACK CFI 254ea $r15: $r15 .cfa: $rsp 8 +
STACK CFI 254f0 $r12: .cfa -40 + ^ $r13: .cfa -32 + ^ $r14: .cfa -24 + ^ $r15: .cfa -16 + ^ $rbp: .cfa -48 + ^ $rbx: .cfa -72 + ^ $rdi: .cfa -56 + ^ $rsi: .cfa -64 + ^ .cfa: $rsp 848 +
STACK CFI INIT 25d70 12d8 .cfa: $rsp 8 + .ra: .cfa -8 + ^
STACK CFI 25d72 $r15: .cfa -16 + ^ .cfa: $rsp 16 +
STACK CFI 25d74 $r14: .cfa -24 + ^ .cfa: $rsp 24 +
STACK CFI 25d76 $r13: .cfa -32 + ^ .cfa: $rsp 32 +
STACK CFI 25d78 $r12: .cfa -40 + ^ .cfa: $rsp 40 +
STACK CFI 25d79 $rbp: .cfa -48 + ^ .cfa: $rsp 48 +
STACK CFI 25d7a $rdi: .cfa -56 + ^ .cfa: $rsp 56 +
STACK CFI 25d7b $rsi: .cfa -64 + ^ .cfa: $rsp 64 +
STACK CFI 25d7c $rbx: .cfa -72 + ^ .cfa: $rsp 72 +
STACK CFI 25d83 .cfa: $rsp 384 +
STACK CFI 25d99 .cfa: $rsp 72 +
STACK CFI 25d9a $rbx: $rbx .cfa: $rsp 64 +
STACK CFI 25d9b $rsi: $rsi .cfa: $rsp 56 +
STACK CFI 25d9c $rdi: $rdi .cfa: $rsp 48 +
STACK CFI 25d9d $rbp: $rbp .cfa: $rsp 40 +
STACK CFI 25d9f $r12: $r12 .cfa: $rsp 32 +
STACK CFI 25da1 $r13: $r13 .cfa: $rsp 24 +
STACK CFI 25da3 $r14: $r14 .cfa: $rsp 16 +
STACK CFI 25da5 $r15: $r15 .cfa: $rsp 8 +
STACK CFI 25db0 $r12: .cfa -40 + ^ $r13: .cfa -32 + ^ $r14: .cfa -24 + ^ $r15: .cfa -16 + ^ $rbp: .cfa -48 + ^ $rbx: .cfa -72 + ^ $rdi: .cfa -56 + ^ $rsi: .cfa -64 + ^ .cfa: $rsp 384 +
STACK CFI INIT 27050 c34 .cfa: $rsp 8 + .ra: .cfa -8 + ^
STACK CFI 27052 $r15: .cfa -16 + ^ .cfa: $rsp 16 +
STACK CFI 27054 $r14: .cfa -24 + ^ .cfa: $rsp 24 +
STACK CFI 27056 $r13: .cfa -32 + ^ .cfa: $rsp 32 +
STACK CFI 27058 $r12: .cfa -40 + ^ .cfa: $rsp 40 +
STACK CFI 27059 $rbp: .cfa -48 + ^ .cfa: $rsp 48 +
STACK CFI 2705a $rdi: .cfa -56 + ^ .cfa: $rsp 56 +
STACK CFI 2705b $rsi: .cfa -64 + ^ .cfa: $rsp 64 +
STACK CFI 2705c $rbx: .cfa -72 + ^ .cfa: $rsp 72 +
STACK CFI 27063 .cfa: $rsp 800 +
STACK CFI 27207 .cfa: $rsp 72 +
STACK CFI 27208 $rbx: $rbx .cfa: $rsp 64 +
STACK CFI 27209 $rsi: $rsi .cfa: $rsp 56 +
STACK CFI 2720a $rdi: $rdi .cfa: $rsp 48 +
STACK CFI 2720b $rbp: $rbp .cfa: $rsp 40 +
STACK CFI 2720d $r12: $r12 .cfa: $rsp 32 +
STACK CFI 2720f $r13: $r13 .cfa: $rsp 24 +
STACK CFI 27211 $r14: $r14 .cfa: $rsp 16 +
STACK CFI 27213 $r15: $r15 .cfa: $rsp 8 +
STACK CFI 27214 $r12: .cfa -40 + ^ $r13: .cfa -32 + ^ $r14: .cfa -24 + ^ $r15: .cfa -16 + ^ $rbp: .cfa -48 + ^ $rbx: .cfa -72 + ^ $rdi: .cfa -56 + ^ $rsi: .cfa -64 + ^ .cfa: $rsp 800 +
STACK CFI INIT 27c90 20f .cfa: $rsp 8 + .ra: .cfa -8 + ^
STACK CFI 27c92 $r14: .cfa -16 + ^ .cfa: $rsp 16 +
STACK CFI 27c94 $r13: .cfa -24 + ^ .cfa: $rsp 24 +
STACK CFI 27c96 $r12: .cfa -32 + ^ .cfa: $rsp 32 +
STACK CFI 27c97 $rbp: .cfa -40 + ^ .cfa: $rsp 40 +
STACK CFI 27c98 $rdi: .cfa -48 + ^ .cfa: $rsp 48 +
STACK CFI 27c99 $rsi: .cfa -56 + ^ .cfa: $rsp 56 +
STACK CFI 27c9a $rbx: .cfa -64 + ^ .cfa: $rsp 64 +
STACK CFI 27ca1 .cfa: $rsp 208 +
STACK CFI 27db4 .cfa: $rsp 64 +
STACK CFI 27db5 $rbx: $rbx .cfa: $rsp 56 +
STACK CFI 27db6 $rsi: $rsi .cfa: $rsp 48 +
STACK CFI 27db7 $rdi: $rdi .cfa: $rsp 40 +
STACK CFI 27db8 $rbp: $rbp .cfa: $rsp 32 +
STACK CFI 27dba $r12: $r12 .cfa: $rsp 24 +
STACK CFI 27dbc $r13: $r13 .cfa: $rsp 16 +
STACK CFI 27dbe $r14: $r14 .cfa: $rsp 8 +
STACK CFI 27dc0 $r12: .cfa -32 + ^ $r13: .cfa -24 + ^ $r14: .cfa -16 + ^ $rbp: .cfa -40 + ^ $rbx: .cfa -64 + ^ $rdi: .cfa -48 + ^ $rsi: .cfa -56 + ^ .cfa: $rsp 208 +
STACK CFI INIT 184f30 55f .cfa: $rsp 8 + .ra: .cfa -8 + ^
STACK CFI 184f32 $r12: .cfa -16 + ^ .cfa: $rsp 16 +
STACK CFI 184f33 $rbp: .cfa -24 + ^ .cfa: $rsp 24 +
STACK CFI 184f34 $rdi: .cfa -32 + ^ .cfa: $rsp 32 +
STACK CFI 184f35 $rsi: .cfa -40 + ^ .cfa: $rsp 40 +
STACK CFI 184f36 $rbx: .cfa -48 + ^ .cfa: $rsp 48 +
STACK CFI 184f3d .cfa: $rsp 240 +
STACK CFI 185334 .cfa: $rsp 48 +
STACK CFI 185335 $rbx: $rbx .cfa: $rsp 40 +
STACK CFI 185336 $rsi: $rsi .cfa: $rsp 32 +
STACK CFI 185337 $rdi: $rdi .cfa: $rsp 24 +
STACK CFI 185338 $rbp: $rbp .cfa: $rsp 16 +
STACK CFI 18533a $r12: $r12 .cfa: $rsp 8 +
STACK CFI 18533b $r12: .cfa -16 + ^ $rbp: .cfa -24 + ^ $rbx: .cfa -48 + ^ $rdi: .cfa -32 + ^ $rsi: .cfa -40 + ^ .cfa: $rsp 240 +
STACK CFI INIT 185490 5 .cfa: $rsp 8 + .ra: .cfa -8 + ^
STACK CFI INIT 27ea0 c .cfa: $rsp 8 + .ra: .cfa -8 + ^
STACK CFI INIT 27eb0 46 .cfa: $rsp 8 + .ra: .cfa -8 + ^
STACK CFI 27eb1 $rsi: .cfa -16 + ^ .cfa: $rsp 16 +
STACK CFI 27eb2 $rbx: .cfa -24 + ^ .cfa: $rsp 24 +
STACK CFI 27eb6 .cfa: $rsp 64 +
STACK CFI 27ef3 .cfa: $rsp 24 +
STACK CFI 27ef4 $rbx: $rbx .cfa: $rsp 16 +
STACK CFI 27ef5 $rsi: $rsi .cfa: $rsp 8 +
STACK CFI INIT 27f00 78 .cfa: $rsp 8 + .ra: .cfa -8 + ^
STACK CFI 27f01 $rdi: .cfa -16 + ^ .cfa: $rsp 16 +
STACK CFI 27f02 $rsi: .cfa -24 + ^ .cfa: $rsp 24 +
STACK CFI 27f03 $rbx: .cfa -32 + ^ .cfa: $rsp 32 +
STACK CFI 27f07 .cfa: $rsp 64 +
STACK CFI 27f74 .cfa: $rsp 32 +
STACK CFI 27f75 $rbx: $rbx .cfa: $rsp 24 +
STACK CFI 27f76 $rsi: $rsi .cfa: $rsp 16 +
STACK CFI 27f77 $rdi: $rdi .cfa: $rsp 8 +
STACK CFI INIT 27f80 136 .cfa: $rsp 8 + .ra: .cfa -8 + ^
STACK CFI 27f81 $rbp: .cfa -16 + ^ .cfa: $rsp 16 +
STACK CFI 27f82 $rdi: .cfa -24 + ^ .cfa: $rsp 24 +
STACK CFI 27f83 $rsi: .cfa -32 + ^ .cfa: $rsp 32 +
STACK CFI 27f84 $rbx: .cfa -40 + ^ .cfa: $rsp 40 +
STACK CFI 27f88 .cfa: $rsp 80 +
STACK CFI 28024 .cfa: $rsp 40 +
STACK CFI 28025 $rbx: $rbx .cfa: $rsp 32 +
STACK CFI 28026 $rsi: $rsi .cfa: $rsp 24 +
STACK CFI 28027 $rdi: $rdi .cfa: $rsp 16 +
STACK CFI 28028 $rbp: $rbp .cfa: $rsp 8 +
STACK CFI 28030 $rbp: .cfa -16 + ^ $rbx: .cfa -40 + ^ $rdi: .cfa -24 + ^ $rsi: .cfa -32 + ^ .cfa: $rsp 80 +
STACK CFI 2803e .cfa: $rsp 40 +
STACK CFI 2803f $rbx: $rbx .cfa: $rsp 32 +
STACK CFI 28040 $rsi: $rsi .cfa: $rsp 24 +
STACK CFI 28041 $rdi: $rdi .cfa: $rsp 16 +
STACK CFI 28042 $rbp: $rbp .cfa: $rsp 8 +
STACK CFI 28050 $rbp: .cfa -16 + ^ $rbx: .cfa -40 + ^ $rdi: .cfa -24 + ^ $rsi: .cfa -32 + ^ .cfa: $rsp 80 +
STACK CFI INIT 1854a0 20 .cfa: $rsp 8 + .ra: .cfa -8 + ^
STACK CFI 1854a4 .cfa: $rsp 48 +
STACK CFI 1854bb .cfa: $rsp 8 +
STACK CFI INIT 280c0 c .cfa: $rsp 8 + .ra: .cfa -8 + ^
STACK CFI INIT 280d0 c .cfa: $rsp 8 + .ra: .cfa -8 + ^
STACK CFI INIT 280e0 94 .cfa: $rsp 8 + .ra: .cfa -8 + ^
STACK CFI 280e1 $rdi: .cfa -16 + ^ .cfa: $rsp 16 +
STACK CFI 280e2 $rsi: .cfa -24 + ^ .cfa: $rsp 24 +
STACK CFI 280e3 $rbx: .cfa -32 + ^ .cfa: $rsp 32 +
STACK CFI 280e7 .cfa: $rsp 80 +
STACK CFI 2812d .cfa: $rsp 32 +
STACK CFI 2812e $rbx: $rbx .cfa: $rsp 24 +
STACK CFI 2812f $rsi: $rsi .cfa: $rsp 16 +
STACK CFI 28130 $rdi: $rdi .cfa: $rsp 8 +
STACK CFI 28131 $rbx: .cfa -32 + ^ $rdi: .cfa -16 + ^ $rsi: .cfa -24 + ^ .cfa: $rsp 80 +
STACK CFI INIT 28180 30 .cfa: $rsp 8 + .ra: .cfa -8 + ^
STACK CFI 28181 $rsi: .cfa -16 + ^ .cfa: $rsp 16 +
STACK CFI 28182 $rbx: .cfa -24 + ^ .cfa: $rsp 24 +
STACK CFI 28186 .cfa: $rsp 64 +
STACK CFI 281a9 .cfa: $rsp 24 +
STACK CFI 281aa $rbx: $rbx .cfa: $rsp 16 +
STACK CFI 281ab $rsi: $rsi .cfa: $rsp 8 +
STACK CFI INIT 281b0 375 .cfa: $rsp 8 + .ra: .cfa -8 + ^
STACK CFI 281b2 $r13: .cfa -16 + ^ .cfa: $rsp 16 +
STACK CFI 281b4 $r12: .cfa -24 + ^ .cfa: $rsp 24 +
STACK CFI 281b5 $rbp: .cfa -32 + ^ .cfa: $rsp 32 +
STACK CFI 281b6 $rdi: .cfa -40 + ^ .cfa: $rsp 40 +
STACK CFI 281b7 $rsi: .cfa -48 + ^ .cfa: $rsp 48 +
STACK CFI 281b8 $rbx: .cfa -56 + ^ .cfa: $rsp 56 +
STACK CFI 281bf .cfa: $rsp 304 +
STACK CFI 28459 .cfa: $rsp 56 +
STACK CFI 2845a $rbx: $rbx .cfa: $rsp 48 +
STACK CFI 2845b $rsi: $rsi .cfa: $rsp 40 +
STACK CFI 2845c $rdi: $rdi .cfa: $rsp 32 +
STACK CFI 2845d $rbp: $rbp .cfa: $rsp 24 +
STACK CFI 2845f $r12: $r12 .cfa: $rsp 16 +
STACK CFI 28461 $r13: $r13 .cfa: $rsp 8 +
STACK CFI 28462 $r12: .cfa -24 + ^ $r13: .cfa -16 + ^ $rbp: .cfa -32 + ^ $rbx: .cfa -56 + ^ $rdi: .cfa -40 + ^ $rsi: .cfa -48 + ^ .cfa: $rsp 304 +
STACK CFI INIT 28530 375 .cfa: $rsp 8 + .ra: .cfa -8 + ^
STACK CFI 28532 $r13: .cfa -16 + ^ .cfa: $rsp 16 +
STACK CFI 28534 $r12: .cfa -24 + ^ .cfa: $rsp 24 +
STACK CFI 28535 $rbp: .cfa -32 + ^ .cfa: $rsp 32 +
STACK CFI 28536 $rdi: .cfa -40 + ^ .cfa: $rsp 40 +
STACK CFI 28537 $rsi: .cfa -48 + ^ .cfa: $rsp 48 +
STACK CFI 28538 $rbx: .cfa -56 + ^ .cfa: $rsp 56 +
STACK CFI 2853f .cfa: $rsp 304 +
STACK CFI 287d9 .cfa: $rsp 56 +
STACK CFI 287da $rbx: $rbx .cfa: $rsp 48 +
STACK CFI 287db $rsi: $rsi .cfa: $rsp 40 +
STACK CFI 287dc $rdi: $rdi .cfa: $rsp 32 +
STACK CFI 287dd $rbp: $rbp .cfa: $rsp 24 +
STACK CFI 287df $r12: $r12 .cfa: $rsp 16 +
STACK CFI 287e1 $r13: $r13 .cfa: $rsp 8 +
STACK CFI 287e2 $r12: .cfa -24 + ^ $r13: .cfa -16 + ^ $rbp: .cfa -32 + ^ $rbx: .cfa -56 + ^ $rdi: .cfa -40 + ^ $rsi: .cfa -48 + ^ .cfa: $rsp 304 +
STACK CFI INIT 288b0 1f7 .cfa: $rsp 8 + .ra: .cfa -8 + ^
STACK CFI 288b2 $r14: .cfa -16 + ^ .cfa: $rsp 16 +
STACK CFI 288b4 $r13: .cfa -24 + ^ .cfa: $rsp 24 +
STACK CFI 288b6 $r12: .cfa -32 + ^ .cfa: $rsp 32 +
STACK CFI 288b7 $rbp: .cfa -40 + ^ .cfa: $rsp 40 +
STACK CFI 288b8 $rdi: .cfa -48 + ^ .cfa: $rsp 48 +
STACK CFI 288b9 $rsi: .cfa -56 + ^ .cfa: $rsp 56 +
STACK CFI 288ba $rbx: .cfa -64 + ^ .cfa: $rsp 64 +
STACK CFI 288be .cfa: $rsp 176 +
STACK CFI 28a10 .cfa: $rsp 64 +
STACK CFI 28a11 $rbx: $rbx .cfa: $rsp 56 +
STACK CFI 28a12 $rsi: $rsi .cfa: $rsp 48 +
STACK CFI 28a13 $rdi: $rdi .cfa: $rsp 40 +
STACK CFI 28a14 $rbp: $rbp .cfa: $rsp 32 +
STACK CFI 28a16 $r12: $r12 .cfa: $rsp 24 +
STACK CFI 28a18 $r13: $r13 .cfa: $rsp 16 +
STACK CFI 28a1a $r14: $r14 .cfa: $rsp 8 +
STACK CFI 28a20 $r12: .cfa -32 + ^ $r13: .cfa -24 + ^ $r14: .cfa -16 + ^ $rbp: .cfa -40 + ^ $rbx: .cfa -64 + ^ $rdi: .cfa -48 + ^ $rsi: .cfa -56 + ^ .cfa: $rsp 176 +
STACK CFI INIT 28ab0 3e .cfa: $rsp 8 + .ra: .cfa -8 + ^
STACK CFI 28ab4 .cfa: $rsp 48 +
STACK CFI 28ad8 .cfa: $rsp 8 +
STACK CFI 28ad9 .cfa: $rsp 48 +
STACK CFI INIT 28af0 42 .cfa: $rsp 8 + .ra: .cfa -8 + ^
STACK CFI 28af4 .cfa: $rsp 48 +
STACK CFI 28b1f .cfa: $rsp 8 +
STACK CFI 28b20 .cfa: $rsp 48 +
STACK CFI INIT 28b40 46 .cfa: $rsp 8 + .ra: .cfa -8 + ^
STACK CFI 28b44 .cfa: $rsp 48 +
STACK CFI 28b73 .cfa: $rsp 8 +
STACK CFI 28b74 .cfa: $rsp 48 +
STACK CFI INIT 28b90 6e .cfa: $rsp 8 + .ra: .cfa -8 + ^
STACK CFI INIT 28c00 2e .cfa: $rsp 8 + .ra: .cfa -8 + ^
STACK CFI INIT 28c30 dc .cfa: $rsp 8 + .ra: .cfa -8 + ^
STACK CFI 28c32 $r12: .cfa -16 + ^ .cfa: $rsp 16 +
STACK CFI 28c33 $rbp: .cfa -24 + ^ .cfa: $rsp 24 +
STACK CFI 28c34 $rdi: .cfa -32 + ^ .cfa: $rsp 32 +
STACK CFI 28c35 $rsi: .cfa -40 + ^ .cfa: $rsp 40 +
STACK CFI 28c36 $rbx: .cfa -48 + ^ .cfa: $rsp 48 +
STACK CFI 28c3d .cfa: $rsp 416 +
STACK CFI 28d05 .cfa: $rsp 48 +
STACK CFI 28d06 $rbx: $rbx .cfa: $rsp 40 +
STACK CFI 28d07 $rsi: $rsi .cfa: $rsp 32 +
STACK CFI 28d08 $rdi: $rdi .cfa: $rsp 24 +
STACK CFI 28d09 $rbp: $rbp .cfa: $rsp 16 +
STACK CFI 28d0b $r12: $r12 .cfa: $rsp 8 +
STACK CFI INIT 28d10 44 .cfa: $rsp 8 + .ra: .cfa -8 + ^
STACK CFI 28d11 $rsi: .cfa -16 + ^ .cfa: $rsp 16 +
STACK CFI 28d12 $rbx: .cfa -24 + ^ .cfa: $rsp 24 +
STACK CFI 28d16 .cfa: $rsp 64 +
STACK CFI 28d38 .cfa: $rsp 24 +
STACK CFI 28d39 $rbx: $rbx .cfa: $rsp 16 +
STACK CFI 28d3a $rsi: $rsi .cfa: $rsp 8 +
STACK CFI 28d3f $rbx: .cfa -24 + ^ $rsi: .cfa -16 + ^ .cfa: $rsp 64 +
STACK CFI INIT 28d60 a0 .cfa: $rsp 8 + .ra: .cfa -8 + ^
STACK CFI 28d64 .cfa: $rsp 48 +
STACK CFI 28ddc .cfa: $rsp 8 +
STACK CFI 28ddd .cfa: $rsp 48 +
STACK CFI INIT 28e00 66 .cfa: $rsp 8 + .ra: .cfa -8 + ^
STACK CFI 28e04 .cfa: $rsp 48 +
STACK CFI 28e50 .cfa: $rsp 8 +
STACK CFI 28e51 .cfa: $rsp 48 +
STACK CFI INIT 28e70 16 .cfa: $rsp 8 + .ra: .cfa -8 + ^
STACK CFI 28e74 .cfa: $rsp 48 +
STACK CFI INIT 28e90 16 .cfa: $rsp 8 + .ra: .cfa -8 + ^
STACK CFI 28e94 .cfa: $rsp 48 +
STACK CFI INIT 28eb0 4a2 .cfa: $rsp 8 + .ra: .cfa -8 + ^
STACK CFI 28eb2 $r13: .cfa -16 + ^ .cfa: $rsp 16 +
STACK CFI 28eb4 $r12: .cfa -24 + ^ .cfa: $rsp 24 +
STACK CFI 28eb5 $rbp: .cfa -32 + ^ .cfa: $rsp 32 +
STACK CFI 28eb6 $rdi: .cfa -40 + ^ .cfa: $rsp 40 +
STACK CFI 28eb7 $rsi: .cfa -48 + ^ .cfa: $rsp 48 +
STACK CFI 28eb8 $rbx: .cfa -56 + ^ .cfa: $rsp 56 +
STACK CFI 28ebf .cfa: $rsp 368 +
STACK CFI 291ff .cfa: $rsp 56 +
STACK CFI 29200 $rbx: $rbx .cfa: $rsp 48 +
STACK CFI 29201 $rsi: $rsi .cfa: $rsp 40 +
STACK CFI 29202 $rdi: $rdi .cfa: $rsp 32 +
STACK CFI 29203 $rbp: $rbp .cfa: $rsp 24 +
STACK CFI 29205 $r12: $r12 .cfa: $rsp 16 +
STACK CFI 29207 $r13: $r13 .cfa: $rsp 8 +
STACK CFI 29210 $r12: .cfa -24 + ^ $r13: .cfa -16 + ^ $rbp: .cfa -32 + ^ $rbx: .cfa -56 + ^ $rdi: .cfa -40 + ^ $rsi: .cfa -48 + ^ .cfa: $rsp 368 +
STACK CFI INIT 29360 432 .cfa: $rsp 8 + .ra: .cfa -8 + ^
STACK CFI 29362 $r13: .cfa -16 + ^ .cfa: $rsp 16 +
STACK CFI 29364 $r12: .cfa -24 + ^ .cfa: $rsp 24 +
STACK CFI 29365 $rbp: .cfa -32 + ^ .cfa: $rsp 32 +
STACK CFI 29366 $rdi: .cfa -40 + ^ .cfa: $rsp 40 +
STACK CFI 29367 $rsi: .cfa -48 + ^ .cfa: $rsp 48 +
STACK CFI 29368 $rbx: .cfa -56 + ^ .cfa: $rsp 56 +
STACK CFI 2936f .cfa: $rsp 368 +
STACK CFI 296a5 .cfa: $rsp 56 +
STACK CFI 296a6 $rbx: $rbx .cfa: $rsp 48 +
STACK CFI 296a7 $rsi: $rsi .cfa: $rsp 40 +
STACK CFI 296a8 $rdi: $rdi .cfa: $rsp 32 +
STACK CFI 296a9 $rbp: $rbp .cfa: $rsp 24 +
STACK CFI 296ab $r12: $r12 .cfa: $rsp 16 +
STACK CFI 296ad $r13: $r13 .cfa: $rsp 8 +
STACK CFI 296b0 $r12: .cfa -24 + ^ $r13: .cfa -16 + ^ $rbp: .cfa -32 + ^ $rbx: .cfa -56 + ^ $rdi: .cfa -40 + ^ $rsi: .cfa -48 + ^ .cfa: $rsp 368 +
STACK CFI INIT 297a0 29a .cfa: $rsp 8 + .ra: .cfa -8 + ^
STACK CFI 297a2 $r13: .cfa -16 + ^ .cfa: $rsp 16 +
STACK CFI 297a4 $r12: .cfa -24 + ^ .cfa: $rsp 24 +
STACK CFI 297a5 $rbp: .cfa -32 + ^ .cfa: $rsp 32 +
STACK CFI 297a6 $rdi: .cfa -40 + ^ .cfa: $rsp 40 +
STACK CFI 297a7 $rsi: .cfa -48 + ^ .cfa: $rsp 48 +
STACK CFI 297a8 $rbx: .cfa -56 + ^ .cfa: $rsp 56 +
STACK CFI 297af .cfa: $rsp 336 +
STACK CFI 297d1 $xmm6: .cfa -128 + ^ $xmm7: .cfa -112 + ^ $xmm8: .cfa -96 + ^ $xmm9: .cfa -80 + ^
STACK CFI 29a11 $xmm6: $xmm6 $xmm7: $xmm7 $xmm8: $xmm8 $xmm9: $xmm9 .cfa: $rsp 56 +
STACK CFI 29a12 $rbx: $rbx .cfa: $rsp 48 +
STACK CFI 29a13 $rsi: $rsi .cfa: $rsp 40 +
STACK CFI 29a14 $rdi: $rdi .cfa: $rsp 32 +
STACK CFI 29a15 $rbp: $rbp .cfa: $rsp 24 +
STACK CFI 29a17 $r12: $r12 .cfa: $rsp 16 +
STACK CFI 29a19 $r13: $r13 .cfa: $rsp 8 +
STACK CFI 29a1a $r12: .cfa -24 + ^ $r13: .cfa -16 + ^ $rbp: .cfa -32 + ^ $rbx: .cfa -56 + ^ $rdi: .cfa -40 + ^ $rsi: .cfa -48 + ^ $xmm6: .cfa -128 + ^ $xmm7: .cfa -112 + ^ $xmm8: .cfa -96 + ^ $xmm9: .cfa -80 + ^ .cfa: $rsp 336 +
STACK CFI INIT 29a40 376 .cfa: $rsp 8 + .ra: .cfa -8 + ^
STACK CFI 29a42 $r15: .cfa -16 + ^ .cfa: $rsp 16 +
STACK CFI 29a44 $r14: .cfa -24 + ^ .cfa: $rsp 24 +
STACK CFI 29a46 $r13: .cfa -32 + ^ .cfa: $rsp 32 +
STACK CFI 29a48 $r12: .cfa -40 + ^ .cfa: $rsp 40 +
STACK CFI 29a49 $rbp: .cfa -48 + ^ .cfa: $rsp 48 +
STACK CFI 29a4a $rdi: .cfa -56 + ^ .cfa: $rsp 56 +
STACK CFI 29a4b $rsi: .cfa -64 + ^ .cfa: $rsp 64 +
STACK CFI 29a4c $rbx: .cfa -72 + ^ .cfa: $rsp 72 +
STACK CFI 29a53 .cfa: $rsp 320 +
STACK CFI 29cf4 .cfa: $rsp 72 +
STACK CFI 29cf5 $rbx: $rbx .cfa: $rsp 64 +
STACK CFI 29cf6 $rsi: $rsi .cfa: $rsp 56 +
STACK CFI 29cf7 $rdi: $rdi .cfa: $rsp 48 +
STACK CFI 29cf8 $rbp: $rbp .cfa: $rsp 40 +
STACK CFI 29cfa $r12: $r12 .cfa: $rsp 32 +
STACK CFI 29cfc $r13: $r13 .cfa: $rsp 24 +
STACK CFI 29cfe $r14: $r14 .cfa: $rsp 16 +
STACK CFI 29d00 $r15: $r15 .cfa: $rsp 8 +
STACK CFI 29d01 $r12: .cfa -40 + ^ $r13: .cfa -32 + ^ $r14: .cfa -24 + ^ $r15: .cfa -16 + ^ $rbp: .cfa -48 + ^ $rbx: .cfa -72 + ^ $rdi: .cfa -56 + ^ $rsi: .cfa -64 + ^ .cfa: $rsp 320 +
STACK CFI INIT 29dc0 2cb .cfa: $rsp 8 + .ra: .cfa -8 + ^
STACK CFI 29dc2 $r15: .cfa -16 + ^ .cfa: $rsp 16 +
STACK CFI 29dc4 $r14: .cfa -24 + ^ .cfa: $rsp 24 +
STACK CFI 29dc6 $r13: .cfa -32 + ^ .cfa: $rsp 32 +
STACK CFI 29dc8 $r12: .cfa -40 + ^ .cfa: $rsp 40 +
STACK CFI 29dc9 $rbp: .cfa -48 + ^ .cfa: $rsp 48 +
STACK CFI 29dca $rdi: .cfa -56 + ^ .cfa: $rsp 56 +
STACK CFI 29dcb $rsi: .cfa -64 + ^ .cfa: $rsp 64 +
STACK CFI 29dcc $rbx: .cfa -72 + ^ .cfa: $rsp 72 +
STACK CFI 29dd3 .cfa: $rsp 304 +
STACK CFI 2a01f .cfa: $rsp 72 +
STACK CFI 2a020 $rbx: $rbx .cfa: $rsp 64 +
STACK CFI 2a021 $rsi: $rsi .cfa: $rsp 56 +
STACK CFI 2a022 $rdi: $rdi .cfa: $rsp 48 +
STACK CFI 2a023 $rbp: $rbp .cfa: $rsp 40 +
STACK CFI 2a025 $r12: $r12 .cfa: $rsp 32 +
STACK CFI 2a027 $r13: $r13 .cfa: $rsp 24 +
STACK CFI 2a029 $r14: $r14 .cfa: $rsp 16 +
STACK CFI 2a02b $r15: $r15 .cfa: $rsp 8 +
STACK CFI 2a02c $r12: .cfa -40 + ^ $r13: .cfa -32 + ^ $r14: .cfa -24 + ^ $r15: .cfa -16 + ^ $rbp: .cfa -48 + ^ $rbx: .cfa -72 + ^ $rdi: .cfa -56 + ^ $rsi: .cfa -64 + ^ .cfa: $rsp 304 +
STACK CFI INIT 2a090 2cb .cfa: $rsp 8 + .ra: .cfa -8 + ^
STACK CFI 2a092 $r15: .cfa -16 + ^ .cfa: $rsp 16 +
STACK CFI 2a094 $r14: .cfa -24 + ^ .cfa: $rsp 24 +
STACK CFI 2a096 $r13: .cfa -32 + ^ .cfa: $rsp 32 +
STACK CFI 2a098 $r12: .cfa -40 + ^ .cfa: $rsp 40 +
STACK CFI 2a099 $rbp: .cfa -48 + ^ .cfa: $rsp 48 +
STACK CFI 2a09a $rdi: .cfa -56 + ^ .cfa: $rsp 56 +
STACK CFI 2a09b $rsi: .cfa -64 + ^ .cfa: $rsp 64 +
STACK CFI 2a09c $rbx: .cfa -72 + ^ .cfa: $rsp 72 +
STACK CFI 2a0a3 .cfa: $rsp 304 +
STACK CFI 2a2ef .cfa: $rsp 72 +
STACK CFI 2a2f0 $rbx: $rbx .cfa: $rsp 64 +
STACK CFI 2a2f1 $rsi: $rsi .cfa: $rsp 56 +
STACK CFI 2a2f2 $rdi: $rdi .cfa: $rsp 48 +
STACK CFI 2a2f3 $rbp: $rbp .cfa: $rsp 40 +
STACK CFI 2a2f5 $r12: $r12 .cfa: $rsp 32 +
STACK CFI 2a2f7 $r13: $r13 .cfa: $rsp 24 +
STACK CFI 2a2f9 $r14: $r14 .cfa: $rsp 16 +
STACK CFI 2a2fb $r15: $r15 .cfa: $rsp 8 +
STACK CFI 2a2fc $r12: .cfa -40 + ^ $r13: .cfa -32 + ^ $r14: .cfa -24 + ^ $r15: .cfa -16 + ^ $rbp: .cfa -48 + ^ $rbx: .cfa -72 + ^ $rdi: .cfa -56 + ^ $rsi: .cfa -64 + ^ .cfa: $rsp 304 +
STACK CFI INIT 2a360 306 .cfa: $rsp 8 + .ra: .cfa -8 + ^
STACK CFI 2a362 $r15: .cfa -16 + ^ .cfa: $rsp 16 +
STACK CFI 2a364 $r14: .cfa -24 + ^ .cfa: $rsp 24 +
STACK CFI 2a366 $r13: .cfa -32 + ^ .cfa: $rsp 32 +
STACK CFI 2a368 $r12: .cfa -40 + ^ .cfa: $rsp 40 +
STACK CFI 2a369 $rbp: .cfa -48 + ^ .cfa: $rsp 48 +
STACK CFI 2a36a $rdi: .cfa -56 + ^ .cfa: $rsp 56 +
STACK CFI 2a36b $rsi: .cfa -64 + ^ .cfa: $rsp 64 +
STACK CFI 2a36c $rbx: .cfa -72 + ^ .cfa: $rsp 72 +
STACK CFI 2a373 .cfa: $rsp 320 +
STACK CFI 2a5fa .cfa: $rsp 72 +
STACK CFI 2a5fb $rbx: $rbx .cfa: $rsp 64 +
STACK CFI 2a5fc $rsi: $rsi .cfa: $rsp 56 +
STACK CFI 2a5fd $rdi: $rdi .cfa: $rsp 48 +
STACK CFI 2a5fe $rbp: $rbp .cfa: $rsp 40 +
STACK CFI 2a600 $r12: $r12 .cfa: $rsp 32 +
STACK CFI 2a602 $r13: $r13 .cfa: $rsp 24 +
STACK CFI 2a604 $r14: $r14 .cfa: $rsp 16 +
STACK CFI 2a606 $r15: $r15 .cfa: $rsp 8 +
STACK CFI 2a607 $r12: .cfa -40 + ^ $r13: .cfa -32 + ^ $r14: .cfa -24 + ^ $r15: .cfa -16 + ^ $rbp: .cfa -48 + ^ $rbx: .cfa -72 + ^ $rdi: .cfa -56 + ^ $rsi: .cfa -64 + ^ .cfa: $rsp 320 +
STACK CFI INIT 2a670 698 .cfa: $rsp 8 + .ra: .cfa -8 + ^
STACK CFI 2a672 $r15: .cfa -16 + ^ .cfa: $rsp 16 +
STACK CFI 2a674 $r14: .cfa -24 + ^ .cfa: $rsp 24 +
STACK CFI 2a676 $r13: .cfa -32 + ^ .cfa: $rsp 32 +
STACK CFI 2a678 $r12: .cfa -40 + ^ .cfa: $rsp 40 +
STACK CFI 2a679 $rbp: .cfa -48 + ^ .cfa: $rsp 48 +
STACK CFI 2a67a $rdi: .cfa -56 + ^ .cfa: $rsp 56 +
STACK CFI 2a67b $rsi: .cfa -64 + ^ .cfa: $rsp 64 +
STACK CFI 2a67c $rbx: .cfa -72 + ^ .cfa: $rsp 72 +
STACK CFI 2a683 .cfa: $rsp 512 +
STACK CFI 2abdd .cfa: $rsp 72 +
STACK CFI 2abde $rbx: $rbx .cfa: $rsp 64 +
STACK CFI 2abdf $rsi: $rsi .cfa: $rsp 56 +
STACK CFI 2abe0 $rdi: $rdi .cfa: $rsp 48 +
STACK CFI 2abe1 $rbp: $rbp .cfa: $rsp 40 +
STACK CFI 2abe3 $r12: $r12 .cfa: $rsp 32 +
STACK CFI 2abe5 $r13: $r13 .cfa: $rsp 24 +
STACK CFI 2abe7 $r14: $r14 .cfa: $rsp 16 +
STACK CFI 2abe9 $r15: $r15 .cfa: $rsp 8 +
STACK CFI 2abf0 $r12: .cfa -40 + ^ $r13: .cfa -32 + ^ $r14: .cfa -24 + ^ $r15: .cfa -16 + ^ $rbp: .cfa -48 + ^ $rbx: .cfa -72 + ^ $rdi: .cfa -56 + ^ $rsi: .cfa -64 + ^ .cfa: $rsp 512 +
STACK CFI INIT 2ad10 59b .cfa: $rsp 8 + .ra: .cfa -8 + ^
STACK CFI 2ad12 $r15: .cfa -16 + ^ .cfa: $rsp 16 +
STACK CFI 2ad14 $r14: .cfa -24 + ^ .cfa: $rsp 24 +
STACK CFI 2ad16 $r13: .cfa -32 + ^ .cfa: $rsp 32 +
STACK CFI 2ad18 $r12: .cfa -40 + ^ .cfa: $rsp 40 +
STACK CFI 2ad19 $rbp: .cfa -48 + ^ .cfa: $rsp 48 +
STACK CFI 2ad1a $rdi: .cfa -56 + ^ .cfa: $rsp 56 +
STACK CFI 2ad1b $rsi: .cfa -64 + ^ .cfa: $rsp 64 +
STACK CFI 2ad1c $rbx: .cfa -72 + ^ .cfa: $rsp 72 +
STACK CFI 2ad23 .cfa: $rsp 1440 +
STACK CFI 2b168 .cfa: $rsp 72 +
STACK CFI 2b169 $rbx: $rbx .cfa: $rsp 64 +
STACK CFI 2b16a $rsi: $rsi .cfa: $rsp 56 +
STACK CFI 2b16b $rdi: $rdi .cfa: $rsp 48 +
STACK CFI 2b16c $rbp: $rbp .cfa: $rsp 40 +
STACK CFI 2b16e $r12: $r12 .cfa: $rsp 32 +
STACK CFI 2b170 $r13: $r13 .cfa: $rsp 24 +
STACK CFI 2b172 $r14: $r14 .cfa: $rsp 16 +
STACK CFI 2b174 $r15: $r15 .cfa: $rsp 8 +
STACK CFI 2b175 $r12: .cfa -40 + ^ $r13: .cfa -32 + ^ $r14: .cfa -24 + ^ $r15: .cfa -16 + ^ $rbp: .cfa -48 + ^ $rbx: .cfa -72 + ^ $rdi: .cfa -56 + ^ $rsi: .cfa -64 + ^ .cfa: $rsp 1440 +
STACK CFI INIT 2b2b0 3785 .cfa: $rsp 8 + .ra: .cfa -8 + ^
STACK CFI 2b2b2 $r15: .cfa -16 + ^ .cfa: $rsp 16 +
STACK CFI 2b2b4 $r14: .cfa -24 + ^ .cfa: $rsp 24 +
STACK CFI 2b2b6 $r13: .cfa -32 + ^ .cfa: $rsp 32 +
STACK CFI 2b2b8 $r12: .cfa -40 + ^ .cfa: $rsp 40 +
STACK CFI 2b2b9 $rbp: .cfa -48 + ^ .cfa: $rsp 48 +
STACK CFI 2b2ba $rdi: .cfa -56 + ^ .cfa: $rsp 56 +
STACK CFI 2b2bb $rsi: .cfa -64 + ^ .cfa: $rsp 64 +
STACK CFI 2b2bc $rbx: .cfa -72 + ^ .cfa: $rsp 72 +
STACK CFI 2b2c3 .cfa: $rsp 976 +
STACK CFI 2b312 $xmm10: .cfa -160 + ^ $xmm11: .cfa -144 + ^ $xmm12: .cfa -128 + ^ $xmm13: .cfa -112 + ^ $xmm14: .cfa -96 + ^ $xmm6: .cfa -224 + ^ $xmm7: .cfa -208 + ^ $xmm8: .cfa -192 + ^ $xmm9: .cfa -176 + ^
STACK CFI 2b614 $xmm10: $xmm10 $xmm11: $xmm11 $xmm12: $xmm12 $xmm13: $xmm13 $xmm14: $xmm14 $xmm6: $xmm6 $xmm7: $xmm7 $xmm8: $xmm8 $xmm9: $xmm9 .cfa: $rsp 72 +
STACK CFI 2b615 $rbx: $rbx .cfa: $rsp 64 +
STACK CFI 2b616 $rsi: $rsi .cfa: $rsp 56 +
STACK CFI 2b617 $rdi: $rdi .cfa: $rsp 48 +
STACK CFI 2b618 $rbp: $rbp .cfa: $rsp 40 +
STACK CFI 2b61a $r12: $r12 .cfa: $rsp 32 +
STACK CFI 2b61c $r13: $r13 .cfa: $rsp 24 +
STACK CFI 2b61e $r14: $r14 .cfa: $rsp 16 +
STACK CFI 2b620 $r15: $r15 .cfa: $rsp 8 +
STACK CFI 2b621 $r12: .cfa -40 + ^ $r13: .cfa -32 + ^ $r14: .cfa -24 + ^ $r15: .cfa -16 + ^ $rbp: .cfa -48 + ^ $rbx: .cfa -72 + ^ $rdi: .cfa -56 + ^ $rsi: .cfa -64 + ^ $xmm10: .cfa -160 + ^ $xmm11: .cfa -144 + ^ $xmm12: .cfa -128 + ^ $xmm13: .cfa -112 + ^ $xmm14: .cfa -96 + ^ $xmm6: .cfa -224 + ^ $xmm7: .cfa -208 + ^ $xmm8: .cfa -192 + ^ $xmm9: .cfa -176 + ^ .cfa: $rsp 976 +
STACK CFI INIT 2ea40 f8 .cfa: $rsp 8 + .ra: .cfa -8 + ^
STACK CFI 2ea41 $rsi: .cfa -16 + ^ .cfa: $rsp 16 +
STACK CFI 2ea42 $rbx: .cfa -24 + ^ .cfa: $rsp 24 +
STACK CFI 2ea46 .cfa: $rsp 144 +
STACK CFI 2eafe .cfa: $rsp 24 +
STACK CFI 2eaff $rbx: $rbx .cfa: $rsp 16 +
STACK CFI 2eb00 $rsi: $rsi .cfa: $rsp 8 +
STACK CFI 2eb01 $rbx: .cfa -24 + ^ $rsi: .cfa -16 + ^ .cfa: $rsp 144 +
STACK CFI 2eb0d .cfa: $rsp 24 +
STACK CFI 2eb0e $rbx: $rbx .cfa: $rsp 16 +
STACK CFI 2eb0f $rsi: $rsi .cfa: $rsp 8 +
STACK CFI 2eb10 $rbx: .cfa -24 + ^ $rsi: .cfa -16 + ^ .cfa: $rsp 144 +
STACK CFI INIT 2eb40 f0 .cfa: $rsp 8 + .ra: .cfa -8 + ^
STACK CFI 2eb41 $rdi: .cfa -16 + ^ .cfa: $rsp 16 +
STACK CFI 2eb42 $rsi: .cfa -24 + ^ .cfa: $rsp 24 +
STACK CFI 2eb43 $rbx: .cfa -32 + ^ .cfa: $rsp 32 +
STACK CFI 2eb47 .cfa: $rsp 96 +
STACK CFI 2ebfe .cfa: $rsp 32 +
STACK CFI 2ebff $rbx: $rbx .cfa: $rsp 24 +
STACK CFI 2ec00 $rsi: $rsi .cfa: $rsp 16 +
STACK CFI 2ec01 $rdi: $rdi .cfa: $rsp 8 +
STACK CFI 2ec02 $rbx: .cfa -32 + ^ $rdi: .cfa -16 + ^ $rsi: .cfa -24 + ^ .cfa: $rsp 96 +
STACK CFI INIT 2ec30 56 .cfa: $rsp 8 + .ra: .cfa -8 + ^
STACK CFI 2ec31 $rbx: .cfa -16 + ^ .cfa: $rsp 16 +
STACK CFI 2ec35 .cfa: $rsp 64 +
STACK CFI 2ec84 .cfa: $rsp 16 +
STACK CFI 2ec85 $rbx: $rbx .cfa: $rsp 8 +
STACK CFI INIT 2ec90 8c .cfa: $rsp 8 + .ra: .cfa -8 + ^
STACK CFI 2ec91 $rbx: .cfa -16 + ^ .cfa: $rsp 16 +
STACK CFI 2ec95 .cfa: $rsp 96 +
STACK CFI 2ed1a .cfa: $rsp 16 +
STACK CFI 2ed1b $rbx: $rbx .cfa: $rsp 8 +
STACK CFI INIT 2ed20 74 .cfa: $rsp 8 + .ra: .cfa -8 + ^
STACK CFI 2ed21 $rbx: .cfa -16 + ^ .cfa: $rsp 16 +
STACK CFI 2ed25 .cfa: $rsp 48 +
STACK CFI 2ed8e .cfa: $rsp 16 +
STACK CFI 2ed8f $rbx: $rbx .cfa: $rsp 8 +
STACK CFI INIT 2eda0 2c .cfa: $rsp 8 + .ra: .cfa -8 + ^
STACK CFI 2eda4 .cfa: $rsp 48 +
STACK CFI 2edc7 .cfa: $rsp 8 +
STACK CFI INIT 2edd0 ab .cfa: $rsp 8 + .ra: .cfa -8 + ^
STACK CFI 2edd1 $rsi: .cfa -16 + ^ .cfa: $rsp 16 +
STACK CFI 2edd2 $rbx: .cfa -24 + ^ .cfa: $rsp 24 +
STACK CFI 2edd6 .cfa: $rsp 80 +
STACK CFI 2ee5e .cfa: $rsp 24 +
STACK CFI 2ee5f $rbx: $rbx .cfa: $rsp 16 +
STACK CFI 2ee60 $rsi: $rsi .cfa: $rsp 8 +
STACK CFI 2ee61 $rbx: .cfa -24 + ^ $rsi: .cfa -16 + ^ .cfa: $rsp 80 +
STACK CFI INIT 2ee80 45 .cfa: $rsp 8 + .ra: .cfa -8 + ^
STACK CFI 2ee84 .cfa: $rsp 48 +
STACK CFI 2eeb9 .cfa: $rsp 8 +
STACK CFI 2eec0 .cfa: $rsp 48 +
STACK CFI 2eec4 .cfa: $rsp 8 +
STACK CFI INIT 2eed0 55 .cfa: $rsp 8 + .ra: .cfa -8 + ^
STACK CFI 2eed4 .cfa: $rsp 48 +
STACK CFI 2ef12 .cfa: $rsp 8 +
STACK CFI 2ef20 .cfa: $rsp 48 +
STACK CFI 2ef24 .cfa: $rsp 8 +
STACK CFI INIT 2ef30 119 .cfa: $rsp 8 + .ra: .cfa -8 + ^
STACK CFI 2ef31 $rbp: .cfa -16 + ^ .cfa: $rsp 16 +
STACK CFI 2ef32 $rdi: .cfa -24 + ^ .cfa: $rsp 24 +
STACK CFI 2ef33 $rsi: .cfa -32 + ^ .cfa: $rsp 32 +
STACK CFI 2ef34 $rbx: .cfa -40 + ^ .cfa: $rsp 40 +
STACK CFI 2ef3b .cfa: $rsp 176 +
STACK CFI 2f00b .cfa: $rsp 40 +
STACK CFI 2f00c $rbx: $rbx .cfa: $rsp 32 +
STACK CFI 2f00d $rsi: $rsi .cfa: $rsp 24 +
STACK CFI 2f00e $rdi: $rdi .cfa: $rsp 16 +
STACK CFI 2f00f $rbp: $rbp .cfa: $rsp 8 +
STACK CFI 2f010 $rbp: .cfa -16 + ^ $rbx: .cfa -40 + ^ $rdi: .cfa -24 + ^ $rsi: .cfa -32 + ^ .cfa: $rsp 176 +
STACK CFI INIT 2f050 54 .cfa: $rsp 8 + .ra: .cfa -8 + ^
STACK CFI 2f051 $rbx: .cfa -16 + ^ .cfa: $rsp 16 +
STACK CFI 2f055 .cfa: $rsp 64 +
STACK CFI 2f0a2 .cfa: $rsp 16 +
STACK CFI 2f0a3 $rbx: $rbx .cfa: $rsp 8 +
STACK CFI INIT 2f0b0 54 .cfa: $rsp 8 + .ra: .cfa -8 + ^
STACK CFI 2f0b1 $rbx: .cfa -16 + ^ .cfa: $rsp 16 +
STACK CFI 2f0b5 .cfa: $rsp 64 +
STACK CFI 2f102 .cfa: $rsp 16 +
STACK CFI 2f103 $rbx: $rbx .cfa: $rsp 8 +
STACK CFI INIT 2f110 54 .cfa: $rsp 8 + .ra: .cfa -8 + ^
STACK CFI 2f111 $rbx: .cfa -16 + ^ .cfa: $rsp 16 +
STACK CFI 2f115 .cfa: $rsp 64 +
STACK CFI 2f162 .cfa: $rsp 16 +
STACK CFI 2f163 $rbx: $rbx .cfa: $rsp 8 +
STACK CFI INIT 2f170 63 .cfa: $rsp 8 + .ra: .cfa -8 + ^
STACK CFI 2f171 $rbx: .cfa -16 + ^ .cfa: $rsp 16 +
STACK CFI 2f175 .cfa: $rsp 80 +
STACK CFI 2f1d1 .cfa: $rsp 16 +
STACK CFI 2f1d2 $rbx: $rbx .cfa: $rsp 8 +
STACK CFI INIT 2f1e0 54 .cfa: $rsp 8 + .ra: .cfa -8 + ^
STACK CFI 2f1e1 $rbx: .cfa -16 + ^ .cfa: $rsp 16 +
STACK CFI 2f1e5 .cfa: $rsp 64 +
STACK CFI 2f232 .cfa: $rsp 16 +
STACK CFI 2f233 $rbx: $rbx .cfa: $rsp 8 +
STACK CFI INIT 2f240 54 .cfa: $rsp 8 + .ra: .cfa -8 + ^
STACK CFI 2f241 $rbx: .cfa -16 + ^ .cfa: $rsp 16 +
STACK CFI 2f245 .cfa: $rsp 64 +
STACK CFI 2f292 .cfa: $rsp 16 +
STACK CFI 2f293 $rbx: $rbx .cfa: $rsp 8 +
STACK CFI INIT 2f2a0 106 .cfa: $rsp 8 + .ra: .cfa -8 + ^
STACK CFI 2f2a1 $rbx: .cfa -16 + ^ .cfa: $rsp 16 +
STACK CFI 2f2a5 .cfa: $rsp 96 +
STACK CFI 2f35b .cfa: $rsp 16 +
STACK CFI 2f35c $rbx: $rbx .cfa: $rsp 8 +
STACK CFI 2f360 $rbx: .cfa -16 + ^ .cfa: $rsp 96 +
STACK CFI INIT 2f3b0 23 .cfa: $rsp 8 + .ra: .cfa -8 + ^
STACK CFI 2f3b4 .cfa: $rsp 64 +
STACK CFI 2f3d2 .cfa: $rsp 8 +
STACK CFI INIT 2f3e0 1fa .cfa: $rsp 8 + .ra: .cfa -8 + ^
STACK CFI 2f3e2 $r14: .cfa -16 + ^ .cfa: $rsp 16 +
STACK CFI 2f3e4 $r13: .cfa -24 + ^ .cfa: $rsp 24 +
STACK CFI 2f3e6 $r12: .cfa -32 + ^ .cfa: $rsp 32 +
STACK CFI 2f3e7 $rbp: .cfa -40 + ^ .cfa: $rsp 40 +
STACK CFI 2f3e8 $rdi: .cfa -48 + ^ .cfa: $rsp 48 +
STACK CFI 2f3e9 $rsi: .cfa -56 + ^ .cfa: $rsp 56 +
STACK CFI 2f3ea $rbx: .cfa -64 + ^ .cfa: $rsp 64 +
STACK CFI 2f3ee .cfa: $rsp 160 +
STACK CFI 2f549 .cfa: $rsp 64 +
STACK CFI 2f54a $rbx: $rbx .cfa: $rsp 56 +
STACK CFI 2f54b $rsi: $rsi .cfa: $rsp 48 +
STACK CFI 2f54c $rdi: $rdi .cfa: $rsp 40 +
STACK CFI 2f54d $rbp: $rbp .cfa: $rsp 32 +
STACK CFI 2f54f $r12: $r12 .cfa: $rsp 24 +
STACK CFI 2f551 $r13: $r13 .cfa: $rsp 16 +
STACK CFI 2f553 $r14: $r14 .cfa: $rsp 8 +
STACK CFI 2f554 $r12: .cfa -32 + ^ $r13: .cfa -24 + ^ $r14: .cfa -16 + ^ $rbp: .cfa -40 + ^ $rbx: .cfa -64 + ^ $rdi: .cfa -48 + ^ $rsi: .cfa -56 + ^ .cfa: $rsp 160 +
STACK CFI INIT 1854c0 20 .cfa: $rsp 8 + .ra: .cfa -8 + ^
STACK CFI 1854c4 .cfa: $rsp 48 +
STACK CFI 1854db .cfa: $rsp 8 +
STACK CFI INIT 2f5e0 c .cfa: $rsp 8 + .ra: .cfa -8 + ^
STACK CFI INIT 2f5f0 95 .cfa: $rsp 8 + .ra: .cfa -8 + ^
STACK CFI 2f5f1 $rbp: .cfa -16 + ^ .cfa: $rsp 16 +
STACK CFI 2f5f2 $rdi: .cfa -24 + ^ .cfa: $rsp 24 +
STACK CFI 2f5f3 $rsi: .cfa -32 + ^ .cfa: $rsp 32 +
STACK CFI 2f5f4 $rbx: .cfa -40 + ^ .cfa: $rsp 40 +
STACK CFI 2f5f8 .cfa: $rsp 80 +
STACK CFI 2f64c .cfa: $rsp 40 +
STACK CFI 2f64d $rbx: $rbx .cfa: $rsp 32 +
STACK CFI 2f64e $rsi: $rsi .cfa: $rsp 24 +
STACK CFI 2f64f $rdi: $rdi .cfa: $rsp 16 +
STACK CFI 2f650 $rbp: $rbp .cfa: $rsp 8 +
STACK CFI 2f651 $rbp: .cfa -16 + ^ $rbx: .cfa -40 + ^ $rdi: .cfa -24 + ^ $rsi: .cfa -32 + ^ .cfa: $rsp 80 +
STACK CFI INIT 2f690 2b .cfa: $rsp 8 + .ra: .cfa -8 + ^
STACK CFI 2f694 .cfa: $rsp 48 +
STACK CFI 2f6a8 .cfa: $rsp 8 +
STACK CFI 2f6a9 .cfa: $rsp 48 +
STACK CFI INIT 2f6c0 5c .cfa: $rsp 8 + .ra: .cfa -8 + ^
STACK CFI 2f6c1 $rsi: .cfa -16 + ^ .cfa: $rsp 16 +
STACK CFI 2f6c2 $rbx: .cfa -24 + ^ .cfa: $rsp 24 +
STACK CFI 2f6c6 .cfa: $rsp 64 +
STACK CFI 2f700 .cfa: $rsp 24 +
STACK CFI 2f701 $rbx: $rbx .cfa: $rsp 16 +
STACK CFI 2f702 $rsi: $rsi .cfa: $rsp 8 +
STACK CFI 2f703 $rbx: .cfa -24 + ^ $rsi: .cfa -16 + ^ .cfa: $rsp 64 +
STACK CFI INIT 2f720 94 .cfa: $rsp 8 + .ra: .cfa -8 + ^
STACK CFI 2f721 $rdi: .cfa -16 + ^ .cfa: $rsp 16 +
STACK CFI 2f722 $rsi: .cfa -24 + ^ .cfa: $rsp 24 +
STACK CFI 2f723 $rbx: .cfa -32 + ^ .cfa: $rsp 32 +
STACK CFI 2f727 .cfa: $rsp 80 +
STACK CFI 2f76d .cfa: $rsp 32 +
STACK CFI 2f76e $rbx: $rbx .cfa: $rsp 24 +
STACK CFI 2f76f $rsi: $rsi .cfa: $rsp 16 +
STACK CFI 2f770 $rdi: $rdi .cfa: $rsp 8 +
STACK CFI 2f771 $rbx: .cfa -32 + ^ $rdi: .cfa -16 + ^ $rsi: .cfa -24 + ^ .cfa: $rsp 80 +
STACK CFI INIT 2f7c0 69 .cfa: $rsp 8 + .ra: .cfa -8 + ^
STACK CFI 2f7c1 $rdi: .cfa -16 + ^ .cfa: $rsp 16 +
STACK CFI 2f7c2 $rsi: .cfa -24 + ^ .cfa: $rsp 24 +
STACK CFI 2f7c3 $rbx: .cfa -32 + ^ .cfa: $rsp 32 +
STACK CFI 2f7c7 .cfa: $rsp 64 +
STACK CFI 2f825 .cfa: $rsp 32 +
STACK CFI 2f826 $rbx: $rbx .cfa: $rsp 24 +
STACK CFI 2f827 $rsi: $rsi .cfa: $rsp 16 +
STACK CFI 2f828 $rdi: $rdi .cfa: $rsp 8 +
STACK CFI INIT 2f830 139 .cfa: $rsp 8 + .ra: .cfa -8 + ^
STACK CFI 2f831 $rdi: .cfa -16 + ^ .cfa: $rsp 16 +
STACK CFI 2f832 $rsi: .cfa -24 + ^ .cfa: $rsp 24 +
STACK CFI 2f833 $rbx: .cfa -32 + ^ .cfa: $rsp 32 +
STACK CFI 2f837 .cfa: $rsp 112 +
STACK CFI 2f93b .cfa: $rsp 32 +
STACK CFI 2f93c $rbx: $rbx .cfa: $rsp 24 +
STACK CFI 2f93d $rsi: $rsi .cfa: $rsp 16 +
STACK CFI 2f93e $rdi: $rdi .cfa: $rsp 8 +
STACK CFI 2f940 $rbx: .cfa -32 + ^ $rdi: .cfa -16 + ^ $rsi: .cfa -24 + ^ .cfa: $rsp 112 +
STACK CFI 2f965 .cfa: $rsp 32 +
STACK CFI 2f966 $rbx: $rbx .cfa: $rsp 24 +
STACK CFI 2f967 $rsi: $rsi .cfa: $rsp 16 +
STACK CFI 2f968 $rdi: $rdi .cfa: $rsp 8 +
STACK CFI INIT 2f970 58f .cfa: $rsp 8 + .ra: .cfa -8 + ^
STACK CFI 2f972 $r15: .cfa -16 + ^ .cfa: $rsp 16 +
STACK CFI 2f974 $r14: .cfa -24 + ^ .cfa: $rsp 24 +
STACK CFI 2f976 $r13: .cfa -32 + ^ .cfa: $rsp 32 +
STACK CFI 2f978 $r12: .cfa -40 + ^ .cfa: $rsp 40 +
STACK CFI 2f979 $rbp: .cfa -48 + ^ .cfa: $rsp 48 +
STACK CFI 2f97a $rdi: .cfa -56 + ^ .cfa: $rsp 56 +
STACK CFI 2f97b $rsi: .cfa -64 + ^ .cfa: $rsp 64 +
STACK CFI 2f97c $rbx: .cfa -72 + ^ .cfa: $rsp 72 +
STACK CFI 2f980 .cfa: $rsp 192 +
STACK CFI 2f99c .cfa: $rsp 72 +
STACK CFI 2f99d $rbx: $rbx .cfa: $rsp 64 +
STACK CFI 2f99e $rsi: $rsi .cfa: $rsp 56 +
STACK CFI 2f99f $rdi: $rdi .cfa: $rsp 48 +
STACK CFI 2f9a0 $rbp: $rbp .cfa: $rsp 40 +
STACK CFI 2f9a2 $r12: $r12 .cfa: $rsp 32 +
STACK CFI 2f9a4 $r13: $r13 .cfa: $rsp 24 +
STACK CFI 2f9a6 $r14: $r14 .cfa: $rsp 16 +
STACK CFI 2f9a8 $r15: $r15 .cfa: $rsp 8 +
STACK CFI 2f9b0 $r12: .cfa -40 + ^ $r13: .cfa -32 + ^ $r14: .cfa -24 + ^ $r15: .cfa -16 + ^ $rbp: .cfa -48 + ^ $rbx: .cfa -72 + ^ $rdi: .cfa -56 + ^ $rsi: .cfa -64 + ^ .cfa: $rsp 192 +
STACK CFI INIT 2ff00 e4 .cfa: $rsp 8 + .ra: .cfa -8 + ^
STACK CFI 2ff01 $rsi: .cfa -16 + ^ .cfa: $rsp 16 +
STACK CFI 2ff02 $rbx: .cfa -24 + ^ .cfa: $rsp 24 +
STACK CFI 2ff0f .cfa: $rsp 32896 +
STACK CFI 2ff92 .cfa: $rsp 24 +
STACK CFI 2ff93 $rbx: $rbx .cfa: $rsp 16 +
STACK CFI 2ff94 $rsi: $rsi .cfa: $rsp 8 +
STACK CFI 2ff95 $rbx: .cfa -24 + ^ $rsi: .cfa -16 + ^ .cfa: $rsp 32896 +
STACK CFI 2ffe1 .cfa: $rsp 24 +
STACK CFI 2ffe2 $rbx: $rbx .cfa: $rsp 16 +
STACK CFI 2ffe3 $rsi: $rsi .cfa: $rsp 8 +
STACK CFI INIT 2fff0 85f .cfa: $rsp 8 + .ra: .cfa -8 + ^
STACK CFI 2fff2 $r15: .cfa -16 + ^ .cfa: $rsp 16 +
STACK CFI 2fff4 $r14: .cfa -24 + ^ .cfa: $rsp 24 +
STACK CFI 2fffb $r13: .cfa -32 + ^ .cfa: $rsp 32 +
STACK CFI 2fffd $r12: .cfa -40 + ^ .cfa: $rsp 40 +
STACK CFI 2fffe $rbp: .cfa -48 + ^ .cfa: $rsp 48 +
STACK CFI 2ffff $rdi: .cfa -56 + ^ .cfa: $rsp 56 +
STACK CFI 30000 $rsi: .cfa -64 + ^ .cfa: $rsp 64 +
STACK CFI 30001 $rbx: .cfa -72 + ^ .cfa: $rsp 72 +
STACK CFI 30009 .cfa: $rsp 32976 +
STACK CFI 303b9 .cfa: $rsp 72 +
STACK CFI 303ba $rbx: $rbx .cfa: $rsp 64 +
STACK CFI 303bb $rsi: $rsi .cfa: $rsp 56 +
STACK CFI 303bc $rdi: $rdi .cfa: $rsp 48 +
STACK CFI 303bd $rbp: $rbp .cfa: $rsp 40 +
STACK CFI 303bf $r12: $r12 .cfa: $rsp 32 +
STACK CFI 303c1 $r13: $r13 .cfa: $rsp 24 +
STACK CFI 303c3 $r14: $r14 .cfa: $rsp 16 +
STACK CFI 303c5 $r15: $r15 .cfa: $rsp 8 +
STACK CFI 303d0 $r12: .cfa -40 + ^ $r13: .cfa -32 + ^ $r14: .cfa -24 + ^ $r15: .cfa -16 + ^ $rbp: .cfa -48 + ^ $rbx: .cfa -72 + ^ $rdi: .cfa -56 + ^ $rsi: .cfa -64 + ^ .cfa: $rsp 32976 +
STACK CFI INIT 30850 2fa .cfa: $rsp 8 + .ra: .cfa -8 + ^
STACK CFI 30852 $r15: .cfa -16 + ^ .cfa: $rsp 16 +
STACK CFI 30854 $r14: .cfa -24 + ^ .cfa: $rsp 24 +
STACK CFI 30856 $r13: .cfa -32 + ^ .cfa: $rsp 32 +
STACK CFI 30858 $r12: .cfa -40 + ^ .cfa: $rsp 40 +
STACK CFI 30859 $rbp: .cfa -48 + ^ .cfa: $rsp 48 +
STACK CFI 3085a $rdi: .cfa -56 + ^ .cfa: $rsp 56 +
STACK CFI 3085b $rsi: .cfa -64 + ^ .cfa: $rsp 64 +
STACK CFI 3085c $rbx: .cfa -72 + ^ .cfa: $rsp 72 +
STACK CFI 30863 .cfa: $rsp 208 +
STACK CFI 309ea .cfa: $rsp 72 +
STACK CFI 309eb $rbx: $rbx .cfa: $rsp 64 +
STACK CFI 309ec $rsi: $rsi .cfa: $rsp 56 +
STACK CFI 309ed $rdi: $rdi .cfa: $rsp 48 +
STACK CFI 309ee $rbp: $rbp .cfa: $rsp 40 +
STACK CFI 309f0 $r12: $r12 .cfa: $rsp 32 +
STACK CFI 309f2 $r13: $r13 .cfa: $rsp 24 +
STACK CFI 309f4 $r14: $r14 .cfa: $rsp 16 +
STACK CFI 309f6 $r15: $r15 .cfa: $rsp 8 +
STACK CFI 30a00 $r12: .cfa -40 + ^ $r13: .cfa -32 + ^ $r14: .cfa -24 + ^ $r15: .cfa -16 + ^ $rbp: .cfa -48 + ^ $rbx: .cfa -72 + ^ $rdi: .cfa -56 + ^ $rsi: .cfa -64 + ^ .cfa: $rsp 208 +
STACK CFI INIT 1854e0 20 .cfa: $rsp 8 + .ra: .cfa -8 + ^
STACK CFI 1854e4 .cfa: $rsp 48 +
STACK CFI 1854fb .cfa: $rsp 8 +
STACK CFI INIT 30b50 c .cfa: $rsp 8 + .ra: .cfa -8 + ^
STACK CFI INIT 30b60 94 .cfa: $rsp 8 + .ra: .cfa -8 + ^
STACK CFI 30b61 $rdi: .cfa -16 + ^ .cfa: $rsp 16 +
STACK CFI 30b62 $rsi: .cfa -24 + ^ .cfa: $rsp 24 +
STACK CFI 30b63 $rbx: .cfa -32 + ^ .cfa: $rsp 32 +
STACK CFI 30b67 .cfa: $rsp 80 +
STACK CFI 30bad .cfa: $rsp 32 +
STACK CFI 30bae $rbx: $rbx .cfa: $rsp 24 +
STACK CFI 30baf $rsi: $rsi .cfa: $rsp 16 +
STACK CFI 30bb0 $rdi: $rdi .cfa: $rsp 8 +
STACK CFI 30bb1 $rbx: .cfa -32 + ^ $rdi: .cfa -16 + ^ $rsi: .cfa -24 + ^ .cfa: $rsp 80 +
STACK CFI INIT 185500 30 .cfa: $rsp 8 + .ra: .cfa -8 + ^
STACK CFI 185501 $rsi: .cfa -16 + ^ .cfa: $rsp 16 +
STACK CFI 185502 $rbx: .cfa -24 + ^ .cfa: $rsp 24 +
STACK CFI 185506 .cfa: $rsp 64 +
STACK CFI 185529 .cfa: $rsp 24 +
STACK CFI 18552a $rbx: $rbx .cfa: $rsp 16 +
STACK CFI 18552b $rsi: $rsi .cfa: $rsp 8 +
STACK CFI INIT 30c00 7b .cfa: $rsp 8 + .ra: .cfa -8 + ^
STACK CFI 30c01 $rdi: .cfa -16 + ^ .cfa: $rsp 16 +
STACK CFI 30c02 $rsi: .cfa -24 + ^ .cfa: $rsp 24 +
STACK CFI 30c03 $rbx: .cfa -32 + ^ .cfa: $rsp 32 +
STACK CFI 30c07 .cfa: $rsp 80 +
STACK CFI 30c55 .cfa: $rsp 32 +
STACK CFI 30c56 $rbx: $rbx .cfa: $rsp 24 +
STACK CFI 30c57 $rsi: $rsi .cfa: $rsp 16 +
STACK CFI 30c58 $rdi: $rdi .cfa: $rsp 8 +
STACK CFI 30c60 $rbx: .cfa -32 + ^ $rdi: .cfa -16 + ^ $rsi: .cfa -24 + ^ .cfa: $rsp 80 +
STACK CFI INIT 30c80 75 .cfa: $rsp 8 + .ra: .cfa -8 + ^
STACK CFI 30c84 .cfa: $rsp 48 +
STACK CFI 30ce7 .cfa: $rsp 8 +
STACK CFI 30cf0 .cfa: $rsp 48 +
STACK CFI 30cf4 .cfa: $rsp 8 +
STACK CFI INIT 30d00 75 .cfa: $rsp 8 + .ra: .cfa -8 + ^
STACK CFI 30d04 .cfa: $rsp 48 +
STACK CFI 30d67 .cfa: $rsp 8 +
STACK CFI 30d70 .cfa: $rsp 48 +
STACK CFI 30d74 .cfa: $rsp 8 +
STACK CFI INIT 30d80 75 .cfa: $rsp 8 + .ra: .cfa -8 + ^
STACK CFI 30d84 .cfa: $rsp 48 +
STACK CFI 30de7 .cfa: $rsp 8 +
STACK CFI 30df0 .cfa: $rsp 48 +
STACK CFI 30df4 .cfa: $rsp 8 +
STACK CFI INIT 30e00 21b .cfa: $rsp 8 + .ra: .cfa -8 + ^
STACK CFI 30e02 $r15: .cfa -16 + ^ .cfa: $rsp 16 +
STACK CFI 30e04 $r14: .cfa -24 + ^ .cfa: $rsp 24 +
STACK CFI 30e06 $r13: .cfa -32 + ^ .cfa: $rsp 32 +
STACK CFI 30e08 $r12: .cfa -40 + ^ .cfa: $rsp 40 +
STACK CFI 30e09 $rbp: .cfa -48 + ^ .cfa: $rsp 48 +
STACK CFI 30e0a $rdi: .cfa -56 + ^ .cfa: $rsp 56 +
STACK CFI 30e0b $rsi: .cfa -64 + ^ .cfa: $rsp 64 +
STACK CFI 30e0c $rbx: .cfa -72 + ^ .cfa: $rsp 72 +
STACK CFI 30e10 .cfa: $rsp 128 +
STACK CFI 30f8d .cfa: $rsp 72 +
STACK CFI 30f8e $rbx: $rbx .cfa: $rsp 64 +
STACK CFI 30f8f $rsi: $rsi .cfa: $rsp 56 +
STACK CFI 30f90 $rdi: $rdi .cfa: $rsp 48 +
STACK CFI 30f91 $rbp: $rbp .cfa: $rsp 40 +
STACK CFI 30f93 $r12: $r12 .cfa: $rsp 32 +
STACK CFI 30f95 $r13: $r13 .cfa: $rsp 24 +
STACK CFI 30f97 $r14: $r14 .cfa: $rsp 16 +
STACK CFI 30f99 $r15: $r15 .cfa: $rsp 8 +
STACK CFI 30f9e $r12: .cfa -40 + ^ $r13: .cfa -32 + ^ $r14: .cfa -24 + ^ $r15: .cfa -16 + ^ $rbp: .cfa -48 + ^ $rbx: .cfa -72 + ^ $rdi: .cfa -56 + ^ $rsi: .cfa -64 + ^ .cfa: $rsp 128 +
STACK CFI 3100e .cfa: $rsp 72 +
STACK CFI 3100f $rbx: $rbx .cfa: $rsp 64 +
STACK CFI 31010 $rsi: $rsi .cfa: $rsp 56 +
STACK CFI 31011 $rdi: $rdi .cfa: $rsp 48 +
STACK CFI 31012 $rbp: $rbp .cfa: $rsp 40 +
STACK CFI 31014 $r12: $r12 .cfa: $rsp 32 +
STACK CFI 31016 $r13: $r13 .cfa: $rsp 24 +
STACK CFI 31018 $r14: $r14 .cfa: $rsp 16 +
STACK CFI 3101a $r15: $r15 .cfa: $rsp 8 +
STACK CFI INIT 31020 f .cfa: $rsp 8 + .ra: .cfa -8 + ^
STACK CFI INIT 31030 8 .cfa: $rsp 8 + .ra: .cfa -8 + ^
STACK CFI INIT 31040 eb .cfa: $rsp 8 + .ra: .cfa -8 + ^
STACK CFI 31041 $rdi: .cfa -16 + ^ .cfa: $rsp 16 +
STACK CFI 31042 $rsi: .cfa -24 + ^ .cfa: $rsp 24 +
STACK CFI 31043 $rbx: .cfa -32 + ^ .cfa: $rsp 32 +
STACK CFI 31047 .cfa: $rsp 128 +
STACK CFI 310f9 .cfa: $rsp 32 +
STACK CFI 310fa $rbx: $rbx .cfa: $rsp 24 +
STACK CFI 310fb $rsi: $rsi .cfa: $rsp 16 +
STACK CFI 310fc $rdi: $rdi .cfa: $rsp 8 +
STACK CFI 310fd $rbx: .cfa -32 + ^ $rdi: .cfa -16 + ^ $rsi: .cfa -24 + ^ .cfa: $rsp 128 +
STACK CFI INIT 31130 8 .cfa: $rsp 8 + .ra: .cfa -8 + ^
STACK CFI INIT 31140 21c .cfa: $rsp 8 + .ra: .cfa -8 + ^
STACK CFI 31142 $r15: .cfa -16 + ^ .cfa: $rsp 16 +
STACK CFI 31144 $r14: .cfa -24 + ^ .cfa: $rsp 24 +
STACK CFI 31146 $r13: .cfa -32 + ^ .cfa: $rsp 32 +
STACK CFI 31148 $r12: .cfa -40 + ^ .cfa: $rsp 40 +
STACK CFI 31149 $rbp: .cfa -48 + ^ .cfa: $rsp 48 +
STACK CFI 3114a $rdi: .cfa -56 + ^ .cfa: $rsp 56 +
STACK CFI 3114b $rsi: .cfa -64 + ^ .cfa: $rsp 64 +
STACK CFI 3114c $rbx: .cfa -72 + ^ .cfa: $rsp 72 +
STACK CFI 31150 .cfa: $rsp 144 +
STACK CFI 312eb .cfa: $rsp 72 +
STACK CFI 312ec $rbx: $rbx .cfa: $rsp 64 +
STACK CFI 312ed $rsi: $rsi .cfa: $rsp 56 +
STACK CFI 312ee $rdi: $rdi .cfa: $rsp 48 +
STACK CFI 312ef $rbp: $rbp .cfa: $rsp 40 +
STACK CFI 312f1 $r12: $r12 .cfa: $rsp 32 +
STACK CFI 312f3 $r13: $r13 .cfa: $rsp 24 +
STACK CFI 312f5 $r14: $r14 .cfa: $rsp 16 +
STACK CFI 312f7 $r15: $r15 .cfa: $rsp 8 +
STACK CFI 312f8 $r12: .cfa -40 + ^ $r13: .cfa -32 + ^ $r14: .cfa -24 + ^ $r15: .cfa -16 + ^ $rbp: .cfa -48 + ^ $rbx: .cfa -72 + ^ $rdi: .cfa -56 + ^ $rsi: .cfa -64 + ^ .cfa: $rsp 144 +
STACK CFI INIT 31360 3d6 .cfa: $rsp 8 + .ra: .cfa -8 + ^
STACK CFI 31362 $r15: .cfa -16 + ^ .cfa: $rsp 16 +
STACK CFI 31364 $r14: .cfa -24 + ^ .cfa: $rsp 24 +
STACK CFI 31366 $r13: .cfa -32 + ^ .cfa: $rsp 32 +
STACK CFI 31368 $r12: .cfa -40 + ^ .cfa: $rsp 40 +
STACK CFI 31369 $rbp: .cfa -48 + ^ .cfa: $rsp 48 +
STACK CFI 3136a $rdi: .cfa -56 + ^ .cfa: $rsp 56 +
STACK CFI 3136b $rsi: .cfa -64 + ^ .cfa: $rsp 64 +
STACK CFI 3136c $rbx: .cfa -72 + ^ .cfa: $rsp 72 +
STACK CFI 31373 .cfa: $rsp 224 +
STACK CFI 3160d .cfa: $rsp 72 +
STACK CFI 3160e $rbx: $rbx .cfa: $rsp 64 +
STACK CFI 3160f $rsi: $rsi .cfa: $rsp 56 +
STACK CFI 31610 $rdi: $rdi .cfa: $rsp 48 +
STACK CFI 31611 $rbp: $rbp .cfa: $rsp 40 +
STACK CFI 31613 $r12: $r12 .cfa: $rsp 32 +
STACK CFI 31615 $r13: $r13 .cfa: $rsp 24 +
STACK CFI 31617 $r14: $r14 .cfa: $rsp 16 +
STACK CFI 31619 $r15: $r15 .cfa: $rsp 8 +
STACK CFI 31620 $r12: .cfa -40 + ^ $r13: .cfa -32 + ^ $r14: .cfa -24 + ^ $r15: .cfa -16 + ^ $rbp: .cfa -48 + ^ $rbx: .cfa -72 + ^ $rdi: .cfa -56 + ^ $rsi: .cfa -64 + ^ .cfa: $rsp 224 +
STACK CFI INIT 31740 1c8 .cfa: $rsp 8 + .ra: .cfa -8 + ^
STACK CFI 31741 $rdi: .cfa -16 + ^ .cfa: $rsp 16 +
STACK CFI 31742 $rsi: .cfa -24 + ^ .cfa: $rsp 24 +
STACK CFI 31743 $rbx: .cfa -32 + ^ .cfa: $rsp 32 +
STACK CFI 31747 .cfa: $rsp 64 +
STACK CFI 31882 .cfa: $rsp 32 +
STACK CFI 31883 $rbx: $rbx .cfa: $rsp 24 +
STACK CFI 31884 $rsi: $rsi .cfa: $rsp 16 +
STACK CFI 31885 $rdi: $rdi .cfa: $rsp 8 +
STACK CFI 31890 $rbx: .cfa -32 + ^ $rdi: .cfa -16 + ^ $rsi: .cfa -24 + ^ .cfa: $rsp 64 +
STACK CFI 318d8 .cfa: $rsp 32 +
STACK CFI 318d9 $rbx: $rbx .cfa: $rsp 24 +
STACK CFI 318da $rsi: $rsi .cfa: $rsp 16 +
STACK CFI 318db $rdi: $rdi .cfa: $rsp 8 +
STACK CFI 318e0 $rbx: .cfa -32 + ^ $rdi: .cfa -16 + ^ $rsi: .cfa -24 + ^ .cfa: $rsp 64 +
STACK CFI INIT 31910 21a .cfa: $rsp 8 + .ra: .cfa -8 + ^
STACK CFI 31912 $r13: .cfa -16 + ^ .cfa: $rsp 16 +
STACK CFI 31914 $r12: .cfa -24 + ^ .cfa: $rsp 24 +
STACK CFI 31915 $rbp: .cfa -32 + ^ .cfa: $rsp 32 +
STACK CFI 31916 $rdi: .cfa -40 + ^ .cfa: $rsp 40 +
STACK CFI 31917 $rsi: .cfa -48 + ^ .cfa: $rsp 48 +
STACK CFI 31918 $rbx: .cfa -56 + ^ .cfa: $rsp 56 +
STACK CFI 3191f .cfa: $rsp 208 +
STACK CFI 31a56 .cfa: $rsp 56 +
STACK CFI 31a57 $rbx: $rbx .cfa: $rsp 48 +
STACK CFI 31a58 $rsi: $rsi .cfa: $rsp 40 +
STACK CFI 31a59 $rdi: $rdi .cfa: $rsp 32 +
STACK CFI 31a5a $rbp: $rbp .cfa: $rsp 24 +
STACK CFI 31a5c $r12: $r12 .cfa: $rsp 16 +
STACK CFI 31a5e $r13: $r13 .cfa: $rsp 8 +
STACK CFI 31a60 $r12: .cfa -24 + ^ $r13: .cfa -16 + ^ $rbp: .cfa -32 + ^ $rbx: .cfa -56 + ^ $rdi: .cfa -40 + ^ $rsi: .cfa -48 + ^ .cfa: $rsp 208 +
STACK CFI INIT 31b30 7ad .cfa: $rsp 8 + .ra: .cfa -8 + ^
STACK CFI 31b32 $r15: .cfa -16 + ^ .cfa: $rsp 16 +
STACK CFI 31b34 $r14: .cfa -24 + ^ .cfa: $rsp 24 +
STACK CFI 31b36 $r13: .cfa -32 + ^ .cfa: $rsp 32 +
STACK CFI 31b38 $r12: .cfa -40 + ^ .cfa: $rsp 40 +
STACK CFI 31b39 $rbp: .cfa -48 + ^ .cfa: $rsp 48 +
STACK CFI 31b3a $rdi: .cfa -56 + ^ .cfa: $rsp 56 +
STACK CFI 31b3b $rsi: .cfa -64 + ^ .cfa: $rsp 64 +
STACK CFI 31b3c $rbx: .cfa -72 + ^ .cfa: $rsp 72 +
STACK CFI 31b43 .cfa: $rsp 304 +
STACK CFI 31ff6 .cfa: $rsp 72 +
STACK CFI 31ff7 $rbx: $rbx .cfa: $rsp 64 +
STACK CFI 31ff8 $rsi: $rsi .cfa: $rsp 56 +
STACK CFI 31ff9 $rdi: $rdi .cfa: $rsp 48 +
STACK CFI 31ffa $rbp: $rbp .cfa: $rsp 40 +
STACK CFI 31ffc $r12: $r12 .cfa: $rsp 32 +
STACK CFI 31ffe $r13: $r13 .cfa: $rsp 24 +
STACK CFI 32000 $r14: $r14 .cfa: $rsp 16 +
STACK CFI 32002 $r15: $r15 .cfa: $rsp 8 +
STACK CFI 32003 $r12: .cfa -40 + ^ $r13: .cfa -32 + ^ $r14: .cfa -24 + ^ $r15: .cfa -16 + ^ $rbp: .cfa -48 + ^ $rbx: .cfa -72 + ^ $rdi: .cfa -56 + ^ $rsi: .cfa -64 + ^ .cfa: $rsp 304 +
STACK CFI INIT 322e0 208 .cfa: $rsp 8 + .ra: .cfa -8 + ^
STACK CFI 322e1 $rbp: .cfa -16 + ^ .cfa: $rsp 16 +
STACK CFI 322e2 $rdi: .cfa -24 + ^ .cfa: $rsp 24 +
STACK CFI 322e3 $rsi: .cfa -32 + ^ .cfa: $rsp 32 +
STACK CFI 322e4 $rbx: .cfa -40 + ^ .cfa: $rsp 40 +
STACK CFI 322eb .cfa: $rsp 208 +
STACK CFI 32350 .cfa: $rsp 40 +
STACK CFI 32351 $rbx: $rbx .cfa: $rsp 32 +
STACK CFI 32352 $rsi: $rsi .cfa: $rsp 24 +
STACK CFI 32353 $rdi: $rdi .cfa: $rsp 16 +
STACK CFI 32354 $rbp: $rbp .cfa: $rsp 8 +
STACK CFI 32355 $rbp: .cfa -16 + ^ $rbx: .cfa -40 + ^ $rdi: .cfa -24 + ^ $rsi: .cfa -32 + ^ .cfa: $rsp 208 +
STACK CFI INIT 324f0 45 .cfa: $rsp 8 + .ra: .cfa -8 + ^
STACK CFI 324f1 $rbx: .cfa -16 + ^ .cfa: $rsp 16 +
STACK CFI 324f5 .cfa: $rsp 48 +
STACK CFI 32509 .cfa: $rsp 16 +
STACK CFI 3250a $rbx: $rbx .cfa: $rsp 8 +
STACK CFI 32510 $rbx: .cfa -16 + ^ .cfa: $rsp 48 +
STACK CFI 32533 .cfa: $rsp 16 +
STACK CFI 32534 $rbx: $rbx .cfa: $rsp 8 +
STACK CFI INIT 185530 35a .cfa: $rsp 8 + .ra: .cfa -8 + ^
STACK CFI 185531 $rbp: .cfa -16 + ^ .cfa: $rsp 16 +
STACK CFI 185532 $rdi: .cfa -24 + ^ .cfa: $rsp 24 +
STACK CFI 185533 $rsi: .cfa -32 + ^ .cfa: $rsp 32 +
STACK CFI 185534 $rbx: .cfa -40 + ^ .cfa: $rsp 40 +
STACK CFI 18553b .cfa: $rsp 256 +
STACK CFI 185808 .cfa: $rsp 40 +
STACK CFI 185809 $rbx: $rbx .cfa: $rsp 32 +
STACK CFI 18580a $rsi: $rsi .cfa: $rsp 24 +
STACK CFI 18580b $rdi: $rdi .cfa: $rsp 16 +
STACK CFI 18580c $rbp: $rbp .cfa: $rsp 8 +
STACK CFI 18580d $rbp: .cfa -16 + ^ $rbx: .cfa -40 + ^ $rdi: .cfa -24 + ^ $rsi: .cfa -32 + ^ .cfa: $rsp 256 +
STACK CFI INIT 185890 5 .cfa: $rsp 8 + .ra: .cfa -8 + ^
STACK CFI INIT 32540 c .cfa: $rsp 8 + .ra: .cfa -8 + ^
STACK CFI INIT 32550 3 .cfa: $rsp 8 + .ra: .cfa -8 + ^
STACK CFI INIT 32560 39 .cfa: $rsp 8 + .ra: .cfa -8 + ^
STACK CFI INIT 325a0 3 .cfa: $rsp 8 + .ra: .cfa -8 + ^
STACK CFI INIT 325b0 3 .cfa: $rsp 8 + .ra: .cfa -8 + ^
STACK CFI INIT 325c0 1 .cfa: $rsp 8 + .ra: .cfa -8 + ^
STACK CFI INIT 325d0 3 .cfa: $rsp 8 + .ra: .cfa -8 + ^
STACK CFI INIT 325e0 1 .cfa: $rsp 8 + .ra: .cfa -8 + ^
STACK CFI INIT 325f0 8 .cfa: $rsp 8 + .ra: .cfa -8 + ^
STACK CFI INIT 32600 1b .cfa: $rsp 8 + .ra: .cfa -8 + ^
STACK CFI INIT 32620 1 .cfa: $rsp 8 + .ra: .cfa -8 + ^
STACK CFI INIT 32630 1 .cfa: $rsp 8 + .ra: .cfa -8 + ^
STACK CFI INIT 32640 3 .cfa: $rsp 8 + .ra: .cfa -8 + ^
STACK CFI INIT 32650 3 .cfa: $rsp 8 + .ra: .cfa -8 + ^
STACK CFI INIT 32660 1 .cfa: $rsp 8 + .ra: .cfa -8 + ^
STACK CFI INIT 32670 1 .cfa: $rsp 8 + .ra: .cfa -8 + ^
STACK CFI INIT 32680 1 .cfa: $rsp 8 + .ra: .cfa -8 + ^
STACK CFI INIT 32690 1 .cfa: $rsp 8 + .ra: .cfa -8 + ^
STACK CFI INIT 326a0 3 .cfa: $rsp 8 + .ra: .cfa -8 + ^
STACK CFI INIT 326b0 3 .cfa: $rsp 8 + .ra: .cfa -8 + ^
STACK CFI INIT 326c0 1 .cfa: $rsp 8 + .ra: .cfa -8 + ^
STACK CFI INIT 326d0 1 .cfa: $rsp 8 + .ra: .cfa -8 + ^
STACK CFI INIT 326e0 1 .cfa: $rsp 8 + .ra: .cfa -8 + ^
STACK CFI INIT 326f0 1 .cfa: $rsp 8 + .ra: .cfa -8 + ^
STACK CFI INIT 32700 1 .cfa: $rsp 8 + .ra: .cfa -8 + ^
STACK CFI INIT 1858a0 20 .cfa: $rsp 8 + .ra: .cfa -8 + ^
STACK CFI 1858a4 .cfa: $rsp 48 +
STACK CFI 1858bb .cfa: $rsp 8 +
STACK CFI INIT 32710 c .cfa: $rsp 8 + .ra: .cfa -8 + ^
STACK CFI INIT 32720 94 .cfa: $rsp 8 + .ra: .cfa -8 + ^
STACK CFI 32721 $rdi: .cfa -16 + ^ .cfa: $rsp 16 +
STACK CFI 32722 $rsi: .cfa -24 + ^ .cfa: $rsp 24 +
STACK CFI 32723 $rbx: .cfa -32 + ^ .cfa: $rsp 32 +
STACK CFI 32727 .cfa: $rsp 80 +
STACK CFI 3276d .cfa: $rsp 32 +
STACK CFI 3276e $rbx: $rbx .cfa: $rsp 24 +
STACK CFI 3276f $rsi: $rsi .cfa: $rsp 16 +
STACK CFI 32770 $rdi: $rdi .cfa: $rsp 8 +
STACK CFI 32771 $rbx: .cfa -32 + ^ $rdi: .cfa -16 + ^ $rsi: .cfa -24 + ^ .cfa: $rsp 80 +
STACK CFI INIT 327c0 1 .cfa: $rsp 8 + .ra: .cfa -8 + ^
STACK CFI INIT 327d0 29 .cfa: $rsp 8 + .ra: .cfa -8 + ^
STACK CFI 327d4 .cfa: $rsp 48 +
STACK CFI 327f8 .cfa: $rsp 8 +
STACK CFI INIT 32800 1 .cfa: $rsp 8 + .ra: .cfa -8 + ^
STACK CFI INIT 32810 1 .cfa: $rsp 8 + .ra: .cfa -8 + ^
STACK CFI INIT 32820 1 .cfa: $rsp 8 + .ra: .cfa -8 + ^
STACK CFI INIT 32830 1 .cfa: $rsp 8 + .ra: .cfa -8 + ^
STACK CFI INIT 32840 1 .cfa: $rsp 8 + .ra: .cfa -8 + ^
STACK CFI INIT 32850 1 .cfa: $rsp 8 + .ra: .cfa -8 + ^
STACK CFI INIT 32860 1 .cfa: $rsp 8 + .ra: .cfa -8 + ^
STACK CFI INIT 32870 1 .cfa: $rsp 8 + .ra: .cfa -8 + ^
STACK CFI INIT 32880 1 .cfa: $rsp 8 + .ra: .cfa -8 + ^
STACK CFI INIT 32890 1 .cfa: $rsp 8 + .ra: .cfa -8 + ^
STACK CFI INIT 328a0 1 .cfa: $rsp 8 + .ra: .cfa -8 + ^
STACK CFI INIT 328b0 1 .cfa: $rsp 8 + .ra: .cfa -8 + ^
STACK CFI INIT 328c0 3a .cfa: $rsp 8 + .ra: .cfa -8 + ^
STACK CFI 328c4 .cfa: $rsp 64 +
STACK CFI 328f9 .cfa: $rsp 8 +
STACK CFI INIT 1858c0 20 .cfa: $rsp 8 + .ra: .cfa -8 + ^
STACK CFI 1858c4 .cfa: $rsp 48 +
STACK CFI 1858db .cfa: $rsp 8 +
STACK CFI INIT 32900 c .cfa: $rsp 8 + .ra: .cfa -8 + ^
STACK CFI INIT 32910 1 .cfa: $rsp 8 + .ra: .cfa -8 + ^
STACK CFI INIT 32920 1 .cfa: $rsp 8 + .ra: .cfa -8 + ^
STACK CFI INIT 32930 1 .cfa: $rsp 8 + .ra: .cfa -8 + ^
STACK CFI INIT 32940 1 .cfa: $rsp 8 + .ra: .cfa -8 + ^
STACK CFI INIT 32950 1 .cfa: $rsp 8 + .ra: .cfa -8 + ^
STACK CFI INIT 32960 1 .cfa: $rsp 8 + .ra: .cfa -8 + ^
STACK CFI INIT 32970 1 .cfa: $rsp 8 + .ra: .cfa -8 + ^
STACK CFI INIT 32980 3 .cfa: $rsp 8 + .ra: .cfa -8 + ^
STACK CFI INIT 32990 1 .cfa: $rsp 8 + .ra: .cfa -8 + ^
STACK CFI INIT 1858e0 20 .cfa: $rsp 8 + .ra: .cfa -8 + ^
STACK CFI 1858e4 .cfa: $rsp 48 +
STACK CFI 1858fb .cfa: $rsp 8 +
STACK CFI INIT 329a0 31 .cfa: $rsp 8 + .ra: .cfa -8 + ^
STACK CFI INIT 329e0 c .cfa: $rsp 8 + .ra: .cfa -8 + ^
STACK CFI INIT 329f0 94 .cfa: $rsp 8 + .ra: .cfa -8 + ^
STACK CFI 329f1 $rdi: .cfa -16 + ^ .cfa: $rsp 16 +
STACK CFI 329f2 $rsi: .cfa -24 + ^ .cfa: $rsp 24 +
STACK CFI 329f3 $rbx: .cfa -32 + ^ .cfa: $rsp 32 +
STACK CFI 329f7 .cfa: $rsp 80 +
STACK CFI 32a3d .cfa: $rsp 32 +
STACK CFI 32a3e $rbx: $rbx .cfa: $rsp 24 +
STACK CFI 32a3f $rsi: $rsi .cfa: $rsp 16 +
STACK CFI 32a40 $rdi: $rdi .cfa: $rsp 8 +
STACK CFI 32a41 $rbx: .cfa -32 + ^ $rdi: .cfa -16 + ^ $rsi: .cfa -24 + ^ .cfa: $rsp 80 +
STACK CFI INIT 32a90 e8 .cfa: $rsp 8 + .ra: .cfa -8 + ^
STACK CFI 32a91 $rbx: .cfa -16 + ^ .cfa: $rsp 16 +
STACK CFI 32a95 .cfa: $rsp 64 +
STACK CFI 32aab .cfa: $rsp 16 +
STACK CFI 32aac $rbx: $rbx .cfa: $rsp 8 +
STACK CFI 32ab0 $rbx: .cfa -16 + ^ .cfa: $rsp 64 +
STACK CFI 32b30 .cfa: $rsp 16 +
STACK CFI 32b31 $rbx: $rbx .cfa: $rsp 8 +
STACK CFI 32b32 $rbx: .cfa -16 + ^ .cfa: $rsp 64 +
STACK CFI INIT 185900 20 .cfa: $rsp 8 + .ra: .cfa -8 + ^
STACK CFI 185904 .cfa: $rsp 48 +
STACK CFI 18591b .cfa: $rsp 8 +
STACK CFI INIT 32b80 c .cfa: $rsp 8 + .ra: .cfa -8 + ^
STACK CFI INIT 185920 20 .cfa: $rsp 8 + .ra: .cfa -8 + ^
STACK CFI 185924 .cfa: $rsp 48 +
STACK CFI 18593b .cfa: $rsp 8 +
STACK CFI INIT 32b90 ac .cfa: $rsp 8 + .ra: .cfa -8 + ^
STACK CFI INIT 32c40 1b .cfa: $rsp 8 + .ra: .cfa -8 + ^
STACK CFI INIT 32c60 23 .cfa: $rsp 8 + .ra: .cfa -8 + ^
STACK CFI 32c64 .cfa: $rsp 48 +
STACK CFI 32c7a .cfa: $rsp 8 +
STACK CFI 32c7d .cfa: $rsp 48 +
STACK CFI INIT 32c90 56 .cfa: $rsp 8 + .ra: .cfa -8 + ^
STACK CFI 32c91 $rbx: .cfa -16 + ^ .cfa: $rsp 16 +
STACK CFI 32c95 .cfa: $rsp 96 +
STACK CFI 32cde .cfa: $rsp 16 +
STACK CFI 32cdf $rbx: $rbx .cfa: $rsp 8 +
STACK CFI 32ce0 $rbx: .cfa -16 + ^ .cfa: $rsp 96 +
STACK CFI INIT 32cf0 c .cfa: $rsp 8 + .ra: .cfa -8 + ^
STACK CFI INIT 32d00 94 .cfa: $rsp 8 + .ra: .cfa -8 + ^
STACK CFI 32d01 $rdi: .cfa -16 + ^ .cfa: $rsp 16 +
STACK CFI 32d02 $rsi: .cfa -24 + ^ .cfa: $rsp 24 +
STACK CFI 32d03 $rbx: .cfa -32 + ^ .cfa: $rsp 32 +
STACK CFI 32d07 .cfa: $rsp 80 +
STACK CFI 32d4d .cfa: $rsp 32 +
STACK CFI 32d4e $rbx: $rbx .cfa: $rsp 24 +
STACK CFI 32d4f $rsi: $rsi .cfa: $rsp 16 +
STACK CFI 32d50 $rdi: $rdi .cfa: $rsp 8 +
STACK CFI 32d51 $rbx: .cfa -32 + ^ $rdi: .cfa -16 + ^ $rsi: .cfa -24 + ^ .cfa: $rsp 80 +
STACK CFI INIT 32da0 30a .cfa: $rsp 8 + .ra: .cfa -8 + ^
STACK CFI 32da2 $r15: .cfa -16 + ^ .cfa: $rsp 16 +
STACK CFI 32da4 $r14: .cfa -24 + ^ .cfa: $rsp 24 +
STACK CFI 32da6 $r13: .cfa -32 + ^ .cfa: $rsp 32 +
STACK CFI 32da8 $r12: .cfa -40 + ^ .cfa: $rsp 40 +
STACK CFI 32da9 $rbp: .cfa -48 + ^ .cfa: $rsp 48 +
STACK CFI 32daa $rdi: .cfa -56 + ^ .cfa: $rsp 56 +
STACK CFI 32dab $rsi: .cfa -64 + ^ .cfa: $rsp 64 +
STACK CFI 32dac $rbx: .cfa -72 + ^ .cfa: $rsp 72 +
STACK CFI 32db0 .cfa: $rsp 176 +
STACK CFI 32fde .cfa: $rsp 72 +
STACK CFI 32fdf $rbx: $rbx .cfa: $rsp 64 +
STACK CFI 32fe0 $rsi: $rsi .cfa: $rsp 56 +
STACK CFI 32fe1 $rdi: $rdi .cfa: $rsp 48 +
STACK CFI 32fe2 $rbp: $rbp .cfa: $rsp 40 +
STACK CFI 32fe4 $r12: $r12 .cfa: $rsp 32 +
STACK CFI 32fe6 $r13: $r13 .cfa: $rsp 24 +
STACK CFI 32fe8 $r14: $r14 .cfa: $rsp 16 +
STACK CFI 32fea $r15: $r15 .cfa: $rsp 8 +
STACK CFI 32ff0 $r12: .cfa -40 + ^ $r13: .cfa -32 + ^ $r14: .cfa -24 + ^ $r15: .cfa -16 + ^ $rbp: .cfa -48 + ^ $rbx: .cfa -72 + ^ $rdi: .cfa -56 + ^ $rsi: .cfa -64 + ^ .cfa: $rsp 176 +
STACK CFI INIT 330b0 1a4 .cfa: $rsp 8 + .ra: .cfa -8 + ^
STACK CFI 330b1 $rsi: .cfa -16 + ^ .cfa: $rsp 16 +
STACK CFI 330b2 $rbx: .cfa -24 + ^ .cfa: $rsp 24 +
STACK CFI 33132 $rbx: $rbx .cfa: $rsp 16 +
STACK CFI 33133 $rsi: $rsi .cfa: $rsp 8 +
STACK CFI 33134 $rbx: .cfa -24 + ^ $rsi: .cfa -16 + ^ .cfa: $rsp 24 +
STACK CFI 33196 $rbx: $rbx .cfa: $rsp 16 +
STACK CFI 33197 $rsi: $rsi .cfa: $rsp 8 +
STACK CFI 331a0 $rbx: .cfa -24 + ^ $rsi: .cfa -16 + ^ .cfa: $rsp 24 +
STACK CFI INIT 33260 3a7 .cfa: $rsp 8 + .ra: .cfa -8 + ^
STACK CFI 33262 $r15: .cfa -16 + ^ .cfa: $rsp 16 +
STACK CFI 33264 $r14: .cfa -24 + ^ .cfa: $rsp 24 +
STACK CFI 33266 $r13: .cfa -32 + ^ .cfa: $rsp 32 +
STACK CFI 33268 $r12: .cfa -40 + ^ .cfa: $rsp 40 +
STACK CFI 33269 $rbp: .cfa -48 + ^ .cfa: $rsp 48 +
STACK CFI 3326a $rdi: .cfa -56 + ^ .cfa: $rsp 56 +
STACK CFI 3326b $rsi: .cfa -64 + ^ .cfa: $rsp 64 +
STACK CFI 3326c $rbx: .cfa -72 + ^ .cfa: $rsp 72 +
STACK CFI 33273 .cfa: $rsp 208 +
STACK CFI 33368 .cfa: $rsp 72 +
STACK CFI 33369 $rbx: $rbx .cfa: $rsp 64 +
STACK CFI 3336a $rsi: $rsi .cfa: $rsp 56 +
STACK CFI 3336b $rdi: $rdi .cfa: $rsp 48 +
STACK CFI 3336c $rbp: $rbp .cfa: $rsp 40 +
STACK CFI 3336e $r12: $r12 .cfa: $rsp 32 +
STACK CFI 33370 $r13: $r13 .cfa: $rsp 24 +
STACK CFI 33372 $r14: $r14 .cfa: $rsp 16 +
STACK CFI 33374 $r15: $r15 .cfa: $rsp 8 +
STACK CFI 33375 $r12: .cfa -40 + ^ $r13: .cfa -32 + ^ $r14: .cfa -24 + ^ $r15: .cfa -16 + ^ $rbp: .cfa -48 + ^ $rbx: .cfa -72 + ^ $rdi: .cfa -56 + ^ $rsi: .cfa -64 + ^ .cfa: $rsp 208 +
STACK CFI INIT 33610 53 .cfa: $rsp 8 + .ra: .cfa -8 + ^
STACK CFI INIT 33670 66 .cfa: $rsp 8 + .ra: .cfa -8 + ^
STACK CFI INIT 336e0 b3 .cfa: $rsp 8 + .ra: .cfa -8 + ^
STACK CFI 336e2 $r14: .cfa -16 + ^ .cfa: $rsp 16 +
STACK CFI 336e4 $r13: .cfa -24 + ^ .cfa: $rsp 24 +
STACK CFI 336e5 $rbp: .cfa -32 + ^ .cfa: $rsp 32 +
STACK CFI 336e6 $rdi: .cfa -40 + ^ .cfa: $rsp 40 +
STACK CFI 336e7 $rsi: .cfa -48 + ^ .cfa: $rsp 48 +
STACK CFI 336e8 $rbx: .cfa -56 + ^ .cfa: $rsp 56 +
STACK CFI 336ec .cfa: $rsp 160 +
STACK CFI 3376b .cfa: $rsp 56 +
STACK CFI 3376c $rbx: $rbx .cfa: $rsp 48 +
STACK CFI 3376d $rsi: $rsi .cfa: $rsp 40 +
STACK CFI 3376e $rdi: $rdi .cfa: $rsp 32 +
STACK CFI 3376f $rbp: $rbp .cfa: $rsp 24 +
STACK CFI 33771 $r13: $r13 .cfa: $rsp 16 +
STACK CFI 33773 $r14: $r14 .cfa: $rsp 8 +
STACK CFI 33774 $r13: .cfa -24 + ^ $r14: .cfa -16 + ^ $rbp: .cfa -32 + ^ $rbx: .cfa -56 + ^ $rdi: .cfa -40 + ^ $rsi: .cfa -48 + ^ .cfa: $rsp 160 +
STACK CFI INIT 337a0 18 .cfa: $rsp 8 + .ra: .cfa -8 + ^
STACK CFI INIT 337c0 2e .cfa: $rsp 8 + .ra: .cfa -8 + ^
STACK CFI INIT 337f0 c .cfa: $rsp 8 + .ra: .cfa -8 + ^
STACK CFI INIT 33800 b .cfa: $rsp 8 + .ra: .cfa -8 + ^
STACK CFI INIT 33810 145 .cfa: $rsp 8 + .ra: .cfa -8 + ^
STACK CFI 33812 $r15: .cfa -16 + ^ .cfa: $rsp 16 +
STACK CFI 33814 $r14: .cfa -24 + ^ .cfa: $rsp 24 +
STACK CFI 33816 $r13: .cfa -32 + ^ .cfa: $rsp 32 +
STACK CFI 33818 $r12: .cfa -40 + ^ .cfa: $rsp 40 +
STACK CFI 33819 $rbp: .cfa -48 + ^ .cfa: $rsp 48 +
STACK CFI 3381a $rdi: .cfa -56 + ^ .cfa: $rsp 56 +
STACK CFI 3381b $rsi: .cfa -64 + ^ .cfa: $rsp 64 +
STACK CFI 3381c $rbx: .cfa -72 + ^ .cfa: $rsp 72 +
STACK CFI 33820 .cfa: $rsp 192 +
STACK CFI 3390a .cfa: $rsp 72 +
STACK CFI 3390b $rbx: $rbx .cfa: $rsp 64 +
STACK CFI 3390c $rsi: $rsi .cfa: $rsp 56 +
STACK CFI 3390d $rdi: $rdi .cfa: $rsp 48 +
STACK CFI 3390e $rbp: $rbp .cfa: $rsp 40 +
STACK CFI 33910 $r12: $r12 .cfa: $rsp 32 +
STACK CFI 33912 $r13: $r13 .cfa: $rsp 24 +
STACK CFI 33914 $r14: $r14 .cfa: $rsp 16 +
STACK CFI 33916 $r15: $r15 .cfa: $rsp 8 +
STACK CFI 33917 $r12: .cfa -40 + ^ $r13: .cfa -32 + ^ $r14: .cfa -24 + ^ $r15: .cfa -16 + ^ $rbp: .cfa -48 + ^ $rbx: .cfa -72 + ^ $rdi: .cfa -56 + ^ $rsi: .cfa -64 + ^ .cfa: $rsp 192 +
STACK CFI INIT 33960 e8 .cfa: $rsp 8 + .ra: .cfa -8 + ^
STACK CFI 33962 $r15: .cfa -16 + ^ .cfa: $rsp 16 +
STACK CFI 33964 $r14: .cfa -24 + ^ .cfa: $rsp 24 +
STACK CFI 33966 $r13: .cfa -32 + ^ .cfa: $rsp 32 +
STACK CFI 33968 $r12: .cfa -40 + ^ .cfa: $rsp 40 +
STACK CFI 33969 $rbp: .cfa -48 + ^ .cfa: $rsp 48 +
STACK CFI 3396a $rdi: .cfa -56 + ^ .cfa: $rsp 56 +
STACK CFI 3396b $rsi: .cfa -64 + ^ .cfa: $rsp 64 +
STACK CFI 3396c $rbx: .cfa -72 + ^ .cfa: $rsp 72 +
STACK CFI 33970 .cfa: $rsp 128 +
STACK CFI 33a14 .cfa: $rsp 72 +
STACK CFI 33a15 $rbx: $rbx .cfa: $rsp 64 +
STACK CFI 33a16 $rsi: $rsi .cfa: $rsp 56 +
STACK CFI 33a17 $rdi: $rdi .cfa: $rsp 48 +
STACK CFI 33a18 $rbp: $rbp .cfa: $rsp 40 +
STACK CFI 33a1a $r12: $r12 .cfa: $rsp 32 +
STACK CFI 33a1c $r13: $r13 .cfa: $rsp 24 +
STACK CFI 33a1e $r14: $r14 .cfa: $rsp 16 +
STACK CFI 33a20 $r15: $r15 .cfa: $rsp 8 +
STACK CFI 33a21 $r12: .cfa -40 + ^ $r13: .cfa -32 + ^ $r14: .cfa -24 + ^ $r15: .cfa -16 + ^ $rbp: .cfa -48 + ^ $rbx: .cfa -72 + ^ $rdi: .cfa -56 + ^ $rsi: .cfa -64 + ^ .cfa: $rsp 128 +
STACK CFI INIT 33a50 4 .cfa: $rsp 8 + .ra: .cfa -8 + ^
STACK CFI INIT 33a60 c .cfa: $rsp 8 + .ra: .cfa -8 + ^
STACK CFI INIT 33a70 b .cfa: $rsp 8 + .ra: .cfa -8 + ^
STACK CFI INIT 33a80 4 .cfa: $rsp 8 + .ra: .cfa -8 + ^
STACK CFI INIT 33a90 5 .cfa: $rsp 8 + .ra: .cfa -8 + ^
STACK CFI INIT 33aa0 e .cfa: $rsp 8 + .ra: .cfa -8 + ^
STACK CFI INIT 33ab0 4 .cfa: $rsp 8 + .ra: .cfa -8 + ^
STACK CFI INIT 33ac0 3c .cfa: $rsp 8 + .ra: .cfa -8 + ^
STACK CFI 33ac1 $rdi: .cfa -16 + ^ .cfa: $rsp 16 +
STACK CFI 33ac2 $rsi: .cfa -24 + ^ .cfa: $rsp 24 +
STACK CFI 33ac3 $rbx: .cfa -32 + ^ .cfa: $rsp 32 +
STACK CFI 33ac7 .cfa: $rsp 80 +
STACK CFI 33af8 .cfa: $rsp 32 +
STACK CFI 33af9 $rbx: $rbx .cfa: $rsp 24 +
STACK CFI 33afa $rsi: $rsi .cfa: $rsp 16 +
STACK CFI 33afb $rdi: $rdi .cfa: $rsp 8 +
STACK CFI INIT 33b00 5 .cfa: $rsp 8 + .ra: .cfa -8 + ^
STACK CFI INIT 33b10 b0 .cfa: $rsp 8 + .ra: .cfa -8 + ^
STACK CFI 33b11 $rsi: .cfa -16 + ^ .cfa: $rsp 16 +
STACK CFI 33b12 $rbx: .cfa -24 + ^ .cfa: $rsp 24 +
STACK CFI 33b16 .cfa: $rsp 96 +
STACK CFI 33b91 .cfa: $rsp 24 +
STACK CFI 33b92 $rbx: $rbx .cfa: $rsp 16 +
STACK CFI 33b93 $rsi: $rsi .cfa: $rsp 8 +
STACK CFI 33b94 $rbx: .cfa -24 + ^ $rsi: .cfa -16 + ^ .cfa: $rsp 96 +
STACK CFI INIT 33bc0 ad .cfa: $rsp 8 + .ra: .cfa -8 + ^
STACK CFI 33bc1 $rsi: .cfa -16 + ^ .cfa: $rsp 16 +
STACK CFI 33bc2 $rbx: .cfa -24 + ^ .cfa: $rsp 24 +
STACK CFI 33bc6 .cfa: $rsp 96 +
STACK CFI 33c3e .cfa: $rsp 24 +
STACK CFI 33c3f $rbx: $rbx .cfa: $rsp 16 +
STACK CFI 33c40 $rsi: $rsi .cfa: $rsp 8 +
STACK CFI 33c41 $rbx: .cfa -24 + ^ $rsi: .cfa -16 + ^ .cfa: $rsp 96 +
STACK CFI INIT 33c70 1b .cfa: $rsp 8 + .ra: .cfa -8 + ^
STACK CFI INIT 33c90 18b .cfa: $rsp 8 + .ra: .cfa -8 + ^
STACK CFI 33c91 $rbp: .cfa -16 + ^ .cfa: $rsp 16 +
STACK CFI 33c92 $rdi: .cfa -24 + ^ .cfa: $rsp 24 +
STACK CFI 33c93 $rsi: .cfa -32 + ^ .cfa: $rsp 32 +
STACK CFI 33c94 $rbx: .cfa -40 + ^ .cfa: $rsp 40 +
STACK CFI 33c98 .cfa: $rsp 144 +
STACK CFI 33d8a .cfa: $rsp 40 +
STACK CFI 33d8b $rbx: $rbx .cfa: $rsp 32 +
STACK CFI 33d8c $rsi: $rsi .cfa: $rsp 24 +
STACK CFI 33d8d $rdi: $rdi .cfa: $rsp 16 +
STACK CFI 33d8e $rbp: $rbp .cfa: $rsp 8 +
STACK CFI 33d90 $rbp: .cfa -16 + ^ $rbx: .cfa -40 + ^ $rdi: .cfa -24 + ^ $rsi: .cfa -32 + ^ .cfa: $rsp 144 +
STACK CFI INIT 33e20 17b .cfa: $rsp 8 + .ra: .cfa -8 + ^
STACK CFI 33e21 $rdi: .cfa -16 + ^ .cfa: $rsp 16 +
STACK CFI 33e22 $rsi: .cfa -24 + ^ .cfa: $rsp 24 +
STACK CFI 33e23 $rbx: .cfa -32 + ^ .cfa: $rsp 32 +
STACK CFI 33e27 .cfa: $rsp 128 +
STACK CFI 33f1b .cfa: $rsp 32 +
STACK CFI 33f1c $rbx: $rbx .cfa: $rsp 24 +
STACK CFI 33f1d $rsi: $rsi .cfa: $rsp 16 +
STACK CFI 33f1e $rdi: $rdi .cfa: $rsp 8 +
STACK CFI 33f20 $rbx: .cfa -32 + ^ $rdi: .cfa -16 + ^ $rsi: .cfa -24 + ^ .cfa: $rsp 128 +
STACK CFI INIT 33fa0 3ba .cfa: $rsp 8 + .ra: .cfa -8 + ^
STACK CFI 33fa2 $r15: .cfa -16 + ^ .cfa: $rsp 16 +
STACK CFI 33fa4 $r14: .cfa -24 + ^ .cfa: $rsp 24 +
STACK CFI 33fa6 $r13: .cfa -32 + ^ .cfa: $rsp 32 +
STACK CFI 33fa8 $r12: .cfa -40 + ^ .cfa: $rsp 40 +
STACK CFI 33fa9 $rbp: .cfa -48 + ^ .cfa: $rsp 48 +
STACK CFI 33faa $rdi: .cfa -56 + ^ .cfa: $rsp 56 +
STACK CFI 33fab $rsi: .cfa -64 + ^ .cfa: $rsp 64 +
STACK CFI 33fac $rbx: .cfa -72 + ^ .cfa: $rsp 72 +
STACK CFI 33fb0 .cfa: $rsp 176 +
STACK CFI 342a7 .cfa: $rsp 72 +
STACK CFI 342a8 $rbx: $rbx .cfa: $rsp 64 +
STACK CFI 342a9 $rsi: $rsi .cfa: $rsp 56 +
STACK CFI 342aa $rdi: $rdi .cfa: $rsp 48 +
STACK CFI 342ab $rbp: $rbp .cfa: $rsp 40 +
STACK CFI 342ad $r12: $r12 .cfa: $rsp 32 +
STACK CFI 342af $r13: $r13 .cfa: $rsp 24 +
STACK CFI 342b1 $r14: $r14 .cfa: $rsp 16 +
STACK CFI 342b3 $r15: $r15 .cfa: $rsp 8 +
STACK CFI 342b4 $r12: .cfa -40 + ^ $r13: .cfa -32 + ^ $r14: .cfa -24 + ^ $r15: .cfa -16 + ^ $rbp: .cfa -48 + ^ $rbx: .cfa -72 + ^ $rdi: .cfa -56 + ^ $rsi: .cfa -64 + ^ .cfa: $rsp 176 +
STACK CFI INIT 34360 139 .cfa: $rsp 8 + .ra: .cfa -8 + ^
STACK CFI 34361 $rdi: .cfa -16 + ^ .cfa: $rsp 16 +
STACK CFI 34362 $rsi: .cfa -24 + ^ .cfa: $rsp 24 +
STACK CFI 34363 $rbx: .cfa -32 + ^ .cfa: $rsp 32 +
STACK CFI 34367 .cfa: $rsp 160 +
STACK CFI 34406 .cfa: $rsp 32 +
STACK CFI 34407 $rbx: $rbx .cfa: $rsp 24 +
STACK CFI 34408 $rsi: $rsi .cfa: $rsp 16 +
STACK CFI 34409 $rdi: $rdi .cfa: $rsp 8 +
STACK CFI 34410 $rbx: .cfa -32 + ^ $rdi: .cfa -16 + ^ $rsi: .cfa -24 + ^ .cfa: $rsp 160 +
STACK CFI INIT 344a0 23c .cfa: $rsp 8 + .ra: .cfa -8 + ^
STACK CFI 344a2 $r15: .cfa -16 + ^ .cfa: $rsp 16 +
STACK CFI 344a4 $r14: .cfa -24 + ^ .cfa: $rsp 24 +
STACK CFI 344a6 $r13: .cfa -32 + ^ .cfa: $rsp 32 +
STACK CFI 344a8 $r12: .cfa -40 + ^ .cfa: $rsp 40 +
STACK CFI 344a9 $rbp: .cfa -48 + ^ .cfa: $rsp 48 +
STACK CFI 344aa $rdi: .cfa -56 + ^ .cfa: $rsp 56 +
STACK CFI 344ab $rsi: .cfa -64 + ^ .cfa: $rsp 64 +
STACK CFI 344ac $rbx: .cfa -72 + ^ .cfa: $rsp 72 +
STACK CFI 344b3 .cfa: $rsp 224 +
STACK CFI 344bb $xmm7: .cfa -96 + ^
STACK CFI 34637 $xmm7: $xmm7 .cfa: $rsp 72 +
STACK CFI 34638 $rbx: $rbx .cfa: $rsp 64 +
STACK CFI 34639 $rsi: $rsi .cfa: $rsp 56 +
STACK CFI 3463a $rdi: $rdi .cfa: $rsp 48 +
STACK CFI 3463b $rbp: $rbp .cfa: $rsp 40 +
STACK CFI 3463d $r12: $r12 .cfa: $rsp 32 +
STACK CFI 3463f $r13: $r13 .cfa: $rsp 24 +
STACK CFI 34641 $r14: $r14 .cfa: $rsp 16 +
STACK CFI 34643 $r15: $r15 .cfa: $rsp 8 +
STACK CFI 34644 $r12: .cfa -40 + ^ $r13: .cfa -32 + ^ $r14: .cfa -24 + ^ $r15: .cfa -16 + ^ $rbp: .cfa -48 + ^ $rbx: .cfa -72 + ^ $rdi: .cfa -56 + ^ $rsi: .cfa -64 + ^ $xmm7: .cfa -96 + ^ .cfa: $rsp 224 +
STACK CFI INIT 346e0 ad .cfa: $rsp 8 + .ra: .cfa -8 + ^
STACK CFI 346e1 $rbp: .cfa -16 + ^ .cfa: $rsp 16 +
STACK CFI 346e2 $rdi: .cfa -24 + ^ .cfa: $rsp 24 +
STACK CFI 346e3 $rsi: .cfa -32 + ^ .cfa: $rsp 32 +
STACK CFI 346e4 $rbx: .cfa -40 + ^ .cfa: $rsp 40 +
STACK CFI 346e8 .cfa: $rsp 112 +
STACK CFI 3473a .cfa: $rsp 40 +
STACK CFI 3473b $rbx: $rbx .cfa: $rsp 32 +
STACK CFI 3473c $rsi: $rsi .cfa: $rsp 24 +
STACK CFI 3473d $rdi: $rdi .cfa: $rsp 16 +
STACK CFI 3473e $rbp: $rbp .cfa: $rsp 8 +
STACK CFI 3473f $rbp: .cfa -16 + ^ $rbx: .cfa -40 + ^ $rdi: .cfa -24 + ^ $rsi: .cfa -32 + ^ .cfa: $rsp 112 +
STACK CFI INIT 185940 20 .cfa: $rsp 8 + .ra: .cfa -8 + ^
STACK CFI 185944 .cfa: $rsp 48 +
STACK CFI 18595b .cfa: $rsp 8 +
STACK CFI INIT 34790 c .cfa: $rsp 8 + .ra: .cfa -8 + ^
STACK CFI INIT 347a0 94 .cfa: $rsp 8 + .ra: .cfa -8 + ^
STACK CFI 347a1 $rdi: .cfa -16 + ^ .cfa: $rsp 16 +
STACK CFI 347a2 $rsi: .cfa -24 + ^ .cfa: $rsp 24 +
STACK CFI 347a3 $rbx: .cfa -32 + ^ .cfa: $rsp 32 +
STACK CFI 347a7 .cfa: $rsp 80 +
STACK CFI 347ed .cfa: $rsp 32 +
STACK CFI 347ee $rbx: $rbx .cfa: $rsp 24 +
STACK CFI 347ef $rsi: $rsi .cfa: $rsp 16 +
STACK CFI 347f0 $rdi: $rdi .cfa: $rsp 8 +
STACK CFI 347f1 $rbx: .cfa -32 + ^ $rdi: .cfa -16 + ^ $rsi: .cfa -24 + ^ .cfa: $rsp 80 +
STACK CFI INIT 34840 9c .cfa: $rsp 8 + .ra: .cfa -8 + ^
STACK CFI INIT 348e0 9 .cfa: $rsp 8 + .ra: .cfa -8 + ^
STACK CFI INIT 348f0 ad .cfa: $rsp 8 + .ra: .cfa -8 + ^
STACK CFI 348f1 $rsi: .cfa -16 + ^ .cfa: $rsp 16 +
STACK CFI 348f2 $rbx: .cfa -24 + ^ .cfa: $rsp 24 +
STACK CFI 348f6 .cfa: $rsp 128 +
STACK CFI 3496f .cfa: $rsp 24 +
STACK CFI 34970 $rbx: $rbx .cfa: $rsp 16 +
STACK CFI 34971 $rsi: $rsi .cfa: $rsp 8 +
STACK CFI 34972 $rbx: .cfa -24 + ^ $rsi: .cfa -16 + ^ .cfa: $rsp 128 +
STACK CFI INIT 349a0 24d .cfa: $rsp 8 + .ra: .cfa -8 + ^
STACK CFI 349a1 $rdi: .cfa -16 + ^ .cfa: $rsp 16 +
STACK CFI 349a2 $rsi: .cfa -24 + ^ .cfa: $rsp 24 +
STACK CFI 349a3 $rbx: .cfa -32 + ^ .cfa: $rsp 32 +
STACK CFI 349a7 .cfa: $rsp 64 +
STACK CFI 349d6 .cfa: $rsp 32 +
STACK CFI 349d7 $rbx: $rbx .cfa: $rsp 24 +
STACK CFI 349d8 $rsi: $rsi .cfa: $rsp 16 +
STACK CFI 349d9 $rdi: $rdi .cfa: $rsp 8 +
STACK CFI 349e0 $rbx: .cfa -32 + ^ $rdi: .cfa -16 + ^ $rsi: .cfa -24 + ^ .cfa: $rsp 64 +
STACK CFI INIT 34bf0 45 .cfa: $rsp 8 + .ra: .cfa -8 + ^
STACK CFI 34bf1 $rsi: .cfa -16 + ^ .cfa: $rsp 16 +
STACK CFI 34bf2 $rbx: .cfa -24 + ^ .cfa: $rsp 24 +
STACK CFI 34bf6 .cfa: $rsp 64 +
STACK CFI 34c32 .cfa: $rsp 24 +
STACK CFI 34c33 $rbx: $rbx .cfa: $rsp 16 +
STACK CFI 34c34 $rsi: $rsi .cfa: $rsp 8 +
STACK CFI INIT 34c40 28 .cfa: $rsp 8 + .ra: .cfa -8 + ^
STACK CFI 34c41 $rbx: .cfa -16 + ^ .cfa: $rsp 16 +
STACK CFI 34c45 .cfa: $rsp 48 +
STACK CFI 34c66 .cfa: $rsp 16 +
STACK CFI 34c67 $rbx: $rbx .cfa: $rsp 8 +
STACK CFI INIT 34c70 27 .cfa: $rsp 8 + .ra: .cfa -8 + ^
STACK CFI 34c74 .cfa: $rsp 64 +
STACK CFI 34c96 .cfa: $rsp 8 +
STACK CFI INIT 34ca0 28 .cfa: $rsp 8 + .ra: .cfa -8 + ^
STACK CFI 34ca1 $rbx: .cfa -16 + ^ .cfa: $rsp 16 +
STACK CFI 34ca5 .cfa: $rsp 48 +
STACK CFI 34cc6 .cfa: $rsp 16 +
STACK CFI 34cc7 $rbx: $rbx .cfa: $rsp 8 +
STACK CFI INIT 34cd0 24 .cfa: $rsp 8 + .ra: .cfa -8 + ^
STACK CFI 34cd4 .cfa: $rsp 64 +
STACK CFI 34cf3 .cfa: $rsp 8 +
STACK CFI INIT 34d00 28 .cfa: $rsp 8 + .ra: .cfa -8 + ^
STACK CFI 34d01 $rbx: .cfa -16 + ^ .cfa: $rsp 16 +
STACK CFI 34d05 .cfa: $rsp 48 +
STACK CFI 34d26 .cfa: $rsp 16 +
STACK CFI 34d27 $rbx: $rbx .cfa: $rsp 8 +
STACK CFI INIT 34d30 80 .cfa: $rsp 8 + .ra: .cfa -8 + ^
STACK CFI 34d31 $rbx: .cfa -16 + ^ .cfa: $rsp 16 +
STACK CFI 34d35 .cfa: $rsp 48 +
STACK CFI 34d8a .cfa: $rsp 16 +
STACK CFI 34d8b $rbx: $rbx .cfa: $rsp 8 +
STACK CFI 34d90 $rbx: .cfa -16 + ^ .cfa: $rsp 48 +
STACK CFI INIT 34db0 52 .cfa: $rsp 8 + .ra: .cfa -8 + ^
STACK CFI INIT 34e10 28 .cfa: $rsp 8 + .ra: .cfa -8 + ^
STACK CFI 34e11 $rbx: .cfa -16 + ^ .cfa: $rsp 16 +
STACK CFI 34e15 .cfa: $rsp 48 +
STACK CFI 34e36 .cfa: $rsp 16 +
STACK CFI 34e37 $rbx: $rbx .cfa: $rsp 8 +
STACK CFI INIT 34e40 28 .cfa: $rsp 8 + .ra: .cfa -8 + ^
STACK CFI 34e41 $rbx: .cfa -16 + ^ .cfa: $rsp 16 +
STACK CFI 34e45 .cfa: $rsp 48 +
STACK CFI 34e66 .cfa: $rsp 16 +
STACK CFI 34e67 $rbx: $rbx .cfa: $rsp 8 +
STACK CFI INIT 34e70 128 .cfa: $rsp 8 + .ra: .cfa -8 + ^
STACK CFI 34e72 $r13: .cfa -16 + ^ .cfa: $rsp 16 +
STACK CFI 34e74 $r12: .cfa -24 + ^ .cfa: $rsp 24 +
STACK CFI 34e75 $rbp: .cfa -32 + ^ .cfa: $rsp 32 +
STACK CFI 34e76 $rdi: .cfa -40 + ^ .cfa: $rsp 40 +
STACK CFI 34e77 $rsi: .cfa -48 + ^ .cfa: $rsp 48 +
STACK CFI 34e78 $rbx: .cfa -56 + ^ .cfa: $rsp 56 +
STACK CFI 34e7c .cfa: $rsp 144 +
STACK CFI 34e9d .cfa: $rsp 56 +
STACK CFI 34e9e $rbx: $rbx .cfa: $rsp 48 +
STACK CFI 34e9f $rsi: $rsi .cfa: $rsp 40 +
STACK CFI 34ea0 $rdi: $rdi .cfa: $rsp 32 +
STACK CFI 34ea1 $rbp: $rbp .cfa: $rsp 24 +
STACK CFI 34ea3 $r12: $r12 .cfa: $rsp 16 +
STACK CFI 34ea5 $r13: $r13 .cfa: $rsp 8 +
STACK CFI 34eb0 $r12: .cfa -24 + ^ $r13: .cfa -16 + ^ $rbp: .cfa -32 + ^ $rbx: .cfa -56 + ^ $rdi: .cfa -40 + ^ $rsi: .cfa -48 + ^ .cfa: $rsp 144 +
STACK CFI 34eb6 .cfa: $rsp 56 +
STACK CFI 34eb7 $rbx: $rbx .cfa: $rsp 48 +
STACK CFI 34eb8 $rsi: $rsi .cfa: $rsp 40 +
STACK CFI 34eb9 $rdi: $rdi .cfa: $rsp 32 +
STACK CFI 34eba $rbp: $rbp .cfa: $rsp 24 +
STACK CFI 34ebc $r12: $r12 .cfa: $rsp 16 +
STACK CFI 34ebe $r13: $r13 .cfa: $rsp 8 +
STACK CFI 34ec0 $r12: .cfa -24 + ^ $r13: .cfa -16 + ^ $rbp: .cfa -32 + ^ $rbx: .cfa -56 + ^ $rdi: .cfa -40 + ^ $rsi: .cfa -48 + ^ .cfa: $rsp 144 +
STACK CFI 34f48 .cfa: $rsp 56 +
STACK CFI 34f49 $rbx: $rbx .cfa: $rsp 48 +
STACK CFI 34f4a $rsi: $rsi .cfa: $rsp 40 +
STACK CFI 34f4b $rdi: $rdi .cfa: $rsp 32 +
STACK CFI 34f4c $rbp: $rbp .cfa: $rsp 24 +
STACK CFI 34f4e $r12: $r12 .cfa: $rsp 16 +
STACK CFI 34f50 $r13: $r13 .cfa: $rsp 8 +
STACK CFI 34f51 $r12: .cfa -24 + ^ $r13: .cfa -16 + ^ $rbp: .cfa -32 + ^ $rbx: .cfa -56 + ^ $rdi: .cfa -40 + ^ $rsi: .cfa -48 + ^ .cfa: $rsp 144 +
STACK CFI INIT 34fa0 2e .cfa: $rsp 8 + .ra: .cfa -8 + ^
STACK CFI 34fa1 $rbx: .cfa -16 + ^ .cfa: $rsp 16 +
STACK CFI 34fa5 .cfa: $rsp 64 +
STACK CFI 34fcc .cfa: $rsp 16 +
STACK CFI 34fcd $rbx: $rbx .cfa: $rsp 8 +
STACK CFI INIT 34fd0 34 .cfa: $rsp 8 + .ra: .cfa -8 + ^
STACK CFI 34fd1 $rbx: .cfa -16 + ^ .cfa: $rsp 16 +
STACK CFI 34fd5 .cfa: $rsp 64 +
STACK CFI 35002 .cfa: $rsp 16 +
STACK CFI 35003 $rbx: $rbx .cfa: $rsp 8 +
STACK CFI INIT 35010 2f .cfa: $rsp 8 + .ra: .cfa -8 + ^
STACK CFI 35011 $rbx: .cfa -16 + ^ .cfa: $rsp 16 +
STACK CFI 35015 .cfa: $rsp 64 +
STACK CFI 3503d .cfa: $rsp 16 +
STACK CFI 3503e $rbx: $rbx .cfa: $rsp 8 +
STACK CFI INIT 185960 20 .cfa: $rsp 8 + .ra: .cfa -8 + ^
STACK CFI 185964 .cfa: $rsp 48 +
STACK CFI 18597b .cfa: $rsp 8 +
STACK CFI INIT 35040 4 .cfa: $rsp 8 + .ra: .cfa -8 + ^
STACK CFI INIT 35050 8 .cfa: $rsp 8 + .ra: .cfa -8 + ^
STACK CFI INIT 35060 15 .cfa: $rsp 8 + .ra: .cfa -8 + ^
STACK CFI INIT 35080 1 .cfa: $rsp 8 + .ra: .cfa -8 + ^
STACK CFI INIT 35090 13 .cfa: $rsp 8 + .ra: .cfa -8 + ^
STACK CFI 35094 .cfa: $rsp 48 +
STACK CFI 350a2 .cfa: $rsp 8 +
STACK CFI INIT 350b0 5 .cfa: $rsp 8 + .ra: .cfa -8 + ^
STACK CFI INIT 350c0 21 .cfa: $rsp 8 + .ra: .cfa -8 + ^
STACK CFI INIT 350f0 21 .cfa: $rsp 8 + .ra: .cfa -8 + ^
STACK CFI INIT 35120 21 .cfa: $rsp 8 + .ra: .cfa -8 + ^
STACK CFI INIT 35150 5 .cfa: $rsp 8 + .ra: .cfa -8 + ^
STACK CFI INIT 35160 bb .cfa: $rsp 8 + .ra: .cfa -8 + ^
STACK CFI 35161 $rbp: .cfa -16 + ^ .cfa: $rsp 16 +
STACK CFI 35162 $rdi: .cfa -24 + ^ .cfa: $rsp 24 +
STACK CFI 35163 $rsi: .cfa -32 + ^ .cfa: $rsp 32 +
STACK CFI 35164 $rbx: .cfa -40 + ^ .cfa: $rsp 40 +
STACK CFI 35168 .cfa: $rsp 112 +
STACK CFI 35180 .cfa: $rsp 40 +
STACK CFI 35181 $rbx: $rbx .cfa: $rsp 32 +
STACK CFI 35182 $rsi: $rsi .cfa: $rsp 24 +
STACK CFI 35183 $rdi: $rdi .cfa: $rsp 16 +
STACK CFI 35184 $rbp: $rbp .cfa: $rsp 8 +
STACK CFI 35185 $rbp: .cfa -16 + ^ $rbx: .cfa -40 + ^ $rdi: .cfa -24 + ^ $rsi: .cfa -32 + ^ .cfa: $rsp 112 +
STACK CFI INIT 35220 2a .cfa: $rsp 8 + .ra: .cfa -8 + ^
STACK CFI 35221 $rsi: .cfa -16 + ^ .cfa: $rsp 16 +
STACK CFI 35222 $rbx: .cfa -24 + ^ .cfa: $rsp 24 +
STACK CFI 35226 .cfa: $rsp 64 +
STACK CFI 35243 .cfa: $rsp 24 +
STACK CFI 35244 $rbx: $rbx .cfa: $rsp 16 +
STACK CFI 35245 $rsi: $rsi .cfa: $rsp 8 +
STACK CFI INIT 35250 54 .cfa: $rsp 8 + .ra: .cfa -8 + ^
STACK CFI 35254 .cfa: $rsp 48 +
STACK CFI 3526a .cfa: $rsp 8 +
STACK CFI 35270 .cfa: $rsp 48 +
STACK CFI 352a3 .cfa: $rsp 8 +
STACK CFI INIT 352b0 1a .cfa: $rsp 8 + .ra: .cfa -8 + ^
STACK CFI INIT 352d0 1a .cfa: $rsp 8 + .ra: .cfa -8 + ^
STACK CFI INIT 352f0 2c .cfa: $rsp 8 + .ra: .cfa -8 + ^
STACK CFI 352f1 $rbx: .cfa -16 + ^ .cfa: $rsp 16 +
STACK CFI 352f5 .cfa: $rsp 48 +
STACK CFI 3531a .cfa: $rsp 16 +
STACK CFI 3531b $rbx: $rbx .cfa: $rsp 8 +
STACK CFI INIT 35320 b .cfa: $rsp 8 + .ra: .cfa -8 + ^
STACK CFI INIT 35330 c .cfa: $rsp 8 + .ra: .cfa -8 + ^
STACK CFI INIT 35340 63 .cfa: $rsp 8 + .ra: .cfa -8 + ^
STACK CFI 35344 .cfa: $rsp 48 +
STACK CFI 3536a .cfa: $rsp 8 +
STACK CFI 35370 .cfa: $rsp 48 +
STACK CFI 3537d .cfa: $rsp 8 +
STACK CFI 35380 .cfa: $rsp 48 +
STACK CFI 35394 .cfa: $rsp 8 +
STACK CFI 35395 .cfa: $rsp 48 +
STACK CFI 353a2 .cfa: $rsp 8 +
STACK CFI INIT 353b0 244 .cfa: $rsp 8 + .ra: .cfa -8 + ^
STACK CFI 353b1 $rbp: .cfa -16 + ^ .cfa: $rsp 16 +
STACK CFI 353b2 $rdi: .cfa -24 + ^ .cfa: $rsp 24 +
STACK CFI 353b3 $rsi: .cfa -32 + ^ .cfa: $rsp 32 +
STACK CFI 353b4 $rbx: .cfa -40 + ^ .cfa: $rsp 40 +
STACK CFI 35473 $rbx: $rbx .cfa: $rsp 32 +
STACK CFI 35474 $rsi: $rsi .cfa: $rsp 24 +
STACK CFI 35475 $rdi: $rdi .cfa: $rsp 16 +
STACK CFI 35476 $rbp: $rbp .cfa: $rsp 8 +
STACK CFI 35480 $rbp: .cfa -16 + ^ $rbx: .cfa -40 + ^ $rdi: .cfa -24 + ^ $rsi: .cfa -32 + ^ .cfa: $rsp 40 +
STACK CFI 355d6 $rbx: $rbx .cfa: $rsp 32 +
STACK CFI 355d7 $rsi: $rsi .cfa: $rsp 24 +
STACK CFI 355d8 $rdi: $rdi .cfa: $rsp 16 +
STACK CFI 355d9 $rbp: $rbp .cfa: $rsp 8 +
STACK CFI 355da $rbp: .cfa -16 + ^ $rbx: .cfa -40 + ^ $rdi: .cfa -24 + ^ $rsi: .cfa -32 + ^ .cfa: $rsp 40 +
STACK CFI INIT 35600 7f .cfa: $rsp 8 + .ra: .cfa -8 + ^
STACK CFI 35601 $rsi: .cfa -16 + ^ .cfa: $rsp 16 +
STACK CFI 35602 $rbx: .cfa -24 + ^ .cfa: $rsp 24 +
STACK CFI 35606 .cfa: $rsp 64 +
STACK CFI 3567c .cfa: $rsp 24 +
STACK CFI 3567d $rbx: $rbx .cfa: $rsp 16 +
STACK CFI 3567e $rsi: $rsi .cfa: $rsp 8 +
STACK CFI INIT 35680 66 .cfa: $rsp 8 + .ra: .cfa -8 + ^
STACK CFI 35681 $rbx: .cfa -16 + ^ .cfa: $rsp 16 +
STACK CFI 35685 .cfa: $rsp 64 +
STACK CFI 356a1 .cfa: $rsp 16 +
STACK CFI 356a2 $rbx: $rbx .cfa: $rsp 8 +
STACK CFI 356b0 $rbx: .cfa -16 + ^ .cfa: $rsp 64 +
STACK CFI INIT 356f0 134 .cfa: $rsp 8 + .ra: .cfa -8 + ^
STACK CFI 356f1 $rdi: .cfa -16 + ^ .cfa: $rsp 16 +
STACK CFI 356f2 $rsi: .cfa -24 + ^ .cfa: $rsp 24 +
STACK CFI 356f3 $rbx: .cfa -32 + ^ .cfa: $rsp 32 +
STACK CFI 356fa .cfa: $rsp 192 +
STACK CFI 357e1 .cfa: $rsp 32 +
STACK CFI 357e2 $rbx: $rbx .cfa: $rsp 24 +
STACK CFI 357e3 $rsi: $rsi .cfa: $rsp 16 +
STACK CFI 357e4 $rdi: $rdi .cfa: $rsp 8 +
STACK CFI 357e5 $rbx: .cfa -32 + ^ $rdi: .cfa -16 + ^ $rsi: .cfa -24 + ^ .cfa: $rsp 192 +
STACK CFI 357fe .cfa: $rsp 32 +
STACK CFI 357ff $rbx: $rbx .cfa: $rsp 24 +
STACK CFI 35800 $rsi: $rsi .cfa: $rsp 16 +
STACK CFI 35801 $rdi: $rdi .cfa: $rsp 8 +
STACK CFI 35802 $rbx: .cfa -32 + ^ $rdi: .cfa -16 + ^ $rsi: .cfa -24 + ^ .cfa: $rsp 192 +
STACK CFI 35820 .cfa: $rsp 32 +
STACK CFI 35821 $rbx: $rbx .cfa: $rsp 24 +
STACK CFI 35822 $rsi: $rsi .cfa: $rsp 16 +
STACK CFI 35823 $rdi: $rdi .cfa: $rsp 8 +
STACK CFI INIT 35830 6e .cfa: $rsp 8 + .ra: .cfa -8 + ^
STACK CFI 35831 $rsi: .cfa -16 + ^ .cfa: $rsp 16 +
STACK CFI 35832 $rbx: .cfa -24 + ^ .cfa: $rsp 24 +
STACK CFI 35836 .cfa: $rsp 64 +
STACK CFI 35856 .cfa: $rsp 24 +
STACK CFI 35857 $rbx: $rbx .cfa: $rsp 16 +
STACK CFI 35858 $rsi: $rsi .cfa: $rsp 8 +
STACK CFI 35860 $rbx: .cfa -24 + ^ $rsi: .cfa -16 + ^ .cfa: $rsp 64 +
