MODULE Linux x86_64 C9498DF8CB97E6D8AB695A71E06022250 main.nexe
FUNC c0 80 0 Beacon::
FUNC 140 3e0 0 Beacon::
FUNC 520 c0 0 Beacon::NewArea(beaconType_t, float const*, team_e)
FUNC 5e0 1c0 0 Beacon::MoveTowardsRoom(float*)
FUNC 7a0 1a0 0 Beacon::Propagate(gentity_s*)
FUNC 940 320 0 Beacon::FindSimilar(float const*, beaconType_t, int, int, int, float, int, int)
FUNC c60 e0 0 Beacon::PropagateAll()
FUNC d40 80 0 Beacon::UpdateTags(gentity_s*)
FUNC dc0 120 0 Beacon::DetachTags(gentity_s*)
FUNC ee0 80 0 Beacon::DeleteTags(gentity_s*)
FUNC f60 620 0 Beacon::TagTrace(float const*, float const*, int, int, team_e, bool)
FUNC 1580 640 0 Beacon::Tag(gentity_s*, team_e, bool)
FUNC 1bc0 40 0 Beacon::Think(gentity_s*)
FUNC 1c00 240 0 Beacon::UpdateTagLocation(gentity_s*, gentity_s*)
FUNC 1e40 40 0 Beacon::TagTrace_EntCmp(void const*, void const*)
FUNC 1e80 20 0 std::__1::map<BaseClustering::baseClusteringLayer_e, Clustering::EntityClustering, std::__1::less<BaseClustering::baseClusteringLayer_e>, std::__1::allocator<std::__1::pair<BaseClustering::baseClusteringLayer_e const, Clustering::EntityClustering> > >::~map()
FUNC 1ea0 20 0 std::__1::map<BaseClustering::baseClusteringLayer_e, std::__1::unordered_set<gentity_s*, std::__1::hash<gentity_s*>, std::__1::equal_to<gentity_s*>, std::__1::allocator<gentity_s*> >, std::__1::less<BaseClustering::baseClusteringLayer_e>, std::__1::allocator<std::__1::pair<BaseClustering::baseClusteringLayer_e const, std::__1::unordered_set<gentity_s*, std::__1::hash<gentity_s*>, std::__1::equal_to<gentity_s*>, std::__1::allocator<gentity_s*> > > > >::~map()
FUNC 1ec0 20 0 Clustering::EntityClustering::edgeVisPVS(gentity_s*, gentity_s*)
FUNC 1ee0 4a0 0 Clustering::EntityClustering::EntityClustering(float, std::__1::function<bool (gentity_s*, gentity_s*)>)
FUNC 2380 260 0 Clustering::EuclideanClustering<gentity_s*, 3>::~EuclideanClustering()
FUNC 25e0 2a0 0 std::__1::map<BaseClustering::baseClusteringLayer_e, Clustering::EntityClustering, std::__1::less<BaseClustering::baseClusteringLayer_e>, std::__1::allocator<std::__1::pair<BaseClustering::baseClusteringLayer_e const, Clustering::EntityClustering> > >::operator[](BaseClustering::baseClusteringLayer_e const&)
FUNC 2880 c0 0 BaseClustering::Remove(gentity_s*)
FUNC 2940 4a0 0 Clustering::EuclideanClustering<gentity_s*, 3>::Remove(gentity_s* const&)
FUNC 2e20 6c0 0 void std::__1::__tree_remove<std::__1::__tree_node_base<void*>*>(std::__1::__tree_node_base<void*>*, std::__1::__tree_node_base<void*>*)
FUNC 34e0 2e0 0 void std::__1::__tree_balance_after_insert<std::__1::__tree_node_base<void*>*>(std::__1::__tree_node_base<void*>*, std::__1::__tree_node_base<void*>*)
FUNC 37c0 340 0 Clustering::EuclideanClustering<gentity_s*, 3>::EuclideanClustering(Clustering::EuclideanClustering<gentity_s*, 3>&&)
FUNC 3b00 20 0 std::__1::__function::__base<bool (gentity_s*, gentity_s*)>::~__base()
FUNC 3b20 20 0 std::__1::__function::__func<bool (*)(gentity_s*, gentity_s*), std::__1::allocator<bool (*)(gentity_s*, gentity_s*)>, bool (gentity_s*, gentity_s*)>::~__func()
FUNC 3b40 80 0 std::__1::__function::__func<bool (*)(gentity_s*, gentity_s*), std::__1::allocator<bool (*)(gentity_s*, gentity_s*)>, bool (gentity_s*, gentity_s*)>::__clone() const
FUNC 3bc0 40 0 std::__1::__function::__func<bool (*)(gentity_s*, gentity_s*), std::__1::allocator<bool (*)(gentity_s*, gentity_s*)>, bool (gentity_s*, gentity_s*)>::__clone(std::__1::__function::__base<bool (gentity_s*, gentity_s*)>*) const
FUNC 3c00 20 0 std::__1::__function::__func<bool (*)(gentity_s*, gentity_s*), std::__1::allocator<bool (*)(gentity_s*, gentity_s*)>, bool (gentity_s*, gentity_s*)>::destroy()
FUNC 3c20 20 0 std::__1::__function::__func<bool (*)(gentity_s*, gentity_s*), std::__1::allocator<bool (*)(gentity_s*, gentity_s*)>, bool (gentity_s*, gentity_s*)>::destroy_deallocate()
FUNC 3c40 40 0 std::__1::__function::__func<bool (*)(gentity_s*, gentity_s*), std::__1::allocator<bool (*)(gentity_s*, gentity_s*)>, bool (gentity_s*, gentity_s*)>::operator()(gentity_s*&&, gentity_s*&&)
FUNC 3c80 40 0 std::__1::__function::__func<bool (*)(gentity_s*, gentity_s*), std::__1::allocator<bool (*)(gentity_s*, gentity_s*)>, bool (gentity_s*, gentity_s*)>::target(std::type_info const&) const
FUNC 3cc0 20 0 std::__1::__function::__func<bool (*)(gentity_s*, gentity_s*), std::__1::allocator<bool (*)(gentity_s*, gentity_s*)>, bool (gentity_s*, gentity_s*)>::target_type() const
FUNC 3ce0 540 0 std::__1::__hash_table<gentity_s*, std::__1::hash<gentity_s*>, std::__1::equal_to<gentity_s*>, std::__1::allocator<gentity_s*> >::__insert_unique(gentity_s* const&)
FUNC 4220 2c0 0 std::__1::__hash_table<gentity_s*, std::__1::hash<gentity_s*>, std::__1::equal_to<gentity_s*>, std::__1::allocator<gentity_s*> >::__rehash(unsigned int)
FUNC 44e0 320 0 Clustering::EuclideanCluster<gentity_s*, 3>::UpdateMetadata()
FUNC 4800 1d00 0 Clustering::EuclideanClustering<gentity_s*, 3>::GenerateClusters()
FUNC 6500 5a0 0 DisjointSets<gentity_s*>::MakeSetFast(gentity_s* const&)
FUNC 6aa0 380 0 DisjointSets<gentity_s*>::Link(gentity_s* const&, gentity_s* const&)
FUNC 6e20 1e0 0 std::__1::unordered_map<gentity_s*, Math::Vector<3u, float>, std::__1::hash<gentity_s*>, std::__1::equal_to<gentity_s*>, std::__1::allocator<std::__1::pair<gentity_s* const, Math::Vector<3u, float> > > >::operator[](gentity_s* const&)
FUNC 7000 4c0 0 void std::__1::vector<Clustering::EuclideanCluster<gentity_s*, 3>, std::__1::allocator<Clustering::EuclideanCluster<gentity_s*, 3> > >::__push_back_slow_path<Clustering::EuclideanCluster<gentity_s*, 3> const&>(Clustering::EuclideanCluster<gentity_s*, 3> const&)
FUNC 74c0 2c0 0 std::__1::unordered_map<gentity_s*, Math::Vector<3u, float>, std::__1::hash<gentity_s*>, std::__1::equal_to<gentity_s*>, std::__1::allocator<std::__1::pair<gentity_s* const, Math::Vector<3u, float> > > >::unordered_map(std::__1::unordered_map<gentity_s*, Math::Vector<3u, float>, std::__1::hash<gentity_s*>, std::__1::equal_to<gentity_s*>, std::__1::allocator<std::__1::pair<gentity_s* const, Math::Vector<3u, float> > > > const&)
FUNC 7780 120 0 std::__1::__hash_table<std::__1::__hash_value_type<gentity_s*, Math::Vector<3u, float> >, std::__1::__unordered_map_hasher<gentity_s*, std::__1::__hash_value_type<gentity_s*, Math::Vector<3u, float> >, std::__1::hash<gentity_s*>, true>, std::__1::__unordered_map_equal<gentity_s*, std::__1::__hash_value_type<gentity_s*, Math::Vector<3u, float> >, std::__1::equal_to<gentity_s*>, true>, std::__1::allocator<std::__1::__hash_value_type<gentity_s*, Math::Vector<3u, float> > > >::rehash(unsigned int)
FUNC 78a0 280 0 std::__1::__hash_table<std::__1::__hash_value_type<gentity_s*, Math::Vector<3u, float> >, std::__1::__unordered_map_hasher<gentity_s*, std::__1::__hash_value_type<gentity_s*, Math::Vector<3u, float> >, std::__1::hash<gentity_s*>, true>, std::__1::__unordered_map_equal<gentity_s*, std::__1::__hash_value_type<gentity_s*, Math::Vector<3u, float> >, std::__1::equal_to<gentity_s*>, true>, std::__1::allocator<std::__1::__hash_value_type<gentity_s*, Math::Vector<3u, float> > > >::__node_insert_unique(std::__1::__hash_node<std::__1::__hash_value_type<gentity_s*, Math::Vector<3u, float> >, void*>*)
FUNC 7b20 2c0 0 std::__1::__hash_table<std::__1::__hash_value_type<gentity_s*, Math::Vector<3u, float> >, std::__1::__unordered_map_hasher<gentity_s*, std::__1::__hash_value_type<gentity_s*, Math::Vector<3u, float> >, std::__1::hash<gentity_s*>, true>, std::__1::__unordered_map_equal<gentity_s*, std::__1::__hash_value_type<gentity_s*, Math::Vector<3u, float> >, std::__1::equal_to<gentity_s*>, true>, std::__1::allocator<std::__1::__hash_value_type<gentity_s*, Math::Vector<3u, float> > > >::__rehash(unsigned int)
FUNC 7de0 160 0 std::__1::pair<std::__1::__hash_iterator<std::__1::__hash_node<std::__1::__hash_value_type<gentity_s*, Math::Vector<3u, float> >, void*>*>, bool> std::__1::__hash_table<std::__1::__hash_value_type<gentity_s*, Math::Vector<3u, float> >, std::__1::__unordered_map_hasher<gentity_s*, std::__1::__hash_value_type<gentity_s*, Math::Vector<3u, float> >, std::__1::hash<gentity_s*>, true>, std::__1::__unordered_map_equal<gentity_s*, std::__1::__hash_value_type<gentity_s*, Math::Vector<3u, float> >, std::__1::equal_to<gentity_s*>, true>, std::__1::allocator<std::__1::__hash_value_type<gentity_s*, Math::Vector<3u, float> > > >::__insert_unique<std::__1::pair<gentity_s*, Math::Vector<3u, float> > >(std::__1::pair<gentity_s*, Math::Vector<3u, float> >&&)
FUNC 7f40 2e0 0 std::__1::unordered_map<gentity_s*, std::__1::unordered_set<gentity_s*, std::__1::hash<gentity_s*>, std::__1::equal_to<gentity_s*>, std::__1::allocator<gentity_s*> >, std::__1::hash<gentity_s*>, std::__1::equal_to<gentity_s*>, std::__1::allocator<std::__1::pair<gentity_s* const, std::__1::unordered_set<gentity_s*, std::__1::hash<gentity_s*>, std::__1::equal_to<gentity_s*>, std::__1::allocator<gentity_s*> > > > >::at(gentity_s* const&)
FUNC 8220 180 0 std::__1::unique_ptr<std::__1::__hash_node<std::__1::__hash_value_type<gentity_s*, std::__1::unordered_set<gentity_s*, std::__1::hash<gentity_s*>, std::__1::equal_to<gentity_s*>, std::__1::allocator<gentity_s*> > >, void*>, std::__1::__hash_node_destructor<std::__1::allocator<std::__1::__hash_node<std::__1::__hash_value_type<gentity_s*, std::__1::unordered_set<gentity_s*, std::__1::hash<gentity_s*>, std::__1::equal_to<gentity_s*>, std::__1::allocator<gentity_s*> > >, void*> > > > std::__1::__hash_table<std::__1::__hash_value_type<gentity_s*, std::__1::unordered_set<gentity_s*, std::__1::hash<gentity_s*>, std::__1::equal_to<gentity_s*>, std::__1::allocator<gentity_s*> > >, std::__1::__unordered_map_hasher<gentity_s*, std::__1::__hash_value_type<gentity_s*, std::__1::unordered_set<gentity_s*, std::__1::hash<gentity_s*>, std::__1::equal_to<gentity_s*>, std::__1::allocator<gentity_s*> > >, std::__1::hash<gentity_s*>, true>, std::__1::__unordered_map_equal<gentity_s*, std::__1::__hash_value_type<gentity_s*, std::__1::unordered_set<gentity_s*, std::__1::hash<gentity_s*>, std::__1::equal_to<gentity_s*>, std::__1::allocator<gentity_s*> > >, std::__1::equal_to<gentity_s*>, true>, std::__1::allocator<std::__1::__hash_value_type<gentity_s*, std::__1::unordered_set<gentity_s*, std::__1::hash<gentity_s*>, std::__1::equal_to<gentity_s*>, std::__1::allocator<gentity_s*> > > > >::__construct_node<std::__1::pair<gentity_s*, std::__1::unordered_set<gentity_s*, std::__1::hash<gentity_s*>, std::__1::equal_to<gentity_s*>, std::__1::allocator<gentity_s*> > > >(std::__1::pair<gentity_s*, std::__1::unordered_set<gentity_s*, std::__1::hash<gentity_s*>, std::__1::equal_to<gentity_s*>, std::__1::allocator<gentity_s*> > >&&)
FUNC 83a0 420 0 std::__1::__hash_table<std::__1::__hash_value_type<gentity_s*, std::__1::unordered_set<gentity_s*, std::__1::hash<gentity_s*>, std::__1::equal_to<gentity_s*>, std::__1::allocator<gentity_s*> > >, std::__1::__unordered_map_hasher<gentity_s*, std::__1::__hash_value_type<gentity_s*, std::__1::unordered_set<gentity_s*, std::__1::hash<gentity_s*>, std::__1::equal_to<gentity_s*>, std::__1::allocator<gentity_s*> > >, std::__1::hash<gentity_s*>, true>, std::__1::__unordered_map_equal<gentity_s*, std::__1::__hash_value_type<gentity_s*, std::__1::unordered_set<gentity_s*, std::__1::hash<gentity_s*>, std::__1::equal_to<gentity_s*>, std::__1::allocator<gentity_s*> > >, std::__1::equal_to<gentity_s*>, true>, std::__1::allocator<std::__1::__hash_value_type<gentity_s*, std::__1::unordered_set<gentity_s*, std::__1::hash<gentity_s*>, std::__1::equal_to<gentity_s*>, std::__1::allocator<gentity_s*> > > > >::__node_insert_unique(std::__1::__hash_node<std::__1::__hash_value_type<gentity_s*, std::__1::unordered_set<gentity_s*, std::__1::hash<gentity_s*>, std::__1::equal_to<gentity_s*>, std::__1::allocator<gentity_s*> > >, void*>*)
FUNC 87c0 2c0 0 std::__1::__hash_table<std::__1::__hash_value_type<gentity_s*, std::__1::unordered_set<gentity_s*, std::__1::hash<gentity_s*>, std::__1::equal_to<gentity_s*>, std::__1::allocator<gentity_s*> > >, std::__1::__unordered_map_hasher<gentity_s*, std::__1::__hash_value_type<gentity_s*, std::__1::unordered_set<gentity_s*, std::__1::hash<gentity_s*>, std::__1::equal_to<gentity_s*>, std::__1::allocator<gentity_s*> > >, std::__1::hash<gentity_s*>, true>, std::__1::__unordered_map_equal<gentity_s*, std::__1::__hash_value_type<gentity_s*, std::__1::unordered_set<gentity_s*, std::__1::hash<gentity_s*>, std::__1::equal_to<gentity_s*>, std::__1::allocator<gentity_s*> > >, std::__1::equal_to<gentity_s*>, true>, std::__1::allocator<std::__1::__hash_value_type<gentity_s*, std::__1::unordered_set<gentity_s*, std::__1::hash<gentity_s*>, std::__1::equal_to<gentity_s*>, std::__1::allocator<gentity_s*> > > > >::__rehash(unsigned int)
FUNC 8a80 80 0 std::__1::__tree<std::__1::__value_type<float, std::__1::pair<gentity_s*, gentity_s*> >, std::__1::__map_value_compare<float, std::__1::__value_type<float, std::__1::pair<gentity_s*, gentity_s*> >, std::__1::less<float>, true>, std::__1::allocator<std::__1::__value_type<float, std::__1::pair<gentity_s*, gentity_s*> > > >::destroy(std::__1::__tree_node<std::__1::__value_type<float, std::__1::pair<gentity_s*, gentity_s*> >, void*>*)
FUNC 8b00 320 0 Clustering::EuclideanClustering<gentity_s*, 3>::Update(gentity_s* const&, Math::Vector<3u, float> const&)
FUNC 8e20 120 0 std::__1::__tree<std::__1::__value_type<BaseClustering::baseClusteringLayer_e, std::__1::unordered_set<gentity_s*, std::__1::hash<gentity_s*>, std::__1::equal_to<gentity_s*>, std::__1::allocator<gentity_s*> > >, std::__1::__map_value_compare<BaseClustering::baseClusteringLayer_e, std::__1::__value_type<BaseClustering::baseClusteringLayer_e, std::__1::unordered_set<gentity_s*, std::__1::hash<gentity_s*>, std::__1::equal_to<gentity_s*>, std::__1::allocator<gentity_s*> > >, std::__1::less<BaseClustering::baseClusteringLayer_e>, true>, std::__1::allocator<std::__1::__value_type<BaseClustering::baseClusteringLayer_e, std::__1::unordered_set<gentity_s*, std::__1::hash<gentity_s*>, std::__1::equal_to<gentity_s*>, std::__1::allocator<gentity_s*> > > > >::destroy(std::__1::__tree_node<std::__1::__value_type<BaseClustering::baseClusteringLayer_e, std::__1::unordered_set<gentity_s*, std::__1::hash<gentity_s*>, std::__1::equal_to<gentity_s*>, std::__1::allocator<gentity_s*> > >, void*>*)
FUNC 8f40 a0 0 std::__1::__tree<std::__1::__value_type<BaseClustering::baseClusteringLayer_e, Clustering::EntityClustering>, std::__1::__map_value_compare<BaseClustering::baseClusteringLayer_e, std::__1::__value_type<BaseClustering::baseClusteringLayer_e, Clustering::EntityClustering>, std::__1::less<BaseClustering::baseClusteringLayer_e>, true>, std::__1::allocator<std::__1::__value_type<BaseClustering::baseClusteringLayer_e, Clustering::EntityClustering> > >::destroy(std::__1::__tree_node<std::__1::__value_type<BaseClustering::baseClusteringLayer_e, Clustering::EntityClustering>, void*>*)
FUNC 8fe0 b20 0 BaseClustering::PostChangeHook(BaseClustering::baseClusteringLayer_e)
FUNC 9b00 c0 0 Entities::
FUNC 9bc0 c0 0 Entities::
FUNC 9c80 140 0 Entities::Kill(gentity_s*, gentity_s*, meansOfDeath_t)
FUNC 9dc0 2c0 0 Entities::AntiHumanRadiusDamage(Entity&, float, float, meansOfDeath_t)
FUNC a080 360 0 PushBot(gentity_s*, gentity_s*)
FUNC a3e0 460 0 G_TouchTriggers(gentity_s*)
FUNC a840 3e0 0 ClientInactivityTimer(gentity_s*, bool)
FUNC ac20 1e0 0 G_UnlaggedOff()
FUNC ae00 580 0 G_UnlaggedOn(gentity_s*, float*, float)
FUNC b380 4da0 0 ClientThink_real(gentity_s*)
FUNC 10120 a0 0 ClientThink(int)
FUNC 101c0 9a0 0 ClientEndFrame(gentity_s*)
FUNC 10b60 1a0 0 void Log::Logger::Debug<char const*>(Str::BasicStringRef<char>, char const*&&)
FUNC 10d00 460 0 std::__1::basic_string<char, std::__1::char_traits<char>, std::__1::allocator<char> > tinyformat::format<char const*>(char const*, char const* const&)
FUNC 11160 e0 0 std::__1::basic_ostringstream<char, std::__1::char_traits<char>, std::__1::allocator<char> >::~basic_ostringstream()
FUNC 11240 100 0 virtual thunk to std::__1::basic_ostringstream<char, std::__1::char_traits<char>, std::__1::allocator<char> >::~basic_ostringstream()
FUNC 11340 120 0 <name omitted>
FUNC 11460 140 0 virtual thunk to std::__1::basic_ostringstream<char, std::__1::char_traits<char>, std::__1::allocator<char> >::~basic_ostringstream()
FUNC 115a0 a0 0 std::__1::basic_stringbuf<char, std::__1::char_traits<char>, std::__1::allocator<char> >::~basic_stringbuf()
FUNC 11640 e0 0 std::__1::basic_stringbuf<char, std::__1::char_traits<char>, std::__1::allocator<char> >::~basic_stringbuf()
FUNC 11720 180 0 std::__1::basic_stringbuf<char, std::__1::char_traits<char>, std::__1::allocator<char> >::seekoff(long long, std::__1::ios_base::seekdir, unsigned int)
FUNC 118a0 60 0 std::__1::basic_stringbuf<char, std::__1::char_traits<char>, std::__1::allocator<char> >::seekpos(std::__1::fpos<_mbstate_t>, unsigned int)
FUNC 11900 80 0 std::__1::basic_stringbuf<char, std::__1::char_traits<char>, std::__1::allocator<char> >::underflow()
FUNC 11980 c0 0 std::__1::basic_stringbuf<char, std::__1::char_traits<char>, std::__1::allocator<char> >::pbackfail(int)
FUNC 11a40 2c0 0 std::__1::basic_stringbuf<char, std::__1::char_traits<char>, std::__1::allocator<char> >::overflow(int)
FUNC 11d00 240 0 std::__1::basic_stringbuf<char, std::__1::char_traits<char>, std::__1::allocator<char> >::str() const
FUNC 11f40 1a0 0 void tinyformat::detail::FormatArg::formatImpl<char const*>(std::__1::basic_ostream<char, std::__1::char_traits<char> >&, char const*, char const*, int, void const*)
FUNC 120e0 a0 0 int tinyformat::detail::FormatArg::toIntImpl<char const*>(void const*)
FUNC 12180 4c0 0 std::__1::basic_ostream<char, std::__1::char_traits<char> >& std::__1::__put_character_sequence<char, std::__1::char_traits<char> >(std::__1::basic_ostream<char, std::__1::char_traits<char> >&, char const*, unsigned int)
FUNC 12640 2a0 0 std::__1::ostreambuf_iterator<char, std::__1::char_traits<char> > std::__1::__pad_and_output<char, std::__1::char_traits<char> >(std::__1::ostreambuf_iterator<char, std::__1::char_traits<char> >, char const*, char const*, char const*, std::__1::ios_base&, char)
FUNC 128e0 2500 0 tinyformat::detail::formatImpl(std::__1::basic_ostream<char, std::__1::char_traits<char> >&, char const*, tinyformat::detail::FormatArg const*, int)
FUNC 14de0 1c0 0 std::__1::basic_stringbuf<char, std::__1::char_traits<char>, std::__1::allocator<char> >::str(std::__1::basic_string<char, std::__1::char_traits<char>, std::__1::allocator<char> > const&)
FUNC 14fa0 220 0 G_admin_cmdlist(gentity_s*)
FUNC 151c0 320 0 G_admin_permission(gentity_s*, char const*)
FUNC 154e0 420 0 G_admin_name_check(gentity_s*, char const*, char*, int)
FUNC 15900 1140 0 G_admin_writeconfig()
FUNC 16a40 180 0 G_admin_authlog(gentity_s*)
FUNC 16bc0 220 0 G_admin_duration(int, char*, int, char*, int)
FUNC 16de0 a20 0 G_admin_cmd_check(gentity_s*)
FUNC 17800 80 0 G_admin_print(gentity_s*, Str::BasicStringRef<char>)
FUNC 17880 1720 0 G_admin_readconfig(gentity_s*)
FUNC 18fa0 1a0 0 G_admin_cleanup()
FUNC 19140 660 0 G_admin_time(gentity_s*)
FUNC 197a0 960 0 G_admin_setlevel(gentity_s*)
FUNC 1a100 700 0 G_admin_kick(gentity_s*)
FUNC 1a800 10c0 0 G_admin_ban(gentity_s*)
FUNC 1b8c0 600 0 G_NamelogFromString(gentity_s*, char*)
FUNC 1bec0 720 0 G_admin_unban(gentity_s*)
FUNC 1c5e0 f60 0 G_admin_adjustban(gentity_s*)
FUNC 1d540 7a0 0 G_admin_putteam(gentity_s*)
FUNC 1dce0 c40 0 G_admin_speclock(gentity_s*)
FUNC 1e920 720 0 G_admin_specunlock(gentity_s*)
FUNC 1f040 740 0 G_admin_changemap(gentity_s*)
FUNC 1f780 ae0 0 G_admin_warn(gentity_s*)
FUNC 20260 8a0 0 G_admin_mute(gentity_s*)
FUNC 20b00 8c0 0 G_admin_denybuild(gentity_s*)
FUNC 213c0 340 0 G_admin_listadmins(gentity_s*)
FUNC 21700 3e0 0 G_admin_listinactive(gentity_s*)
FUNC 21ae0 380 0 G_admin_listlayouts(gentity_s*)
FUNC 21e60 180 0 G_admin_buffer_end(gentity_s*)
FUNC 21fe0 300 0 G_admin_listgeoip(gentity_s*)
FUNC 222e0 a80 0 G_admin_listplayers(gentity_s*)
FUNC 22d60 3a0 0 G_admin_showbans(gentity_s*)
FUNC 23100 1340 0 G_admin_adminhelp(gentity_s*)
FUNC 24440 220 0 G_admin_admintest(gentity_s*)
FUNC 24660 1c0 0 G_admin_allready(gentity_s*)
FUNC 24820 480 0 G_admin_endvote(gentity_s*)
FUNC 24ca0 260 0 G_admin_spec999(gentity_s*)
FUNC 24f00 9e0 0 G_admin_rename(gentity_s*)
FUNC 258e0 b60 0 G_admin_restart(gentity_s*)
FUNC 26440 2a0 0 G_admin_nextmap(gentity_s*)
FUNC 266e0 3a0 0 G_admin_namelog(gentity_s*)
FUNC 26a80 4c0 0 G_admin_lock(gentity_s*)
FUNC 26f40 940 0 G_admin_flaglist(gentity_s*)
FUNC 27880 1240 0 G_admin_flag(gentity_s*)
FUNC 28ac0 7a0 0 G_admin_builder(gentity_s*)
FUNC 29260 2c0 0 G_admin_pause(gentity_s*)
FUNC 29520 f80 0 G_admin_buildlog(gentity_s*)
FUNC 2a4a0 b00 0 G_admin_revert(gentity_s*)
FUNC 2afa0 3c0 0 G_admin_l0(gentity_s*)
FUNC 2b360 440 0 G_admin_l1(gentity_s*)
FUNC 2b7a0 200 0 G_admin_register(gentity_s*)
FUNC 2b9a0 1c0 0 G_admin_unregister(gentity_s*)
FUNC 2bb60 80 0 G_admin_print_plural(gentity_s*, Str::BasicStringRef<char>, int)
FUNC 2bbe0 20a0 0 G_admin_bot(gentity_s*)
FUNC 2dc80 540 0 void Log::Logger::Warn<char (&) [1024], char const*>(Str::BasicStringRef<char>, char (&) [1024], char const*&&)
FUNC 2e1c0 a0 0 void tinyformat::detail::FormatArg::formatImpl<char [1024]>(std::__1::basic_ostream<char, std::__1::char_traits<char> >&, char const*, char const*, int, void const*)
FUNC 2e260 a0 0 int tinyformat::detail::FormatArg::toIntImpl<char [1024]>(void const*)
FUNC 2e300 1a0 0 void Log::Logger::Warn<char (&) [256]>(Str::BasicStringRef<char>, char (&) [256])
FUNC 2e4a0 460 0 std::__1::basic_string<char, std::__1::char_traits<char>, std::__1::allocator<char> > tinyformat::format<char [256]>(char const*, char const (&) [256])
FUNC 2e900 a0 0 void tinyformat::detail::FormatArg::formatImpl<char [256]>(std::__1::basic_ostream<char, std::__1::char_traits<char> >&, char const*, char const*, int, void const*)
FUNC 2e9a0 a0 0 int tinyformat::detail::FormatArg::toIntImpl<char [256]>(void const*)
FUNC 2ea40 1c0 0 void Log::Logger::Warn<>(Str::BasicStringRef<char>)
FUNC 2ec00 2a0 0 std::__1::vector<team_e, std::__1::allocator<team_e> >::assign<const team_e *>
FUNC 2eea0 1a0 0 <name omitted>
FUNC 2f040 3e0 0 admin_default_levels()
FUNC 2f420 1e0 0 admin_readconfig_string(char const**, char*, unsigned int)
FUNC 2f600 1c0 0 llsort(llist**, int (*)(void const*, void const*))
FUNC 2f7c0 100 0 G_admin_notIntermission(gentity_s*)
FUNC 2f8c0 9a0 0 admin_find_admin(gentity_s*, char*, char const*, gentity_s**, g_admin_admin**)
FUNC 30260 3a0 0 admin_create_ban(gentity_s*, char*, char*, addr_t*, int, char const*)
FUNC 30600 240 0 namelog_matchname(void*, void const*)
FUNC 30840 4a0 0 namelog_out(void*, char*)
FUNC 30ce0 500 0 admin_search(gentity_s*, char const*, char const*, bool (*)(void*, void const*), int (*)(void*, char*), void const*, void const*, char const*, int, int, int)
FUNC 311e0 2a0 0 G_admin_reflag_warnings()
FUNC 31480 440 0 admin_create_ban_entry(gentity_s*, char*, char*, addr_t*, int, char const*)
FUNC 318c0 c0 0 admin_match(void*, void const*)
FUNC 31980 f40 0 admin_out(void*, char*)
FUNC 328c0 40 0 admin_match_inactive(void*, void const*)
FUNC 32900 1a0 0 G_admin_buffer_print_raw(gentity_s*, Str::BasicStringRef<char>, bool)
FUNC 32aa0 60 0 ban_matchip(void*, void const*)
FUNC 32b00 80 0 ban_matchname(void*, void const*)
FUNC 32b80 6e0 0 ban_out(void*, char*)
FUNC 33260 240 0 namelog_matchip(void*, void const*)
FUNC 334a0 40 0 G_admin_flag_sort(void const*, void const*)
FUNC 334e0 40 0 G_admin_maprestarted(gentity_s*)
FUNC 33520 17a0 0 VM::VMInit()
FUNC 34cc0 a8e0 0 VM::VMHandleSyscall(unsigned int, Util::Reader)
FUNC 3f5a0 140 0 Util::Reader::~Reader()
FUNC 3f6e0 120 0 trap_UnlinkEntity(gentity_s*)
FUNC 3f800 80 0 trap_Trace(trace_t*, float const*, float const*, float const*, float const*, int, int, int)
FUNC 3f880 20 0 <name omitted>
FUNC 3f8a0 200 0 trap_SetBrushModel(gentity_s*, char const*)
FUNC 3faa0 8e0 0 trap_AdjustAreaPortalState(gentity_s*, bool)
FUNC 40380 360 0 std::__1::vector<char, std::__1::allocator<char> >::insert<const char *>
FUNC 406e0 520 0 void tinyformat::detail::FormatArg::formatImpl<IPC::Message<IPC::Id<(unsigned short)0, (unsigned short)2>, int, bool>::{unnamed type#1}>(std::__1::basic_ostream<char, IPC::Message<IPC::Id<(unsigned short)0, (unsigned short)2>, int, bool>::{unnamed type#1}::char_traits<char> >&, char const*, char const, int, void const*)
FUNC 40c00 20 0 int tinyformat::detail::FormatArg::toIntImpl<IPC::Message<IPC::Id<(unsigned short)0, (unsigned short)2>, int, bool>::{unnamed type#1}>(void const*)
FUNC 40c20 1a0 0 Util::SerializeTraits<std::__1::basic_string<char, std::__1::char_traits<char>, std::__1::allocator<char> >, void>::Read(Util::Reader&)
FUNC 40dc0 100 0 void Util::Writer::WriteArgs<bool, std::__1::basic_string<char, std::__1::char_traits<char>, std::__1::allocator<char> >, bool, std::__1::basic_string<char, std::__1::char_traits<char>, std::__1::allocator<char> > >(Util::TypeList<bool, std::__1::basic_string<char, std::__1::char_traits<char>, std::__1::allocator<char> > >, bool&&, std::__1::basic_string<char, std::__1::char_traits<char>, std::__1::allocator<char> >&&)
FUNC 40ec0 100 0 G_BotClearNames()
FUNC 40fc0 240 0 G_BotAddNames(team_e, int, int)
FUNC 41200 340 0 G_BotSetDefaults(int, team_e, int, char const*)
FUNC 41540 4e0 0 G_BotAdd(char const*, team_e, int, char const*, bool)
FUNC 41a20 2a0 0 G_BotDel(int)
FUNC 41cc0 560 0 G_BotThink(gentity_s*)
FUNC 42220 540 0 G_BotSpectatorThink(gentity_s*)
FUNC 42760 220 0 G_BotFill(bool)
FUNC 42980 5c0 0 void Log::Logger::Warn<char (&) [128]>(Str::BasicStringRef<char>, char (&) [128])
FUNC 42f40 a0 0 void tinyformat::detail::FormatArg::formatImpl<char [128]>(std::__1::basic_ostream<char, std::__1::char_traits<char> >&, char const*, char const*, int, void const*)
FUNC 42fe0 a0 0 int tinyformat::detail::FormatArg::toIntImpl<char [128]>(void const*)
FUNC 43080 1a0 0 void Log::Logger::Warn<char const*&>(Str::BasicStringRef<char>, char const*&)
FUNC 43220 200 0 G_BotListTeamNames(gentity_s*, char const*, team_e, char const*)
FUNC 43420 180 0 <name omitted>
FUNC 435a0 80 0 BotSelectorNode(gentity_s*, AIGenericNode_s*)
FUNC 43620 260 0 BotEvaluateNode(gentity_s*, AIGenericNode_s*)
FUNC 43880 100 0 BotSequenceNode(gentity_s*, AIGenericNode_s*)
FUNC 43980 a0 0 BotConcurrentNode(gentity_s*, AIGenericNode_s*)
FUNC 43a20 a0 0 BotDecoratorTimer(gentity_s*, AIGenericNode_s*)
FUNC 43ac0 80 0 BotDecoratorReturn(gentity_s*, AIGenericNode_s*)
FUNC 43b40 f40 0 EvalConditionExpression(gentity_s*, AIExpType_t*)
FUNC 44a80 80 0 BotConditionNode(gentity_s*, AIGenericNode_s*)
FUNC 44b00 20 0 BotBehaviorNode(gentity_s*, AIGenericNode_s*)
FUNC 44b20 120 0 BotActionFireWeapon(gentity_s*, AIGenericNode_s*)
FUNC 44c40 a0 0 BotActionActivateUpgrade(gentity_s*, AIGenericNode_s*)
FUNC 44ce0 a0 0 BotActionDeactivateUpgrade(gentity_s*, AIGenericNode_s*)
FUNC 44d80 1a0 0 BotActionAimAtGoal(gentity_s*, AIGenericNode_s*)
FUNC 44f20 40 0 BotActionMoveToGoal(gentity_s*, AIGenericNode_s*)
FUNC 44f60 a0 0 BotActionMoveInDir(gentity_s*, AIGenericNode_s*)
FUNC 45000 40 0 BotActionStrafeDodge(gentity_s*, AIGenericNode_s*)
FUNC 45040 80 0 BotActionAlternateStrafe(gentity_s*, AIGenericNode_s*)
FUNC 450c0 a0 0 BotActionClassDodge(gentity_s*, AIGenericNode_s*)
FUNC 45160 1a0 0 BotActionChangeGoal(gentity_s*, AIGenericNode_s*)
FUNC 45300 80 0 BotActionEvolveTo(gentity_s*, AIGenericNode_s*)
FUNC 45380 e0 0 BotActionSay(gentity_s*, AIGenericNode_s*)
FUNC 45460 8c0 0 BotActionFight(gentity_s*, AIGenericNode_s*)
FUNC 45d20 260 0 BotActionFlee(gentity_s*, AIGenericNode_s*)
FUNC 45f80 1000 0 BotActionRoamInRadius(gentity_s*, AIGenericNode_s*)
FUNC 46f80 da0 0 BotActionRoam(gentity_s*, AIGenericNode_s*)
FUNC 47d20 640 0 BotActionMoveTo(gentity_s*, AIGenericNode_s*)
FUNC 48360 2e0 0 BotActionRush(gentity_s*, AIGenericNode_s*)
FUNC 48640 400 0 BotActionHeal(gentity_s*, AIGenericNode_s*)
FUNC 48a40 40 0 BotActionSuicide(gentity_s*, AIGenericNode_s*)
FUNC 48a80 80 0 BotActionJump(gentity_s*, AIGenericNode_s*)
FUNC 48b00 80 0 BotActionResetStuckTime(gentity_s*, AIGenericNode_s*)
FUNC 48b80 340 0 BotActionEvolve(gentity_s*, AIGenericNode_s*)
FUNC 48ec0 320 0 BotActionRepair(gentity_s*, AIGenericNode_s*)
FUNC 491e0 16e0 0 BotActionBuy(gentity_s*, AIGenericNode_s*)
FUNC 4a8c0 1a0 0 void Log::Logger::Warn<int>(Str::BasicStringRef<char>, int&&)
FUNC 4aa60 460 0 std::__1::basic_string<char, std::__1::char_traits<char>, std::__1::allocator<char> > tinyformat::format<int>(char const*, int const&)
FUNC 4aec0 520 0 void tinyformat::detail::FormatArg::formatImpl<int>(std::__1::basic_ostream<char, std::__1::char_traits<char> >&, char const*, char const*, int, void const*)
FUNC 4b3e0 20 0 int tinyformat::detail::FormatArg::toIntImpl<int>(void const*)
FUNC 4b400 160 0 GoalInRange(gentity_s*, float)
FUNC 4b560 100 0 DistanceToGoal(gentity_s*)
FUNC 4b660 e0 0 DistanceToGoalSquared(gentity_s*)
FUNC 4b740 d60 0 BotPathIsWalkable(gentity_s*, botTarget_t)
FUNC 4c4a0 120 0 BotStrafeDodge(gentity_s*)
FUNC 4c5c0 a0 0 BotMoveInDir(gentity_s*, unsigned int)
FUNC 4c660 c0 0 BotStandStill(gentity_s*)
FUNC 4c720 f60 0 BotMoveToGoal(gentity_s*)
FUNC 4d680 be0 0 FindRouteToTarget(gentity_s*, botTarget_t, bool)
FUNC 4e260 480 0 std::__1::basic_string<char, std::__1::char_traits<char>, std::__1::allocator<char> > tinyformat::format<char const*, char const*>(char const*, char const* const&, char const* const&)
FUNC 4e6e0 1c0 0 void Log::Logger::Notice<>(Str::BasicStringRef<char>)
FUNC 4e8a0 1040 0 ReadNode(pc_token_list_s**)
FUNC 4f8e0 360 0 ReadNodeList(pc_token_list_s**)
FUNC 4fc40 260 0 FreeNode(AIGenericNode_s*)
FUNC 4fea0 1fa0 0 ReadBehaviorTree(char const*, AITreeList_t*)
FUNC 51e40 140 0 FreeTreeList(AITreeList_t*)
FUNC 51f80 140 0 FreeExpression(AIExpType_t*)
FUNC 520c0 a0 0 FreeOp(AIOp_t*)
FUNC 52160 1a0 0 void Log::Logger::Warn<char (&) [64]>(Str::BasicStringRef<char>, char (&) [64])
FUNC 52300 460 0 std::__1::basic_string<char, std::__1::char_traits<char>, std::__1::allocator<char> > tinyformat::format<char [64]>(char const*, char const (&) [64])
FUNC 52760 a0 0 void tinyformat::detail::FormatArg::formatImpl<char [64]>(std::__1::basic_ostream<char, std::__1::char_traits<char> >&, char const*, char const*, int, void const*)
FUNC 52800 a0 0 int tinyformat::detail::FormatArg::toIntImpl<char [64]>(void const*)
FUNC 528a0 480 0 std::__1::basic_string<char, std::__1::char_traits<char>, std::__1::allocator<char> > tinyformat::format<int, char*>(char const*, int const&, char* const&)
FUNC 52d20 1a0 0 void tinyformat::detail::FormatArg::formatImpl<char*>(std::__1::basic_ostream<char, std::__1::char_traits<char> >&, char const*, char const*, int, void const*)
FUNC 52ec0 a0 0 int tinyformat::detail::FormatArg::toIntImpl<char*>(void const*)
FUNC 52f60 1a0 0 void Log::Logger::Warn<char*&, int&>(Str::BasicStringRef<char>, char*&, int&)
FUNC 53100 480 0 std::__1::basic_string<char, std::__1::char_traits<char>, std::__1::allocator<char> > tinyformat::format<char*, int>(char const*, char* const&, int const&)
FUNC 53580 1a0 0 void Log::Logger::Warn<int&>(Str::BasicStringRef<char>, int&)
FUNC 53720 540 0 void Log::Logger::Warn<char const*, int&>(Str::BasicStringRef<char>, char const*&&, int&)
FUNC 53c60 560 0 void Log::Logger::Warn<char const*&, char* const&, int const&>(Str::BasicStringRef<char>, char const*&, char* const&, int const&)
FUNC 541c0 c20 0 ReadConditionExpression(pc_token_list_s**, AIOpType_t)
FUNC 54de0 3c0 0 parseFunctionParameters(pc_token_list_s**, int*, int, int)
FUNC 551a0 60 0 currentWeapon(gentity_s*, AIValue_t const*)
FUNC 55200 80 0 teamateHasWeapon(gentity_s*, AIValue_t const*)
FUNC 55280 60 0 botTeam(gentity_s*, AIValue_t const*)
FUNC 552e0 60 0 stuckTime(gentity_s*, AIValue_t const*)
FUNC 55340 60 0 botSkill(gentity_s*, AIValue_t const*)
FUNC 553a0 c0 0 randomChance(gentity_s*, AIValue_t const*)
FUNC 55460 e0 0 percentHealth(gentity_s*, AIValue_t const*)
FUNC 55540 120 0 percentAmmo(gentity_s*, AIValue_t const*)
FUNC 55660 1a0 0 isVisible(gentity_s*, AIValue_t const*)
FUNC 55800 160 0 inAttackRange(gentity_s*, AIValue_t const*)
FUNC 55960 40 0 humanMomentum(gentity_s*, AIValue_t const*)
FUNC 559a0 60 0 healScore(gentity_s*, AIValue_t const*)
FUNC 55a00 c0 0 haveWeapon(gentity_s*, AIValue_t const*)
FUNC 55ac0 a0 0 haveUpgrade(gentity_s*, AIValue_t const*)
FUNC 55b60 80 0 goalType(gentity_s*, AIValue_t const*)
FUNC 55be0 a0 0 goalTeam(gentity_s*, AIValue_t const*)
FUNC 55c80 140 0 goalDead(gentity_s*, AIValue_t const*)
FUNC 55dc0 c0 0 goalBuildingType(gentity_s*, AIValue_t const*)
FUNC 55e80 80 0 distanceTo(gentity_s*, AIValue_t const*)
FUNC 55f00 1a0 0 directPathTo(gentity_s*, AIValue_t const*)
FUNC 560a0 100 0 cvarInt(gentity_s*, AIValue_t const*)
FUNC 561a0 e0 0 cvarFloat(gentity_s*, AIValue_t const*)
FUNC 56280 60 0 botClass(gentity_s*, AIValue_t const*)
FUNC 562e0 a0 0 botCanEvolveTo(gentity_s*, AIValue_t const*)
FUNC 56380 60 0 buildingIsDamaged(gentity_s*, AIValue_t const*)
FUNC 563e0 60 0 baseRushScore(gentity_s*, AIValue_t const*)
FUNC 56440 40 0 alienMomentum(gentity_s*, AIValue_t const*)
FUNC 56480 60 0 alertedToEnemy(gentity_s*, AIValue_t const*)
FUNC 564e0 1e0 0 BotGetBaseRushScore(gentity_s*)
FUNC 566c0 120 0 BotGetHealScore(gentity_s*)
FUNC 567e0 400 0 BotFindClosestBuildings(gentity_s*)
FUNC 56be0 260 0 BotFindDamagedFriendlyStructure(gentity_s*)
FUNC 56e40 220 0 BotTargetIsVisible(gentity_s*, botTarget_t, int)
FUNC 57060 1c0 0 <name omitted>
FUNC 57220 5a0 0 BotTargetToRouteTarget(gentity_s*, botTarget_t, botRouteTarget_t*)
FUNC 577c0 140 0 BotChangeGoalEntity(gentity_s*, gentity_s*)
FUNC 57900 a80 0 BotTargetInAttackRange(gentity_s*, botTarget_t)
FUNC 58380 3c0 0 BotGetIdealAimLocation(gentity_s*, botTarget_t, float*)
FUNC 58740 460 0 BotAimAtEnemy(gentity_s*)
FUNC 58ba0 220 0 BotAimAtLocation(gentity_s*, float*)
FUNC 58dc0 240 0 BotSlowAim(gentity_s*, float*, float)
FUNC 59000 140 0 PlayersBehindBotInSpawnQueue(gentity_s*)
FUNC 59140 1a0 0 BotTeamateHasWeapon(gentity_s*, int)
FUNC 592e0 1c0 0 BotClassMovement(gentity_s*, bool)
FUNC 594a0 320 0 CalcAimPitch(gentity_s*, botTarget_t, float)
FUNC 597c0 760 0 BotFireWeaponAI(gentity_s*)
FUNC 59f20 520 0 BotEvolveToClass(gentity_s*, class_t)
FUNC 5a440 220 0 BotSellWeapons(gentity_s*)
FUNC 5a660 140 0 BotPain(gentity_s*, gentity_s*, int)
FUNC 5a7a0 a60 0 BotSearchForEnemy(gentity_s*)
FUNC 5b200 160 0 BotCalculateStuckTime(gentity_s*)
FUNC 5b360 120 0 <name omitted>
FUNC 5b480 120 0 <name omitted>
FUNC 5b5a0 180 0 G_MainBuildable(team_e)
FUNC 5b720 1e0 0 G_ActiveMainBuildable(team_e)
FUNC 5b900 520 0 ABarricade_Shrink(gentity_s*, bool)
FUNC 5be20 40 0 ABarricade_Think(gentity_s*)
FUNC 5be60 a0 0 ABarricade_Touch(gentity_s*, gentity_s*, trace_t*)
FUNC 5bf00 140 0 ABooster_Think(gentity_s*)
FUNC 5c040 e0 0 ABooster_Touch(gentity_s*, gentity_s*, trace_t*)
FUNC 5c120 260 0 ATrapper_CheckTarget(gentity_s*, gentity_s*, int)
FUNC 5c380 640 0 ATrapper_Think(gentity_s*)
FUNC 5c9c0 100 0 HArmoury_Use(gentity_s*, gentity_s*, gentity_s*)
FUNC 5cac0 660 0 HMedistat_Think(gentity_s*)
FUNC 5d120 120 0 G_BuildableInRange(float*, float, buildable_t)
FUNC 5d240 2a0 0 G_Deconstruct(gentity_s*, gentity_s*, meansOfDeath_t)
FUNC 5d4e0 1980 0 G_CanBuild(gentity_s*, buildable_t, int, float*, float*, int*)
FUNC 5ee60 2c0 0 G_LayoutList(char const*, char*, int)
FUNC 5f120 a0 0 G_BaseSelfDestruct(team_e)
FUNC 5f1c0 280 0 G_BuildLogAuto(gentity_s*, gentity_s*, buildFate_t)
FUNC 5f440 500 0 G_BuildLogRevertThink(gentity_s*)
FUNC 5f940 1a0 0 void Log::Logger::Warn<char (&) [1024]>(Str::BasicStringRef<char>, char (&) [1024])
FUNC 5fae0 460 0 std::__1::basic_string<char, std::__1::char_traits<char>, std::__1::allocator<char> > tinyformat::format<char [1024]>(char const*, char const (&) [1024])
FUNC 5ff40 1a0 0 void Log::Logger::Warn<char*&>(Str::BasicStringRef<char>, char*&)
FUNC 600e0 460 0 std::__1::basic_string<char, std::__1::char_traits<char>, std::__1::allocator<char> > tinyformat::format<char*>(char const*, char* const&)
FUNC 60540 600 0 void Log::Logger::Warn<int&, int&, char const*&>(Str::BasicStringRef<char>, int&, int&, char const*&)
FUNC 60b40 e20 0 void std::__1::__sort<bool (*&)(Entity*, Entity*), Entity**>(Entity**, Entity**, bool (*&)(Entity*, Entity*))
FUNC 61960 360 0 unsigned int std::__1::__sort4<bool (*&)(Entity*, Entity*), Entity**>(Entity**, Entity**, Entity**, Entity**, bool (*&)(Entity*, Entity*))
FUNC 61cc0 200 0 unsigned int std::__1::__sort5<bool (*&)(Entity*, Entity*), Entity**>(Entity**, Entity**, Entity**, Entity**, Entity**, bool (*&)(Entity*, Entity*))
FUNC 61ec0 660 0 bool std::__1::__insertion_sort_incomplete<bool (*&)(Entity*, Entity*), Entity**>(Entity**, Entity**, bool (*&)(Entity*, Entity*))
FUNC 62520 1a0 0 void std::__1::vector<Entity*, std::__1::allocator<Entity*> >::__push_back_slow_path<Entity*>(Entity*&&)
FUNC 626c0 400 0 std::__1::basic_string<char, std::__1::char_traits<char>, std::__1::allocator<char> > tinyformat::format<char const*, char*>(char const*, char const* const&, char* const&)
FUNC 62ac0 280 0 CompareBuildablesForPowerSaving(Entity*, Entity*)
FUNC 62d40 140 0 BuildablesIntersect(buildable_t, float*, buildable_t, float*)
FUNC 62e80 420 0 CompareBuildablesForRemoval(void const*, void const*)
FUNC 632a0 51a0 0 SpawnBuildable(gentity_s*, buildable_t, float const*, float const*, float const*, int)
FUNC 68440 40 0 SpawnBuildableThink(gentity_s*)
FUNC 68480 5e0 0 FinishSpawningBuildable(gentity_s*, bool)
FUNC 68a60 100 0 Log::Logger::~Logger()
FUNC 68b60 240 0 LeechEntity::~LeechEntity()
FUNC 68da0 6c0 0 G_RGSPredictEfficiencyDelta(float*, team_e)
FUNC 69460 1c0 0 void Log::Logger::Debug<float&>(Str::BasicStringRef<char>, float&)
FUNC 69620 160 0 G_UpdateBuildPointBudgets()
FUNC 69780 a0 0 G_FreeBudget(team_e, int, int)
FUNC 69820 c0 0 G_BuildableDeconValue(gentity_s*)
FUNC 698e0 480 0 std::__1::basic_string<char, std::__1::char_traits<char>, std::__1::allocator<char> > tinyformat::format<float, float>(char const*, float const&, float const&)
FUNC 69d60 520 0 void tinyformat::detail::FormatArg::formatImpl<float>(std::__1::basic_ostream<char, std::__1::char_traits<char> >&, char const*, char const*, int, void const*)
FUNC 6a280 20 0 int tinyformat::detail::FormatArg::toIntImpl<float>(void const*)
FUNC 6a2a0 4c0 0 std::__1::basic_string<char, std::__1::char_traits<char>, std::__1::allocator<char> > tinyformat::format<float, float, float>(char const*, float const&, float const&, float const&)
FUNC 6a760 460 0 std::__1::basic_string<char, std::__1::char_traits<char>, std::__1::allocator<char> > tinyformat::format<float>(char const*, float const&)
FUNC 6abc0 2c0 0 ThinkingComponent::~ThinkingComponent()
FUNC 6ae80 40 0 LeechEntity::~LeechEntity()
FUNC 6aec0 100 0 unsigned int std::__1::__tree<DeferredFreeingComponent*, std::__1::less<DeferredFreeingComponent*>, std::__1::allocator<DeferredFreeingComponent*> >::__erase_unique<DeferredFreeingComponent*>(DeferredFreeingComponent* const&)
FUNC 6afc0 100 0 unsigned int std::__1::__tree<TeamComponent*, std::__1::less<TeamComponent*>, std::__1::allocator<TeamComponent*> >::__erase_unique<TeamComponent*>(TeamComponent* const&)
FUNC 6b0c0 100 0 unsigned int std::__1::__tree<IgnitableComponent*, std::__1::less<IgnitableComponent*>, std::__1::allocator<IgnitableComponent*> >::__erase_unique<IgnitableComponent*>(IgnitableComponent* const&)
FUNC 6b1c0 100 0 unsigned int std::__1::__tree<HealthComponent*, std::__1::less<HealthComponent*>, std::__1::allocator<HealthComponent*> >::__erase_unique<HealthComponent*>(HealthComponent* const&)
FUNC 6b2c0 100 0 unsigned int std::__1::__tree<BuildableComponent*, std::__1::less<BuildableComponent*>, std::__1::allocator<BuildableComponent*> >::__erase_unique<BuildableComponent*>(BuildableComponent* const&)
FUNC 6b3c0 100 0 unsigned int std::__1::__tree<AlienBuildableComponent*, std::__1::less<AlienBuildableComponent*>, std::__1::allocator<AlienBuildableComponent*> >::__erase_unique<AlienBuildableComponent*>(AlienBuildableComponent* const&)
FUNC 6b4c0 100 0 unsigned int std::__1::__tree<MiningComponent*, std::__1::less<MiningComponent*>, std::__1::allocator<MiningComponent*> >::__erase_unique<MiningComponent*>(MiningComponent* const&)
FUNC 6b5c0 80 0 <name omitted>
FUNC 6b640 c0 0 G_AddCreditToClient(gclient_s*, short, bool)
FUNC 6b700 140 0 <name omitted>
FUNC 6b840 140 0 <name omitted>
FUNC 6b980 5a0 0 respawn(gentity_s*)
FUNC 6bf20 3fc0 0 ClientSpawn(gentity_s*, gentity_s*, float const*, float const*)
FUNC 6fee0 e0 0 <name omitted>
FUNC 6ffc0 1b20 0 ClientUserinfoChanged(int, bool)
FUNC 71ae0 f20 0 ClientConnect(int, bool)
FUNC 72a00 2e0 0 ClientDisconnect(int)
FUNC 72ce0 3a0 0 ClientBotConnect(int, bool, team_e)
FUNC 73080 7a0 0 ClientBegin(int)
FUNC 73820 300 0 G_SelectSpawnBuildable(float*, buildable_t)
FUNC 73b20 c0 0 BodySink(gentity_s*)
FUNC 73be0 240 0 G_UnnamedClientName(gclient_s*)
FUNC 73e20 4a0 0 G_SanitiseString(char const*, char*, int)
FUNC 742c0 380 0 G_ClientNumberFromString(char const*, char*, int)
FUNC 74640 280 0 G_ClientNumbersFromString(char const*, int*, int)
FUNC 748c0 2e0 0 ScoreboardMessage(gentity_s*)
FUNC 74ba0 160 0 <name omitted>
FUNC 74d00 1c0 0 ConcatArgsPrintable(int)
FUNC 74ec0 980 0 Cmd_Give_f(gentity_s*)
FUNC 75840 80 0 Cmd_God_f(gentity_s*)
FUNC 758c0 80 0 Cmd_Notarget_f(gentity_s*)
FUNC 75940 120 0 Cmd_Noclip_f(gentity_s*)
FUNC 75a60 e0 0 Cmd_Kill_f(gentity_s*)
FUNC 75b40 960 0 Cmd_Team_f(gentity_s*)
FUNC 764a0 360 0 G_Say(gentity_s*, saymode_t, char const*)
FUNC 76800 d20 0 Cmd_VSay_f(gentity_s*)
FUNC 77520 c0 0 Cmd_Where_f(gentity_s*)
FUNC 775e0 2a60 0 Cmd_CallVote_f(gentity_s*)
FUNC 7a040 2c0 0 Cmd_Vote_f(gentity_s*)
FUNC 7a300 500 0 Cmd_SetViewpos_f(gentity_s*)
FUNC 7a800 3e0 0 G_RoomForClassChange(gentity_s*, class_t, float*)
FUNC 7abe0 d60 0 Cmd_Class_f(gentity_s*)
FUNC 7b940 5c0 0 Cmd_Deconstruct_f(gentity_s*)
FUNC 7bf00 1c0 0 Cmd_Ignite_f(gentity_s*)
FUNC 7c0c0 580 0 Cmd_ActivateItem_f(gentity_s*)
FUNC 7c640 160 0 Cmd_DeActivateItem_f(gentity_s*)
FUNC 7c7a0 260 0 Cmd_ToggleItem_f(gentity_s*)
FUNC 7ca00 140 0 Cmd_Sell_f(gentity_s*)
FUNC 7cb40 200 0 Cmd_Buy_f(gentity_s*)
FUNC 7cd40 5c0 0 Cmd_Build_f(gentity_s*)
FUNC 7d300 a0 0 Cmd_Reload_f(gentity_s*)
FUNC 7d3a0 1e0 0 G_FollowNewClient(gentity_s*, int)
FUNC 7d580 4a0 0 G_StopFollowing(gentity_s*)
FUNC 7da20 3a0 0 G_FollowLockView(gentity_s*)
FUNC 7ddc0 260 0 Cmd_Follow_f(gentity_s*)
FUNC 7e020 c0 0 Cmd_FollowCycle_f(gentity_s*)
FUNC 7e0e0 1340 0 Cmd_ListMaps_f(gentity_s*)
FUNC 7f420 1c0 0 G_MapLog_Result(char)
FUNC 7f5e0 320 0 Cmd_MapLog_f(gentity_s*)
FUNC 7f900 340 0 Cmd_Damage_f(gentity_s*)
FUNC 7fc40 580 0 Cmd_Beacon_f(gentity_s*)
FUNC 801c0 140 0 G_FloodLimited(gentity_s*)
FUNC 80300 4a0 0 ClientCommand(int)
FUNC 807a0 a20 0 Cmd_PrivateMessage_f(gentity_s*)
FUNC 811c0 220 0 Cmd_AdminMessage_f(gentity_s*)
FUNC 813e0 320 0 G_SayTo(gentity_s*, gentity_s*, saymode_t, char const*)
FUNC 81700 620 0 Cmd_Sell_internal(gentity_s*, char const*)
FUNC 81d20 d80 0 Cmd_Buy_internal(gentity_s*, char const*, bool, bool)
FUNC 82aa0 780 0 void std::__1::__sort<Cmd_ListMaps_f(gentity_s*)::$_1&, char const**>(char const**, char const**, Cmd_ListMaps_f(gentity_s*)::$_1&)
FUNC 83220 2c0 0 bool std::__1::__insertion_sort_incomplete<Cmd_ListMaps_f(gentity_s*)::$_1&, char const**>(char const**, char const**, Cmd_ListMaps_f(gentity_s*)::$_1&)
FUNC 834e0 1e0 0 unsigned int std::__1::__sort5<Cmd_ListMaps_f(gentity_s*)::$_1&, char const**>(char const**, char const**, char const**, char const**, char const**, Cmd_ListMaps_f(gentity_s*)::$_1&)
FUNC 836c0 180 0 unsigned int std::__1::__sort4<Cmd_ListMaps_f(gentity_s*)::$_1&, char const**>(char const**, char const**, char const**, char const**, Cmd_ListMaps_f(gentity_s*)::$_1&)
FUNC 83840 180 0 unsigned int std::__1::__sort3<Cmd_ListMaps_f(gentity_s*)::$_1&, char const**>(char const**, char const**, char const**, Cmd_ListMaps_f(gentity_s*)::$_1&)
FUNC 839c0 420 0 Cmd_SayAreaTeam_f(gentity_s*)
FUNC 83de0 3e0 0 Cmd_SayArea_f(gentity_s*)
FUNC 841c0 1c0 0 Cmd_Pubkey_Identify_f(gentity_s*)
FUNC 84380 220 0 Cmd_Me_f(gentity_s*)
FUNC 845a0 780 0 Cmd_Ignore_f(gentity_s*)
FUNC 84d20 300 0 Cmd_Say_f(gentity_s*)
FUNC 85020 240 0 Cmd_Sell_upgradeItem(gentity_s*, upgrade_t)
FUNC 85260 260 0 Cmd_Sell_weapons(gentity_s*)
FUNC 854c0 120 0 Cmd_Sell_upgrades(gentity_s*)
FUNC 855e0 160 0 G_CM_inPVS(float const*, float const*)
FUNC 85740 100 0 G_CM_inPVSIgnorePortals(float const*, float const*)
FUNC 85840 1c0 0 G_CM_EntityContact(float const*, float const*, gentity_s const*, traceType_t)
FUNC 85a00 220 0 G_CM_CreateworldSector(int, float*, float*)
FUNC 85c20 940 0 G_CM_LinkEntity(gentity_s*)
FUNC 86560 220 0 G_CM_AreaEntities_r(worldSector_s*, areaParms_t*)
FUNC 86780 820 0 G_CM_Trace(trace_t*, float const*, float const*, float const*, float const*, int, int, int, traceType_t)
FUNC 86fa0 480 0 G_CM_PointContents(float const*, int)
FUNC 87420 480 0 std::__1::basic_string<char, std::__1::char_traits<char>, std::__1::allocator<char> > tinyformat::format<int, int>(char const*, int const&, int const&)
FUNC 878a0 580 0 G_RewardAttackers(gentity_s*)
FUNC 87e20 ae0 0 G_PlayerDie(gentity_s*, gentity_s*, gentity_s*, int)
FUNC 88900 3c0 0 G_CanDamage(gentity_s*, float*)
FUNC 88cc0 560 0 G_RadiusDamage(float*, gentity_s*, float, float, gentity_s*, int, int, team_e)
FUNC 89220 440 0 G_NewEntity()
FUNC 89660 220 0 G_FreeEntity(gentity_s*)
FUNC 89880 c0 0 <name omitted>
FUNC 89940 200 0 G_NewTempEntity(float const*, int)
FUNC 89b40 180 0 G_PrintEntityNameList(gentity_s*)
FUNC 89cc0 100 0 G_IterateEntities(gentity_s*, char const*, bool, unsigned int, char const*)
FUNC 89dc0 100 0 G_IterateEntitiesOfClass(gentity_s*, char const*)
FUNC 89ec0 200 0 G_IterateEntitiesWithinRadius(gentity_s*, float*, float)
FUNC 8a0c0 360 0 G_PickRandomEntity(char const*, unsigned int, char const*)
FUNC 8a420 c0 0 G_GetCallActionTypeFor(char const*)
FUNC 8a4e0 100 0 G_ResolveEntityKeyword(gentity_s*, char*)
FUNC 8a5e0 1c0 0 G_IterateTargets(gentity_s*, int*, gentity_s*)
FUNC 8a7a0 180 0 G_IterateCallEndpoints(gentity_s*, int*, gentity_s*)
FUNC 8a920 240 0 G_PickRandomTargetFor(gentity_s*)
FUNC 8ab60 180 0 G_FireEntityRandomly(gentity_s*, gentity_s*)
FUNC 8ace0 da0 0 G_CallEntity(gentity_s*, gentityCall_t*)
FUNC 8ba80 140 0 G_EventFireEntity(gentity_s*, gentity_s*, gentityCallEvent_t)
FUNC 8bbc0 a0 0 G_IsVisible(gentity_s*, gentity_s*, int)
FUNC 8bc60 120 0 G_SetMovedir(float*, float*)
FUNC 8bd80 480 0 std::__1::basic_string<char, std::__1::char_traits<char>, std::__1::allocator<char> > tinyformat::format<char*, char const*>(char const*, char* const&, char const* const&)
FUNC 8c200 520 0 std::__1::basic_string<char, std::__1::char_traits<char>, std::__1::allocator<char> > tinyformat::format<char const*, char const*, char const*, char const*, char const*>(char const*, char const* const&, char const* const&, char const* const&, char const* const&, char const* const&)
FUNC 8c720 1a0 0 void Log::Logger::Warn<char const*>(Str::BasicStringRef<char>, char const*&&)
FUNC 8c8c0 4c0 0 std::__1::basic_string<char, std::__1::char_traits<char>, std::__1::allocator<char> > tinyformat::format<char const*, char const*, char const*>(char const*, char const* const&, char const* const&, char const* const&)
FUNC 8cd80 1a0 0 void Log::Logger::Notice<char (&) [1024]>(Str::BasicStringRef<char>, char (&) [1024])
FUNC 8cf20 480 0 std::__1::basic_string<char, std::__1::char_traits<char>, std::__1::allocator<char> > tinyformat::format<int, char const*>(char const*, int const&, char const* const&)
FUNC 8d3a0 360 0 Cvar::Cvar<bool>::Cvar(std::__1::basic_string<char, std::__1::char_traits<char>, std::__1::allocator<char> >, std::__1::basic_string<char, std::__1::char_traits<char>, std::__1::allocator<char> >, int, bool)
FUNC 8d700 c0 0 <name omitted>
FUNC 8d7c0 c0 0 G_FindCvar(char const*)
FUNC 8d880 400 0 G_MapConfigs(char const*)
FUNC 8dc80 e1c0 0 G_InitGame(int, int, bool)
FUNC 9c0c0 140 0 G_CheckPmoveParamChanges()
FUNC 9c200 60 0 SortRanks(void const*, void const*)
FUNC 9c260 180 0 G_RemoveFromSpawnQueue(spawnQueue_s*, int)
FUNC 9c3e0 300 0 G_SpawnClients(team_e)
FUNC 9c6e0 3c0 0 CalculateRanks()
FUNC 9caa0 aa0 0 CheckExitRules()
FUNC 9d540 680 0 FindIntermissionPoint()
FUNC 9dbc0 300 0 ExitLevel()
FUNC 9dec0 260 0 G_AdminMessage(gentity_s*, char const*)
FUNC 9e120 180 0 LogExit(char const*)
FUNC 9e2a0 1c0 0 G_Vote(gentity_s*, team_e, bool)
FUNC 9e460 1c0 0 G_ResetVote(team_e)
FUNC 9e620 e0 0 G_ExecuteVote(team_e)
FUNC 9e700 440 0 G_CheckVote(team_e)
FUNC 9eb40 120 0 G_RunThink(gentity_s*)
FUNC 9ec60 180 0 G_PrepareEntityNetCode()
FUNC 9ede0 1c0 0 void Log::Logger::Notice<int&>(Str::BasicStringRef<char>, int&)
FUNC 9efa0 4c0 0 std::__1::basic_string<char, std::__1::char_traits<char>, std::__1::allocator<char> > tinyformat::format<int, int, int>(char const*, int const&, int const&, int const&)
FUNC 9f460 a0 0 void tinyformat::detail::FormatArg::formatImpl<char [12]>(std::__1::basic_ostream<char, std::__1::char_traits<char> >&, char const*, char const*, int, void const*)
FUNC 9f500 a0 0 int tinyformat::detail::FormatArg::toIntImpl<char [12]>(void const*)
FUNC 9f5a0 a0 0 void tinyformat::detail::FormatArg::formatImpl<char [5]>(std::__1::basic_ostream<char, std::__1::char_traits<char> >&, char const*, char const*, int, void const*)
FUNC 9f640 a0 0 int tinyformat::detail::FormatArg::toIntImpl<char [5]>(void const*)
FUNC 9f6e0 100 0 Cvar::Cvar<bool>::~Cvar()
FUNC 9f7e0 2e0 0 Cvar::Cvar<bool>::OnValueChanged(Str::BasicStringRef<char>)
FUNC 9fac0 40 0 Cvar::Cvar<bool>::Validate(bool const&)
FUNC 9fb00 20 0 Cvar::Cvar<bool>::GetAdditionalDescription()
FUNC 9fb20 1a0 0 Cvar::Cvar<bool>::GetDescription()
FUNC 9fcc0 480 0 std::__1::basic_string<char, std::__1::char_traits<char>, std::__1::allocator<char> > tinyformat::format<Str::BasicStringRef<char>, std::__1::basic_string<char, std::__1::char_traits<char>, std::__1::allocator<char> > >(char const*, Str::BasicStringRef<char> const&, std::__1::basic_string<char, std::__1::char_traits<char>, std::__1::allocator<char> > const&)
FUNC a0140 500 0 void tinyformat::detail::FormatArg::formatImpl<std::__1::basic_string<char, std::__1::char_traits<char>, std::__1::allocator<char> > >(std::__1::basic_ostream<char, std::__1::char_traits<char> >&, char const*, char const*, int, void const*)
FUNC a0640 a0 0 int tinyformat::detail::FormatArg::toIntImpl<std::__1::basic_string<char, std::__1::char_traits<char>, std::__1::allocator<char> > >(void const*)
FUNC a06e0 500 0 void tinyformat::detail::FormatArg::formatImpl<Str::BasicStringRef<char> >(std::__1::basic_ostream<char, std::__1::char_traits<char> >&, char const*, char const*, int, void const*)
FUNC a0be0 a0 0 int tinyformat::detail::FormatArg::toIntImpl<Str::BasicStringRef<char> >(void const*)
FUNC a0c80 420 0 std::__1::basic_string<char, std::__1::char_traits<char>, std::__1::allocator<char> > tinyformat::format<std::__1::basic_string<char, std::__1::char_traits<char>, std::__1::allocator<char> >, std::__1::basic_string<char, std::__1::char_traits<char>, std::__1::allocator<char> >, std::__1::basic_string<char, std::__1::char_traits<char>, std::__1::allocator<char> > >(char const*, std::__1::basic_string<char, std::__1::char_traits<char>, std::__1::allocator<char> > const&, std::__1::basic_string<char, std::__1::char_traits<char>, std::__1::allocator<char> > const&, std::__1::basic_string<char, std::__1::char_traits<char>, std::__1::allocator<char> > const&)
FUNC a10a0 80 0 Cvar::CvarProxy::~CvarProxy()
FUNC a1120 c0 0 Cvar::CvarProxy::~CvarProxy()
FUNC a11e0 180 0 <name omitted>
FUNC a1360 20 0 cvarCompare(void const*, void const*)
FUNC a1380 7e0 0 G_LogGameplayStats(int)
FUNC a1b60 960 0 G_PrintCurrentRotation(gentity_s*)
FUNC a24c0 240 0 G_StartMapRotation(char const*, bool, bool, bool, int)
FUNC a2700 d20 0 G_AdvanceMapRotation(int)
FUNC a3420 80 0 G_StopMapRotation()
FUNC a34a0 40 0 G_FreeNode(rotationNode_s*)
FUNC a34e0 540 0 void Log::Logger::Warn<char (&) [64], char*>(Str::BasicStringRef<char>, char (&) [64], char*&&)
FUNC a3a20 1a0 0 void Log::Logger::Warn<char*>(Str::BasicStringRef<char>, char*&&)
FUNC a3bc0 580 0 void Log::Logger::Notice<int&, char const (&) [1], char const*>(Str::BasicStringRef<char>, int&, char const (&) [1], char const*&&)
FUNC a4140 a0 0 void tinyformat::detail::FormatArg::formatImpl<char [1]>(std::__1::basic_ostream<char, std::__1::char_traits<char> >&, char const*, char const*, int, void const*)
FUNC a41e0 a0 0 int tinyformat::detail::FormatArg::toIntImpl<char [1]>(void const*)
FUNC a4280 1a0 0 void Log::Logger::Notice<char (&) [64]>(Str::BasicStringRef<char>, char (&) [64])
FUNC a4420 1a0 0 void Log::Logger::Warn<char const*&, char const*>(Str::BasicStringRef<char>, char const*&, char const*&&)
FUNC a45c0 240 0 G_RotationNode_ToString(rotationNode_s const*)
FUNC a4800 180 0 G_EvaluateMapCondition(condition_s**)
FUNC a4980 2e0 0 G_SetCurrentNodeByIndex(int, int)
FUNC a4c60 640 0 G_ParseNode(rotationNode_s**, char*, char const**, bool)
FUNC a52a0 380 0 G_ExplodeMissile(gentity_s*)
FUNC a5620 1100 0 G_RunMissile(gentity_s*)
FUNC a6720 480 0 G_SpawnMissile(missile_t, gentity_s*, float*, float*, gentity_s*, void (*)(gentity_s*), int)
FUNC a6ba0 460 0 G_SpawnFire(float*, float*, gentity_s*)
FUNC a7000 20 0 std::__1::bad_function_call::~bad_function_call()
FUNC a7020 380 0 std::__1::function<int (gentity_s*, trace_t*, gentity_s*)>::swap(std::__1::function<int (gentity_s*, trace_t*, gentity_s*)>&)
FUNC a73a0 20 0 std::__1::__function::__base<int (gentity_s*, trace_t*, gentity_s*)>::~__base()
FUNC a73c0 20 0 std::__1::__function::__func<int (*)(gentity_s*, trace_t*, gentity_s*), std::__1::allocator<int (*)(gentity_s*, trace_t*, gentity_s*)>, int (gentity_s*, trace_t*, gentity_s*)>::~__func()
FUNC a73e0 80 0 std::__1::__function::__func<int (*)(gentity_s*, trace_t*, gentity_s*), std::__1::allocator<int (*)(gentity_s*, trace_t*, gentity_s*)>, int (gentity_s*, trace_t*, gentity_s*)>::__clone() const
FUNC a7460 40 0 std::__1::__function::__func<int (*)(gentity_s*, trace_t*, gentity_s*), std::__1::allocator<int (*)(gentity_s*, trace_t*, gentity_s*)>, int (gentity_s*, trace_t*, gentity_s*)>::__clone(std::__1::__function::__base<int (gentity_s*, trace_t*, gentity_s*)>*) const
FUNC a74a0 20 0 std::__1::__function::__func<int (*)(gentity_s*, trace_t*, gentity_s*), std::__1::allocator<int (*)(gentity_s*, trace_t*, gentity_s*)>, int (gentity_s*, trace_t*, gentity_s*)>::destroy()
FUNC a74c0 20 0 std::__1::__function::__func<int (*)(gentity_s*, trace_t*, gentity_s*), std::__1::allocator<int (*)(gentity_s*, trace_t*, gentity_s*)>, int (gentity_s*, trace_t*, gentity_s*)>::destroy_deallocate()
FUNC a74e0 40 0 std::__1::__function::__func<int (*)(gentity_s*, trace_t*, gentity_s*), std::__1::allocator<int (*)(gentity_s*, trace_t*, gentity_s*)>, int (gentity_s*, trace_t*, gentity_s*)>::operator()(gentity_s*&&, trace_t*&&, gentity_s*&&)
FUNC a7520 40 0 std::__1::__function::__func<int (*)(gentity_s*, trace_t*, gentity_s*), std::__1::allocator<int (*)(gentity_s*, trace_t*, gentity_s*)>, int (gentity_s*, trace_t*, gentity_s*)>::target(std::type_info const&) const
FUNC a7560 20 0 std::__1::__function::__func<int (*)(gentity_s*, trace_t*, gentity_s*), std::__1::allocator<int (*)(gentity_s*, trace_t*, gentity_s*)>, int (gentity_s*, trace_t*, gentity_s*)>::target_type() const
FUNC a7580 3c0 0 BounceMissile(gentity_s*, trace_t*)
FUNC a7940 60 0 ImpactGrenade(gentity_s*, trace_t*, gentity_s*)
FUNC a79a0 320 0 ImpactFlamer(gentity_s*, trace_t*, gentity_s*)
FUNC a7cc0 c0 0 ImpactFirebombSub(gentity_s*, trace_t*, gentity_s*)
FUNC a7d80 120 0 ImpactLockblock(gentity_s*, trace_t*, gentity_s*)
FUNC a7ea0 180 0 ImpactSlowblob(gentity_s*, trace_t*, gentity_s*)
FUNC a8020 e0 0 ImpactHive(gentity_s*, trace_t*, gentity_s*)
FUNC a8100 20 0 DefaultImpactFunc(gentity_s*, trace_t*, gentity_s*)
FUNC a8120 100 0 NotifyLegacyStageSensors(team_e, float)
FUNC a8220 c0 0 G_AddMomentumEnd()
FUNC a82e0 580 0 std::__1::basic_string<char, std::__1::char_traits<char>, std::__1::allocator<char> > tinyformat::format<char const*, float, float, float, float, float>(char const*, char const* const&, float const&, float const&, float const&, float const&, float const&)
FUNC a8860 520 0 std::__1::basic_string<char, std::__1::char_traits<char>, std::__1::allocator<char> > tinyformat::format<float, char const*, char const*, char const*, char const*>(char const*, float const&, char const* const&, char const* const&, char const* const&, char const* const&)
FUNC a8d80 580 0 AddMomentum(momentum_t, team_e, float, gentity_s*, bool)
FUNC a9300 480 0 MomentumMod(momentum_t)
FUNC a9780 3c0 0 G_namelog_connect(gclient_s*)
FUNC a9b40 820 0 G_Physics(gentity_s*, int)
FUNC aa360 200 0 G_ReadSessionData(gclient_s*)
FUNC aa560 120 0 G_InitSessionData(gclient_s*, char const*)
FUNC aa680 c0 0 G_WriteSessionData()
FUNC aa740 1e0 0 G_WriteClientSessionData(int)
FUNC aa920 e0 0 G_SpawnString(char const*, char const*, char**)
FUNC aaa00 120 0 G_SpawnBoolean(char const*, bool)
FUNC aab20 100 0 G_SpawnFloat(char const*, char const*, float*)
FUNC aac20 120 0 G_SpawnInt(char const*, char const*, int*)
FUNC aad40 e0 0 G_SpawnVector(char const*, char const*, float*)
FUNC aae20 c0 0 G_WarnAboutDeprecatedEntityField(gentity_s*, char const*, char const*, int)
FUNC aaee0 320 0 G_ParseSpawnVars()
FUNC ab200 600 0 void Log::Logger::Warn<int&, char const*&, char const*&>(Str::BasicStringRef<char>, int&, char const*&, char const*&)
FUNC ab800 520 0 void tinyformat::detail::FormatArg::formatImpl<fieldType_t>(std::__1::basic_ostream<char, std::__1::char_traits<char> >&, char const*, char const*, int, void const*)
FUNC abd20 20 0 int tinyformat::detail::FormatArg::toIntImpl<fieldType_t>(void const*)
FUNC abd40 20 0 env_afx_toggle(gentity_s*, gentity_s*, gentity_s*)
FUNC abd60 1c0 0 env_afx_push_touch(gentity_s*, gentity_s*, trace_t*)
FUNC abf20 180 0 SP_env_afx_push(gentity_s*)
FUNC ac0a0 c0 0 env_afx_teleporter_touch(gentity_s*, gentity_s*, trace_t*)
FUNC ac160 20 0 env_afx_teleporter_act(gentity_s*, gentity_s*, gentity_s*)
FUNC ac180 1a0 0 SP_env_afx_teleport(gentity_s*)
FUNC ac320 140 0 env_afx_hurt_touch(gentity_s*, gentity_s*, trace_t*)
FUNC ac460 1a0 0 SP_env_afx_hurt(gentity_s*)
FUNC ac600 80 0 env_afx_gravity_reset(gentity_s*)
FUNC ac680 40 0 env_afx_gravity_touch(gentity_s*, gentity_s*, trace_t*)
FUNC ac6c0 120 0 SP_env_afx_gravity(gentity_s*)
FUNC ac7e0 e0 0 env_afx_heal_touch(gentity_s*, gentity_s*, trace_t*)
FUNC ac8c0 160 0 SP_env_afx_heal(gentity_s*)
FUNC aca20 1c0 0 env_afx_ammo_touch(gentity_s*, gentity_s*, trace_t*)
FUNC acbe0 1a0 0 SP_env_afx_ammo(gentity_s*)
FUNC acd80 220 0 target_relay_act(gentity_s*, gentity_s*, gentity_s*)
FUNC acfa0 40 0 ctrl_relay_reset(gentity_s*)
FUNC acfe0 180 0 ctrl_relay_act(gentity_s*, gentity_s*, gentity_s*)
FUNC ad160 180 0 SP_ctrl_relay(gentity_s*)
FUNC ad2e0 a0 0 ctrl_limited_act(gentity_s*, gentity_s*, gentity_s*)
FUNC ad380 a0 0 ctrl_limited_reset(gentity_s*)
FUNC ad420 40 0 SP_ctrl_limited(gentity_s*)
FUNC ad460 c0 0 target_speaker_act(gentity_s*, gentity_s*, gentity_s*)
FUNC ad520 1c0 0 SP_sfx_speaker(gentity_s*)
FUNC ad6e0 200 0 fx_rumble_think(gentity_s*)
FUNC ad8e0 60 0 fx_rumble_act(gentity_s*, gentity_s*, gentity_s*)
FUNC ad940 e0 0 SP_fx_rumble(gentity_s*)
FUNC ada20 80 0 game_score_act(gentity_s*, gentity_s*, gentity_s*)
FUNC adaa0 a0 0 SP_game_score(gentity_s*)
FUNC adb40 40 0 game_end_act(gentity_s*, gentity_s*, gentity_s*)
FUNC adb80 c0 0 SP_game_end(gentity_s*)
FUNC adc40 40 0 game_funds_act(gentity_s*, gentity_s*, gentity_s*)
FUNC adc80 80 0 game_funds_reset(gentity_s*)
FUNC add00 40 0 SP_game_funds(gentity_s*)
FUNC add40 20 0 game_kill_act(gentity_s*, gentity_s*, gentity_s*)
FUNC add60 20 0 SP_game_kill(gentity_s*)
FUNC add80 2e0 0 target_print_act(gentity_s*, gentity_s*, gentity_s*)
FUNC ae060 20 0 SP_target_print(gentity_s*)
FUNC ae080 80 0 target_push_act(gentity_s*, gentity_s*, gentity_s*)
FUNC ae100 180 0 SP_target_push(gentity_s*)
FUNC ae280 a0 0 target_teleporter_act(gentity_s*, gentity_s*, gentity_s*)
FUNC ae320 60 0 SP_target_teleporter(gentity_s*)
FUNC ae380 a0 0 target_hurt_act(gentity_s*, gentity_s*, gentity_s*)
FUNC ae420 c0 0 SP_target_hurt(gentity_s*)
FUNC ae4e0 40 0 <name omitted>
FUNC ae520 80 0 gfx_particle_system_act(gentity_s*, gentity_s*, gentity_s*)
FUNC ae5a0 1e0 0 SP_gfx_particle_system(gentity_s*)
FUNC ae780 20 0 gfx_light_flare_toggle(gentity_s*, gentity_s*, gentity_s*)
FUNC ae7a0 880 0 SP_gfx_light_flare(gentity_s*)
FUNC af020 240 0 gfx_portal_locateCamera(gentity_s*)
FUNC af260 100 0 SP_gfx_portal_surface(gentity_s*)
FUNC af360 a0 0 SP_gfx_portal_camera(gentity_s*)
FUNC af400 a0 0 gfx_animated_model_act(gentity_s*, gentity_s*, gentity_s*)
FUNC af4a0 120 0 SP_gfx_animated_model(gentity_s*)
FUNC af5c0 100 0 gfx_shader_mod_act(gentity_s*, gentity_s*, gentity_s*)
FUNC af6c0 100 0 gfx_shader_mod_reset(gentity_s*)
FUNC af7c0 40 0 SP_gfx_shader_mod(gentity_s*)
FUNC af800 820 0 G_TryPushingEntity(gentity_s*, gentity_s*, float*, float*)
FUNC b0020 c60 0 G_MoverGroup(gentity_s*)
FUNC b0c80 820 0 <name omitted>
FUNC b14a0 a0 0 ReturnToPos1orApos1(gentity_s*)
FUNC b1540 1000 0 BinaryMover_act(gentity_s*, gentity_s*, gentity_s*)
FUNC b2540 c0 0 Think_ClosedModelDoor(gentity_s*)
FUNC b2600 2e0 0 Think_CloseModelDoor(gentity_s*)
FUNC b28e0 100 0 Think_OpenModelDoor(gentity_s*)
FUNC b29e0 3c0 0 BinaryMover_reached(gentity_s*)
FUNC b2da0 1e0 0 reset_moverspeed(gentity_s*, float)
FUNC b2f80 2c0 0 InitMover(gentity_s*)
FUNC b3240 120 0 func_door_block(gentity_s*, gentity_s*)
FUNC b3360 c0 0 door_trigger_touch(gentity_s*, gentity_s*, trace_t*)
FUNC b3420 a0 0 <name omitted>
FUNC b34c0 380 0 Think_SpawnNewDoorTrigger(gentity_s*)
FUNC b3840 e0 0 func_door_reset(gentity_s*)
FUNC b3920 a0 0 func_door_use(gentity_s*, gentity_s*, gentity_s*)
FUNC b39c0 500 0 SP_func_door(gentity_s*)
FUNC b3ec0 1e0 0 func_door_rotating_reset(gentity_s*)
FUNC b40a0 b20 0 SP_func_door_rotating(gentity_s*)
FUNC b4bc0 120 0 func_door_model_reset(gentity_s*)
FUNC b4ce0 740 0 SP_func_door_model(gentity_s*)
FUNC b5420 a0 0 Touch_Plat(gentity_s*, gentity_s*, trace_t*)
FUNC b54c0 60 0 Touch_PlatCenterTrigger(gentity_s*, gentity_s*, trace_t*)
FUNC b5520 5c0 0 SP_func_plat(gentity_s*)
FUNC b5ae0 40 0 Touch_Button(gentity_s*, gentity_s*, trace_t*)
FUNC b5b20 20 0 func_button_use(gentity_s*, gentity_s*, gentity_s*)
FUNC b5b40 80 0 func_button_reset(gentity_s*)
FUNC b5bc0 300 0 SP_func_button(gentity_s*)
FUNC b5ec0 40 0 Think_BeginMoving(gentity_s*)
FUNC b5f00 540 0 func_train_reached(gentity_s*)
FUNC b6440 2e0 0 func_train_act(gentity_s*, gentity_s*, gentity_s*)
FUNC b6720 340 0 Think_SetupTrainTargets(gentity_s*)
FUNC b6a60 2c0 0 func_train_blocked(gentity_s*, gentity_s*)
FUNC b6d20 1a0 0 SP_func_train(gentity_s*)
FUNC b6ec0 300 0 SP_func_static(gentity_s*)
FUNC b71c0 a0 0 SP_func_dynamic(gentity_s*)
FUNC b7260 260 0 SP_func_rotating(gentity_s*)
FUNC b74c0 20 0 func_bobbing_reset(gentity_s*)
FUNC b74e0 220 0 SP_func_bobbing(gentity_s*)
FUNC b7700 2a0 0 SP_func_pendulum(gentity_s*)
FUNC b79a0 80 0 func_spawn_act(gentity_s*, gentity_s*, gentity_s*)
FUNC b7a20 20 0 func_spawn_reset(gentity_s*)
FUNC b7a40 160 0 SP_func_spawn(gentity_s*)
FUNC b7ba0 80 0 <name omitted>
FUNC b7c20 c0 0 <name omitted>
FUNC b7ce0 180 0 func_destructable_act(gentity_s*, gentity_s*, gentity_s*)
FUNC b7e60 220 0 SP_func_destructable(gentity_s*)
FUNC b8080 120 0 SP_ConstantLightField(gentity_s*)
FUNC b81a0 c0 0 SP_pos_player_spawn(gentity_s*)
FUNC b8260 e0 0 SP_pos_target(gentity_s*)
FUNC b8340 220 0 SP_pos_location(gentity_s*)
FUNC b8560 20 0 sensor_act(gentity_s*, gentity_s*, gentity_s*)
FUNC b8580 40 0 sensor_reset(gentity_s*)
FUNC b85c0 200 0 trigger_compat_propagation_act(gentity_s*, gentity_s*, gentity_s*)
FUNC b87c0 20 0 sensor_checkWaitForReactivation_think(gentity_s*)
FUNC b87e0 200 0 trigger_multiple_act(gentity_s*, gentity_s*, gentity_s*)
FUNC b89e0 20 0 trigger_multiple_touch(gentity_s*, gentity_s*, trace_t*)
FUNC b8a00 c0 0 trigger_multiple_compat_reset(gentity_s*)
FUNC b8ac0 20 0 SP_sensor_start(gentity_s*)
FUNC b8ae0 120 0 <name omitted>
FUNC b8c00 140 0 sensor_timer_act(gentity_s*, gentity_s*, gentity_s*)
FUNC b8d40 e0 0 SP_sensor_timer(gentity_s*)
FUNC b8e20 2e0 0 G_notify_sensor_stage(team_e, int, int)
FUNC b9100 60 0 SP_sensor_stage(gentity_s*)
FUNC b9160 260 0 G_notify_sensor_end(team_e)
FUNC b93c0 60 0 SP_sensor_end(gentity_s*)
FUNC b9420 240 0 sensor_buildable_touch(gentity_s*, gentity_s*, trace_t*)
FUNC b9660 120 0 SP_sensor_buildable(gentity_s*)
FUNC b9780 3a0 0 sensor_player_touch(gentity_s*, gentity_s*, trace_t*)
FUNC b9b20 180 0 SP_sensor_player(gentity_s*)
FUNC b9ca0 1a0 0 sensor_support_think(gentity_s*)
FUNC b9e40 40 0 sensor_support_reset(gentity_s*)
FUNC b9e80 40 0 SP_sensor_support(gentity_s*)
FUNC b9ec0 a0 0 sensor_power_think(gentity_s*)
FUNC b9f60 40 0 SP_sensor_power(gentity_s*)
FUNC b9fa0 a0 0 sensor_creep_think(gentity_s*)
FUNC ba040 40 0 SP_sensor_creep(gentity_s*)
FUNC ba080 460 0 std::__1::basic_string<char, std::__1::char_traits<char>, std::__1::allocator<char> > tinyformat::format<team_e>(char const*, team_e const&)
FUNC ba4e0 520 0 void tinyformat::detail::FormatArg::formatImpl<team_e>(std::__1::basic_ostream<char, std::__1::char_traits<char> >&, char const*, char const*, int, void const*)
FUNC baa00 20 0 int tinyformat::detail::FormatArg::toIntImpl<team_e>(void const*)
FUNC baa20 4c0 0 std::__1::basic_string<char, std::__1::char_traits<char>, std::__1::allocator<char> > tinyformat::format<team_e, int, int>(char const*, team_e const&, int const&, int const&)
FUNC baee0 1c0 0 void Log::Logger::Debug<>(Str::BasicStringRef<char>)
FUNC bb0a0 20 0 think_fireDelayed(gentity_s*)
FUNC bb0c0 20 0 think_fireOnActDelayed(gentity_s*)
FUNC bb0e0 220 0 think_aimAtTarget(gentity_s*)
FUNC bb300 3e0 0 G_ResetTimeField(variatingTime_s*, variatingTime_s, variatingTime_s, variatingTime_s)
FUNC bb6e0 20 0 SP_Nothing(gentity_s*)
FUNC bb700 20 0 SP_RemoveSelf(gentity_s*)
FUNC bb720 100 0 SP_ConditionFields(gentity_s*)
FUNC bb820 e0 0 SP_WaitFields(gentity_s*, float, float)
FUNC bb900 480 0 Svcmd_EntityFire_f()
FUNC bbd80 1b80 0 Svcmd_EntityShow_f()
FUNC bd900 2c0 0 Svcmd_EntityList_f()
FUNC bdbc0 1a0 0 void Log::Logger::Notice<char*&>(Str::BasicStringRef<char>, char*&)
FUNC bdd60 1a0 0 void Log::Logger::Notice<char const*>(Str::BasicStringRef<char>, char const*&&)
FUNC bdf00 1a0 0 void Log::Logger::Notice<char const*&>(Str::BasicStringRef<char>, char const*&)
FUNC be0a0 1a0 0 void Log::Logger::Notice<char*>(Str::BasicStringRef<char>, char*&&)
FUNC be240 a0 0 void tinyformat::detail::FormatArg::formatImpl<char [2]>(std::__1::basic_ostream<char, std::__1::char_traits<char> >&, char const*, char const*, int, void const*)
FUNC be2e0 a0 0 int tinyformat::detail::FormatArg::toIntImpl<char [2]>(void const*)
FUNC be380 a0 0 void tinyformat::detail::FormatArg::formatImpl<char [8192]>(std::__1::basic_ostream<char, std::__1::char_traits<char> >&, char const*, char const*, int, void const*)
FUNC be420 a0 0 int tinyformat::detail::FormatArg::toIntImpl<char [8192]>(void const*)
FUNC be4c0 5e0 0 void Log::Logger::Notice<int&, char const*, char const*&, char const*, char const*>(Str::BasicStringRef<char>, int&, char const*&&, char const*&, char const*&&, char const*&&)
FUNC beaa0 720 0 Svcmd_TeamMessage_f()
FUNC bf1c0 460 0 Svcmd_PrintQueue_f()
FUNC bf620 200 0 Svcmd_Pr_f()
FUNC bf820 140 0 Svcmd_MapRotation_f()
FUNC bf960 20 0 Svcmd_MapLogWrapper()
FUNC bf980 6e0 0 Svcmd_LayoutSave_f()
FUNC c0060 160 0 Svcmd_LayoutLoad_f()
FUNC c01c0 200 0 Svcmd_ForceTeam_f()
FUNC c03c0 c0 0 Svcmd_Evacuation_f()
FUNC c0480 2c0 0 Svcmd_EjectClient_f()
FUNC c0740 a00 0 Svcmd_DumpUser_f()
FUNC c1140 120 0 Svcmd_CenterPrint_f()
FUNC c1260 a0 0 Svcmd_TeamWin_f()
FUNC c1300 20 0 Svcmd_G_AdvanceMapRotation_f()
FUNC c1320 1c0 0 Svcmd_AdmitDefeat_f()
FUNC c14e0 1a0 0 Svcmd_MessageWrapper()
FUNC c1680 e0 0 G_TeamCommand(team_e, char const*)
FUNC c1760 240 0 G_UpdateTeamConfigStrings()
FUNC c19a0 440 0 G_LeaveTeam(gentity_s*)
FUNC c1de0 3a0 0 G_ChangeTeam(gentity_s*, team_e)
FUNC c2180 500 0 TeamplayInfoMessage(gentity_s*)
FUNC c2680 180 0 G_SetShaderRemap(char const*, char const*, float)
FUNC c2800 120 0 BuildShaderStateConfig()
FUNC c2920 3c0 0 G_TeleportPlayer(gentity_s*, float*, float*, float)
FUNC c2ce0 1e0 0 G_KillBox(gentity_s*)
FUNC c2ec0 220 0 G_KillBrushModel(gentity_s*, gentity_s*)
FUNC c30e0 120 0 G_AddEvent(gentity_s*, int, int)
FUNC c3200 120 0 G_BroadcastEvent(int, int, team_e)
FUNC c3320 a0 0 G_TeamToClientmask(team_e, int*, int*)
FUNC c33c0 5c0 0 G_AddressParse(char const*, addr_t*)
FUNC c3980 e0 0 G_AddressCompare(addr_t const*, addr_t const*)
FUNC c3a60 c0 0 <name omitted>
FUNC c3b20 c0 0 G_LineOfSight(gentity_s const*, gentity_s const*)
FUNC c3be0 c0 0 G_LineOfFire(gentity_s const*, gentity_s const*)
FUNC c3ca0 f20 0 G_FindConfigstringIndex(char const*, int, int, bool)
FUNC c4bc0 c0 0 G_ForceWeaponChange(gentity_s*, weapon_t)
FUNC c4c80 80 0 G_GiveMaxAmmo(gentity_s*)
FUNC c4d00 180 0 G_RefillAmmo(gentity_s*, bool)
FUNC c4e80 2c0 0 G_FindAmmo(gentity_s*)
FUNC c5140 260 0 G_FindFuel(gentity_s*)
FUNC c53a0 120 0 <name omitted>
FUNC c54c0 2e0 0 G_CheckCkitRepair(gentity_s*)
FUNC c57a0 420 0 G_CheckVenomAttack(gentity_s*)
FUNC c5bc0 1e0 0 G_CalcMuzzlePoint(gentity_s*, float*, float*, float*, float*)
FUNC c5da0 120 0 G_ClearPlayerZapEffects(gentity_s*)
FUNC c5ec0 400 0 G_CheckPounceAttack(gentity_s*)
FUNC c62c0 420 0 G_ChargeAttack(gentity_s*, gentity_s*)
FUNC c66e0 300 0 G_ImpactAttack(gentity_s*, gentity_s*)
FUNC c69e0 260 0 G_WeightAttack(gentity_s*, gentity_s*)
FUNC c6c40 2280 0 G_FireWeapon(gentity_s*, weapon_t, weaponMode_t)
FUNC c8ec0 340 0 G_FireUpgrade(gentity_s*, upgrade_t)
FUNC c9200 460 0 FirebombMissileThink(gentity_s*)
FUNC c9660 420 0 G_WideTrace(trace_t*, gentity_s*, float, float, float, gentity_s**)
FUNC c9a80 300 0 SendMeleeHitEvent(gentity_s*, gentity_s*, trace_t*)
FUNC c9d80 1a0 0 FireMelee(gentity_s*, float, float, float, int, meansOfDeath_t)
FUNC c9f20 4c0 0 FireBullet(gentity_s*, float, float, int)
FUNC ca3e0 200 0 SendRangedHitEvent(gentity_s*, gentity_s*, trace_t*)
FUNC ca5e0 240 0 FireLcannonHelper(gentity_s*, float*, float*, int, int, int)
FUNC ca820 540 0 HiveMissileThink(gentity_s*)
FUNC cad60 460 0 RocketThink(gentity_s*)
FUNC cb1c0 6e0 0 FireBuild(gentity_s*, dynMenu_t)
FUNC cb8a0 80 0 <name omitted>
FUNC cb920 2c0 0 AcidTubeComponent::AcidTubeComponent(Entity&, AlienBuildableComponent&)
FUNC cbbe0 20 0 std::__1::__function::__base<void (int)>::~__base()
FUNC cbc00 100 0 unsigned int std::__1::__tree<AcidTubeComponent*, std::__1::less<AcidTubeComponent*>, std::__1::allocator<AcidTubeComponent*> >::__erase_unique<AcidTubeComponent*>(AcidTubeComponent* const&)
FUNC cbd00 20 0 std::__1::__function::__func<AcidTubeComponent::AcidTubeComponent(Entity&, AlienBuildableComponent&)::$_0, std::__1::allocator<AcidTubeComponent::AcidTubeComponent(Entity&, AlienBuildableComponent&)::$_0>, void (int)>::target_type() const
FUNC cbd20 40 0 std::__1::__function::__func<AcidTubeComponent::AcidTubeComponent(Entity&, AlienBuildableComponent&)::$_0, std::__1::allocator<AcidTubeComponent::AcidTubeComponent(Entity&, AlienBuildableComponent&)::$_0>, void (int)>::target(std::type_info const&) const
FUNC cbd60 1a0 0 std::__1::__function::__func<AcidTubeComponent::AcidTubeComponent(Entity&, AlienBuildableComponent&)::$_0, std::__1::allocator<AcidTubeComponent::AcidTubeComponent(Entity&, AlienBuildableComponent&)::$_0>, void (int)>::operator()(int&&)
FUNC cbf00 20 0 std::__1::__function::__func<AcidTubeComponent::AcidTubeComponent(Entity&, AlienBuildableComponent&)::$_0, std::__1::allocator<AcidTubeComponent::AcidTubeComponent(Entity&, AlienBuildableComponent&)::$_0>, void (int)>::destroy_deallocate()
FUNC cbf20 20 0 std::__1::__function::__func<AcidTubeComponent::AcidTubeComponent(Entity&, AlienBuildableComponent&)::$_0, std::__1::allocator<AcidTubeComponent::AcidTubeComponent(Entity&, AlienBuildableComponent&)::$_0>, void (int)>::destroy()
FUNC cbf40 40 0 std::__1::__function::__func<AcidTubeComponent::AcidTubeComponent(Entity&, AlienBuildableComponent&)::$_0, std::__1::allocator<AcidTubeComponent::AcidTubeComponent(Entity&, AlienBuildableComponent&)::$_0>, void (int)>::__clone(std::__1::__function::__base<void (int)>*) const
FUNC cbf80 80 0 std::__1::__function::__func<AcidTubeComponent::AcidTubeComponent(Entity&, AlienBuildableComponent&)::$_0, std::__1::allocator<AcidTubeComponent::AcidTubeComponent(Entity&, AlienBuildableComponent&)::$_0>, void (int)>::__clone() const
FUNC cc000 20 0 std::__1::__function::__func<AcidTubeComponent::AcidTubeComponent(Entity&, AlienBuildableComponent&)::$_0, std::__1::allocator<AcidTubeComponent::AcidTubeComponent(Entity&, AlienBuildableComponent&)::$_0>, void (int)>::~__func()
FUNC cc020 2c0 0 AlienBuildableComponent::AlienBuildableComponent(Entity&, BuildableComponent&, TeamComponent&, IgnitableComponent&)
FUNC cc2e0 a0 0 AlienBuildableComponent::HandleDamage(float, gentity_s*, Util::optional<Math::Vector<3u, float> >, Util::optional<Math::Vector<3u, float> >, int, meansOfDeath_t)
FUNC cc380 400 0 AlienBuildableComponent::HandleDie(gentity_s*, meansOfDeath_t)
FUNC cc780 80 0 <name omitted>
FUNC cc800 20 0 std::__1::__function::__func<AlienBuildableComponent::CreepRecede(int)::$_4, std::__1::allocator<AlienBuildableComponent::CreepRecede(int)::$_4>, void (int)>::target_type() const
FUNC cc820 40 0 std::__1::__function::__func<AlienBuildableComponent::CreepRecede(int)::$_4, std::__1::allocator<AlienBuildableComponent::CreepRecede(int)::$_4>, void (int)>::target(std::type_info const&) const
FUNC cc860 a0 0 std::__1::__function::__func<AlienBuildableComponent::CreepRecede(int)::$_4, std::__1::allocator<AlienBuildableComponent::CreepRecede(int)::$_4>, void (int)>::operator()(int&&)
FUNC cc900 20 0 std::__1::__function::__func<AlienBuildableComponent::CreepRecede(int)::$_4, std::__1::allocator<AlienBuildableComponent::CreepRecede(int)::$_4>, void (int)>::destroy_deallocate()
FUNC cc920 20 0 std::__1::__function::__func<AlienBuildableComponent::CreepRecede(int)::$_4, std::__1::allocator<AlienBuildableComponent::CreepRecede(int)::$_4>, void (int)>::destroy()
FUNC cc940 40 0 std::__1::__function::__func<AlienBuildableComponent::CreepRecede(int)::$_4, std::__1::allocator<AlienBuildableComponent::CreepRecede(int)::$_4>, void (int)>::__clone(std::__1::__function::__base<void (int)>*) const
FUNC cc980 80 0 std::__1::__function::__func<AlienBuildableComponent::CreepRecede(int)::$_4, std::__1::allocator<AlienBuildableComponent::CreepRecede(int)::$_4>, void (int)>::__clone() const
FUNC cca00 20 0 std::__1::__function::__func<AlienBuildableComponent::CreepRecede(int)::$_4, std::__1::allocator<AlienBuildableComponent::CreepRecede(int)::$_4>, void (int)>::~__func()
FUNC cca20 20 0 std::__1::__function::__func<AlienBuildableComponent::Blast(int)::$_3, std::__1::allocator<AlienBuildableComponent::Blast(int)::$_3>, void (int)>::target_type() const
FUNC cca40 40 0 std::__1::__function::__func<AlienBuildableComponent::Blast(int)::$_3, std::__1::allocator<AlienBuildableComponent::Blast(int)::$_3>, void (int)>::target(std::type_info const&) const
FUNC cca80 280 0 std::__1::__function::__func<AlienBuildableComponent::Blast(int)::$_3, std::__1::allocator<AlienBuildableComponent::Blast(int)::$_3>, void (int)>::operator()(int&&)
FUNC ccd00 20 0 std::__1::__function::__func<AlienBuildableComponent::Blast(int)::$_3, std::__1::allocator<AlienBuildableComponent::Blast(int)::$_3>, void (int)>::destroy_deallocate()
FUNC ccd20 20 0 std::__1::__function::__func<AlienBuildableComponent::Blast(int)::$_3, std::__1::allocator<AlienBuildableComponent::Blast(int)::$_3>, void (int)>::destroy()
FUNC ccd40 40 0 std::__1::__function::__func<AlienBuildableComponent::Blast(int)::$_3, std::__1::allocator<AlienBuildableComponent::Blast(int)::$_3>, void (int)>::__clone(std::__1::__function::__base<void (int)>*) const
FUNC ccd80 80 0 std::__1::__function::__func<AlienBuildableComponent::Blast(int)::$_3, std::__1::allocator<AlienBuildableComponent::Blast(int)::$_3>, void (int)>::__clone() const
FUNC cce00 20 0 std::__1::__function::__func<AlienBuildableComponent::Blast(int)::$_3, std::__1::allocator<AlienBuildableComponent::Blast(int)::$_3>, void (int)>::~__func()
FUNC cce20 20 0 std::__1::__function::__func<AlienBuildableComponent::HandleDie(gentity_s*, meansOfDeath_t)::$_2, std::__1::allocator<AlienBuildableComponent::HandleDie(gentity_s*, meansOfDeath_t)::$_2>, void (int)>::target_type() const
FUNC cce40 40 0 std::__1::__function::__func<AlienBuildableComponent::HandleDie(gentity_s*, meansOfDeath_t)::$_2, std::__1::allocator<AlienBuildableComponent::HandleDie(gentity_s*, meansOfDeath_t)::$_2>, void (int)>::target(std::type_info const&) const
FUNC cce80 260 0 std::__1::__function::__func<AlienBuildableComponent::HandleDie(gentity_s*, meansOfDeath_t)::$_2, std::__1::allocator<AlienBuildableComponent::HandleDie(gentity_s*, meansOfDeath_t)::$_2>, void (int)>::operator()(int&&)
FUNC cd0e0 20 0 std::__1::__function::__func<AlienBuildableComponent::HandleDie(gentity_s*, meansOfDeath_t)::$_2, std::__1::allocator<AlienBuildableComponent::HandleDie(gentity_s*, meansOfDeath_t)::$_2>, void (int)>::destroy_deallocate()
FUNC cd100 20 0 std::__1::__function::__func<AlienBuildableComponent::HandleDie(gentity_s*, meansOfDeath_t)::$_2, std::__1::allocator<AlienBuildableComponent::HandleDie(gentity_s*, meansOfDeath_t)::$_2>, void (int)>::destroy()
FUNC cd120 40 0 std::__1::__function::__func<AlienBuildableComponent::HandleDie(gentity_s*, meansOfDeath_t)::$_2, std::__1::allocator<AlienBuildableComponent::HandleDie(gentity_s*, meansOfDeath_t)::$_2>, void (int)>::__clone(std::__1::__function::__base<void (int)>*) const
FUNC cd160 80 0 std::__1::__function::__func<AlienBuildableComponent::HandleDie(gentity_s*, meansOfDeath_t)::$_2, std::__1::allocator<AlienBuildableComponent::HandleDie(gentity_s*, meansOfDeath_t)::$_2>, void (int)>::__clone() const
FUNC cd1e0 20 0 std::__1::__function::__func<AlienBuildableComponent::HandleDie(gentity_s*, meansOfDeath_t)::$_2, std::__1::allocator<AlienBuildableComponent::HandleDie(gentity_s*, meansOfDeath_t)::$_2>, void (int)>::~__func()
FUNC cd200 20 0 std::__1::__function::__func<AlienBuildableComponent::AlienBuildableComponent(Entity&, BuildableComponent&, TeamComponent&, IgnitableComponent&)::$_0, std::__1::allocator<AlienBuildableComponent::AlienBuildableComponent(Entity&, BuildableComponent&, TeamComponent&, IgnitableComponent&)::$_0>, void (int)>::target_type() const
FUNC cd220 40 0 std::__1::__function::__func<AlienBuildableComponent::AlienBuildableComponent(Entity&, BuildableComponent&, TeamComponent&, IgnitableComponent&)::$_0, std::__1::allocator<AlienBuildableComponent::AlienBuildableComponent(Entity&, BuildableComponent&, TeamComponent&, IgnitableComponent&)::$_0>, void (int)>::target(std::type_info const&) const
FUNC cd260 220 0 std::__1::__function::__func<AlienBuildableComponent::AlienBuildableComponent(Entity&, BuildableComponent&, TeamComponent&, IgnitableComponent&)::$_0, std::__1::allocator<AlienBuildableComponent::AlienBuildableComponent(Entity&, BuildableComponent&, TeamComponent&, IgnitableComponent&)::$_0>, void (int)>::operator()(int&&)
FUNC cd480 20 0 std::__1::__function::__func<AlienBuildableComponent::AlienBuildableComponent(Entity&, BuildableComponent&, TeamComponent&, IgnitableComponent&)::$_0, std::__1::allocator<AlienBuildableComponent::AlienBuildableComponent(Entity&, BuildableComponent&, TeamComponent&, IgnitableComponent&)::$_0>, void (int)>::destroy_deallocate()
FUNC cd4a0 20 0 std::__1::__function::__func<AlienBuildableComponent::AlienBuildableComponent(Entity&, BuildableComponent&, TeamComponent&, IgnitableComponent&)::$_0, std::__1::allocator<AlienBuildableComponent::AlienBuildableComponent(Entity&, BuildableComponent&, TeamComponent&, IgnitableComponent&)::$_0>, void (int)>::destroy()
FUNC cd4c0 40 0 std::__1::__function::__func<AlienBuildableComponent::AlienBuildableComponent(Entity&, BuildableComponent&, TeamComponent&, IgnitableComponent&)::$_0, std::__1::allocator<AlienBuildableComponent::AlienBuildableComponent(Entity&, BuildableComponent&, TeamComponent&, IgnitableComponent&)::$_0>, void (int)>::__clone(std::__1::__function::__base<void (int)>*) const
FUNC cd500 80 0 std::__1::__function::__func<AlienBuildableComponent::AlienBuildableComponent(Entity&, BuildableComponent&, TeamComponent&, IgnitableComponent&)::$_0, std::__1::allocator<AlienBuildableComponent::AlienBuildableComponent(Entity&, BuildableComponent&, TeamComponent&, IgnitableComponent&)::$_0>, void (int)>::__clone() const
FUNC cd580 20 0 std::__1::__function::__func<AlienBuildableComponent::AlienBuildableComponent(Entity&, BuildableComponent&, TeamComponent&, IgnitableComponent&)::$_0, std::__1::allocator<AlienBuildableComponent::AlienBuildableComponent(Entity&, BuildableComponent&, TeamComponent&, IgnitableComponent&)::$_0>, void (int)>::~__func()
FUNC cd5a0 1c0 0 AlienClassComponentBase::AlienClassComponentBase(Entity&, ClientComponent&, TeamComponent&, ArmorComponent&, KnockbackComponent&, HealthComponent&)
FUNC cd760 1a0 0 ArmorComponentBase::ArmorComponentBase(Entity&)
FUNC cd900 1c0 0 void Log::Logger::Debug<float&, float&>(Str::BasicStringRef<char>, float&, float&)
FUNC cdac0 d40 0 ArmorComponent::HandleApplyDamageModifier(float&, Util::optional<Math::Vector<3u, float> >, Util::optional<Math::Vector<3u, float> >, int, meansOfDeath_t)
FUNC ce800 80 0 Util::bad_optional_access::~bad_optional_access()
FUNC ce880 a0 0 void tinyformat::detail::FormatArg::formatImpl<char [32]>(std::__1::basic_ostream<char, std::__1::char_traits<char> >&, char const*, char const*, int, void const*)
FUNC ce920 a0 0 int tinyformat::detail::FormatArg::toIntImpl<char [32]>(void const*)
FUNC ce9c0 80 0 <name omitted>
FUNC cea40 1a0 0 ArmouryComponentBase::ArmouryComponentBase(Entity&, HumanBuildableComponent&)
FUNC cebe0 1a0 0 BarricadeComponentBase::BarricadeComponentBase(Entity&, AlienBuildableComponent&)
FUNC ced80 1a0 0 BoosterComponentBase::BoosterComponentBase(Entity&, AlienBuildableComponent&)
FUNC cef20 300 0 BuildableComponent::BuildableComponent(Entity&, HealthComponent&, ThinkingComponent&, TeamComponent&)
FUNC cf220 160 0 BuildableComponent::HandlePrepareNetCode()
FUNC cf380 8e0 0 BuildableComponent::HandleDie(gentity_s*, meansOfDeath_t)
FUNC cfc60 1a0 0 BuildableComponent::SetPowerState(bool)
FUNC cfe00 20 0 std::__1::__function::__func<BuildableComponent::BuildableComponent(Entity&, HealthComponent&, ThinkingComponent&, TeamComponent&)::$_0, std::__1::allocator<BuildableComponent::BuildableComponent(Entity&, HealthComponent&, ThinkingComponent&, TeamComponent&)::$_0>, void (int)>::target_type() const
FUNC cfe20 40 0 std::__1::__function::__func<BuildableComponent::BuildableComponent(Entity&, HealthComponent&, ThinkingComponent&, TeamComponent&)::$_0, std::__1::allocator<BuildableComponent::BuildableComponent(Entity&, HealthComponent&, ThinkingComponent&, TeamComponent&)::$_0>, void (int)>::target(std::type_info const&) const
FUNC cfe60 7e0 0 std::__1::__function::__func<BuildableComponent::BuildableComponent(Entity&, HealthComponent&, ThinkingComponent&, TeamComponent&)::$_0, std::__1::allocator<BuildableComponent::BuildableComponent(Entity&, HealthComponent&, ThinkingComponent&, TeamComponent&)::$_0>, void (int)>::operator()(int&&)
FUNC d0640 20 0 std::__1::__function::__func<BuildableComponent::BuildableComponent(Entity&, HealthComponent&, ThinkingComponent&, TeamComponent&)::$_0, std::__1::allocator<BuildableComponent::BuildableComponent(Entity&, HealthComponent&, ThinkingComponent&, TeamComponent&)::$_0>, void (int)>::destroy_deallocate()
FUNC d0660 20 0 std::__1::__function::__func<BuildableComponent::BuildableComponent(Entity&, HealthComponent&, ThinkingComponent&, TeamComponent&)::$_0, std::__1::allocator<BuildableComponent::BuildableComponent(Entity&, HealthComponent&, ThinkingComponent&, TeamComponent&)::$_0>, void (int)>::destroy()
FUNC d0680 40 0 std::__1::__function::__func<BuildableComponent::BuildableComponent(Entity&, HealthComponent&, ThinkingComponent&, TeamComponent&)::$_0, std::__1::allocator<BuildableComponent::BuildableComponent(Entity&, HealthComponent&, ThinkingComponent&, TeamComponent&)::$_0>, void (int)>::__clone(std::__1::__function::__base<void (int)>*) const
FUNC d06c0 80 0 std::__1::__function::__func<BuildableComponent::BuildableComponent(Entity&, HealthComponent&, ThinkingComponent&, TeamComponent&)::$_0, std::__1::allocator<BuildableComponent::BuildableComponent(Entity&, HealthComponent&, ThinkingComponent&, TeamComponent&)::$_0>, void (int)>::__clone() const
FUNC d0740 20 0 std::__1::__function::__func<BuildableComponent::BuildableComponent(Entity&, HealthComponent&, ThinkingComponent&, TeamComponent&)::$_0, std::__1::allocator<BuildableComponent::BuildableComponent(Entity&, HealthComponent&, ThinkingComponent&, TeamComponent&)::$_0>, void (int)>::~__func()
FUNC d0760 1a0 0 ClientComponentBase::ClientComponentBase(Entity&, gclient_s*, TeamComponent&)
FUNC d0900 1a0 0 DeferredFreeingComponentBase::DeferredFreeingComponentBase(Entity&)
FUNC d0aa0 1a0 0 DrillComponentBase::DrillComponentBase(Entity&, HumanBuildableComponent&, MiningComponent&)
FUNC d0c40 1a0 0 EggComponentBase::EggComponentBase(Entity&, AlienBuildableComponent&, SpawnerComponent&)
FUNC d0de0 4e0 0 EggComponent::CheckSpawnPoint(int, Math::Vector<3u, float>, Math::Vector<3u, float>, Entity*&, Math::Vector<3u, float>&)
FUNC d12c0 1a0 0 HealthComponentBase::HealthComponentBase(Entity&, float)
FUNC d1460 100 0 HealthComponent::HandlePrepareNetCode()
FUNC d1560 260 0 HealthComponent::HandleHeal(float, gentity_s*)
FUNC d17c0 680 0 HealthComponent::ScaleDamageAccounts(float)
FUNC d1e40 f00 0 HealthComponent::HandleDamage(float, gentity_s*, Util::optional<Math::Vector<3u, float> >, Util::optional<Math::Vector<3u, float> >, int, meansOfDeath_t)
FUNC d2d40 1a0 0 void Log::Logger::Notice<float&, float&, float>(Str::BasicStringRef<char>, float&, float&, float&&)
FUNC d2ee0 1c0 0 void Log::Logger::Notice<float&>(Str::BasicStringRef<char>, float&)
FUNC d30a0 460 0 std::__1::basic_string<char, std::__1::char_traits<char>, std::__1::allocator<char> > tinyformat::format<unsigned int>(char const*, unsigned int const&)
FUNC d3500 520 0 void tinyformat::detail::FormatArg::formatImpl<unsigned int>(std::__1::basic_ostream<char, std::__1::char_traits<char> >&, char const*, char const*, int, void const*)
FUNC d3a20 20 0 int tinyformat::detail::FormatArg::toIntImpl<unsigned int>(void const*)
FUNC d3a40 480 0 std::__1::basic_string<char, std::__1::char_traits<char>, std::__1::allocator<char> > tinyformat::format<unsigned int, float>(char const*, unsigned int const&, float const&)
FUNC d3ec0 80 0 <name omitted>
FUNC d3f40 2c0 0 HiveComponent::HiveComponent(Entity&, AlienBuildableComponent&)
FUNC d4200 100 0 unsigned int std::__1::__tree<HiveComponent*, std::__1::less<HiveComponent*>, std::__1::allocator<HiveComponent*> >::__erase_unique<HiveComponent*>(HiveComponent* const&)
FUNC d4300 20 0 std::__1::__function::__func<HiveComponent::HiveComponent(Entity&, AlienBuildableComponent&)::$_0, std::__1::allocator<HiveComponent::HiveComponent(Entity&, AlienBuildableComponent&)::$_0>, void (int)>::target_type() const
FUNC d4320 40 0 std::__1::__function::__func<HiveComponent::HiveComponent(Entity&, AlienBuildableComponent&)::$_0, std::__1::allocator<HiveComponent::HiveComponent(Entity&, AlienBuildableComponent&)::$_0>, void (int)>::target(std::type_info const&) const
FUNC d4360 660 0 std::__1::__function::__func<HiveComponent::HiveComponent(Entity&, AlienBuildableComponent&)::$_0, std::__1::allocator<HiveComponent::HiveComponent(Entity&, AlienBuildableComponent&)::$_0>, void (int)>::operator()(int&&)
FUNC d49c0 20 0 std::__1::__function::__func<HiveComponent::HiveComponent(Entity&, AlienBuildableComponent&)::$_0, std::__1::allocator<HiveComponent::HiveComponent(Entity&, AlienBuildableComponent&)::$_0>, void (int)>::destroy_deallocate()
FUNC d49e0 20 0 std::__1::__function::__func<HiveComponent::HiveComponent(Entity&, AlienBuildableComponent&)::$_0, std::__1::allocator<HiveComponent::HiveComponent(Entity&, AlienBuildableComponent&)::$_0>, void (int)>::destroy()
FUNC d4a00 40 0 std::__1::__function::__func<HiveComponent::HiveComponent(Entity&, AlienBuildableComponent&)::$_0, std::__1::allocator<HiveComponent::HiveComponent(Entity&, AlienBuildableComponent&)::$_0>, void (int)>::__clone(std::__1::__function::__base<void (int)>*) const
FUNC d4a40 80 0 std::__1::__function::__func<HiveComponent::HiveComponent(Entity&, AlienBuildableComponent&)::$_0, std::__1::allocator<HiveComponent::HiveComponent(Entity&, AlienBuildableComponent&)::$_0>, void (int)>::__clone() const
FUNC d4ac0 20 0 std::__1::__function::__func<HiveComponent::HiveComponent(Entity&, AlienBuildableComponent&)::$_0, std::__1::allocator<HiveComponent::HiveComponent(Entity&, AlienBuildableComponent&)::$_0>, void (int)>::~__func()
FUNC d4ae0 1a0 0 HumanBuildableComponentBase::HumanBuildableComponentBase(Entity&, BuildableComponent&, TeamComponent&)
FUNC d4c80 3e0 0 HumanBuildableComponent::HandleDie(gentity_s*, meansOfDeath_t)
FUNC d5060 440 0 HumanBuildableComponent::Blast(int)
FUNC d54a0 80 0 <name omitted>
FUNC d5520 20 0 std::__1::__function::__func<HumanBuildableComponent::HandleDie(gentity_s*, meansOfDeath_t)::$_1, std::__1::allocator<HumanBuildableComponent::HandleDie(gentity_s*, meansOfDeath_t)::$_1>, void (int)>::target_type() const
FUNC d5540 40 0 std::__1::__function::__func<HumanBuildableComponent::HandleDie(gentity_s*, meansOfDeath_t)::$_1, std::__1::allocator<HumanBuildableComponent::HandleDie(gentity_s*, meansOfDeath_t)::$_1>, void (int)>::target(std::type_info const&) const
FUNC d5580 20 0 std::__1::__function::__func<HumanBuildableComponent::HandleDie(gentity_s*, meansOfDeath_t)::$_1, std::__1::allocator<HumanBuildableComponent::HandleDie(gentity_s*, meansOfDeath_t)::$_1>, void (int)>::operator()(int&&)
FUNC d55a0 20 0 std::__1::__function::__func<HumanBuildableComponent::HandleDie(gentity_s*, meansOfDeath_t)::$_1, std::__1::allocator<HumanBuildableComponent::HandleDie(gentity_s*, meansOfDeath_t)::$_1>, void (int)>::destroy_deallocate()
FUNC d55c0 20 0 std::__1::__function::__func<HumanBuildableComponent::HandleDie(gentity_s*, meansOfDeath_t)::$_1, std::__1::allocator<HumanBuildableComponent::HandleDie(gentity_s*, meansOfDeath_t)::$_1>, void (int)>::destroy()
FUNC d55e0 40 0 std::__1::__function::__func<HumanBuildableComponent::HandleDie(gentity_s*, meansOfDeath_t)::$_1, std::__1::allocator<HumanBuildableComponent::HandleDie(gentity_s*, meansOfDeath_t)::$_1>, void (int)>::__clone(std::__1::__function::__base<void (int)>*) const
FUNC d5620 80 0 std::__1::__function::__func<HumanBuildableComponent::HandleDie(gentity_s*, meansOfDeath_t)::$_1, std::__1::allocator<HumanBuildableComponent::HandleDie(gentity_s*, meansOfDeath_t)::$_1>, void (int)>::__clone() const
FUNC d56a0 20 0 std::__1::__function::__func<HumanBuildableComponent::HandleDie(gentity_s*, meansOfDeath_t)::$_1, std::__1::allocator<HumanBuildableComponent::HandleDie(gentity_s*, meansOfDeath_t)::$_1>, void (int)>::~__func()
FUNC d56c0 20 0 std::__1::__function::__func<HumanBuildableComponent::HandleDie(gentity_s*, meansOfDeath_t)::$_0, std::__1::allocator<HumanBuildableComponent::HandleDie(gentity_s*, meansOfDeath_t)::$_0>, void (int)>::target_type() const
FUNC d56e0 40 0 std::__1::__function::__func<HumanBuildableComponent::HandleDie(gentity_s*, meansOfDeath_t)::$_0, std::__1::allocator<HumanBuildableComponent::HandleDie(gentity_s*, meansOfDeath_t)::$_0>, void (int)>::target(std::type_info const&) const
FUNC d5720 20 0 std::__1::__function::__func<HumanBuildableComponent::HandleDie(gentity_s*, meansOfDeath_t)::$_0, std::__1::allocator<HumanBuildableComponent::HandleDie(gentity_s*, meansOfDeath_t)::$_0>, void (int)>::operator()(int&&)
FUNC d5740 20 0 std::__1::__function::__func<HumanBuildableComponent::HandleDie(gentity_s*, meansOfDeath_t)::$_0, std::__1::allocator<HumanBuildableComponent::HandleDie(gentity_s*, meansOfDeath_t)::$_0>, void (int)>::destroy_deallocate()
FUNC d5760 20 0 std::__1::__function::__func<HumanBuildableComponent::HandleDie(gentity_s*, meansOfDeath_t)::$_0, std::__1::allocator<HumanBuildableComponent::HandleDie(gentity_s*, meansOfDeath_t)::$_0>, void (int)>::destroy()
FUNC d5780 40 0 std::__1::__function::__func<HumanBuildableComponent::HandleDie(gentity_s*, meansOfDeath_t)::$_0, std::__1::allocator<HumanBuildableComponent::HandleDie(gentity_s*, meansOfDeath_t)::$_0>, void (int)>::__clone(std::__1::__function::__base<void (int)>*) const
FUNC d57c0 80 0 std::__1::__function::__func<HumanBuildableComponent::HandleDie(gentity_s*, meansOfDeath_t)::$_0, std::__1::allocator<HumanBuildableComponent::HandleDie(gentity_s*, meansOfDeath_t)::$_0>, void (int)>::__clone() const
FUNC d5840 20 0 std::__1::__function::__func<HumanBuildableComponent::HandleDie(gentity_s*, meansOfDeath_t)::$_0, std::__1::allocator<HumanBuildableComponent::HandleDie(gentity_s*, meansOfDeath_t)::$_0>, void (int)>::~__func()
FUNC d5860 1c0 0 HumanClassComponentBase::HumanClassComponentBase(Entity&, ClientComponent&, TeamComponent&, ArmorComponent&, KnockbackComponent&, HealthComponent&)
FUNC d5a20 580 0 IgnitableComponent::IgnitableComponent(Entity&, bool, ThinkingComponent&)
FUNC d5fa0 700 0 IgnitableComponent::HandleIgnite(gentity_s*)
FUNC d66a0 c0 0 IgnitableComponent::HandleExtinguish(int)
FUNC d6760 1a0 0 void Log::Logger::Debug<float&, float const&>(Str::BasicStringRef<char>, float&, float const&)
FUNC d6900 1a0 0 void Log::Logger::Notice<float, float>(Str::BasicStringRef<char>, float&&, float&&)
FUNC d6aa0 1a0 0 void Log::Logger::Debug<float, float>(Str::BasicStringRef<char>, float&&, float&&)
FUNC d6c40 1c0 0 void Log::Logger::Notice<float>(Str::BasicStringRef<char>, float&&)
FUNC d6e00 80 0 <name omitted>
FUNC d6e80 20 0 std::__1::__function::__func<IgnitableComponent::IgnitableComponent(Entity&, bool, ThinkingComponent&)::$_3, std::__1::allocator<IgnitableComponent::IgnitableComponent(Entity&, bool, ThinkingComponent&)::$_3>, void (int)>::target_type() const
FUNC d6ea0 40 0 std::__1::__function::__func<IgnitableComponent::IgnitableComponent(Entity&, bool, ThinkingComponent&)::$_3, std::__1::allocator<IgnitableComponent::IgnitableComponent(Entity&, bool, ThinkingComponent&)::$_3>, void (int)>::target(std::type_info const&) const
FUNC d6ee0 360 0 std::__1::__function::__func<IgnitableComponent::IgnitableComponent(Entity&, bool, ThinkingComponent&)::$_3, std::__1::allocator<IgnitableComponent::IgnitableComponent(Entity&, bool, ThinkingComponent&)::$_3>, void (int)>::operator()(int&&)
FUNC d7240 20 0 std::__1::__function::__func<IgnitableComponent::IgnitableComponent(Entity&, bool, ThinkingComponent&)::$_3, std::__1::allocator<IgnitableComponent::IgnitableComponent(Entity&, bool, ThinkingComponent&)::$_3>, void (int)>::destroy_deallocate()
FUNC d7260 20 0 std::__1::__function::__func<IgnitableComponent::IgnitableComponent(Entity&, bool, ThinkingComponent&)::$_3, std::__1::allocator<IgnitableComponent::IgnitableComponent(Entity&, bool, ThinkingComponent&)::$_3>, void (int)>::destroy()
FUNC d7280 40 0 std::__1::__function::__func<IgnitableComponent::IgnitableComponent(Entity&, bool, ThinkingComponent&)::$_3, std::__1::allocator<IgnitableComponent::IgnitableComponent(Entity&, bool, ThinkingComponent&)::$_3>, void (int)>::__clone(std::__1::__function::__base<void (int)>*) const
FUNC d72c0 80 0 std::__1::__function::__func<IgnitableComponent::IgnitableComponent(Entity&, bool, ThinkingComponent&)::$_3, std::__1::allocator<IgnitableComponent::IgnitableComponent(Entity&, bool, ThinkingComponent&)::$_3>, void (int)>::__clone() const
FUNC d7340 20 0 std::__1::__function::__func<IgnitableComponent::IgnitableComponent(Entity&, bool, ThinkingComponent&)::$_3, std::__1::allocator<IgnitableComponent::IgnitableComponent(Entity&, bool, ThinkingComponent&)::$_3>, void (int)>::~__func()
FUNC d7360 20 0 std::__1::__function::__func<IgnitableComponent::IgnitableComponent(Entity&, bool, ThinkingComponent&)::$_2, std::__1::allocator<IgnitableComponent::IgnitableComponent(Entity&, bool, ThinkingComponent&)::$_2>, void (int)>::target_type() const
FUNC d7380 40 0 std::__1::__function::__func<IgnitableComponent::IgnitableComponent(Entity&, bool, ThinkingComponent&)::$_2, std::__1::allocator<IgnitableComponent::IgnitableComponent(Entity&, bool, ThinkingComponent&)::$_2>, void (int)>::target(std::type_info const&) const
FUNC d73c0 420 0 std::__1::__function::__func<IgnitableComponent::IgnitableComponent(Entity&, bool, ThinkingComponent&)::$_2, std::__1::allocator<IgnitableComponent::IgnitableComponent(Entity&, bool, ThinkingComponent&)::$_2>, void (int)>::operator()(int&&)
FUNC d77e0 20 0 std::__1::__function::__func<IgnitableComponent::IgnitableComponent(Entity&, bool, ThinkingComponent&)::$_2, std::__1::allocator<IgnitableComponent::IgnitableComponent(Entity&, bool, ThinkingComponent&)::$_2>, void (int)>::destroy_deallocate()
FUNC d7800 20 0 std::__1::__function::__func<IgnitableComponent::IgnitableComponent(Entity&, bool, ThinkingComponent&)::$_2, std::__1::allocator<IgnitableComponent::IgnitableComponent(Entity&, bool, ThinkingComponent&)::$_2>, void (int)>::destroy()
FUNC d7820 40 0 std::__1::__function::__func<IgnitableComponent::IgnitableComponent(Entity&, bool, ThinkingComponent&)::$_2, std::__1::allocator<IgnitableComponent::IgnitableComponent(Entity&, bool, ThinkingComponent&)::$_2>, void (int)>::__clone(std::__1::__function::__base<void (int)>*) const
FUNC d7860 80 0 std::__1::__function::__func<IgnitableComponent::IgnitableComponent(Entity&, bool, ThinkingComponent&)::$_2, std::__1::allocator<IgnitableComponent::IgnitableComponent(Entity&, bool, ThinkingComponent&)::$_2>, void (int)>::__clone() const
FUNC d78e0 20 0 std::__1::__function::__func<IgnitableComponent::IgnitableComponent(Entity&, bool, ThinkingComponent&)::$_2, std::__1::allocator<IgnitableComponent::IgnitableComponent(Entity&, bool, ThinkingComponent&)::$_2>, void (int)>::~__func()
FUNC d7900 20 0 std::__1::__function::__func<IgnitableComponent::IgnitableComponent(Entity&, bool, ThinkingComponent&)::$_1, std::__1::allocator<IgnitableComponent::IgnitableComponent(Entity&, bool, ThinkingComponent&)::$_1>, void (int)>::target_type() const
FUNC d7920 40 0 std::__1::__function::__func<IgnitableComponent::IgnitableComponent(Entity&, bool, ThinkingComponent&)::$_1, std::__1::allocator<IgnitableComponent::IgnitableComponent(Entity&, bool, ThinkingComponent&)::$_1>, void (int)>::target(std::type_info const&) const
FUNC d7960 4c0 0 std::__1::__function::__func<IgnitableComponent::IgnitableComponent(Entity&, bool, ThinkingComponent&)::$_1, std::__1::allocator<IgnitableComponent::IgnitableComponent(Entity&, bool, ThinkingComponent&)::$_1>, void (int)>::operator()(int&&)
FUNC d7e20 20 0 std::__1::__function::__func<IgnitableComponent::IgnitableComponent(Entity&, bool, ThinkingComponent&)::$_1, std::__1::allocator<IgnitableComponent::IgnitableComponent(Entity&, bool, ThinkingComponent&)::$_1>, void (int)>::destroy_deallocate()
FUNC d7e40 20 0 std::__1::__function::__func<IgnitableComponent::IgnitableComponent(Entity&, bool, ThinkingComponent&)::$_1, std::__1::allocator<IgnitableComponent::IgnitableComponent(Entity&, bool, ThinkingComponent&)::$_1>, void (int)>::destroy()
FUNC d7e60 40 0 std::__1::__function::__func<IgnitableComponent::IgnitableComponent(Entity&, bool, ThinkingComponent&)::$_1, std::__1::allocator<IgnitableComponent::IgnitableComponent(Entity&, bool, ThinkingComponent&)::$_1>, void (int)>::__clone(std::__1::__function::__base<void (int)>*) const
FUNC d7ea0 80 0 std::__1::__function::__func<IgnitableComponent::IgnitableComponent(Entity&, bool, ThinkingComponent&)::$_1, std::__1::allocator<IgnitableComponent::IgnitableComponent(Entity&, bool, ThinkingComponent&)::$_1>, void (int)>::__clone() const
FUNC d7f20 20 0 std::__1::__function::__func<IgnitableComponent::IgnitableComponent(Entity&, bool, ThinkingComponent&)::$_1, std::__1::allocator<IgnitableComponent::IgnitableComponent(Entity&, bool, ThinkingComponent&)::$_1>, void (int)>::~__func()
FUNC d7f40 20 0 std::__1::__function::__func<IgnitableComponent::IgnitableComponent(Entity&, bool, ThinkingComponent&)::$_0, std::__1::allocator<IgnitableComponent::IgnitableComponent(Entity&, bool, ThinkingComponent&)::$_0>, void (int)>::target_type() const
FUNC d7f60 40 0 std::__1::__function::__func<IgnitableComponent::IgnitableComponent(Entity&, bool, ThinkingComponent&)::$_0, std::__1::allocator<IgnitableComponent::IgnitableComponent(Entity&, bool, ThinkingComponent&)::$_0>, void (int)>::target(std::type_info const&) const
FUNC d7fa0 e0 0 std::__1::__function::__func<IgnitableComponent::IgnitableComponent(Entity&, bool, ThinkingComponent&)::$_0, std::__1::allocator<IgnitableComponent::IgnitableComponent(Entity&, bool, ThinkingComponent&)::$_0>, void (int)>::operator()(int&&)
FUNC d8080 20 0 std::__1::__function::__func<IgnitableComponent::IgnitableComponent(Entity&, bool, ThinkingComponent&)::$_0, std::__1::allocator<IgnitableComponent::IgnitableComponent(Entity&, bool, ThinkingComponent&)::$_0>, void (int)>::destroy_deallocate()
FUNC d80a0 20 0 std::__1::__function::__func<IgnitableComponent::IgnitableComponent(Entity&, bool, ThinkingComponent&)::$_0, std::__1::allocator<IgnitableComponent::IgnitableComponent(Entity&, bool, ThinkingComponent&)::$_0>, void (int)>::destroy()
FUNC d80c0 40 0 std::__1::__function::__func<IgnitableComponent::IgnitableComponent(Entity&, bool, ThinkingComponent&)::$_0, std::__1::allocator<IgnitableComponent::IgnitableComponent(Entity&, bool, ThinkingComponent&)::$_0>, void (int)>::__clone(std::__1::__function::__base<void (int)>*) const
FUNC d8100 80 0 std::__1::__function::__func<IgnitableComponent::IgnitableComponent(Entity&, bool, ThinkingComponent&)::$_0, std::__1::allocator<IgnitableComponent::IgnitableComponent(Entity&, bool, ThinkingComponent&)::$_0>, void (int)>::__clone() const
FUNC d8180 20 0 std::__1::__function::__func<IgnitableComponent::IgnitableComponent(Entity&, bool, ThinkingComponent&)::$_0, std::__1::allocator<IgnitableComponent::IgnitableComponent(Entity&, bool, ThinkingComponent&)::$_0>, void (int)>::~__func()
FUNC d81a0 1a0 0 KnockbackComponentBase::KnockbackComponentBase(Entity&)
FUNC d8340 9e0 0 KnockbackComponent::HandleDamage(float, gentity_s*, Util::optional<Math::Vector<3u, float> >, Util::optional<Math::Vector<3u, float> >, int, meansOfDeath_t)
FUNC d8d20 80 0 <name omitted>
FUNC d8da0 1a0 0 LeechComponentBase::LeechComponentBase(Entity&, AlienBuildableComponent&, MiningComponent&)
FUNC d8f40 1a0 0 MainBuildableComponentBase::MainBuildableComponentBase(Entity&, BuildableComponent&)
FUNC d90e0 160 0 MainBuildableComponent::HandleDamage(float, gentity_s*, Util::optional<Math::Vector<3u, float> >, Util::optional<Math::Vector<3u, float> >, int, meansOfDeath_t)
FUNC d9240 80 0 MainBuildableComponent::HandleDie(gentity_s*, meansOfDeath_t)
FUNC d92c0 1a0 0 MedipadComponentBase::MedipadComponentBase(Entity&, HumanBuildableComponent&)
FUNC d9460 2e0 0 MGTurretComponent::MGTurretComponent(Entity&, HumanBuildableComponent&, TurretComponent&)
FUNC d9740 20 0 std::__1::__function::__base<bool (Entity&, Entity&)>::~__base()
FUNC d9760 100 0 unsigned int std::__1::__tree<MGTurretComponent*, std::__1::less<MGTurretComponent*>, std::__1::allocator<MGTurretComponent*> >::__erase_unique<MGTurretComponent*>(MGTurretComponent* const&)
FUNC d9860 20 0 std::__1::__function::__func<MGTurretComponent::Think(int)::$_1, std::__1::allocator<MGTurretComponent::Think(int)::$_1>, bool (Entity&, Entity&)>::target_type() const
FUNC d9880 40 0 std::__1::__function::__func<MGTurretComponent::Think(int)::$_1, std::__1::allocator<MGTurretComponent::Think(int)::$_1>, bool (Entity&, Entity&)>::target(std::type_info const&) const
FUNC d98c0 320 0 std::__1::__function::__func<MGTurretComponent::Think(int)::$_1, std::__1::allocator<MGTurretComponent::Think(int)::$_1>, bool (Entity&, Entity&)>::operator()(Entity&, Entity&)
FUNC d9be0 20 0 std::__1::__function::__func<MGTurretComponent::Think(int)::$_1, std::__1::allocator<MGTurretComponent::Think(int)::$_1>, bool (Entity&, Entity&)>::destroy_deallocate()
FUNC d9c00 20 0 std::__1::__function::__func<MGTurretComponent::Think(int)::$_1, std::__1::allocator<MGTurretComponent::Think(int)::$_1>, bool (Entity&, Entity&)>::destroy()
FUNC d9c20 40 0 std::__1::__function::__func<MGTurretComponent::Think(int)::$_1, std::__1::allocator<MGTurretComponent::Think(int)::$_1>, bool (Entity&, Entity&)>::__clone(std::__1::__function::__base<bool (Entity&, Entity&)>*) const
FUNC d9c60 80 0 std::__1::__function::__func<MGTurretComponent::Think(int)::$_1, std::__1::allocator<MGTurretComponent::Think(int)::$_1>, bool (Entity&, Entity&)>::__clone() const
FUNC d9ce0 20 0 std::__1::__function::__func<MGTurretComponent::Think(int)::$_1, std::__1::allocator<MGTurretComponent::Think(int)::$_1>, bool (Entity&, Entity&)>::~__func()
FUNC d9d00 20 0 std::__1::__function::__func<MGTurretComponent::MGTurretComponent(Entity&, HumanBuildableComponent&, TurretComponent&)::$_0, std::__1::allocator<MGTurretComponent::MGTurretComponent(Entity&, HumanBuildableComponent&, TurretComponent&)::$_0>, void (int)>::target_type() const
FUNC d9d20 40 0 std::__1::__function::__func<MGTurretComponent::MGTurretComponent(Entity&, HumanBuildableComponent&, TurretComponent&)::$_0, std::__1::allocator<MGTurretComponent::MGTurretComponent(Entity&, HumanBuildableComponent&, TurretComponent&)::$_0>, void (int)>::target(std::type_info const&) const
FUNC d9d60 4e0 0 std::__1::__function::__func<MGTurretComponent::MGTurretComponent(Entity&, HumanBuildableComponent&, TurretComponent&)::$_0, std::__1::allocator<MGTurretComponent::MGTurretComponent(Entity&, HumanBuildableComponent&, TurretComponent&)::$_0>, void (int)>::operator()(int&&)
FUNC da240 20 0 std::__1::__function::__func<MGTurretComponent::MGTurretComponent(Entity&, HumanBuildableComponent&, TurretComponent&)::$_0, std::__1::allocator<MGTurretComponent::MGTurretComponent(Entity&, HumanBuildableComponent&, TurretComponent&)::$_0>, void (int)>::destroy_deallocate()
FUNC da260 20 0 std::__1::__function::__func<MGTurretComponent::MGTurretComponent(Entity&, HumanBuildableComponent&, TurretComponent&)::$_0, std::__1::allocator<MGTurretComponent::MGTurretComponent(Entity&, HumanBuildableComponent&, TurretComponent&)::$_0>, void (int)>::destroy()
FUNC da280 40 0 std::__1::__function::__func<MGTurretComponent::MGTurretComponent(Entity&, HumanBuildableComponent&, TurretComponent&)::$_0, std::__1::allocator<MGTurretComponent::MGTurretComponent(Entity&, HumanBuildableComponent&, TurretComponent&)::$_0>, void (int)>::__clone(std::__1::__function::__base<void (int)>*) const
FUNC da2c0 80 0 std::__1::__function::__func<MGTurretComponent::MGTurretComponent(Entity&, HumanBuildableComponent&, TurretComponent&)::$_0, std::__1::allocator<MGTurretComponent::MGTurretComponent(Entity&, HumanBuildableComponent&, TurretComponent&)::$_0>, void (int)>::__clone() const
FUNC da340 20 0 std::__1::__function::__func<MGTurretComponent::MGTurretComponent(Entity&, HumanBuildableComponent&, TurretComponent&)::$_0, std::__1::allocator<MGTurretComponent::MGTurretComponent(Entity&, HumanBuildableComponent&, TurretComponent&)::$_0>, void (int)>::~__func()
FUNC da360 1e0 0 MiningComponent::MiningComponent(Entity&, bool, ThinkingComponent&)
FUNC da540 2a0 0 MiningComponent::CalculateEfficiency()
FUNC da7e0 1a0 0 MiningComponent::InformNeighbors()
FUNC da980 2c0 0 OvermindComponent::OvermindComponent(Entity&, AlienBuildableComponent&, MainBuildableComponent&)
FUNC dac40 100 0 unsigned int std::__1::__tree<OvermindComponent*, std::__1::less<OvermindComponent*>, std::__1::allocator<OvermindComponent*> >::__erase_unique<OvermindComponent*>(OvermindComponent* const&)
FUNC dad40 20 0 std::__1::__function::__func<OvermindComponent::OvermindComponent(Entity&, AlienBuildableComponent&, MainBuildableComponent&)::$_0, std::__1::allocator<OvermindComponent::OvermindComponent(Entity&, AlienBuildableComponent&, MainBuildableComponent&)::$_0>, void (int)>::target_type() const
FUNC dad60 40 0 std::__1::__function::__func<OvermindComponent::OvermindComponent(Entity&, AlienBuildableComponent&, MainBuildableComponent&)::$_0, std::__1::allocator<OvermindComponent::OvermindComponent(Entity&, AlienBuildableComponent&, MainBuildableComponent&)::$_0>, void (int)>::target(std::type_info const&) const
FUNC dada0 720 0 std::__1::__function::__func<OvermindComponent::OvermindComponent(Entity&, AlienBuildableComponent&, MainBuildableComponent&)::$_0, std::__1::allocator<OvermindComponent::OvermindComponent(Entity&, AlienBuildableComponent&, MainBuildableComponent&)::$_0>, void (int)>::operator()(int&&)
FUNC db4c0 20 0 std::__1::__function::__func<OvermindComponent::OvermindComponent(Entity&, AlienBuildableComponent&, MainBuildableComponent&)::$_0, std::__1::allocator<OvermindComponent::OvermindComponent(Entity&, AlienBuildableComponent&, MainBuildableComponent&)::$_0>, void (int)>::destroy_deallocate()
FUNC db4e0 20 0 std::__1::__function::__func<OvermindComponent::OvermindComponent(Entity&, AlienBuildableComponent&, MainBuildableComponent&)::$_0, std::__1::allocator<OvermindComponent::OvermindComponent(Entity&, AlienBuildableComponent&, MainBuildableComponent&)::$_0>, void (int)>::destroy()
FUNC db500 40 0 std::__1::__function::__func<OvermindComponent::OvermindComponent(Entity&, AlienBuildableComponent&, MainBuildableComponent&)::$_0, std::__1::allocator<OvermindComponent::OvermindComponent(Entity&, AlienBuildableComponent&, MainBuildableComponent&)::$_0>, void (int)>::__clone(std::__1::__function::__base<void (int)>*) const
FUNC db540 80 0 std::__1::__function::__func<OvermindComponent::OvermindComponent(Entity&, AlienBuildableComponent&, MainBuildableComponent&)::$_0, std::__1::allocator<OvermindComponent::OvermindComponent(Entity&, AlienBuildableComponent&, MainBuildableComponent&)::$_0>, void (int)>::__clone() const
FUNC db5c0 20 0 std::__1::__function::__func<OvermindComponent::OvermindComponent(Entity&, AlienBuildableComponent&, MainBuildableComponent&)::$_0, std::__1::allocator<OvermindComponent::OvermindComponent(Entity&, AlienBuildableComponent&, MainBuildableComponent&)::$_0>, void (int)>::~__func()
FUNC db5e0 2c0 0 ReactorComponent::ReactorComponent(Entity&, HumanBuildableComponent&, MainBuildableComponent&)
FUNC db8a0 100 0 unsigned int std::__1::__tree<ReactorComponent*, std::__1::less<ReactorComponent*>, std::__1::allocator<ReactorComponent*> >::__erase_unique<ReactorComponent*>(ReactorComponent* const&)
FUNC db9a0 20 0 std::__1::__function::__func<ReactorComponent::ReactorComponent(Entity&, HumanBuildableComponent&, MainBuildableComponent&)::$_0, std::__1::allocator<ReactorComponent::ReactorComponent(Entity&, HumanBuildableComponent&, MainBuildableComponent&)::$_0>, void (int)>::target_type() const
FUNC db9c0 40 0 std::__1::__function::__func<ReactorComponent::ReactorComponent(Entity&, HumanBuildableComponent&, MainBuildableComponent&)::$_0, std::__1::allocator<ReactorComponent::ReactorComponent(Entity&, HumanBuildableComponent&, MainBuildableComponent&)::$_0>, void (int)>::target(std::type_info const&) const
FUNC dba00 300 0 std::__1::__function::__func<ReactorComponent::ReactorComponent(Entity&, HumanBuildableComponent&, MainBuildableComponent&)::$_0, std::__1::allocator<ReactorComponent::ReactorComponent(Entity&, HumanBuildableComponent&, MainBuildableComponent&)::$_0>, void (int)>::operator()(int&&)
FUNC dbd00 20 0 std::__1::__function::__func<ReactorComponent::ReactorComponent(Entity&, HumanBuildableComponent&, MainBuildableComponent&)::$_0, std::__1::allocator<ReactorComponent::ReactorComponent(Entity&, HumanBuildableComponent&, MainBuildableComponent&)::$_0>, void (int)>::destroy_deallocate()
FUNC dbd20 20 0 std::__1::__function::__func<ReactorComponent::ReactorComponent(Entity&, HumanBuildableComponent&, MainBuildableComponent&)::$_0, std::__1::allocator<ReactorComponent::ReactorComponent(Entity&, HumanBuildableComponent&, MainBuildableComponent&)::$_0>, void (int)>::destroy()
FUNC dbd40 40 0 std::__1::__function::__func<ReactorComponent::ReactorComponent(Entity&, HumanBuildableComponent&, MainBuildableComponent&)::$_0, std::__1::allocator<ReactorComponent::ReactorComponent(Entity&, HumanBuildableComponent&, MainBuildableComponent&)::$_0>, void (int)>::__clone(std::__1::__function::__base<void (int)>*) const
FUNC dbd80 80 0 std::__1::__function::__func<ReactorComponent::ReactorComponent(Entity&, HumanBuildableComponent&, MainBuildableComponent&)::$_0, std::__1::allocator<ReactorComponent::ReactorComponent(Entity&, HumanBuildableComponent&, MainBuildableComponent&)::$_0>, void (int)>::__clone() const
FUNC dbe00 20 0 std::__1::__function::__func<ReactorComponent::ReactorComponent(Entity&, HumanBuildableComponent&, MainBuildableComponent&)::$_0, std::__1::allocator<ReactorComponent::ReactorComponent(Entity&, HumanBuildableComponent&, MainBuildableComponent&)::$_0>, void (int)>::~__func()
FUNC dbe20 300 0 RocketpodComponent::RocketpodComponent(Entity&, HumanBuildableComponent&, TurretComponent&)
FUNC dc120 140 0 <name omitted>
FUNC dc260 100 0 unsigned int std::__1::__tree<RocketpodComponent*, std::__1::less<RocketpodComponent*>, std::__1::allocator<RocketpodComponent*> >::__erase_unique<RocketpodComponent*>(RocketpodComponent* const&)
FUNC dc360 20 0 std::__1::__function::__func<RocketpodComponent::Think(int)::$_1, std::__1::allocator<RocketpodComponent::Think(int)::$_1>, bool (Entity&, Entity&)>::target_type() const
FUNC dc380 40 0 std::__1::__function::__func<RocketpodComponent::Think(int)::$_1, std::__1::allocator<RocketpodComponent::Think(int)::$_1>, bool (Entity&, Entity&)>::target(std::type_info const&) const
FUNC dc3c0 6a0 0 std::__1::__function::__func<RocketpodComponent::Think(int)::$_1, std::__1::allocator<RocketpodComponent::Think(int)::$_1>, bool (Entity&, Entity&)>::operator()(Entity&, Entity&)
FUNC dca60 20 0 std::__1::__function::__func<RocketpodComponent::Think(int)::$_1, std::__1::allocator<RocketpodComponent::Think(int)::$_1>, bool (Entity&, Entity&)>::destroy_deallocate()
FUNC dca80 20 0 std::__1::__function::__func<RocketpodComponent::Think(int)::$_1, std::__1::allocator<RocketpodComponent::Think(int)::$_1>, bool (Entity&, Entity&)>::destroy()
FUNC dcaa0 40 0 std::__1::__function::__func<RocketpodComponent::Think(int)::$_1, std::__1::allocator<RocketpodComponent::Think(int)::$_1>, bool (Entity&, Entity&)>::__clone(std::__1::__function::__base<bool (Entity&, Entity&)>*) const
FUNC dcae0 80 0 std::__1::__function::__func<RocketpodComponent::Think(int)::$_1, std::__1::allocator<RocketpodComponent::Think(int)::$_1>, bool (Entity&, Entity&)>::__clone() const
FUNC dcb60 20 0 std::__1::__function::__func<RocketpodComponent::Think(int)::$_1, std::__1::allocator<RocketpodComponent::Think(int)::$_1>, bool (Entity&, Entity&)>::~__func()
FUNC dcb80 20 0 std::__1::__function::__func<RocketpodComponent::RocketpodComponent(Entity&, HumanBuildableComponent&, TurretComponent&)::$_0, std::__1::allocator<RocketpodComponent::RocketpodComponent(Entity&, HumanBuildableComponent&, TurretComponent&)::$_0>, void (int)>::target_type() const
FUNC dcba0 40 0 std::__1::__function::__func<RocketpodComponent::RocketpodComponent(Entity&, HumanBuildableComponent&, TurretComponent&)::$_0, std::__1::allocator<RocketpodComponent::RocketpodComponent(Entity&, HumanBuildableComponent&, TurretComponent&)::$_0>, void (int)>::target(std::type_info const&) const
FUNC dcbe0 ca0 0 std::__1::__function::__func<RocketpodComponent::RocketpodComponent(Entity&, HumanBuildableComponent&, TurretComponent&)::$_0, std::__1::allocator<RocketpodComponent::RocketpodComponent(Entity&, HumanBuildableComponent&, TurretComponent&)::$_0>, void (int)>::operator()(int&&)
FUNC dd880 20 0 std::__1::__function::__func<RocketpodComponent::RocketpodComponent(Entity&, HumanBuildableComponent&, TurretComponent&)::$_0, std::__1::allocator<RocketpodComponent::RocketpodComponent(Entity&, HumanBuildableComponent&, TurretComponent&)::$_0>, void (int)>::destroy_deallocate()
FUNC dd8a0 20 0 std::__1::__function::__func<RocketpodComponent::RocketpodComponent(Entity&, HumanBuildableComponent&, TurretComponent&)::$_0, std::__1::allocator<RocketpodComponent::RocketpodComponent(Entity&, HumanBuildableComponent&, TurretComponent&)::$_0>, void (int)>::destroy()
FUNC dd8c0 40 0 std::__1::__function::__func<RocketpodComponent::RocketpodComponent(Entity&, HumanBuildableComponent&, TurretComponent&)::$_0, std::__1::allocator<RocketpodComponent::RocketpodComponent(Entity&, HumanBuildableComponent&, TurretComponent&)::$_0>, void (int)>::__clone(std::__1::__function::__base<void (int)>*) const
FUNC dd900 80 0 std::__1::__function::__func<RocketpodComponent::RocketpodComponent(Entity&, HumanBuildableComponent&, TurretComponent&)::$_0, std::__1::allocator<RocketpodComponent::RocketpodComponent(Entity&, HumanBuildableComponent&, TurretComponent&)::$_0>, void (int)>::__clone() const
FUNC dd980 20 0 std::__1::__function::__func<RocketpodComponent::RocketpodComponent(Entity&, HumanBuildableComponent&, TurretComponent&)::$_0, std::__1::allocator<RocketpodComponent::RocketpodComponent(Entity&, HumanBuildableComponent&, TurretComponent&)::$_0>, void (int)>::~__func()
FUNC dd9a0 2e0 0 SpawnerComponent::SpawnerComponent(Entity&, TeamComponent&, ThinkingComponent&)
FUNC ddc80 120 0 SpawnerComponent::~SpawnerComponent()
FUNC ddda0 a0 0 SpawnerComponent::HandleDie(gentity_s*, meansOfDeath_t)
FUNC dde40 620 0 SpawnerComponent::WarnBlocker(Entity&, bool)
FUNC de460 100 0 unsigned int std::__1::__tree<SpawnerComponent*, std::__1::less<SpawnerComponent*>, std::__1::allocator<SpawnerComponent*> >::__erase_unique<SpawnerComponent*>(SpawnerComponent* const&)
FUNC de560 80 0 <name omitted>
FUNC de5e0 20 0 std::__1::__function::__func<SpawnerComponent::SpawnerComponent(Entity&, TeamComponent&, ThinkingComponent&)::$_0, std::__1::allocator<SpawnerComponent::SpawnerComponent(Entity&, TeamComponent&, ThinkingComponent&)::$_0>, void (int)>::target_type() const
FUNC de600 40 0 std::__1::__function::__func<SpawnerComponent::SpawnerComponent(Entity&, TeamComponent&, ThinkingComponent&)::$_0, std::__1::allocator<SpawnerComponent::SpawnerComponent(Entity&, TeamComponent&, ThinkingComponent&)::$_0>, void (int)>::target(std::type_info const&) const
FUNC de640 420 0 std::__1::__function::__func<SpawnerComponent::SpawnerComponent(Entity&, TeamComponent&, ThinkingComponent&)::$_0, std::__1::allocator<SpawnerComponent::SpawnerComponent(Entity&, TeamComponent&, ThinkingComponent&)::$_0>, void (int)>::operator()(int&&)
FUNC dea60 20 0 std::__1::__function::__func<SpawnerComponent::SpawnerComponent(Entity&, TeamComponent&, ThinkingComponent&)::$_0, std::__1::allocator<SpawnerComponent::SpawnerComponent(Entity&, TeamComponent&, ThinkingComponent&)::$_0>, void (int)>::destroy_deallocate()
FUNC dea80 20 0 std::__1::__function::__func<SpawnerComponent::SpawnerComponent(Entity&, TeamComponent&, ThinkingComponent&)::$_0, std::__1::allocator<SpawnerComponent::SpawnerComponent(Entity&, TeamComponent&, ThinkingComponent&)::$_0>, void (int)>::destroy()
FUNC deaa0 40 0 std::__1::__function::__func<SpawnerComponent::SpawnerComponent(Entity&, TeamComponent&, ThinkingComponent&)::$_0, std::__1::allocator<SpawnerComponent::SpawnerComponent(Entity&, TeamComponent&, ThinkingComponent&)::$_0>, void (int)>::__clone(std::__1::__function::__base<void (int)>*) const
FUNC deae0 80 0 std::__1::__function::__func<SpawnerComponent::SpawnerComponent(Entity&, TeamComponent&, ThinkingComponent&)::$_0, std::__1::allocator<SpawnerComponent::SpawnerComponent(Entity&, TeamComponent&, ThinkingComponent&)::$_0>, void (int)>::__clone() const
FUNC deb60 20 0 std::__1::__function::__func<SpawnerComponent::SpawnerComponent(Entity&, TeamComponent&, ThinkingComponent&)::$_0, std::__1::allocator<SpawnerComponent::SpawnerComponent(Entity&, TeamComponent&, ThinkingComponent&)::$_0>, void (int)>::~__func()
FUNC deb80 1a0 0 SpectatorComponentBase::SpectatorComponentBase(Entity&, ClientComponent&)
FUNC ded20 2c0 0 SpikerComponent::SpikerComponent(Entity&, AlienBuildableComponent&)
FUNC defe0 1a0 0 SpikerComponent::RegisterSlowThinker()
FUNC df180 1a0 0 void Log::Logger::Verbose<int&>(Str::BasicStringRef<char>, int&)
FUNC df320 10c0 0 SpikerComponent::Fire()
FUNC e03e0 1780 0 SpikerComponent::Think(int)
FUNC e1b60 520 0 void tinyformat::detail::FormatArg::formatImpl<double>(std::__1::basic_ostream<char, std::__1::char_traits<char> >&, char const*, char const*, int, void const*)
FUNC e2080 20 0 int tinyformat::detail::FormatArg::toIntImpl<double>(void const*)
FUNC e20a0 a0 0 void tinyformat::detail::FormatArg::formatImpl<char [6]>(std::__1::basic_ostream<char, std::__1::char_traits<char> >&, char const*, char const*, int, void const*)
FUNC e2140 a0 0 int tinyformat::detail::FormatArg::toIntImpl<char [6]>(void const*)
FUNC e21e0 100 0 unsigned int std::__1::__tree<SpikerComponent*, std::__1::less<SpikerComponent*>, std::__1::allocator<SpikerComponent*> >::__erase_unique<SpikerComponent*>(SpikerComponent* const&)
FUNC e22e0 80 0 <name omitted>
FUNC e2360 20 0 std::__1::__function::__func<SpikerComponent::RegisterSlowThinker()::$_2, std::__1::allocator<SpikerComponent::RegisterSlowThinker()::$_2>, void (int)>::target_type() const
FUNC e2380 40 0 std::__1::__function::__func<SpikerComponent::RegisterSlowThinker()::$_2, std::__1::allocator<SpikerComponent::RegisterSlowThinker()::$_2>, void (int)>::target(std::type_info const&) const
FUNC e23c0 20 0 std::__1::__function::__func<SpikerComponent::RegisterSlowThinker()::$_2, std::__1::allocator<SpikerComponent::RegisterSlowThinker()::$_2>, void (int)>::operator()(int&&)
FUNC e23e0 20 0 std::__1::__function::__func<SpikerComponent::RegisterSlowThinker()::$_2, std::__1::allocator<SpikerComponent::RegisterSlowThinker()::$_2>, void (int)>::destroy_deallocate()
FUNC e2400 20 0 std::__1::__function::__func<SpikerComponent::RegisterSlowThinker()::$_2, std::__1::allocator<SpikerComponent::RegisterSlowThinker()::$_2>, void (int)>::destroy()
FUNC e2420 40 0 std::__1::__function::__func<SpikerComponent::RegisterSlowThinker()::$_2, std::__1::allocator<SpikerComponent::RegisterSlowThinker()::$_2>, void (int)>::__clone(std::__1::__function::__base<void (int)>*) const
FUNC e2460 80 0 std::__1::__function::__func<SpikerComponent::RegisterSlowThinker()::$_2, std::__1::allocator<SpikerComponent::RegisterSlowThinker()::$_2>, void (int)>::__clone() const
FUNC e24e0 20 0 std::__1::__function::__func<SpikerComponent::RegisterSlowThinker()::$_2, std::__1::allocator<SpikerComponent::RegisterSlowThinker()::$_2>, void (int)>::~__func()
FUNC e2500 20 0 std::__1::__function::__func<SpikerComponent::RegisterFastThinker()::$_1, std::__1::allocator<SpikerComponent::RegisterFastThinker()::$_1>, void (int)>::target_type() const
FUNC e2520 40 0 std::__1::__function::__func<SpikerComponent::RegisterFastThinker()::$_1, std::__1::allocator<SpikerComponent::RegisterFastThinker()::$_1>, void (int)>::target(std::type_info const&) const
FUNC e2560 20 0 std::__1::__function::__func<SpikerComponent::RegisterFastThinker()::$_1, std::__1::allocator<SpikerComponent::RegisterFastThinker()::$_1>, void (int)>::operator()(int&&)
FUNC e2580 20 0 std::__1::__function::__func<SpikerComponent::RegisterFastThinker()::$_1, std::__1::allocator<SpikerComponent::RegisterFastThinker()::$_1>, void (int)>::destroy_deallocate()
FUNC e25a0 20 0 std::__1::__function::__func<SpikerComponent::RegisterFastThinker()::$_1, std::__1::allocator<SpikerComponent::RegisterFastThinker()::$_1>, void (int)>::destroy()
FUNC e25c0 40 0 std::__1::__function::__func<SpikerComponent::RegisterFastThinker()::$_1, std::__1::allocator<SpikerComponent::RegisterFastThinker()::$_1>, void (int)>::__clone(std::__1::__function::__base<void (int)>*) const
FUNC e2600 80 0 std::__1::__function::__func<SpikerComponent::RegisterFastThinker()::$_1, std::__1::allocator<SpikerComponent::RegisterFastThinker()::$_1>, void (int)>::__clone() const
FUNC e2680 20 0 std::__1::__function::__func<SpikerComponent::RegisterFastThinker()::$_1, std::__1::allocator<SpikerComponent::RegisterFastThinker()::$_1>, void (int)>::~__func()
FUNC e26a0 1a0 0 TeamComponentBase::TeamComponentBase(Entity&, team_e)
FUNC e2840 1a0 0 TelenodeComponentBase::TelenodeComponentBase(Entity&, HumanBuildableComponent&, SpawnerComponent&)
FUNC e29e0 1a0 0 ThinkingComponentBase::ThinkingComponentBase(Entity&, DeferredFreeingComponent&)
FUNC e2b80 10e0 0 ThinkingComponent::Think()
FUNC e3c60 1c0 0 void Log::Logger::Debug<int&, int&>(Str::BasicStringRef<char>, int&, int&)
FUNC e3e20 7c0 0 ThinkingComponent::RegisterThinker(std::__1::function<void (int)>, ThinkingComponent::thinkScheduler_t, int)
FUNC e45e0 80 0 <name omitted>
FUNC e4660 1a0 0 TrapperComponentBase::TrapperComponentBase(Entity&, AlienBuildableComponent&)
FUNC e4800 540 0 TurretComponent::TurretComponent(Entity&)
FUNC e4d40 e0 0 TurretComponent::~TurretComponent()
FUNC e4e20 1a0 0 void Log::Logger::Verbose<>(Str::BasicStringRef<char>)
FUNC e4fc0 420 0 TurretComponent::TargetValid(Entity&, bool)
FUNC e53e0 280 0 TurretComponent::FindEntityTarget(std::__1::function<bool (Entity&, Entity&)>)
FUNC e5660 f40 0 TurretComponent::MoveHeadToTarget(int)
FUNC e65a0 1a0 0 TurretComponent::TrackEntityTarget()
FUNC e6740 1a0 0 void Log::Logger::Debug<Math::Vector<3u, float>&>(Str::BasicStringRef<char>, Math::Vector<3u, float>&)
FUNC e68e0 1a0 0 void Log::Logger::Verbose<Math::Vector<3u, float>&>(Str::BasicStringRef<char>, Math::Vector<3u, float>&)
FUNC e6a80 260 0 TurretComponent::ResetPitch()
FUNC e6ce0 280 0 TurretComponent::LowerPitch()
FUNC e6f60 3a0 0 TurretComponent::TargetCanBeHit()
FUNC e7300 460 0 std::__1::basic_string<char, std::__1::char_traits<char>, std::__1::allocator<char> > tinyformat::format<Math::Vector<3u, float> >(char const*, Math::Vector<3u, float> const&)
FUNC e7760 6e0 0 void tinyformat::detail::FormatArg::formatImpl<Math::Vector<3u, float> >(std::__1::basic_ostream<char, std::__1::char_traits<char> >&, char const*, char const*, int, void const*)
FUNC e7e40 a0 0 int tinyformat::detail::FormatArg::toIntImpl<Math::Vector<3u, float> >(void const*)
FUNC e7ee0 520 0 void tinyformat::detail::FormatArg::formatImpl<bool>(std::__1::basic_ostream<char, std::__1::char_traits<char> >&, char const*, char const*, int, void const*)
FUNC e8400 20 0 int tinyformat::detail::FormatArg::toIntImpl<bool>(void const*)
FUNC e8420 100 0 unsigned int std::__1::__tree<TurretComponent*, std::__1::less<TurretComponent*>, std::__1::allocator<TurretComponent*> >::__erase_unique<TurretComponent*>(TurretComponent* const&)
FUNC e8520 80 0 <name omitted>
FUNC e85a0 220 0 BG_ClassByName(char const*)
FUNC e87c0 220 0 BG_ClassModelConfigByName(char const*)
FUNC e89e0 1e0 0 BG_ClassBoundingBox(int, float*, float*, float*, float*, float*)
FUNC e8bc0 120 0 BG_ClassCanEvolveFromTo(int, int, int)
FUNC e8ce0 240 0 BG_ClassDisabled(int)
FUNC e8f20 140 0 BG_UpgradeByName(char const*)
FUNC e9060 a5e0 0 BG_InitAllConfigs()
FUNC f3640 360 0 BG_EvaluateTrajectory(trajectory_t const*, int, float*)
FUNC f39a0 240 0 BG_EvaluateTrajectoryDelta(trajectory_t const*, int, float*)
FUNC f3be0 660 0 BG_PlayerStateToEntityState(playerState_t*, entityState_t*, bool)
FUNC f4240 6e0 0 BG_PlayerStateToEntityStateExtraPolate(playerState_t*, entityState_t*, int, bool)
FUNC f4920 280 0 BG_SlotsForInventory(int*)
FUNC f4ba0 e0 0 BG_GetClientViewOrigin(playerState_t const*, float*)
FUNC f4c80 160 0 BG_GetValueOfPlayer(playerState_t*)
FUNC f4de0 400 0 BG_PackEntityNumbers(entityState_t*, int const*, unsigned int)
FUNC f51e0 240 0 BG_ParseCSVEquipmentList(char const*, weapon_t*, int, upgrade_t*, int)
FUNC f5420 160 0 BG_ParseCSVClassList(char const*, class_t*, int)
FUNC f5580 200 0 BG_ParseCSVBuildableList(char const*, buildable_t*, int)
FUNC f5780 160 0 BG_UpgradeDisabled(int)
FUNC f58e0 e0 0 BG_PrimaryWeapon(int*)
FUNC f59c0 c0 0 BG_PlayableTeamFromString(char const*)
FUNC f5a80 480 0 std::__1::basic_string<char, std::__1::char_traits<char>, std::__1::allocator<char> > tinyformat::format<int, unsigned int>(char const*, int const&, unsigned int const&)
FUNC f5f00 160 0 BG_ReadWholeFile(char const*, char*, int)
FUNC f6060 1a0 0 BG_ParseConfigVar(configVar_t*, char const**, char const*)
FUNC f6200 a20 0 BG_ParseUpgradeAttributeFile(char const*, upgradeAttributes_t*)
FUNC f6c20 1a0 0 void Log::Logger::Warn<char const*&, char const*&>(Str::BasicStringRef<char>, char const*&, char const*&)
FUNC f6dc0 2a0 0 ParseSlotList(char const**)
FUNC f7060 a60 0 PM_UpdateViewAngles(playerState_t*, usercmd_t const*)
FUNC f7ac0 3600 0 Pmove(pmove_s*)
FUNC fb0c0 520 0 void Log::Logger::Notice<std::__1::basic_string<char, std::__1::char_traits<char>, std::__1::allocator<char> > >(Str::BasicStringRef<char>, std::__1::basic_string<char, std::__1::char_traits<char>, std::__1::allocator<char> >&&)
FUNC fb5e0 560 0 void Log::Logger::Notice<std::__1::basic_string<char, std::__1::char_traits<char>, std::__1::allocator<char> >, double, char const*>(Str::BasicStringRef<char>, std::__1::basic_string<char, std::__1::char_traits<char>, std::__1::allocator<char> >&&, double&&, char const*&&)
FUNC fbb40 460 0 std::__1::basic_string<char, std::__1::char_traits<char>, std::__1::allocator<char> > tinyformat::format<double>(char const*, double const&)
FUNC fbfa0 5e0 0 std::__1::basic_string<char, std::__1::char_traits<char>, std::__1::allocator<char> > tinyformat::format<double, float, float, float, double, float, float, float>(char const*, double const&, float const&, float const&, float const&, double const&, float const&, float const&, float const&)
FUNC fc580 300 0 PM_CheckDuck()
FUNC fc880 260 0 PM_GhostMove(bool)
FUNC fcae0 1ae0 0 PM_Weapon()
FUNC fe5c0 200 0 PM_SetWaterLevel()
FUNC fe7c0 2e00 0 PM_GroundTrace()
FUNC 1015c0 680 0 PM_WaterMove()
FUNC 101c40 220 0 PM_Friction()
FUNC 101e60 420 0 PM_CmdScale(usercmd_t*, bool)
FUNC 102280 3e0 0 PM_CheckJump()
FUNC 102660 1440 0 PM_CheckPounce()
FUNC 103aa0 17c0 0 PM_AirMove()
FUNC 105260 5e0 0 PM_LandJetpack(bool)
FUNC 105840 160 0 PM_PlayJumpingAnimation()
FUNC 1059a0 320 0 PM_GroundTraceMissed()
FUNC 105cc0 4a0 0 PM_CorrectAllSolid(trace_t*)
FUNC 106160 140 0 PM_FinishWeaponChange()
FUNC 1062a0 180 0 PM_BeginWeaponChange(int)
FUNC 106420 c60 0 PM_SlideMove(bool)
FUNC 107080 340 0 PM_StepEvent(float const*, float const*, float const*)
FUNC 1073c0 9c0 0 PM_StepSlideMove(bool, bool)
FUNC 107d80 440 0 G_UpdateUnlockables()
FUNC 1081c0 c0 0 BG_WeaponUnlocked(int)
FUNC 108280 c0 0 BG_UpgradeUnlocked(int)
FUNC 108340 a0 0 BG_ClassUnlocked(int)
FUNC 1083e0 4c0 0 std::__1::basic_string<char, std::__1::char_traits<char>, std::__1::allocator<char> > tinyformat::format<char [16], int, int>(char const*, char const (&) [16], int const&, int const&)
FUNC 1088a0 a0 0 void tinyformat::detail::FormatArg::formatImpl<char [16]>(std::__1::basic_ostream<char, std::__1::char_traits<char> >&, char const*, char const*, int, void const*)
FUNC 108940 a0 0 int tinyformat::detail::FormatArg::toIntImpl<char [16]>(void const*)
FUNC 1089e0 460 0 std::__1::basic_string<char, std::__1::char_traits<char>, std::__1::allocator<char> > tinyformat::format<char [16]>(char const*, char const (&) [16])
FUNC 108e40 a0 0 BG_VoiceParseError(int, char const*)
FUNC 108ee0 20 0 std::__1::set<DeferredFreeingComponent*, std::__1::less<DeferredFreeingComponent*>, std::__1::allocator<DeferredFreeingComponent*> >::~set()
FUNC 108f00 20 0 std::__1::set<ThinkingComponent*, std::__1::less<ThinkingComponent*>, std::__1::allocator<ThinkingComponent*> >::~set()
FUNC 108f20 20 0 std::__1::set<TeamComponent*, std::__1::less<TeamComponent*>, std::__1::allocator<TeamComponent*> >::~set()
FUNC 108f40 20 0 std::__1::set<IgnitableComponent*, std::__1::less<IgnitableComponent*>, std::__1::allocator<IgnitableComponent*> >::~set()
FUNC 108f60 20 0 std::__1::set<HealthComponent*, std::__1::less<HealthComponent*>, std::__1::allocator<HealthComponent*> >::~set()
FUNC 108f80 20 0 std::__1::set<ClientComponent*, std::__1::less<ClientComponent*>, std::__1::allocator<ClientComponent*> >::~set()
FUNC 108fa0 20 0 std::__1::set<ArmorComponent*, std::__1::less<ArmorComponent*>, std::__1::allocator<ArmorComponent*> >::~set()
FUNC 108fc0 20 0 std::__1::set<KnockbackComponent*, std::__1::less<KnockbackComponent*>, std::__1::allocator<KnockbackComponent*> >::~set()
FUNC 108fe0 20 0 std::__1::set<SpectatorComponent*, std::__1::less<SpectatorComponent*>, std::__1::allocator<SpectatorComponent*> >::~set()
FUNC 109000 20 0 std::__1::set<AlienClassComponent*, std::__1::less<AlienClassComponent*>, std::__1::allocator<AlienClassComponent*> >::~set()
FUNC 109020 20 0 std::__1::set<HumanClassComponent*, std::__1::less<HumanClassComponent*>, std::__1::allocator<HumanClassComponent*> >::~set()
FUNC 109040 20 0 std::__1::set<BuildableComponent*, std::__1::less<BuildableComponent*>, std::__1::allocator<BuildableComponent*> >::~set()
FUNC 109060 20 0 std::__1::set<AlienBuildableComponent*, std::__1::less<AlienBuildableComponent*>, std::__1::allocator<AlienBuildableComponent*> >::~set()
FUNC 109080 20 0 std::__1::set<HumanBuildableComponent*, std::__1::less<HumanBuildableComponent*>, std::__1::allocator<HumanBuildableComponent*> >::~set()
FUNC 1090a0 20 0 std::__1::set<MainBuildableComponent*, std::__1::less<MainBuildableComponent*>, std::__1::allocator<MainBuildableComponent*> >::~set()
FUNC 1090c0 20 0 std::__1::set<SpawnerComponent*, std::__1::less<SpawnerComponent*>, std::__1::allocator<SpawnerComponent*> >::~set()
FUNC 1090e0 20 0 std::__1::set<TurretComponent*, std::__1::less<TurretComponent*>, std::__1::allocator<TurretComponent*> >::~set()
FUNC 109100 20 0 std::__1::set<MiningComponent*, std::__1::less<MiningComponent*>, std::__1::allocator<MiningComponent*> >::~set()
FUNC 109120 20 0 std::__1::set<AcidTubeComponent*, std::__1::less<AcidTubeComponent*>, std::__1::allocator<AcidTubeComponent*> >::~set()
FUNC 109140 20 0 std::__1::set<BarricadeComponent*, std::__1::less<BarricadeComponent*>, std::__1::allocator<BarricadeComponent*> >::~set()
FUNC 109160 20 0 std::__1::set<BoosterComponent*, std::__1::less<BoosterComponent*>, std::__1::allocator<BoosterComponent*> >::~set()
FUNC 109180 20 0 std::__1::set<EggComponent*, std::__1::less<EggComponent*>, std::__1::allocator<EggComponent*> >::~set()
FUNC 1091a0 20 0 std::__1::set<HiveComponent*, std::__1::less<HiveComponent*>, std::__1::allocator<HiveComponent*> >::~set()
FUNC 1091c0 20 0 std::__1::set<LeechComponent*, std::__1::less<LeechComponent*>, std::__1::allocator<LeechComponent*> >::~set()
FUNC 1091e0 20 0 std::__1::set<OvermindComponent*, std::__1::less<OvermindComponent*>, std::__1::allocator<OvermindComponent*> >::~set()
FUNC 109200 20 0 std::__1::set<SpikerComponent*, std::__1::less<SpikerComponent*>, std::__1::allocator<SpikerComponent*> >::~set()
FUNC 109220 20 0 std::__1::set<TrapperComponent*, std::__1::less<TrapperComponent*>, std::__1::allocator<TrapperComponent*> >::~set()
FUNC 109240 20 0 std::__1::set<ArmouryComponent*, std::__1::less<ArmouryComponent*>, std::__1::allocator<ArmouryComponent*> >::~set()
FUNC 109260 20 0 std::__1::set<DrillComponent*, std::__1::less<DrillComponent*>, std::__1::allocator<DrillComponent*> >::~set()
FUNC 109280 20 0 std::__1::set<MedipadComponent*, std::__1::less<MedipadComponent*>, std::__1::allocator<MedipadComponent*> >::~set()
FUNC 1092a0 20 0 std::__1::set<MGTurretComponent*, std::__1::less<MGTurretComponent*>, std::__1::allocator<MGTurretComponent*> >::~set()
FUNC 1092c0 20 0 std::__1::set<ReactorComponent*, std::__1::less<ReactorComponent*>, std::__1::allocator<ReactorComponent*> >::~set()
FUNC 1092e0 20 0 std::__1::set<RocketpodComponent*, std::__1::less<RocketpodComponent*>, std::__1::allocator<RocketpodComponent*> >::~set()
FUNC 109300 20 0 std::__1::set<TelenodeComponent*, std::__1::less<TelenodeComponent*>, std::__1::allocator<TelenodeComponent*> >::~set()
FUNC 109320 100 0 h_Spectator_PrepareNetCode(Entity*, void const*)
FUNC 109420 20 0 h_Dretch_Heal(Entity*, void const*)
FUNC 109440 180 0 h_Dretch_Damage(Entity*, void const*)
FUNC 1095c0 80 0 h_Dretch_ApplyDamageModifier(Entity*, void const*)
FUNC 109640 20 0 h_Dretch_PrepareNetCode(Entity*, void const*)
FUNC 109660 20 0 h_Mantis_Heal(Entity*, void const*)
FUNC 109680 180 0 h_Mantis_Damage(Entity*, void const*)
FUNC 109800 80 0 h_Mantis_ApplyDamageModifier(Entity*, void const*)
FUNC 109880 20 0 h_Mantis_PrepareNetCode(Entity*, void const*)
FUNC 1098a0 20 0 h_Marauder_Heal(Entity*, void const*)
FUNC 1098c0 180 0 h_Marauder_Damage(Entity*, void const*)
FUNC 109a40 80 0 h_Marauder_ApplyDamageModifier(Entity*, void const*)
FUNC 109ac0 20 0 h_Marauder_PrepareNetCode(Entity*, void const*)
FUNC 109ae0 20 0 h_AdvMarauder_Heal(Entity*, void const*)
FUNC 109b00 180 0 h_AdvMarauder_Damage(Entity*, void const*)
FUNC 109c80 80 0 h_AdvMarauder_ApplyDamageModifier(Entity*, void const*)
FUNC 109d00 20 0 h_AdvMarauder_PrepareNetCode(Entity*, void const*)
FUNC 109d20 20 0 h_Dragoon_Heal(Entity*, void const*)
FUNC 109d40 180 0 h_Dragoon_Damage(Entity*, void const*)
FUNC 109ec0 80 0 h_Dragoon_ApplyDamageModifier(Entity*, void const*)
FUNC 109f40 20 0 h_Dragoon_PrepareNetCode(Entity*, void const*)
FUNC 109f60 20 0 h_AdvDragoon_Heal(Entity*, void const*)
FUNC 109f80 180 0 h_AdvDragoon_Damage(Entity*, void const*)
FUNC 10a100 80 0 h_AdvDragoon_ApplyDamageModifier(Entity*, void const*)
FUNC 10a180 20 0 h_AdvDragoon_PrepareNetCode(Entity*, void const*)
FUNC 10a1a0 20 0 h_Tyrant_Heal(Entity*, void const*)
FUNC 10a1c0 180 0 h_Tyrant_Damage(Entity*, void const*)
FUNC 10a340 80 0 h_Tyrant_ApplyDamageModifier(Entity*, void const*)
FUNC 10a3c0 20 0 h_Tyrant_PrepareNetCode(Entity*, void const*)
FUNC 10a3e0 20 0 h_Granger_Heal(Entity*, void const*)
FUNC 10a400 180 0 h_Granger_Damage(Entity*, void const*)
FUNC 10a580 80 0 h_Granger_ApplyDamageModifier(Entity*, void const*)
FUNC 10a600 20 0 h_Granger_PrepareNetCode(Entity*, void const*)
FUNC 10a620 20 0 h_AdvGranger_Heal(Entity*, void const*)
FUNC 10a640 180 0 h_AdvGranger_Damage(Entity*, void const*)
FUNC 10a7c0 80 0 h_AdvGranger_ApplyDamageModifier(Entity*, void const*)
FUNC 10a840 20 0 h_AdvGranger_PrepareNetCode(Entity*, void const*)
FUNC 10a860 20 0 h_NakedHuman_Heal(Entity*, void const*)
FUNC 10a880 180 0 h_NakedHuman_Damage(Entity*, void const*)
FUNC 10aa00 80 0 h_NakedHuman_ApplyDamageModifier(Entity*, void const*)
FUNC 10aa80 20 0 h_NakedHuman_PrepareNetCode(Entity*, void const*)
FUNC 10aaa0 20 0 h_LightHuman_Heal(Entity*, void const*)
FUNC 10aac0 180 0 h_LightHuman_Damage(Entity*, void const*)
FUNC 10ac40 80 0 h_LightHuman_ApplyDamageModifier(Entity*, void const*)
FUNC 10acc0 20 0 h_LightHuman_PrepareNetCode(Entity*, void const*)
FUNC 10ace0 20 0 h_MediumHuman_Heal(Entity*, void const*)
FUNC 10ad00 180 0 h_MediumHuman_Damage(Entity*, void const*)
FUNC 10ae80 80 0 h_MediumHuman_ApplyDamageModifier(Entity*, void const*)
FUNC 10af00 20 0 h_MediumHuman_PrepareNetCode(Entity*, void const*)
FUNC 10af20 20 0 h_HeavyHuman_Heal(Entity*, void const*)
FUNC 10af40 180 0 h_HeavyHuman_Damage(Entity*, void const*)
FUNC 10b0c0 80 0 h_HeavyHuman_ApplyDamageModifier(Entity*, void const*)
FUNC 10b140 20 0 h_HeavyHuman_PrepareNetCode(Entity*, void const*)
FUNC 10b160 20 0 h_AcidTube_Ignite(Entity*, void const*)
FUNC 10b180 e0 0 h_AcidTube_Damage(Entity*, void const*)
FUNC 10b260 20 0 h_AcidTube_FreeAt(Entity*, void const*)
FUNC 10b280 80 0 h_AcidTube_PrepareNetCode(Entity*, void const*)
FUNC 10b300 20 0 h_AcidTube_Heal(Entity*, void const*)
FUNC 10b320 20 0 h_AcidTube_Extinguish(Entity*, void const*)
FUNC 10b340 60 0 h_AcidTube_Die(Entity*, void const*)
FUNC 10b3a0 20 0 h_Barricade_Ignite(Entity*, void const*)
FUNC 10b3c0 180 0 h_Barricade_Damage(Entity*, void const*)
FUNC 10b540 20 0 h_Barricade_FreeAt(Entity*, void const*)
FUNC 10b560 80 0 h_Barricade_PrepareNetCode(Entity*, void const*)
FUNC 10b5e0 20 0 h_Barricade_Heal(Entity*, void const*)
FUNC 10b600 20 0 h_Barricade_Extinguish(Entity*, void const*)
FUNC 10b620 1e0 0 h_Barricade_Die(Entity*, void const*)
FUNC 10b800 20 0 h_Booster_Ignite(Entity*, void const*)
FUNC 10b820 e0 0 h_Booster_Damage(Entity*, void const*)
FUNC 10b900 20 0 h_Booster_FreeAt(Entity*, void const*)
FUNC 10b920 80 0 h_Booster_PrepareNetCode(Entity*, void const*)
FUNC 10b9a0 20 0 h_Booster_Heal(Entity*, void const*)
FUNC 10b9c0 20 0 h_Booster_Extinguish(Entity*, void const*)
FUNC 10b9e0 60 0 h_Booster_Die(Entity*, void const*)
FUNC 10ba40 20 0 h_Egg_Ignite(Entity*, void const*)
FUNC 10ba60 e0 0 h_Egg_Damage(Entity*, void const*)
FUNC 10bb40 20 0 h_Egg_FreeAt(Entity*, void const*)
FUNC 10bb60 80 0 h_Egg_PrepareNetCode(Entity*, void const*)
FUNC 10bbe0 c0 0 h_Egg_CheckSpawnPoint(Entity*, void const*)
FUNC 10bca0 20 0 h_Egg_Heal(Entity*, void const*)
FUNC 10bcc0 20 0 h_Egg_Extinguish(Entity*, void const*)
FUNC 10bce0 80 0 h_Egg_Die(Entity*, void const*)
FUNC 10bd60 20 0 h_Hive_Ignite(Entity*, void const*)
FUNC 10bd80 460 0 h_Hive_Damage(Entity*, void const*)
FUNC 10c1e0 20 0 h_Hive_FreeAt(Entity*, void const*)
FUNC 10c200 80 0 h_Hive_PrepareNetCode(Entity*, void const*)
FUNC 10c280 20 0 h_Hive_Heal(Entity*, void const*)
FUNC 10c2a0 20 0 h_Hive_Extinguish(Entity*, void const*)
FUNC 10c2c0 60 0 h_Hive_Die(Entity*, void const*)
FUNC 10c320 20 0 h_Leech_Ignite(Entity*, void const*)
FUNC 10c340 80 0 h_Leech_FinishConstruction(Entity*, void const*)
FUNC 10c3c0 e0 0 h_Leech_Damage(Entity*, void const*)
FUNC 10c4a0 20 0 h_Leech_FreeAt(Entity*, void const*)
FUNC 10c4c0 e0 0 h_Leech_PrepareNetCode(Entity*, void const*)
FUNC 10c5a0 20 0 h_Leech_Heal(Entity*, void const*)
FUNC 10c5c0 20 0 h_Leech_Extinguish(Entity*, void const*)
FUNC 10c5e0 e0 0 h_Leech_Die(Entity*, void const*)
FUNC 10c6c0 540 0 LeechEntity::LeechEntity(LeechEntity::Params)
FUNC 10cc00 20 0 h_Overmind_Ignite(Entity*, void const*)
FUNC 10cc20 40 0 h_Overmind_FinishConstruction(Entity*, void const*)
FUNC 10cc60 180 0 h_Overmind_Damage(Entity*, void const*)
FUNC 10cde0 20 0 h_Overmind_FreeAt(Entity*, void const*)
FUNC 10ce00 e0 0 h_Overmind_PrepareNetCode(Entity*, void const*)
FUNC 10cee0 20 0 h_Overmind_Heal(Entity*, void const*)
FUNC 10cf00 20 0 h_Overmind_Extinguish(Entity*, void const*)
FUNC 10cf20 80 0 h_Overmind_Die(Entity*, void const*)
FUNC 10cfa0 20 0 h_Spiker_Ignite(Entity*, void const*)
FUNC 10cfc0 200 0 h_Spiker_Damage(Entity*, void const*)
FUNC 10d1c0 20 0 h_Spiker_FreeAt(Entity*, void const*)
FUNC 10d1e0 80 0 h_Spiker_PrepareNetCode(Entity*, void const*)
FUNC 10d260 20 0 h_Spiker_Heal(Entity*, void const*)
FUNC 10d280 20 0 h_Spiker_Extinguish(Entity*, void const*)
FUNC 10d2a0 60 0 h_Spiker_Die(Entity*, void const*)
FUNC 10d300 20 0 h_Trapper_Ignite(Entity*, void const*)
FUNC 10d320 e0 0 h_Trapper_Damage(Entity*, void const*)
FUNC 10d400 20 0 h_Trapper_FreeAt(Entity*, void const*)
FUNC 10d420 80 0 h_Trapper_PrepareNetCode(Entity*, void const*)
FUNC 10d4a0 20 0 h_Trapper_Heal(Entity*, void const*)
FUNC 10d4c0 20 0 h_Trapper_Extinguish(Entity*, void const*)
FUNC 10d4e0 60 0 h_Trapper_Die(Entity*, void const*)
FUNC 10d540 20 0 h_Armoury_FreeAt(Entity*, void const*)
FUNC 10d560 20 0 h_Armoury_Heal(Entity*, void const*)
FUNC 10d580 c0 0 h_Armoury_Damage(Entity*, void const*)
FUNC 10d640 40 0 h_Armoury_PrepareNetCode(Entity*, void const*)
FUNC 10d680 40 0 h_Armoury_Die(Entity*, void const*)
FUNC 10d6c0 20 0 h_Drill_FreeAt(Entity*, void const*)
FUNC 10d6e0 80 0 h_Drill_FinishConstruction(Entity*, void const*)
FUNC 10d760 20 0 h_Drill_Heal(Entity*, void const*)
FUNC 10d780 c0 0 h_Drill_Damage(Entity*, void const*)
FUNC 10d840 a0 0 h_Drill_PrepareNetCode(Entity*, void const*)
FUNC 10d8e0 e0 0 h_Drill_Die(Entity*, void const*)
FUNC 10d9c0 20 0 h_Medipad_FreeAt(Entity*, void const*)
FUNC 10d9e0 20 0 h_Medipad_Heal(Entity*, void const*)
FUNC 10da00 c0 0 h_Medipad_Damage(Entity*, void const*)
FUNC 10dac0 40 0 h_Medipad_PrepareNetCode(Entity*, void const*)
FUNC 10db00 c0 0 h_Medipad_Die(Entity*, void const*)
FUNC 10dbc0 c0 0 h_MGTurret_Damage(Entity*, void const*)
FUNC 10dc80 80 0 h_MGTurret_PowerDown(Entity*, void const*)
FUNC 10dd00 20 0 h_MGTurret_FreeAt(Entity*, void const*)
FUNC 10dd20 140 0 h_MGTurret_PrepareNetCode(Entity*, void const*)
FUNC 10de60 20 0 h_MGTurret_PowerUp(Entity*, void const*)
FUNC 10de80 20 0 h_MGTurret_Heal(Entity*, void const*)
FUNC 10dea0 80 0 h_MGTurret_Die(Entity*, void const*)
FUNC 10df20 20 0 h_Reactor_FreeAt(Entity*, void const*)
FUNC 10df40 20 0 h_Reactor_FinishConstruction(Entity*, void const*)
FUNC 10df60 20 0 h_Reactor_Heal(Entity*, void const*)
FUNC 10df80 160 0 h_Reactor_Damage(Entity*, void const*)
FUNC 10e0e0 40 0 h_Reactor_PrepareNetCode(Entity*, void const*)
FUNC 10e120 80 0 h_Reactor_Die(Entity*, void const*)
FUNC 10e1a0 c0 0 h_Rocketpod_Damage(Entity*, void const*)
FUNC 10e260 e0 0 h_Rocketpod_PowerDown(Entity*, void const*)
FUNC 10e340 20 0 h_Rocketpod_FreeAt(Entity*, void const*)
FUNC 10e360 180 0 h_Rocketpod_PrepareNetCode(Entity*, void const*)
FUNC 10e4e0 a0 0 h_Rocketpod_PowerUp(Entity*, void const*)
FUNC 10e580 20 0 h_Rocketpod_Heal(Entity*, void const*)
FUNC 10e5a0 120 0 h_Rocketpod_Die(Entity*, void const*)
FUNC 10e6c0 20 0 h_Telenode_FreeAt(Entity*, void const*)
FUNC 10e6e0 2c0 0 h_Telenode_CheckSpawnPoint(Entity*, void const*)
FUNC 10e9a0 20 0 h_Telenode_Heal(Entity*, void const*)
FUNC 10e9c0 c0 0 h_Telenode_Damage(Entity*, void const*)
FUNC 10ea80 40 0 h_Telenode_PrepareNetCode(Entity*, void const*)
FUNC 10eac0 60 0 h_Telenode_Die(Entity*, void const*)
FUNC 10eb20 20 0 h_Fire_Ignite(Entity*, void const*)
FUNC 10eb40 20 0 h_Fire_Extinguish(Entity*, void const*)
FUNC 10eb60 40 0 h_Fire_PrepareNetCode(Entity*, void const*)
FUNC 10eba0 20 0 h_Fire_FreeAt(Entity*, void const*)
FUNC 10ebc0 200 0 FireEntity::FireEntity(FireEntity::Params)
FUNC 10edc0 20 0 Entity::~Entity()
FUNC 10ede0 20 0 EmptyEntity::~EmptyEntity()
FUNC 10ee00 60 0 <name omitted>
FUNC 10ee60 60 0 ClientEntity::~ClientEntity()
FUNC 10eec0 80 0 <name omitted>
FUNC 10ef40 80 0 SpectatorEntity::~SpectatorEntity()
FUNC 10efc0 e0 0 <name omitted>
FUNC 10f0a0 e0 0 DretchEntity::~DretchEntity()
FUNC 10f180 e0 0 <name omitted>
FUNC 10f260 e0 0 MantisEntity::~MantisEntity()
FUNC 10f340 e0 0 <name omitted>
FUNC 10f420 e0 0 MarauderEntity::~MarauderEntity()
FUNC 10f500 e0 0 <name omitted>
FUNC 10f5e0 e0 0 AdvMarauderEntity::~AdvMarauderEntity()
FUNC 10f6c0 e0 0 <name omitted>
FUNC 10f7a0 e0 0 DragoonEntity::~DragoonEntity()
FUNC 10f880 e0 0 <name omitted>
FUNC 10f960 e0 0 AdvDragoonEntity::~AdvDragoonEntity()
FUNC 10fa40 e0 0 <name omitted>
FUNC 10fb20 e0 0 TyrantEntity::~TyrantEntity()
FUNC 10fc00 e0 0 <name omitted>
FUNC 10fce0 e0 0 GrangerEntity::~GrangerEntity()
FUNC 10fdc0 e0 0 <name omitted>
FUNC 10fea0 e0 0 AdvGrangerEntity::~AdvGrangerEntity()
FUNC 10ff80 e0 0 <name omitted>
FUNC 110060 e0 0 NakedHumanEntity::~NakedHumanEntity()
FUNC 110140 e0 0 <name omitted>
FUNC 110220 e0 0 LightHumanEntity::~LightHumanEntity()
FUNC 110300 e0 0 <name omitted>
FUNC 1103e0 e0 0 MediumHumanEntity::~MediumHumanEntity()
FUNC 1104c0 e0 0 <name omitted>
FUNC 1105a0 e0 0 HeavyHumanEntity::~HeavyHumanEntity()
FUNC 110680 120 0 AcidTubeEntity::~AcidTubeEntity()
FUNC 1107a0 40 0 AcidTubeEntity::~AcidTubeEntity()
FUNC 1107e0 220 0 BarricadeEntity::~BarricadeEntity()
FUNC 110a00 40 0 BarricadeEntity::~BarricadeEntity()
FUNC 110a40 220 0 BoosterEntity::~BoosterEntity()
FUNC 110c60 40 0 BoosterEntity::~BoosterEntity()
FUNC 110ca0 240 0 EggEntity::~EggEntity()
FUNC 110ee0 40 0 EggEntity::~EggEntity()
FUNC 110f20 120 0 HiveEntity::~HiveEntity()
FUNC 111040 40 0 HiveEntity::~HiveEntity()
FUNC 111080 140 0 OvermindEntity::~OvermindEntity()
FUNC 1111c0 40 0 OvermindEntity::~OvermindEntity()
FUNC 111200 120 0 SpikerEntity::~SpikerEntity()
FUNC 111320 40 0 SpikerEntity::~SpikerEntity()
FUNC 111360 220 0 TrapperEntity::~TrapperEntity()
FUNC 111580 40 0 TrapperEntity::~TrapperEntity()
FUNC 1115c0 100 0 <name omitted>
FUNC 1116c0 100 0 ArmouryEntity::~ArmouryEntity()
FUNC 1117c0 220 0 DrillEntity::~DrillEntity()
FUNC 1119e0 40 0 DrillEntity::~DrillEntity()
FUNC 111a20 100 0 <name omitted>
FUNC 111b20 100 0 MedipadEntity::~MedipadEntity()
FUNC 111c20 120 0 MGTurretEntity::~MGTurretEntity()
FUNC 111d40 40 0 MGTurretEntity::~MGTurretEntity()
FUNC 111d80 120 0 ReactorEntity::~ReactorEntity()
FUNC 111ea0 40 0 ReactorEntity::~ReactorEntity()
FUNC 111ee0 120 0 RocketpodEntity::~RocketpodEntity()
FUNC 112000 40 0 RocketpodEntity::~RocketpodEntity()
FUNC 112040 220 0 TelenodeEntity::~TelenodeEntity()
FUNC 112260 40 0 TelenodeEntity::~TelenodeEntity()
FUNC 1122a0 80 0 <name omitted>
FUNC 112320 80 0 FireEntity::~FireEntity()
FUNC 1123a0 100 0 unsigned int std::__1::__tree<MedipadComponent*, std::__1::less<MedipadComponent*>, std::__1::allocator<MedipadComponent*> >::__erase_unique<MedipadComponent*>(MedipadComponent* const&)
FUNC 1124a0 100 0 unsigned int std::__1::__tree<ArmouryComponent*, std::__1::less<ArmouryComponent*>, std::__1::allocator<ArmouryComponent*> >::__erase_unique<ArmouryComponent*>(ArmouryComponent* const&)
FUNC 1125a0 100 0 unsigned int std::__1::__tree<HumanClassComponent*, std::__1::less<HumanClassComponent*>, std::__1::allocator<HumanClassComponent*> >::__erase_unique<HumanClassComponent*>(HumanClassComponent* const&)
FUNC 1126a0 100 0 unsigned int std::__1::__tree<AlienClassComponent*, std::__1::less<AlienClassComponent*>, std::__1::allocator<AlienClassComponent*> >::__erase_unique<AlienClassComponent*>(AlienClassComponent* const&)
FUNC 1127a0 100 0 unsigned int std::__1::__tree<SpectatorComponent*, std::__1::less<SpectatorComponent*>, std::__1::allocator<SpectatorComponent*> >::__erase_unique<SpectatorComponent*>(SpectatorComponent* const&)
FUNC 1128a0 100 0 unsigned int std::__1::__tree<HumanBuildableComponent*, std::__1::less<HumanBuildableComponent*>, std::__1::allocator<HumanBuildableComponent*> >::__erase_unique<HumanBuildableComponent*>(HumanBuildableComponent* const&)
FUNC 1129a0 100 0 unsigned int std::__1::__tree<MainBuildableComponent*, std::__1::less<MainBuildableComponent*>, std::__1::allocator<MainBuildableComponent*> >::__erase_unique<MainBuildableComponent*>(MainBuildableComponent* const&)
FUNC 112aa0 100 0 unsigned int std::__1::__tree<ArmorComponent*, std::__1::less<ArmorComponent*>, std::__1::allocator<ArmorComponent*> >::__erase_unique<ArmorComponent*>(ArmorComponent* const&)
FUNC 112ba0 100 0 unsigned int std::__1::__tree<KnockbackComponent*, std::__1::less<KnockbackComponent*>, std::__1::allocator<KnockbackComponent*> >::__erase_unique<KnockbackComponent*>(KnockbackComponent* const&)
FUNC 112ca0 100 0 unsigned int std::__1::__tree<ClientComponent*, std::__1::less<ClientComponent*>, std::__1::allocator<ClientComponent*> >::__erase_unique<ClientComponent*>(ClientComponent* const&)
FUNC 112da0 80 0 std::__1::__tree<TelenodeComponent*, std::__1::less<TelenodeComponent*>, std::__1::allocator<TelenodeComponent*> >::destroy(std::__1::__tree_node<TelenodeComponent*, void*>*)
FUNC 112e20 80 0 std::__1::__tree<RocketpodComponent*, std::__1::less<RocketpodComponent*>, std::__1::allocator<RocketpodComponent*> >::destroy(std::__1::__tree_node<RocketpodComponent*, void*>*)
FUNC 112ea0 80 0 std::__1::__tree<ReactorComponent*, std::__1::less<ReactorComponent*>, std::__1::allocator<ReactorComponent*> >::destroy(std::__1::__tree_node<ReactorComponent*, void*>*)
FUNC 112f20 80 0 std::__1::__tree<MGTurretComponent*, std::__1::less<MGTurretComponent*>, std::__1::allocator<MGTurretComponent*> >::destroy(std::__1::__tree_node<MGTurretComponent*, void*>*)
FUNC 112fa0 80 0 std::__1::__tree<MedipadComponent*, std::__1::less<MedipadComponent*>, std::__1::allocator<MedipadComponent*> >::destroy(std::__1::__tree_node<MedipadComponent*, void*>*)
FUNC 113020 80 0 std::__1::__tree<DrillComponent*, std::__1::less<DrillComponent*>, std::__1::allocator<DrillComponent*> >::destroy(std::__1::__tree_node<DrillComponent*, void*>*)
FUNC 1130a0 80 0 std::__1::__tree<ArmouryComponent*, std::__1::less<ArmouryComponent*>, std::__1::allocator<ArmouryComponent*> >::destroy(std::__1::__tree_node<ArmouryComponent*, void*>*)
FUNC 113120 80 0 std::__1::__tree<TrapperComponent*, std::__1::less<TrapperComponent*>, std::__1::allocator<TrapperComponent*> >::destroy(std::__1::__tree_node<TrapperComponent*, void*>*)
FUNC 1131a0 80 0 std::__1::__tree<SpikerComponent*, std::__1::less<SpikerComponent*>, std::__1::allocator<SpikerComponent*> >::destroy(std::__1::__tree_node<SpikerComponent*, void*>*)
FUNC 113220 80 0 std::__1::__tree<OvermindComponent*, std::__1::less<OvermindComponent*>, std::__1::allocator<OvermindComponent*> >::destroy(std::__1::__tree_node<OvermindComponent*, void*>*)
FUNC 1132a0 80 0 std::__1::__tree<LeechComponent*, std::__1::less<LeechComponent*>, std::__1::allocator<LeechComponent*> >::destroy(std::__1::__tree_node<LeechComponent*, void*>*)
FUNC 113320 80 0 std::__1::__tree<HiveComponent*, std::__1::less<HiveComponent*>, std::__1::allocator<HiveComponent*> >::destroy(std::__1::__tree_node<HiveComponent*, void*>*)
FUNC 1133a0 80 0 std::__1::__tree<EggComponent*, std::__1::less<EggComponent*>, std::__1::allocator<EggComponent*> >::destroy(std::__1::__tree_node<EggComponent*, void*>*)
FUNC 113420 80 0 std::__1::__tree<BoosterComponent*, std::__1::less<BoosterComponent*>, std::__1::allocator<BoosterComponent*> >::destroy(std::__1::__tree_node<BoosterComponent*, void*>*)
FUNC 1134a0 80 0 std::__1::__tree<BarricadeComponent*, std::__1::less<BarricadeComponent*>, std::__1::allocator<BarricadeComponent*> >::destroy(std::__1::__tree_node<BarricadeComponent*, void*>*)
FUNC 113520 80 0 std::__1::__tree<AcidTubeComponent*, std::__1::less<AcidTubeComponent*>, std::__1::allocator<AcidTubeComponent*> >::destroy(std::__1::__tree_node<AcidTubeComponent*, void*>*)
FUNC 1135a0 80 0 std::__1::__tree<MiningComponent*, std::__1::less<MiningComponent*>, std::__1::allocator<MiningComponent*> >::destroy(std::__1::__tree_node<MiningComponent*, void*>*)
FUNC 113620 80 0 std::__1::__tree<TurretComponent*, std::__1::less<TurretComponent*>, std::__1::allocator<TurretComponent*> >::destroy(std::__1::__tree_node<TurretComponent*, void*>*)
FUNC 1136a0 80 0 std::__1::__tree<SpawnerComponent*, std::__1::less<SpawnerComponent*>, std::__1::allocator<SpawnerComponent*> >::destroy(std::__1::__tree_node<SpawnerComponent*, void*>*)
FUNC 113720 80 0 std::__1::__tree<MainBuildableComponent*, std::__1::less<MainBuildableComponent*>, std::__1::allocator<MainBuildableComponent*> >::destroy(std::__1::__tree_node<MainBuildableComponent*, void*>*)
FUNC 1137a0 80 0 std::__1::__tree<HumanBuildableComponent*, std::__1::less<HumanBuildableComponent*>, std::__1::allocator<HumanBuildableComponent*> >::destroy(std::__1::__tree_node<HumanBuildableComponent*, void*>*)
FUNC 113820 80 0 std::__1::__tree<AlienBuildableComponent*, std::__1::less<AlienBuildableComponent*>, std::__1::allocator<AlienBuildableComponent*> >::destroy(std::__1::__tree_node<AlienBuildableComponent*, void*>*)
FUNC 1138a0 80 0 std::__1::__tree<BuildableComponent*, std::__1::less<BuildableComponent*>, std::__1::allocator<BuildableComponent*> >::destroy(std::__1::__tree_node<BuildableComponent*, void*>*)
FUNC 113920 80 0 std::__1::__tree<HumanClassComponent*, std::__1::less<HumanClassComponent*>, std::__1::allocator<HumanClassComponent*> >::destroy(std::__1::__tree_node<HumanClassComponent*, void*>*)
FUNC 1139a0 80 0 std::__1::__tree<AlienClassComponent*, std::__1::less<AlienClassComponent*>, std::__1::allocator<AlienClassComponent*> >::destroy(std::__1::__tree_node<AlienClassComponent*, void*>*)
FUNC 113a20 80 0 std::__1::__tree<SpectatorComponent*, std::__1::less<SpectatorComponent*>, std::__1::allocator<SpectatorComponent*> >::destroy(std::__1::__tree_node<SpectatorComponent*, void*>*)
FUNC 113aa0 80 0 std::__1::__tree<KnockbackComponent*, std::__1::less<KnockbackComponent*>, std::__1::allocator<KnockbackComponent*> >::destroy(std::__1::__tree_node<KnockbackComponent*, void*>*)
FUNC 113b20 80 0 std::__1::__tree<ArmorComponent*, std::__1::less<ArmorComponent*>, std::__1::allocator<ArmorComponent*> >::destroy(std::__1::__tree_node<ArmorComponent*, void*>*)
FUNC 113ba0 80 0 std::__1::__tree<ClientComponent*, std::__1::less<ClientComponent*>, std::__1::allocator<ClientComponent*> >::destroy(std::__1::__tree_node<ClientComponent*, void*>*)
FUNC 113c20 80 0 std::__1::__tree<HealthComponent*, std::__1::less<HealthComponent*>, std::__1::allocator<HealthComponent*> >::destroy(std::__1::__tree_node<HealthComponent*, void*>*)
FUNC 113ca0 80 0 std::__1::__tree<IgnitableComponent*, std::__1::less<IgnitableComponent*>, std::__1::allocator<IgnitableComponent*> >::destroy(std::__1::__tree_node<IgnitableComponent*, void*>*)
FUNC 113d20 80 0 std::__1::__tree<TeamComponent*, std::__1::less<TeamComponent*>, std::__1::allocator<TeamComponent*> >::destroy(std::__1::__tree_node<TeamComponent*, void*>*)
FUNC 113da0 80 0 std::__1::__tree<ThinkingComponent*, std::__1::less<ThinkingComponent*>, std::__1::allocator<ThinkingComponent*> >::destroy(std::__1::__tree_node<ThinkingComponent*, void*>*)
FUNC 113e20 80 0 std::__1::__tree<DeferredFreeingComponent*, std::__1::less<DeferredFreeingComponent*>, std::__1::allocator<DeferredFreeingComponent*> >::destroy(std::__1::__tree_node<DeferredFreeingComponent*, void*>*)
FUNC 113ea0 880 0 <name omitted>
FUNC 114720 100 0 IPC::SharedMemory::~SharedMemory()
FUNC 114820 1200 0 trap_LocateGameData(int, int, playerState_t*, int)
FUNC 115a20 be0 0 trap_SendServerCommand(int, char const*)
FUNC 116600 780 0 trap_GetUserinfo(int, char*, int)
FUNC 116d80 d00 0 trap_GetEntityToken(char*, int)
FUNC 117a80 860 0 trap_RSA_GenerateMessage(char const*, char*, char*)
FUNC 1182e0 780 0 trap_GetPlayerPubkey(int, char*, int)
FUNC 118a60 120 0 trap_QuoteString(char const*, char*, int)
FUNC 118b80 800 0 trap_BotGetServerCommand(int, char*, int)
FUNC 119380 740 0 trap_BotRemoveObstacle(int)
FUNC 119ac0 260 0 void IPC::detail::SendMsg<void (&)(unsigned int, Util::Reader), IPC::Id<(unsigned short)0, (unsigned short)34>>(IPC::Channel&, void (&)(unsigned int, Util::Reader), IPC::Message<IPC::Id<(unsigned short)0, (unsigned short)34>>)
FUNC 119d20 460 0 std::__1::basic_string<char, IPC::Message<IPC::Id<(unsigned short)0, (unsigned short)34>>::{unnamed type#1}::char_traits<char>, IPC::Message<IPC::Id<(unsigned short)0, (unsigned short)34>>::{unnamed type#1}::allocator<char> > tinyformat::format<IPC::Message<IPC::Id<(unsigned short)0, (unsigned short)34>>::{unnamed type#1}>(char const*, IPC::Message<IPC::Id<(unsigned short)0, (unsigned short)34>>::{unnamed type#1} const&)
FUNC 11a180 520 0 void tinyformat::detail::FormatArg::formatImpl<IPC::Message<IPC::Id<(unsigned short)0, (unsigned short)34>>::{unnamed type#1}>(std::__1::basic_ostream<char, IPC::Message<IPC::Id<(unsigned short)0, (unsigned short)34>>::{unnamed type#1}::char_traits<char> >&, char const*, char const, int, void const*)
FUNC 11a6a0 20 0 int tinyformat::detail::FormatArg::toIntImpl<IPC::Message<IPC::Id<(unsigned short)0, (unsigned short)34>>::{unnamed type#1}>(void const*)
FUNC 11a6c0 520 0 void tinyformat::detail::FormatArg::formatImpl<IPC::Message<IPC::Id<(unsigned short)0, (unsigned short)33>, int>::{unnamed type#1}>(std::__1::basic_ostream<char, IPC::Message<IPC::Id<(unsigned short)0, (unsigned short)33>, int>::{unnamed type#1}::char_traits<char> >&, char const*, char const, int, void const*)
FUNC 11abe0 20 0 int tinyformat::detail::FormatArg::toIntImpl<IPC::Message<IPC::Id<(unsigned short)0, (unsigned short)33>, int>::{unnamed type#1}>(void const*)
FUNC 11ac00 660 0 void IPC::detail::SendMsg<void (&)(unsigned int, Util::Reader), IPC::Message<IPC::Id<(unsigned short)0, (unsigned short)32>, std::__1::array<float, 3u>, std::__1::array<float, 3u> >, IPC::Reply<int>, std::__1::array<float, 3u>&, std::__1::array<float, 3u>&, int&>(IPC::Channel&, void (&)(unsigned int, Util::Reader), IPC::SyncMessage<IPC::Message<IPC::Id<(unsigned short)0, (unsigned short)32>, std::__1::array<float, 3u>, std::__1::array<float, 3u> >, IPC::Reply<int> >, std::__1::array<float, 3u>&, std::__1::array<float, 3u>&, int&)
FUNC 11b260 1a0 0 IPC::Channel::RecvReplyMsg()
FUNC 11b400 460 0 std::__1::basic_string<char, std::__1::char_traits<char>, std::__1::allocator<char> > tinyformat::format<IPC::SyncMessage<IPC::Message<IPC::Id<(unsigned short)0, (unsigned short)32>, std::__1::array<float, 3u>, std::__1::array<float, 3u> >, IPC::Reply<int> >::{unnamed type#1}>(char const*, IPC::SyncMessage<IPC::Message<IPC::Id<(unsigned short)0, (unsigned short)32>, std::__1::array<float, 3u>, std::__1::array<float, 3u> >, IPC::Reply<int> >::{unnamed type#1} const&)
FUNC 11b860 520 0 void tinyformat::detail::FormatArg::formatImpl<IPC::SyncMessage<IPC::Message<IPC::Id<(unsigned short)0, (unsigned short)32>, std::__1::array<float, 3u>, std::__1::array<float, 3u> >, IPC::Reply<int> >::{unnamed type#1}>(std::__1::basic_ostream<char, std::__1::char_traits<char> >&, char const*, char const, int, void const*)
FUNC 11bd80 20 0 int tinyformat::detail::FormatArg::toIntImpl<IPC::SyncMessage<IPC::Message<IPC::Id<(unsigned short)0, (unsigned short)32>, std::__1::array<float, 3u>, std::__1::array<float, 3u> >, IPC::Reply<int> >::{unnamed type#1}>(void const*)
FUNC 11bda0 520 0 void tinyformat::detail::FormatArg::formatImpl<IPC::SyncMessage<IPC::Message<IPC::Id<(unsigned short)0, (unsigned short)29>, int, std::__1::array<float, 3u>, float>, IPC::Reply<int, std::__1::array<float, 3u> > >::{unnamed type#1}>(std::__1::basic_ostream<char, std::__1::char_traits<char> >&, char const*, char const, int, void const*)
FUNC 11c2c0 20 0 int tinyformat::detail::FormatArg::toIntImpl<IPC::SyncMessage<IPC::Message<IPC::Id<(unsigned short)0, (unsigned short)29>, int, std::__1::array<float, 3u>, float>, IPC::Reply<int, std::__1::array<float, 3u> > >::{unnamed type#1}>(void const*)
FUNC 11c2e0 520 0 void tinyformat::detail::FormatArg::formatImpl<IPC::SyncMessage<IPC::Message<IPC::Id<(unsigned short)0, (unsigned short)28>, int>, IPC::Reply<std::__1::array<float, 3u> > >::{unnamed type#1}>(std::__1::basic_ostream<char, std::__1::char_traits<char> >&, char const*, char const, int, void const*)
FUNC 11c800 20 0 int tinyformat::detail::FormatArg::toIntImpl<IPC::SyncMessage<IPC::Message<IPC::Id<(unsigned short)0, (unsigned short)28>, int>, IPC::Reply<std::__1::array<float, 3u> > >::{unnamed type#1}>(void const*)
FUNC 11c820 520 0 void tinyformat::detail::FormatArg::formatImpl<IPC::SyncMessage<IPC::Message<IPC::Id<(unsigned short)0, (unsigned short)27>, int, std::__1::array<float, 3u>, std::__1::array<float, 3u> >, IPC::Reply<int, botTrace_t> >::{unnamed type#1}>(std::__1::basic_ostream<char, std::__1::char_traits<char> >&, char const*, char const, int, void const*)
FUNC 11cd40 20 0 int tinyformat::detail::FormatArg::toIntImpl<IPC::SyncMessage<IPC::Message<IPC::Id<(unsigned short)0, (unsigned short)27>, int, std::__1::array<float, 3u>, std::__1::array<float, 3u> >, IPC::Reply<int, botTrace_t> >::{unnamed type#1}>(void const*)
FUNC 11cd60 680 0 void IPC::detail::SendMsg<void (&)(unsigned int, Util::Reader), IPC::Message<IPC::Id<(unsigned short)0, (unsigned short)26>, int, botRouteTarget_t>, IPC::Reply<botNavCmd_t>, int&, botRouteTarget_t const&, botNavCmd_t&>(IPC::Channel&, void (&)(unsigned int, Util::Reader), IPC::SyncMessage<IPC::Message<IPC::Id<(unsigned short)0, (unsigned short)26>, int, botRouteTarget_t>, IPC::Reply<botNavCmd_t> >, int&, botRouteTarget_t const&, botNavCmd_t&)
FUNC 11d3e0 460 0 std::__1::basic_string<char, IPC::SyncMessage<IPC::Message<IPC::Id<(unsigned short)0, (unsigned short)26>, int, botRouteTarget_t>, IPC::Reply<botNavCmd_t> >::{unnamed type#1}::char_traits<char>, IPC::SyncMessage<IPC::Message<IPC::Id<(unsigned short)0, (unsigned short)26>, int, botRouteTarget_t>, IPC::Reply<botNavCmd_t> >::{unnamed type#1}::allocator<char> > tinyformat::format<IPC::SyncMessage<IPC::Message<IPC::Id<(unsigned short)0, (unsigned short)26>, int, botRouteTarget_t>, IPC::Reply<botNavCmd_t> >::{unnamed type#1}>(char const*, IPC::SyncMessage<IPC::Message<IPC::Id<(unsigned short)0, (unsigned short)26>, int, botRouteTarget_t>, IPC::Reply<botNavCmd_t> >::{unnamed type#1} const&)
FUNC 11d840 520 0 void tinyformat::detail::FormatArg::formatImpl<IPC::SyncMessage<IPC::Message<IPC::Id<(unsigned short)0, (unsigned short)26>, int, botRouteTarget_t>, IPC::Reply<botNavCmd_t> >::{unnamed type#1}>(std::__1::basic_ostream<char, IPC::SyncMessage<IPC::Message<IPC::Id<(unsigned short)0, (unsigned short)26>, int, botRouteTarget_t>, IPC::Reply<botNavCmd_t> >::{unnamed type#1}::char_traits<char> >&, char const*, char const, int, void const*)
FUNC 11dd60 20 0 int tinyformat::detail::FormatArg::toIntImpl<IPC::SyncMessage<IPC::Message<IPC::Id<(unsigned short)0, (unsigned short)26>, int, botRouteTarget_t>, IPC::Reply<botNavCmd_t> >::{unnamed type#1}>(void const*)
FUNC 11dd80 520 0 void tinyformat::detail::FormatArg::formatImpl<IPC::SyncMessage<IPC::Message<IPC::Id<(unsigned short)0, (unsigned short)25>, int, botRouteTarget_t, bool>, IPC::Reply<int> >::{unnamed type#1}>(std::__1::basic_ostream<char, IPC::SyncMessage<IPC::Message<IPC::Id<(unsigned short)0, (unsigned short)25>, int, botRouteTarget_t, bool>, IPC::Reply<int> >::{unnamed type#1}::char_traits<char> >&, char const*, char const, int, void const*)
FUNC 11e2a0 20 0 int tinyformat::detail::FormatArg::toIntImpl<IPC::SyncMessage<IPC::Message<IPC::Id<(unsigned short)0, (unsigned short)25>, int, botRouteTarget_t, bool>, IPC::Reply<int> >::{unnamed type#1}>(void const*)
FUNC 11e2c0 2e0 0 void IPC::detail::SendMsg<void (&)(unsigned int, Util::Reader), IPC::Id<(unsigned short)0, (unsigned short)24>, int, int, int&, int&>(IPC::Channel&, void (&)(unsigned int, Util::Reader), IPC::Message<IPC::Id<(unsigned short)0, (unsigned short)24>, int, int>, int&, int&)
FUNC 11e5a0 460 0 std::__1::basic_string<char, IPC::Message<IPC::Id<(unsigned short)0, (unsigned short)24>, int, int>::{unnamed type#1}::char_traits<char>, IPC::Message<IPC::Id<(unsigned short)0, (unsigned short)24>, int, int>::{unnamed type#1}::allocator<char> > tinyformat::format<IPC::Message<IPC::Id<(unsigned short)0, (unsigned short)24>, int, int>::{unnamed type#1}>(char const*, IPC::Message<IPC::Id<(unsigned short)0, (unsigned short)24>, int, int>::{unnamed type#1} const&)
FUNC 11ea00 520 0 void tinyformat::detail::FormatArg::formatImpl<IPC::Message<IPC::Id<(unsigned short)0, (unsigned short)24>, int, int>::{unnamed type#1}>(std::__1::basic_ostream<char, IPC::Message<IPC::Id<(unsigned short)0, (unsigned short)24>, int, int>::{unnamed type#1}::char_traits<char> >&, char const*, char const, int, void const*)
FUNC 11ef20 20 0 int tinyformat::detail::FormatArg::toIntImpl<IPC::Message<IPC::Id<(unsigned short)0, (unsigned short)24>, int, int>::{unnamed type#1}>(void const*)
FUNC 11ef40 260 0 void IPC::detail::SendMsg<void (&)(unsigned int, Util::Reader), IPC::Id<(unsigned short)0, (unsigned short)23>>(IPC::Channel&, void (&)(unsigned int, Util::Reader), IPC::Message<IPC::Id<(unsigned short)0, (unsigned short)23>>)
FUNC 11f1a0 460 0 std::__1::basic_string<char, IPC::Message<IPC::Id<(unsigned short)0, (unsigned short)23>>::{unnamed type#1}::char_traits<char>, IPC::Message<IPC::Id<(unsigned short)0, (unsigned short)23>>::{unnamed type#1}::allocator<char> > tinyformat::format<IPC::Message<IPC::Id<(unsigned short)0, (unsigned short)23>>::{unnamed type#1}>(char const*, IPC::Message<IPC::Id<(unsigned short)0, (unsigned short)23>>::{unnamed type#1} const&)
FUNC 11f600 520 0 void tinyformat::detail::FormatArg::formatImpl<IPC::Message<IPC::Id<(unsigned short)0, (unsigned short)23>>::{unnamed type#1}>(std::__1::basic_ostream<char, IPC::Message<IPC::Id<(unsigned short)0, (unsigned short)23>>::{unnamed type#1}::char_traits<char> >&, char const*, char const, int, void const*)
FUNC 11fb20 20 0 int tinyformat::detail::FormatArg::toIntImpl<IPC::Message<IPC::Id<(unsigned short)0, (unsigned short)23>>::{unnamed type#1}>(void const*)
FUNC 11fb40 520 0 void tinyformat::detail::FormatArg::formatImpl<IPC::SyncMessage<IPC::Message<IPC::Id<(unsigned short)0, (unsigned short)22>, botClass_t>, IPC::Reply<int, int> >::{unnamed type#1}>(std::__1::basic_ostream<char, IPC::SyncMessage<IPC::Message<IPC::Id<(unsigned short)0, (unsigned short)22>, botClass_t>, IPC::Reply<int, int> >::{unnamed type#1}::char_traits<char> >&, char const*, char const, int, void const*)
FUNC 120060 20 0 int tinyformat::detail::FormatArg::toIntImpl<IPC::SyncMessage<IPC::Message<IPC::Id<(unsigned short)0, (unsigned short)22>, botClass_t>, IPC::Reply<int, int> >::{unnamed type#1}>(void const*)
FUNC 120080 480 0 void Sys::Drop<IPC::SyncMessage<IPC::Message<IPC::Id<(unsigned short)0, (unsigned short)21>, int, int>, IPC::Reply<int, std::__1::basic_string<char, std::__1::char_traits<char>, std::__1::allocator<char> > > >::{unnamed type#1}>(Str::BasicStringRef<char>, IPC::SyncMessage<IPC::Message<IPC::Id<(unsigned short)0, (unsigned short)21>, int, int>, IPC::Reply<int, std::__1::basic_string<char, std::__1::char_traits<char>, std::__1::allocator<char> > > >::{unnamed type#1}&&)
FUNC 120500 520 0 void tinyformat::detail::FormatArg::formatImpl<IPC::SyncMessage<IPC::Message<IPC::Id<(unsigned short)0, (unsigned short)21>, int, int>, IPC::Reply<int, std::__1::basic_string<char, std::__1::char_traits<char>, std::__1::allocator<char> > > >::{unnamed type#1}>(std::__1::basic_ostream<char, std::__1::char_traits<char> >&, char const*, char const, int, void const*)
FUNC 120a20 20 0 int tinyformat::detail::FormatArg::toIntImpl<IPC::SyncMessage<IPC::Message<IPC::Id<(unsigned short)0, (unsigned short)21>, int, int>, IPC::Reply<int, std::__1::basic_string<char, std::__1::char_traits<char>, std::__1::allocator<char> > > >::{unnamed type#1}>(void const*)
FUNC 120a40 5e0 0 void IPC::detail::SendMsg<void (&)(unsigned int, Util::Reader), IPC::Message<IPC::Id<(unsigned short)0, (unsigned short)19>>, IPC::Reply<int>, int&>(IPC::Channel&, void (&)(unsigned int, Util::Reader), IPC::SyncMessage<IPC::Message<IPC::Id<(unsigned short)0, (unsigned short)19>>, IPC::Reply<int> >, int&)
FUNC 121020 460 0 std::__1::basic_string<char, IPC::SyncMessage<IPC::Message<IPC::Id<(unsigned short)0, (unsigned short)19>>, IPC::Reply<int> >::{unnamed type#1}::char_traits<char>, IPC::SyncMessage<IPC::Message<IPC::Id<(unsigned short)0, (unsigned short)19>>, IPC::Reply<int> >::{unnamed type#1}::allocator<char> > tinyformat::format<IPC::SyncMessage<IPC::Message<IPC::Id<(unsigned short)0, (unsigned short)19>>, IPC::Reply<int> >::{unnamed type#1}>(char const*, IPC::SyncMessage<IPC::Message<IPC::Id<(unsigned short)0, (unsigned short)19>>, IPC::Reply<int> >::{unnamed type#1} const&)
FUNC 121480 520 0 void tinyformat::detail::FormatArg::formatImpl<IPC::SyncMessage<IPC::Message<IPC::Id<(unsigned short)0, (unsigned short)19>>, IPC::Reply<int> >::{unnamed type#1}>(std::__1::basic_ostream<char, IPC::SyncMessage<IPC::Message<IPC::Id<(unsigned short)0, (unsigned short)19>>, IPC::Reply<int> >::{unnamed type#1}::char_traits<char> >&, char const*, char const, int, void const*)
FUNC 1219a0 20 0 int tinyformat::detail::FormatArg::toIntImpl<IPC::SyncMessage<IPC::Message<IPC::Id<(unsigned short)0, (unsigned short)19>>, IPC::Reply<int> >::{unnamed type#1}>(void const*)
FUNC 1219c0 520 0 void tinyformat::detail::FormatArg::formatImpl<IPC::SyncMessage<IPC::Message<IPC::Id<(unsigned short)0, (unsigned short)18>, int, std::__1::basic_string<char, std::__1::char_traits<char>, std::__1::allocator<char> >, qtime_t>, IPC::Reply<std::__1::basic_string<char, std::__1::char_traits<char>, std::__1::allocator<char> > > >::{unnamed type#1}>(std::__1::basic_ostream<char, std::__1::char_traits<char> >&, char const*, char const, int, void const*)
FUNC 121ee0 20 0 int tinyformat::detail::FormatArg::toIntImpl<IPC::SyncMessage<IPC::Message<IPC::Id<(unsigned short)0, (unsigned short)18>, int, std::__1::basic_string<char, std::__1::char_traits<char>, std::__1::allocator<char> >, qtime_t>, IPC::Reply<std::__1::basic_string<char, std::__1::char_traits<char>, std::__1::allocator<char> > > >::{unnamed type#1}>(void const*)
FUNC 121f00 480 0 void Sys::Drop<IPC::SyncMessage<IPC::Message<IPC::Id<(unsigned short)0, (unsigned short)17>, int, int>, IPC::Reply<std::__1::basic_string<char, std::__1::char_traits<char>, std::__1::allocator<char> > > >::{unnamed type#1}>(Str::BasicStringRef<char>, IPC::SyncMessage<IPC::Message<IPC::Id<(unsigned short)0, (unsigned short)17>, int, int>, IPC::Reply<std::__1::basic_string<char, std::__1::char_traits<char>, std::__1::allocator<char> > > >::{unnamed type#1}&&)
FUNC 122380 520 0 void tinyformat::detail::FormatArg::formatImpl<IPC::SyncMessage<IPC::Message<IPC::Id<(unsigned short)0, (unsigned short)17>, int, int>, IPC::Reply<std::__1::basic_string<char, std::__1::char_traits<char>, std::__1::allocator<char> > > >::{unnamed type#1}>(std::__1::basic_ostream<char, std::__1::char_traits<char> >&, char const*, char const, int, void const*)
FUNC 1228a0 20 0 int tinyformat::detail::FormatArg::toIntImpl<IPC::SyncMessage<IPC::Message<IPC::Id<(unsigned short)0, (unsigned short)17>, int, int>, IPC::Reply<std::__1::basic_string<char, std::__1::char_traits<char>, std::__1::allocator<char> > > >::{unnamed type#1}>(void const*)
FUNC 1228c0 7c0 0 void IPC::detail::SendMsg<void (&)(unsigned int, Util::Reader), IPC::Message<IPC::Id<(unsigned short)0, (unsigned short)16>, int, std::__1::vector<char, std::__1::allocator<char> >, int>, IPC::Reply<std::__1::basic_string<char, std::__1::char_traits<char>, std::__1::allocator<char> > >, int&, std::__1::vector<char, std::__1::allocator<char> >&, int&, std::__1::basic_string<char, std::__1::char_traits<char>, std::__1::allocator<char> >&>(IPC::Channel&, void (&)(unsigned int, Util::Reader), IPC::SyncMessage<IPC::Message<IPC::Id<(unsigned short)0, (unsigned short)16>, int, std::__1::vector<char, std::__1::allocator<char> >, int>, IPC::Reply<std::__1::basic_string<char, std::__1::char_traits<char>, std::__1::allocator<char> > > >, int&, std::__1::vector<char, std::__1::allocator<char> >&, int&, std::__1::basic_string<char, std::__1::char_traits<char>, std::__1::allocator<char> >&)
FUNC 123080 460 0 std::__1::basic_string<char, std::__1::char_traits<char>, std::__1::allocator<char> > tinyformat::format<IPC::SyncMessage<IPC::Message<IPC::Id<(unsigned short)0, (unsigned short)16>, int, std::__1::vector<char, std::__1::allocator<char> >, int>, IPC::Reply<std::__1::basic_string<char, std::__1::char_traits<char>, std::__1::allocator<char> > > >::{unnamed type#1}>(char const*, IPC::SyncMessage<IPC::Message<IPC::Id<(unsigned short)0, (unsigned short)16>, int, std::__1::vector<char, std::__1::allocator<char> >, int>, IPC::Reply<std::__1::basic_string<char, std::__1::char_traits<char>, std::__1::allocator<char> > > >::{unnamed type#1} const&)
FUNC 1234e0 520 0 void tinyformat::detail::FormatArg::formatImpl<IPC::SyncMessage<IPC::Message<IPC::Id<(unsigned short)0, (unsigned short)16>, int, std::__1::vector<char, std::__1::allocator<char> >, int>, IPC::Reply<std::__1::basic_string<char, std::__1::char_traits<char>, std::__1::allocator<char> > > >::{unnamed type#1}>(std::__1::basic_ostream<char, std::__1::char_traits<char> >&, char const*, char const, int, void const*)
FUNC 123a00 20 0 int tinyformat::detail::FormatArg::toIntImpl<IPC::SyncMessage<IPC::Message<IPC::Id<(unsigned short)0, (unsigned short)16>, int, std::__1::vector<char, std::__1::allocator<char> >, int>, IPC::Reply<std::__1::basic_string<char, std::__1::char_traits<char>, std::__1::allocator<char> > > >::{unnamed type#1}>(void const*)
FUNC 123a20 480 0 void Sys::Drop<IPC::SyncMessage<IPC::Message<IPC::Id<(unsigned short)0, (unsigned short)15>, std::__1::basic_string<char, std::__1::char_traits<char>, std::__1::allocator<char> > >, IPC::Reply<int, std::__1::basic_string<char, std::__1::char_traits<char>, std::__1::allocator<char> >, std::__1::basic_string<char, std::__1::char_traits<char>, std::__1::allocator<char> > > >::{unnamed type#1}>(Str::BasicStringRef<char>, IPC::SyncMessage<IPC::Message<IPC::Id<(unsigned short)0, (unsigned short)15>, std::__1::basic_string<char, std::__1::char_traits<char>, std::__1::allocator<char> > >, IPC::Reply<int, std::__1::basic_string<char, std::__1::char_traits<char>, std::__1::allocator<char> >, std::__1::basic_string<char, std::__1::char_traits<char>, std::__1::allocator<char> > > >::{unnamed type#1}&&)
FUNC 123ea0 200 0 void Util::Reader::FillTuple<2u, std::__1::basic_string<char, std::__1::char_traits<char>, std::__1::allocator<char> >, std::__1::basic_string<char, std::__1::char_traits<char>, std::__1::allocator<char> >, std::__1::tuple<char const*&, int&, std::__1::basic_string<char, std::__1::char_traits<char>, std::__1::allocator<char> >&, std::__1::basic_string<char, std::__1::char_traits<char>, std::__1::allocator<char> >&> >(Util::TypeList<std::__1::basic_string<char, std::__1::char_traits<char>, std::__1::allocator<char> >, std::__1::basic_string<char, std::__1::char_traits<char>, std::__1::allocator<char> > >, std::__1::tuple<char const*&, int&, std::__1::basic_string<char, std::__1::char_traits<char>, std::__1::allocator<char> >&, std::__1::basic_string<char, std::__1::char_traits<char>, std::__1::allocator<char> >&>&)
FUNC 1240a0 520 0 void tinyformat::detail::FormatArg::formatImpl<IPC::SyncMessage<IPC::Message<IPC::Id<(unsigned short)0, (unsigned short)15>, std::__1::basic_string<char, std::__1::char_traits<char>, std::__1::allocator<char> > >, IPC::Reply<int, std::__1::basic_string<char, std::__1::char_traits<char>, std::__1::allocator<char> >, std::__1::basic_string<char, std::__1::char_traits<char>, std::__1::allocator<char> > > >::{unnamed type#1}>(std::__1::basic_ostream<char, std::__1::char_traits<char> >&, char const*, char const, int, void const*)
FUNC 1245c0 20 0 int tinyformat::detail::FormatArg::toIntImpl<IPC::SyncMessage<IPC::Message<IPC::Id<(unsigned short)0, (unsigned short)15>, std::__1::basic_string<char, std::__1::char_traits<char>, std::__1::allocator<char> > >, IPC::Reply<int, std::__1::basic_string<char, std::__1::char_traits<char>, std::__1::allocator<char> >, std::__1::basic_string<char, std::__1::char_traits<char>, std::__1::allocator<char> > > >::{unnamed type#1}>(void const*)
FUNC 1245e0 520 0 void tinyformat::detail::FormatArg::formatImpl<IPC::SyncMessage<IPC::Message<IPC::Id<(unsigned short)0, (unsigned short)12>>, IPC::Reply<bool, std::__1::basic_string<char, std::__1::char_traits<char>, std::__1::allocator<char> > > >::{unnamed type#1}>(std::__1::basic_ostream<char, std::__1::char_traits<char> >&, char const*, char const, int, void const*)
FUNC 124b00 20 0 int tinyformat::detail::FormatArg::toIntImpl<IPC::SyncMessage<IPC::Message<IPC::Id<(unsigned short)0, (unsigned short)12>>, IPC::Reply<bool, std::__1::basic_string<char, std::__1::char_traits<char>, std::__1::allocator<char> > > >::{unnamed type#1}>(void const*)
FUNC 124b20 620 0 void IPC::detail::SendMsg<void (&)(unsigned int, Util::Reader), IPC::Message<IPC::Id<(unsigned short)0, (unsigned short)11>, int>, IPC::Reply<usercmd_t>, int&, usercmd_t&>(IPC::Channel&, void (&)(unsigned int, Util::Reader), IPC::SyncMessage<IPC::Message<IPC::Id<(unsigned short)0, (unsigned short)11>, int>, IPC::Reply<usercmd_t> >, int&, usercmd_t&)
FUNC 125140 460 0 std::__1::basic_string<char, IPC::SyncMessage<IPC::Message<IPC::Id<(unsigned short)0, (unsigned short)11>, int>, IPC::Reply<usercmd_t> >::{unnamed type#1}::char_traits<char>, IPC::SyncMessage<IPC::Message<IPC::Id<(unsigned short)0, (unsigned short)11>, int>, IPC::Reply<usercmd_t> >::{unnamed type#1}::allocator<char> > tinyformat::format<IPC::SyncMessage<IPC::Message<IPC::Id<(unsigned short)0, (unsigned short)11>, int>, IPC::Reply<usercmd_t> >::{unnamed type#1}>(char const*, IPC::SyncMessage<IPC::Message<IPC::Id<(unsigned short)0, (unsigned short)11>, int>, IPC::Reply<usercmd_t> >::{unnamed type#1} const&)
FUNC 1255a0 520 0 void tinyformat::detail::FormatArg::formatImpl<IPC::SyncMessage<IPC::Message<IPC::Id<(unsigned short)0, (unsigned short)11>, int>, IPC::Reply<usercmd_t> >::{unnamed type#1}>(std::__1::basic_ostream<char, IPC::SyncMessage<IPC::Message<IPC::Id<(unsigned short)0, (unsigned short)11>, int>, IPC::Reply<usercmd_t> >::{unnamed type#1}::char_traits<char> >&, char const*, char const, int, void const*)
FUNC 125ac0 20 0 int tinyformat::detail::FormatArg::toIntImpl<IPC::SyncMessage<IPC::Message<IPC::Id<(unsigned short)0, (unsigned short)11>, int>, IPC::Reply<usercmd_t> >::{unnamed type#1}>(void const*)
FUNC 125ae0 520 0 void tinyformat::detail::FormatArg::formatImpl<IPC::SyncMessage<IPC::Message<IPC::Id<(unsigned short)0, (unsigned short)10>, int>, IPC::Reply<std::__1::basic_string<char, std::__1::char_traits<char>, std::__1::allocator<char> > > >::{unnamed type#1}>(std::__1::basic_ostream<char, std::__1::char_traits<char> >&, char const*, char const, int, void const*)
FUNC 126000 20 0 int tinyformat::detail::FormatArg::toIntImpl<IPC::SyncMessage<IPC::Message<IPC::Id<(unsigned short)0, (unsigned short)10>, int>, IPC::Reply<std::__1::basic_string<char, std::__1::char_traits<char>, std::__1::allocator<char> > > >::{unnamed type#1}>(void const*)
FUNC 126020 480 0 void Sys::Drop<IPC::SyncMessage<IPC::Message<IPC::Id<(unsigned short)0, (unsigned short)9>, int, int>, IPC::Reply<std::__1::basic_string<char, std::__1::char_traits<char>, std::__1::allocator<char> > > >::{unnamed type#1}>(Str::BasicStringRef<char>, IPC::SyncMessage<IPC::Message<IPC::Id<(unsigned short)0, (unsigned short)9>, int, int>, IPC::Reply<std::__1::basic_string<char, std::__1::char_traits<char>, std::__1::allocator<char> > > >::{unnamed type#1}&&)
FUNC 1264a0 520 0 void tinyformat::detail::FormatArg::formatImpl<IPC::SyncMessage<IPC::Message<IPC::Id<(unsigned short)0, (unsigned short)9>, int, int>, IPC::Reply<std::__1::basic_string<char, std::__1::char_traits<char>, std::__1::allocator<char> > > >::{unnamed type#1}>(std::__1::basic_ostream<char, std::__1::char_traits<char> >&, char const*, char const, int, void const*)
FUNC 1269c0 20 0 int tinyformat::detail::FormatArg::toIntImpl<IPC::SyncMessage<IPC::Message<IPC::Id<(unsigned short)0, (unsigned short)9>, int, int>, IPC::Reply<std::__1::basic_string<char, std::__1::char_traits<char>, std::__1::allocator<char> > > >::{unnamed type#1}>(void const*)
FUNC 1269e0 340 0 void IPC::detail::SendMsg<void (&)(unsigned int, Util::Reader), IPC::Id<(unsigned short)0, (unsigned short)8>, int, std::__1::basic_string<char, std::__1::char_traits<char>, std::__1::allocator<char> >, int&, char const*&>(IPC::Channel&, void (&)(unsigned int, Util::Reader), IPC::Message<IPC::Id<(unsigned short)0, (unsigned short)8>, int, std::__1::basic_string<char, std::__1::char_traits<char>, std::__1::allocator<char> > >, int&, char const*&)
FUNC 126d20 460 0 std::__1::basic_string<char, std::__1::char_traits<char>, std::__1::allocator<char> > tinyformat::format<IPC::Message<IPC::Id<(unsigned short)0, (unsigned short)8>, int, std::__1::basic_string<char, std::__1::char_traits<char>, std::__1::allocator<char> > >::{unnamed type#1}>(char const*, IPC::Message<IPC::Id<(unsigned short)0, (unsigned short)8>, int, std::__1::basic_string<char, std::__1::char_traits<char>, std::__1::allocator<char> > >::{unnamed type#1} const&)
FUNC 127180 520 0 void tinyformat::detail::FormatArg::formatImpl<IPC::Message<IPC::Id<(unsigned short)0, (unsigned short)8>, int, std::__1::basic_string<char, std::__1::char_traits<char>, std::__1::allocator<char> > >::{unnamed type#1}>(std::__1::basic_ostream<char, std::__1::char_traits<char> >&, char const*, char const, int, void const*)
FUNC 1276a0 20 0 int tinyformat::detail::FormatArg::toIntImpl<IPC::Message<IPC::Id<(unsigned short)0, (unsigned short)8>, int, std::__1::basic_string<char, std::__1::char_traits<char>, std::__1::allocator<char> > >::{unnamed type#1}>(void const*)
FUNC 1276c0 260 0 void IPC::detail::SendMsg<void (&)(unsigned int, Util::Reader), IPC::Id<(unsigned short)0, (unsigned short)7>>(IPC::Channel&, void (&)(unsigned int, Util::Reader), IPC::Message<IPC::Id<(unsigned short)0, (unsigned short)7>>)
FUNC 127920 460 0 std::__1::basic_string<char, IPC::Message<IPC::Id<(unsigned short)0, (unsigned short)7>>::{unnamed type#1}::char_traits<char>, IPC::Message<IPC::Id<(unsigned short)0, (unsigned short)7>>::{unnamed type#1}::allocator<char> > tinyformat::format<IPC::Message<IPC::Id<(unsigned short)0, (unsigned short)7>>::{unnamed type#1}>(char const*, IPC::Message<IPC::Id<(unsigned short)0, (unsigned short)7>>::{unnamed type#1} const&)
FUNC 127d80 520 0 void tinyformat::detail::FormatArg::formatImpl<IPC::Message<IPC::Id<(unsigned short)0, (unsigned short)7>>::{unnamed type#1}>(std::__1::basic_ostream<char, IPC::Message<IPC::Id<(unsigned short)0, (unsigned short)7>>::{unnamed type#1}::char_traits<char> >&, char const*, char const, int, void const*)
FUNC 1282a0 20 0 int tinyformat::detail::FormatArg::toIntImpl<IPC::Message<IPC::Id<(unsigned short)0, (unsigned short)7>>::{unnamed type#1}>(void const*)
FUNC 1282c0 520 0 void tinyformat::detail::FormatArg::formatImpl<IPC::SyncMessage<IPC::Message<IPC::Id<(unsigned short)0, (unsigned short)6>, int, int>, IPC::Reply<std::__1::basic_string<char, std::__1::char_traits<char>, std::__1::allocator<char> > > >::{unnamed type#1}>(std::__1::basic_ostream<char, std::__1::char_traits<char> >&, char const*, char const, int, void const*)
FUNC 1287e0 20 0 int tinyformat::detail::FormatArg::toIntImpl<IPC::SyncMessage<IPC::Message<IPC::Id<(unsigned short)0, (unsigned short)6>, int, int>, IPC::Reply<std::__1::basic_string<char, std::__1::char_traits<char>, std::__1::allocator<char> > > >::{unnamed type#1}>(void const*)
FUNC 128800 7e0 0 void IPC::detail::SendMsg<void (&)(unsigned int, Util::Reader), IPC::Id<(unsigned short)0, (unsigned short)5>, int, std::__1::basic_string<char, std::__1::char_traits<char>, std::__1::allocator<char> >, int&, char const*&>(IPC::Channel&, void (&)(unsigned int, Util::Reader), IPC::Message<IPC::Id<(unsigned short)0, (unsigned short)5>, int, std::__1::basic_string<char, std::__1::char_traits<char>, std::__1::allocator<char> > >, int&, char const*&)
FUNC 128fe0 520 0 void tinyformat::detail::FormatArg::formatImpl<IPC::Message<IPC::Id<(unsigned short)0, (unsigned short)5>, int, std::__1::basic_string<char, std::__1::char_traits<char>, std::__1::allocator<char> > >::{unnamed type#1}>(std::__1::basic_ostream<char, std::__1::char_traits<char> >&, char const*, char const, int, void const*)
FUNC 129500 20 0 int tinyformat::detail::FormatArg::toIntImpl<IPC::Message<IPC::Id<(unsigned short)0, (unsigned short)5>, int, std::__1::basic_string<char, std::__1::char_traits<char>, std::__1::allocator<char> > >::{unnamed type#1}>(void const*)
FUNC 129520 520 0 void tinyformat::detail::FormatArg::formatImpl<IPC::SyncMessage<IPC::Message<IPC::Id<(unsigned short)0, (unsigned short)4>, int, std::__1::basic_string<char, std::__1::char_traits<char>, std::__1::allocator<char> > >, IPC::Reply<> >::{unnamed type#1}>(std::__1::basic_ostream<char, std::__1::char_traits<char> >&, char const*, char const, int, void const*)
FUNC 129a40 20 0 int tinyformat::detail::FormatArg::toIntImpl<IPC::SyncMessage<IPC::Message<IPC::Id<(unsigned short)0, (unsigned short)4>, int, std::__1::basic_string<char, std::__1::char_traits<char>, std::__1::allocator<char> > >, IPC::Reply<> >::{unnamed type#1}>(void const*)
FUNC 129a60 660 0 void IPC::detail::SendMsg<void (&)(unsigned int, Util::Reader), IPC::Message<IPC::Id<(unsigned short)0, (unsigned short)3>, int, std::__1::basic_string<char, std::__1::char_traits<char>, std::__1::allocator<char> > >, IPC::Reply<>, int&, char const*&>(IPC::Channel&, void (&)(unsigned int, Util::Reader), IPC::SyncMessage<IPC::Message<IPC::Id<(unsigned short)0, (unsigned short)3>, int, std::__1::basic_string<char, std::__1::char_traits<char>, std::__1::allocator<char> > >, IPC::Reply<> >, int&, char const*&)
FUNC 12a0c0 460 0 std::__1::basic_string<char, std::__1::char_traits<char>, std::__1::allocator<char> > tinyformat::format<IPC::SyncMessage<IPC::Message<IPC::Id<(unsigned short)0, (unsigned short)3>, int, std::__1::basic_string<char, std::__1::char_traits<char>, std::__1::allocator<char> > >, IPC::Reply<> >::{unnamed type#1}>(char const*, IPC::SyncMessage<IPC::Message<IPC::Id<(unsigned short)0, (unsigned short)3>, int, std::__1::basic_string<char, std::__1::char_traits<char>, std::__1::allocator<char> > >, IPC::Reply<> >::{unnamed type#1} const&)
FUNC 12a520 520 0 void tinyformat::detail::FormatArg::formatImpl<IPC::SyncMessage<IPC::Message<IPC::Id<(unsigned short)0, (unsigned short)3>, int, std::__1::basic_string<char, std::__1::char_traits<char>, std::__1::allocator<char> > >, IPC::Reply<> >::{unnamed type#1}>(std::__1::basic_ostream<char, std::__1::char_traits<char> >&, char const*, char const, int, void const*)
FUNC 12aa40 20 0 int tinyformat::detail::FormatArg::toIntImpl<IPC::SyncMessage<IPC::Message<IPC::Id<(unsigned short)0, (unsigned short)3>, int, std::__1::basic_string<char, std::__1::char_traits<char>, std::__1::allocator<char> > >, IPC::Reply<> >::{unnamed type#1}>(void const*)
FUNC 12aa60 520 0 void tinyformat::detail::FormatArg::formatImpl<IPC::Message<IPC::Id<(unsigned short)0, (unsigned short)1>, int, int, int>::{unnamed type#1}>(std::__1::basic_ostream<char, IPC::Message<IPC::Id<(unsigned short)0, (unsigned short)1>, int, int, int>::{unnamed type#1}::char_traits<char> >&, char const*, char const, int, void const*)
FUNC 12af80 20 0 int tinyformat::detail::FormatArg::toIntImpl<IPC::Message<IPC::Id<(unsigned short)0, (unsigned short)1>, int, int, int>::{unnamed type#1}>(void const*)
FUNC 12afa0 520 0 void tinyformat::detail::FormatArg::formatImpl<IPC::Message<IPC::Id<(unsigned short)0, (unsigned short)0>, IPC::SharedMemory, int, int, int>::{unnamed type#1}>(std::__1::basic_ostream<char, IPC::Message<IPC::Id<(unsigned short)0, (unsigned short)0>, IPC::SharedMemory, int, int, int>::{unnamed type#1}::char_traits<char> >&, char const*, char const, int, void const*)
FUNC 12b4c0 20 0 int tinyformat::detail::FormatArg::toIntImpl<IPC::Message<IPC::Id<(unsigned short)0, (unsigned short)0>, IPC::SharedMemory, int, int, int>::{unnamed type#1}>(void const*)
FUNC 12b4e0 160 0 std::__1::basic_string<char, std::__1::char_traits<char>, std::__1::allocator<char> > std::__1::operator+<char, std::__1::char_traits<char>, std::__1::allocator<char> >(char const*, std::__1::basic_string<char, std::__1::char_traits<char>, std::__1::allocator<char> > const&)
FUNC 12b640 160 0 std::__1::basic_string<char, std::__1::char_traits<char>, std::__1::allocator<char> > std::__1::operator+<char, std::__1::char_traits<char>, std::__1::allocator<char> >(std::__1::basic_string<char, std::__1::char_traits<char>, std::__1::allocator<char> > const&, char const*)
FUNC 12b7a0 140 0 <name omitted>
FUNC 12b8e0 640 0 Cmd::AddCommand(std::__1::basic_string<char, std::__1::char_traits<char>, std::__1::allocator<char> > const&, Cmd::CmdBase const&, std::__1::basic_string<char, std::__1::char_traits<char>, std::__1::allocator<char> >)
FUNC 12bf20 b20 0 Cmd::ExecuteSyscall(Util::Reader&, IPC::Channel&)
FUNC 12ca40 12a0 0 Cmd::CompleteSyscall(Util::Reader&, IPC::Channel&)
FUNC 12dce0 a0 0 void Sys::Drop<int&>(Str::BasicStringRef<char>, int&)
FUNC 12dd80 60 0 std::__1::__vector_base<Cmd::Args const*, std::__1::allocator<Cmd::Args const*> >::~__vector_base()
FUNC 12dde0 120 0 std::__1::__vector_base<std::__1::pair<std::__1::basic_string<char, std::__1::char_traits<char>, std::__1::allocator<char> >, std::__1::basic_string<char, std::__1::char_traits<char>, std::__1::allocator<char> > >, std::__1::allocator<std::__1::pair<std::__1::basic_string<char, std::__1::char_traits<char>, std::__1::allocator<char> >, std::__1::basic_string<char, std::__1::char_traits<char>, std::__1::allocator<char> > > > >::~__vector_base()
FUNC 12df00 20 0 Cmd::CmdBase::~CmdBase()
FUNC 12df20 200 0 trap_AddCommand(char const*)
FUNC 12e120 ae0 0 trap_RemoveCommand(char const*)
FUNC 12ec00 80 0 trap_Argv(int, char*, int)
FUNC 12ec80 c0 0 Cmd::Args::~Args()
FUNC 12ed40 180 0 <name omitted>
FUNC 12eec0 1180 0 Cvar::CallOnValueChangedSyscall(Util::Reader&, IPC::Channel&)
FUNC 130040 60 0 std::__1::__vector_base<VMCvarProxy*, std::__1::allocator<VMCvarProxy*> >::~__vector_base()
FUNC 1300a0 600 0 trap_Cvar_Register(vmCvar_t*, char const*, char const*, int)
FUNC 1306a0 d00 0 trap_Cvar_Set(char const*, char const*)
FUNC 1313a0 1e0 0 trap_Cvar_VariableStringBuffer(char const*, char*, int)
FUNC 131580 7e0 0 Log::Dispatch(Log::Event, int)
FUNC 131d60 cc0 0 trap_FS_Read(void*, int, int)
FUNC 132a20 c20 0 trap_FS_Write(void const*, int, int)
FUNC 133640 e60 0 trap_FS_GetFileList(char const*, char const*, char*, int)
FUNC 1344a0 740 0 trap_Parse_SourceFileAndLine(int, char*, int*)
FUNC 134be0 480 0 void Sys::Drop<IPC::SyncMessage<IPC::Message<IPC::Id<(unsigned short)1, (unsigned short)19>, int>, IPC::Reply<int, std::__1::basic_string<char, std::__1::char_traits<char>, std::__1::allocator<char> >, int> >::{unnamed type#1}>(Str::BasicStringRef<char>, IPC::SyncMessage<IPC::Message<IPC::Id<(unsigned short)1, (unsigned short)19>, int>, IPC::Reply<int, std::__1::basic_string<char, std::__1::char_traits<char>, std::__1::allocator<char> >, int> >::{unnamed type#1}&&)
FUNC 135060 180 0 void Util::Reader::FillTuple<2u, std::__1::basic_string<char, std::__1::char_traits<char>, std::__1::allocator<char> >, int, std::__1::tuple<int&, int&, std::__1::basic_string<char, std::__1::char_traits<char>, std::__1::allocator<char> >&, int&> >(Util::TypeList<std::__1::basic_string<char, std::__1::char_traits<char>, std::__1::allocator<char> >, int>, std::__1::tuple<int&, int&, std::__1::basic_string<char, std::__1::char_traits<char>, std::__1::allocator<char> >&, int&>&)
FUNC 1351e0 520 0 void tinyformat::detail::FormatArg::formatImpl<IPC::SyncMessage<IPC::Message<IPC::Id<(unsigned short)1, (unsigned short)19>, int>, IPC::Reply<int, std::__1::basic_string<char, std::__1::char_traits<char>, std::__1::allocator<char> >, int> >::{unnamed type#1}>(std::__1::basic_ostream<char, std::__1::char_traits<char> >&, char const*, char const, int, void const*)
FUNC 135700 20 0 int tinyformat::detail::FormatArg::toIntImpl<IPC::SyncMessage<IPC::Message<IPC::Id<(unsigned short)1, (unsigned short)19>, int>, IPC::Reply<int, std::__1::basic_string<char, std::__1::char_traits<char>, std::__1::allocator<char> >, int> >::{unnamed type#1}>(void const*)
FUNC 135720 6c0 0 void IPC::detail::SendMsg<void (&)(unsigned int, Util::Reader), IPC::Message<IPC::Id<(unsigned short)1, (unsigned short)18>, int>, IPC::Reply<bool, pc_token_t>, int&, bool&, pc_token_t&>(IPC::Channel&, void (&)(unsigned int, Util::Reader), IPC::SyncMessage<IPC::Message<IPC::Id<(unsigned short)1, (unsigned short)18>, int>, IPC::Reply<bool, pc_token_t> >, int&, bool&, pc_token_t&)
FUNC 135de0 460 0 std::__1::basic_string<char, IPC::SyncMessage<IPC::Message<IPC::Id<(unsigned short)1, (unsigned short)18>, int>, IPC::Reply<bool, pc_token_t> >::{unnamed type#1}::char_traits<char>, IPC::SyncMessage<IPC::Message<IPC::Id<(unsigned short)1, (unsigned short)18>, int>, IPC::Reply<bool, pc_token_t> >::{unnamed type#1}::allocator<char> > tinyformat::format<IPC::SyncMessage<IPC::Message<IPC::Id<(unsigned short)1, (unsigned short)18>, int>, IPC::Reply<bool, pc_token_t> >::{unnamed type#1}>(char const*, IPC::SyncMessage<IPC::Message<IPC::Id<(unsigned short)1, (unsigned short)18>, int>, IPC::Reply<bool, pc_token_t> >::{unnamed type#1} const&)
FUNC 136240 520 0 void tinyformat::detail::FormatArg::formatImpl<IPC::SyncMessage<IPC::Message<IPC::Id<(unsigned short)1, (unsigned short)18>, int>, IPC::Reply<bool, pc_token_t> >::{unnamed type#1}>(std::__1::basic_ostream<char, IPC::SyncMessage<IPC::Message<IPC::Id<(unsigned short)1, (unsigned short)18>, int>, IPC::Reply<bool, pc_token_t> >::{unnamed type#1}::char_traits<char> >&, char const*, char const, int, void const*)
FUNC 136760 20 0 int tinyformat::detail::FormatArg::toIntImpl<IPC::SyncMessage<IPC::Message<IPC::Id<(unsigned short)1, (unsigned short)18>, int>, IPC::Reply<bool, pc_token_t> >::{unnamed type#1}>(void const*)
FUNC 136780 620 0 void IPC::detail::SendMsg<void (&)(unsigned int, Util::Reader), IPC::Message<IPC::Id<(unsigned short)1, (unsigned short)17>, int>, IPC::Reply<int>, int&, int&>(IPC::Channel&, void (&)(unsigned int, Util::Reader), IPC::SyncMessage<IPC::Message<IPC::Id<(unsigned short)1, (unsigned short)17>, int>, IPC::Reply<int> >, int&, int&)
FUNC 136da0 460 0 std::__1::basic_string<char, IPC::SyncMessage<IPC::Message<IPC::Id<(unsigned short)1, (unsigned short)17>, int>, IPC::Reply<int> >::{unnamed type#1}::char_traits<char>, IPC::SyncMessage<IPC::Message<IPC::Id<(unsigned short)1, (unsigned short)17>, int>, IPC::Reply<int> >::{unnamed type#1}::allocator<char> > tinyformat::format<IPC::SyncMessage<IPC::Message<IPC::Id<(unsigned short)1, (unsigned short)17>, int>, IPC::Reply<int> >::{unnamed type#1}>(char const*, IPC::SyncMessage<IPC::Message<IPC::Id<(unsigned short)1, (unsigned short)17>, int>, IPC::Reply<int> >::{unnamed type#1} const&)
FUNC 137200 520 0 void tinyformat::detail::FormatArg::formatImpl<IPC::SyncMessage<IPC::Message<IPC::Id<(unsigned short)1, (unsigned short)17>, int>, IPC::Reply<int> >::{unnamed type#1}>(std::__1::basic_ostream<char, IPC::SyncMessage<IPC::Message<IPC::Id<(unsigned short)1, (unsigned short)17>, int>, IPC::Reply<int> >::{unnamed type#1}::char_traits<char> >&, char const*, char const, int, void const*)
FUNC 137720 20 0 int tinyformat::detail::FormatArg::toIntImpl<IPC::SyncMessage<IPC::Message<IPC::Id<(unsigned short)1, (unsigned short)17>, int>, IPC::Reply<int> >::{unnamed type#1}>(void const*)
FUNC 137740 680 0 void IPC::detail::SendMsg<void (&)(unsigned int, Util::Reader), IPC::Message<IPC::Id<(unsigned short)1, (unsigned short)16>, std::__1::basic_string<char, std::__1::char_traits<char>, std::__1::allocator<char> > >, IPC::Reply<int>, char const*&, int&>(IPC::Channel&, void (&)(unsigned int, Util::Reader), IPC::SyncMessage<IPC::Message<IPC::Id<(unsigned short)1, (unsigned short)16>, std::__1::basic_string<char, std::__1::char_traits<char>, std::__1::allocator<char> > >, IPC::Reply<int> >, char const*&, int&)
FUNC 137dc0 460 0 std::__1::basic_string<char, std::__1::char_traits<char>, std::__1::allocator<char> > tinyformat::format<IPC::SyncMessage<IPC::Message<IPC::Id<(unsigned short)1, (unsigned short)16>, std::__1::basic_string<char, std::__1::char_traits<char>, std::__1::allocator<char> > >, IPC::Reply<int> >::{unnamed type#1}>(char const*, IPC::SyncMessage<IPC::Message<IPC::Id<(unsigned short)1, (unsigned short)16>, std::__1::basic_string<char, std::__1::char_traits<char>, std::__1::allocator<char> > >, IPC::Reply<int> >::{unnamed type#1} const&)
FUNC 138220 520 0 void tinyformat::detail::FormatArg::formatImpl<IPC::SyncMessage<IPC::Message<IPC::Id<(unsigned short)1, (unsigned short)16>, std::__1::basic_string<char, std::__1::char_traits<char>, std::__1::allocator<char> > >, IPC::Reply<int> >::{unnamed type#1}>(std::__1::basic_ostream<char, std::__1::char_traits<char> >&, char const*, char const, int, void const*)
FUNC 138740 20 0 int tinyformat::detail::FormatArg::toIntImpl<IPC::SyncMessage<IPC::Message<IPC::Id<(unsigned short)1, (unsigned short)16>, std::__1::basic_string<char, std::__1::char_traits<char>, std::__1::allocator<char> > >, IPC::Reply<int> >::{unnamed type#1}>(void const*)
FUNC 138760 680 0 void IPC::detail::SendMsg<void (&)(unsigned int, Util::Reader), IPC::Message<IPC::Id<(unsigned short)1, (unsigned short)15>, std::__1::basic_string<char, std::__1::char_traits<char>, std::__1::allocator<char> > >, IPC::Reply<int>, char const*&, int&>(IPC::Channel&, void (&)(unsigned int, Util::Reader), IPC::SyncMessage<IPC::Message<IPC::Id<(unsigned short)1, (unsigned short)15>, std::__1::basic_string<char, std::__1::char_traits<char>, std::__1::allocator<char> > >, IPC::Reply<int> >, char const*&, int&)
FUNC 138de0 460 0 std::__1::basic_string<char, std::__1::char_traits<char>, std::__1::allocator<char> > tinyformat::format<IPC::SyncMessage<IPC::Message<IPC::Id<(unsigned short)1, (unsigned short)15>, std::__1::basic_string<char, std::__1::char_traits<char>, std::__1::allocator<char> > >, IPC::Reply<int> >::{unnamed type#1}>(char const*, IPC::SyncMessage<IPC::Message<IPC::Id<(unsigned short)1, (unsigned short)15>, std::__1::basic_string<char, std::__1::char_traits<char>, std::__1::allocator<char> > >, IPC::Reply<int> >::{unnamed type#1} const&)
FUNC 139240 520 0 void tinyformat::detail::FormatArg::formatImpl<IPC::SyncMessage<IPC::Message<IPC::Id<(unsigned short)1, (unsigned short)15>, std::__1::basic_string<char, std::__1::char_traits<char>, std::__1::allocator<char> > >, IPC::Reply<int> >::{unnamed type#1}>(std::__1::basic_ostream<char, std::__1::char_traits<char> >&, char const*, char const, int, void const*)
FUNC 139760 20 0 int tinyformat::detail::FormatArg::toIntImpl<IPC::SyncMessage<IPC::Message<IPC::Id<(unsigned short)1, (unsigned short)15>, std::__1::basic_string<char, std::__1::char_traits<char>, std::__1::allocator<char> > >, IPC::Reply<int> >::{unnamed type#1}>(void const*)
FUNC 139780 ba0 0 void IPC::detail::SendMsg<void (&)(unsigned int, Util::Reader), IPC::Message<IPC::Id<(unsigned short)1, (unsigned short)12>, std::__1::basic_string<char, std::__1::char_traits<char>, std::__1::allocator<char> > >, IPC::Reply<bool>, char const*&, bool&>(IPC::Channel&, void (&)(unsigned int, Util::Reader), IPC::SyncMessage<IPC::Message<IPC::Id<(unsigned short)1, (unsigned short)12>, std::__1::basic_string<char, std::__1::char_traits<char>, std::__1::allocator<char> > >, IPC::Reply<bool> >, char const*&, bool&)
FUNC 13a320 520 0 void tinyformat::detail::FormatArg::formatImpl<IPC::SyncMessage<IPC::Message<IPC::Id<(unsigned short)1, (unsigned short)12>, std::__1::basic_string<char, std::__1::char_traits<char>, std::__1::allocator<char> > >, IPC::Reply<bool> >::{unnamed type#1}>(std::__1::basic_ostream<char, std::__1::char_traits<char> >&, char const*, char const, int, void const*)
FUNC 13a840 20 0 int tinyformat::detail::FormatArg::toIntImpl<IPC::SyncMessage<IPC::Message<IPC::Id<(unsigned short)1, (unsigned short)12>, std::__1::basic_string<char, std::__1::char_traits<char>, std::__1::allocator<char> > >, IPC::Reply<bool> >::{unnamed type#1}>(void const*)
FUNC 13a860 520 0 void tinyformat::detail::FormatArg::formatImpl<IPC::SyncMessage<IPC::Message<IPC::Id<(unsigned short)1, (unsigned short)10>, std::__1::basic_string<char, std::__1::char_traits<char>, std::__1::allocator<char> >, std::__1::basic_string<char, std::__1::char_traits<char>, std::__1::allocator<char> >, int>, IPC::Reply<int, std::__1::basic_string<char, std::__1::char_traits<char>, std::__1::allocator<char> > > >::{unnamed type#1}>(std::__1::basic_ostream<char, std::__1::char_traits<char> >&, char const*, char const, int, void const*)
FUNC 13ad80 20 0 int tinyformat::detail::FormatArg::toIntImpl<IPC::SyncMessage<IPC::Message<IPC::Id<(unsigned short)1, (unsigned short)10>, std::__1::basic_string<char, std::__1::char_traits<char>, std::__1::allocator<char> >, std::__1::basic_string<char, std::__1::char_traits<char>, std::__1::allocator<char> >, int>, IPC::Reply<int, std::__1::basic_string<char, std::__1::char_traits<char>, std::__1::allocator<char> > > >::{unnamed type#1}>(void const*)
FUNC 13ada0 700 0 void IPC::detail::SendMsg<void (&)(unsigned int, Util::Reader), IPC::Id<(unsigned short)1, (unsigned short)9>, int, int&>(IPC::Channel&, void (&)(unsigned int, Util::Reader), IPC::Message<IPC::Id<(unsigned short)1, (unsigned short)9>, int>, int&)
FUNC 13b4a0 520 0 void tinyformat::detail::FormatArg::formatImpl<IPC::Message<IPC::Id<(unsigned short)1, (unsigned short)9>, int>::{unnamed type#1}>(std::__1::basic_ostream<char, IPC::Message<IPC::Id<(unsigned short)1, (unsigned short)9>, int>::{unnamed type#1}::char_traits<char> >&, char const*, char const, int, void const*)
FUNC 13b9c0 20 0 int tinyformat::detail::FormatArg::toIntImpl<IPC::Message<IPC::Id<(unsigned short)1, (unsigned short)9>, int>::{unnamed type#1}>(void const*)
FUNC 13b9e0 520 0 void tinyformat::detail::FormatArg::formatImpl<IPC::SyncMessage<IPC::Message<IPC::Id<(unsigned short)1, (unsigned short)4>, int, std::__1::basic_string<char, std::__1::char_traits<char>, std::__1::allocator<char> > >, IPC::Reply<int> >::{unnamed type#1}>(std::__1::basic_ostream<char, std::__1::char_traits<char> >&, char const*, char const, int, void const*)
FUNC 13bf00 20 0 int tinyformat::detail::FormatArg::toIntImpl<IPC::SyncMessage<IPC::Message<IPC::Id<(unsigned short)1, (unsigned short)4>, int, std::__1::basic_string<char, std::__1::char_traits<char>, std::__1::allocator<char> > >, IPC::Reply<int> >::{unnamed type#1}>(void const*)
FUNC 13bf20 520 0 void tinyformat::detail::FormatArg::formatImpl<IPC::SyncMessage<IPC::Message<IPC::Id<(unsigned short)1, (unsigned short)3>, int, int>, IPC::Reply<std::__1::basic_string<char, std::__1::char_traits<char>, std::__1::allocator<char> >, int> >::{unnamed type#1}>(std::__1::basic_ostream<char, std::__1::char_traits<char> >&, char const*, char const, int, void const*)
FUNC 13c440 20 0 int tinyformat::detail::FormatArg::toIntImpl<IPC::SyncMessage<IPC::Message<IPC::Id<(unsigned short)1, (unsigned short)3>, int, int>, IPC::Reply<std::__1::basic_string<char, std::__1::char_traits<char>, std::__1::allocator<char> >, int> >::{unnamed type#1}>(void const*)
FUNC 13c460 ca0 0 void IPC::detail::SendMsg<void (&)(unsigned int, Util::Reader), IPC::Message<IPC::Id<(unsigned short)1, (unsigned short)2>, std::__1::basic_string<char, std::__1::char_traits<char>, std::__1::allocator<char> >, bool, int>, IPC::Reply<int, int>, char const*&, bool, int, int&, int&>(IPC::Channel&, void (&)(unsigned int, Util::Reader), IPC::SyncMessage<IPC::Message<IPC::Id<(unsigned short)1, (unsigned short)2>, std::__1::basic_string<char, std::__1::char_traits<char>, std::__1::allocator<char> >, bool, int>, IPC::Reply<int, int> >, char const*&, bool&&, int&&, int&, int&)
FUNC 13d100 520 0 void tinyformat::detail::FormatArg::formatImpl<IPC::SyncMessage<IPC::Message<IPC::Id<(unsigned short)1, (unsigned short)2>, std::__1::basic_string<char, std::__1::char_traits<char>, std::__1::allocator<char> >, bool, int>, IPC::Reply<int, int> >::{unnamed type#1}>(std::__1::basic_ostream<char, std::__1::char_traits<char> >&, char const*, char const, int, void const*)
FUNC 13d620 20 0 int tinyformat::detail::FormatArg::toIntImpl<IPC::SyncMessage<IPC::Message<IPC::Id<(unsigned short)1, (unsigned short)2>, std::__1::basic_string<char, std::__1::char_traits<char>, std::__1::allocator<char> >, bool, int>, IPC::Reply<int, int> >::{unnamed type#1}>(void const*)
FUNC 13d640 760 0 void IPC::detail::SendMsg<void (&)(unsigned int, Util::Reader), IPC::Id<(unsigned short)1, (unsigned short)1>, std::__1::basic_string<char, std::__1::char_traits<char>, std::__1::allocator<char> >, char const*&>(IPC::Channel&, void (&)(unsigned int, Util::Reader), IPC::Message<IPC::Id<(unsigned short)1, (unsigned short)1>, std::__1::basic_string<char, std::__1::char_traits<char>, std::__1::allocator<char> > >, char const*&)
FUNC 13dda0 520 0 void tinyformat::detail::FormatArg::formatImpl<IPC::Message<IPC::Id<(unsigned short)1, (unsigned short)1>, std::__1::basic_string<char, std::__1::char_traits<char>, std::__1::allocator<char> > >::{unnamed type#1}>(std::__1::basic_ostream<char, std::__1::char_traits<char> >&, char const*, char const, int, void const*)
FUNC 13e2c0 20 0 int tinyformat::detail::FormatArg::toIntImpl<IPC::Message<IPC::Id<(unsigned short)1, (unsigned short)1>, std::__1::basic_string<char, std::__1::char_traits<char>, std::__1::allocator<char> > >::{unnamed type#1}>(void const*)
FUNC 13e2e0 520 0 void tinyformat::detail::FormatArg::formatImpl<IPC::SyncMessage<IPC::Message<IPC::Id<(unsigned short)2, (unsigned short)1>, std::__1::vector<unsigned char, std::__1::allocator<unsigned char> > >, IPC::Reply<> >::{unnamed type#1}>(std::__1::basic_ostream<char, std::__1::char_traits<char> >&, char const*, char const, int, void const*)
FUNC 13e800 20 0 int tinyformat::detail::FormatArg::toIntImpl<IPC::SyncMessage<IPC::Message<IPC::Id<(unsigned short)2, (unsigned short)1>, std::__1::vector<unsigned char, std::__1::allocator<unsigned char> > >, IPC::Reply<> >::{unnamed type#1}>(void const*)
FUNC 13e820 520 0 void tinyformat::detail::FormatArg::formatImpl<IPC::Message<IPC::Id<(unsigned short)5, (unsigned short)0>, std::__1::basic_string<char, std::__1::char_traits<char>, std::__1::allocator<char> >, int>::{unnamed type#1}>(std::__1::basic_ostream<char, std::__1::char_traits<char> >&, char const*, char const, int, void const*)
FUNC 13ed40 20 0 int tinyformat::detail::FormatArg::toIntImpl<IPC::Message<IPC::Id<(unsigned short)5, (unsigned short)0>, std::__1::basic_string<char, std::__1::char_traits<char>, std::__1::allocator<char> >, int>::{unnamed type#1}>(void const*)
FUNC 13ed60 220 0 std::__1::__hash_iterator<std::__1::__hash_node<std::__1::__hash_value_type<std::__1::basic_string<char, std::__1::char_traits<char>, std::__1::allocator<char> >, Cvar::CvarRecord>, void*>*> std::__1::__hash_table<std::__1::__hash_value_type<std::__1::basic_string<char, std::__1::char_traits<char>, std::__1::allocator<char> >, Cvar::CvarRecord>, std::__1::__unordered_map_hasher<std::__1::basic_string<char, std::__1::char_traits<char>, std::__1::allocator<char> >, std::__1::__hash_value_type<std::__1::basic_string<char, std::__1::char_traits<char>, std::__1::allocator<char> >, Cvar::CvarRecord>, std::__1::hash<std::__1::basic_string<char, std::__1::char_traits<char>, std::__1::allocator<char> > >, true>, std::__1::__unordered_map_equal<std::__1::basic_string<char, std::__1::char_traits<char>, std::__1::allocator<char> >, std::__1::__hash_value_type<std::__1::basic_string<char, std::__1::char_traits<char>, std::__1::allocator<char> >, Cvar::CvarRecord>, std::__1::equal_to<std::__1::basic_string<char, std::__1::char_traits<char>, std::__1::allocator<char> > >, true>, std::__1::allocator<std::__1::__hash_value_type<std::__1::basic_string<char, std::__1::char_traits<char>, std::__1::allocator<char> >, Cvar::CvarRecord> > >::find<std::__1::basic_string<char, std::__1::char_traits<char>, std::__1::allocator<char> > >(std::__1::basic_string<char, std::__1::char_traits<char>, std::__1::allocator<char> > const&)
FUNC 13ef80 100 0 <name omitted>
FUNC 13f080 120 0 std::__1::__hash_table<std::__1::__hash_value_type<std::__1::basic_string<char, std::__1::char_traits<char>, std::__1::allocator<char> >, Cvar::CvarRecord>, std::__1::__unordered_map_hasher<std::__1::basic_string<char, std::__1::char_traits<char>, std::__1::allocator<char> >, std::__1::__hash_value_type<std::__1::basic_string<char, std::__1::char_traits<char>, std::__1::allocator<char> >, Cvar::CvarRecord>, std::__1::hash<std::__1::basic_string<char, std::__1::char_traits<char>, std::__1::allocator<char> > >, true>, std::__1::__unordered_map_equal<std::__1::basic_string<char, std::__1::char_traits<char>, std::__1::allocator<char> >, std::__1::__hash_value_type<std::__1::basic_string<char, std::__1::char_traits<char>, std::__1::allocator<char> >, Cvar::CvarRecord>, std::__1::equal_to<std::__1::basic_string<char, std::__1::char_traits<char>, std::__1::allocator<char> > >, true>, std::__1::allocator<std::__1::__hash_value_type<std::__1::basic_string<char, std::__1::char_traits<char>, std::__1::allocator<char> >, Cvar::CvarRecord> > >::rehash(unsigned int)
FUNC 13f1a0 580 0 std::__1::pair<std::__1::__hash_iterator<std::__1::__hash_node<std::__1::__hash_value_type<std::__1::basic_string<char, std::__1::char_traits<char>, std::__1::allocator<char> >, Cvar::CvarRecord>, void*>*>, bool> std::__1::__hash_table<std::__1::__hash_value_type<std::__1::basic_string<char, std::__1::char_traits<char>, std::__1::allocator<char> >, Cvar::CvarRecord>, std::__1::__unordered_map_hasher<std::__1::basic_string<char, std::__1::char_traits<char>, std::__1::allocator<char> >, std::__1::__hash_value_type<std::__1::basic_string<char, std::__1::char_traits<char>, std::__1::allocator<char> >, Cvar::CvarRecord>, std::__1::hash<std::__1::basic_string<char, std::__1::char_traits<char>, std::__1::allocator<char> > >, true>, std::__1::__unordered_map_equal<std::__1::basic_string<char, std::__1::char_traits<char>, std::__1::allocator<char> >, std::__1::__hash_value_type<std::__1::basic_string<char, std::__1::char_traits<char>, std::__1::allocator<char> >, Cvar::CvarRecord>, std::__1::equal_to<std::__1::basic_string<char, std::__1::char_traits<char>, std::__1::allocator<char> > >, true>, std::__1::allocator<std::__1::__hash_value_type<std::__1::basic_string<char, std::__1::char_traits<char>, std::__1::allocator<char> >, Cvar::CvarRecord> > >::__insert_unique<std::__1::pair<std::__1::basic_string<char, std::__1::char_traits<char>, std::__1::allocator<char> > const, Cvar::CvarRecord> const&>(std::__1::pair<std::__1::basic_string<char, std::__1::char_traits<char>, std::__1::allocator<char> > const, Cvar::CvarRecord> const&)
FUNC 13f720 3e0 0 std::__1::__hash_table<std::__1::__hash_value_type<std::__1::basic_string<char, std::__1::char_traits<char>, std::__1::allocator<char> >, Cvar::CvarRecord>, std::__1::__unordered_map_hasher<std::__1::basic_string<char, std::__1::char_traits<char>, std::__1::allocator<char> >, std::__1::__hash_value_type<std::__1::basic_string<char, std::__1::char_traits<char>, std::__1::allocator<char> >, Cvar::CvarRecord>, std::__1::hash<std::__1::basic_string<char, std::__1::char_traits<char>, std::__1::allocator<char> > >, true>, std::__1::__unordered_map_equal<std::__1::basic_string<char, std::__1::char_traits<char>, std::__1::allocator<char> >, std::__1::__hash_value_type<std::__1::basic_string<char, std::__1::char_traits<char>, std::__1::allocator<char> >, Cvar::CvarRecord>, std::__1::equal_to<std::__1::basic_string<char, std::__1::char_traits<char>, std::__1::allocator<char> > >, true>, std::__1::allocator<std::__1::__hash_value_type<std::__1::basic_string<char, std::__1::char_traits<char>, std::__1::allocator<char> >, Cvar::CvarRecord> > >::__node_insert_unique(std::__1::__hash_node<std::__1::__hash_value_type<std::__1::basic_string<char, std::__1::char_traits<char>, std::__1::allocator<char> >, Cvar::CvarRecord>, void*>*)
FUNC 13fb00 440 0 std::__1::__hash_table<std::__1::__hash_value_type<std::__1::basic_string<char, std::__1::char_traits<char>, std::__1::allocator<char> >, Cvar::CvarRecord>, std::__1::__unordered_map_hasher<std::__1::basic_string<char, std::__1::char_traits<char>, std::__1::allocator<char> >, std::__1::__hash_value_type<std::__1::basic_string<char, std::__1::char_traits<char>, std::__1::allocator<char> >, Cvar::CvarRecord>, std::__1::hash<std::__1::basic_string<char, std::__1::char_traits<char>, std::__1::allocator<char> > >, true>, std::__1::__unordered_map_equal<std::__1::basic_string<char, std::__1::char_traits<char>, std::__1::allocator<char> >, std::__1::__hash_value_type<std::__1::basic_string<char, std::__1::char_traits<char>, std::__1::allocator<char> >, Cvar::CvarRecord>, std::__1::equal_to<std::__1::basic_string<char, std::__1::char_traits<char>, std::__1::allocator<char> > >, true>, std::__1::allocator<std::__1::__hash_value_type<std::__1::basic_string<char, std::__1::char_traits<char>, std::__1::allocator<char> >, Cvar::CvarRecord> > >::__rehash(unsigned int)
FUNC 13ff40 520 0 void tinyformat::detail::FormatArg::formatImpl<IPC::SyncMessage<IPC::Message<IPC::Id<(unsigned short)4, (unsigned short)2>, std::__1::basic_string<char, std::__1::char_traits<char>, std::__1::allocator<char> >, std::__1::basic_string<char, std::__1::char_traits<char>, std::__1::allocator<char> > >, IPC::Reply<> >::{unnamed type#1}>(std::__1::basic_ostream<char, std::__1::char_traits<char> >&, char const*, char const, int, void const*)
FUNC 140460 20 0 int tinyformat::detail::FormatArg::toIntImpl<IPC::SyncMessage<IPC::Message<IPC::Id<(unsigned short)4, (unsigned short)2>, std::__1::basic_string<char, std::__1::char_traits<char>, std::__1::allocator<char> >, std::__1::basic_string<char, std::__1::char_traits<char>, std::__1::allocator<char> > >, IPC::Reply<> >::{unnamed type#1}>(void const*)
FUNC 140480 c40 0 void IPC::detail::SendMsg<void (&)(unsigned int, Util::Reader), IPC::Message<IPC::Id<(unsigned short)4, (unsigned short)1>, std::__1::basic_string<char, std::__1::char_traits<char>, std::__1::allocator<char> > >, IPC::Reply<std::__1::basic_string<char, std::__1::char_traits<char>, std::__1::allocator<char> > >, std::__1::basic_string<char, std::__1::char_traits<char>, std::__1::allocator<char> > const&, std::__1::basic_string<char, std::__1::char_traits<char>, std::__1::allocator<char> >&>(IPC::Channel&, void (&)(unsigned int, Util::Reader), IPC::SyncMessage<IPC::Message<IPC::Id<(unsigned short)4, (unsigned short)1>, std::__1::basic_string<char, std::__1::char_traits<char>, std::__1::allocator<char> > >, IPC::Reply<std::__1::basic_string<char, std::__1::char_traits<char>, std::__1::allocator<char> > > >, std::__1::basic_string<char, std::__1::char_traits<char>, std::__1::allocator<char> > const&, std::__1::basic_string<char, std::__1::char_traits<char>, std::__1::allocator<char> >&)
FUNC 1410c0 520 0 void tinyformat::detail::FormatArg::formatImpl<IPC::SyncMessage<IPC::Message<IPC::Id<(unsigned short)4, (unsigned short)1>, std::__1::basic_string<char, std::__1::char_traits<char>, std::__1::allocator<char> > >, IPC::Reply<std::__1::basic_string<char, std::__1::char_traits<char>, std::__1::allocator<char> > > >::{unnamed type#1}>(std::__1::basic_ostream<char, std::__1::char_traits<char> >&, char const*, char const, int, void const*)
FUNC 1415e0 20 0 int tinyformat::detail::FormatArg::toIntImpl<IPC::SyncMessage<IPC::Message<IPC::Id<(unsigned short)4, (unsigned short)1>, std::__1::basic_string<char, std::__1::char_traits<char>, std::__1::allocator<char> > >, IPC::Reply<std::__1::basic_string<char, std::__1::char_traits<char>, std::__1::allocator<char> > > >::{unnamed type#1}>(void const*)
FUNC 141600 ca0 0 void IPC::detail::SendMsg<void (&)(unsigned int, Util::Reader), IPC::Message<IPC::Id<(unsigned short)4, (unsigned short)0>, std::__1::basic_string<char, std::__1::char_traits<char>, std::__1::allocator<char> >, std::__1::basic_string<char, std::__1::char_traits<char>, std::__1::allocator<char> >, int, std::__1::basic_string<char, std::__1::char_traits<char>, std::__1::allocator<char> > >, IPC::Reply<>, std::__1::basic_string<char, std::__1::char_traits<char>, std::__1::allocator<char> > const&, std::__1::basic_string<char, std::__1::char_traits<char>, std::__1::allocator<char> >&, int&, std::__1::basic_string<char, std::__1::char_traits<char>, std::__1::allocator<char> >&>(IPC::Channel&, void (&)(unsigned int, Util::Reader), IPC::SyncMessage<IPC::Message<IPC::Id<(unsigned short)4, (unsigned short)0>, std::__1::basic_string<char, std::__1::char_traits<char>, std::__1::allocator<char> >, std::__1::basic_string<char, std::__1::char_traits<char>, std::__1::allocator<char> >, int, std::__1::basic_string<char, std::__1::char_traits<char>, std::__1::allocator<char> > >, IPC::Reply<> >, std::__1::basic_string<char, std::__1::char_traits<char>, std::__1::allocator<char> > const&, std::__1::basic_string<char, std::__1::char_traits<char>, std::__1::allocator<char> >&, int&, std::__1::basic_string<char, std::__1::char_traits<char>, std::__1::allocator<char> >&)
FUNC 1422a0 520 0 void tinyformat::detail::FormatArg::formatImpl<IPC::SyncMessage<IPC::Message<IPC::Id<(unsigned short)4, (unsigned short)0>, std::__1::basic_string<char, std::__1::char_traits<char>, std::__1::allocator<char> >, std::__1::basic_string<char, std::__1::char_traits<char>, std::__1::allocator<char> >, int, std::__1::basic_string<char, std::__1::char_traits<char>, std::__1::allocator<char> > >, IPC::Reply<> >::{unnamed type#1}>(std::__1::basic_ostream<char, std::__1::char_traits<char> >&, char const*, char const, int, void const*)
FUNC 1427c0 20 0 int tinyformat::detail::FormatArg::toIntImpl<IPC::SyncMessage<IPC::Message<IPC::Id<(unsigned short)4, (unsigned short)0>, std::__1::basic_string<char, std::__1::char_traits<char>, std::__1::allocator<char> >, std::__1::basic_string<char, std::__1::char_traits<char>, std::__1::allocator<char> >, int, std::__1::basic_string<char, std::__1::char_traits<char>, std::__1::allocator<char> > >, IPC::Reply<> >::{unnamed type#1}>(void const*)
FUNC 1427e0 1a0 0 void std::__1::vector<Cmd::Args const*, std::__1::allocator<Cmd::Args const*> >::__push_back_slow_path<Cmd::Args const*>(Cmd::Args const*&&)
FUNC 142980 420 0 std::__1::unordered_map<std::__1::basic_string<char, std::__1::char_traits<char>, std::__1::allocator<char> >, Cmd::CommandRecord, Str::IHash, Str::IEqual, std::__1::allocator<std::__1::pair<std::__1::basic_string<char, std::__1::char_traits<char>, std::__1::allocator<char> > const, Cmd::CommandRecord> > >::unordered_map(std::__1::unordered_map<std::__1::basic_string<char, std::__1::char_traits<char>, std::__1::allocator<char> >, Cmd::CommandRecord, Str::IHash, Str::IEqual, std::__1::allocator<std::__1::pair<std::__1::basic_string<char, std::__1::char_traits<char>, std::__1::allocator<char> > const, Cmd::CommandRecord> > > const&)
FUNC 142da0 200 0 std::__1::__hash_iterator<std::__1::__hash_node<std::__1::__hash_value_type<std::__1::basic_string<char, std::__1::char_traits<char>, std::__1::allocator<char> >, Cmd::CommandRecord>, void*>*> std::__1::__hash_table<std::__1::__hash_value_type<std::__1::basic_string<char, std::__1::char_traits<char>, std::__1::allocator<char> >, Cmd::CommandRecord>, std::__1::__unordered_map_hasher<std::__1::basic_string<char, std::__1::char_traits<char>, std::__1::allocator<char> >, std::__1::__hash_value_type<std::__1::basic_string<char, std::__1::char_traits<char>, std::__1::allocator<char> >, Cmd::CommandRecord>, Str::IHash, true>, std::__1::__unordered_map_equal<std::__1::basic_string<char, std::__1::char_traits<char>, std::__1::allocator<char> >, std::__1::__hash_value_type<std::__1::basic_string<char, std::__1::char_traits<char>, std::__1::allocator<char> >, Cmd::CommandRecord>, Str::IEqual, true>, std::__1::allocator<std::__1::__hash_value_type<std::__1::basic_string<char, std::__1::char_traits<char>, std::__1::allocator<char> >, Cmd::CommandRecord> > >::find<std::__1::basic_string<char, std::__1::char_traits<char>, std::__1::allocator<char> > >(std::__1::basic_string<char, std::__1::char_traits<char>, std::__1::allocator<char> > const&)
FUNC 142fa0 240 0 Str::IHash::operator()(Str::BasicStringRef<char>) const
FUNC 1431e0 120 0 std::__1::__hash_table<std::__1::__hash_value_type<std::__1::basic_string<char, std::__1::char_traits<char>, std::__1::allocator<char> >, Cmd::CommandRecord>, std::__1::__unordered_map_hasher<std::__1::basic_string<char, std::__1::char_traits<char>, std::__1::allocator<char> >, std::__1::__hash_value_type<std::__1::basic_string<char, std::__1::char_traits<char>, std::__1::allocator<char> >, Cmd::CommandRecord>, Str::IHash, true>, std::__1::__unordered_map_equal<std::__1::basic_string<char, std::__1::char_traits<char>, std::__1::allocator<char> >, std::__1::__hash_value_type<std::__1::basic_string<char, std::__1::char_traits<char>, std::__1::allocator<char> >, Cmd::CommandRecord>, Str::IEqual, true>, std::__1::allocator<std::__1::__hash_value_type<std::__1::basic_string<char, std::__1::char_traits<char>, std::__1::allocator<char> >, Cmd::CommandRecord> > >::rehash(unsigned int)
FUNC 143300 3a0 0 std::__1::unique_ptr<std::__1::__hash_node<std::__1::__hash_value_type<std::__1::basic_string<char, std::__1::char_traits<char>, std::__1::allocator<char> >, Cmd::CommandRecord>, void*>, std::__1::__hash_node_destructor<std::__1::allocator<std::__1::__hash_node<std::__1::__hash_value_type<std::__1::basic_string<char, std::__1::char_traits<char>, std::__1::allocator<char> >, Cmd::CommandRecord>, void*> > > > std::__1::__hash_table<std::__1::__hash_value_type<std::__1::basic_string<char, std::__1::char_traits<char>, std::__1::allocator<char> >, Cmd::CommandRecord>, std::__1::__unordered_map_hasher<std::__1::basic_string<char, std::__1::char_traits<char>, std::__1::allocator<char> >, std::__1::__hash_value_type<std::__1::basic_string<char, std::__1::char_traits<char>, std::__1::allocator<char> >, Cmd::CommandRecord>, Str::IHash, true>, std::__1::__unordered_map_equal<std::__1::basic_string<char, std::__1::char_traits<char>, std::__1::allocator<char> >, std::__1::__hash_value_type<std::__1::basic_string<char, std::__1::char_traits<char>, std::__1::allocator<char> >, Cmd::CommandRecord>, Str::IEqual, true>, std::__1::allocator<std::__1::__hash_value_type<std::__1::basic_string<char, std::__1::char_traits<char>, std::__1::allocator<char> >, Cmd::CommandRecord> > >::__construct_node<std::__1::pair<std::__1::basic_string<char, std::__1::char_traits<char>, std::__1::allocator<char> > const, Cmd::CommandRecord> const&>(std::__1::pair<std::__1::basic_string<char, std::__1::char_traits<char>, std::__1::allocator<char> > const, Cmd::CommandRecord> const&)
FUNC 1436a0 420 0 std::__1::__hash_table<std::__1::__hash_value_type<std::__1::basic_string<char, std::__1::char_traits<char>, std::__1::allocator<char> >, Cmd::CommandRecord>, std::__1::__unordered_map_hasher<std::__1::basic_string<char, std::__1::char_traits<char>, std::__1::allocator<char> >, std::__1::__hash_value_type<std::__1::basic_string<char, std::__1::char_traits<char>, std::__1::allocator<char> >, Cmd::CommandRecord>, Str::IHash, true>, std::__1::__unordered_map_equal<std::__1::basic_string<char, std::__1::char_traits<char>, std::__1::allocator<char> >, std::__1::__hash_value_type<std::__1::basic_string<char, std::__1::char_traits<char>, std::__1::allocator<char> >, Cmd::CommandRecord>, Str::IEqual, true>, std::__1::allocator<std::__1::__hash_value_type<std::__1::basic_string<char, std::__1::char_traits<char>, std::__1::allocator<char> >, Cmd::CommandRecord> > >::__node_insert_unique(std::__1::__hash_node<std::__1::__hash_value_type<std::__1::basic_string<char, std::__1::char_traits<char>, std::__1::allocator<char> >, Cmd::CommandRecord>, void*>*)
FUNC 143ac0 420 0 std::__1::__hash_table<std::__1::__hash_value_type<std::__1::basic_string<char, std::__1::char_traits<char>, std::__1::allocator<char> >, Cmd::CommandRecord>, std::__1::__unordered_map_hasher<std::__1::basic_string<char, std::__1::char_traits<char>, std::__1::allocator<char> >, std::__1::__hash_value_type<std::__1::basic_string<char, std::__1::char_traits<char>, std::__1::allocator<char> >, Cmd::CommandRecord>, Str::IHash, true>, std::__1::__unordered_map_equal<std::__1::basic_string<char, std::__1::char_traits<char>, std::__1::allocator<char> >, std::__1::__hash_value_type<std::__1::basic_string<char, std::__1::char_traits<char>, std::__1::allocator<char> >, Cmd::CommandRecord>, Str::IEqual, true>, std::__1::allocator<std::__1::__hash_value_type<std::__1::basic_string<char, std::__1::char_traits<char>, std::__1::allocator<char> >, Cmd::CommandRecord> > >::__rehash(unsigned int)
FUNC 143ee0 520 0 void tinyformat::detail::FormatArg::formatImpl<IPC::Message<IPC::Id<(unsigned short)3, (unsigned short)1>, std::__1::basic_string<char, std::__1::char_traits<char>, std::__1::allocator<char> > >::{unnamed type#1}>(std::__1::basic_ostream<char, std::__1::char_traits<char> >&, char const*, char const, int, void const*)
FUNC 144400 20 0 int tinyformat::detail::FormatArg::toIntImpl<IPC::Message<IPC::Id<(unsigned short)3, (unsigned short)1>, std::__1::basic_string<char, std::__1::char_traits<char>, std::__1::allocator<char> > >::{unnamed type#1}>(void const*)
FUNC 144420 240 0 VMCvarProxy::Update(vmCvar_t*)
FUNC 144660 c0 0 <name omitted>
FUNC 144720 100 0 VMCvarProxy::~VMCvarProxy()
FUNC 144820 140 0 VMCvarProxy::OnValueChanged(Str::BasicStringRef<char>)
FUNC 144960 20 0 TrapProxyCommand::~TrapProxyCommand()
FUNC 144980 1c0 0 TrapProxyCommand::Run(Cmd::Args const&) const
FUNC 144b40 900 0 TrapProxyCommand::Complete(int, Cmd::Args const&, Str::BasicStringRef<char>) const
FUNC 145440 820 0 void IPC::detail::SendMsg<void (&)(unsigned int, Util::Reader), IPC::Id<(unsigned short)3, (unsigned short)0>, std::__1::basic_string<char, std::__1::char_traits<char>, std::__1::allocator<char> >, std::__1::basic_string<char, std::__1::char_traits<char>, std::__1::allocator<char> >, std::__1::basic_string<char, std::__1::char_traits<char>, std::__1::allocator<char> >&, std::__1::basic_string<char, std::__1::char_traits<char>, std::__1::allocator<char> >&>(IPC::Channel&, void (&)(unsigned int, Util::Reader), IPC::Message<IPC::Id<(unsigned short)3, (unsigned short)0>, std::__1::basic_string<char, std::__1::char_traits<char>, std::__1::allocator<char> >, std::__1::basic_string<char, std::__1::char_traits<char>, std::__1::allocator<char> > >, std::__1::basic_string<char, std::__1::char_traits<char>, std::__1::allocator<char> >&, std::__1::basic_string<char, std::__1::char_traits<char>, std::__1::allocator<char> >&)
FUNC 145c60 520 0 void tinyformat::detail::FormatArg::formatImpl<IPC::Message<IPC::Id<(unsigned short)3, (unsigned short)0>, std::__1::basic_string<char, std::__1::char_traits<char>, std::__1::allocator<char> >, std::__1::basic_string<char, std::__1::char_traits<char>, std::__1::allocator<char> > >::{unnamed type#1}>(std::__1::basic_ostream<char, std::__1::char_traits<char> >&, char const*, char const, int, void const*)
FUNC 146180 20 0 int tinyformat::detail::FormatArg::toIntImpl<IPC::Message<IPC::Id<(unsigned short)3, (unsigned short)0>, std::__1::basic_string<char, std::__1::char_traits<char>, std::__1::allocator<char> >, std::__1::basic_string<char, std::__1::char_traits<char>, std::__1::allocator<char> > >::{unnamed type#1}>(void const*)
FUNC 1461a0 140 0 <name omitted>
FUNC 1462e0 5a0 0 Sys::Error(Str::BasicStringRef<char>)
FUNC 146880 f00 0 main
FUNC 147780 c0 0 Color::StrlenNocolor(char const*)
FUNC 147840 120 0 Color::StripColors(char const*, char*, unsigned int)
FUNC 147960 460 0 Color::detail::ToString(Color::BasicColor<unsigned char, Color::ColorComponentTraits<unsigned char> > const&)
FUNC 147dc0 620 0 Color::TokenIterator::NextToken(char const*)
FUNC 1483e0 560 0 Cmd::Escape(Str::BasicStringRef<char>)
FUNC 148940 940 0 Cmd::Args::Args(Str::BasicStringRef<char>)
FUNC 149280 220 0 Cmd::Args::ConcatArgs(int, int) const
FUNC 1494a0 c00 0 Cvar::CvarProxy::Register(std::__1::basic_string<char, std::__1::char_traits<char>, std::__1::allocator<char> >)
FUNC 14a0a0 2e0 0 Cvar::ParseCvarValue(Str::BasicStringRef<char>, bool&)
FUNC 14a380 c0 0 std::__1::__vector_base<std::__1::basic_string<char, std::__1::char_traits<char>, std::__1::allocator<char> >, std::__1::allocator<std::__1::basic_string<char, std::__1::char_traits<char>, std::__1::allocator<char> > > >::~__vector_base()
FUNC 14a440 160 0 std::__1::__vector_base<FS::PakInfo, std::__1::allocator<FS::PakInfo> >::~__vector_base()
FUNC 14a5a0 1a0 0 std::__1::__vector_base<FS::LoadedPakInfo, std::__1::allocator<FS::LoadedPakInfo> >::~__vector_base()
FUNC 14a740 c0 0 FS::PakPath::LoadedPakGuard::~LoadedPakGuard()
FUNC 14a800 e0 0 std::__1::unordered_map<std::__1::basic_string<char, std::__1::char_traits<char>, std::__1::allocator<char> >, std::__1::pair<unsigned int, long long>, std::__1::hash<std::__1::basic_string<char, std::__1::char_traits<char>, std::__1::allocator<char> > >, std::__1::equal_to<std::__1::basic_string<char, std::__1::char_traits<char>, std::__1::allocator<char> > >, std::__1::allocator<std::__1::pair<std::__1::basic_string<char, std::__1::char_traits<char>, std::__1::allocator<char> > const, std::__1::pair<unsigned int, long long> > > >::~unordered_map()
FUNC 14a8e0 7440 0 FS::PakPath::ReadFile(Str::BasicStringRef<char>, std::__1::error_code&)
FUNC 151d20 160 0 FS::File::~File()
FUNC 151e80 440 0 std::__1::__hash_table<std::__1::__hash_value_type<std::__1::basic_string<char, std::__1::char_traits<char>, std::__1::allocator<char> >, std::__1::pair<unsigned int, long long> >, std::__1::__unordered_map_hasher<std::__1::basic_string<char, std::__1::char_traits<char>, std::__1::allocator<char> >, std::__1::__hash_value_type<std::__1::basic_string<char, std::__1::char_traits<char>, std::__1::allocator<char> >, std::__1::pair<unsigned int, long long> >, std::__1::hash<std::__1::basic_string<char, std::__1::char_traits<char>, std::__1::allocator<char> > >, true>, std::__1::__unordered_map_equal<std::__1::basic_string<char, std::__1::char_traits<char>, std::__1::allocator<char> >, std::__1::__hash_value_type<std::__1::basic_string<char, std::__1::char_traits<char>, std::__1::allocator<char> >, std::__1::pair<unsigned int, long long> >, std::__1::equal_to<std::__1::basic_string<char, std::__1::char_traits<char>, std::__1::allocator<char> > >, true>, std::__1::allocator<std::__1::__hash_value_type<std::__1::basic_string<char, std::__1::char_traits<char>, std::__1::allocator<char> >, std::__1::pair<unsigned int, long long> > > >::__rehash(unsigned int)
FUNC 1522c0 2e0 0 FS::PakInfo::operator=(FS::PakInfo&&)
FUNC 1525a0 520 0 void tinyformat::detail::FormatArg::formatImpl<IPC::SyncMessage<IPC::Message<IPC::Id<(unsigned short)6, (unsigned short)0>>, IPC::Reply<std::__1::basic_string<char, std::__1::char_traits<char>, std::__1::allocator<char> >, std::__1::basic_string<char, std::__1::char_traits<char>, std::__1::allocator<char> >, std::__1::vector<FS::PakInfo, std::__1::allocator<FS::PakInfo> >, std::__1::vector<FS::LoadedPakInfo, std::__1::allocator<FS::LoadedPakInfo> >, std::__1::unordered_map<std::__1::basic_string<char, std::__1::char_traits<char>, std::__1::allocator<char> >, std::__1::pair<unsigned int, long long>, std::__1::hash<std::__1::basic_string<char, std::__1::char_traits<char>, std::__1::allocator<char> > >, std::__1::equal_to<std::__1::basic_string<char, std::__1::char_traits<char>, std::__1::allocator<char> > >, std::__1::allocator<std::__1::pair<std::__1::basic_string<char, std::__1::char_traits<char>, std::__1::allocator<char> > const, std::__1::pair<unsigned int, long long> > > > > >::{unnamed type#1}>(std::__1::basic_ostream<char, std::__1::char_traits<char> >&, char const*, char const, int, void const*)
FUNC 152ac0 20 0 int tinyformat::detail::FormatArg::toIntImpl<IPC::SyncMessage<IPC::Message<IPC::Id<(unsigned short)6, (unsigned short)0>>, IPC::Reply<std::__1::basic_string<char, std::__1::char_traits<char>, std::__1::allocator<char> >, std::__1::basic_string<char, std::__1::char_traits<char>, std::__1::allocator<char> >, std::__1::vector<FS::PakInfo, std::__1::allocator<FS::PakInfo> >, std::__1::vector<FS::LoadedPakInfo, std::__1::allocator<FS::LoadedPakInfo> >, std::__1::unordered_map<std::__1::basic_string<char, std::__1::char_traits<char>, std::__1::allocator<char> >, std::__1::pair<unsigned int, long long>, std::__1::hash<std::__1::basic_string<char, std::__1::char_traits<char>, std::__1::allocator<char> > >, std::__1::equal_to<std::__1::basic_string<char, std::__1::char_traits<char>, std::__1::allocator<char> > >, std::__1::allocator<std::__1::pair<std::__1::basic_string<char, std::__1::char_traits<char>, std::__1::allocator<char> > const, std::__1::pair<unsigned int, long long> > > > > >::{unnamed type#1}>(void const*)
FUNC 152ae0 520 0 void tinyformat::detail::FormatArg::formatImpl<IPC::SyncMessage<IPC::Message<IPC::Id<(unsigned short)6, (unsigned short)8>, unsigned int, std::__1::basic_string<char, std::__1::char_traits<char>, std::__1::allocator<char> > >, IPC::Reply<Util::optional<IPC::OwnedFileHandle> > >::{unnamed type#1}>(std::__1::basic_ostream<char, std::__1::char_traits<char> >&, char const*, char const, int, void const*)
FUNC 153000 20 0 int tinyformat::detail::FormatArg::toIntImpl<IPC::SyncMessage<IPC::Message<IPC::Id<(unsigned short)6, (unsigned short)8>, unsigned int, std::__1::basic_string<char, std::__1::char_traits<char>, std::__1::allocator<char> > >, IPC::Reply<Util::optional<IPC::OwnedFileHandle> > >::{unnamed type#1}>(void const*)
FUNC 153020 20 0 FS::minizip_category_impl::~minizip_category_impl()
FUNC 153040 20 0 FS::minizip_category_impl::name() const
FUNC 153060 180 0 FS::minizip_category_impl::message(int) const
FUNC 1531e0 20 0 FS::filesystem_category_impl::~filesystem_category_impl()
FUNC 153200 20 0 FS::filesystem_category_impl::name() const
FUNC 153220 e0 0 FS::filesystem_category_impl::message(int) const
FUNC 153300 380 0 <name omitted>
FUNC 153680 160 0 FS::SetErrorCodeSystem(std::__1::error_code&)
FUNC 1537e0 180 0 FS::SetErrorCodeFilesystem(std::__1::error_code&, FS::filesystem_error)
FUNC 153960 1a0 0 FS::SetErrorCodeZlib(std::__1::error_code&, int)
FUNC 153b00 40 0 FS::(anonymous namespace)::ZipArchive::Open(int, std::__1::error_code&)::{lambda(void*, void*)#3}::__invoke(void*, void*)
FUNC 153b40 40 0 FS::(anonymous namespace)::ZipArchive::Open(int, std::__1::error_code&)::{lambda(void*, void*)#2}::__invoke(void*, void*)
FUNC 153b80 c0 0 FS::(anonymous namespace)::ZipArchive::Open(int, std::__1::error_code&)::{lambda(void*, void*, unsigned long long, int)#1}::__invoke(void*, void*, unsigned long long, int)
FUNC 153c40 20 0 FS::(anonymous namespace)::ZipArchive::Open(int, std::__1::error_code&)::{lambda(void*, void*)#1}::__invoke(void*, void*)
FUNC 153c60 180 0 FS::(anonymous namespace)::ZipArchive::Open(int, std::__1::error_code&)::{lambda(void*, void*, void*, unsigned long)#1}::__invoke(void*, void*, void*, unsigned long)
FUNC 153de0 20 0 FS::(anonymous namespace)::ZipArchive::Open(int, std::__1::error_code&)::{lambda(void*, void const*, int)#1}::__invoke(void*, void const*, int)
FUNC 153e00 260 0 IPC::Socket::SendMsg(Util::Writer const&) const
FUNC 154060 a0 0 void Sys::Drop<char (&) [256]>(Str::BasicStringRef<char>, char (&) [256])
FUNC 154100 8a0 0 IPC::Socket::RecvMsg() const
FUNC 1549a0 520 0 void tinyformat::detail::FormatArg::formatImpl<IPC::SyncMessage<IPC::Message<IPC::Id<(unsigned short)2, (unsigned short)0>, unsigned int>, IPC::Reply<IPC::SharedMemory> >::{unnamed type#1}>(std::__1::basic_ostream<char, IPC::SyncMessage<IPC::Message<IPC::Id<(unsigned short)2, (unsigned short)0>, unsigned int>, IPC::Reply<IPC::SharedMemory> >::{unnamed type#1}::char_traits<char> >&, char const*, char const, int, void const*)
FUNC 154ec0 20 0 int tinyformat::detail::FormatArg::toIntImpl<IPC::SyncMessage<IPC::Message<IPC::Id<(unsigned short)2, (unsigned short)0>, unsigned int>, IPC::Reply<IPC::SharedMemory> >::{unnamed type#1}>(void const*)
FUNC 154ee0 a0 0 std::__1::unordered_map<Str::BasicStringRef<char>, keyNum_t, Str::IHash, Str::IEqual, std::__1::allocator<std::__1::pair<Str::BasicStringRef<char> const, keyNum_t> > >::~unordered_map()
FUNC 154f80 a0 0 std::__1::unordered_map<char, Str::BasicStringRef<char>, std::__1::hash<char>, std::__1::equal_to<char>, std::__1::allocator<std::__1::pair<char const, Str::BasicStringRef<char> > > >::~unordered_map()
FUNC 155020 280 0 std::__1::__hash_table<std::__1::__hash_value_type<char, Str::BasicStringRef<char> >, std::__1::__unordered_map_hasher<char, std::__1::__hash_value_type<char, Str::BasicStringRef<char> >, std::__1::hash<char>, true>, std::__1::__unordered_map_equal<char, std::__1::__hash_value_type<char, Str::BasicStringRef<char> >, std::__1::equal_to<char>, true>, std::__1::allocator<std::__1::__hash_value_type<char, Str::BasicStringRef<char> > > >::__rehash(unsigned int)
FUNC 1552a0 380 0 std::__1::__hash_table<std::__1::__hash_value_type<Str::BasicStringRef<char>, keyNum_t>, std::__1::__unordered_map_hasher<Str::BasicStringRef<char>, std::__1::__hash_value_type<Str::BasicStringRef<char>, keyNum_t>, Str::IHash, true>, std::__1::__unordered_map_equal<Str::BasicStringRef<char>, std::__1::__hash_value_type<Str::BasicStringRef<char>, keyNum_t>, Str::IEqual, true>, std::__1::allocator<std::__1::__hash_value_type<Str::BasicStringRef<char>, keyNum_t> > >::__rehash(unsigned int)
FUNC 155620 2840 0 <name omitted>
FUNC 157e60 a20 0 Log::Logger::Logger(Str::BasicStringRef<char>, std::__1::basic_string<char, std::__1::char_traits<char>, std::__1::allocator<char> >, Log::Level)
FUNC 158880 1c0 0 Log::Logger::Prefix(std::__1::basic_string<char, std::__1::char_traits<char>, std::__1::allocator<char> >) const
FUNC 158a40 f80 0 Log::Logger::Dispatch(std::__1::basic_string<char, std::__1::char_traits<char>, std::__1::allocator<char> >, Log::Level, Str::BasicStringRef<char>)
FUNC 1599c0 520 0 Log::DispatchByLevel(std::__1::basic_string<char, std::__1::char_traits<char>, std::__1::allocator<char> >, Log::Level)
FUNC 159ee0 a0 0 void Sys::Error<Str::BasicStringRef<char>&, std::__1::basic_string<char, std::__1::char_traits<char>, std::__1::allocator<char> >&>(Str::BasicStringRef<char>, Str::BasicStringRef<char>&, std::__1::basic_string<char, std::__1::char_traits<char>, std::__1::allocator<char> >&)
FUNC 159f80 20 0 std::__1::__shared_ptr_pointer<Cvar::Cvar<Log::Level>*, std::__1::default_delete<Cvar::Cvar<Log::Level> >, std::__1::allocator<Cvar::Cvar<Log::Level> > >::~__shared_ptr_pointer()
FUNC 159fa0 40 0 std::__1::__shared_ptr_pointer<Cvar::Cvar<Log::Level>*, std::__1::default_delete<Cvar::Cvar<Log::Level> >, std::__1::allocator<Cvar::Cvar<Log::Level> > >::__on_zero_shared()
FUNC 159fe0 40 0 std::__1::__shared_ptr_pointer<Cvar::Cvar<Log::Level>*, std::__1::default_delete<Cvar::Cvar<Log::Level> >, std::__1::allocator<Cvar::Cvar<Log::Level> > >::__get_deleter(std::type_info const&) const
FUNC 15a020 20 0 std::__1::__shared_ptr_pointer<Cvar::Cvar<Log::Level>*, std::__1::default_delete<Cvar::Cvar<Log::Level> >, std::__1::allocator<Cvar::Cvar<Log::Level> > >::__on_zero_shared_weak()
FUNC 15a040 c0 0 <name omitted>
FUNC 15a100 100 0 Cvar::Cvar<Log::Level>::~Cvar()
FUNC 15a200 400 0 Cvar::Cvar<Log::Level>::OnValueChanged(Str::BasicStringRef<char>)
FUNC 15a600 40 0 Cvar::Cvar<Log::Level>::Validate(Log::Level const&)
FUNC 15a640 20 0 Cvar::Cvar<Log::Level>::GetAdditionalDescription()
FUNC 15a660 1a0 0 Cvar::Cvar<Log::Level>::GetDescription()
FUNC 15a800 80 0 <name omitted>
FUNC 15a880 100 0 Log::(anonymous namespace)::LogSpamSuppressor::~LogSpamSuppressor()
FUNC 15a980 240 0 int Log::GetCvarOrDie<int>(Str::BasicStringRef<char>)
FUNC 15abc0 160 0 Str::ParseInt(int&, Str::BasicStringRef<char>)
FUNC 15ad20 1e0 0 Sys::Drop(Str::BasicStringRef<char>)
FUNC 15af00 20 0 Sys::OSExit(int)
FUNC 15b060 80 0 Sys::DropErr::~DropErr()
FUNC 15b0e0 b40 0 Sys::CrashHandler(void const*, unsigned int)
FUNC 15bc20 60 0 std::__1::__vector_base<void*, std::__1::allocator<void*> >::~__vector_base()
FUNC 15bc80 c0 0 <name omitted>
FUNC 15bd40 74c0 0 CM_LoadMap(Str::BasicStringRef<char>)
FUNC 163200 a0 0 <name omitted>
FUNC 1632a0 a0 0 void Sys::Drop<int&, int&>(Str::BasicStringRef<char>, int&, int&)
FUNC 163340 8c0 0 CM_TempBoxModel(float const*, float const*, int)
FUNC 163c00 100 0 <name omitted>
FUNC 163d00 1a0 0 void std::__1::vector<void*, std::__1::allocator<void*> >::__push_back_slow_path<void* const&>(void* const&)
FUNC 163ea0 200 0 <name omitted>
FUNC 1640a0 500 0 void tinyformat::detail::FormatArg::formatImpl<void*>(std::__1::basic_ostream<char, std::__1::char_traits<char> >&, char const*, char const*, int, void const*)
FUNC 1645a0 a0 0 int tinyformat::detail::FormatArg::toIntImpl<void*>(void const*)
FUNC 164640 5c0 0 CM_SubdivideGridColumns(cGrid_t*)
FUNC 164c00 1e0 0 CM_RemoveDegenerateColumns(cGrid_t*)
FUNC 164de0 400 0 CM_EdgePlaneNum(cGrid_t*, int (*) [129][2], int, int, int)
FUNC 1651e0 240 0 CM_SetBorderInward(cFacet_t*, cGrid_t*, int, int, int)
FUNC 165420 1e0 0 CM_PlaneEqual(cPlane_t*, float*, bool*)
FUNC 165600 260 0 CM_FindPlane2(float*, bool*)
FUNC 165860 420 0 CM_FindPlane(float const*, float const*, float const*)
FUNC 165c80 c0 0 CM_PointOnPlaneSide(float*, int)
FUNC 165d40 2e0 0 CM_ValidateFacet(cFacet_t*)
FUNC 166020 1000 0 CM_AddFacetBevels(cFacet_t*)
FUNC 167020 40 0 <name omitted>
FUNC 167060 120 0 WindingBounds(winding_t*, float*, float*)
FUNC 167180 480 0 BaseWindingForPlane(float*, float)
FUNC 167600 6a0 0 ChopWindingInPlace(winding_t**, float*, float, float)
FUNC 167ca0 e0 0 CM_PointLeafnum(float const*)
FUNC 167d80 80 0 CM_StoreLeafs(leafList_t*, int)
FUNC 167e00 280 0 CM_BoxLeafnums_r(leafList_t*, int)
FUNC 168080 340 0 CM_PointContents(float const*, int)
FUNC 1683c0 e0 0 CM_FloodArea_r(int, int)
FUNC 1684a0 1a0 0 CM_BoundsIntersect(float const*, float const*, float const*, float const*)
FUNC 168640 160 0 <name omitted>
FUNC 1687a0 200 0 CM_DistanceFromLineSquared(float*, float*, float*, float*)
FUNC 1689a0 640 0 CM_TestInLeaf(traceWork_t*, cLeaf_t*)
FUNC 168fe0 de0 0 CM_TraceThroughSurfaceCollide(traceWork_t*, cSurfaceCollide_t const*)
FUNC 169dc0 140 0 CM_TraceThroughSurface(traceWork_t*, cSurface_t*)
FUNC 169f00 920 0 CM_TraceThroughBrush(traceWork_t*, cbrush_t*)
FUNC 16a820 c20 0 CM_TraceThroughLeaf(traceWork_t*, cLeaf_t*)
FUNC 16b440 580 0 CM_TraceThroughSphere(traceWork_t*, float*, float, float*, float*)
FUNC 16b9c0 720 0 CM_TransformedBoxTrace(trace_t*, float const*, float const*, float const*, float const*, int, int, int, float const*, float const*, traceType_t)
FUNC 16c0e0 160 0 <name omitted>
FUNC 16c240 400 0 CM_PositionTestInSurfaceCollide(traceWork_t*, cSurfaceCollide_t const*)
FUNC 16c640 19e0 0 CM_Trace(trace_t*, float const*, float const*, float*, float*, int, float const*, int, int, traceType_t, sphere_t*)
FUNC 16e020 480 0 CM_TraceThroughTree(traceWork_t*, int, float, float, float*, float*)
FUNC 16e4a0 500 0 void tinyformat::detail::FormatArg::formatImpl<int*>(std::__1::basic_ostream<char, std::__1::char_traits<char> >&, char const*, char const*, int, void const*)
FUNC 16e9a0 a0 0 int tinyformat::detail::FormatArg::toIntImpl<int*>(void const*)
FUNC 16ea40 500 0 void tinyformat::detail::FormatArg::formatImpl<float (*) [3]>(std::__1::basic_ostream<char, std::__1::char_traits<char> >&, char const*, char const*, int, void const*)
FUNC 16ef40 a0 0 int tinyformat::detail::FormatArg::toIntImpl<float (*) [3]>(void const*)
FUNC 16efe0 a0 0 DirToByte(float*)
FUNC 16f080 e0 0 VectorNormalize(float*)
FUNC 16f160 100 0 VectorNormalize2(float const*, float*)
FUNC 16f260 1c0 0 RotatePointAroundVector(float*, float const*, float const*, float)
FUNC 16f420 1c0 0 PerpendicularVector(float*, float const*)
FUNC 16f5e0 1c0 0 vectoangles(float const*, float*)
FUNC 16f7a0 280 0 AngleVectors(float const*, float*, float*, float*)
FUNC 16fa20 e0 0 AddPointToBounds(float const*, float*, float*)
FUNC 16fb00 5a0 0 QuatFromAngles(float*, float, float, float)
FUNC 1700a0 6c0 0 QuatToAngles(float const*, float*)
FUNC 170760 c0 0 Q_strncpyz(char*, char const*, int)
FUNC 170a60 60 0 Com_EntityTypeName(entityType_t)
FUNC 170ac0 300 0 COM_ParseExt(char const**, bool)
FUNC 170ec0 5a0 0 COM_ParseExt2(char const**, bool)
FUNC 171460 3c0 0 Info_SetValueForKey(char*, char const*, char const*, bool)
FUNC 171820 c0 0 <name omitted>
FUNC 1718e0 e0 0 Q_strnicmp(char const*, char const*, int)
FUNC 1719c0 120 0 Q_strcat(char*, int, char const*)
FUNC 171ae0 380 0 Com_Filter(char const*, char const*, int)
FUNC 171fa0 300 0 Info_ValueForKey(char const*, char const*)
FUNC 1722a0 2c0 0 Info_RemoveKey(char*, char const*, bool)
FUNC 172560 3a0 0 Com_GMTime(qtime_t*)
FUNC 172900 4c0 0 std::__1::basic_string<char, std::__1::char_traits<char>, std::__1::allocator<char> > tinyformat::format<char*, char const*, char const*>(char const*, char* const&, char const* const&, char const* const&)
FUNC 172dc0 620 0 void Log::Logger::Warn<char (&) [1024], int&, char (&) [4096]>(Str::BasicStringRef<char>, char (&) [1024], int&, char (&) [4096])
FUNC 1733e0 a0 0 void tinyformat::detail::FormatArg::formatImpl<char [4096]>(std::__1::basic_ostream<char, std::__1::char_traits<char> >&, char const*, char const*, int, void const*)
FUNC 173480 a0 0 int tinyformat::detail::FormatArg::toIntImpl<char [4096]>(void const*)
FUNC 173520 400 0 Q_UTF8_CodePoint(char const*)
FUNC 173920 c0 0 Q_Unicode_IsAlphaOrIdeo(int)
FUNC 1739e0 140 0 NaClGetLastErrorString
FUNC 173b20 12e0 0 CrashHandler
FUNC 174e00 140 0 unzClose
FUNC 174f40 1aa0 0 unzOpenInternal
FUNC 1769e0 1560 0 unz64local_GetCurrentFileInfoInternal
FUNC 177f40 2a0 0 unz64local_getLong
FUNC 1781e0 560 0 unz64local_getLong64
FUNC 178740 20 0 fread_file_func
FUNC 178760 20 0 fwrite_file_func
FUNC 178780 40 0 fclose_file_func
FUNC 1787c0 20 0 ferror_file_func
FUNC 1787e0 340 0 fopen64_file_func
FUNC 178b20 40 0 ftell64_file_func
FUNC 178b60 a0 0 fseek64_file_func
FUNC 178c00 440 0 crc32
FUNC 179040 c0 0 inflateEnd
FUNC 179100 7c0 0 inflate_table
FUNC 1798c0 20 0 zcalloc
FUNC 1798e0 20 0 zcfree
FUNC 179900 400 0 adler32
FUNC 179d00 e0 0 std::logic_error::logic_error(char const*)
FUNC 179de0 e0 0 <name omitted>
FUNC 179ec0 9a0 0 std::__1::__next_prime(unsigned int)
FUNC 17a860 20 0 std::__1::locale::facet::~facet()
FUNC 17a880 80 0 std::__1::collate<char>::do_compare(char const*, char const*, char const*, char const*) const
FUNC 17a900 20 0 std::__1::collate<char>::do_transform(char const*, char const*) const
FUNC 17a920 60 0 std::__1::collate<char>::do_hash(char const*, char const*) const
FUNC 17a980 60 0 std::__1::collate<wchar_t>::do_compare(wchar_t const*, wchar_t const*, wchar_t const*, wchar_t const*) const
FUNC 17a9e0 20 0 std::__1::collate<wchar_t>::do_transform(wchar_t const*, wchar_t const*) const
FUNC 17aa00 60 0 std::__1::collate<wchar_t>::do_hash(wchar_t const*, wchar_t const*) const
FUNC 17aa60 600 0 std::__1::num_get<char, std::__1::istreambuf_iterator<char, std::__1::char_traits<char> > >::do_get(std::__1::istreambuf_iterator<char, std::__1::char_traits<char> >, std::__1::istreambuf_iterator<char, std::__1::char_traits<char> >, std::__1::ios_base&, unsigned int&, bool&) const
FUNC 17b060 860 0 std::__1::basic_string<char, std::__1::char_traits<char>, std::__1::allocator<char> > const* std::__1::__scan_keyword<std::__1::istreambuf_iterator<char, std::__1::char_traits<char> >, std::__1::basic_string<char, std::__1::char_traits<char>, std::__1::allocator<char> > const*, std::__1::ctype<char> >(std::__1::istreambuf_iterator<char, std::__1::char_traits<char> >&, std::__1::istreambuf_iterator<char, std::__1::char_traits<char> >, std::__1::basic_string<char, std::__1::char_traits<char>, std::__1::allocator<char> > const*, std::__1::basic_string<char, std::__1::char_traits<char>, std::__1::allocator<char> > const*, std::__1::ctype<char> const&, unsigned int&, bool)
FUNC 17b8c0 760 0 std::__1::num_get<char, std::__1::istreambuf_iterator<char, std::__1::char_traits<char> > >::do_get(std::__1::istreambuf_iterator<char, std::__1::char_traits<char> >, std::__1::istreambuf_iterator<char, std::__1::char_traits<char> >, std::__1::ios_base&, unsigned int&, long&) const
FUNC 17c020 760 0 std::__1::num_get<char, std::__1::istreambuf_iterator<char, std::__1::char_traits<char> > >::do_get(std::__1::istreambuf_iterator<char, std::__1::char_traits<char> >, std::__1::istreambuf_iterator<char, std::__1::char_traits<char> >, std::__1::ios_base&, unsigned int&, long long&) const
FUNC 17c780 760 0 std::__1::num_get<char, std::__1::istreambuf_iterator<char, std::__1::char_traits<char> > >::do_get(std::__1::istreambuf_iterator<char, std::__1::char_traits<char> >, std::__1::istreambuf_iterator<char, std::__1::char_traits<char> >, std::__1::ios_base&, unsigned int&, unsigned short&) const
FUNC 17cee0 760 0 std::__1::num_get<char, std::__1::istreambuf_iterator<char, std::__1::char_traits<char> > >::do_get(std::__1::istreambuf_iterator<char, std::__1::char_traits<char> >, std::__1::istreambuf_iterator<char, std::__1::char_traits<char> >, std::__1::ios_base&, unsigned int&, unsigned int&) const
FUNC 17d640 760 0 std::__1::num_get<char, std::__1::istreambuf_iterator<char, std::__1::char_traits<char> > >::do_get(std::__1::istreambuf_iterator<char, std::__1::char_traits<char> >, std::__1::istreambuf_iterator<char, std::__1::char_traits<char> >, std::__1::ios_base&, unsigned int&, unsigned long&) const
FUNC 17dda0 760 0 std::__1::num_get<char, std::__1::istreambuf_iterator<char, std::__1::char_traits<char> > >::do_get(std::__1::istreambuf_iterator<char, std::__1::char_traits<char> >, std::__1::istreambuf_iterator<char, std::__1::char_traits<char> >, std::__1::ios_base&, unsigned int&, unsigned long long&) const
FUNC 17e500 7a0 0 std::__1::num_get<char, std::__1::istreambuf_iterator<char, std::__1::char_traits<char> > >::do_get(std::__1::istreambuf_iterator<char, std::__1::char_traits<char> >, std::__1::istreambuf_iterator<char, std::__1::char_traits<char> >, std::__1::ios_base&, unsigned int&, float&) const
FUNC 17eca0 7a0 0 std::__1::num_get<char, std::__1::istreambuf_iterator<char, std::__1::char_traits<char> > >::do_get(std::__1::istreambuf_iterator<char, std::__1::char_traits<char> >, std::__1::istreambuf_iterator<char, std::__1::char_traits<char> >, std::__1::ios_base&, unsigned int&, double&) const
FUNC 17f440 7a0 0 std::__1::num_get<char, std::__1::istreambuf_iterator<char, std::__1::char_traits<char> > >::do_get(std::__1::istreambuf_iterator<char, std::__1::char_traits<char> >, std::__1::istreambuf_iterator<char, std::__1::char_traits<char> >, std::__1::ios_base&, unsigned int&, long double&) const
FUNC 17fbe0 8e0 0 std::__1::num_get<char, std::__1::istreambuf_iterator<char, std::__1::char_traits<char> > >::do_get(std::__1::istreambuf_iterator<char, std::__1::char_traits<char> >, std::__1::istreambuf_iterator<char, std::__1::char_traits<char> >, std::__1::ios_base&, unsigned int&, void*&) const
FUNC 1804c0 3e0 0 std::__1::__num_get<char>::__stage2_int_loop(char, int, char*, char*&, unsigned int&, char, std::__1::basic_string<char, std::__1::char_traits<char>, std::__1::allocator<char> > const&, unsigned int*, unsigned int*&, char*)
FUNC 180980 600 0 std::__1::num_get<wchar_t, std::__1::istreambuf_iterator<wchar_t, std::__1::char_traits<wchar_t> > >::do_get(std::__1::istreambuf_iterator<wchar_t, std::__1::char_traits<wchar_t> >, std::__1::istreambuf_iterator<wchar_t, std::__1::char_traits<wchar_t> >, std::__1::ios_base&, unsigned int&, bool&) const
FUNC 180f80 8e0 0 std::__1::basic_string<wchar_t, std::__1::char_traits<wchar_t>, std::__1::allocator<wchar_t> > const* std::__1::__scan_keyword<std::__1::istreambuf_iterator<wchar_t, std::__1::char_traits<wchar_t> >, std::__1::basic_string<wchar_t, std::__1::char_traits<wchar_t>, std::__1::allocator<wchar_t> > const*, std::__1::ctype<wchar_t> >(std::__1::istreambuf_iterator<wchar_t, std::__1::char_traits<wchar_t> >&, std::__1::istreambuf_iterator<wchar_t, std::__1::char_traits<wchar_t> >, std::__1::basic_string<wchar_t, std::__1::char_traits<wchar_t>, std::__1::allocator<wchar_t> > const*, std::__1::basic_string<wchar_t, std::__1::char_traits<wchar_t>, std::__1::allocator<wchar_t> > const*, std::__1::ctype<wchar_t> const&, unsigned int&, bool)
FUNC 181860 7c0 0 std::__1::num_get<wchar_t, std::__1::istreambuf_iterator<wchar_t, std::__1::char_traits<wchar_t> > >::do_get(std::__1::istreambuf_iterator<wchar_t, std::__1::char_traits<wchar_t> >, std::__1::istreambuf_iterator<wchar_t, std::__1::char_traits<wchar_t> >, std::__1::ios_base&, unsigned int&, long&) const
FUNC 182020 7c0 0 std::__1::num_get<wchar_t, std::__1::istreambuf_iterator<wchar_t, std::__1::char_traits<wchar_t> > >::do_get(std::__1::istreambuf_iterator<wchar_t, std::__1::char_traits<wchar_t> >, std::__1::istreambuf_iterator<wchar_t, std::__1::char_traits<wchar_t> >, std::__1::ios_base&, unsigned int&, long long&) const
FUNC 1827e0 7c0 0 std::__1::num_get<wchar_t, std::__1::istreambuf_iterator<wchar_t, std::__1::char_traits<wchar_t> > >::do_get(std::__1::istreambuf_iterator<wchar_t, std::__1::char_traits<wchar_t> >, std::__1::istreambuf_iterator<wchar_t, std::__1::char_traits<wchar_t> >, std::__1::ios_base&, unsigned int&, unsigned short&) const
FUNC 182fa0 7c0 0 std::__1::num_get<wchar_t, std::__1::istreambuf_iterator<wchar_t, std::__1::char_traits<wchar_t> > >::do_get(std::__1::istreambuf_iterator<wchar_t, std::__1::char_traits<wchar_t> >, std::__1::istreambuf_iterator<wchar_t, std::__1::char_traits<wchar_t> >, std::__1::ios_base&, unsigned int&, unsigned int&) const
FUNC 183760 7c0 0 std::__1::num_get<wchar_t, std::__1::istreambuf_iterator<wchar_t, std::__1::char_traits<wchar_t> > >::do_get(std::__1::istreambuf_iterator<wchar_t, std::__1::char_traits<wchar_t> >, std::__1::istreambuf_iterator<wchar_t, std::__1::char_traits<wchar_t> >, std::__1::ios_base&, unsigned int&, unsigned long&) const
FUNC 183f20 7c0 0 std::__1::num_get<wchar_t, std::__1::istreambuf_iterator<wchar_t, std::__1::char_traits<wchar_t> > >::do_get(std::__1::istreambuf_iterator<wchar_t, std::__1::char_traits<wchar_t> >, std::__1::istreambuf_iterator<wchar_t, std::__1::char_traits<wchar_t> >, std::__1::ios_base&, unsigned int&, unsigned long long&) const
FUNC 1846e0 7e0 0 std::__1::num_get<wchar_t, std::__1::istreambuf_iterator<wchar_t, std::__1::char_traits<wchar_t> > >::do_get(std::__1::istreambuf_iterator<wchar_t, std::__1::char_traits<wchar_t> >, std::__1::istreambuf_iterator<wchar_t, std::__1::char_traits<wchar_t> >, std::__1::ios_base&, unsigned int&, float&) const
FUNC 184ec0 7e0 0 std::__1::num_get<wchar_t, std::__1::istreambuf_iterator<wchar_t, std::__1::char_traits<wchar_t> > >::do_get(std::__1::istreambuf_iterator<wchar_t, std::__1::char_traits<wchar_t> >, std::__1::istreambuf_iterator<wchar_t, std::__1::char_traits<wchar_t> >, std::__1::ios_base&, unsigned int&, double&) const
FUNC 1856a0 7e0 0 std::__1::num_get<wchar_t, std::__1::istreambuf_iterator<wchar_t, std::__1::char_traits<wchar_t> > >::do_get(std::__1::istreambuf_iterator<wchar_t, std::__1::char_traits<wchar_t> >, std::__1::istreambuf_iterator<wchar_t, std::__1::char_traits<wchar_t> >, std::__1::ios_base&, unsigned int&, long double&) const
FUNC 185e80 960 0 std::__1::num_get<wchar_t, std::__1::istreambuf_iterator<wchar_t, std::__1::char_traits<wchar_t> > >::do_get(std::__1::istreambuf_iterator<wchar_t, std::__1::char_traits<wchar_t> >, std::__1::istreambuf_iterator<wchar_t, std::__1::char_traits<wchar_t> >, std::__1::ios_base&, unsigned int&, void*&) const
FUNC 1867e0 380 0 std::__1::__num_get<wchar_t>::__stage2_int_loop(wchar_t, int, char*, char*&, unsigned int&, wchar_t, std::__1::basic_string<char, std::__1::char_traits<char>, std::__1::allocator<char> > const&, unsigned int*, unsigned int*&, wchar_t*)
FUNC 186b60 2c0 0 std::__1::__num_get<char>::__stage2_int_prep(std::__1::ios_base&, char*, char&)
FUNC 186e20 300 0 std::__1::__num_get<char>::__stage2_float_prep(std::__1::ios_base&, char*, char&, char&)
FUNC 187120 300 0 std::__1::__num_get<char>::__stage2_float_loop(char, bool&, char&, char*, char*&, char, char, std::__1::basic_string<char, std::__1::char_traits<char>, std::__1::allocator<char> > const&, unsigned int*, unsigned int*&, unsigned int&, char*)
FUNC 187420 2c0 0 std::__1::__num_get<wchar_t>::__stage2_int_prep(std::__1::ios_base&, wchar_t*, wchar_t&)
FUNC 1876e0 300 0 std::__1::__num_get<wchar_t>::__stage2_float_prep(std::__1::ios_base&, wchar_t*, wchar_t&, wchar_t&)
FUNC 1879e0 300 0 std::__1::__num_get<wchar_t>::__stage2_float_loop(wchar_t, bool&, char&, char*, char*&, wchar_t, wchar_t, std::__1::basic_string<char, std::__1::char_traits<char>, std::__1::allocator<char> > const&, unsigned int*, unsigned int*&, unsigned int&, wchar_t*)
FUNC 187ce0 3e0 0 std::__1::num_put<char, std::__1::ostreambuf_iterator<char, std::__1::char_traits<char> > >::do_put(std::__1::ostreambuf_iterator<char, std::__1::char_traits<char> >, std::__1::ios_base&, char, bool) const
FUNC 1880c0 2a0 0 std::__1::num_put<char, std::__1::ostreambuf_iterator<char, std::__1::char_traits<char> > >::do_put(std::__1::ostreambuf_iterator<char, std::__1::char_traits<char> >, std::__1::ios_base&, char, long) const
FUNC 188360 e0 0 std::__1::__num_put_base::__format_int(char*, char const*, bool, unsigned int)
FUNC 188480 680 0 std::__1::__num_put<char>::__widen_and_group_int(char*, char*, char*, char*, char*&, char*&, std::__1::locale const&)
FUNC 188b00 2a0 0 std::__1::num_put<char, std::__1::ostreambuf_iterator<char, std::__1::char_traits<char> > >::do_put(std::__1::ostreambuf_iterator<char, std::__1::char_traits<char> >, std::__1::ios_base&, char, long long) const
FUNC 188da0 2a0 0 std::__1::num_put<char, std::__1::ostreambuf_iterator<char, std::__1::char_traits<char> > >::do_put(std::__1::ostreambuf_iterator<char, std::__1::char_traits<char> >, std::__1::ios_base&, char, unsigned long) const
FUNC 189040 2a0 0 std::__1::num_put<char, std::__1::ostreambuf_iterator<char, std::__1::char_traits<char> > >::do_put(std::__1::ostreambuf_iterator<char, std::__1::char_traits<char> >, std::__1::ios_base&, char, unsigned long long) const
FUNC 1892e0 620 0 std::__1::num_put<char, std::__1::ostreambuf_iterator<char, std::__1::char_traits<char> > >::do_put(std::__1::ostreambuf_iterator<char, std::__1::char_traits<char> >, std::__1::ios_base&, char, double) const
FUNC 189900 180 0 std::__1::__num_put_base::__format_float(char*, char const*, unsigned int)
FUNC 189b40 880 0 std::__1::__num_put<char>::__widen_and_group_float(char*, char*, char*, char*, char*&, char*&, std::__1::locale const&)
FUNC 18a3c0 660 0 std::__1::num_put<char, std::__1::ostreambuf_iterator<char, std::__1::char_traits<char> > >::do_put(std::__1::ostreambuf_iterator<char, std::__1::char_traits<char> >, std::__1::ios_base&, char, long double) const
FUNC 18aa20 320 0 std::__1::num_put<char, std::__1::ostreambuf_iterator<char, std::__1::char_traits<char> > >::do_put(std::__1::ostreambuf_iterator<char, std::__1::char_traits<char> >, std::__1::ios_base&, char, void const*) const
FUNC 18ad40 3c0 0 std::__1::num_put<wchar_t, std::__1::ostreambuf_iterator<wchar_t, std::__1::char_traits<wchar_t> > >::do_put(std::__1::ostreambuf_iterator<wchar_t, std::__1::char_traits<wchar_t> >, std::__1::ios_base&, wchar_t, bool) const
FUNC 18b100 2c0 0 std::__1::num_put<wchar_t, std::__1::ostreambuf_iterator<wchar_t, std::__1::char_traits<wchar_t> > >::do_put(std::__1::ostreambuf_iterator<wchar_t, std::__1::char_traits<wchar_t> >, std::__1::ios_base&, wchar_t, long) const
FUNC 18b3c0 6a0 0 std::__1::__num_put<wchar_t>::__widen_and_group_int(char*, char*, char*, wchar_t*, wchar_t*&, wchar_t*&, std::__1::locale const&)
FUNC 18ba60 2a0 0 std::__1::ostreambuf_iterator<wchar_t, std::__1::char_traits<wchar_t> > std::__1::__pad_and_output<wchar_t, std::__1::char_traits<wchar_t> >(std::__1::ostreambuf_iterator<wchar_t, std::__1::char_traits<wchar_t> >, wchar_t const*, wchar_t const*, wchar_t const*, std::__1::ios_base&, wchar_t)
FUNC 18bd00 2a0 0 std::__1::num_put<wchar_t, std::__1::ostreambuf_iterator<wchar_t, std::__1::char_traits<wchar_t> > >::do_put(std::__1::ostreambuf_iterator<wchar_t, std::__1::char_traits<wchar_t> >, std::__1::ios_base&, wchar_t, long long) const
FUNC 18bfa0 2a0 0 std::__1::num_put<wchar_t, std::__1::ostreambuf_iterator<wchar_t, std::__1::char_traits<wchar_t> > >::do_put(std::__1::ostreambuf_iterator<wchar_t, std::__1::char_traits<wchar_t> >, std::__1::ios_base&, wchar_t, unsigned long) const
FUNC 18c240 2a0 0 std::__1::num_put<wchar_t, std::__1::ostreambuf_iterator<wchar_t, std::__1::char_traits<wchar_t> > >::do_put(std::__1::ostreambuf_iterator<wchar_t, std::__1::char_traits<wchar_t> >, std::__1::ios_base&, wchar_t, unsigned long long) const
FUNC 18c4e0 620 0 std::__1::num_put<wchar_t, std::__1::ostreambuf_iterator<wchar_t, std::__1::char_traits<wchar_t> > >::do_put(std::__1::ostreambuf_iterator<wchar_t, std::__1::char_traits<wchar_t> >, std::__1::ios_base&, wchar_t, double) const
FUNC 18cb00 860 0 std::__1::__num_put<wchar_t>::__widen_and_group_float(char*, char*, char*, wchar_t*, wchar_t*&, wchar_t*&, std::__1::locale const&)
FUNC 18d360 660 0 std::__1::num_put<wchar_t, std::__1::ostreambuf_iterator<wchar_t, std::__1::char_traits<wchar_t> > >::do_put(std::__1::ostreambuf_iterator<wchar_t, std::__1::char_traits<wchar_t> >, std::__1::ios_base&, wchar_t, long double) const
FUNC 18d9c0 340 0 std::__1::num_put<wchar_t, std::__1::ostreambuf_iterator<wchar_t, std::__1::char_traits<wchar_t> > >::do_put(std::__1::ostreambuf_iterator<wchar_t, std::__1::char_traits<wchar_t> >, std::__1::ios_base&, wchar_t, void const*) const
FUNC 18dd00 ae0 0 std::__1::time_get<char, std::__1::istreambuf_iterator<char, std::__1::char_traits<char> > >::get(std::__1::istreambuf_iterator<char, std::__1::char_traits<char> >, std::__1::istreambuf_iterator<char, std::__1::char_traits<char> >, std::__1::ios_base&, unsigned int&, tm*, char const*, char const*) const
FUNC 18e7e0 20 0 std::__1::time_get<char, std::__1::istreambuf_iterator<char, std::__1::char_traits<char> > >::do_date_order() const
FUNC 18e800 80 0 std::__1::time_get<char, std::__1::istreambuf_iterator<char, std::__1::char_traits<char> > >::do_get_time(std::__1::istreambuf_iterator<char, std::__1::char_traits<char> >, std::__1::istreambuf_iterator<char, std::__1::char_traits<char> >, std::__1::ios_base&, unsigned int&, tm*) const
FUNC 18e880 100 0 std::__1::time_get<char, std::__1::istreambuf_iterator<char, std::__1::char_traits<char> > >::do_get_date(std::__1::istreambuf_iterator<char, std::__1::char_traits<char> >, std::__1::istreambuf_iterator<char, std::__1::char_traits<char> >, std::__1::ios_base&, unsigned int&, tm*) const
FUNC 18e980 260 0 std::__1::time_get<char, std::__1::istreambuf_iterator<char, std::__1::char_traits<char> > >::do_get_weekday(std::__1::istreambuf_iterator<char, std::__1::char_traits<char> >, std::__1::istreambuf_iterator<char, std::__1::char_traits<char> >, std::__1::ios_base&, unsigned int&, tm*) const
FUNC 18ebe0 260 0 std::__1::time_get<char, std::__1::istreambuf_iterator<char, std::__1::char_traits<char> > >::do_get_monthname(std::__1::istreambuf_iterator<char, std::__1::char_traits<char> >, std::__1::istreambuf_iterator<char, std::__1::char_traits<char> >, std::__1::ios_base&, unsigned int&, tm*) const
FUNC 18ee40 1e0 0 std::__1::time_get<char, std::__1::istreambuf_iterator<char, std::__1::char_traits<char> > >::do_get_year(std::__1::istreambuf_iterator<char, std::__1::char_traits<char> >, std::__1::istreambuf_iterator<char, std::__1::char_traits<char> >, std::__1::ios_base&, unsigned int&, tm*) const
FUNC 18f020 a0 0 std::__1::time_get<char, std::__1::istreambuf_iterator<char, std::__1::char_traits<char> > >::__get_year(int&, std::__1::istreambuf_iterator<char, std::__1::char_traits<char> >&, std::__1::istreambuf_iterator<char, std::__1::char_traits<char> >, unsigned int&, std::__1::ctype<char> const&) const
FUNC 18f0c0 1440 0 std::__1::time_get<char, std::__1::istreambuf_iterator<char, std::__1::char_traits<char> > >::do_get(std::__1::istreambuf_iterator<char, std::__1::char_traits<char> >, std::__1::istreambuf_iterator<char, std::__1::char_traits<char> >, std::__1::ios_base&, unsigned int&, tm*, char, char) const
FUNC 190500 560 0 int std::__1::__get_up_to_n_digits<char, std::__1::istreambuf_iterator<char, std::__1::char_traits<char> > >(std::__1::istreambuf_iterator<char, std::__1::char_traits<char> >&, std::__1::istreambuf_iterator<char, std::__1::char_traits<char> >, unsigned int&, std::__1::ctype<char> const&, int)
FUNC 190a60 a80 0 std::__1::time_get<wchar_t, std::__1::istreambuf_iterator<wchar_t, std::__1::char_traits<wchar_t> > >::get(std::__1::istreambuf_iterator<wchar_t, std::__1::char_traits<wchar_t> >, std::__1::istreambuf_iterator<wchar_t, std::__1::char_traits<wchar_t> >, std::__1::ios_base&, unsigned int&, tm*, wchar_t const*, wchar_t const*) const
FUNC 1914e0 20 0 std::__1::time_get<wchar_t, std::__1::istreambuf_iterator<wchar_t, std::__1::char_traits<wchar_t> > >::do_date_order() const
FUNC 191500 80 0 std::__1::time_get<wchar_t, std::__1::istreambuf_iterator<wchar_t, std::__1::char_traits<wchar_t> > >::do_get_time(std::__1::istreambuf_iterator<wchar_t, std::__1::char_traits<wchar_t> >, std::__1::istreambuf_iterator<wchar_t, std::__1::char_traits<wchar_t> >, std::__1::ios_base&, unsigned int&, tm*) const
FUNC 191580 100 0 std::__1::time_get<wchar_t, std::__1::istreambuf_iterator<wchar_t, std::__1::char_traits<wchar_t> > >::do_get_date(std::__1::istreambuf_iterator<wchar_t, std::__1::char_traits<wchar_t> >, std::__1::istreambuf_iterator<wchar_t, std::__1::char_traits<wchar_t> >, std::__1::ios_base&, unsigned int&, tm*) const
FUNC 191680 260 0 std::__1::time_get<wchar_t, std::__1::istreambuf_iterator<wchar_t, std::__1::char_traits<wchar_t> > >::do_get_weekday(std::__1::istreambuf_iterator<wchar_t, std::__1::char_traits<wchar_t> >, std::__1::istreambuf_iterator<wchar_t, std::__1::char_traits<wchar_t> >, std::__1::ios_base&, unsigned int&, tm*) const
FUNC 1918e0 260 0 std::__1::time_get<wchar_t, std::__1::istreambuf_iterator<wchar_t, std::__1::char_traits<wchar_t> > >::do_get_monthname(std::__1::istreambuf_iterator<wchar_t, std::__1::char_traits<wchar_t> >, std::__1::istreambuf_iterator<wchar_t, std::__1::char_traits<wchar_t> >, std::__1::ios_base&, unsigned int&, tm*) const
FUNC 191b40 1e0 0 std::__1::time_get<wchar_t, std::__1::istreambuf_iterator<wchar_t, std::__1::char_traits<wchar_t> > >::do_get_year(std::__1::istreambuf_iterator<wchar_t, std::__1::char_traits<wchar_t> >, std::__1::istreambuf_iterator<wchar_t, std::__1::char_traits<wchar_t> >, std::__1::ios_base&, unsigned int&, tm*) const
FUNC 191d20 a0 0 std::__1::time_get<wchar_t, std::__1::istreambuf_iterator<wchar_t, std::__1::char_traits<wchar_t> > >::__get_year(int&, std::__1::istreambuf_iterator<wchar_t, std::__1::char_traits<wchar_t> >&, std::__1::istreambuf_iterator<wchar_t, std::__1::char_traits<wchar_t> >, unsigned int&, std::__1::ctype<wchar_t> const&) const
FUNC 191dc0 1480 0 std::__1::time_get<wchar_t, std::__1::istreambuf_iterator<wchar_t, std::__1::char_traits<wchar_t> > >::do_get(std::__1::istreambuf_iterator<wchar_t, std::__1::char_traits<wchar_t> >, std::__1::istreambuf_iterator<wchar_t, std::__1::char_traits<wchar_t> >, std::__1::ios_base&, unsigned int&, tm*, char, char) const
FUNC 193240 680 0 int std::__1::__get_up_to_n_digits<wchar_t, std::__1::istreambuf_iterator<wchar_t, std::__1::char_traits<wchar_t> > >(std::__1::istreambuf_iterator<wchar_t, std::__1::char_traits<wchar_t> >&, std::__1::istreambuf_iterator<wchar_t, std::__1::char_traits<wchar_t> >, unsigned int&, std::__1::ctype<wchar_t> const&, int)
FUNC 1938c0 160 0 std::__1::time_put<char, std::__1::ostreambuf_iterator<char, std::__1::char_traits<char> > >::do_put(std::__1::ostreambuf_iterator<char, std::__1::char_traits<char> >, std::__1::ios_base&, char, tm const*, char, char) const
FUNC 193a20 200 0 std::__1::time_put<wchar_t, std::__1::ostreambuf_iterator<wchar_t, std::__1::char_traits<wchar_t> > >::do_put(std::__1::ostreambuf_iterator<wchar_t, std::__1::char_traits<wchar_t> >, std::__1::ios_base&, wchar_t, tm const*, char, char) const
FUNC 193c20 20 0 std::__1::moneypunct<char, false>::do_decimal_point() const
FUNC 193c40 20 0 std::__1::moneypunct<char, false>::do_thousands_sep() const
FUNC 193c60 40 0 std::__1::moneypunct<char, false>::do_grouping() const
FUNC 193ca0 40 0 std::__1::moneypunct<char, false>::do_curr_symbol() const
FUNC 193ce0 40 0 std::__1::moneypunct<char, false>::do_positive_sign() const
FUNC 193d20 20 0 std::__1::moneypunct<char, false>::do_negative_sign() const
FUNC 193d40 20 0 std::__1::moneypunct<char, false>::do_frac_digits() const
FUNC 193d60 20 0 std::__1::moneypunct<char, false>::do_pos_format() const
FUNC 193d80 20 0 std::__1::moneypunct<char, false>::do_neg_format() const
FUNC 193da0 20 0 std::__1::moneypunct<char, true>::do_decimal_point() const
FUNC 193dc0 20 0 std::__1::moneypunct<char, true>::do_thousands_sep() const
FUNC 193de0 40 0 std::__1::moneypunct<char, true>::do_grouping() const
FUNC 193e20 40 0 std::__1::moneypunct<char, true>::do_curr_symbol() const
FUNC 193e60 40 0 std::__1::moneypunct<char, true>::do_positive_sign() const
FUNC 193ea0 20 0 std::__1::moneypunct<char, true>::do_negative_sign() const
FUNC 193ec0 20 0 std::__1::moneypunct<char, true>::do_frac_digits() const
FUNC 193ee0 20 0 std::__1::moneypunct<char, true>::do_pos_format() const
FUNC 193f00 20 0 std::__1::moneypunct<char, true>::do_neg_format() const
FUNC 193f20 20 0 std::__1::moneypunct<wchar_t, false>::do_decimal_point() const
FUNC 193f40 20 0 std::__1::moneypunct<wchar_t, false>::do_thousands_sep() const
FUNC 193f60 40 0 std::__1::moneypunct<wchar_t, false>::do_grouping() const
FUNC 193fa0 40 0 std::__1::moneypunct<wchar_t, false>::do_curr_symbol() const
FUNC 193fe0 40 0 std::__1::moneypunct<wchar_t, false>::do_positive_sign() const
FUNC 194020 40 0 std::__1::moneypunct<wchar_t, false>::do_negative_sign() const
FUNC 194060 20 0 std::__1::moneypunct<wchar_t, false>::do_frac_digits() const
FUNC 194080 20 0 std::__1::moneypunct<wchar_t, false>::do_pos_format() const
FUNC 1940a0 20 0 std::__1::moneypunct<wchar_t, false>::do_neg_format() const
FUNC 1940c0 20 0 std::__1::moneypunct<wchar_t, true>::do_decimal_point() const
FUNC 1940e0 20 0 std::__1::moneypunct<wchar_t, true>::do_thousands_sep() const
FUNC 194100 40 0 std::__1::moneypunct<wchar_t, true>::do_grouping() const
FUNC 194140 40 0 std::__1::moneypunct<wchar_t, true>::do_curr_symbol() const
FUNC 194180 40 0 std::__1::moneypunct<wchar_t, true>::do_positive_sign() const
FUNC 1941c0 40 0 std::__1::moneypunct<wchar_t, true>::do_negative_sign() const
FUNC 194200 20 0 std::__1::moneypunct<wchar_t, true>::do_frac_digits() const
FUNC 194220 20 0 std::__1::moneypunct<wchar_t, true>::do_pos_format() const
FUNC 194240 20 0 std::__1::moneypunct<wchar_t, true>::do_neg_format() const
FUNC 194260 7c0 0 std::__1::money_get<char, std::__1::istreambuf_iterator<char, std::__1::char_traits<char> > >::do_get(std::__1::istreambuf_iterator<char, std::__1::char_traits<char> >, std::__1::istreambuf_iterator<char, std::__1::char_traits<char> >, bool, std::__1::ios_base&, unsigned int&, long double&) const
FUNC 194a20 20 0 std::__1::__do_nothing(void*)
FUNC 194a40 2b80 0 std::__1::money_get<char, std::__1::istreambuf_iterator<char, std::__1::char_traits<char> > >::__do_get(std::__1::istreambuf_iterator<char, std::__1::char_traits<char> >&, std::__1::istreambuf_iterator<char, std::__1::char_traits<char> >, bool, std::__1::locale const&, unsigned int, unsigned int&, bool&, std::__1::ctype<char> const&, std::__1::unique_ptr<char, void (*)(void*)>&, char*&, char*)
FUNC 1975c0 100 0 std::__1::__throw_runtime_error(char const*)
FUNC 1976c0 660 0 std::__1::money_get<char, std::__1::istreambuf_iterator<char, std::__1::char_traits<char> > >::do_get(std::__1::istreambuf_iterator<char, std::__1::char_traits<char> >, std::__1::istreambuf_iterator<char, std::__1::char_traits<char> >, bool, std::__1::ios_base&, unsigned int&, std::__1::basic_string<char, std::__1::char_traits<char>, std::__1::allocator<char> >&) const
FUNC 197d20 1a0 0 void std::__1::__double_or_nothing<char>(std::__1::unique_ptr<char, void (*)(void*)>&, char*&, char*&)
FUNC 197ec0 1e0 0 void std::__1::__double_or_nothing<unsigned int>(std::__1::unique_ptr<unsigned int, void (*)(void*)>&, unsigned int*&, unsigned int*&)
FUNC 1980a0 160 0 std::__1::__check_grouping(std::__1::basic_string<char, std::__1::char_traits<char>, std::__1::allocator<char> > const&, unsigned int*, unsigned int*, unsigned int&)
FUNC 198200 7a0 0 std::__1::money_get<wchar_t, std::__1::istreambuf_iterator<wchar_t, std::__1::char_traits<wchar_t> > >::do_get(std::__1::istreambuf_iterator<wchar_t, std::__1::char_traits<wchar_t> >, std::__1::istreambuf_iterator<wchar_t, std::__1::char_traits<wchar_t> >, bool, std::__1::ios_base&, unsigned int&, long double&) const
FUNC 1989a0 2d60 0 std::__1::money_get<wchar_t, std::__1::istreambuf_iterator<wchar_t, std::__1::char_traits<wchar_t> > >::__do_get(std::__1::istreambuf_iterator<wchar_t, std::__1::char_traits<wchar_t> >&, std::__1::istreambuf_iterator<wchar_t, std::__1::char_traits<wchar_t> >, bool, std::__1::locale const&, unsigned int, unsigned int&, bool&, std::__1::ctype<wchar_t> const&, std::__1::unique_ptr<wchar_t, void (*)(void*)>&, wchar_t*&, wchar_t*)
FUNC 19b700 6c0 0 std::__1::money_get<wchar_t, std::__1::istreambuf_iterator<wchar_t, std::__1::char_traits<wchar_t> > >::do_get(std::__1::istreambuf_iterator<wchar_t, std::__1::char_traits<wchar_t> >, std::__1::istreambuf_iterator<wchar_t, std::__1::char_traits<wchar_t> >, bool, std::__1::ios_base&, unsigned int&, std::__1::basic_string<wchar_t, std::__1::char_traits<wchar_t>, std::__1::allocator<wchar_t> >&) const
FUNC 19bdc0 1e0 0 void std::__1::__double_or_nothing<wchar_t>(std::__1::unique_ptr<wchar_t, void (*)(void*)>&, wchar_t*&, wchar_t*&)
FUNC 19bfa0 a40 0 std::__1::money_put<char, std::__1::ostreambuf_iterator<char, std::__1::char_traits<char> > >::do_put(std::__1::ostreambuf_iterator<char, std::__1::char_traits<char> >, bool, std::__1::ios_base&, char, long double) const
FUNC 19c9e0 a80 0 std::__1::__money_put<char>::__gather_info(bool, bool, std::__1::locale const&, std::__1::money_base::pattern&, char&, char&, std::__1::basic_string<char, std::__1::char_traits<char>, std::__1::allocator<char> >&, std::__1::basic_string<char, std::__1::char_traits<char>, std::__1::allocator<char> >&, std::__1::basic_string<char, std::__1::char_traits<char>, std::__1::allocator<char> >&, int&)
FUNC 19d460 760 0 std::__1::__money_put<char>::__format(char*, char*&, char*&, unsigned int, char const*, char const*, std::__1::ctype<char> const&, bool, std::__1::money_base::pattern const&, char, char, std::__1::basic_string<char, std::__1::char_traits<char>, std::__1::allocator<char> > const&, std::__1::basic_string<char, std::__1::char_traits<char>, std::__1::allocator<char> > const&, std::__1::basic_string<char, std::__1::char_traits<char>, std::__1::allocator<char> > const&, int)
FUNC 19dbc0 840 0 std::__1::money_put<char, std::__1::ostreambuf_iterator<char, std::__1::char_traits<char> > >::do_put(std::__1::ostreambuf_iterator<char, std::__1::char_traits<char> >, bool, std::__1::ios_base&, char, std::__1::basic_string<char, std::__1::char_traits<char>, std::__1::allocator<char> > const&) const
FUNC 19e400 ae0 0 std::__1::money_put<wchar_t, std::__1::ostreambuf_iterator<wchar_t, std::__1::char_traits<wchar_t> > >::do_put(std::__1::ostreambuf_iterator<wchar_t, std::__1::char_traits<wchar_t> >, bool, std::__1::ios_base&, wchar_t, long double) const
FUNC 19eee0 b00 0 std::__1::__money_put<wchar_t>::__gather_info(bool, bool, std::__1::locale const&, std::__1::money_base::pattern&, wchar_t&, wchar_t&, std::__1::basic_string<char, std::__1::char_traits<char>, std::__1::allocator<char> >&, std::__1::basic_string<wchar_t, std::__1::char_traits<wchar_t>, std::__1::allocator<wchar_t> >&, std::__1::basic_string<wchar_t, std::__1::char_traits<wchar_t>, std::__1::allocator<wchar_t> >&, int&)
FUNC 19f9e0 7c0 0 std::__1::__money_put<wchar_t>::__format(wchar_t*, wchar_t*&, wchar_t*&, unsigned int, wchar_t const*, wchar_t const*, std::__1::ctype<wchar_t> const&, bool, std::__1::money_base::pattern const&, wchar_t, wchar_t, std::__1::basic_string<char, std::__1::char_traits<char>, std::__1::allocator<char> > const&, std::__1::basic_string<wchar_t, std::__1::char_traits<wchar_t>, std::__1::allocator<wchar_t> > const&, std::__1::basic_string<wchar_t, std::__1::char_traits<wchar_t>, std::__1::allocator<wchar_t> > const&, int)
FUNC 1a01a0 840 0 std::__1::money_put<wchar_t, std::__1::ostreambuf_iterator<wchar_t, std::__1::char_traits<wchar_t> > >::do_put(std::__1::ostreambuf_iterator<wchar_t, std::__1::char_traits<wchar_t> >, bool, std::__1::ios_base&, wchar_t, std::__1::basic_string<wchar_t, std::__1::char_traits<wchar_t>, std::__1::allocator<wchar_t> > const&) const
FUNC 1a09e0 20 0 std::__1::messages<char>::do_open(std::__1::basic_string<char, std::__1::char_traits<char>, std::__1::allocator<char> > const&, std::__1::locale const&) const
FUNC 1a0a00 60 0 std::__1::messages<char>::do_get(int, int, int, std::__1::basic_string<char, std::__1::char_traits<char>, std::__1::allocator<char> > const&) const
FUNC 1a0a60 20 0 std::__1::messages<char>::do_close(int) const
FUNC 1a0a80 20 0 std::__1::messages<wchar_t>::do_open(std::__1::basic_string<char, std::__1::char_traits<char>, std::__1::allocator<char> > const&, std::__1::locale const&) const
FUNC 1a0aa0 60 0 std::__1::messages<wchar_t>::do_get(int, int, int, std::__1::basic_string<wchar_t, std::__1::char_traits<wchar_t>, std::__1::allocator<wchar_t> > const&) const
FUNC 1a0b00 20 0 std::__1::messages<wchar_t>::do_close(int) const
FUNC 1a0b20 120 0 std::__1::__vector_base_common<true>::__throw_length_error() const
FUNC 1a0c40 d00 0 std::__1::locale::__imp::__imp(unsigned int)
FUNC 1a1940 120 0 std::__1::vector<std::__1::locale::facet*, std::__1::__sso_allocator<std::__1::locale::facet*, 28u> >::vector(unsigned int)
FUNC 1a1a60 80 0 std::__1::__vector_base<std::__1::locale::facet*, std::__1::__sso_allocator<std::__1::locale::facet*, 28u> >::~__vector_base()
FUNC 1a1ae0 100 0 std::__1::locale::classic()
FUNC 1a1be0 460 0 std::__1::locale::__imp::install(std::__1::locale::facet*, long)
FUNC 1a2040 100 0 std::__1::locale::__imp::~__imp()
FUNC 1a2140 40 0 std::__1::locale::__imp::~__imp()
FUNC 1a2180 80 0 std::__1::locale::__imp::use_facet(long) const
FUNC 1a2200 100 0 std::__1::locale::__global()
FUNC 1a2300 1a0 0 std::__1::locale::id::__get()
FUNC 1a24a0 20 0 std::__1::locale::facet::~facet()
FUNC 1a24c0 40 0 std::__1::locale::facet::__on_zero_shared()
FUNC 1a2500 40 0 std::__1::locale::id::__init()
FUNC 1a2540 20 0 std::__1::ctype<wchar_t>::~ctype()
FUNC 1a2560 40 0 std::__1::ctype<wchar_t>::do_is(char, wchar_t) const
FUNC 1a25a0 80 0 std::__1::ctype<wchar_t>::do_is(wchar_t const*, wchar_t const*, char*) const
FUNC 1a2620 60 0 std::__1::ctype<wchar_t>::do_scan_is(char, wchar_t const*, wchar_t const*) const
FUNC 1a2680 60 0 std::__1::ctype<wchar_t>::do_scan_not(char, wchar_t const*, wchar_t const*) const
FUNC 1a26e0 c0 0 std::__1::ctype<wchar_t>::do_toupper(wchar_t) const
FUNC 1a27a0 e0 0 std::__1::ctype<wchar_t>::do_toupper(wchar_t*, wchar_t const*) const
FUNC 1a2880 a0 0 std::__1::ctype<wchar_t>::do_tolower(wchar_t) const
FUNC 1a2920 e0 0 std::__1::ctype<wchar_t>::do_tolower(wchar_t*, wchar_t const*) const
FUNC 1a2a00 20 0 std::__1::ctype<wchar_t>::do_widen(char) const
FUNC 1a2a20 40 0 std::__1::ctype<wchar_t>::do_widen(char const*, char const*, wchar_t*) const
FUNC 1a2a60 20 0 std::__1::ctype<wchar_t>::do_narrow(wchar_t, char) const
FUNC 1a2a80 60 0 std::__1::ctype<wchar_t>::do_narrow(wchar_t const*, wchar_t const*, char, char*) const
FUNC 1a2ae0 40 0 <name omitted>
FUNC 1a2b20 60 0 std::__1::ctype<char>::~ctype()
FUNC 1a2b80 80 0 std::__1::ctype<char>::do_toupper(char) const
FUNC 1a2c00 e0 0 std::__1::ctype<char>::do_toupper(char*, char const*) const
FUNC 1a2ce0 80 0 std::__1::ctype<char>::do_tolower(char) const
FUNC 1a2d60 e0 0 std::__1::ctype<char>::do_tolower(char*, char const*) const
FUNC 1a2e40 20 0 std::__1::ctype<char>::do_widen(char) const
FUNC 1a2e60 40 0 std::__1::ctype<char>::do_widen(char const*, char const*, char*) const
FUNC 1a2ea0 20 0 std::__1::ctype<char>::do_narrow(char, char) const
FUNC 1a2ec0 60 0 std::__1::ctype<char>::do_narrow(char const*, char const*, char, char*) const
FUNC 1a2f20 20 0 std::__1::codecvt<char, char, _mbstate_t>::~codecvt()
FUNC 1a2f40 40 0 std::__1::codecvt<char, char, _mbstate_t>::do_out(_mbstate_t&, char const*, char const*, char const*&, char*, char*, char*&) const
FUNC 1a2f80 40 0 std::__1::codecvt<char, char, _mbstate_t>::do_in(_mbstate_t&, char const*, char const*, char const*&, char*, char*, char*&) const
FUNC 1a2fc0 20 0 std::__1::codecvt<char, char, _mbstate_t>::do_unshift(_mbstate_t&, char*, char*, char*&) const
FUNC 1a2fe0 20 0 std::__1::codecvt<char, char, _mbstate_t>::do_encoding() const
FUNC 1a3000 20 0 std::__1::codecvt<char, char, _mbstate_t>::do_always_noconv() const
FUNC 1a3020 20 0 std::__1::codecvt<char, char, _mbstate_t>::do_length(_mbstate_t&, char const*, char const*, unsigned int) const
FUNC 1a3040 20 0 std::__1::codecvt<char, char, _mbstate_t>::do_max_length() const
FUNC 1a3060 80 0 std::__1::codecvt<wchar_t, char, _mbstate_t>::codecvt(unsigned int)
FUNC 1a30e0 80 0 std::__1::codecvt<wchar_t, char, _mbstate_t>::~codecvt()
FUNC 1a3160 2a0 0 std::__1::codecvt<wchar_t, char, _mbstate_t>::do_out(_mbstate_t&, wchar_t const*, wchar_t const*, wchar_t const*&, char*, char*, char*&) const
FUNC 1a3400 2e0 0 std::__1::codecvt<wchar_t, char, _mbstate_t>::do_in(_mbstate_t&, char const*, char const*, char const*&, wchar_t*, wchar_t*, wchar_t*&) const
FUNC 1a36e0 20 0 std::__1::codecvt<wchar_t, char, _mbstate_t>::do_unshift(_mbstate_t&, char*, char*, char*&) const
FUNC 1a3700 20 0 std::__1::codecvt<wchar_t, char, _mbstate_t>::do_encoding() const
FUNC 1a3720 20 0 std::__1::codecvt<wchar_t, char, _mbstate_t>::do_always_noconv() const
FUNC 1a3740 80 0 std::__1::codecvt<wchar_t, char, _mbstate_t>::do_length(_mbstate_t&, char const*, char const*, unsigned int) const
FUNC 1a37c0 20 0 std::__1::codecvt<wchar_t, char, _mbstate_t>::do_max_length() const
FUNC 1a37e0 20 0 std::__1::codecvt<char16_t, char, _mbstate_t>::~codecvt()
FUNC 1a3800 280 0 std::__1::codecvt<char16_t, char, _mbstate_t>::do_out(_mbstate_t&, char16_t const*, char16_t const*, char16_t const*&, char*, char*, char*&) const
FUNC 1a3a80 360 0 std::__1::codecvt<char16_t, char, _mbstate_t>::do_in(_mbstate_t&, char const*, char const*, char const*&, char16_t*, char16_t*, char16_t*&) const
FUNC 1a3de0 20 0 std::__1::codecvt<char16_t, char, _mbstate_t>::do_unshift(_mbstate_t&, char*, char*, char*&) const
FUNC 1a3e00 20 0 std::__1::codecvt<char16_t, char, _mbstate_t>::do_encoding() const
FUNC 1a3e20 20 0 std::__1::codecvt<char16_t, char, _mbstate_t>::do_always_noconv() const
FUNC 1a3e40 200 0 std::__1::codecvt<char16_t, char, _mbstate_t>::do_length(_mbstate_t&, char const*, char const*, unsigned int) const
FUNC 1a4040 20 0 std::__1::codecvt<char16_t, char, _mbstate_t>::do_max_length() const
FUNC 1a4060 20 0 std::__1::codecvt<char32_t, char, _mbstate_t>::~codecvt()
FUNC 1a4080 1e0 0 std::__1::codecvt<char32_t, char, _mbstate_t>::do_out(_mbstate_t&, char32_t const*, char32_t const*, char32_t const*&, char*, char*, char*&) const
FUNC 1a4260 2a0 0 std::__1::codecvt<char32_t, char, _mbstate_t>::do_in(_mbstate_t&, char const*, char const*, char const*&, char32_t*, char32_t*, char32_t*&) const
FUNC 1a4500 20 0 std::__1::codecvt<char32_t, char, _mbstate_t>::do_unshift(_mbstate_t&, char*, char*, char*&) const
FUNC 1a4520 20 0 std::__1::codecvt<char32_t, char, _mbstate_t>::do_encoding() const
FUNC 1a4540 20 0 std::__1::codecvt<char32_t, char, _mbstate_t>::do_always_noconv() const
FUNC 1a4560 1e0 0 std::__1::codecvt<char32_t, char, _mbstate_t>::do_length(_mbstate_t&, char const*, char const*, unsigned int) const
FUNC 1a4740 20 0 std::__1::codecvt<char32_t, char, _mbstate_t>::do_max_length() const
FUNC 1a4760 40 0 <name omitted>
FUNC 1a47a0 60 0 std::__1::numpunct<char>::~numpunct()
FUNC 1a4800 40 0 <name omitted>
FUNC 1a4840 60 0 std::__1::numpunct<wchar_t>::~numpunct()
FUNC 1a48a0 20 0 std::__1::numpunct<char>::do_decimal_point() const
FUNC 1a48c0 20 0 std::__1::numpunct<wchar_t>::do_decimal_point() const
FUNC 1a48e0 20 0 std::__1::numpunct<char>::do_thousands_sep() const
FUNC 1a4900 20 0 std::__1::numpunct<wchar_t>::do_thousands_sep() const
FUNC 1a4920 60 0 std::__1::numpunct<char>::do_grouping() const
FUNC 1a4980 60 0 std::__1::numpunct<wchar_t>::do_grouping() const
FUNC 1a49e0 40 0 std::__1::numpunct<char>::do_truename() const
FUNC 1a4a20 20 0 std::__1::numpunct<wchar_t>::do_truename() const
FUNC 1a4a40 40 0 std::__1::numpunct<char>::do_falsename() const
FUNC 1a4a80 20 0 std::__1::numpunct<wchar_t>::do_falsename() const
FUNC 1a4aa0 a40 0 std::__1::__time_get_c_storage<char>::__weeks() const
FUNC 1a54e0 340 0 std::__1::__time_get_c_storage<wchar_t>::__weeks() const
FUNC 1a5820 1040 0 std::__1::__time_get_c_storage<char>::__months() const
FUNC 1a6860 440 0 std::__1::__time_get_c_storage<wchar_t>::__months() const
FUNC 1a6ca0 280 0 std::__1::__time_get_c_storage<char>::__am_pm() const
FUNC 1a6f20 180 0 std::__1::__time_get_c_storage<wchar_t>::__am_pm() const
FUNC 1a70a0 c0 0 std::__1::__time_get_c_storage<char>::__x() const
FUNC 1a7160 100 0 std::__1::__time_get_c_storage<wchar_t>::__x() const
FUNC 1a7260 c0 0 std::__1::__time_get_c_storage<char>::__X() const
FUNC 1a7320 100 0 std::__1::__time_get_c_storage<wchar_t>::__X() const
FUNC 1a7420 100 0 std::__1::__time_get_c_storage<char>::__c() const
FUNC 1a7520 100 0 std::__1::__time_get_c_storage<wchar_t>::__c() const
FUNC 1a7620 100 0 std::__1::__time_get_c_storage<char>::__r() const
FUNC 1a7720 100 0 std::__1::__time_get_c_storage<wchar_t>::__r() const
FUNC 1a7820 60 0 std::__1::codecvt<wchar_t, char, _mbstate_t>::~codecvt()
FUNC 1a7880 1a0 0 long double std::__1::__num_get_float<long double>(char const*, char const*, unsigned int&)
FUNC 1a7a20 1a0 0 double std::__1::__num_get_float<double>(char const*, char const*, unsigned int&)
FUNC 1a7bc0 1a0 0 float std::__1::__num_get_float<float>(char const*, char const*, unsigned int&)
FUNC 1a7d60 1a0 0 unsigned long long std::__1::__num_get_unsigned_integral<unsigned long long>(char const*, char const*, unsigned int&, int)
FUNC 1a7f00 1a0 0 unsigned long std::__1::__num_get_unsigned_integral<unsigned long>(char const*, char const*, unsigned int&, int)
FUNC 1a80a0 1a0 0 unsigned int std::__1::__num_get_unsigned_integral<unsigned int>(char const*, char const*, unsigned int&, int)
FUNC 1a8240 1a0 0 unsigned short std::__1::__num_get_unsigned_integral<unsigned short>(char const*, char const*, unsigned int&, int)
FUNC 1a83e0 1c0 0 long long std::__1::__num_get_signed_integral<long long>(char const*, char const*, unsigned int&, int)
FUNC 1a85a0 200 0 long std::__1::__num_get_signed_integral<long>(char const*, char const*, unsigned int&, int)
FUNC 1a87a0 120 0 std::__1::basic_string<wchar_t, std::__1::char_traits<wchar_t>, std::__1::allocator<wchar_t> >::__init<const wchar_t *>
FUNC 1a88c0 100 0 std::__1::basic_string<char, std::__1::char_traits<char>, std::__1::allocator<char> >::__init<const char *>
FUNC 1a89c0 c0 0 std::__1::vector<std::__1::locale::facet*, std::__1::__sso_allocator<std::__1::locale::facet*, 28u> >::allocate(unsigned int)
FUNC 1a8a80 380 0 __cxx_global_array_dtor108
FUNC 1a8e00 380 0 __cxx_global_array_dtor93
FUNC 1a9180 600 0 __cxx_global_array_dtor69
FUNC 1a9780 600 0 __cxx_global_array_dtor45
FUNC 1a9d80 600 0 __cxx_global_array_dtor42
FUNC 1aa380 600 0 __cxx_global_array_dtor
FUNC 1aa980 20 0 std::__1::__shared_count::~__shared_count()
FUNC 1aa9a0 20 0 std::__1::error_category::default_error_condition(int) const
FUNC 1aa9c0 80 0 std::__1::error_category::equivalent(int, std::__1::error_condition const&) const
FUNC 1aaa40 40 0 std::__1::error_category::equivalent(std::__1::error_code const&, int) const
FUNC 1aaa80 20 0 std::__1::__generic_error_category::name() const
FUNC 1aaaa0 60 0 std::__1::__generic_error_category::message(int) const
FUNC 1aab00 60 0 std::__1::generic_category()
FUNC 1aab60 20 0 std::__1::__system_error_category::name() const
FUNC 1aab80 60 0 std::__1::__system_error_category::message(int) const
FUNC 1aabe0 60 0 std::__1::__system_error_category::default_error_condition(int) const
FUNC 1aac40 60 0 std::__1::system_category()
FUNC 1aaca0 220 0 std::__1::system_error::__init(std::__1::error_code const&, std::__1::basic_string<char, std::__1::char_traits<char>, std::__1::allocator<char> >)
FUNC 1aaec0 2c0 0 std::__1::system_error::system_error(std::__1::error_code, char const*)
FUNC 1ab180 2a0 0 std::__1::system_error::system_error(std::__1::error_code)
FUNC 1ab420 60 0 <name omitted>
FUNC 1ab480 80 0 std::__1::system_error::~system_error()
FUNC 1ab500 100 0 std::__1::__throw_system_error(int, char const*)
FUNC 1ab600 20 0 std::__1::error_category::~error_category()
FUNC 1ab620 20 0 std::__1::__generic_error_category::~__generic_error_category()
FUNC 1ab640 20 0 std::__1::__system_error_category::~__system_error_category()
FUNC 1ab660 1c0 0 std::__1::chrono::steady_clock::now()
FUNC 1ab820 1c0 0 std::__1::ios_base::clear(unsigned int)
FUNC 1ab9e0 160 0 std::__1::ios_base::~ios_base()
FUNC 1abb40 100 0 std::__1::ios_base::init(void*)
FUNC 1abc40 20 0 std::__1::basic_streambuf<char, std::__1::char_traits<char> >::imbue(std::__1::locale const&)
FUNC 1abc60 20 0 std::__1::basic_streambuf<char, std::__1::char_traits<char> >::setbuf(char*, int)
FUNC 1abc80 40 0 std::__1::basic_streambuf<char, std::__1::char_traits<char> >::seekoff(long long, std::__1::ios_base::seekdir, unsigned int)
FUNC 1abcc0 40 0 std::__1::basic_streambuf<char, std::__1::char_traits<char> >::seekpos(std::__1::fpos<_mbstate_t>, unsigned int)
FUNC 1abd00 20 0 std::__1::basic_streambuf<char, std::__1::char_traits<char> >::sync()
FUNC 1abd20 20 0 std::__1::basic_streambuf<char, std::__1::char_traits<char> >::showmanyc()
FUNC 1abd40 c0 0 std::__1::basic_streambuf<char, std::__1::char_traits<char> >::xsgetn(char*, int)
FUNC 1abe00 20 0 std::__1::basic_streambuf<char, std::__1::char_traits<char> >::underflow()
FUNC 1abe20 80 0 std::__1::basic_streambuf<char, std::__1::char_traits<char> >::uflow()
FUNC 1abea0 20 0 std::__1::basic_streambuf<char, std::__1::char_traits<char> >::pbackfail(int)
FUNC 1abec0 e0 0 std::__1::basic_streambuf<char, std::__1::char_traits<char> >::xsputn(char const*, int)
FUNC 1abfa0 20 0 std::__1::basic_streambuf<char, std::__1::char_traits<char> >::overflow(int)
FUNC 1abfc0 2a0 0 std::__1::basic_ostream<char, std::__1::char_traits<char> >::flush()
FUNC 1ac260 20 0 <name omitted>
FUNC 1ac280 20 0 virtual thunk to std::__1::basic_ostream<char, std::__1::char_traits<char> >::~basic_ostream()
FUNC 1ac2a0 40 0 <name omitted>
FUNC 1ac2e0 80 0 virtual thunk to std::__1::basic_ostream<char, std::__1::char_traits<char> >::~basic_ostream()
FUNC 1ac360 600 0 std::__1::basic_ostream<char, std::__1::char_traits<char> >::operator<<(bool)
FUNC 1ac960 600 0 std::__1::basic_ostream<char, std::__1::char_traits<char> >::operator<<(int)
FUNC 1acf60 600 0 std::__1::basic_ostream<char, std::__1::char_traits<char> >::operator<<(unsigned int)
FUNC 1ad560 600 0 std::__1::basic_ostream<char, std::__1::char_traits<char> >::operator<<(float)
FUNC 1adb60 600 0 std::__1::basic_ostream<char, std::__1::char_traits<char> >::operator<<(double)
FUNC 1ae160 600 0 std::__1::basic_ostream<char, std::__1::char_traits<char> >::operator<<(void const*)
FUNC 1ae760 280 0 std::__1::basic_ostream<char, std::__1::char_traits<char> >::write(char const*, int)
FUNC 1ae9e0 20 0 std::__1::__iostream_category::name() const
FUNC 1aea00 80 0 std::__1::__iostream_category::message(int) const
FUNC 1aea80 60 0 <name omitted>
FUNC 1aeae0 80 0 std::__1::ios_base::failure::~failure()
FUNC 1aeb60 40 0 std::__1::ios_base::~ios_base()
FUNC 1aeba0 20 0 std::__1::__iostream_category::~__iostream_category()
FUNC 1aebc0 200 0 std::__1::__basic_string_common<true>::__throw_length_error() const
FUNC 1aedc0 200 0 std::__1::__basic_string_common<true>::__throw_out_of_range() const
FUNC 1aefc0 100 0 std::__1::basic_string<char, std::__1::char_traits<char>, std::__1::allocator<char> >::__init(char const*, unsigned int)
FUNC 1af0c0 100 0 std::__1::basic_string<char, std::__1::char_traits<char>, std::__1::allocator<char> >::__init(unsigned int, char)
FUNC 1af1c0 120 0 std::__1::basic_string<char, std::__1::char_traits<char>, std::__1::allocator<char> >::assign(char const*, unsigned int)
FUNC 1af2e0 180 0 std::__1::basic_string<char, std::__1::char_traits<char>, std::__1::allocator<char> >::resize(unsigned int, char)
FUNC 1af460 2c0 0 std::__1::basic_string<char, std::__1::char_traits<char>, std::__1::allocator<char> >::reserve(unsigned int)
FUNC 1af720 e0 0 std::__1::basic_string<char, std::__1::char_traits<char>, std::__1::allocator<char> >::push_back(char)
FUNC 1af800 140 0 std::__1::basic_string<char, std::__1::char_traits<char>, std::__1::allocator<char> >::append(char const*, unsigned int)
FUNC 1af940 220 0 std::__1::basic_string<char, std::__1::char_traits<char>, std::__1::allocator<char> >::__grow_by_and_replace(unsigned int, unsigned int, unsigned int, unsigned int, unsigned int, unsigned int, char const*)
FUNC 1afb60 180 0 std::__1::basic_string<char, std::__1::char_traits<char>, std::__1::allocator<char> >::__grow_by(unsigned int, unsigned int, unsigned int, unsigned int, unsigned int, unsigned int)
FUNC 1afce0 e0 0 std::__1::basic_string<char, std::__1::char_traits<char>, std::__1::allocator<char> >::erase(unsigned int, unsigned int)
FUNC 1afdc0 c0 0 std::__1::basic_string<char, std::__1::char_traits<char>, std::__1::allocator<char> >::compare(unsigned int, unsigned int, char const*, unsigned int) const
FUNC 1afe80 80 0 std::__1::basic_string<char, std::__1::char_traits<char>, std::__1::allocator<char> >::compare(char const*) const
FUNC 1aff00 100 0 std::__1::basic_string<char, std::__1::char_traits<char>, std::__1::allocator<char> >::__init(char const*, unsigned int, unsigned int)
FUNC 1b0000 100 0 std::__1::basic_string<wchar_t, std::__1::char_traits<wchar_t>, std::__1::allocator<wchar_t> >::__init(wchar_t const*, unsigned int)
FUNC 1b0100 100 0 std::__1::basic_string<wchar_t, std::__1::char_traits<wchar_t>, std::__1::allocator<wchar_t> >::__init(unsigned int, wchar_t)
FUNC 1b0200 260 0 std::__1::basic_string<wchar_t, std::__1::char_traits<wchar_t>, std::__1::allocator<wchar_t> >::assign(wchar_t const*)
FUNC 1b0460 260 0 std::__1::basic_string<wchar_t, std::__1::char_traits<wchar_t>, std::__1::allocator<wchar_t> >::reserve(unsigned int)
FUNC 1b06c0 e0 0 std::__1::basic_string<wchar_t, std::__1::char_traits<wchar_t>, std::__1::allocator<wchar_t> >::push_back(wchar_t)
FUNC 1b07a0 1a0 0 std::__1::basic_string<wchar_t, std::__1::char_traits<wchar_t>, std::__1::allocator<wchar_t> >::__grow_by(unsigned int, unsigned int, unsigned int, unsigned int, unsigned int, unsigned int)
FUNC 1b0940 60 0 std::logic_error::~logic_error()
FUNC 1b09a0 80 0 std::logic_error::~logic_error()
FUNC 1b0a20 20 0 std::logic_error::what() const
FUNC 1b0a40 60 0 std::runtime_error::~runtime_error()
FUNC 1b0aa0 80 0 std::runtime_error::~runtime_error()
FUNC 1b0b20 20 0 std::runtime_error::what() const
FUNC 1b0b40 80 0 std::length_error::~length_error()
FUNC 1b0bc0 80 0 std::out_of_range::~out_of_range()
FUNC 1b0c40 80 0 std::overflow_error::~overflow_error()
FUNC 1b0cc0 a0 0 std::__terminate(void (*)())
FUNC 1b0d60 a0 0 std::terminate()
FUNC 1b0e00 20 0 __cxa_pure_virtual
FUNC 1b0e20 1c0 0 __cxa_allocate_exception
FUNC 1b0fe0 100 0 __cxa_throw
FUNC 1b10e0 160 0 __cxa_begin_catch
FUNC 1b1240 1c0 0 __cxa_end_catch
FUNC 1b1400 100 0 __cxa_decrement_exception_refcount
FUNC 1b1500 120 0 __cxa_rethrow
FUNC 1b1620 160 0 __cxxabiv1::do_free(void*)
FUNC 1b1780 40 0 __cxxabiv1::exception_cleanup_func(_Unwind_Reason_Code, _Unwind_Exception*)
FUNC 1b17c0 20 0 __cxxabiv1::__shim_type_info::~__shim_type_info()
FUNC 1b17e0 20 0 __cxxabiv1::__shim_type_info::noop1() const
FUNC 1b1800 20 0 __cxxabiv1::__shim_type_info::noop2() const
FUNC 1b1820 20 0 __cxxabiv1::__fundamental_type_info::~__fundamental_type_info()
FUNC 1b1840 20 0 __cxxabiv1::__function_type_info::~__function_type_info()
FUNC 1b1860 20 0 __cxxabiv1::__class_type_info::~__class_type_info()
FUNC 1b1880 20 0 __cxxabiv1::__si_class_type_info::~__si_class_type_info()
FUNC 1b18a0 20 0 __cxxabiv1::__vmi_class_type_info::~__vmi_class_type_info()
FUNC 1b18c0 20 0 __cxxabiv1::__pointer_type_info::~__pointer_type_info()
FUNC 1b18e0 20 0 __cxxabiv1::__fundamental_type_info::can_catch(__cxxabiv1::__shim_type_info const*, void*&) const
FUNC 1b1900 20 0 __cxxabiv1::__function_type_info::can_catch(__cxxabiv1::__shim_type_info const*, void*&) const
FUNC 1b1920 100 0 __cxxabiv1::__class_type_info::can_catch(__cxxabiv1::__shim_type_info const*, void*&) const
FUNC 1b1a20 a0 0 __cxxabiv1::__class_type_info::has_unambiguous_public_base(__cxxabiv1::__dynamic_cast_info*, void*, int) const
FUNC 1b1ac0 c0 0 __cxxabiv1::__si_class_type_info::has_unambiguous_public_base(__cxxabiv1::__dynamic_cast_info*, void*, int) const
FUNC 1b1b80 220 0 __cxxabiv1::__vmi_class_type_info::has_unambiguous_public_base(__cxxabiv1::__dynamic_cast_info*, void*, int) const
FUNC 1b1da0 220 0 __cxxabiv1::__pointer_type_info::can_catch(__cxxabiv1::__shim_type_info const*, void*&) const
FUNC 1b1fc0 180 0 __dynamic_cast
FUNC 1b2140 c0 0 __cxxabiv1::__class_type_info::process_static_type_above_dst(__cxxabiv1::__dynamic_cast_info*, void const*, void const*, int) const
FUNC 1b2200 560 0 __cxxabiv1::__vmi_class_type_info::search_below_dst(__cxxabiv1::__dynamic_cast_info*, void const*, int, bool) const
FUNC 1b2760 1a0 0 __cxxabiv1::__si_class_type_info::search_below_dst(__cxxabiv1::__dynamic_cast_info*, void const*, int, bool) const
FUNC 1b2900 e0 0 __cxxabiv1::__class_type_info::search_below_dst(__cxxabiv1::__dynamic_cast_info*, void const*, int, bool) const
FUNC 1b29e0 260 0 __cxxabiv1::__vmi_class_type_info::search_above_dst(__cxxabiv1::__dynamic_cast_info*, void const*, void const*, int, bool) const
FUNC 1b2c40 60 0 __cxxabiv1::__si_class_type_info::search_above_dst(__cxxabiv1::__dynamic_cast_info*, void const*, void const*, int, bool) const
FUNC 1b2ca0 40 0 __cxxabiv1::__class_type_info::search_above_dst(__cxxabiv1::__dynamic_cast_info*, void const*, void const*, int, bool) const
FUNC 1b2ce0 20 0 default_unexpected_handler()
FUNC 1b2d00 1a0 0 default_terminate_handler()
FUNC 1b2ea0 20 0 std::bad_cast::~bad_cast()
FUNC 1b2ec0 20 0 std::bad_cast::~bad_cast()
FUNC 1b2ee0 20 0 std::bad_cast::what() const
FUNC 1b2f00 260 0 __gxx_personality_v0
FUNC 1b3160 560 0 __cxa_call_unexpected
FUNC 1b36c0 800 0 __cxxabiv1::scan_eh_tab(__cxxabiv1::(anonymous namespace)::scan_results&, int, bool, _Unwind_Exception*, _Unwind_Context*)
FUNC 1b3ec0 60 0 __cxxabiv1::call_terminate(bool, _Unwind_Exception*)
FUNC 1b3f20 1c0 0 __cxxabiv1::readEncodedPointer(unsigned char const**, unsigned char)
FUNC 1b40e0 120 0 __cxxabiv1::exception_spec_can_catch(long long, unsigned char const*, unsigned char, __cxxabiv1::__shim_type_info const*, void*, _Unwind_Exception*)
FUNC 1b4200 e0 0 __cxxabiv1::get_shim_type_info(unsigned long long, unsigned char const*, unsigned char, bool, _Unwind_Exception*)
FUNC 1b42e0 120 0 __cxa_guard_acquire
FUNC 1b4400 100 0 __cxa_guard_release
FUNC 1b4500 e0 0 __cxa_guard_abort
FUNC 1b45e0 20 0 std::exception::~exception()
FUNC 1b4600 20 0 std::exception::what() const
FUNC 1b4620 20 0 std::bad_exception::~bad_exception()
FUNC 1b4640 20 0 std::bad_exception::what() const
FUNC 1b4700 20 0 std::bad_alloc::~bad_alloc()
FUNC 1b4720 20 0 std::bad_alloc::~bad_alloc()
FUNC 1b4740 20 0 std::bad_alloc::what() const
FUNC 1b4760 180 0 cos
FUNC 1b48e0 240 0 atanf
FUNC 1b4b20 e0 0 ceilf
FUNC 1b4c00 180 0 cosf
FUNC 1b4d80 e0 0 floorf
FUNC 1b4e60 a0 0 roundf
FUNC 1b4f00 1e0 0 sinf
FUNC 1b50e0 220 0 sin
FUNC 1b5300 460 0 acos
FUNC 1b5760 240 0 atan2
FUNC 1b59a0 2c0 0 expf
FUNC 1b5c60 cc0 0 powf
FUNC 1b6920 e0 0 sqrtf
FUNC 1b6a00 100 0 sqrt
FUNC 1b6b00 bc0 0 __ieee754_rem_pio2f
FUNC 1b76c0 120 0 __ieee754_sqrtf
FUNC 1b77e0 de0 0 __ieee754_rem_pio2
FUNC 1b85c0 1e0 0 __ieee754_sqrt
FUNC 1b87a0 140 0 __kernel_cos
FUNC 1b88e0 140 0 __kernel_cosf
FUNC 1b8a20 c0 0 __kernel_sinf
FUNC 1b8ae0 e0 0 __kernel_sin
FUNC 1b8bc0 260 0 atan
FUNC 1b8e20 a0 0 __fpclassifyd
FUNC 1b8ec0 120 0 scalbnf
FUNC 1b8fe0 1a0 0 scalbn
FUNC 1b9180 1e0 0 pthread_mutex_lock
FUNC 1b9360 140 0 pthread_mutex_unlock
FUNC 1b94a0 e0 0 pthread_cond_wait
FUNC 1b95c0 80 0 abort
FUNC 1b9640 800 0 _start
FUNC 1b9e40 21c0 0 malloc
FUNC 1bc000 f60 0 free
FUNC 1bcf60 800 0 realloc
FUNC 1bd760 660 0 release_unused_segments
FUNC 1bddc0 b00 0 dispose_chunk
FUNC 1be8c0 80 0 __libnacl_mandatory_irt_query
FUNC 1be940 80 0 __libnacl_fatal
FUNC 1beac0 1c0 0 get_tls_info
FUNC 1beca0 a0 0 __assert_func
FUNC 1bed40 2a0 0 exit
FUNC 1befe0 2e0 0 _fclose_r
FUNC 1bf2c0 320 0 __sflush_r
FUNC 1bf5e0 100 0 _fflush_r
FUNC 1bf6e0 2a0 0 __sfp
FUNC 1bf980 440 0 __sinit
FUNC 1bfdc0 20 0 _cleanup_r
FUNC 1bfde0 80 0 __libc_fini_array
FUNC 1bfec0 200 0 fputc
FUNC 1c00c0 400 0 fread
FUNC 1c04c0 820 0 _fseeko_r
FUNC 1c0ce0 260 0 ftello
FUNC 1c0f40 160 0 _fwalk_reent
FUNC 1c10a0 1e0 0 fwrite
FUNC 1c1280 a0 0 _jp2uc
FUNC 1c1320 2c0 0 __jp2uc
FUNC 1c15e0 400 0 __smakebuf_r
FUNC 1c19e0 120 0 _mbsnrtowcs_r
FUNC 1c1b00 100 0 memchr
FUNC 1c1c00 80 0 memcmp
FUNC 1c1c80 100 0 perror
FUNC 1c1d80 240 0 pread
FUNC 1c1fc0 ee0 0 qsort
FUNC 1c2ea0 460 0 __srefill_r
FUNC 1c3500 e0 0 __sread
FUNC 1c35e0 20 0 __seofread
FUNC 1c3600 140 0 __swrite
FUNC 1c3740 100 0 __sseek
FUNC 1c3840 a0 0 __sclose
FUNC 1c38e0 1a0 0 strchr
FUNC 1c3a80 a0 0 strcmp
FUNC 1c3b20 a0 0 strcpy
FUNC 1c3bc0 b20 0 _strerror_r
FUNC 1c46e0 1a40 0 strftime
FUNC 1c6120 120 0 iso_year_adjust
FUNC 1c6240 80 0 strlen
FUNC 1c62c0 c0 0 strncmp
FUNC 1c6380 e0 0 strncpy
FUNC 1c6460 960 0 strstr
FUNC 1c6dc0 240 0 critical_factorization
FUNC 1c7000 3300 0 _strtod_r
FUNC 1ca300 220 0 _strtoll_r
FUNC 1ca520 200 0 _strtol_r
FUNC 1ca720 220 0 _strtoull_r
FUNC 1ca940 200 0 _strtoul_r
FUNC 1cab40 3d60 0 _svfprintf_r
FUNC 1ce8a0 2260 0 __ssvfscanf_r
FUNC 1d0b00 11e0 0 towupper
FUNC 1d1ce0 300 0 __sprint_r
FUNC 1d1fe0 1d40 0 _vfiprintf_r
FUNC 1d3d20 1a0 0 __sbprintf
FUNC 1d3ec0 3f60 0 _vfprintf_r
FUNC 1d7e20 1a0 0 __sbprintf
FUNC 1d7fc0 100 0 vsnprintf
FUNC 1d80c0 1a0 0 __swbuf_r
FUNC 1d8260 180 0 _wcsnrtombs_r
FUNC 1d83e0 1c0 0 __swsetup_r
FUNC 1d85a0 1a0 0 __register_exitproc
FUNC 1d8740 1c60 0 _dtoa_r
FUNC 1da3a0 300 0 quorem
FUNC 1da6a0 160 0 fputs
FUNC 1da800 720 0 __sfvwrite_r
FUNC 1daf20 180 0 rshift
FUNC 1db0a0 1a0 0 _Balloc
FUNC 1db240 180 0 __multadd
FUNC 1db3c0 80 0 __hi0bits
FUNC 1db440 c0 0 __lo0bits
FUNC 1db500 2c0 0 __multiply
FUNC 1db7c0 1a0 0 __pow5mult
FUNC 1db960 220 0 __lshift
FUNC 1dbb80 280 0 __mdiff
FUNC 1dbe00 180 0 __b2d
FUNC 1dbf80 1c0 0 __d2b
FUNC 1dc140 a0 0 frexp
FUNC 1ddf20 2c0 0 __ssprint_r
FUNC 1de1e0 280 0 _sungetc_r
FUNC 1de460 c0 0 __ssrefill_r
FUNC 1de720 20 0 std::__1::collate<char>::~collate()
FUNC 1de740 20 0 std::__1::collate<char>::~collate()
FUNC 1de760 20 0 std::__1::collate<wchar_t>::~collate()
FUNC 1de780 20 0 std::__1::collate<wchar_t>::~collate()
FUNC 1de7a0 20 0 std::__1::num_get<char, std::__1::istreambuf_iterator<char, std::__1::char_traits<char> > >::~num_get()
FUNC 1de7c0 20 0 std::__1::num_get<char, std::__1::istreambuf_iterator<char, std::__1::char_traits<char> > >::~num_get()
FUNC 1de7e0 20 0 std::__1::num_get<wchar_t, std::__1::istreambuf_iterator<wchar_t, std::__1::char_traits<wchar_t> > >::~num_get()
FUNC 1de800 20 0 std::__1::num_get<wchar_t, std::__1::istreambuf_iterator<wchar_t, std::__1::char_traits<wchar_t> > >::~num_get()
FUNC 1de820 20 0 std::__1::num_put<char, std::__1::ostreambuf_iterator<char, std::__1::char_traits<char> > >::~num_put()
FUNC 1de840 20 0 std::__1::num_put<char, std::__1::ostreambuf_iterator<char, std::__1::char_traits<char> > >::~num_put()
FUNC 1de860 20 0 std::__1::num_put<wchar_t, std::__1::ostreambuf_iterator<wchar_t, std::__1::char_traits<wchar_t> > >::~num_put()
FUNC 1de880 20 0 std::__1::num_put<wchar_t, std::__1::ostreambuf_iterator<wchar_t, std::__1::char_traits<wchar_t> > >::~num_put()
FUNC 1de8a0 20 0 std::__1::time_get<char, std::__1::istreambuf_iterator<char, std::__1::char_traits<char> > >::~time_get()
FUNC 1de8c0 20 0 std::__1::time_get<char, std::__1::istreambuf_iterator<char, std::__1::char_traits<char> > >::~time_get()
FUNC 1de8e0 20 0 std::__1::time_get<wchar_t, std::__1::istreambuf_iterator<wchar_t, std::__1::char_traits<wchar_t> > >::~time_get()
FUNC 1de900 20 0 std::__1::time_get<wchar_t, std::__1::istreambuf_iterator<wchar_t, std::__1::char_traits<wchar_t> > >::~time_get()
FUNC 1de920 60 0 <name omitted>
FUNC 1de980 60 0 std::__1::time_put<char, std::__1::ostreambuf_iterator<char, std::__1::char_traits<char> > >::~time_put()
FUNC 1de9e0 60 0 <name omitted>
FUNC 1dea40 60 0 std::__1::time_put<wchar_t, std::__1::ostreambuf_iterator<wchar_t, std::__1::char_traits<wchar_t> > >::~time_put()
FUNC 1deaa0 20 0 std::__1::moneypunct<char, false>::~moneypunct()
FUNC 1deac0 20 0 std::__1::moneypunct<char, false>::~moneypunct()
FUNC 1deae0 20 0 std::__1::moneypunct<char, true>::~moneypunct()
FUNC 1deb00 20 0 std::__1::moneypunct<char, true>::~moneypunct()
FUNC 1deb20 20 0 std::__1::moneypunct<wchar_t, false>::~moneypunct()
FUNC 1deb40 20 0 std::__1::moneypunct<wchar_t, false>::~moneypunct()
FUNC 1deb60 20 0 std::__1::moneypunct<wchar_t, true>::~moneypunct()
FUNC 1deb80 20 0 std::__1::moneypunct<wchar_t, true>::~moneypunct()
FUNC 1deba0 20 0 std::__1::money_get<char, std::__1::istreambuf_iterator<char, std::__1::char_traits<char> > >::~money_get()
FUNC 1debc0 20 0 std::__1::money_get<char, std::__1::istreambuf_iterator<char, std::__1::char_traits<char> > >::~money_get()
FUNC 1debe0 20 0 std::__1::money_get<wchar_t, std::__1::istreambuf_iterator<wchar_t, std::__1::char_traits<wchar_t> > >::~money_get()
FUNC 1dec00 20 0 std::__1::money_get<wchar_t, std::__1::istreambuf_iterator<wchar_t, std::__1::char_traits<wchar_t> > >::~money_get()
FUNC 1dec20 20 0 std::__1::money_put<char, std::__1::ostreambuf_iterator<char, std::__1::char_traits<char> > >::~money_put()
FUNC 1dec40 20 0 std::__1::money_put<char, std::__1::ostreambuf_iterator<char, std::__1::char_traits<char> > >::~money_put()
FUNC 1dec60 20 0 std::__1::money_put<wchar_t, std::__1::ostreambuf_iterator<wchar_t, std::__1::char_traits<wchar_t> > >::~money_put()
FUNC 1dec80 20 0 std::__1::money_put<wchar_t, std::__1::ostreambuf_iterator<wchar_t, std::__1::char_traits<wchar_t> > >::~money_put()
FUNC 1deca0 20 0 std::__1::messages<char>::~messages()
FUNC 1decc0 20 0 std::__1::messages<char>::~messages()
FUNC 1dece0 20 0 std::__1::messages<wchar_t>::~messages()
FUNC 1ded00 20 0 std::__1::messages<wchar_t>::~messages()
FUNC 1ded20 60 0 std::__1::basic_streambuf<char, std::__1::char_traits<char> >::~basic_streambuf()
FUNC 1ded80 80 0 std::__1::basic_streambuf<char, std::__1::char_traits<char> >::~basic_streambuf()
FUNC 1dee00 60 0 std::__1::basic_ostream<char, std::__1::char_traits<char> >::sentry::sentry(std::__1::basic_ostream<char, std::__1::char_traits<char> >&)
FUNC 1dee60 1c0 0 std::__1::basic_ostream<char, std::__1::char_traits<char> >::sentry::~sentry()
FUNC 1df020 40 0 std::__1::basic_string<char, std::__1::char_traits<char>, std::__1::allocator<char> >::~basic_string()
FUNC 1df060 40 0 std::__1::basic_string<wchar_t, std::__1::char_traits<wchar_t>, std::__1::allocator<wchar_t> >::~basic_string()
FUNC 1eee20 72 0 read_sleb128
FUNC 1eeea0 15 0 _Unwind_GetCFA
FUNC 1eeec0 15 0 _Unwind_GetIP
FUNC 1eeee0 2a 0 _Unwind_GetIPInfo
FUNC 1eef20 15 0 _Unwind_SetIP
FUNC 1eef40 15 0 _Unwind_GetLanguageSpecificData
FUNC 1eef60 15 0 _Unwind_GetRegionStart
FUNC 1eef80 15 0 _Unwind_GetDataRelBase
FUNC 1eefa0 15 0 _Unwind_GetTextRelBase
FUNC 1eefc0 c 0 _Unwind_DebugHook
FUNC 1eefe0 2c 0 _Unwind_DeleteException
FUNC 1ef020 100 0 _Unwind_SetGR
FUNC 1ef120 120 0 _Unwind_GetGR
FUNC 1ef240 40 0 _Unwind_FindEnclosingFunction
FUNC 1ef280 1055 0 execute_cfa_program
FUNC 1f02e0 3a0 0 uw_install_context_1
FUNC 1f0680 e0 0 _Unwind_PNaClSetResult0
FUNC 1f0760 e0 0 _Unwind_PNaClSetResult1
FUNC 1f0840 fac 0 execute_stack_op
FUNC 1f1800 70c 0 uw_update_context_1
FUNC 1f1f20 140 0 uw_update_context
FUNC 1f2060 c45 0 uw_frame_state_for
FUNC 1f2cc0 260 0 uw_init_context_1
FUNC 1f2f20 145 0 _Unwind_Backtrace
FUNC 1f3080 1ea 0 _Unwind_ForcedUnwind_Phase2
FUNC 1f3280 18a 0 _Unwind_ForcedUnwind
FUNC 1f3420 160 0 _Unwind_RaiseException_Phase2
FUNC 1f3580 1aa 0 _Unwind_Resume
FUNC 1f3740 1b3 0 __frame_state_for
FUNC 1f3900 28a 0 _Unwind_RaiseException
FUNC 1f3ba0 18a 0 _Unwind_Resume_or_Rethrow
FUNC 1f3d40 8c 0 __register_frame_info_bases
FUNC 1f3de0 8c 0 __register_frame_info
FUNC 1f3e80 70 0 __register_frame_info_table_bases
FUNC 1f3f00 77 0 __register_frame_info_table
FUNC 1f3f80 179 0 frame_downheap
FUNC 1f4100 119 0 frame_heapsort
FUNC 1f4220 f4 0 size_of_encoded_value
FUNC 1f4320 e0 0 base_from_object
FUNC 1f4400 24f 0 read_encoded_value_with_base
FUNC 1f4660 252 0 get_cie_encoding
FUNC 1f48c0 26a 0 classify_object_over_fdes
FUNC 1f4b40 e0 0 fde_single_encoding_compare
FUNC 1f4c20 120 0 fde_mixed_encoding_compare
FUNC 1f4d40 264 0 linear_search_fdes
FUNC 1f4fc0 90 0 __register_frame_table
FUNC 1f5060 d3 0 __register_frame
FUNC 1f5140 239 0 add_fdes
FUNC 1f5380 33 0 fde_unencoded_compare
FUNC 1f53c0 e20 0 search_object
FUNC 1f61e0 2a7 0 _Unwind_Find_FDE
FUNC 1f64a0 200 0 __deregister_frame_info_bases
FUNC 1f66a0 7 0 __deregister_frame_info
FUNC 1f66c0 6d 0 __deregister_frame
FUNC 1f6900 5e0 0 memmove
STACK CFI INIT 1ee0 4a0 .cfa: $rsp 8 + .ra: .cfa -8 + ^
STACK CFI 1ee2 .cfa: $rsp 16 +
STACK CFI 1ee4 .cfa: $rsp 24 +
STACK CFI 1ee6 .cfa: $rsp 32 +
STACK CFI 1ee7 .cfa: $rsp 40 +
STACK CFI 1eee $r12: .cfa -32 + ^ $r13: .cfa -24 + ^ $r14: .cfa -16 + ^ $rbx: .cfa -40 + ^ .cfa: $rsp 80 +
STACK CFI INIT 25e0 2a0 .cfa: $rsp 8 + .ra: .cfa -8 + ^
STACK CFI 25e2 .cfa: $rsp 16 +
STACK CFI 25e4 .cfa: $rsp 24 +
STACK CFI 25e6 .cfa: $rsp 32 +
STACK CFI 25e7 .cfa: $rsp 40 +
STACK CFI 25ee $r12: .cfa -32 + ^ $r13: .cfa -24 + ^ $r14: .cfa -16 + ^ $rbx: .cfa -40 + ^ .cfa: $rsp 80 +
STACK CFI INIT 37c0 340 .cfa: $rsp 8 + .ra: .cfa -8 + ^
STACK CFI 37c1 $rbx: .cfa -16 + ^ .cfa: $rsp 16 +
STACK CFI INIT 3ce0 540 .cfa: $rsp 8 + .ra: .cfa -8 + ^
STACK CFI 3ce2 .cfa: $rsp 16 +
STACK CFI 3ce4 .cfa: $rsp 24 +
STACK CFI 3ce6 .cfa: $rsp 32 +
STACK CFI 3ce7 .cfa: $rsp 40 +
STACK CFI 3cee $r12: .cfa -32 + ^ $r13: .cfa -24 + ^ $r14: .cfa -16 + ^ $rbx: .cfa -40 + ^ .cfa: $rsp 80 +
STACK CFI INIT 4800 1d00 .cfa: $rsp 8 + .ra: .cfa -8 + ^
STACK CFI 4802 .cfa: $rsp 16 +
STACK CFI 4804 .cfa: $rsp 24 +
STACK CFI 4806 .cfa: $rsp 32 +
STACK CFI 4807 .cfa: $rsp 40 +
STACK CFI 4811 $r12: .cfa -32 + ^ $r13: .cfa -24 + ^ $r14: .cfa -16 + ^ $rbx: .cfa -40 + ^ .cfa: $rsp 400 +
STACK CFI INIT 6500 5a0 .cfa: $rsp 8 + .ra: .cfa -8 + ^
STACK CFI 6502 .cfa: $rsp 16 +
STACK CFI 6504 .cfa: $rsp 24 +
STACK CFI 6506 .cfa: $rsp 32 +
STACK CFI 6507 .cfa: $rsp 40 +
STACK CFI 650e $r12: .cfa -32 + ^ $r13: .cfa -24 + ^ $r14: .cfa -16 + ^ $rbx: .cfa -40 + ^ .cfa: $rsp 144 +
STACK CFI INIT 6e20 1e0 .cfa: $rsp 8 + .ra: .cfa -8 + ^
STACK CFI 6e22 .cfa: $rsp 16 +
STACK CFI 6e24 .cfa: $rsp 24 +
STACK CFI 6e25 .cfa: $rsp 32 +
STACK CFI 6e2c $r12: .cfa -24 + ^ $r14: .cfa -16 + ^ $rbx: .cfa -32 + ^ .cfa: $rsp 48 +
STACK CFI INIT 7000 4c0 .cfa: $rsp 8 + .ra: .cfa -8 + ^
STACK CFI 7002 .cfa: $rsp 16 +
STACK CFI 7004 .cfa: $rsp 24 +
STACK CFI 7006 .cfa: $rsp 32 +
STACK CFI 7007 .cfa: $rsp 40 +
STACK CFI 700e $r12: .cfa -32 + ^ $r13: .cfa -24 + ^ $r14: .cfa -16 + ^ $rbx: .cfa -40 + ^ .cfa: $rsp 96 +
STACK CFI INIT 74c0 2c0 .cfa: $rsp 8 + .ra: .cfa -8 + ^
STACK CFI 74c2 .cfa: $rsp 16 +
STACK CFI 74c4 .cfa: $rsp 24 +
STACK CFI 74c6 .cfa: $rsp 32 +
STACK CFI 74c7 .cfa: $rsp 40 +
STACK CFI 74ce $r12: .cfa -32 + ^ $r13: .cfa -24 + ^ $r14: .cfa -16 + ^ $rbx: .cfa -40 + ^ .cfa: $rsp 64 +
STACK CFI INIT 7de0 160 .cfa: $rsp 8 + .ra: .cfa -8 + ^
STACK CFI 7de2 .cfa: $rsp 16 +
STACK CFI 7de4 .cfa: $rsp 24 +
STACK CFI 7de6 .cfa: $rsp 32 +
STACK CFI 7de7 .cfa: $rsp 40 +
STACK CFI 7de8 $r12: .cfa -32 + ^ $r13: .cfa -24 + ^ $r14: .cfa -16 + ^ $rbx: .cfa -40 + ^ .cfa: $rsp 48 +
STACK CFI INIT 7f40 2e0 .cfa: $rsp 8 + .ra: .cfa -8 + ^
STACK CFI 7f42 .cfa: $rsp 16 +
STACK CFI 7f44 .cfa: $rsp 24 +
STACK CFI 7f46 .cfa: $rsp 32 +
STACK CFI 7f47 .cfa: $rsp 40 +
STACK CFI 7f48 $r12: .cfa -32 + ^ $r13: .cfa -24 + ^ $r14: .cfa -16 + ^ $rbx: .cfa -40 + ^ .cfa: $rsp 48 +
STACK CFI INIT 8fe0 b20 .cfa: $rsp 8 + .ra: .cfa -8 + ^
STACK CFI 8fe2 .cfa: $rsp 16 +
STACK CFI 8fe4 .cfa: $rsp 24 +
STACK CFI 8fe6 .cfa: $rsp 32 +
STACK CFI 8fe7 .cfa: $rsp 40 +
STACK CFI 8ff1 $r12: .cfa -32 + ^ $r13: .cfa -24 + ^ $r14: .cfa -16 + ^ $rbx: .cfa -40 + ^ .cfa: $rsp 208 +
STACK CFI INIT b380 4da0 .cfa: $rsp 8 + .ra: .cfa -8 + ^
STACK CFI b382 .cfa: $rsp 16 +
STACK CFI b384 .cfa: $rsp 24 +
STACK CFI b386 .cfa: $rsp 32 +
STACK CFI b387 .cfa: $rsp 40 +
STACK CFI b391 $r12: .cfa -32 + ^ $r13: .cfa -24 + ^ $r14: .cfa -16 + ^ $rbx: .cfa -40 + ^ .cfa: $rsp 1056 +
STACK CFI INIT 101c0 9a0 .cfa: $rsp 8 + .ra: .cfa -8 + ^
STACK CFI 101c2 .cfa: $rsp 16 +
STACK CFI 101c4 .cfa: $rsp 24 +
STACK CFI 101c6 .cfa: $rsp 32 +
STACK CFI 101c7 .cfa: $rsp 40 +
STACK CFI 101d1 $r12: .cfa -32 + ^ $r13: .cfa -24 + ^ $r14: .cfa -16 + ^ $rbx: .cfa -40 + ^ .cfa: $rsp 208 +
STACK CFI INIT 10b60 1a0 .cfa: $rsp 8 + .ra: .cfa -8 + ^
STACK CFI 10b62 .cfa: $rsp 16 +
STACK CFI 10b64 .cfa: $rsp 24 +
STACK CFI 10b65 .cfa: $rsp 32 +
STACK CFI 10b6c $r12: .cfa -24 + ^ $r14: .cfa -16 + ^ $rbx: .cfa -32 + ^ .cfa: $rsp 64 +
STACK CFI INIT 10d00 460 .cfa: $rsp 8 + .ra: .cfa -8 + ^
STACK CFI 10d02 .cfa: $rsp 16 +
STACK CFI 10d04 .cfa: $rsp 24 +
STACK CFI 10d06 .cfa: $rsp 32 +
STACK CFI 10d07 .cfa: $rsp 40 +
STACK CFI 10d11 $r12: .cfa -32 + ^ $r13: .cfa -24 + ^ $r14: .cfa -16 + ^ $rbx: .cfa -40 + ^ .cfa: $rsp 224 +
STACK CFI INIT 11a40 2c0 .cfa: $rsp 8 + .ra: .cfa -8 + ^
STACK CFI 11a42 .cfa: $rsp 16 +
STACK CFI 11a44 .cfa: $rsp 24 +
STACK CFI 11a46 .cfa: $rsp 32 +
STACK CFI 11a47 .cfa: $rsp 40 +
STACK CFI 11a4e $r12: .cfa -32 + ^ $r13: .cfa -24 + ^ $r14: .cfa -16 + ^ $rbx: .cfa -40 + ^ .cfa: $rsp 80 +
STACK CFI INIT 12180 4c0 .cfa: $rsp 8 + .ra: .cfa -8 + ^
STACK CFI 12182 .cfa: $rsp 16 +
STACK CFI 12184 .cfa: $rsp 24 +
STACK CFI 12186 .cfa: $rsp 32 +
STACK CFI 12187 .cfa: $rsp 40 +
STACK CFI 1218e $r12: .cfa -32 + ^ $r13: .cfa -24 + ^ $r14: .cfa -16 + ^ $rbx: .cfa -40 + ^ .cfa: $rsp 112 +
STACK CFI INIT 12640 2a0 .cfa: $rsp 8 + .ra: .cfa -8 + ^
STACK CFI 12642 .cfa: $rsp 16 +
STACK CFI 12644 .cfa: $rsp 24 +
STACK CFI 12646 .cfa: $rsp 32 +
STACK CFI 12647 .cfa: $rsp 40 +
STACK CFI 1264e $r12: .cfa -32 + ^ $r13: .cfa -24 + ^ $r14: .cfa -16 + ^ $rbx: .cfa -40 + ^ .cfa: $rsp 80 +
STACK CFI INIT 128e0 2500 .cfa: $rsp 8 + .ra: .cfa -8 + ^
STACK CFI 128e2 .cfa: $rsp 16 +
STACK CFI 128e4 .cfa: $rsp 24 +
STACK CFI 128e6 .cfa: $rsp 32 +
STACK CFI 128e7 .cfa: $rsp 40 +
STACK CFI 128f1 $r12: .cfa -32 + ^ $r13: .cfa -24 + ^ $r14: .cfa -16 + ^ $rbx: .cfa -40 + ^ .cfa: $rsp 496 +
STACK CFI INIT 21e60 180 .cfa: $rsp 8 + .ra: .cfa -8 + ^
STACK CFI 21e61 .cfa: $rsp 16 +
STACK CFI 21e68 $rbx: .cfa -16 + ^ .cfa: $rsp 48 +
STACK CFI INIT 222e0 a80 .cfa: $rsp 8 + .ra: .cfa -8 + ^
STACK CFI 222e2 .cfa: $rsp 16 +
STACK CFI 222e4 .cfa: $rsp 24 +
STACK CFI 222e6 .cfa: $rsp 32 +
STACK CFI 222e7 .cfa: $rsp 40 +
STACK CFI 222f1 $r12: .cfa -32 + ^ $r13: .cfa -24 + ^ $r14: .cfa -16 + ^ $rbx: .cfa -40 + ^ .cfa: $rsp 656 +
STACK CFI INIT 23100 1340 .cfa: $rsp 8 + .ra: .cfa -8 + ^
STACK CFI 23102 .cfa: $rsp 16 +
STACK CFI 23104 .cfa: $rsp 24 +
STACK CFI 23106 .cfa: $rsp 32 +
STACK CFI 23107 .cfa: $rsp 40 +
STACK CFI 23111 $r12: .cfa -32 + ^ $r13: .cfa -24 + ^ $r14: .cfa -16 + ^ $rbx: .cfa -40 + ^ .cfa: $rsp 512 +
STACK CFI INIT 26f40 940 .cfa: $rsp 8 + .ra: .cfa -8 + ^
STACK CFI 26f42 .cfa: $rsp 16 +
STACK CFI 26f44 .cfa: $rsp 24 +
STACK CFI 26f46 .cfa: $rsp 32 +
STACK CFI 26f47 .cfa: $rsp 40 +
STACK CFI 26f51 $r12: .cfa -32 + ^ $r13: .cfa -24 + ^ $r14: .cfa -16 + ^ $rbx: .cfa -40 + ^ .cfa: $rsp 240 +
STACK CFI INIT 2bbe0 20a0 .cfa: $rsp 8 + .ra: .cfa -8 + ^
STACK CFI 2bbe2 .cfa: $rsp 16 +
STACK CFI 2bbe4 .cfa: $rsp 24 +
STACK CFI 2bbe6 .cfa: $rsp 32 +
STACK CFI 2bbe7 .cfa: $rsp 40 +
STACK CFI 2bbf1 $r12: .cfa -32 + ^ $r13: .cfa -24 + ^ $r14: .cfa -16 + ^ $rbx: .cfa -40 + ^ .cfa: $rsp 1456 +
STACK CFI INIT 2dc80 540 .cfa: $rsp 8 + .ra: .cfa -8 + ^
STACK CFI 2dc82 .cfa: $rsp 16 +
STACK CFI 2dc84 .cfa: $rsp 24 +
STACK CFI 2dc86 .cfa: $rsp 32 +
STACK CFI 2dc87 .cfa: $rsp 40 +
STACK CFI 2dc91 $r12: .cfa -32 + ^ $r13: .cfa -24 + ^ $r14: .cfa -16 + ^ $rbx: .cfa -40 + ^ .cfa: $rsp 272 +
STACK CFI INIT 2e300 1a0 .cfa: $rsp 8 + .ra: .cfa -8 + ^
STACK CFI 2e302 .cfa: $rsp 16 +
STACK CFI 2e304 .cfa: $rsp 24 +
STACK CFI 2e305 .cfa: $rsp 32 +
STACK CFI 2e30c $r12: .cfa -24 + ^ $r14: .cfa -16 + ^ $rbx: .cfa -32 + ^ .cfa: $rsp 64 +
STACK CFI INIT 2e4a0 460 .cfa: $rsp 8 + .ra: .cfa -8 + ^
STACK CFI 2e4a2 .cfa: $rsp 16 +
STACK CFI 2e4a4 .cfa: $rsp 24 +
STACK CFI 2e4a6 .cfa: $rsp 32 +
STACK CFI 2e4a7 .cfa: $rsp 40 +
STACK CFI 2e4b1 $r12: .cfa -32 + ^ $r13: .cfa -24 + ^ $r14: .cfa -16 + ^ $rbx: .cfa -40 + ^ .cfa: $rsp 224 +
STACK CFI INIT 2ea40 1c0 .cfa: $rsp 8 + .ra: .cfa -8 + ^
STACK CFI 2ea42 .cfa: $rsp 16 +
STACK CFI 2ea44 .cfa: $rsp 24 +
STACK CFI 2ea46 .cfa: $rsp 32 +
STACK CFI 2ea47 .cfa: $rsp 40 +
STACK CFI 2ea4e $r12: .cfa -32 + ^ $r13: .cfa -24 + ^ $r14: .cfa -16 + ^ $rbx: .cfa -40 + ^ .cfa: $rsp 80 +
STACK CFI INIT 31980 f40 .cfa: $rsp 8 + .ra: .cfa -8 + ^
STACK CFI 31982 .cfa: $rsp 16 +
STACK CFI 31984 .cfa: $rsp 24 +
STACK CFI 31986 .cfa: $rsp 32 +
STACK CFI 31987 .cfa: $rsp 40 +
STACK CFI 31991 $r12: .cfa -32 + ^ $r13: .cfa -24 + ^ $r14: .cfa -16 + ^ $rbx: .cfa -40 + ^ .cfa: $rsp 624 +
STACK CFI INIT 32900 1a0 .cfa: $rsp 8 + .ra: .cfa -8 + ^
STACK CFI 32902 .cfa: $rsp 16 +
STACK CFI 32904 .cfa: $rsp 24 +
STACK CFI 32905 .cfa: $rsp 32 +
STACK CFI 3290c $r12: .cfa -24 + ^ $r14: .cfa -16 + ^ $rbx: .cfa -32 + ^ .cfa: $rsp 48 +
STACK CFI INIT 32b80 6e0 .cfa: $rsp 8 + .ra: .cfa -8 + ^
STACK CFI 32b82 .cfa: $rsp 16 +
STACK CFI 32b84 .cfa: $rsp 24 +
STACK CFI 32b86 .cfa: $rsp 32 +
STACK CFI 32b87 .cfa: $rsp 40 +
STACK CFI 32b91 $r12: .cfa -32 + ^ $r13: .cfa -24 + ^ $r14: .cfa -16 + ^ $rbx: .cfa -40 + ^ .cfa: $rsp 256 +
STACK CFI INIT 33520 17a0 .cfa: $rsp 8 + .ra: .cfa -8 + ^
STACK CFI 33522 .cfa: $rsp 16 +
STACK CFI 33524 .cfa: $rsp 24 +
STACK CFI 33526 .cfa: $rsp 32 +
STACK CFI 33527 .cfa: $rsp 40 +
STACK CFI 33531 $r12: .cfa -32 + ^ $r13: .cfa -24 + ^ $r14: .cfa -16 + ^ $rbx: .cfa -40 + ^ .cfa: $rsp 1056 +
STACK CFI INIT 34cc0 a8e0 .cfa: $rsp 8 + .ra: .cfa -8 + ^
STACK CFI 34cc2 .cfa: $rsp 16 +
STACK CFI 34cc4 .cfa: $rsp 24 +
STACK CFI 34cc6 .cfa: $rsp 32 +
STACK CFI 34cc7 .cfa: $rsp 40 +
STACK CFI 34cd1 $r12: .cfa -32 + ^ $r13: .cfa -24 + ^ $r14: .cfa -16 + ^ $rbx: .cfa -40 + ^ .cfa: $rsp 2224 +
STACK CFI INIT 3faa0 8e0 .cfa: $rsp 8 + .ra: .cfa -8 + ^
STACK CFI 3faa2 .cfa: $rsp 16 +
STACK CFI 3faa4 .cfa: $rsp 24 +
STACK CFI 3faa5 .cfa: $rsp 32 +
STACK CFI 3faaf $r12: .cfa -24 + ^ $r14: .cfa -16 + ^ $rbx: .cfa -32 + ^ .cfa: $rsp 304 +
STACK CFI INIT 406e0 520 .cfa: $rsp 8 + .ra: .cfa -8 + ^
STACK CFI 406e2 .cfa: $rsp 16 +
STACK CFI 406e4 .cfa: $rsp 24 +
STACK CFI 406e6 .cfa: $rsp 32 +
STACK CFI 406e7 .cfa: $rsp 40 +
STACK CFI 406f1 $r12: .cfa -32 + ^ $r13: .cfa -24 + ^ $r14: .cfa -16 + ^ $rbx: .cfa -40 + ^ .cfa: $rsp 224 +
STACK CFI INIT 42980 5c0 .cfa: $rsp 8 + .ra: .cfa -8 + ^
STACK CFI 42982 .cfa: $rsp 16 +
STACK CFI 42984 .cfa: $rsp 24 +
STACK CFI 42986 .cfa: $rsp 32 +
STACK CFI 42987 .cfa: $rsp 40 +
STACK CFI 42991 $r12: .cfa -32 + ^ $r13: .cfa -24 + ^ $r14: .cfa -16 + ^ $rbx: .cfa -40 + ^ .cfa: $rsp 256 +
STACK CFI INIT 43080 1a0 .cfa: $rsp 8 + .ra: .cfa -8 + ^
STACK CFI 43082 .cfa: $rsp 16 +
STACK CFI 43084 .cfa: $rsp 24 +
STACK CFI 43085 .cfa: $rsp 32 +
STACK CFI 4308c $r12: .cfa -24 + ^ $r14: .cfa -16 + ^ $rbx: .cfa -32 + ^ .cfa: $rsp 64 +
STACK CFI INIT 45f80 1000 .cfa: $rsp 8 + .ra: .cfa -8 + ^
STACK CFI 45f82 .cfa: $rsp 16 +
STACK CFI 45f84 .cfa: $rsp 24 +
STACK CFI 45f86 .cfa: $rsp 32 +
STACK CFI 45f87 .cfa: $rsp 40 +
STACK CFI 45f91 $r12: .cfa -32 + ^ $r13: .cfa -24 + ^ $r14: .cfa -16 + ^ $rbx: .cfa -40 + ^ .cfa: $rsp 496 +
STACK CFI INIT 46f80 da0 .cfa: $rsp 8 + .ra: .cfa -8 + ^
STACK CFI 46f82 .cfa: $rsp 16 +
STACK CFI 46f84 .cfa: $rsp 24 +
STACK CFI 46f86 .cfa: $rsp 32 +
STACK CFI 46f87 .cfa: $rsp 40 +
STACK CFI 46f91 $r12: .cfa -32 + ^ $r13: .cfa -24 + ^ $r14: .cfa -16 + ^ $rbx: .cfa -40 + ^ .cfa: $rsp 480 +
STACK CFI INIT 4a8c0 1a0 .cfa: $rsp 8 + .ra: .cfa -8 + ^
STACK CFI 4a8c2 .cfa: $rsp 16 +
STACK CFI 4a8c4 .cfa: $rsp 24 +
STACK CFI 4a8c5 .cfa: $rsp 32 +
STACK CFI 4a8cc $r12: .cfa -24 + ^ $r14: .cfa -16 + ^ $rbx: .cfa -32 + ^ .cfa: $rsp 64 +
STACK CFI INIT 4aa60 460 .cfa: $rsp 8 + .ra: .cfa -8 + ^
STACK CFI 4aa62 .cfa: $rsp 16 +
STACK CFI 4aa64 .cfa: $rsp 24 +
STACK CFI 4aa66 .cfa: $rsp 32 +
STACK CFI 4aa67 .cfa: $rsp 40 +
STACK CFI 4aa71 $r12: .cfa -32 + ^ $r13: .cfa -24 + ^ $r14: .cfa -16 + ^ $rbx: .cfa -40 + ^ .cfa: $rsp 224 +
STACK CFI INIT 4aec0 520 .cfa: $rsp 8 + .ra: .cfa -8 + ^
STACK CFI 4aec2 .cfa: $rsp 16 +
STACK CFI 4aec4 .cfa: $rsp 24 +
STACK CFI 4aec6 .cfa: $rsp 32 +
STACK CFI 4aec7 .cfa: $rsp 40 +
STACK CFI 4aed1 $r12: .cfa -32 + ^ $r13: .cfa -24 + ^ $r14: .cfa -16 + ^ $rbx: .cfa -40 + ^ .cfa: $rsp 224 +
STACK CFI INIT 4b740 d60 .cfa: $rsp 8 + .ra: .cfa -8 + ^
STACK CFI 4b742 .cfa: $rsp 16 +
STACK CFI 4b744 .cfa: $rsp 24 +
STACK CFI 4b746 .cfa: $rsp 32 +
STACK CFI 4b747 .cfa: $rsp 40 +
STACK CFI 4b751 $r12: .cfa -32 + ^ $r13: .cfa -24 + ^ $r14: .cfa -16 + ^ $rbx: .cfa -40 + ^ .cfa: $rsp 480 +
STACK CFI INIT 4d680 be0 .cfa: $rsp 8 + .ra: .cfa -8 + ^
STACK CFI 4d682 .cfa: $rsp 16 +
STACK CFI 4d684 .cfa: $rsp 24 +
STACK CFI 4d686 .cfa: $rsp 32 +
STACK CFI 4d687 .cfa: $rsp 40 +
STACK CFI 4d691 $r12: .cfa -32 + ^ $r13: .cfa -24 + ^ $r14: .cfa -16 + ^ $rbx: .cfa -40 + ^ .cfa: $rsp 528 +
STACK CFI INIT 4e260 480 .cfa: $rsp 8 + .ra: .cfa -8 + ^
STACK CFI 4e262 .cfa: $rsp 16 +
STACK CFI 4e264 .cfa: $rsp 24 +
STACK CFI 4e266 .cfa: $rsp 32 +
STACK CFI 4e267 .cfa: $rsp 40 +
STACK CFI 4e271 $r12: .cfa -32 + ^ $r13: .cfa -24 + ^ $r14: .cfa -16 + ^ $rbx: .cfa -40 + ^ .cfa: $rsp 240 +
STACK CFI INIT 4e6e0 1c0 .cfa: $rsp 8 + .ra: .cfa -8 + ^
STACK CFI 4e6e2 .cfa: $rsp 16 +
STACK CFI 4e6e4 .cfa: $rsp 24 +
STACK CFI 4e6e6 .cfa: $rsp 32 +
STACK CFI 4e6e7 .cfa: $rsp 40 +
STACK CFI 4e6ee $r12: .cfa -32 + ^ $r13: .cfa -24 + ^ $r14: .cfa -16 + ^ $rbx: .cfa -40 + ^ .cfa: $rsp 80 +
STACK CFI INIT 4e8a0 1040 .cfa: $rsp 8 + .ra: .cfa -8 + ^
STACK CFI 4e8a2 .cfa: $rsp 16 +
STACK CFI 4e8a4 .cfa: $rsp 24 +
STACK CFI 4e8a6 .cfa: $rsp 32 +
STACK CFI 4e8a7 .cfa: $rsp 40 +
STACK CFI 4e8b1 $r12: .cfa -32 + ^ $r13: .cfa -24 + ^ $r14: .cfa -16 + ^ $rbx: .cfa -40 + ^ .cfa: $rsp 384 +
STACK CFI INIT 52160 1a0 .cfa: $rsp 8 + .ra: .cfa -8 + ^
STACK CFI 52162 .cfa: $rsp 16 +
STACK CFI 52164 .cfa: $rsp 24 +
STACK CFI 52165 .cfa: $rsp 32 +
STACK CFI 5216c $r12: .cfa -24 + ^ $r14: .cfa -16 + ^ $rbx: .cfa -32 + ^ .cfa: $rsp 64 +
STACK CFI INIT 52300 460 .cfa: $rsp 8 + .ra: .cfa -8 + ^
STACK CFI 52302 .cfa: $rsp 16 +
STACK CFI 52304 .cfa: $rsp 24 +
STACK CFI 52306 .cfa: $rsp 32 +
STACK CFI 52307 .cfa: $rsp 40 +
STACK CFI 52311 $r12: .cfa -32 + ^ $r13: .cfa -24 + ^ $r14: .cfa -16 + ^ $rbx: .cfa -40 + ^ .cfa: $rsp 224 +
STACK CFI INIT 528a0 480 .cfa: $rsp 8 + .ra: .cfa -8 + ^
STACK CFI 528a2 .cfa: $rsp 16 +
STACK CFI 528a4 .cfa: $rsp 24 +
STACK CFI 528a6 .cfa: $rsp 32 +
STACK CFI 528a7 .cfa: $rsp 40 +
STACK CFI 528b1 $r12: .cfa -32 + ^ $r13: .cfa -24 + ^ $r14: .cfa -16 + ^ $rbx: .cfa -40 + ^ .cfa: $rsp 240 +
STACK CFI INIT 52f60 1a0 .cfa: $rsp 8 + .ra: .cfa -8 + ^
STACK CFI 52f62 .cfa: $rsp 16 +
STACK CFI 52f64 .cfa: $rsp 24 +
STACK CFI 52f65 .cfa: $rsp 32 +
STACK CFI 52f6c $r12: .cfa -24 + ^ $r14: .cfa -16 + ^ $rbx: .cfa -32 + ^ .cfa: $rsp 64 +
STACK CFI INIT 53100 480 .cfa: $rsp 8 + .ra: .cfa -8 + ^
STACK CFI 53102 .cfa: $rsp 16 +
STACK CFI 53104 .cfa: $rsp 24 +
STACK CFI 53106 .cfa: $rsp 32 +
STACK CFI 53107 .cfa: $rsp 40 +
STACK CFI 53111 $r12: .cfa -32 + ^ $r13: .cfa -24 + ^ $r14: .cfa -16 + ^ $rbx: .cfa -40 + ^ .cfa: $rsp 240 +
STACK CFI INIT 53580 1a0 .cfa: $rsp 8 + .ra: .cfa -8 + ^
STACK CFI 53582 .cfa: $rsp 16 +
STACK CFI 53584 .cfa: $rsp 24 +
STACK CFI 53585 .cfa: $rsp 32 +
STACK CFI 5358c $r12: .cfa -24 + ^ $r14: .cfa -16 + ^ $rbx: .cfa -32 + ^ .cfa: $rsp 64 +
STACK CFI INIT 53720 540 .cfa: $rsp 8 + .ra: .cfa -8 + ^
STACK CFI 53722 .cfa: $rsp 16 +
STACK CFI 53724 .cfa: $rsp 24 +
STACK CFI 53726 .cfa: $rsp 32 +
STACK CFI 53727 .cfa: $rsp 40 +
STACK CFI 53731 $r12: .cfa -32 + ^ $r13: .cfa -24 + ^ $r14: .cfa -16 + ^ $rbx: .cfa -40 + ^ .cfa: $rsp 272 +
STACK CFI INIT 53c60 560 .cfa: $rsp 8 + .ra: .cfa -8 + ^
STACK CFI 53c62 .cfa: $rsp 16 +
STACK CFI 53c64 .cfa: $rsp 24 +
STACK CFI 53c66 .cfa: $rsp 32 +
STACK CFI 53c67 .cfa: $rsp 40 +
STACK CFI 53c71 $r12: .cfa -32 + ^ $r13: .cfa -24 + ^ $r14: .cfa -16 + ^ $rbx: .cfa -40 + ^ .cfa: $rsp 288 +
STACK CFI INIT 5f940 1a0 .cfa: $rsp 8 + .ra: .cfa -8 + ^
STACK CFI 5f942 .cfa: $rsp 16 +
STACK CFI 5f944 .cfa: $rsp 24 +
STACK CFI 5f945 .cfa: $rsp 32 +
STACK CFI 5f94c $r12: .cfa -24 + ^ $r14: .cfa -16 + ^ $rbx: .cfa -32 + ^ .cfa: $rsp 64 +
STACK CFI INIT 5fae0 460 .cfa: $rsp 8 + .ra: .cfa -8 + ^
STACK CFI 5fae2 .cfa: $rsp 16 +
STACK CFI 5fae4 .cfa: $rsp 24 +
STACK CFI 5fae6 .cfa: $rsp 32 +
STACK CFI 5fae7 .cfa: $rsp 40 +
STACK CFI 5faf1 $r12: .cfa -32 + ^ $r13: .cfa -24 + ^ $r14: .cfa -16 + ^ $rbx: .cfa -40 + ^ .cfa: $rsp 224 +
STACK CFI INIT 5ff40 1a0 .cfa: $rsp 8 + .ra: .cfa -8 + ^
STACK CFI 5ff42 .cfa: $rsp 16 +
STACK CFI 5ff44 .cfa: $rsp 24 +
STACK CFI 5ff45 .cfa: $rsp 32 +
STACK CFI 5ff4c $r12: .cfa -24 + ^ $r14: .cfa -16 + ^ $rbx: .cfa -32 + ^ .cfa: $rsp 64 +
STACK CFI INIT 600e0 460 .cfa: $rsp 8 + .ra: .cfa -8 + ^
STACK CFI 600e2 .cfa: $rsp 16 +
STACK CFI 600e4 .cfa: $rsp 24 +
STACK CFI 600e6 .cfa: $rsp 32 +
STACK CFI 600e7 .cfa: $rsp 40 +
STACK CFI 600f1 $r12: .cfa -32 + ^ $r13: .cfa -24 + ^ $r14: .cfa -16 + ^ $rbx: .cfa -40 + ^ .cfa: $rsp 224 +
STACK CFI INIT 60540 600 .cfa: $rsp 8 + .ra: .cfa -8 + ^
STACK CFI 60542 .cfa: $rsp 16 +
STACK CFI 60544 .cfa: $rsp 24 +
STACK CFI 60546 .cfa: $rsp 32 +
STACK CFI 60547 .cfa: $rsp 40 +
STACK CFI 60551 $r12: .cfa -32 + ^ $r13: .cfa -24 + ^ $r14: .cfa -16 + ^ $rbx: .cfa -40 + ^ .cfa: $rsp 288 +
STACK CFI INIT 626c0 400 .cfa: $rsp 8 + .ra: .cfa -8 + ^
STACK CFI 626c2 .cfa: $rsp 16 +
STACK CFI 626c4 .cfa: $rsp 24 +
STACK CFI 626c6 .cfa: $rsp 32 +
STACK CFI 626c7 .cfa: $rsp 40 +
STACK CFI 626d1 $r12: .cfa -32 + ^ $r13: .cfa -24 + ^ $r14: .cfa -16 + ^ $rbx: .cfa -40 + ^ .cfa: $rsp 240 +
STACK CFI INIT 632a0 51a0 .cfa: $rsp 8 + .ra: .cfa -8 + ^
STACK CFI 632a2 .cfa: $rsp 16 +
STACK CFI 632a4 .cfa: $rsp 24 +
STACK CFI 632a6 .cfa: $rsp 32 +
STACK CFI 632a7 .cfa: $rsp 40 +
STACK CFI 632b1 $r12: .cfa -32 + ^ $r13: .cfa -24 + ^ $r14: .cfa -16 + ^ $rbx: .cfa -40 + ^ .cfa: $rsp 2336 +
STACK CFI INIT 68480 5e0 .cfa: $rsp 8 + .ra: .cfa -8 + ^
STACK CFI 68482 .cfa: $rsp 16 +
STACK CFI 68484 .cfa: $rsp 24 +
STACK CFI 68486 .cfa: $rsp 32 +
STACK CFI 68487 .cfa: $rsp 40 +
STACK CFI 68491 $r12: .cfa -32 + ^ $r13: .cfa -24 + ^ $r14: .cfa -16 + ^ $rbx: .cfa -40 + ^ .cfa: $rsp 192 +
STACK CFI INIT 68da0 6c0 .cfa: $rsp 8 + .ra: .cfa -8 + ^
STACK CFI 68da2 .cfa: $rsp 16 +
STACK CFI 68da4 .cfa: $rsp 24 +
STACK CFI 68da6 .cfa: $rsp 32 +
STACK CFI 68da7 .cfa: $rsp 40 +
STACK CFI 68db1 $r12: .cfa -32 + ^ $r13: .cfa -24 + ^ $r14: .cfa -16 + ^ $rbx: .cfa -40 + ^ .cfa: $rsp 2816 +
STACK CFI INIT 69460 1c0 .cfa: $rsp 8 + .ra: .cfa -8 + ^
STACK CFI 69462 .cfa: $rsp 16 +
STACK CFI 69464 .cfa: $rsp 24 +
STACK CFI 69466 .cfa: $rsp 32 +
STACK CFI 69467 .cfa: $rsp 40 +
STACK CFI 6946e $r12: .cfa -32 + ^ $r13: .cfa -24 + ^ $r14: .cfa -16 + ^ $rbx: .cfa -40 + ^ .cfa: $rsp 80 +
STACK CFI INIT 698e0 480 .cfa: $rsp 8 + .ra: .cfa -8 + ^
STACK CFI 698e2 .cfa: $rsp 16 +
STACK CFI 698e4 .cfa: $rsp 24 +
STACK CFI 698e6 .cfa: $rsp 32 +
STACK CFI 698e7 .cfa: $rsp 40 +
STACK CFI 698f1 $r12: .cfa -32 + ^ $r13: .cfa -24 + ^ $r14: .cfa -16 + ^ $rbx: .cfa -40 + ^ .cfa: $rsp 240 +
STACK CFI INIT 69d60 520 .cfa: $rsp 8 + .ra: .cfa -8 + ^
STACK CFI 69d62 .cfa: $rsp 16 +
STACK CFI 69d64 .cfa: $rsp 24 +
STACK CFI 69d66 .cfa: $rsp 32 +
STACK CFI 69d67 .cfa: $rsp 40 +
STACK CFI 69d71 $r12: .cfa -32 + ^ $r13: .cfa -24 + ^ $r14: .cfa -16 + ^ $rbx: .cfa -40 + ^ .cfa: $rsp 224 +
STACK CFI INIT 6a2a0 4c0 .cfa: $rsp 8 + .ra: .cfa -8 + ^
STACK CFI 6a2a2 .cfa: $rsp 16 +
STACK CFI 6a2a4 .cfa: $rsp 24 +
STACK CFI 6a2a6 .cfa: $rsp 32 +
STACK CFI 6a2a7 .cfa: $rsp 40 +
STACK CFI 6a2b1 $r12: .cfa -32 + ^ $r13: .cfa -24 + ^ $r14: .cfa -16 + ^ $rbx: .cfa -40 + ^ .cfa: $rsp 256 +
STACK CFI INIT 6a760 460 .cfa: $rsp 8 + .ra: .cfa -8 + ^
STACK CFI 6a762 .cfa: $rsp 16 +
STACK CFI 6a764 .cfa: $rsp 24 +
STACK CFI 6a766 .cfa: $rsp 32 +
STACK CFI 6a767 .cfa: $rsp 40 +
STACK CFI 6a771 $r12: .cfa -32 + ^ $r13: .cfa -24 + ^ $r14: .cfa -16 + ^ $rbx: .cfa -40 + ^ .cfa: $rsp 224 +
STACK CFI INIT 6bf20 3fc0 .cfa: $rsp 8 + .ra: .cfa -8 + ^
STACK CFI 6bf22 .cfa: $rsp 16 +
STACK CFI 6bf24 .cfa: $rsp 24 +
STACK CFI 6bf26 .cfa: $rsp 32 +
STACK CFI 6bf27 .cfa: $rsp 40 +
STACK CFI 6bf31 $r12: .cfa -32 + ^ $r13: .cfa -24 + ^ $r14: .cfa -16 + ^ $rbx: .cfa -40 + ^ .cfa: $rsp 1904 +
STACK CFI INIT 6ffc0 1b20 .cfa: $rsp 8 + .ra: .cfa -8 + ^
STACK CFI 6ffc2 .cfa: $rsp 16 +
STACK CFI 6ffc4 .cfa: $rsp 24 +
STACK CFI 6ffc6 .cfa: $rsp 32 +
STACK CFI 6ffc7 .cfa: $rsp 40 +
STACK CFI 6ffd1 $r12: .cfa -32 + ^ $r13: .cfa -24 + ^ $r14: .cfa -16 + ^ $rbx: .cfa -40 + ^ .cfa: $rsp 2960 +
STACK CFI INIT 71ae0 f20 .cfa: $rsp 8 + .ra: .cfa -8 + ^
STACK CFI 71ae2 .cfa: $rsp 16 +
STACK CFI 71ae4 .cfa: $rsp 24 +
STACK CFI 71ae6 .cfa: $rsp 32 +
STACK CFI 71ae7 .cfa: $rsp 40 +
STACK CFI 71af1 $r12: .cfa -32 + ^ $r13: .cfa -24 + ^ $r14: .cfa -16 + ^ $rbx: .cfa -40 + ^ .cfa: $rsp 3808 +
STACK CFI INIT 73080 7a0 .cfa: $rsp 8 + .ra: .cfa -8 + ^
STACK CFI 73082 .cfa: $rsp 16 +
STACK CFI 73084 .cfa: $rsp 24 +
STACK CFI 73086 .cfa: $rsp 32 +
STACK CFI 73087 .cfa: $rsp 40 +
STACK CFI 73091 $r12: .cfa -32 + ^ $r13: .cfa -24 + ^ $r14: .cfa -16 + ^ $rbx: .cfa -40 + ^ .cfa: $rsp 1184 +
STACK CFI INIT 7e0e0 1340 .cfa: $rsp 8 + .ra: .cfa -8 + ^
STACK CFI 7e0e2 .cfa: $rsp 16 +
STACK CFI 7e0e4 .cfa: $rsp 24 +
STACK CFI 7e0e6 .cfa: $rsp 32 +
STACK CFI 7e0e7 .cfa: $rsp 40 +
STACK CFI 7e0f1 $r12: .cfa -32 + ^ $r13: .cfa -24 + ^ $r14: .cfa -16 + ^ $rbx: .cfa -40 + ^ .cfa: $rsp 1344 +
STACK CFI INIT 807a0 a20 .cfa: $rsp 8 + .ra: .cfa -8 + ^
STACK CFI 807a2 .cfa: $rsp 16 +
STACK CFI 807a4 .cfa: $rsp 24 +
STACK CFI 807a6 .cfa: $rsp 32 +
STACK CFI 807a7 .cfa: $rsp 40 +
STACK CFI 807b1 $r12: .cfa -32 + ^ $r13: .cfa -24 + ^ $r14: .cfa -16 + ^ $rbx: .cfa -40 + ^ .cfa: $rsp 2608 +
STACK CFI INIT 87420 480 .cfa: $rsp 8 + .ra: .cfa -8 + ^
STACK CFI 87422 .cfa: $rsp 16 +
STACK CFI 87424 .cfa: $rsp 24 +
STACK CFI 87426 .cfa: $rsp 32 +
STACK CFI 87427 .cfa: $rsp 40 +
STACK CFI 87431 $r12: .cfa -32 + ^ $r13: .cfa -24 + ^ $r14: .cfa -16 + ^ $rbx: .cfa -40 + ^ .cfa: $rsp 240 +
STACK CFI INIT 89220 440 .cfa: $rsp 8 + .ra: .cfa -8 + ^
STACK CFI 89222 .cfa: $rsp 16 +
STACK CFI 89224 .cfa: $rsp 24 +
STACK CFI 89225 .cfa: $rsp 32 +
STACK CFI 8922c $r12: .cfa -24 + ^ $r14: .cfa -16 + ^ $rbx: .cfa -32 + ^ .cfa: $rsp 80 +
STACK CFI INIT 8a0c0 360 .cfa: $rsp 8 + .ra: .cfa -8 + ^
STACK CFI 8a0c2 .cfa: $rsp 16 +
STACK CFI 8a0c4 .cfa: $rsp 24 +
STACK CFI 8a0c5 .cfa: $rsp 32 +
STACK CFI 8a0cf $r12: .cfa -24 + ^ $r14: .cfa -16 + ^ $rbx: .cfa -32 + ^ .cfa: $rsp 3920 +
STACK CFI INIT 8ace0 da0 .cfa: $rsp 8 + .ra: .cfa -8 + ^
STACK CFI 8ace2 .cfa: $rsp 16 +
STACK CFI 8ace4 .cfa: $rsp 24 +
STACK CFI 8ace6 .cfa: $rsp 32 +
STACK CFI 8ace7 .cfa: $rsp 40 +
STACK CFI 8acf1 $r12: .cfa -32 + ^ $r13: .cfa -24 + ^ $r14: .cfa -16 + ^ $rbx: .cfa -40 + ^ .cfa: $rsp 272 +
STACK CFI INIT 8bd80 480 .cfa: $rsp 8 + .ra: .cfa -8 + ^
STACK CFI 8bd82 .cfa: $rsp 16 +
STACK CFI 8bd84 .cfa: $rsp 24 +
STACK CFI 8bd86 .cfa: $rsp 32 +
STACK CFI 8bd87 .cfa: $rsp 40 +
STACK CFI 8bd91 $r12: .cfa -32 + ^ $r13: .cfa -24 + ^ $r14: .cfa -16 + ^ $rbx: .cfa -40 + ^ .cfa: $rsp 240 +
STACK CFI INIT 8c200 520 .cfa: $rsp 8 + .ra: .cfa -8 + ^
STACK CFI 8c202 .cfa: $rsp 16 +
STACK CFI 8c204 .cfa: $rsp 24 +
STACK CFI 8c206 .cfa: $rsp 32 +
STACK CFI 8c207 .cfa: $rsp 40 +
STACK CFI 8c211 $r12: .cfa -32 + ^ $r13: .cfa -24 + ^ $r14: .cfa -16 + ^ $rbx: .cfa -40 + ^ .cfa: $rsp 288 +
STACK CFI INIT 8c720 1a0 .cfa: $rsp 8 + .ra: .cfa -8 + ^
STACK CFI 8c722 .cfa: $rsp 16 +
STACK CFI 8c724 .cfa: $rsp 24 +
STACK CFI 8c725 .cfa: $rsp 32 +
STACK CFI 8c72c $r12: .cfa -24 + ^ $r14: .cfa -16 + ^ $rbx: .cfa -32 + ^ .cfa: $rsp 64 +
STACK CFI INIT 8c8c0 4c0 .cfa: $rsp 8 + .ra: .cfa -8 + ^
STACK CFI 8c8c2 .cfa: $rsp 16 +
STACK CFI 8c8c4 .cfa: $rsp 24 +
STACK CFI 8c8c6 .cfa: $rsp 32 +
STACK CFI 8c8c7 .cfa: $rsp 40 +
STACK CFI 8c8d1 $r12: .cfa -32 + ^ $r13: .cfa -24 + ^ $r14: .cfa -16 + ^ $rbx: .cfa -40 + ^ .cfa: $rsp 256 +
STACK CFI INIT 8cd80 1a0 .cfa: $rsp 8 + .ra: .cfa -8 + ^
STACK CFI 8cd82 .cfa: $rsp 16 +
STACK CFI 8cd84 .cfa: $rsp 24 +
STACK CFI 8cd85 .cfa: $rsp 32 +
STACK CFI 8cd8c $r12: .cfa -24 + ^ $r14: .cfa -16 + ^ $rbx: .cfa -32 + ^ .cfa: $rsp 64 +
STACK CFI INIT 8cf20 480 .cfa: $rsp 8 + .ra: .cfa -8 + ^
STACK CFI 8cf22 .cfa: $rsp 16 +
STACK CFI 8cf24 .cfa: $rsp 24 +
STACK CFI 8cf26 .cfa: $rsp 32 +
STACK CFI 8cf27 .cfa: $rsp 40 +
STACK CFI 8cf31 $r12: .cfa -32 + ^ $r13: .cfa -24 + ^ $r14: .cfa -16 + ^ $rbx: .cfa -40 + ^ .cfa: $rsp 240 +
STACK CFI INIT 8d3a0 360 .cfa: $rsp 8 + .ra: .cfa -8 + ^
STACK CFI 8d3a2 .cfa: $rsp 16 +
STACK CFI 8d3a4 .cfa: $rsp 24 +
STACK CFI 8d3a5 .cfa: $rsp 32 +
STACK CFI 8d3ac $r12: .cfa -24 + ^ $r14: .cfa -16 + ^ $rbx: .cfa -32 + ^ .cfa: $rsp 64 +
STACK CFI INIT 8d880 400 .cfa: $rsp 8 + .ra: .cfa -8 + ^
STACK CFI 8d882 .cfa: $rsp 16 +
STACK CFI 8d884 .cfa: $rsp 24 +
STACK CFI 8d885 .cfa: $rsp 32 +
STACK CFI 8d88c $r12: .cfa -24 + ^ $r14: .cfa -16 + ^ $rbx: .cfa -32 + ^ .cfa: $rsp 96 +
STACK CFI INIT 8dc80 e1c0 .cfa: $rsp 8 + .ra: .cfa -8 + ^
STACK CFI 8dc82 .cfa: $rsp 16 +
STACK CFI 8dc84 .cfa: $rsp 24 +
STACK CFI 8dc86 .cfa: $rsp 32 +
STACK CFI 8dc87 .cfa: $rsp 40 +
STACK CFI 8dc91 $r12: .cfa -32 + ^ $r13: .cfa -24 + ^ $r14: .cfa -16 + ^ $rbx: .cfa -40 + ^ .cfa: $rsp 41088 +
STACK CFI INIT 9ede0 1c0 .cfa: $rsp 8 + .ra: .cfa -8 + ^
STACK CFI 9ede2 .cfa: $rsp 16 +
STACK CFI 9ede4 .cfa: $rsp 24 +
STACK CFI 9ede6 .cfa: $rsp 32 +
STACK CFI 9ede7 .cfa: $rsp 40 +
STACK CFI 9edee $r12: .cfa -32 + ^ $r13: .cfa -24 + ^ $r14: .cfa -16 + ^ $rbx: .cfa -40 + ^ .cfa: $rsp 80 +
STACK CFI INIT 9efa0 4c0 .cfa: $rsp 8 + .ra: .cfa -8 + ^
STACK CFI 9efa2 .cfa: $rsp 16 +
STACK CFI 9efa4 .cfa: $rsp 24 +
STACK CFI 9efa6 .cfa: $rsp 32 +
STACK CFI 9efa7 .cfa: $rsp 40 +
STACK CFI 9efb1 $r12: .cfa -32 + ^ $r13: .cfa -24 + ^ $r14: .cfa -16 + ^ $rbx: .cfa -40 + ^ .cfa: $rsp 256 +
STACK CFI INIT 9f7e0 2e0 .cfa: $rsp 8 + .ra: .cfa -8 + ^
STACK CFI 9f7e2 .cfa: $rsp 16 +
STACK CFI 9f7e4 .cfa: $rsp 24 +
STACK CFI 9f7e6 .cfa: $rsp 32 +
STACK CFI 9f7e7 .cfa: $rsp 40 +
STACK CFI 9f7ee $r12: .cfa -32 + ^ $r13: .cfa -24 + ^ $r14: .cfa -16 + ^ $rbx: .cfa -40 + ^ .cfa: $rsp 96 +
STACK CFI INIT 9fb20 1a0 .cfa: $rsp 8 + .ra: .cfa -8 + ^
STACK CFI 9fb22 .cfa: $rsp 16 +
STACK CFI 9fb23 .cfa: $rsp 24 +
STACK CFI 9fb2a $r14: .cfa -16 + ^ $rbx: .cfa -24 + ^ .cfa: $rsp 64 +
STACK CFI INIT 9fcc0 480 .cfa: $rsp 8 + .ra: .cfa -8 + ^
STACK CFI 9fcc2 .cfa: $rsp 16 +
STACK CFI 9fcc4 .cfa: $rsp 24 +
STACK CFI 9fcc6 .cfa: $rsp 32 +
STACK CFI 9fcc7 .cfa: $rsp 40 +
STACK CFI 9fcd1 $r12: .cfa -32 + ^ $r13: .cfa -24 + ^ $r14: .cfa -16 + ^ $rbx: .cfa -40 + ^ .cfa: $rsp 240 +
STACK CFI INIT a0140 500 .cfa: $rsp 8 + .ra: .cfa -8 + ^
STACK CFI a0142 .cfa: $rsp 16 +
STACK CFI a0144 .cfa: $rsp 24 +
STACK CFI a0146 .cfa: $rsp 32 +
STACK CFI a0147 .cfa: $rsp 40 +
STACK CFI a0151 $r12: .cfa -32 + ^ $r13: .cfa -24 + ^ $r14: .cfa -16 + ^ $rbx: .cfa -40 + ^ .cfa: $rsp 224 +
STACK CFI INIT a06e0 500 .cfa: $rsp 8 + .ra: .cfa -8 + ^
STACK CFI a06e2 .cfa: $rsp 16 +
STACK CFI a06e4 .cfa: $rsp 24 +
STACK CFI a06e6 .cfa: $rsp 32 +
STACK CFI a06e7 .cfa: $rsp 40 +
STACK CFI a06f1 $r12: .cfa -32 + ^ $r13: .cfa -24 + ^ $r14: .cfa -16 + ^ $rbx: .cfa -40 + ^ .cfa: $rsp 224 +
STACK CFI INIT a0c80 420 .cfa: $rsp 8 + .ra: .cfa -8 + ^
STACK CFI a0c82 .cfa: $rsp 16 +
STACK CFI a0c84 .cfa: $rsp 24 +
STACK CFI a0c86 .cfa: $rsp 32 +
STACK CFI a0c87 .cfa: $rsp 40 +
STACK CFI a0c91 $r12: .cfa -32 + ^ $r13: .cfa -24 + ^ $r14: .cfa -16 + ^ $rbx: .cfa -40 + ^ .cfa: $rsp 256 +
STACK CFI INIT a11e0 180 .cfa: $rsp 8 + .ra: .cfa -8 + ^
STACK CFI a11e1 .cfa: $rsp 16 +
STACK CFI a11e8 $rbx: .cfa -16 + ^ .cfa: $rsp 48 +
STACK CFI INIT a34e0 540 .cfa: $rsp 8 + .ra: .cfa -8 + ^
STACK CFI a34e2 .cfa: $rsp 16 +
STACK CFI a34e4 .cfa: $rsp 24 +
STACK CFI a34e6 .cfa: $rsp 32 +
STACK CFI a34e7 .cfa: $rsp 40 +
STACK CFI a34f1 $r12: .cfa -32 + ^ $r13: .cfa -24 + ^ $r14: .cfa -16 + ^ $rbx: .cfa -40 + ^ .cfa: $rsp 272 +
STACK CFI INIT a3a20 1a0 .cfa: $rsp 8 + .ra: .cfa -8 + ^
STACK CFI a3a22 .cfa: $rsp 16 +
STACK CFI a3a24 .cfa: $rsp 24 +
STACK CFI a3a25 .cfa: $rsp 32 +
STACK CFI a3a2c $r12: .cfa -24 + ^ $r14: .cfa -16 + ^ $rbx: .cfa -32 + ^ .cfa: $rsp 64 +
STACK CFI INIT a3bc0 580 .cfa: $rsp 8 + .ra: .cfa -8 + ^
STACK CFI a3bc2 .cfa: $rsp 16 +
STACK CFI a3bc4 .cfa: $rsp 24 +
STACK CFI a3bc6 .cfa: $rsp 32 +
STACK CFI a3bc7 .cfa: $rsp 40 +
STACK CFI a3bd1 $r12: .cfa -32 + ^ $r13: .cfa -24 + ^ $r14: .cfa -16 + ^ $rbx: .cfa -40 + ^ .cfa: $rsp 288 +
STACK CFI INIT a4280 1a0 .cfa: $rsp 8 + .ra: .cfa -8 + ^
STACK CFI a4282 .cfa: $rsp 16 +
STACK CFI a4284 .cfa: $rsp 24 +
STACK CFI a4285 .cfa: $rsp 32 +
STACK CFI a428c $r12: .cfa -24 + ^ $r14: .cfa -16 + ^ $rbx: .cfa -32 + ^ .cfa: $rsp 64 +
STACK CFI INIT a4420 1a0 .cfa: $rsp 8 + .ra: .cfa -8 + ^
STACK CFI a4422 .cfa: $rsp 16 +
STACK CFI a4424 .cfa: $rsp 24 +
STACK CFI a4425 .cfa: $rsp 32 +
STACK CFI a442c $r12: .cfa -24 + ^ $r14: .cfa -16 + ^ $rbx: .cfa -32 + ^ .cfa: $rsp 64 +
STACK CFI INIT a5620 1100 .cfa: $rsp 8 + .ra: .cfa -8 + ^
STACK CFI a5622 .cfa: $rsp 16 +
STACK CFI a5624 .cfa: $rsp 24 +
STACK CFI a5626 .cfa: $rsp 32 +
STACK CFI a5627 .cfa: $rsp 40 +
STACK CFI a5631 $r12: .cfa -32 + ^ $r13: .cfa -24 + ^ $r14: .cfa -16 + ^ $rbx: .cfa -40 + ^ .cfa: $rsp 352 +
STACK CFI INIT a6ba0 460 .cfa: $rsp 8 + .ra: .cfa -8 + ^
STACK CFI a6ba2 .cfa: $rsp 16 +
STACK CFI a6ba4 .cfa: $rsp 24 +
STACK CFI a6ba6 .cfa: $rsp 32 +
STACK CFI a6ba7 .cfa: $rsp 40 +
STACK CFI a6bae $r12: .cfa -32 + ^ $r13: .cfa -24 + ^ $r14: .cfa -16 + ^ $rbx: .cfa -40 + ^ .cfa: $rsp 144 +
STACK CFI INIT a7020 380 .cfa: $rsp 8 + .ra: .cfa -8 + ^
STACK CFI a7022 .cfa: $rsp 16 +
STACK CFI a7024 .cfa: $rsp 24 +
STACK CFI a7026 .cfa: $rsp 32 +
STACK CFI a7027 .cfa: $rsp 40 +
STACK CFI a702e $r12: .cfa -32 + ^ $r13: .cfa -24 + ^ $r14: .cfa -16 + ^ $rbx: .cfa -40 + ^ .cfa: $rsp 80 +
STACK CFI INIT a82e0 580 .cfa: $rsp 8 + .ra: .cfa -8 + ^
STACK CFI a82e2 .cfa: $rsp 16 +
STACK CFI a82e4 .cfa: $rsp 24 +
STACK CFI a82e6 .cfa: $rsp 32 +
STACK CFI a82e7 .cfa: $rsp 40 +
STACK CFI a82f1 $r12: .cfa -32 + ^ $r13: .cfa -24 + ^ $r14: .cfa -16 + ^ $rbx: .cfa -40 + ^ .cfa: $rsp 304 +
STACK CFI INIT a8860 520 .cfa: $rsp 8 + .ra: .cfa -8 + ^
STACK CFI a8862 .cfa: $rsp 16 +
STACK CFI a8864 .cfa: $rsp 24 +
STACK CFI a8866 .cfa: $rsp 32 +
STACK CFI a8867 .cfa: $rsp 40 +
STACK CFI a8871 $r12: .cfa -32 + ^ $r13: .cfa -24 + ^ $r14: .cfa -16 + ^ $rbx: .cfa -40 + ^ .cfa: $rsp 288 +
STACK CFI INIT a8d80 580 .cfa: $rsp 8 + .ra: .cfa -8 + ^
STACK CFI a8d82 .cfa: $rsp 16 +
STACK CFI a8d84 .cfa: $rsp 24 +
STACK CFI a8d86 .cfa: $rsp 32 +
STACK CFI a8d87 .cfa: $rsp 40 +
STACK CFI a8d8e $r12: .cfa -32 + ^ $r13: .cfa -24 + ^ $r14: .cfa -16 + ^ $rbx: .cfa -40 + ^ .cfa: $rsp 112 +
STACK CFI INIT a9300 480 .cfa: $rsp 8 + .ra: .cfa -8 + ^
STACK CFI a9301 .cfa: $rsp 16 +
STACK CFI a9308 $rbx: .cfa -16 + ^ .cfa: $rsp 96 +
STACK CFI INIT ab200 600 .cfa: $rsp 8 + .ra: .cfa -8 + ^
STACK CFI ab202 .cfa: $rsp 16 +
STACK CFI ab204 .cfa: $rsp 24 +
STACK CFI ab206 .cfa: $rsp 32 +
STACK CFI ab207 .cfa: $rsp 40 +
STACK CFI ab211 $r12: .cfa -32 + ^ $r13: .cfa -24 + ^ $r14: .cfa -16 + ^ $rbx: .cfa -40 + ^ .cfa: $rsp 288 +
STACK CFI INIT ab800 520 .cfa: $rsp 8 + .ra: .cfa -8 + ^
STACK CFI ab802 .cfa: $rsp 16 +
STACK CFI ab804 .cfa: $rsp 24 +
STACK CFI ab806 .cfa: $rsp 32 +
STACK CFI ab807 .cfa: $rsp 40 +
STACK CFI ab811 $r12: .cfa -32 + ^ $r13: .cfa -24 + ^ $r14: .cfa -16 + ^ $rbx: .cfa -40 + ^ .cfa: $rsp 224 +
STACK CFI INIT b40a0 b20 .cfa: $rsp 8 + .ra: .cfa -8 + ^
STACK CFI b40a2 .cfa: $rsp 16 +
STACK CFI b40a4 .cfa: $rsp 24 +
STACK CFI b40a6 .cfa: $rsp 32 +
STACK CFI b40a7 .cfa: $rsp 40 +
STACK CFI b40ae $r12: .cfa -32 + ^ $r13: .cfa -24 + ^ $r14: .cfa -16 + ^ $rbx: .cfa -40 + ^ .cfa: $rsp 112 +
STACK CFI INIT b85c0 200 .cfa: $rsp 8 + .ra: .cfa -8 + ^
STACK CFI b85c2 .cfa: $rsp 16 +
STACK CFI b85c3 .cfa: $rsp 24 +
STACK CFI b85ca $r14: .cfa -16 + ^ $rbx: .cfa -24 + ^ .cfa: $rsp 64 +
STACK CFI INIT b8e20 2e0 .cfa: $rsp 8 + .ra: .cfa -8 + ^
STACK CFI b8e22 .cfa: $rsp 16 +
STACK CFI b8e23 .cfa: $rsp 24 +
STACK CFI b8e2a $r14: .cfa -16 + ^ $rbx: .cfa -24 + ^ .cfa: $rsp 80 +
STACK CFI INIT b9160 260 .cfa: $rsp 8 + .ra: .cfa -8 + ^
STACK CFI b9161 .cfa: $rsp 16 +
STACK CFI b9168 $rbx: .cfa -16 + ^ .cfa: $rsp 64 +
STACK CFI INIT ba080 460 .cfa: $rsp 8 + .ra: .cfa -8 + ^
STACK CFI ba082 .cfa: $rsp 16 +
STACK CFI ba084 .cfa: $rsp 24 +
STACK CFI ba086 .cfa: $rsp 32 +
STACK CFI ba087 .cfa: $rsp 40 +
STACK CFI ba091 $r12: .cfa -32 + ^ $r13: .cfa -24 + ^ $r14: .cfa -16 + ^ $rbx: .cfa -40 + ^ .cfa: $rsp 224 +
STACK CFI INIT ba4e0 520 .cfa: $rsp 8 + .ra: .cfa -8 + ^
STACK CFI ba4e2 .cfa: $rsp 16 +
STACK CFI ba4e4 .cfa: $rsp 24 +
STACK CFI ba4e6 .cfa: $rsp 32 +
STACK CFI ba4e7 .cfa: $rsp 40 +
STACK CFI ba4f1 $r12: .cfa -32 + ^ $r13: .cfa -24 + ^ $r14: .cfa -16 + ^ $rbx: .cfa -40 + ^ .cfa: $rsp 224 +
STACK CFI INIT baa20 4c0 .cfa: $rsp 8 + .ra: .cfa -8 + ^
STACK CFI baa22 .cfa: $rsp 16 +
STACK CFI baa24 .cfa: $rsp 24 +
STACK CFI baa26 .cfa: $rsp 32 +
STACK CFI baa27 .cfa: $rsp 40 +
STACK CFI baa31 $r12: .cfa -32 + ^ $r13: .cfa -24 + ^ $r14: .cfa -16 + ^ $rbx: .cfa -40 + ^ .cfa: $rsp 256 +
STACK CFI INIT baee0 1c0 .cfa: $rsp 8 + .ra: .cfa -8 + ^
STACK CFI baee2 .cfa: $rsp 16 +
STACK CFI baee4 .cfa: $rsp 24 +
STACK CFI baee6 .cfa: $rsp 32 +
STACK CFI baee7 .cfa: $rsp 40 +
STACK CFI baeee $r12: .cfa -32 + ^ $r13: .cfa -24 + ^ $r14: .cfa -16 + ^ $rbx: .cfa -40 + ^ .cfa: $rsp 80 +
STACK CFI INIT bb300 3e0 .cfa: $rsp 8 + .ra: .cfa -8 + ^
STACK CFI bb301 .cfa: $rsp 16 +
STACK CFI bb308 $rbx: .cfa -16 + ^ .cfa: $rsp 80 +
STACK CFI INIT bb900 480 .cfa: $rsp 8 + .ra: .cfa -8 + ^
STACK CFI bb902 .cfa: $rsp 16 +
STACK CFI bb903 .cfa: $rsp 24 +
STACK CFI bb90d $r14: .cfa -16 + ^ $rbx: .cfa -24 + ^ .cfa: $rsp 1136 +
STACK CFI INIT bbd80 1b80 .cfa: $rsp 8 + .ra: .cfa -8 + ^
STACK CFI bbd82 .cfa: $rsp 16 +
STACK CFI bbd84 .cfa: $rsp 24 +
STACK CFI bbd86 .cfa: $rsp 32 +
STACK CFI bbd87 .cfa: $rsp 40 +
STACK CFI bbd91 $r12: .cfa -32 + ^ $r13: .cfa -24 + ^ $r14: .cfa -16 + ^ $rbx: .cfa -40 + ^ .cfa: $rsp 800 +
STACK CFI INIT bdbc0 1a0 .cfa: $rsp 8 + .ra: .cfa -8 + ^
STACK CFI bdbc2 .cfa: $rsp 16 +
STACK CFI bdbc4 .cfa: $rsp 24 +
STACK CFI bdbc5 .cfa: $rsp 32 +
STACK CFI bdbcc $r12: .cfa -24 + ^ $r14: .cfa -16 + ^ $rbx: .cfa -32 + ^ .cfa: $rsp 64 +
STACK CFI INIT bdd60 1a0 .cfa: $rsp 8 + .ra: .cfa -8 + ^
STACK CFI bdd62 .cfa: $rsp 16 +
STACK CFI bdd64 .cfa: $rsp 24 +
STACK CFI bdd65 .cfa: $rsp 32 +
STACK CFI bdd6c $r12: .cfa -24 + ^ $r14: .cfa -16 + ^ $rbx: .cfa -32 + ^ .cfa: $rsp 64 +
STACK CFI INIT bdf00 1a0 .cfa: $rsp 8 + .ra: .cfa -8 + ^
STACK CFI bdf02 .cfa: $rsp 16 +
STACK CFI bdf04 .cfa: $rsp 24 +
STACK CFI bdf05 .cfa: $rsp 32 +
STACK CFI bdf0c $r12: .cfa -24 + ^ $r14: .cfa -16 + ^ $rbx: .cfa -32 + ^ .cfa: $rsp 64 +
STACK CFI INIT be0a0 1a0 .cfa: $rsp 8 + .ra: .cfa -8 + ^
STACK CFI be0a2 .cfa: $rsp 16 +
STACK CFI be0a4 .cfa: $rsp 24 +
STACK CFI be0a5 .cfa: $rsp 32 +
STACK CFI be0ac $r12: .cfa -24 + ^ $r14: .cfa -16 + ^ $rbx: .cfa -32 + ^ .cfa: $rsp 64 +
STACK CFI INIT be4c0 5e0 .cfa: $rsp 8 + .ra: .cfa -8 + ^
STACK CFI be4c2 .cfa: $rsp 16 +
STACK CFI be4c4 .cfa: $rsp 24 +
STACK CFI be4c6 .cfa: $rsp 32 +
STACK CFI be4c7 .cfa: $rsp 40 +
STACK CFI be4d1 $r12: .cfa -32 + ^ $r13: .cfa -24 + ^ $r14: .cfa -16 + ^ $rbx: .cfa -40 + ^ .cfa: $rsp 320 +
STACK CFI INIT beaa0 720 .cfa: $rsp 8 + .ra: .cfa -8 + ^
STACK CFI beaa2 .cfa: $rsp 16 +
STACK CFI beaa4 .cfa: $rsp 24 +
STACK CFI beaa6 .cfa: $rsp 32 +
STACK CFI beaa7 .cfa: $rsp 40 +
STACK CFI beab1 $r12: .cfa -32 + ^ $r13: .cfa -24 + ^ $r14: .cfa -16 + ^ $rbx: .cfa -40 + ^ .cfa: $rsp 272 +
STACK CFI INIT bf1c0 460 .cfa: $rsp 8 + .ra: .cfa -8 + ^
STACK CFI bf1c2 .cfa: $rsp 16 +
STACK CFI bf1c4 .cfa: $rsp 24 +
STACK CFI bf1c6 .cfa: $rsp 32 +
STACK CFI bf1c7 .cfa: $rsp 40 +
STACK CFI bf1d1 $r12: .cfa -32 + ^ $r13: .cfa -24 + ^ $r14: .cfa -16 + ^ $rbx: .cfa -40 + ^ .cfa: $rsp 1104 +
STACK CFI INIT bf980 6e0 .cfa: $rsp 8 + .ra: .cfa -8 + ^
STACK CFI bf982 .cfa: $rsp 16 +
STACK CFI bf984 .cfa: $rsp 24 +
STACK CFI bf986 .cfa: $rsp 32 +
STACK CFI bf987 .cfa: $rsp 40 +
STACK CFI bf991 $r12: .cfa -32 + ^ $r13: .cfa -24 + ^ $r14: .cfa -16 + ^ $rbx: .cfa -40 + ^ .cfa: $rsp 640 +
STACK CFI INIT c0740 a00 .cfa: $rsp 8 + .ra: .cfa -8 + ^
STACK CFI c0742 .cfa: $rsp 16 +
STACK CFI c0744 .cfa: $rsp 24 +
STACK CFI c0746 .cfa: $rsp 32 +
STACK CFI c0747 .cfa: $rsp 40 +
STACK CFI c0751 $r12: .cfa -32 + ^ $r13: .cfa -24 + ^ $r14: .cfa -16 + ^ $rbx: .cfa -40 + ^ .cfa: $rsp 19712 +
STACK CFI INIT c3ca0 f20 .cfa: $rsp 8 + .ra: .cfa -8 + ^
STACK CFI c3ca2 .cfa: $rsp 16 +
STACK CFI c3ca4 .cfa: $rsp 24 +
STACK CFI c3ca6 .cfa: $rsp 32 +
STACK CFI c3ca7 .cfa: $rsp 40 +
STACK CFI c3cb1 $r12: .cfa -32 + ^ $r13: .cfa -24 + ^ $r14: .cfa -16 + ^ $rbx: .cfa -40 + ^ .cfa: $rsp 1568 +
STACK CFI INIT c6c40 2280 .cfa: $rsp 8 + .ra: .cfa -8 + ^
STACK CFI c6c42 .cfa: $rsp 16 +
STACK CFI c6c44 .cfa: $rsp 24 +
STACK CFI c6c46 .cfa: $rsp 32 +
STACK CFI c6c47 .cfa: $rsp 40 +
STACK CFI c6c51 $r12: .cfa -32 + ^ $r13: .cfa -24 + ^ $r14: .cfa -16 + ^ $rbx: .cfa -40 + ^ .cfa: $rsp 4576 +
STACK CFI INIT cb920 2c0 .cfa: $rsp 8 + .ra: .cfa -8 + ^
STACK CFI cb922 .cfa: $rsp 16 +
STACK CFI cb924 .cfa: $rsp 24 +
STACK CFI cb925 .cfa: $rsp 32 +
STACK CFI cb92c $r12: .cfa -24 + ^ $r14: .cfa -16 + ^ $rbx: .cfa -32 + ^ .cfa: $rsp 64 +
STACK CFI INIT cc020 2c0 .cfa: $rsp 8 + .ra: .cfa -8 + ^
STACK CFI cc022 .cfa: $rsp 16 +
STACK CFI cc024 .cfa: $rsp 24 +
STACK CFI cc025 .cfa: $rsp 32 +
STACK CFI cc02c $r12: .cfa -24 + ^ $r14: .cfa -16 + ^ $rbx: .cfa -32 + ^ .cfa: $rsp 64 +
STACK CFI INIT cc380 400 .cfa: $rsp 8 + .ra: .cfa -8 + ^
STACK CFI cc382 .cfa: $rsp 16 +
STACK CFI cc384 .cfa: $rsp 24 +
STACK CFI cc385 .cfa: $rsp 32 +
STACK CFI cc38c $r12: .cfa -24 + ^ $r14: .cfa -16 + ^ $rbx: .cfa -32 + ^ .cfa: $rsp 96 +
STACK CFI INIT cca80 280 .cfa: $rsp 8 + .ra: .cfa -8 + ^
STACK CFI cca82 .cfa: $rsp 16 +
STACK CFI cca84 .cfa: $rsp 24 +
STACK CFI cca85 .cfa: $rsp 32 +
STACK CFI cca8c $r12: .cfa -24 + ^ $r14: .cfa -16 + ^ $rbx: .cfa -32 + ^ .cfa: $rsp 64 +
STACK CFI INIT cce80 260 .cfa: $rsp 8 + .ra: .cfa -8 + ^
STACK CFI cce82 .cfa: $rsp 16 +
STACK CFI cce83 .cfa: $rsp 24 +
STACK CFI cce8a $r14: .cfa -16 + ^ $rbx: .cfa -24 + ^ .cfa: $rsp 48 +
STACK CFI INIT cd900 1c0 .cfa: $rsp 8 + .ra: .cfa -8 + ^
STACK CFI cd902 .cfa: $rsp 16 +
STACK CFI cd904 .cfa: $rsp 24 +
STACK CFI cd906 .cfa: $rsp 32 +
STACK CFI cd907 .cfa: $rsp 40 +
STACK CFI cd90e $r12: .cfa -32 + ^ $r13: .cfa -24 + ^ $r14: .cfa -16 + ^ $rbx: .cfa -40 + ^ .cfa: $rsp 80 +
STACK CFI INIT cdac0 d40 .cfa: $rsp 8 + .ra: .cfa -8 + ^
STACK CFI cdac2 .cfa: $rsp 16 +
STACK CFI cdac4 .cfa: $rsp 24 +
STACK CFI cdac6 .cfa: $rsp 32 +
STACK CFI cdac7 .cfa: $rsp 40 +
STACK CFI cdad1 $r12: .cfa -32 + ^ $r13: .cfa -24 + ^ $r14: .cfa -16 + ^ $rbx: .cfa -40 + ^ .cfa: $rsp 368 +
STACK CFI INIT cef20 300 .cfa: $rsp 8 + .ra: .cfa -8 + ^
STACK CFI cef22 .cfa: $rsp 16 +
STACK CFI cef24 .cfa: $rsp 24 +
STACK CFI cef25 .cfa: $rsp 32 +
STACK CFI cef2c $r12: .cfa -24 + ^ $r14: .cfa -16 + ^ $rbx: .cfa -32 + ^ .cfa: $rsp 64 +
STACK CFI INIT d1560 260 .cfa: $rsp 8 + .ra: .cfa -8 + ^
STACK CFI d1562 .cfa: $rsp 16 +
STACK CFI d1564 .cfa: $rsp 24 +
STACK CFI d1565 .cfa: $rsp 32 +
STACK CFI d156c $r12: .cfa -24 + ^ $r14: .cfa -16 + ^ $rbx: .cfa -32 + ^ .cfa: $rsp 80 +
STACK CFI INIT d17c0 680 .cfa: $rsp 8 + .ra: .cfa -8 + ^
STACK CFI d17c2 .cfa: $rsp 16 +
STACK CFI d17c4 .cfa: $rsp 24 +
STACK CFI d17c6 .cfa: $rsp 32 +
STACK CFI d17c7 .cfa: $rsp 40 +
STACK CFI d17ce $r12: .cfa -32 + ^ $r13: .cfa -24 + ^ $r14: .cfa -16 + ^ $rbx: .cfa -40 + ^ .cfa: $rsp 144 +
STACK CFI INIT d1e40 f00 .cfa: $rsp 8 + .ra: .cfa -8 + ^
STACK CFI d1e42 .cfa: $rsp 16 +
STACK CFI d1e44 .cfa: $rsp 24 +
STACK CFI d1e46 .cfa: $rsp 32 +
STACK CFI d1e47 .cfa: $rsp 40 +
STACK CFI d1e51 $r12: .cfa -32 + ^ $r13: .cfa -24 + ^ $r14: .cfa -16 + ^ $rbx: .cfa -40 + ^ .cfa: $rsp 176 +
STACK CFI INIT d2d40 1a0 .cfa: $rsp 8 + .ra: .cfa -8 + ^
STACK CFI d2d42 .cfa: $rsp 16 +
STACK CFI d2d44 .cfa: $rsp 24 +
STACK CFI d2d45 .cfa: $rsp 32 +
STACK CFI d2d4c $r12: .cfa -24 + ^ $r14: .cfa -16 + ^ $rbx: .cfa -32 + ^ .cfa: $rsp 64 +
STACK CFI INIT d2ee0 1c0 .cfa: $rsp 8 + .ra: .cfa -8 + ^
STACK CFI d2ee2 .cfa: $rsp 16 +
STACK CFI d2ee4 .cfa: $rsp 24 +
STACK CFI d2ee6 .cfa: $rsp 32 +
STACK CFI d2ee7 .cfa: $rsp 40 +
STACK CFI d2eee $r12: .cfa -32 + ^ $r13: .cfa -24 + ^ $r14: .cfa -16 + ^ $rbx: .cfa -40 + ^ .cfa: $rsp 80 +
STACK CFI INIT d30a0 460 .cfa: $rsp 8 + .ra: .cfa -8 + ^
STACK CFI d30a2 .cfa: $rsp 16 +
STACK CFI d30a4 .cfa: $rsp 24 +
STACK CFI d30a6 .cfa: $rsp 32 +
STACK CFI d30a7 .cfa: $rsp 40 +
STACK CFI d30b1 $r12: .cfa -32 + ^ $r13: .cfa -24 + ^ $r14: .cfa -16 + ^ $rbx: .cfa -40 + ^ .cfa: $rsp 224 +
STACK CFI INIT d3500 520 .cfa: $rsp 8 + .ra: .cfa -8 + ^
STACK CFI d3502 .cfa: $rsp 16 +
STACK CFI d3504 .cfa: $rsp 24 +
STACK CFI d3506 .cfa: $rsp 32 +
STACK CFI d3507 .cfa: $rsp 40 +
STACK CFI d3511 $r12: .cfa -32 + ^ $r13: .cfa -24 + ^ $r14: .cfa -16 + ^ $rbx: .cfa -40 + ^ .cfa: $rsp 224 +
STACK CFI INIT d3a40 480 .cfa: $rsp 8 + .ra: .cfa -8 + ^
STACK CFI d3a42 .cfa: $rsp 16 +
STACK CFI d3a44 .cfa: $rsp 24 +
STACK CFI d3a46 .cfa: $rsp 32 +
STACK CFI d3a47 .cfa: $rsp 40 +
STACK CFI d3a51 $r12: .cfa -32 + ^ $r13: .cfa -24 + ^ $r14: .cfa -16 + ^ $rbx: .cfa -40 + ^ .cfa: $rsp 240 +
STACK CFI INIT d3f40 2c0 .cfa: $rsp 8 + .ra: .cfa -8 + ^
STACK CFI d3f42 .cfa: $rsp 16 +
STACK CFI d3f44 .cfa: $rsp 24 +
STACK CFI d3f45 .cfa: $rsp 32 +
STACK CFI d3f4c $r12: .cfa -24 + ^ $r14: .cfa -16 + ^ $rbx: .cfa -32 + ^ .cfa: $rsp 64 +
STACK CFI INIT d4c80 3e0 .cfa: $rsp 8 + .ra: .cfa -8 + ^
STACK CFI d4c82 .cfa: $rsp 16 +
STACK CFI d4c84 .cfa: $rsp 24 +
STACK CFI d4c86 .cfa: $rsp 32 +
STACK CFI d4c87 .cfa: $rsp 40 +
STACK CFI d4c8e $r12: .cfa -32 + ^ $r13: .cfa -24 + ^ $r14: .cfa -16 + ^ $rbx: .cfa -40 + ^ .cfa: $rsp 96 +
STACK CFI INIT d5a20 580 .cfa: $rsp 8 + .ra: .cfa -8 + ^
STACK CFI d5a22 .cfa: $rsp 16 +
STACK CFI d5a24 .cfa: $rsp 24 +
STACK CFI d5a26 .cfa: $rsp 32 +
STACK CFI d5a27 .cfa: $rsp 40 +
STACK CFI d5a2e $r12: .cfa -32 + ^ $r13: .cfa -24 + ^ $r14: .cfa -16 + ^ $rbx: .cfa -40 + ^ .cfa: $rsp 144 +
STACK CFI INIT d6760 1a0 .cfa: $rsp 8 + .ra: .cfa -8 + ^
STACK CFI d6762 .cfa: $rsp 16 +
STACK CFI d6764 .cfa: $rsp 24 +
STACK CFI d6765 .cfa: $rsp 32 +
STACK CFI d676c $r12: .cfa -24 + ^ $r14: .cfa -16 + ^ $rbx: .cfa -32 + ^ .cfa: $rsp 64 +
STACK CFI INIT d6900 1a0 .cfa: $rsp 8 + .ra: .cfa -8 + ^
STACK CFI d6902 .cfa: $rsp 16 +
STACK CFI d6904 .cfa: $rsp 24 +
STACK CFI d6905 .cfa: $rsp 32 +
STACK CFI d690c $r12: .cfa -24 + ^ $r14: .cfa -16 + ^ $rbx: .cfa -32 + ^ .cfa: $rsp 64 +
STACK CFI INIT d6aa0 1a0 .cfa: $rsp 8 + .ra: .cfa -8 + ^
STACK CFI d6aa2 .cfa: $rsp 16 +
STACK CFI d6aa4 .cfa: $rsp 24 +
STACK CFI d6aa5 .cfa: $rsp 32 +
STACK CFI d6aac $r12: .cfa -24 + ^ $r14: .cfa -16 + ^ $rbx: .cfa -32 + ^ .cfa: $rsp 64 +
STACK CFI INIT d6c40 1c0 .cfa: $rsp 8 + .ra: .cfa -8 + ^
STACK CFI d6c42 .cfa: $rsp 16 +
STACK CFI d6c44 .cfa: $rsp 24 +
STACK CFI d6c46 .cfa: $rsp 32 +
STACK CFI d6c47 .cfa: $rsp 40 +
STACK CFI d6c4e $r12: .cfa -32 + ^ $r13: .cfa -24 + ^ $r14: .cfa -16 + ^ $rbx: .cfa -40 + ^ .cfa: $rsp 80 +
STACK CFI INIT d8340 9e0 .cfa: $rsp 8 + .ra: .cfa -8 + ^
STACK CFI d8342 .cfa: $rsp 16 +
STACK CFI d8344 .cfa: $rsp 24 +
STACK CFI d8345 .cfa: $rsp 32 +
STACK CFI d834f $r12: .cfa -24 + ^ $r14: .cfa -16 + ^ $rbx: .cfa -32 + ^ .cfa: $rsp 304 +
STACK CFI INIT d9460 2e0 .cfa: $rsp 8 + .ra: .cfa -8 + ^
STACK CFI d9462 .cfa: $rsp 16 +
STACK CFI d9464 .cfa: $rsp 24 +
STACK CFI d9465 .cfa: $rsp 32 +
STACK CFI d946c $r12: .cfa -24 + ^ $r14: .cfa -16 + ^ $rbx: .cfa -32 + ^ .cfa: $rsp 64 +
STACK CFI INIT d9d60 4e0 .cfa: $rsp 8 + .ra: .cfa -8 + ^
STACK CFI d9d62 .cfa: $rsp 16 +
STACK CFI d9d64 .cfa: $rsp 24 +
STACK CFI d9d66 .cfa: $rsp 32 +
STACK CFI d9d67 .cfa: $rsp 40 +
STACK CFI d9d6e $r12: .cfa -32 + ^ $r13: .cfa -24 + ^ $r14: .cfa -16 + ^ $rbx: .cfa -40 + ^ .cfa: $rsp 64 +
STACK CFI INIT da980 2c0 .cfa: $rsp 8 + .ra: .cfa -8 + ^
STACK CFI da982 .cfa: $rsp 16 +
STACK CFI da984 .cfa: $rsp 24 +
STACK CFI da985 .cfa: $rsp 32 +
STACK CFI da98c $r12: .cfa -24 + ^ $r14: .cfa -16 + ^ $rbx: .cfa -32 + ^ .cfa: $rsp 64 +
STACK CFI INIT db5e0 2c0 .cfa: $rsp 8 + .ra: .cfa -8 + ^
STACK CFI db5e2 .cfa: $rsp 16 +
STACK CFI db5e4 .cfa: $rsp 24 +
STACK CFI db5e5 .cfa: $rsp 32 +
STACK CFI db5ec $r12: .cfa -24 + ^ $r14: .cfa -16 + ^ $rbx: .cfa -32 + ^ .cfa: $rsp 64 +
STACK CFI INIT dbe20 300 .cfa: $rsp 8 + .ra: .cfa -8 + ^
STACK CFI dbe22 .cfa: $rsp 16 +
STACK CFI dbe24 .cfa: $rsp 24 +
STACK CFI dbe25 .cfa: $rsp 32 +
STACK CFI dbe2c $r12: .cfa -24 + ^ $r14: .cfa -16 + ^ $rbx: .cfa -32 + ^ .cfa: $rsp 64 +
STACK CFI INIT dcbe0 ca0 .cfa: $rsp 8 + .ra: .cfa -8 + ^
STACK CFI dcbe2 .cfa: $rsp 16 +
STACK CFI dcbe4 .cfa: $rsp 24 +
STACK CFI dcbe6 .cfa: $rsp 32 +
STACK CFI dcbe7 .cfa: $rsp 40 +
STACK CFI dcbf1 $r12: .cfa -32 + ^ $r13: .cfa -24 + ^ $r14: .cfa -16 + ^ $rbx: .cfa -40 + ^ .cfa: $rsp 272 +
STACK CFI INIT dd9a0 2e0 .cfa: $rsp 8 + .ra: .cfa -8 + ^
STACK CFI dd9a2 .cfa: $rsp 16 +
STACK CFI dd9a4 .cfa: $rsp 24 +
STACK CFI dd9a5 .cfa: $rsp 32 +
STACK CFI dd9ac $r12: .cfa -24 + ^ $r14: .cfa -16 + ^ $rbx: .cfa -32 + ^ .cfa: $rsp 64 +
STACK CFI INIT ddc80 120 .cfa: $rsp 8 + .ra: .cfa -8 + ^
STACK CFI ddc82 .cfa: $rsp 16 +
STACK CFI ddc83 .cfa: $rsp 24 +
STACK CFI ddc84 $r14: .cfa -16 + ^ $rbx: .cfa -24 + ^ .cfa: $rsp 32 +
STACK CFI INIT dde40 620 .cfa: $rsp 8 + .ra: .cfa -8 + ^
STACK CFI dde42 .cfa: $rsp 16 +
STACK CFI dde44 .cfa: $rsp 24 +
STACK CFI dde45 .cfa: $rsp 32 +
STACK CFI dde4c $r12: .cfa -24 + ^ $r14: .cfa -16 + ^ $rbx: .cfa -32 + ^ .cfa: $rsp 80 +
STACK CFI INIT ded20 2c0 .cfa: $rsp 8 + .ra: .cfa -8 + ^
STACK CFI ded22 .cfa: $rsp 16 +
STACK CFI ded23 .cfa: $rsp 24 +
STACK CFI ded24 $r14: .cfa -16 + ^ $rbx: .cfa -24 + ^ .cfa: $rsp 32 +
STACK CFI INIT defe0 1a0 .cfa: $rsp 8 + .ra: .cfa -8 + ^
STACK CFI defe2 .cfa: $rsp 16 +
STACK CFI defe4 .cfa: $rsp 24 +
STACK CFI defe5 .cfa: $rsp 32 +
STACK CFI defec $r12: .cfa -24 + ^ $r14: .cfa -16 + ^ $rbx: .cfa -32 + ^ .cfa: $rsp 64 +
STACK CFI INIT df180 1a0 .cfa: $rsp 8 + .ra: .cfa -8 + ^
STACK CFI df182 .cfa: $rsp 16 +
STACK CFI df184 .cfa: $rsp 24 +
STACK CFI df185 .cfa: $rsp 32 +
STACK CFI df18c $r12: .cfa -24 + ^ $r14: .cfa -16 + ^ $rbx: .cfa -32 + ^ .cfa: $rsp 64 +
STACK CFI INIT df320 10c0 .cfa: $rsp 8 + .ra: .cfa -8 + ^
STACK CFI df322 .cfa: $rsp 16 +
STACK CFI df324 .cfa: $rsp 24 +
STACK CFI df326 .cfa: $rsp 32 +
STACK CFI df327 .cfa: $rsp 40 +
STACK CFI df331 $r12: .cfa -32 + ^ $r13: .cfa -24 + ^ $r14: .cfa -16 + ^ $rbx: .cfa -40 + ^ .cfa: $rsp 624 +
STACK CFI INIT e03e0 1780 .cfa: $rsp 8 + .ra: .cfa -8 + ^
STACK CFI e03e2 .cfa: $rsp 16 +
STACK CFI e03e4 .cfa: $rsp 24 +
STACK CFI e03e6 .cfa: $rsp 32 +
STACK CFI e03e7 .cfa: $rsp 40 +
STACK CFI e03f1 $r12: .cfa -32 + ^ $r13: .cfa -24 + ^ $r14: .cfa -16 + ^ $rbx: .cfa -40 + ^ .cfa: $rsp 624 +
STACK CFI INIT e1b60 520 .cfa: $rsp 8 + .ra: .cfa -8 + ^
STACK CFI e1b62 .cfa: $rsp 16 +
STACK CFI e1b64 .cfa: $rsp 24 +
STACK CFI e1b66 .cfa: $rsp 32 +
STACK CFI e1b67 .cfa: $rsp 40 +
STACK CFI e1b71 $r12: .cfa -32 + ^ $r13: .cfa -24 + ^ $r14: .cfa -16 + ^ $rbx: .cfa -40 + ^ .cfa: $rsp 224 +
STACK CFI INIT e2b80 10e0 .cfa: $rsp 8 + .ra: .cfa -8 + ^
STACK CFI e2b82 .cfa: $rsp 16 +
STACK CFI e2b84 .cfa: $rsp 24 +
STACK CFI e2b86 .cfa: $rsp 32 +
STACK CFI e2b87 .cfa: $rsp 40 +
STACK CFI e2b8e $r12: .cfa -32 + ^ $r13: .cfa -24 + ^ $r14: .cfa -16 + ^ $rbx: .cfa -40 + ^ .cfa: $rsp 160 +
STACK CFI INIT e3c60 1c0 .cfa: $rsp 8 + .ra: .cfa -8 + ^
STACK CFI e3c62 .cfa: $rsp 16 +
STACK CFI e3c64 .cfa: $rsp 24 +
STACK CFI e3c66 .cfa: $rsp 32 +
STACK CFI e3c67 .cfa: $rsp 40 +
STACK CFI e3c6e $r12: .cfa -32 + ^ $r13: .cfa -24 + ^ $r14: .cfa -16 + ^ $rbx: .cfa -40 + ^ .cfa: $rsp 80 +
STACK CFI INIT e3e20 7c0 .cfa: $rsp 8 + .ra: .cfa -8 + ^
STACK CFI e3e22 .cfa: $rsp 16 +
STACK CFI e3e24 .cfa: $rsp 24 +
STACK CFI e3e26 .cfa: $rsp 32 +
STACK CFI e3e27 .cfa: $rsp 40 +
STACK CFI e3e2e $r12: .cfa -32 + ^ $r13: .cfa -24 + ^ $r14: .cfa -16 + ^ $rbx: .cfa -40 + ^ .cfa: $rsp 144 +
STACK CFI INIT e4800 540 .cfa: $rsp 8 + .ra: .cfa -8 + ^
STACK CFI e4802 .cfa: $rsp 16 +
STACK CFI e4804 .cfa: $rsp 24 +
STACK CFI e4805 .cfa: $rsp 32 +
STACK CFI e480f $r12: .cfa -24 + ^ $r14: .cfa -16 + ^ $rbx: .cfa -32 + ^ .cfa: $rsp 176 +
STACK CFI INIT e4d40 e0 .cfa: $rsp 8 + .ra: .cfa -8 + ^
STACK CFI e4d42 .cfa: $rsp 16 +
STACK CFI e4d44 .cfa: $rsp 24 +
STACK CFI e4d45 $r12: .cfa -24 + ^ $r14: .cfa -16 + ^ $rbx: .cfa -32 + ^ .cfa: $rsp 32 +
STACK CFI INIT e4e20 1a0 .cfa: $rsp 8 + .ra: .cfa -8 + ^
STACK CFI e4e22 .cfa: $rsp 16 +
STACK CFI e4e24 .cfa: $rsp 24 +
STACK CFI e4e25 .cfa: $rsp 32 +
STACK CFI e4e2c $r12: .cfa -24 + ^ $r14: .cfa -16 + ^ $rbx: .cfa -32 + ^ .cfa: $rsp 64 +
STACK CFI INIT e4fc0 420 .cfa: $rsp 8 + .ra: .cfa -8 + ^
STACK CFI e4fc2 .cfa: $rsp 16 +
STACK CFI e4fc4 .cfa: $rsp 24 +
STACK CFI e4fc5 .cfa: $rsp 32 +
STACK CFI e4fcc $r12: .cfa -24 + ^ $r14: .cfa -16 + ^ $rbx: .cfa -32 + ^ .cfa: $rsp 80 +
STACK CFI INIT e5660 f40 .cfa: $rsp 8 + .ra: .cfa -8 + ^
STACK CFI e5662 .cfa: $rsp 16 +
STACK CFI e5664 .cfa: $rsp 24 +
STACK CFI e5666 .cfa: $rsp 32 +
STACK CFI e5667 .cfa: $rsp 40 +
STACK CFI e5671 $r12: .cfa -32 + ^ $r13: .cfa -24 + ^ $r14: .cfa -16 + ^ $rbx: .cfa -40 + ^ .cfa: $rsp 448 +
STACK CFI INIT e6740 1a0 .cfa: $rsp 8 + .ra: .cfa -8 + ^
STACK CFI e6742 .cfa: $rsp 16 +
STACK CFI e6744 .cfa: $rsp 24 +
STACK CFI e6745 .cfa: $rsp 32 +
STACK CFI e674c $r12: .cfa -24 + ^ $r14: .cfa -16 + ^ $rbx: .cfa -32 + ^ .cfa: $rsp 64 +
STACK CFI INIT e68e0 1a0 .cfa: $rsp 8 + .ra: .cfa -8 + ^
STACK CFI e68e2 .cfa: $rsp 16 +
STACK CFI e68e4 .cfa: $rsp 24 +
STACK CFI e68e5 .cfa: $rsp 32 +
STACK CFI e68ec $r12: .cfa -24 + ^ $r14: .cfa -16 + ^ $rbx: .cfa -32 + ^ .cfa: $rsp 64 +
STACK CFI INIT e7300 460 .cfa: $rsp 8 + .ra: .cfa -8 + ^
STACK CFI e7302 .cfa: $rsp 16 +
STACK CFI e7304 .cfa: $rsp 24 +
STACK CFI e7306 .cfa: $rsp 32 +
STACK CFI e7307 .cfa: $rsp 40 +
STACK CFI e7311 $r12: .cfa -32 + ^ $r13: .cfa -24 + ^ $r14: .cfa -16 + ^ $rbx: .cfa -40 + ^ .cfa: $rsp 224 +
STACK CFI INIT e7760 6e0 .cfa: $rsp 8 + .ra: .cfa -8 + ^
STACK CFI e7762 .cfa: $rsp 16 +
STACK CFI e7764 .cfa: $rsp 24 +
STACK CFI e7766 .cfa: $rsp 32 +
STACK CFI e7767 .cfa: $rsp 40 +
STACK CFI e7771 $r12: .cfa -32 + ^ $r13: .cfa -24 + ^ $r14: .cfa -16 + ^ $rbx: .cfa -40 + ^ .cfa: $rsp 224 +
STACK CFI INIT e7ee0 520 .cfa: $rsp 8 + .ra: .cfa -8 + ^
STACK CFI e7ee2 .cfa: $rsp 16 +
STACK CFI e7ee4 .cfa: $rsp 24 +
STACK CFI e7ee6 .cfa: $rsp 32 +
STACK CFI e7ee7 .cfa: $rsp 40 +
STACK CFI e7ef1 $r12: .cfa -32 + ^ $r13: .cfa -24 + ^ $r14: .cfa -16 + ^ $rbx: .cfa -40 + ^ .cfa: $rsp 224 +
STACK CFI INIT f4920 280 .cfa: $rsp 8 + .ra: .cfa -8 + ^
STACK CFI f4922 .cfa: $rsp 16 +
STACK CFI f4924 .cfa: $rsp 24 +
STACK CFI f4925 .cfa: $rsp 32 +
STACK CFI f492c $r12: .cfa -24 + ^ $r14: .cfa -16 + ^ $rbx: .cfa -32 + ^ .cfa: $rsp 80 +
STACK CFI INIT f4de0 400 .cfa: $rsp 8 + .ra: .cfa -8 + ^
STACK CFI f4de2 .cfa: $rsp 16 +
STACK CFI f4de4 .cfa: $rsp 24 +
STACK CFI f4de5 .cfa: $rsp 32 +
STACK CFI f4dec $r12: .cfa -24 + ^ $r14: .cfa -16 + ^ $rbx: .cfa -32 + ^ .cfa: $rsp 96 +
STACK CFI INIT f5a80 480 .cfa: $rsp 8 + .ra: .cfa -8 + ^
STACK CFI f5a82 .cfa: $rsp 16 +
STACK CFI f5a84 .cfa: $rsp 24 +
STACK CFI f5a86 .cfa: $rsp 32 +
STACK CFI f5a87 .cfa: $rsp 40 +
STACK CFI f5a91 $r12: .cfa -32 + ^ $r13: .cfa -24 + ^ $r14: .cfa -16 + ^ $rbx: .cfa -40 + ^ .cfa: $rsp 240 +
STACK CFI INIT f6c20 1a0 .cfa: $rsp 8 + .ra: .cfa -8 + ^
STACK CFI f6c22 .cfa: $rsp 16 +
STACK CFI f6c24 .cfa: $rsp 24 +
STACK CFI f6c25 .cfa: $rsp 32 +
STACK CFI f6c2c $r12: .cfa -24 + ^ $r14: .cfa -16 + ^ $rbx: .cfa -32 + ^ .cfa: $rsp 64 +
STACK CFI INIT fb0c0 520 .cfa: $rsp 8 + .ra: .cfa -8 + ^
STACK CFI fb0c2 .cfa: $rsp 16 +
STACK CFI fb0c4 .cfa: $rsp 24 +
STACK CFI fb0c6 .cfa: $rsp 32 +
STACK CFI fb0c7 .cfa: $rsp 40 +
STACK CFI fb0d1 $r12: .cfa -32 + ^ $r13: .cfa -24 + ^ $r14: .cfa -16 + ^ $rbx: .cfa -40 + ^ .cfa: $rsp 256 +
STACK CFI INIT fb5e0 560 .cfa: $rsp 8 + .ra: .cfa -8 + ^
STACK CFI fb5e2 .cfa: $rsp 16 +
STACK CFI fb5e4 .cfa: $rsp 24 +
STACK CFI fb5e6 .cfa: $rsp 32 +
STACK CFI fb5e7 .cfa: $rsp 40 +
STACK CFI fb5f1 $r12: .cfa -32 + ^ $r13: .cfa -24 + ^ $r14: .cfa -16 + ^ $rbx: .cfa -40 + ^ .cfa: $rsp 288 +
STACK CFI INIT fbb40 460 .cfa: $rsp 8 + .ra: .cfa -8 + ^
STACK CFI fbb42 .cfa: $rsp 16 +
STACK CFI fbb44 .cfa: $rsp 24 +
STACK CFI fbb46 .cfa: $rsp 32 +
STACK CFI fbb47 .cfa: $rsp 40 +
STACK CFI fbb51 $r12: .cfa -32 + ^ $r13: .cfa -24 + ^ $r14: .cfa -16 + ^ $rbx: .cfa -40 + ^ .cfa: $rsp 224 +
STACK CFI INIT fbfa0 5e0 .cfa: $rsp 8 + .ra: .cfa -8 + ^
STACK CFI fbfa2 .cfa: $rsp 16 +
STACK CFI fbfa4 .cfa: $rsp 24 +
STACK CFI fbfa6 .cfa: $rsp 32 +
STACK CFI fbfa7 .cfa: $rsp 40 +
STACK CFI fbfb1 $r12: .cfa -32 + ^ $r13: .cfa -24 + ^ $r14: .cfa -16 + ^ $rbx: .cfa -40 + ^ .cfa: $rsp 336 +
STACK CFI INIT 102660 1440 .cfa: $rsp 8 + .ra: .cfa -8 + ^
STACK CFI 102662 .cfa: $rsp 16 +
STACK CFI 102664 .cfa: $rsp 24 +
STACK CFI 102666 .cfa: $rsp 32 +
STACK CFI 102667 .cfa: $rsp 40 +
STACK CFI 102671 $r12: .cfa -32 + ^ $r13: .cfa -24 + ^ $r14: .cfa -16 + ^ $rbx: .cfa -40 + ^ .cfa: $rsp 304 +
STACK CFI INIT 103aa0 17c0 .cfa: $rsp 8 + .ra: .cfa -8 + ^
STACK CFI 103aa2 .cfa: $rsp 16 +
STACK CFI 103aa3 .cfa: $rsp 24 +
STACK CFI 103aad $r14: .cfa -16 + ^ $rbx: .cfa -24 + ^ .cfa: $rsp 240 +
STACK CFI INIT 105260 5e0 .cfa: $rsp 8 + .ra: .cfa -8 + ^
STACK CFI 105262 .cfa: $rsp 16 +
STACK CFI 105264 .cfa: $rsp 24 +
STACK CFI 105266 .cfa: $rsp 32 +
STACK CFI 105267 .cfa: $rsp 40 +
STACK CFI 10526e $r12: .cfa -32 + ^ $r13: .cfa -24 + ^ $r14: .cfa -16 + ^ $rbx: .cfa -40 + ^ .cfa: $rsp 144 +
STACK CFI INIT 1083e0 4c0 .cfa: $rsp 8 + .ra: .cfa -8 + ^
STACK CFI 1083e2 .cfa: $rsp 16 +
STACK CFI 1083e4 .cfa: $rsp 24 +
STACK CFI 1083e6 .cfa: $rsp 32 +
STACK CFI 1083e7 .cfa: $rsp 40 +
STACK CFI 1083f1 $r12: .cfa -32 + ^ $r13: .cfa -24 + ^ $r14: .cfa -16 + ^ $rbx: .cfa -40 + ^ .cfa: $rsp 256 +
STACK CFI INIT 1089e0 460 .cfa: $rsp 8 + .ra: .cfa -8 + ^
STACK CFI 1089e2 .cfa: $rsp 16 +
STACK CFI 1089e4 .cfa: $rsp 24 +
STACK CFI 1089e6 .cfa: $rsp 32 +
STACK CFI 1089e7 .cfa: $rsp 40 +
STACK CFI 1089f1 $r12: .cfa -32 + ^ $r13: .cfa -24 + ^ $r14: .cfa -16 + ^ $rbx: .cfa -40 + ^ .cfa: $rsp 224 +
STACK CFI INIT 109440 180 .cfa: $rsp 8 + .ra: .cfa -8 + ^
STACK CFI 109442 .cfa: $rsp 16 +
STACK CFI 109444 .cfa: $rsp 24 +
STACK CFI 109445 .cfa: $rsp 32 +
STACK CFI 10944c $r12: .cfa -24 + ^ $r14: .cfa -16 + ^ $rbx: .cfa -32 + ^ .cfa: $rsp 80 +
STACK CFI INIT 109680 180 .cfa: $rsp 8 + .ra: .cfa -8 + ^
STACK CFI 109682 .cfa: $rsp 16 +
STACK CFI 109684 .cfa: $rsp 24 +
STACK CFI 109685 .cfa: $rsp 32 +
STACK CFI 10968c $r12: .cfa -24 + ^ $r14: .cfa -16 + ^ $rbx: .cfa -32 + ^ .cfa: $rsp 80 +
STACK CFI INIT 1098c0 180 .cfa: $rsp 8 + .ra: .cfa -8 + ^
STACK CFI 1098c2 .cfa: $rsp 16 +
STACK CFI 1098c4 .cfa: $rsp 24 +
STACK CFI 1098c5 .cfa: $rsp 32 +
STACK CFI 1098cc $r12: .cfa -24 + ^ $r14: .cfa -16 + ^ $rbx: .cfa -32 + ^ .cfa: $rsp 80 +
STACK CFI INIT 109b00 180 .cfa: $rsp 8 + .ra: .cfa -8 + ^
STACK CFI 109b02 .cfa: $rsp 16 +
STACK CFI 109b04 .cfa: $rsp 24 +
STACK CFI 109b05 .cfa: $rsp 32 +
STACK CFI 109b0c $r12: .cfa -24 + ^ $r14: .cfa -16 + ^ $rbx: .cfa -32 + ^ .cfa: $rsp 80 +
STACK CFI INIT 109d40 180 .cfa: $rsp 8 + .ra: .cfa -8 + ^
STACK CFI 109d42 .cfa: $rsp 16 +
STACK CFI 109d44 .cfa: $rsp 24 +
STACK CFI 109d45 .cfa: $rsp 32 +
STACK CFI 109d4c $r12: .cfa -24 + ^ $r14: .cfa -16 + ^ $rbx: .cfa -32 + ^ .cfa: $rsp 80 +
STACK CFI INIT 109f80 180 .cfa: $rsp 8 + .ra: .cfa -8 + ^
STACK CFI 109f82 .cfa: $rsp 16 +
STACK CFI 109f84 .cfa: $rsp 24 +
STACK CFI 109f85 .cfa: $rsp 32 +
STACK CFI 109f8c $r12: .cfa -24 + ^ $r14: .cfa -16 + ^ $rbx: .cfa -32 + ^ .cfa: $rsp 80 +
STACK CFI INIT 10a1c0 180 .cfa: $rsp 8 + .ra: .cfa -8 + ^
STACK CFI 10a1c2 .cfa: $rsp 16 +
STACK CFI 10a1c4 .cfa: $rsp 24 +
STACK CFI 10a1c5 .cfa: $rsp 32 +
STACK CFI 10a1cc $r12: .cfa -24 + ^ $r14: .cfa -16 + ^ $rbx: .cfa -32 + ^ .cfa: $rsp 80 +
STACK CFI INIT 10a400 180 .cfa: $rsp 8 + .ra: .cfa -8 + ^
STACK CFI 10a402 .cfa: $rsp 16 +
STACK CFI 10a404 .cfa: $rsp 24 +
STACK CFI 10a405 .cfa: $rsp 32 +
STACK CFI 10a40c $r12: .cfa -24 + ^ $r14: .cfa -16 + ^ $rbx: .cfa -32 + ^ .cfa: $rsp 80 +
STACK CFI INIT 10a640 180 .cfa: $rsp 8 + .ra: .cfa -8 + ^
STACK CFI 10a642 .cfa: $rsp 16 +
STACK CFI 10a644 .cfa: $rsp 24 +
STACK CFI 10a645 .cfa: $rsp 32 +
STACK CFI 10a64c $r12: .cfa -24 + ^ $r14: .cfa -16 + ^ $rbx: .cfa -32 + ^ .cfa: $rsp 80 +
STACK CFI INIT 10a880 180 .cfa: $rsp 8 + .ra: .cfa -8 + ^
STACK CFI 10a882 .cfa: $rsp 16 +
STACK CFI 10a884 .cfa: $rsp 24 +
STACK CFI 10a885 .cfa: $rsp 32 +
STACK CFI 10a88c $r12: .cfa -24 + ^ $r14: .cfa -16 + ^ $rbx: .cfa -32 + ^ .cfa: $rsp 80 +
STACK CFI INIT 10aac0 180 .cfa: $rsp 8 + .ra: .cfa -8 + ^
STACK CFI 10aac2 .cfa: $rsp 16 +
STACK CFI 10aac4 .cfa: $rsp 24 +
STACK CFI 10aac5 .cfa: $rsp 32 +
STACK CFI 10aacc $r12: .cfa -24 + ^ $r14: .cfa -16 + ^ $rbx: .cfa -32 + ^ .cfa: $rsp 80 +
STACK CFI INIT 10ad00 180 .cfa: $rsp 8 + .ra: .cfa -8 + ^
STACK CFI 10ad02 .cfa: $rsp 16 +
STACK CFI 10ad04 .cfa: $rsp 24 +
STACK CFI 10ad05 .cfa: $rsp 32 +
STACK CFI 10ad0c $r12: .cfa -24 + ^ $r14: .cfa -16 + ^ $rbx: .cfa -32 + ^ .cfa: $rsp 80 +
STACK CFI INIT 10af40 180 .cfa: $rsp 8 + .ra: .cfa -8 + ^
STACK CFI 10af42 .cfa: $rsp 16 +
STACK CFI 10af44 .cfa: $rsp 24 +
STACK CFI 10af45 .cfa: $rsp 32 +
STACK CFI 10af4c $r12: .cfa -24 + ^ $r14: .cfa -16 + ^ $rbx: .cfa -32 + ^ .cfa: $rsp 80 +
STACK CFI INIT 10bd80 460 .cfa: $rsp 8 + .ra: .cfa -8 + ^
STACK CFI 10bd82 .cfa: $rsp 16 +
STACK CFI 10bd84 .cfa: $rsp 24 +
STACK CFI 10bd85 .cfa: $rsp 32 +
STACK CFI 10bd8c $r12: .cfa -24 + ^ $r14: .cfa -16 + ^ $rbx: .cfa -32 + ^ .cfa: $rsp 96 +
STACK CFI INIT 10c6c0 540 .cfa: $rsp 8 + .ra: .cfa -8 + ^
STACK CFI 10c6c2 .cfa: $rsp 16 +
STACK CFI 10c6c4 .cfa: $rsp 24 +
STACK CFI 10c6c6 .cfa: $rsp 32 +
STACK CFI 10c6c7 .cfa: $rsp 40 +
STACK CFI 10c6ce $r12: .cfa -32 + ^ $r13: .cfa -24 + ^ $r14: .cfa -16 + ^ $rbx: .cfa -40 + ^ .cfa: $rsp 64 +
STACK CFI INIT 10cc60 180 .cfa: $rsp 8 + .ra: .cfa -8 + ^
STACK CFI 10cc62 .cfa: $rsp 16 +
STACK CFI 10cc63 .cfa: $rsp 24 +
STACK CFI 10cc6a $r14: .cfa -16 + ^ $rbx: .cfa -24 + ^ .cfa: $rsp 64 +
STACK CFI INIT 10cfc0 200 .cfa: $rsp 8 + .ra: .cfa -8 + ^
STACK CFI 10cfc2 .cfa: $rsp 16 +
STACK CFI 10cfc3 .cfa: $rsp 24 +
STACK CFI 10cfca $r14: .cfa -16 + ^ $rbx: .cfa -24 + ^ .cfa: $rsp 64 +
STACK CFI INIT 10df80 160 .cfa: $rsp 8 + .ra: .cfa -8 + ^
STACK CFI 10df82 .cfa: $rsp 16 +
STACK CFI 10df83 .cfa: $rsp 24 +
STACK CFI 10df8a $r14: .cfa -16 + ^ $rbx: .cfa -24 + ^ .cfa: $rsp 64 +
STACK CFI INIT 10ebc0 200 .cfa: $rsp 8 + .ra: .cfa -8 + ^
STACK CFI 10ebc2 .cfa: $rsp 16 +
STACK CFI 10ebc4 .cfa: $rsp 24 +
STACK CFI 10ebc6 .cfa: $rsp 32 +
STACK CFI 10ebc7 .cfa: $rsp 40 +
STACK CFI 10ebc8 $r12: .cfa -32 + ^ $r13: .cfa -24 + ^ $r14: .cfa -16 + ^ $rbx: .cfa -40 + ^ .cfa: $rsp 48 +
STACK CFI INIT 114820 1200 .cfa: $rsp 8 + .ra: .cfa -8 + ^
STACK CFI 114822 .cfa: $rsp 16 +
STACK CFI 114824 .cfa: $rsp 24 +
STACK CFI 114826 .cfa: $rsp 32 +
STACK CFI 114827 .cfa: $rsp 40 +
STACK CFI 114831 $r12: .cfa -32 + ^ $r13: .cfa -24 + ^ $r14: .cfa -16 + ^ $rbx: .cfa -40 + ^ .cfa: $rsp 608 +
STACK CFI INIT 115a20 be0 .cfa: $rsp 8 + .ra: .cfa -8 + ^
STACK CFI 115a22 .cfa: $rsp 16 +
STACK CFI 115a24 .cfa: $rsp 24 +
STACK CFI 115a26 .cfa: $rsp 32 +
STACK CFI 115a27 .cfa: $rsp 40 +
STACK CFI 115a31 $r12: .cfa -32 + ^ $r13: .cfa -24 + ^ $r14: .cfa -16 + ^ $rbx: .cfa -40 + ^ .cfa: $rsp 448 +
STACK CFI INIT 116600 780 .cfa: $rsp 8 + .ra: .cfa -8 + ^
STACK CFI 116602 .cfa: $rsp 16 +
STACK CFI 116604 .cfa: $rsp 24 +
STACK CFI 116606 .cfa: $rsp 32 +
STACK CFI 116607 .cfa: $rsp 40 +
STACK CFI 116611 $r12: .cfa -32 + ^ $r13: .cfa -24 + ^ $r14: .cfa -16 + ^ $rbx: .cfa -40 + ^ .cfa: $rsp 272 +
STACK CFI INIT 116d80 d00 .cfa: $rsp 8 + .ra: .cfa -8 + ^
STACK CFI 116d82 .cfa: $rsp 16 +
STACK CFI 116d84 .cfa: $rsp 24 +
STACK CFI 116d86 .cfa: $rsp 32 +
STACK CFI 116d87 .cfa: $rsp 40 +
STACK CFI 116d91 $r12: .cfa -32 + ^ $r13: .cfa -24 + ^ $r14: .cfa -16 + ^ $rbx: .cfa -40 + ^ .cfa: $rsp 448 +
STACK CFI INIT 117a80 860 .cfa: $rsp 8 + .ra: .cfa -8 + ^
STACK CFI 117a82 .cfa: $rsp 16 +
STACK CFI 117a84 .cfa: $rsp 24 +
STACK CFI 117a86 .cfa: $rsp 32 +
STACK CFI 117a87 .cfa: $rsp 40 +
STACK CFI 117a91 $r12: .cfa -32 + ^ $r13: .cfa -24 + ^ $r14: .cfa -16 + ^ $rbx: .cfa -40 + ^ .cfa: $rsp 304 +
STACK CFI INIT 1182e0 780 .cfa: $rsp 8 + .ra: .cfa -8 + ^
STACK CFI 1182e2 .cfa: $rsp 16 +
STACK CFI 1182e4 .cfa: $rsp 24 +
STACK CFI 1182e6 .cfa: $rsp 32 +
STACK CFI 1182e7 .cfa: $rsp 40 +
STACK CFI 1182f1 $r12: .cfa -32 + ^ $r13: .cfa -24 + ^ $r14: .cfa -16 + ^ $rbx: .cfa -40 + ^ .cfa: $rsp 272 +
STACK CFI INIT 118a60 120 .cfa: $rsp 8 + .ra: .cfa -8 + ^
STACK CFI 118a62 .cfa: $rsp 16 +
STACK CFI 118a63 .cfa: $rsp 24 +
STACK CFI 118a6a $r14: .cfa -16 + ^ $rbx: .cfa -24 + ^ .cfa: $rsp 48 +
STACK CFI INIT 118b80 800 .cfa: $rsp 8 + .ra: .cfa -8 + ^
STACK CFI 118b82 .cfa: $rsp 16 +
STACK CFI 118b84 .cfa: $rsp 24 +
STACK CFI 118b86 .cfa: $rsp 32 +
STACK CFI 118b87 .cfa: $rsp 40 +
STACK CFI 118b91 $r12: .cfa -32 + ^ $r13: .cfa -24 + ^ $r14: .cfa -16 + ^ $rbx: .cfa -40 + ^ .cfa: $rsp 288 +
STACK CFI INIT 119380 740 .cfa: $rsp 8 + .ra: .cfa -8 + ^
STACK CFI 119382 .cfa: $rsp 16 +
STACK CFI 119383 .cfa: $rsp 24 +
STACK CFI 11938d $r14: .cfa -16 + ^ $rbx: .cfa -24 + ^ .cfa: $rsp 288 +
STACK CFI INIT 119ac0 260 .cfa: $rsp 8 + .ra: .cfa -8 + ^
STACK CFI 119ac1 .cfa: $rsp 16 +
STACK CFI 119ac8 $rbx: .cfa -16 + ^ .cfa: $rsp 80 +
STACK CFI INIT 119d20 460 .cfa: $rsp 8 + .ra: .cfa -8 + ^
STACK CFI 119d22 .cfa: $rsp 16 +
STACK CFI 119d24 .cfa: $rsp 24 +
STACK CFI 119d26 .cfa: $rsp 32 +
STACK CFI 119d27 .cfa: $rsp 40 +
STACK CFI 119d31 $r12: .cfa -32 + ^ $r13: .cfa -24 + ^ $r14: .cfa -16 + ^ $rbx: .cfa -40 + ^ .cfa: $rsp 224 +
STACK CFI INIT 11a180 520 .cfa: $rsp 8 + .ra: .cfa -8 + ^
STACK CFI 11a182 .cfa: $rsp 16 +
STACK CFI 11a184 .cfa: $rsp 24 +
STACK CFI 11a186 .cfa: $rsp 32 +
STACK CFI 11a187 .cfa: $rsp 40 +
STACK CFI 11a191 $r12: .cfa -32 + ^ $r13: .cfa -24 + ^ $r14: .cfa -16 + ^ $rbx: .cfa -40 + ^ .cfa: $rsp 224 +
STACK CFI INIT 11a6c0 520 .cfa: $rsp 8 + .ra: .cfa -8 + ^
STACK CFI 11a6c2 .cfa: $rsp 16 +
STACK CFI 11a6c4 .cfa: $rsp 24 +
STACK CFI 11a6c6 .cfa: $rsp 32 +
STACK CFI 11a6c7 .cfa: $rsp 40 +
STACK CFI 11a6d1 $r12: .cfa -32 + ^ $r13: .cfa -24 + ^ $r14: .cfa -16 + ^ $rbx: .cfa -40 + ^ .cfa: $rsp 224 +
STACK CFI INIT 11ac00 660 .cfa: $rsp 8 + .ra: .cfa -8 + ^
STACK CFI 11ac02 .cfa: $rsp 16 +
STACK CFI 11ac04 .cfa: $rsp 24 +
STACK CFI 11ac06 .cfa: $rsp 32 +
STACK CFI 11ac07 .cfa: $rsp 40 +
STACK CFI 11ac11 $r12: .cfa -32 + ^ $r13: .cfa -24 + ^ $r14: .cfa -16 + ^ $rbx: .cfa -40 + ^ .cfa: $rsp 256 +
STACK CFI INIT 11b260 1a0 .cfa: $rsp 8 + .ra: .cfa -8 + ^
STACK CFI 11b261 .cfa: $rsp 16 +
STACK CFI 11b268 $rbx: .cfa -16 + ^ .cfa: $rsp 48 +
STACK CFI INIT 11b400 460 .cfa: $rsp 8 + .ra: .cfa -8 + ^
STACK CFI 11b402 .cfa: $rsp 16 +
STACK CFI 11b404 .cfa: $rsp 24 +
STACK CFI 11b406 .cfa: $rsp 32 +
STACK CFI 11b407 .cfa: $rsp 40 +
STACK CFI 11b411 $r12: .cfa -32 + ^ $r13: .cfa -24 + ^ $r14: .cfa -16 + ^ $rbx: .cfa -40 + ^ .cfa: $rsp 224 +
STACK CFI INIT 11b860 520 .cfa: $rsp 8 + .ra: .cfa -8 + ^
STACK CFI 11b862 .cfa: $rsp 16 +
STACK CFI 11b864 .cfa: $rsp 24 +
STACK CFI 11b866 .cfa: $rsp 32 +
STACK CFI 11b867 .cfa: $rsp 40 +
STACK CFI 11b871 $r12: .cfa -32 + ^ $r13: .cfa -24 + ^ $r14: .cfa -16 + ^ $rbx: .cfa -40 + ^ .cfa: $rsp 224 +
STACK CFI INIT 11bda0 520 .cfa: $rsp 8 + .ra: .cfa -8 + ^
STACK CFI 11bda2 .cfa: $rsp 16 +
STACK CFI 11bda4 .cfa: $rsp 24 +
STACK CFI 11bda6 .cfa: $rsp 32 +
STACK CFI 11bda7 .cfa: $rsp 40 +
STACK CFI 11bdb1 $r12: .cfa -32 + ^ $r13: .cfa -24 + ^ $r14: .cfa -16 + ^ $rbx: .cfa -40 + ^ .cfa: $rsp 224 +
STACK CFI INIT 11c2e0 520 .cfa: $rsp 8 + .ra: .cfa -8 + ^
STACK CFI 11c2e2 .cfa: $rsp 16 +
STACK CFI 11c2e4 .cfa: $rsp 24 +
STACK CFI 11c2e6 .cfa: $rsp 32 +
STACK CFI 11c2e7 .cfa: $rsp 40 +
STACK CFI 11c2f1 $r12: .cfa -32 + ^ $r13: .cfa -24 + ^ $r14: .cfa -16 + ^ $rbx: .cfa -40 + ^ .cfa: $rsp 224 +
STACK CFI INIT 11c820 520 .cfa: $rsp 8 + .ra: .cfa -8 + ^
STACK CFI 11c822 .cfa: $rsp 16 +
STACK CFI 11c824 .cfa: $rsp 24 +
STACK CFI 11c826 .cfa: $rsp 32 +
STACK CFI 11c827 .cfa: $rsp 40 +
STACK CFI 11c831 $r12: .cfa -32 + ^ $r13: .cfa -24 + ^ $r14: .cfa -16 + ^ $rbx: .cfa -40 + ^ .cfa: $rsp 224 +
STACK CFI INIT 11cd60 680 .cfa: $rsp 8 + .ra: .cfa -8 + ^
STACK CFI 11cd62 .cfa: $rsp 16 +
STACK CFI 11cd64 .cfa: $rsp 24 +
STACK CFI 11cd66 .cfa: $rsp 32 +
STACK CFI 11cd67 .cfa: $rsp 40 +
STACK CFI 11cd71 $r12: .cfa -32 + ^ $r13: .cfa -24 + ^ $r14: .cfa -16 + ^ $rbx: .cfa -40 + ^ .cfa: $rsp 256 +
STACK CFI INIT 11d3e0 460 .cfa: $rsp 8 + .ra: .cfa -8 + ^
STACK CFI 11d3e2 .cfa: $rsp 16 +
STACK CFI 11d3e4 .cfa: $rsp 24 +
STACK CFI 11d3e6 .cfa: $rsp 32 +
STACK CFI 11d3e7 .cfa: $rsp 40 +
STACK CFI 11d3f1 $r12: .cfa -32 + ^ $r13: .cfa -24 + ^ $r14: .cfa -16 + ^ $rbx: .cfa -40 + ^ .cfa: $rsp 224 +
STACK CFI INIT 11d840 520 .cfa: $rsp 8 + .ra: .cfa -8 + ^
STACK CFI 11d842 .cfa: $rsp 16 +
STACK CFI 11d844 .cfa: $rsp 24 +
STACK CFI 11d846 .cfa: $rsp 32 +
STACK CFI 11d847 .cfa: $rsp 40 +
STACK CFI 11d851 $r12: .cfa -32 + ^ $r13: .cfa -24 + ^ $r14: .cfa -16 + ^ $rbx: .cfa -40 + ^ .cfa: $rsp 224 +
STACK CFI INIT 11dd80 520 .cfa: $rsp 8 + .ra: .cfa -8 + ^
STACK CFI 11dd82 .cfa: $rsp 16 +
STACK CFI 11dd84 .cfa: $rsp 24 +
STACK CFI 11dd86 .cfa: $rsp 32 +
STACK CFI 11dd87 .cfa: $rsp 40 +
STACK CFI 11dd91 $r12: .cfa -32 + ^ $r13: .cfa -24 + ^ $r14: .cfa -16 + ^ $rbx: .cfa -40 + ^ .cfa: $rsp 224 +
STACK CFI INIT 11e2c0 2e0 .cfa: $rsp 8 + .ra: .cfa -8 + ^
STACK CFI 11e2c2 .cfa: $rsp 16 +
STACK CFI 11e2c3 .cfa: $rsp 24 +
STACK CFI 11e2ca $r14: .cfa -16 + ^ $rbx: .cfa -24 + ^ .cfa: $rsp 96 +
STACK CFI INIT 11e5a0 460 .cfa: $rsp 8 + .ra: .cfa -8 + ^
STACK CFI 11e5a2 .cfa: $rsp 16 +
STACK CFI 11e5a4 .cfa: $rsp 24 +
STACK CFI 11e5a6 .cfa: $rsp 32 +
STACK CFI 11e5a7 .cfa: $rsp 40 +
STACK CFI 11e5b1 $r12: .cfa -32 + ^ $r13: .cfa -24 + ^ $r14: .cfa -16 + ^ $rbx: .cfa -40 + ^ .cfa: $rsp 224 +
STACK CFI INIT 11ea00 520 .cfa: $rsp 8 + .ra: .cfa -8 + ^
STACK CFI 11ea02 .cfa: $rsp 16 +
STACK CFI 11ea04 .cfa: $rsp 24 +
STACK CFI 11ea06 .cfa: $rsp 32 +
STACK CFI 11ea07 .cfa: $rsp 40 +
STACK CFI 11ea11 $r12: .cfa -32 + ^ $r13: .cfa -24 + ^ $r14: .cfa -16 + ^ $rbx: .cfa -40 + ^ .cfa: $rsp 224 +
STACK CFI INIT 11ef40 260 .cfa: $rsp 8 + .ra: .cfa -8 + ^
STACK CFI 11ef41 .cfa: $rsp 16 +
STACK CFI 11ef48 $rbx: .cfa -16 + ^ .cfa: $rsp 80 +
STACK CFI INIT 11f1a0 460 .cfa: $rsp 8 + .ra: .cfa -8 + ^
STACK CFI 11f1a2 .cfa: $rsp 16 +
STACK CFI 11f1a4 .cfa: $rsp 24 +
STACK CFI 11f1a6 .cfa: $rsp 32 +
STACK CFI 11f1a7 .cfa: $rsp 40 +
STACK CFI 11f1b1 $r12: .cfa -32 + ^ $r13: .cfa -24 + ^ $r14: .cfa -16 + ^ $rbx: .cfa -40 + ^ .cfa: $rsp 224 +
STACK CFI INIT 11f600 520 .cfa: $rsp 8 + .ra: .cfa -8 + ^
STACK CFI 11f602 .cfa: $rsp 16 +
STACK CFI 11f604 .cfa: $rsp 24 +
STACK CFI 11f606 .cfa: $rsp 32 +
STACK CFI 11f607 .cfa: $rsp 40 +
STACK CFI 11f611 $r12: .cfa -32 + ^ $r13: .cfa -24 + ^ $r14: .cfa -16 + ^ $rbx: .cfa -40 + ^ .cfa: $rsp 224 +
STACK CFI INIT 11fb40 520 .cfa: $rsp 8 + .ra: .cfa -8 + ^
STACK CFI 11fb42 .cfa: $rsp 16 +
STACK CFI 11fb44 .cfa: $rsp 24 +
STACK CFI 11fb46 .cfa: $rsp 32 +
STACK CFI 11fb47 .cfa: $rsp 40 +
STACK CFI 11fb51 $r12: .cfa -32 + ^ $r13: .cfa -24 + ^ $r14: .cfa -16 + ^ $rbx: .cfa -40 + ^ .cfa: $rsp 224 +
STACK CFI INIT 120080 480 .cfa: $rsp 8 + .ra: .cfa -8 + ^
STACK CFI 120082 .cfa: $rsp 16 +
STACK CFI 120084 .cfa: $rsp 24 +
STACK CFI 120086 .cfa: $rsp 32 +
STACK CFI 120087 .cfa: $rsp 40 +
STACK CFI 120091 $r12: .cfa -32 + ^ $r13: .cfa -24 + ^ $r14: .cfa -16 + ^ $rbx: .cfa -40 + ^ .cfa: $rsp 240 +
STACK CFI INIT 120500 520 .cfa: $rsp 8 + .ra: .cfa -8 + ^
STACK CFI 120502 .cfa: $rsp 16 +
STACK CFI 120504 .cfa: $rsp 24 +
STACK CFI 120506 .cfa: $rsp 32 +
STACK CFI 120507 .cfa: $rsp 40 +
STACK CFI 120511 $r12: .cfa -32 + ^ $r13: .cfa -24 + ^ $r14: .cfa -16 + ^ $rbx: .cfa -40 + ^ .cfa: $rsp 224 +
STACK CFI INIT 120a40 5e0 .cfa: $rsp 8 + .ra: .cfa -8 + ^
STACK CFI 120a42 .cfa: $rsp 16 +
STACK CFI 120a44 .cfa: $rsp 24 +
STACK CFI 120a46 .cfa: $rsp 32 +
STACK CFI 120a47 .cfa: $rsp 40 +
STACK CFI 120a51 $r12: .cfa -32 + ^ $r13: .cfa -24 + ^ $r14: .cfa -16 + ^ $rbx: .cfa -40 + ^ .cfa: $rsp 240 +
STACK CFI INIT 121020 460 .cfa: $rsp 8 + .ra: .cfa -8 + ^
STACK CFI 121022 .cfa: $rsp 16 +
STACK CFI 121024 .cfa: $rsp 24 +
STACK CFI 121026 .cfa: $rsp 32 +
STACK CFI 121027 .cfa: $rsp 40 +
STACK CFI 121031 $r12: .cfa -32 + ^ $r13: .cfa -24 + ^ $r14: .cfa -16 + ^ $rbx: .cfa -40 + ^ .cfa: $rsp 224 +
STACK CFI INIT 121480 520 .cfa: $rsp 8 + .ra: .cfa -8 + ^
STACK CFI 121482 .cfa: $rsp 16 +
STACK CFI 121484 .cfa: $rsp 24 +
STACK CFI 121486 .cfa: $rsp 32 +
STACK CFI 121487 .cfa: $rsp 40 +
STACK CFI 121491 $r12: .cfa -32 + ^ $r13: .cfa -24 + ^ $r14: .cfa -16 + ^ $rbx: .cfa -40 + ^ .cfa: $rsp 224 +
STACK CFI INIT 1219c0 520 .cfa: $rsp 8 + .ra: .cfa -8 + ^
STACK CFI 1219c2 .cfa: $rsp 16 +
STACK CFI 1219c4 .cfa: $rsp 24 +
STACK CFI 1219c6 .cfa: $rsp 32 +
STACK CFI 1219c7 .cfa: $rsp 40 +
STACK CFI 1219d1 $r12: .cfa -32 + ^ $r13: .cfa -24 + ^ $r14: .cfa -16 + ^ $rbx: .cfa -40 + ^ .cfa: $rsp 224 +
STACK CFI INIT 121f00 480 .cfa: $rsp 8 + .ra: .cfa -8 + ^
STACK CFI 121f02 .cfa: $rsp 16 +
STACK CFI 121f04 .cfa: $rsp 24 +
STACK CFI 121f06 .cfa: $rsp 32 +
STACK CFI 121f07 .cfa: $rsp 40 +
STACK CFI 121f11 $r12: .cfa -32 + ^ $r13: .cfa -24 + ^ $r14: .cfa -16 + ^ $rbx: .cfa -40 + ^ .cfa: $rsp 240 +
STACK CFI INIT 122380 520 .cfa: $rsp 8 + .ra: .cfa -8 + ^
STACK CFI 122382 .cfa: $rsp 16 +
STACK CFI 122384 .cfa: $rsp 24 +
STACK CFI 122386 .cfa: $rsp 32 +
STACK CFI 122387 .cfa: $rsp 40 +
STACK CFI 122391 $r12: .cfa -32 + ^ $r13: .cfa -24 + ^ $r14: .cfa -16 + ^ $rbx: .cfa -40 + ^ .cfa: $rsp 224 +
STACK CFI INIT 1228c0 7c0 .cfa: $rsp 8 + .ra: .cfa -8 + ^
STACK CFI 1228c2 .cfa: $rsp 16 +
STACK CFI 1228c4 .cfa: $rsp 24 +
STACK CFI 1228c6 .cfa: $rsp 32 +
STACK CFI 1228c7 .cfa: $rsp 40 +
STACK CFI 1228d1 $r12: .cfa -32 + ^ $r13: .cfa -24 + ^ $r14: .cfa -16 + ^ $rbx: .cfa -40 + ^ .cfa: $rsp 288 +
STACK CFI INIT 123080 460 .cfa: $rsp 8 + .ra: .cfa -8 + ^
STACK CFI 123082 .cfa: $rsp 16 +
STACK CFI 123084 .cfa: $rsp 24 +
STACK CFI 123086 .cfa: $rsp 32 +
STACK CFI 123087 .cfa: $rsp 40 +
STACK CFI 123091 $r12: .cfa -32 + ^ $r13: .cfa -24 + ^ $r14: .cfa -16 + ^ $rbx: .cfa -40 + ^ .cfa: $rsp 224 +
STACK CFI INIT 1234e0 520 .cfa: $rsp 8 + .ra: .cfa -8 + ^
STACK CFI 1234e2 .cfa: $rsp 16 +
STACK CFI 1234e4 .cfa: $rsp 24 +
STACK CFI 1234e6 .cfa: $rsp 32 +
STACK CFI 1234e7 .cfa: $rsp 40 +
STACK CFI 1234f1 $r12: .cfa -32 + ^ $r13: .cfa -24 + ^ $r14: .cfa -16 + ^ $rbx: .cfa -40 + ^ .cfa: $rsp 224 +
STACK CFI INIT 123a20 480 .cfa: $rsp 8 + .ra: .cfa -8 + ^
STACK CFI 123a22 .cfa: $rsp 16 +
STACK CFI 123a24 .cfa: $rsp 24 +
STACK CFI 123a26 .cfa: $rsp 32 +
STACK CFI 123a27 .cfa: $rsp 40 +
STACK CFI 123a31 $r12: .cfa -32 + ^ $r13: .cfa -24 + ^ $r14: .cfa -16 + ^ $rbx: .cfa -40 + ^ .cfa: $rsp 240 +
STACK CFI INIT 123ea0 200 .cfa: $rsp 8 + .ra: .cfa -8 + ^
STACK CFI 123ea2 .cfa: $rsp 16 +
STACK CFI 123ea4 .cfa: $rsp 24 +
STACK CFI 123ea5 .cfa: $rsp 32 +
STACK CFI 123eac $r12: .cfa -24 + ^ $r14: .cfa -16 + ^ $rbx: .cfa -32 + ^ .cfa: $rsp 64 +
STACK CFI INIT 1240a0 520 .cfa: $rsp 8 + .ra: .cfa -8 + ^
STACK CFI 1240a2 .cfa: $rsp 16 +
STACK CFI 1240a4 .cfa: $rsp 24 +
STACK CFI 1240a6 .cfa: $rsp 32 +
STACK CFI 1240a7 .cfa: $rsp 40 +
STACK CFI 1240b1 $r12: .cfa -32 + ^ $r13: .cfa -24 + ^ $r14: .cfa -16 + ^ $rbx: .cfa -40 + ^ .cfa: $rsp 224 +
STACK CFI INIT 1245e0 520 .cfa: $rsp 8 + .ra: .cfa -8 + ^
STACK CFI 1245e2 .cfa: $rsp 16 +
STACK CFI 1245e4 .cfa: $rsp 24 +
STACK CFI 1245e6 .cfa: $rsp 32 +
STACK CFI 1245e7 .cfa: $rsp 40 +
STACK CFI 1245f1 $r12: .cfa -32 + ^ $r13: .cfa -24 + ^ $r14: .cfa -16 + ^ $rbx: .cfa -40 + ^ .cfa: $rsp 224 +
STACK CFI INIT 124b20 620 .cfa: $rsp 8 + .ra: .cfa -8 + ^
STACK CFI 124b22 .cfa: $rsp 16 +
STACK CFI 124b24 .cfa: $rsp 24 +
STACK CFI 124b26 .cfa: $rsp 32 +
STACK CFI 124b27 .cfa: $rsp 40 +
STACK CFI 124b31 $r12: .cfa -32 + ^ $r13: .cfa -24 + ^ $r14: .cfa -16 + ^ $rbx: .cfa -40 + ^ .cfa: $rsp 256 +
STACK CFI INIT 125140 460 .cfa: $rsp 8 + .ra: .cfa -8 + ^
STACK CFI 125142 .cfa: $rsp 16 +
STACK CFI 125144 .cfa: $rsp 24 +
STACK CFI 125146 .cfa: $rsp 32 +
STACK CFI 125147 .cfa: $rsp 40 +
STACK CFI 125151 $r12: .cfa -32 + ^ $r13: .cfa -24 + ^ $r14: .cfa -16 + ^ $rbx: .cfa -40 + ^ .cfa: $rsp 224 +
STACK CFI INIT 1255a0 520 .cfa: $rsp 8 + .ra: .cfa -8 + ^
STACK CFI 1255a2 .cfa: $rsp 16 +
STACK CFI 1255a4 .cfa: $rsp 24 +
STACK CFI 1255a6 .cfa: $rsp 32 +
STACK CFI 1255a7 .cfa: $rsp 40 +
STACK CFI 1255b1 $r12: .cfa -32 + ^ $r13: .cfa -24 + ^ $r14: .cfa -16 + ^ $rbx: .cfa -40 + ^ .cfa: $rsp 224 +
STACK CFI INIT 125ae0 520 .cfa: $rsp 8 + .ra: .cfa -8 + ^
STACK CFI 125ae2 .cfa: $rsp 16 +
STACK CFI 125ae4 .cfa: $rsp 24 +
STACK CFI 125ae6 .cfa: $rsp 32 +
STACK CFI 125ae7 .cfa: $rsp 40 +
STACK CFI 125af1 $r12: .cfa -32 + ^ $r13: .cfa -24 + ^ $r14: .cfa -16 + ^ $rbx: .cfa -40 + ^ .cfa: $rsp 224 +
STACK CFI INIT 126020 480 .cfa: $rsp 8 + .ra: .cfa -8 + ^
STACK CFI 126022 .cfa: $rsp 16 +
STACK CFI 126024 .cfa: $rsp 24 +
STACK CFI 126026 .cfa: $rsp 32 +
STACK CFI 126027 .cfa: $rsp 40 +
STACK CFI 126031 $r12: .cfa -32 + ^ $r13: .cfa -24 + ^ $r14: .cfa -16 + ^ $rbx: .cfa -40 + ^ .cfa: $rsp 240 +
STACK CFI INIT 1264a0 520 .cfa: $rsp 8 + .ra: .cfa -8 + ^
STACK CFI 1264a2 .cfa: $rsp 16 +
STACK CFI 1264a4 .cfa: $rsp 24 +
STACK CFI 1264a6 .cfa: $rsp 32 +
STACK CFI 1264a7 .cfa: $rsp 40 +
STACK CFI 1264b1 $r12: .cfa -32 + ^ $r13: .cfa -24 + ^ $r14: .cfa -16 + ^ $rbx: .cfa -40 + ^ .cfa: $rsp 224 +
STACK CFI INIT 1269e0 340 .cfa: $rsp 8 + .ra: .cfa -8 + ^
STACK CFI 1269e2 .cfa: $rsp 16 +
STACK CFI 1269e3 .cfa: $rsp 24 +
STACK CFI 1269ea $r14: .cfa -16 + ^ $rbx: .cfa -24 + ^ .cfa: $rsp 112 +
STACK CFI INIT 126d20 460 .cfa: $rsp 8 + .ra: .cfa -8 + ^
STACK CFI 126d22 .cfa: $rsp 16 +
STACK CFI 126d24 .cfa: $rsp 24 +
STACK CFI 126d26 .cfa: $rsp 32 +
STACK CFI 126d27 .cfa: $rsp 40 +
STACK CFI 126d31 $r12: .cfa -32 + ^ $r13: .cfa -24 + ^ $r14: .cfa -16 + ^ $rbx: .cfa -40 + ^ .cfa: $rsp 224 +
STACK CFI INIT 127180 520 .cfa: $rsp 8 + .ra: .cfa -8 + ^
STACK CFI 127182 .cfa: $rsp 16 +
STACK CFI 127184 .cfa: $rsp 24 +
STACK CFI 127186 .cfa: $rsp 32 +
STACK CFI 127187 .cfa: $rsp 40 +
STACK CFI 127191 $r12: .cfa -32 + ^ $r13: .cfa -24 + ^ $r14: .cfa -16 + ^ $rbx: .cfa -40 + ^ .cfa: $rsp 224 +
STACK CFI INIT 1276c0 260 .cfa: $rsp 8 + .ra: .cfa -8 + ^
STACK CFI 1276c1 .cfa: $rsp 16 +
STACK CFI 1276c8 $rbx: .cfa -16 + ^ .cfa: $rsp 80 +
STACK CFI INIT 127920 460 .cfa: $rsp 8 + .ra: .cfa -8 + ^
STACK CFI 127922 .cfa: $rsp 16 +
STACK CFI 127924 .cfa: $rsp 24 +
STACK CFI 127926 .cfa: $rsp 32 +
STACK CFI 127927 .cfa: $rsp 40 +
STACK CFI 127931 $r12: .cfa -32 + ^ $r13: .cfa -24 + ^ $r14: .cfa -16 + ^ $rbx: .cfa -40 + ^ .cfa: $rsp 224 +
STACK CFI INIT 127d80 520 .cfa: $rsp 8 + .ra: .cfa -8 + ^
STACK CFI 127d82 .cfa: $rsp 16 +
STACK CFI 127d84 .cfa: $rsp 24 +
STACK CFI 127d86 .cfa: $rsp 32 +
STACK CFI 127d87 .cfa: $rsp 40 +
STACK CFI 127d91 $r12: .cfa -32 + ^ $r13: .cfa -24 + ^ $r14: .cfa -16 + ^ $rbx: .cfa -40 + ^ .cfa: $rsp 224 +
STACK CFI INIT 1282c0 520 .cfa: $rsp 8 + .ra: .cfa -8 + ^
STACK CFI 1282c2 .cfa: $rsp 16 +
STACK CFI 1282c4 .cfa: $rsp 24 +
STACK CFI 1282c6 .cfa: $rsp 32 +
STACK CFI 1282c7 .cfa: $rsp 40 +
STACK CFI 1282d1 $r12: .cfa -32 + ^ $r13: .cfa -24 + ^ $r14: .cfa -16 + ^ $rbx: .cfa -40 + ^ .cfa: $rsp 224 +
STACK CFI INIT 128800 7e0 .cfa: $rsp 8 + .ra: .cfa -8 + ^
STACK CFI 128802 .cfa: $rsp 16 +
STACK CFI 128803 .cfa: $rsp 24 +
STACK CFI 12880d $r14: .cfa -16 + ^ $rbx: .cfa -24 + ^ .cfa: $rsp 288 +
STACK CFI INIT 128fe0 520 .cfa: $rsp 8 + .ra: .cfa -8 + ^
STACK CFI 128fe2 .cfa: $rsp 16 +
STACK CFI 128fe4 .cfa: $rsp 24 +
STACK CFI 128fe6 .cfa: $rsp 32 +
STACK CFI 128fe7 .cfa: $rsp 40 +
STACK CFI 128ff1 $r12: .cfa -32 + ^ $r13: .cfa -24 + ^ $r14: .cfa -16 + ^ $rbx: .cfa -40 + ^ .cfa: $rsp 224 +
STACK CFI INIT 129520 520 .cfa: $rsp 8 + .ra: .cfa -8 + ^
STACK CFI 129522 .cfa: $rsp 16 +
STACK CFI 129524 .cfa: $rsp 24 +
STACK CFI 129526 .cfa: $rsp 32 +
STACK CFI 129527 .cfa: $rsp 40 +
STACK CFI 129531 $r12: .cfa -32 + ^ $r13: .cfa -24 + ^ $r14: .cfa -16 + ^ $rbx: .cfa -40 + ^ .cfa: $rsp 224 +
STACK CFI INIT 129a60 660 .cfa: $rsp 8 + .ra: .cfa -8 + ^
STACK CFI 129a62 .cfa: $rsp 16 +
STACK CFI 129a64 .cfa: $rsp 24 +
STACK CFI 129a66 .cfa: $rsp 32 +
STACK CFI 129a67 .cfa: $rsp 40 +
STACK CFI 129a71 $r12: .cfa -32 + ^ $r13: .cfa -24 + ^ $r14: .cfa -16 + ^ $rbx: .cfa -40 + ^ .cfa: $rsp 272 +
STACK CFI INIT 12a0c0 460 .cfa: $rsp 8 + .ra: .cfa -8 + ^
STACK CFI 12a0c2 .cfa: $rsp 16 +
STACK CFI 12a0c4 .cfa: $rsp 24 +
STACK CFI 12a0c6 .cfa: $rsp 32 +
STACK CFI 12a0c7 .cfa: $rsp 40 +
STACK CFI 12a0d1 $r12: .cfa -32 + ^ $r13: .cfa -24 + ^ $r14: .cfa -16 + ^ $rbx: .cfa -40 + ^ .cfa: $rsp 224 +
STACK CFI INIT 12a520 520 .cfa: $rsp 8 + .ra: .cfa -8 + ^
STACK CFI 12a522 .cfa: $rsp 16 +
STACK CFI 12a524 .cfa: $rsp 24 +
STACK CFI 12a526 .cfa: $rsp 32 +
STACK CFI 12a527 .cfa: $rsp 40 +
STACK CFI 12a531 $r12: .cfa -32 + ^ $r13: .cfa -24 + ^ $r14: .cfa -16 + ^ $rbx: .cfa -40 + ^ .cfa: $rsp 224 +
STACK CFI INIT 12aa60 520 .cfa: $rsp 8 + .ra: .cfa -8 + ^
STACK CFI 12aa62 .cfa: $rsp 16 +
STACK CFI 12aa64 .cfa: $rsp 24 +
STACK CFI 12aa66 .cfa: $rsp 32 +
STACK CFI 12aa67 .cfa: $rsp 40 +
STACK CFI 12aa71 $r12: .cfa -32 + ^ $r13: .cfa -24 + ^ $r14: .cfa -16 + ^ $rbx: .cfa -40 + ^ .cfa: $rsp 224 +
STACK CFI INIT 12afa0 520 .cfa: $rsp 8 + .ra: .cfa -8 + ^
STACK CFI 12afa2 .cfa: $rsp 16 +
STACK CFI 12afa4 .cfa: $rsp 24 +
STACK CFI 12afa6 .cfa: $rsp 32 +
STACK CFI 12afa7 .cfa: $rsp 40 +
STACK CFI 12afb1 $r12: .cfa -32 + ^ $r13: .cfa -24 + ^ $r14: .cfa -16 + ^ $rbx: .cfa -40 + ^ .cfa: $rsp 224 +
STACK CFI INIT 12b4e0 160 .cfa: $rsp 8 + .ra: .cfa -8 + ^
STACK CFI 12b4e2 .cfa: $rsp 16 +
STACK CFI 12b4e4 .cfa: $rsp 24 +
STACK CFI 12b4e6 .cfa: $rsp 32 +
STACK CFI 12b4e7 .cfa: $rsp 40 +
STACK CFI 12b4ee $r12: .cfa -32 + ^ $r13: .cfa -24 + ^ $r14: .cfa -16 + ^ $rbx: .cfa -40 + ^ .cfa: $rsp 64 +
STACK CFI INIT 12b640 160 .cfa: $rsp 8 + .ra: .cfa -8 + ^
STACK CFI 12b642 .cfa: $rsp 16 +
STACK CFI 12b644 .cfa: $rsp 24 +
STACK CFI 12b646 .cfa: $rsp 32 +
STACK CFI 12b647 .cfa: $rsp 40 +
STACK CFI 12b64e $r12: .cfa -32 + ^ $r13: .cfa -24 + ^ $r14: .cfa -16 + ^ $rbx: .cfa -40 + ^ .cfa: $rsp 64 +
STACK CFI INIT 12b8e0 640 .cfa: $rsp 8 + .ra: .cfa -8 + ^
STACK CFI 12b8e2 .cfa: $rsp 16 +
STACK CFI 12b8e4 .cfa: $rsp 24 +
STACK CFI 12b8e6 .cfa: $rsp 32 +
STACK CFI 12b8e7 .cfa: $rsp 40 +
STACK CFI 12b8ee $r12: .cfa -32 + ^ $r13: .cfa -24 + ^ $r14: .cfa -16 + ^ $rbx: .cfa -40 + ^ .cfa: $rsp 128 +
STACK CFI INIT 12bf20 b20 .cfa: $rsp 8 + .ra: .cfa -8 + ^
STACK CFI 12bf22 .cfa: $rsp 16 +
STACK CFI 12bf24 .cfa: $rsp 24 +
STACK CFI 12bf26 .cfa: $rsp 32 +
STACK CFI 12bf27 .cfa: $rsp 40 +
STACK CFI 12bf31 $r12: .cfa -32 + ^ $r13: .cfa -24 + ^ $r14: .cfa -16 + ^ $rbx: .cfa -40 + ^ .cfa: $rsp 256 +
STACK CFI INIT 12ca40 12a0 .cfa: $rsp 8 + .ra: .cfa -8 + ^
STACK CFI 12ca42 .cfa: $rsp 16 +
STACK CFI 12ca44 .cfa: $rsp 24 +
STACK CFI 12ca46 .cfa: $rsp 32 +
STACK CFI 12ca47 .cfa: $rsp 40 +
STACK CFI 12ca51 $r12: .cfa -32 + ^ $r13: .cfa -24 + ^ $r14: .cfa -16 + ^ $rbx: .cfa -40 + ^ .cfa: $rsp 416 +
STACK CFI INIT 12dce0 a0 .cfa: $rsp 8 + .ra: .cfa -8 + ^
STACK CFI 12dce1 .cfa: $rsp 16 +
STACK CFI 12dce8 $rbx: .cfa -16 + ^ .cfa: $rsp 32 +
STACK CFI INIT 12df20 200 .cfa: $rsp 8 + .ra: .cfa -8 + ^
STACK CFI 12df21 .cfa: $rsp 16 +
STACK CFI 12df28 $rbx: .cfa -16 + ^ .cfa: $rsp 48 +
STACK CFI INIT 12e120 ae0 .cfa: $rsp 8 + .ra: .cfa -8 + ^
STACK CFI 12e122 .cfa: $rsp 16 +
STACK CFI 12e124 .cfa: $rsp 24 +
STACK CFI 12e126 .cfa: $rsp 32 +
STACK CFI 12e127 .cfa: $rsp 40 +
STACK CFI 12e131 $r12: .cfa -32 + ^ $r13: .cfa -24 + ^ $r14: .cfa -16 + ^ $rbx: .cfa -40 + ^ .cfa: $rsp 320 +
STACK CFI INIT 12eec0 1180 .cfa: $rsp 8 + .ra: .cfa -8 + ^
STACK CFI 12eec2 .cfa: $rsp 16 +
STACK CFI 12eec4 .cfa: $rsp 24 +
STACK CFI 12eec6 .cfa: $rsp 32 +
STACK CFI 12eec7 .cfa: $rsp 40 +
STACK CFI 12eed1 $r12: .cfa -32 + ^ $r13: .cfa -24 + ^ $r14: .cfa -16 + ^ $rbx: .cfa -40 + ^ .cfa: $rsp 352 +
STACK CFI INIT 1300a0 600 .cfa: $rsp 8 + .ra: .cfa -8 + ^
STACK CFI 1300a2 .cfa: $rsp 16 +
STACK CFI 1300a4 .cfa: $rsp 24 +
STACK CFI 1300a6 .cfa: $rsp 32 +
STACK CFI 1300a7 .cfa: $rsp 40 +
STACK CFI 1300ae $r12: .cfa -32 + ^ $r13: .cfa -24 + ^ $r14: .cfa -16 + ^ $rbx: .cfa -40 + ^ .cfa: $rsp 128 +
STACK CFI INIT 1306a0 d00 .cfa: $rsp 8 + .ra: .cfa -8 + ^
STACK CFI 1306a2 .cfa: $rsp 16 +
STACK CFI 1306a4 .cfa: $rsp 24 +
STACK CFI 1306a6 .cfa: $rsp 32 +
STACK CFI 1306a7 .cfa: $rsp 40 +
STACK CFI 1306b1 $r12: .cfa -32 + ^ $r13: .cfa -24 + ^ $r14: .cfa -16 + ^ $rbx: .cfa -40 + ^ .cfa: $rsp 480 +
STACK CFI INIT 1313a0 1e0 .cfa: $rsp 8 + .ra: .cfa -8 + ^
STACK CFI 1313a2 .cfa: $rsp 16 +
STACK CFI 1313a4 .cfa: $rsp 24 +
STACK CFI 1313a6 .cfa: $rsp 32 +
STACK CFI 1313a7 .cfa: $rsp 40 +
STACK CFI 1313ae $r12: .cfa -32 + ^ $r13: .cfa -24 + ^ $r14: .cfa -16 + ^ $rbx: .cfa -40 + ^ .cfa: $rsp 80 +
STACK CFI INIT 131580 7e0 .cfa: $rsp 8 + .ra: .cfa -8 + ^
STACK CFI 131582 .cfa: $rsp 16 +
STACK CFI 131583 .cfa: $rsp 24 +
STACK CFI 13158d $r14: .cfa -16 + ^ $rbx: .cfa -24 + ^ .cfa: $rsp 304 +
STACK CFI INIT 131d60 cc0 .cfa: $rsp 8 + .ra: .cfa -8 + ^
STACK CFI 131d62 .cfa: $rsp 16 +
STACK CFI 131d64 .cfa: $rsp 24 +
STACK CFI 131d66 .cfa: $rsp 32 +
STACK CFI 131d67 .cfa: $rsp 40 +
STACK CFI 131d71 $r12: .cfa -32 + ^ $r13: .cfa -24 + ^ $r14: .cfa -16 + ^ $rbx: .cfa -40 + ^ .cfa: $rsp 480 +
STACK CFI INIT 132a20 c20 .cfa: $rsp 8 + .ra: .cfa -8 + ^
STACK CFI 132a22 .cfa: $rsp 16 +
STACK CFI 132a24 .cfa: $rsp 24 +
STACK CFI 132a26 .cfa: $rsp 32 +
STACK CFI 132a27 .cfa: $rsp 40 +
STACK CFI 132a31 $r12: .cfa -32 + ^ $r13: .cfa -24 + ^ $r14: .cfa -16 + ^ $rbx: .cfa -40 + ^ .cfa: $rsp 464 +
STACK CFI INIT 133640 e60 .cfa: $rsp 8 + .ra: .cfa -8 + ^
STACK CFI 133642 .cfa: $rsp 16 +
STACK CFI 133644 .cfa: $rsp 24 +
STACK CFI 133646 .cfa: $rsp 32 +
STACK CFI 133647 .cfa: $rsp 40 +
STACK CFI 133651 $r12: .cfa -32 + ^ $r13: .cfa -24 + ^ $r14: .cfa -16 + ^ $rbx: .cfa -40 + ^ .cfa: $rsp 496 +
STACK CFI INIT 1344a0 740 .cfa: $rsp 8 + .ra: .cfa -8 + ^
STACK CFI 1344a2 .cfa: $rsp 16 +
STACK CFI 1344a4 .cfa: $rsp 24 +
STACK CFI 1344a6 .cfa: $rsp 32 +
STACK CFI 1344a7 .cfa: $rsp 40 +
STACK CFI 1344b1 $r12: .cfa -32 + ^ $r13: .cfa -24 + ^ $r14: .cfa -16 + ^ $rbx: .cfa -40 + ^ .cfa: $rsp 288 +
STACK CFI INIT 134be0 480 .cfa: $rsp 8 + .ra: .cfa -8 + ^
STACK CFI 134be2 .cfa: $rsp 16 +
STACK CFI 134be4 .cfa: $rsp 24 +
STACK CFI 134be6 .cfa: $rsp 32 +
STACK CFI 134be7 .cfa: $rsp 40 +
STACK CFI 134bf1 $r12: .cfa -32 + ^ $r13: .cfa -24 + ^ $r14: .cfa -16 + ^ $rbx: .cfa -40 + ^ .cfa: $rsp 240 +
STACK CFI INIT 135060 180 .cfa: $rsp 8 + .ra: .cfa -8 + ^
STACK CFI 135062 .cfa: $rsp 16 +
STACK CFI 135064 .cfa: $rsp 24 +
STACK CFI 135065 .cfa: $rsp 32 +
STACK CFI 13506c $r12: .cfa -24 + ^ $r14: .cfa -16 + ^ $rbx: .cfa -32 + ^ .cfa: $rsp 48 +
STACK CFI INIT 1351e0 520 .cfa: $rsp 8 + .ra: .cfa -8 + ^
STACK CFI 1351e2 .cfa: $rsp 16 +
STACK CFI 1351e4 .cfa: $rsp 24 +
STACK CFI 1351e6 .cfa: $rsp 32 +
STACK CFI 1351e7 .cfa: $rsp 40 +
STACK CFI 1351f1 $r12: .cfa -32 + ^ $r13: .cfa -24 + ^ $r14: .cfa -16 + ^ $rbx: .cfa -40 + ^ .cfa: $rsp 224 +
STACK CFI INIT 135720 6c0 .cfa: $rsp 8 + .ra: .cfa -8 + ^
STACK CFI 135722 .cfa: $rsp 16 +
STACK CFI 135724 .cfa: $rsp 24 +
STACK CFI 135726 .cfa: $rsp 32 +
STACK CFI 135727 .cfa: $rsp 40 +
STACK CFI 135731 $r12: .cfa -32 + ^ $r13: .cfa -24 + ^ $r14: .cfa -16 + ^ $rbx: .cfa -40 + ^ .cfa: $rsp 272 +
STACK CFI INIT 135de0 460 .cfa: $rsp 8 + .ra: .cfa -8 + ^
STACK CFI 135de2 .cfa: $rsp 16 +
STACK CFI 135de4 .cfa: $rsp 24 +
STACK CFI 135de6 .cfa: $rsp 32 +
STACK CFI 135de7 .cfa: $rsp 40 +
STACK CFI 135df1 $r12: .cfa -32 + ^ $r13: .cfa -24 + ^ $r14: .cfa -16 + ^ $rbx: .cfa -40 + ^ .cfa: $rsp 224 +
STACK CFI INIT 136240 520 .cfa: $rsp 8 + .ra: .cfa -8 + ^
STACK CFI 136242 .cfa: $rsp 16 +
STACK CFI 136244 .cfa: $rsp 24 +
STACK CFI 136246 .cfa: $rsp 32 +
STACK CFI 136247 .cfa: $rsp 40 +
STACK CFI 136251 $r12: .cfa -32 + ^ $r13: .cfa -24 + ^ $r14: .cfa -16 + ^ $rbx: .cfa -40 + ^ .cfa: $rsp 224 +
STACK CFI INIT 136780 620 .cfa: $rsp 8 + .ra: .cfa -8 + ^
STACK CFI 136782 .cfa: $rsp 16 +
STACK CFI 136784 .cfa: $rsp 24 +
STACK CFI 136786 .cfa: $rsp 32 +
STACK CFI 136787 .cfa: $rsp 40 +
STACK CFI 136791 $r12: .cfa -32 + ^ $r13: .cfa -24 + ^ $r14: .cfa -16 + ^ $rbx: .cfa -40 + ^ .cfa: $rsp 256 +
STACK CFI INIT 136da0 460 .cfa: $rsp 8 + .ra: .cfa -8 + ^
STACK CFI 136da2 .cfa: $rsp 16 +
STACK CFI 136da4 .cfa: $rsp 24 +
STACK CFI 136da6 .cfa: $rsp 32 +
STACK CFI 136da7 .cfa: $rsp 40 +
STACK CFI 136db1 $r12: .cfa -32 + ^ $r13: .cfa -24 + ^ $r14: .cfa -16 + ^ $rbx: .cfa -40 + ^ .cfa: $rsp 224 +
STACK CFI INIT 137200 520 .cfa: $rsp 8 + .ra: .cfa -8 + ^
STACK CFI 137202 .cfa: $rsp 16 +
STACK CFI 137204 .cfa: $rsp 24 +
STACK CFI 137206 .cfa: $rsp 32 +
STACK CFI 137207 .cfa: $rsp 40 +
STACK CFI 137211 $r12: .cfa -32 + ^ $r13: .cfa -24 + ^ $r14: .cfa -16 + ^ $rbx: .cfa -40 + ^ .cfa: $rsp 224 +
STACK CFI INIT 137740 680 .cfa: $rsp 8 + .ra: .cfa -8 + ^
STACK CFI 137742 .cfa: $rsp 16 +
STACK CFI 137744 .cfa: $rsp 24 +
STACK CFI 137746 .cfa: $rsp 32 +
STACK CFI 137747 .cfa: $rsp 40 +
STACK CFI 137751 $r12: .cfa -32 + ^ $r13: .cfa -24 + ^ $r14: .cfa -16 + ^ $rbx: .cfa -40 + ^ .cfa: $rsp 256 +
STACK CFI INIT 137dc0 460 .cfa: $rsp 8 + .ra: .cfa -8 + ^
STACK CFI 137dc2 .cfa: $rsp 16 +
STACK CFI 137dc4 .cfa: $rsp 24 +
STACK CFI 137dc6 .cfa: $rsp 32 +
STACK CFI 137dc7 .cfa: $rsp 40 +
STACK CFI 137dd1 $r12: .cfa -32 + ^ $r13: .cfa -24 + ^ $r14: .cfa -16 + ^ $rbx: .cfa -40 + ^ .cfa: $rsp 224 +
STACK CFI INIT 138220 520 .cfa: $rsp 8 + .ra: .cfa -8 + ^
STACK CFI 138222 .cfa: $rsp 16 +
STACK CFI 138224 .cfa: $rsp 24 +
STACK CFI 138226 .cfa: $rsp 32 +
STACK CFI 138227 .cfa: $rsp 40 +
STACK CFI 138231 $r12: .cfa -32 + ^ $r13: .cfa -24 + ^ $r14: .cfa -16 + ^ $rbx: .cfa -40 + ^ .cfa: $rsp 224 +
STACK CFI INIT 138760 680 .cfa: $rsp 8 + .ra: .cfa -8 + ^
STACK CFI 138762 .cfa: $rsp 16 +
STACK CFI 138764 .cfa: $rsp 24 +
STACK CFI 138766 .cfa: $rsp 32 +
STACK CFI 138767 .cfa: $rsp 40 +
STACK CFI 138771 $r12: .cfa -32 + ^ $r13: .cfa -24 + ^ $r14: .cfa -16 + ^ $rbx: .cfa -40 + ^ .cfa: $rsp 256 +
STACK CFI INIT 138de0 460 .cfa: $rsp 8 + .ra: .cfa -8 + ^
STACK CFI 138de2 .cfa: $rsp 16 +
STACK CFI 138de4 .cfa: $rsp 24 +
STACK CFI 138de6 .cfa: $rsp 32 +
STACK CFI 138de7 .cfa: $rsp 40 +
STACK CFI 138df1 $r12: .cfa -32 + ^ $r13: .cfa -24 + ^ $r14: .cfa -16 + ^ $rbx: .cfa -40 + ^ .cfa: $rsp 224 +
STACK CFI INIT 139240 520 .cfa: $rsp 8 + .ra: .cfa -8 + ^
STACK CFI 139242 .cfa: $rsp 16 +
STACK CFI 139244 .cfa: $rsp 24 +
STACK CFI 139246 .cfa: $rsp 32 +
STACK CFI 139247 .cfa: $rsp 40 +
STACK CFI 139251 $r12: .cfa -32 + ^ $r13: .cfa -24 + ^ $r14: .cfa -16 + ^ $rbx: .cfa -40 + ^ .cfa: $rsp 224 +
STACK CFI INIT 139780 ba0 .cfa: $rsp 8 + .ra: .cfa -8 + ^
STACK CFI 139782 .cfa: $rsp 16 +
STACK CFI 139784 .cfa: $rsp 24 +
STACK CFI 139786 .cfa: $rsp 32 +
STACK CFI 139787 .cfa: $rsp 40 +
STACK CFI 139791 $r12: .cfa -32 + ^ $r13: .cfa -24 + ^ $r14: .cfa -16 + ^ $rbx: .cfa -40 + ^ .cfa: $rsp 432 +
STACK CFI INIT 13a320 520 .cfa: $rsp 8 + .ra: .cfa -8 + ^
STACK CFI 13a322 .cfa: $rsp 16 +
STACK CFI 13a324 .cfa: $rsp 24 +
STACK CFI 13a326 .cfa: $rsp 32 +
STACK CFI 13a327 .cfa: $rsp 40 +
STACK CFI 13a331 $r12: .cfa -32 + ^ $r13: .cfa -24 + ^ $r14: .cfa -16 + ^ $rbx: .cfa -40 + ^ .cfa: $rsp 224 +
STACK CFI INIT 13a860 520 .cfa: $rsp 8 + .ra: .cfa -8 + ^
STACK CFI 13a862 .cfa: $rsp 16 +
STACK CFI 13a864 .cfa: $rsp 24 +
STACK CFI 13a866 .cfa: $rsp 32 +
STACK CFI 13a867 .cfa: $rsp 40 +
STACK CFI 13a871 $r12: .cfa -32 + ^ $r13: .cfa -24 + ^ $r14: .cfa -16 + ^ $rbx: .cfa -40 + ^ .cfa: $rsp 224 +
STACK CFI INIT 13ada0 700 .cfa: $rsp 8 + .ra: .cfa -8 + ^
STACK CFI 13ada2 .cfa: $rsp 16 +
STACK CFI 13ada3 .cfa: $rsp 24 +
STACK CFI 13adad $r14: .cfa -16 + ^ $rbx: .cfa -24 + ^ .cfa: $rsp 272 +
STACK CFI INIT 13b4a0 520 .cfa: $rsp 8 + .ra: .cfa -8 + ^
STACK CFI 13b4a2 .cfa: $rsp 16 +
STACK CFI 13b4a4 .cfa: $rsp 24 +
STACK CFI 13b4a6 .cfa: $rsp 32 +
STACK CFI 13b4a7 .cfa: $rsp 40 +
STACK CFI 13b4b1 $r12: .cfa -32 + ^ $r13: .cfa -24 + ^ $r14: .cfa -16 + ^ $rbx: .cfa -40 + ^ .cfa: $rsp 224 +
STACK CFI INIT 13b9e0 520 .cfa: $rsp 8 + .ra: .cfa -8 + ^
STACK CFI 13b9e2 .cfa: $rsp 16 +
STACK CFI 13b9e4 .cfa: $rsp 24 +
STACK CFI 13b9e6 .cfa: $rsp 32 +
STACK CFI 13b9e7 .cfa: $rsp 40 +
STACK CFI 13b9f1 $r12: .cfa -32 + ^ $r13: .cfa -24 + ^ $r14: .cfa -16 + ^ $rbx: .cfa -40 + ^ .cfa: $rsp 224 +
STACK CFI INIT 13bf20 520 .cfa: $rsp 8 + .ra: .cfa -8 + ^
STACK CFI 13bf22 .cfa: $rsp 16 +
STACK CFI 13bf24 .cfa: $rsp 24 +
STACK CFI 13bf26 .cfa: $rsp 32 +
STACK CFI 13bf27 .cfa: $rsp 40 +
STACK CFI 13bf31 $r12: .cfa -32 + ^ $r13: .cfa -24 + ^ $r14: .cfa -16 + ^ $rbx: .cfa -40 + ^ .cfa: $rsp 224 +
STACK CFI INIT 13c460 ca0 .cfa: $rsp 8 + .ra: .cfa -8 + ^
STACK CFI 13c462 .cfa: $rsp 16 +
STACK CFI 13c464 .cfa: $rsp 24 +
STACK CFI 13c466 .cfa: $rsp 32 +
STACK CFI 13c467 .cfa: $rsp 40 +
STACK CFI 13c471 $r12: .cfa -32 + ^ $r13: .cfa -24 + ^ $r14: .cfa -16 + ^ $rbx: .cfa -40 + ^ .cfa: $rsp 464 +
STACK CFI INIT 13d100 520 .cfa: $rsp 8 + .ra: .cfa -8 + ^
STACK CFI 13d102 .cfa: $rsp 16 +
STACK CFI 13d104 .cfa: $rsp 24 +
STACK CFI 13d106 .cfa: $rsp 32 +
STACK CFI 13d107 .cfa: $rsp 40 +
STACK CFI 13d111 $r12: .cfa -32 + ^ $r13: .cfa -24 + ^ $r14: .cfa -16 + ^ $rbx: .cfa -40 + ^ .cfa: $rsp 224 +
STACK CFI INIT 13d640 760 .cfa: $rsp 8 + .ra: .cfa -8 + ^
STACK CFI 13d642 .cfa: $rsp 16 +
STACK CFI 13d643 .cfa: $rsp 24 +
STACK CFI 13d64d $r14: .cfa -16 + ^ $rbx: .cfa -24 + ^ .cfa: $rsp 272 +
STACK CFI INIT 13dda0 520 .cfa: $rsp 8 + .ra: .cfa -8 + ^
STACK CFI 13dda2 .cfa: $rsp 16 +
STACK CFI 13dda4 .cfa: $rsp 24 +
STACK CFI 13dda6 .cfa: $rsp 32 +
STACK CFI 13dda7 .cfa: $rsp 40 +
STACK CFI 13ddb1 $r12: .cfa -32 + ^ $r13: .cfa -24 + ^ $r14: .cfa -16 + ^ $rbx: .cfa -40 + ^ .cfa: $rsp 224 +
STACK CFI INIT 13e2e0 520 .cfa: $rsp 8 + .ra: .cfa -8 + ^
STACK CFI 13e2e2 .cfa: $rsp 16 +
STACK CFI 13e2e4 .cfa: $rsp 24 +
STACK CFI 13e2e6 .cfa: $rsp 32 +
STACK CFI 13e2e7 .cfa: $rsp 40 +
STACK CFI 13e2f1 $r12: .cfa -32 + ^ $r13: .cfa -24 + ^ $r14: .cfa -16 + ^ $rbx: .cfa -40 + ^ .cfa: $rsp 224 +
STACK CFI INIT 13e820 520 .cfa: $rsp 8 + .ra: .cfa -8 + ^
STACK CFI 13e822 .cfa: $rsp 16 +
STACK CFI 13e824 .cfa: $rsp 24 +
STACK CFI 13e826 .cfa: $rsp 32 +
STACK CFI 13e827 .cfa: $rsp 40 +
STACK CFI 13e831 $r12: .cfa -32 + ^ $r13: .cfa -24 + ^ $r14: .cfa -16 + ^ $rbx: .cfa -40 + ^ .cfa: $rsp 224 +
STACK CFI INIT 13f1a0 580 .cfa: $rsp 8 + .ra: .cfa -8 + ^
STACK CFI 13f1a2 .cfa: $rsp 16 +
STACK CFI 13f1a4 .cfa: $rsp 24 +
STACK CFI 13f1a6 .cfa: $rsp 32 +
STACK CFI 13f1a7 .cfa: $rsp 40 +
STACK CFI 13f1ae $r12: .cfa -32 + ^ $r13: .cfa -24 + ^ $r14: .cfa -16 + ^ $rbx: .cfa -40 + ^ .cfa: $rsp 64 +
STACK CFI INIT 13ff40 520 .cfa: $rsp 8 + .ra: .cfa -8 + ^
STACK CFI 13ff42 .cfa: $rsp 16 +
STACK CFI 13ff44 .cfa: $rsp 24 +
STACK CFI 13ff46 .cfa: $rsp 32 +
STACK CFI 13ff47 .cfa: $rsp 40 +
STACK CFI 13ff51 $r12: .cfa -32 + ^ $r13: .cfa -24 + ^ $r14: .cfa -16 + ^ $rbx: .cfa -40 + ^ .cfa: $rsp 224 +
STACK CFI INIT 140480 c40 .cfa: $rsp 8 + .ra: .cfa -8 + ^
STACK CFI 140482 .cfa: $rsp 16 +
STACK CFI 140484 .cfa: $rsp 24 +
STACK CFI 140486 .cfa: $rsp 32 +
STACK CFI 140487 .cfa: $rsp 40 +
STACK CFI 140491 $r12: .cfa -32 + ^ $r13: .cfa -24 + ^ $r14: .cfa -16 + ^ $rbx: .cfa -40 + ^ .cfa: $rsp 448 +
STACK CFI INIT 1410c0 520 .cfa: $rsp 8 + .ra: .cfa -8 + ^
STACK CFI 1410c2 .cfa: $rsp 16 +
STACK CFI 1410c4 .cfa: $rsp 24 +
STACK CFI 1410c6 .cfa: $rsp 32 +
STACK CFI 1410c7 .cfa: $rsp 40 +
STACK CFI 1410d1 $r12: .cfa -32 + ^ $r13: .cfa -24 + ^ $r14: .cfa -16 + ^ $rbx: .cfa -40 + ^ .cfa: $rsp 224 +
STACK CFI INIT 141600 ca0 .cfa: $rsp 8 + .ra: .cfa -8 + ^
STACK CFI 141602 .cfa: $rsp 16 +
STACK CFI 141604 .cfa: $rsp 24 +
STACK CFI 141606 .cfa: $rsp 32 +
STACK CFI 141607 .cfa: $rsp 40 +
STACK CFI 141611 $r12: .cfa -32 + ^ $r13: .cfa -24 + ^ $r14: .cfa -16 + ^ $rbx: .cfa -40 + ^ .cfa: $rsp 480 +
STACK CFI INIT 1422a0 520 .cfa: $rsp 8 + .ra: .cfa -8 + ^
STACK CFI 1422a2 .cfa: $rsp 16 +
STACK CFI 1422a4 .cfa: $rsp 24 +
STACK CFI 1422a6 .cfa: $rsp 32 +
STACK CFI 1422a7 .cfa: $rsp 40 +
STACK CFI 1422b1 $r12: .cfa -32 + ^ $r13: .cfa -24 + ^ $r14: .cfa -16 + ^ $rbx: .cfa -40 + ^ .cfa: $rsp 224 +
STACK CFI INIT 142980 420 .cfa: $rsp 8 + .ra: .cfa -8 + ^
STACK CFI 142982 .cfa: $rsp 16 +
STACK CFI 142984 .cfa: $rsp 24 +
STACK CFI 142986 .cfa: $rsp 32 +
STACK CFI 142987 .cfa: $rsp 40 +
STACK CFI 14298e $r12: .cfa -32 + ^ $r13: .cfa -24 + ^ $r14: .cfa -16 + ^ $rbx: .cfa -40 + ^ .cfa: $rsp 80 +
STACK CFI INIT 142fa0 240 .cfa: $rsp 8 + .ra: .cfa -8 + ^
STACK CFI 142fa2 .cfa: $rsp 16 +
STACK CFI 142fa4 .cfa: $rsp 24 +
STACK CFI 142fa5 .cfa: $rsp 32 +
STACK CFI 142fac $r12: .cfa -24 + ^ $r14: .cfa -16 + ^ $rbx: .cfa -32 + ^ .cfa: $rsp 48 +
STACK CFI INIT 143300 3a0 .cfa: $rsp 8 + .ra: .cfa -8 + ^
STACK CFI 143302 .cfa: $rsp 16 +
STACK CFI 143304 .cfa: $rsp 24 +
STACK CFI 143306 .cfa: $rsp 32 +
STACK CFI 143307 .cfa: $rsp 40 +
STACK CFI 14330e $r12: .cfa -32 + ^ $r13: .cfa -24 + ^ $r14: .cfa -16 + ^ $rbx: .cfa -40 + ^ .cfa: $rsp 64 +
STACK CFI INIT 143ee0 520 .cfa: $rsp 8 + .ra: .cfa -8 + ^
STACK CFI 143ee2 .cfa: $rsp 16 +
STACK CFI 143ee4 .cfa: $rsp 24 +
STACK CFI 143ee6 .cfa: $rsp 32 +
STACK CFI 143ee7 .cfa: $rsp 40 +
STACK CFI 143ef1 $r12: .cfa -32 + ^ $r13: .cfa -24 + ^ $r14: .cfa -16 + ^ $rbx: .cfa -40 + ^ .cfa: $rsp 224 +
STACK CFI INIT 144820 140 .cfa: $rsp 8 + .ra: .cfa -8 + ^
STACK CFI 144822 .cfa: $rsp 16 +
STACK CFI 144824 .cfa: $rsp 24 +
STACK CFI 144825 .cfa: $rsp 32 +
STACK CFI 14482c $r12: .cfa -24 + ^ $r14: .cfa -16 + ^ $rbx: .cfa -32 + ^ .cfa: $rsp 48 +
STACK CFI INIT 144b40 900 .cfa: $rsp 8 + .ra: .cfa -8 + ^
STACK CFI 144b42 .cfa: $rsp 16 +
STACK CFI 144b44 .cfa: $rsp 24 +
STACK CFI 144b46 .cfa: $rsp 32 +
STACK CFI 144b47 .cfa: $rsp 40 +
STACK CFI 144b4e $r12: .cfa -32 + ^ $r13: .cfa -24 + ^ $r14: .cfa -16 + ^ $rbx: .cfa -40 + ^ .cfa: $rsp 128 +
STACK CFI INIT 145440 820 .cfa: $rsp 8 + .ra: .cfa -8 + ^
STACK CFI 145442 .cfa: $rsp 16 +
STACK CFI 145444 .cfa: $rsp 24 +
STACK CFI 145445 .cfa: $rsp 32 +
STACK CFI 14544f $r12: .cfa -24 + ^ $r14: .cfa -16 + ^ $rbx: .cfa -32 + ^ .cfa: $rsp 304 +
STACK CFI INIT 145c60 520 .cfa: $rsp 8 + .ra: .cfa -8 + ^
STACK CFI 145c62 .cfa: $rsp 16 +
STACK CFI 145c64 .cfa: $rsp 24 +
STACK CFI 145c66 .cfa: $rsp 32 +
STACK CFI 145c67 .cfa: $rsp 40 +
STACK CFI 145c71 $r12: .cfa -32 + ^ $r13: .cfa -24 + ^ $r14: .cfa -16 + ^ $rbx: .cfa -40 + ^ .cfa: $rsp 224 +
STACK CFI INIT 1462e0 5a0 .cfa: $rsp 8 + .ra: .cfa -8 + ^
STACK CFI 1462e2 .cfa: $rsp 16 +
STACK CFI 1462e4 .cfa: $rsp 24 +
STACK CFI 1462e6 .cfa: $rsp 32 +
STACK CFI 1462e7 .cfa: $rsp 40 +
STACK CFI 1462f1 $r12: .cfa -32 + ^ $r13: .cfa -24 + ^ $r14: .cfa -16 + ^ $rbx: .cfa -40 + ^ .cfa: $rsp 272 +
STACK CFI INIT 146880 f00 .cfa: $rsp 8 + .ra: .cfa -8 + ^
STACK CFI 146882 .cfa: $rsp 16 +
STACK CFI 146884 .cfa: $rsp 24 +
STACK CFI 146886 .cfa: $rsp 32 +
STACK CFI 146887 .cfa: $rsp 40 +
STACK CFI 146891 $r12: .cfa -32 + ^ $r13: .cfa -24 + ^ $r14: .cfa -16 + ^ $rbx: .cfa -40 + ^ .cfa: $rsp 192 +
STACK CFI INIT 147960 460 .cfa: $rsp 8 + .ra: .cfa -8 + ^
STACK CFI 147962 .cfa: $rsp 16 +
STACK CFI 147964 .cfa: $rsp 24 +
STACK CFI 147966 .cfa: $rsp 32 +
STACK CFI 147967 .cfa: $rsp 40 +
STACK CFI 147968 $r12: .cfa -32 + ^ $r13: .cfa -24 + ^ $r14: .cfa -16 + ^ $rbx: .cfa -40 + ^ .cfa: $rsp 48 +
STACK CFI INIT 1483e0 560 .cfa: $rsp 8 + .ra: .cfa -8 + ^
STACK CFI 1483e2 .cfa: $rsp 16 +
STACK CFI 1483e4 .cfa: $rsp 24 +
STACK CFI 1483e6 .cfa: $rsp 32 +
STACK CFI 1483e7 .cfa: $rsp 40 +
STACK CFI 1483ee $r12: .cfa -32 + ^ $r13: .cfa -24 + ^ $r14: .cfa -16 + ^ $rbx: .cfa -40 + ^ .cfa: $rsp 80 +
STACK CFI INIT 148940 940 .cfa: $rsp 8 + .ra: .cfa -8 + ^
STACK CFI 148942 .cfa: $rsp 16 +
STACK CFI 148944 .cfa: $rsp 24 +
STACK CFI 148946 .cfa: $rsp 32 +
STACK CFI 148947 .cfa: $rsp 40 +
STACK CFI 14894e $r12: .cfa -32 + ^ $r13: .cfa -24 + ^ $r14: .cfa -16 + ^ $rbx: .cfa -40 + ^ .cfa: $rsp 80 +
STACK CFI INIT 149280 220 .cfa: $rsp 8 + .ra: .cfa -8 + ^
STACK CFI 149282 .cfa: $rsp 16 +
STACK CFI 149284 .cfa: $rsp 24 +
STACK CFI 149286 .cfa: $rsp 32 +
STACK CFI 149287 .cfa: $rsp 40 +
STACK CFI 149288 $r12: .cfa -32 + ^ $r13: .cfa -24 + ^ $r14: .cfa -16 + ^ $rbx: .cfa -40 + ^ .cfa: $rsp 48 +
STACK CFI INIT 1494a0 c00 .cfa: $rsp 8 + .ra: .cfa -8 + ^
STACK CFI 1494a2 .cfa: $rsp 16 +
STACK CFI 1494a4 .cfa: $rsp 24 +
STACK CFI 1494a6 .cfa: $rsp 32 +
STACK CFI 1494a7 .cfa: $rsp 40 +
STACK CFI 1494b1 $r12: .cfa -32 + ^ $r13: .cfa -24 + ^ $r14: .cfa -16 + ^ $rbx: .cfa -40 + ^ .cfa: $rsp 208 +
STACK CFI INIT 14a8e0 7440 .cfa: $rsp 8 + .ra: .cfa -8 + ^
STACK CFI 14a8e2 .cfa: $rsp 16 +
STACK CFI 14a8e4 .cfa: $rsp 24 +
STACK CFI 14a8e6 .cfa: $rsp 32 +
STACK CFI 14a8e7 .cfa: $rsp 40 +
STACK CFI 14a8f1 $r12: .cfa -32 + ^ $r13: .cfa -24 + ^ $r14: .cfa -16 + ^ $rbx: .cfa -40 + ^ .cfa: $rsp 1136 +
STACK CFI INIT 151d20 160 .cfa: $rsp 8 + .ra: .cfa -8 + ^
STACK CFI 151d22 .cfa: $rsp 16 +
STACK CFI 151d23 .cfa: $rsp 24 +
STACK CFI 151d24 $r14: .cfa -16 + ^ $rbx: .cfa -24 + ^ .cfa: $rsp 32 +
STACK CFI INIT 1522c0 2e0 .cfa: $rsp 8 + .ra: .cfa -8 + ^
STACK CFI 1522c2 .cfa: $rsp 16 +
STACK CFI 1522c4 .cfa: $rsp 24 +
STACK CFI 1522c6 .cfa: $rsp 32 +
STACK CFI 1522c7 .cfa: $rsp 40 +
STACK CFI 1522ce $r12: .cfa -32 + ^ $r13: .cfa -24 + ^ $r14: .cfa -16 + ^ $rbx: .cfa -40 + ^ .cfa: $rsp 64 +
STACK CFI INIT 1525a0 520 .cfa: $rsp 8 + .ra: .cfa -8 + ^
STACK CFI 1525a2 .cfa: $rsp 16 +
STACK CFI 1525a4 .cfa: $rsp 24 +
STACK CFI 1525a6 .cfa: $rsp 32 +
STACK CFI 1525a7 .cfa: $rsp 40 +
STACK CFI 1525b1 $r12: .cfa -32 + ^ $r13: .cfa -24 + ^ $r14: .cfa -16 + ^ $rbx: .cfa -40 + ^ .cfa: $rsp 224 +
STACK CFI INIT 152ae0 520 .cfa: $rsp 8 + .ra: .cfa -8 + ^
STACK CFI 152ae2 .cfa: $rsp 16 +
STACK CFI 152ae4 .cfa: $rsp 24 +
STACK CFI 152ae6 .cfa: $rsp 32 +
STACK CFI 152ae7 .cfa: $rsp 40 +
STACK CFI 152af1 $r12: .cfa -32 + ^ $r13: .cfa -24 + ^ $r14: .cfa -16 + ^ $rbx: .cfa -40 + ^ .cfa: $rsp 224 +
STACK CFI INIT 153300 380 .cfa: $rsp 8 + .ra: .cfa -8 + ^
STACK CFI 153301 .cfa: $rsp 16 +
STACK CFI 153308 $rbx: .cfa -16 + ^ .cfa: $rsp 48 +
STACK CFI INIT 153680 160 .cfa: $rsp 8 + .ra: .cfa -8 + ^
STACK CFI 153682 .cfa: $rsp 16 +
STACK CFI 153684 .cfa: $rsp 24 +
STACK CFI 153685 $r12: .cfa -24 + ^ $r14: .cfa -16 + ^ $rbx: .cfa -32 + ^ .cfa: $rsp 32 +
STACK CFI INIT 1537e0 180 .cfa: $rsp 8 + .ra: .cfa -8 + ^
STACK CFI 1537e2 .cfa: $rsp 16 +
STACK CFI 1537e3 .cfa: $rsp 24 +
STACK CFI 1537e4 $r14: .cfa -16 + ^ $rbx: .cfa -24 + ^ .cfa: $rsp 32 +
STACK CFI INIT 153960 1a0 .cfa: $rsp 8 + .ra: .cfa -8 + ^
STACK CFI 153962 .cfa: $rsp 16 +
STACK CFI 153963 .cfa: $rsp 24 +
STACK CFI 153964 $r14: .cfa -16 + ^ $rbx: .cfa -24 + ^ .cfa: $rsp 32 +
STACK CFI INIT 154060 a0 .cfa: $rsp 8 + .ra: .cfa -8 + ^
STACK CFI 154061 .cfa: $rsp 16 +
STACK CFI 154068 $rbx: .cfa -16 + ^ .cfa: $rsp 32 +
STACK CFI INIT 154100 8a0 .cfa: $rsp 8 + .ra: .cfa -8 + ^
STACK CFI 154102 .cfa: $rsp 16 +
STACK CFI 154104 .cfa: $rsp 24 +
STACK CFI 154106 .cfa: $rsp 32 +
STACK CFI 154107 .cfa: $rsp 40 +
STACK CFI 154111 $r12: .cfa -32 + ^ $r13: .cfa -24 + ^ $r14: .cfa -16 + ^ $rbx: .cfa -40 + ^ .cfa: $rsp 448 +
STACK CFI INIT 1549a0 520 .cfa: $rsp 8 + .ra: .cfa -8 + ^
STACK CFI 1549a2 .cfa: $rsp 16 +
STACK CFI 1549a4 .cfa: $rsp 24 +
STACK CFI 1549a6 .cfa: $rsp 32 +
STACK CFI 1549a7 .cfa: $rsp 40 +
STACK CFI 1549b1 $r12: .cfa -32 + ^ $r13: .cfa -24 + ^ $r14: .cfa -16 + ^ $rbx: .cfa -40 + ^ .cfa: $rsp 224 +
STACK CFI INIT 155620 2840 .cfa: $rsp 8 + .ra: .cfa -8 + ^
STACK CFI 155622 .cfa: $rsp 16 +
STACK CFI 155624 .cfa: $rsp 24 +
STACK CFI 155626 .cfa: $rsp 32 +
STACK CFI 155627 .cfa: $rsp 40 +
STACK CFI 155631 $r12: .cfa -32 + ^ $r13: .cfa -24 + ^ $r14: .cfa -16 + ^ $rbx: .cfa -40 + ^ .cfa: $rsp 1888 +
STACK CFI INIT 157e60 a20 .cfa: $rsp 8 + .ra: .cfa -8 + ^
STACK CFI 157e62 .cfa: $rsp 16 +
STACK CFI 157e64 .cfa: $rsp 24 +
STACK CFI 157e66 .cfa: $rsp 32 +
STACK CFI 157e67 .cfa: $rsp 40 +
STACK CFI 157e6e $r12: .cfa -32 + ^ $r13: .cfa -24 + ^ $r14: .cfa -16 + ^ $rbx: .cfa -40 + ^ .cfa: $rsp 128 +
STACK CFI INIT 158880 1c0 .cfa: $rsp 8 + .ra: .cfa -8 + ^
STACK CFI 158882 .cfa: $rsp 16 +
STACK CFI 158883 .cfa: $rsp 24 +
STACK CFI 15888a $r14: .cfa -16 + ^ $rbx: .cfa -24 + ^ .cfa: $rsp 48 +
STACK CFI INIT 158a40 f80 .cfa: $rsp 8 + .ra: .cfa -8 + ^
STACK CFI 158a42 .cfa: $rsp 16 +
STACK CFI 158a44 .cfa: $rsp 24 +
STACK CFI 158a46 .cfa: $rsp 32 +
STACK CFI 158a47 .cfa: $rsp 40 +
STACK CFI 158a51 $r12: .cfa -32 + ^ $r13: .cfa -24 + ^ $r14: .cfa -16 + ^ $rbx: .cfa -40 + ^ .cfa: $rsp 208 +
STACK CFI INIT 1599c0 520 .cfa: $rsp 8 + .ra: .cfa -8 + ^
STACK CFI 1599c1 .cfa: $rsp 16 +
STACK CFI 1599c8 $rbx: .cfa -16 + ^ .cfa: $rsp 128 +
STACK CFI INIT 159ee0 a0 .cfa: $rsp 8 + .ra: .cfa -8 + ^
STACK CFI 159ee1 .cfa: $rsp 16 +
STACK CFI 159ee8 $rbx: .cfa -16 + ^ .cfa: $rsp 32 +
STACK CFI INIT 15a200 400 .cfa: $rsp 8 + .ra: .cfa -8 + ^
STACK CFI 15a202 .cfa: $rsp 16 +
STACK CFI 15a204 .cfa: $rsp 24 +
STACK CFI 15a206 .cfa: $rsp 32 +
STACK CFI 15a207 .cfa: $rsp 40 +
STACK CFI 15a20e $r12: .cfa -32 + ^ $r13: .cfa -24 + ^ $r14: .cfa -16 + ^ $rbx: .cfa -40 + ^ .cfa: $rsp 112 +
STACK CFI INIT 15a660 1a0 .cfa: $rsp 8 + .ra: .cfa -8 + ^
STACK CFI 15a662 .cfa: $rsp 16 +
STACK CFI 15a663 .cfa: $rsp 24 +
STACK CFI 15a66a $r14: .cfa -16 + ^ $rbx: .cfa -24 + ^ .cfa: $rsp 64 +
STACK CFI INIT 15a980 240 .cfa: $rsp 8 + .ra: .cfa -8 + ^
STACK CFI 15a981 .cfa: $rsp 16 +
STACK CFI 15a988 $rbx: .cfa -16 + ^ .cfa: $rsp 64 +
STACK CFI INIT 15ad20 1e0 .cfa: $rsp 8 + .ra: .cfa -8 + ^
STACK CFI 15ad22 .cfa: $rsp 16 +
STACK CFI 15ad24 .cfa: $rsp 24 +
STACK CFI 15ad25 .cfa: $rsp 32 +
STACK CFI 15ad2c $r12: .cfa -24 + ^ $r14: .cfa -16 + ^ $rbx: .cfa -32 + ^ .cfa: $rsp 48 +
STACK CFI INIT 15b0e0 b40 .cfa: $rsp 8 + .ra: .cfa -8 + ^
STACK CFI 15b0e2 .cfa: $rsp 16 +
STACK CFI 15b0e4 .cfa: $rsp 24 +
STACK CFI 15b0e6 .cfa: $rsp 32 +
STACK CFI 15b0e7 .cfa: $rsp 40 +
STACK CFI 15b0f1 $r12: .cfa -32 + ^ $r13: .cfa -24 + ^ $r14: .cfa -16 + ^ $rbx: .cfa -40 + ^ .cfa: $rsp 432 +
STACK CFI INIT 15bd40 74c0 .cfa: $rsp 8 + .ra: .cfa -8 + ^
STACK CFI 15bd42 .cfa: $rsp 16 +
STACK CFI 15bd44 .cfa: $rsp 24 +
STACK CFI 15bd46 .cfa: $rsp 32 +
STACK CFI 15bd47 .cfa: $rsp 40 +
STACK CFI 15bd51 $r12: .cfa -32 + ^ $r13: .cfa -24 + ^ $r14: .cfa -16 + ^ $rbx: .cfa -40 + ^ .cfa: $rsp 336400 +
STACK CFI INIT 1632a0 a0 .cfa: $rsp 8 + .ra: .cfa -8 + ^
STACK CFI 1632a1 .cfa: $rsp 16 +
STACK CFI 1632a8 $rbx: .cfa -16 + ^ .cfa: $rsp 32 +
STACK CFI INIT 163ea0 200 .cfa: $rsp 8 + .ra: .cfa -8 + ^
STACK CFI 163ea1 .cfa: $rsp 16 +
STACK CFI 163ea8 $rbx: .cfa -16 + ^ .cfa: $rsp 48 +
STACK CFI INIT 1640a0 500 .cfa: $rsp 8 + .ra: .cfa -8 + ^
STACK CFI 1640a2 .cfa: $rsp 16 +
STACK CFI 1640a4 .cfa: $rsp 24 +
STACK CFI 1640a6 .cfa: $rsp 32 +
STACK CFI 1640a7 .cfa: $rsp 40 +
STACK CFI 1640b1 $r12: .cfa -32 + ^ $r13: .cfa -24 + ^ $r14: .cfa -16 + ^ $rbx: .cfa -40 + ^ .cfa: $rsp 224 +
STACK CFI INIT 168640 160 .cfa: $rsp 8 + .ra: .cfa -8 + ^
STACK CFI 168641 .cfa: $rsp 16 +
STACK CFI 168648 $rbx: .cfa -16 + ^ .cfa: $rsp 48 +
STACK CFI INIT 16c0e0 160 .cfa: $rsp 8 + .ra: .cfa -8 + ^
STACK CFI 16c0e1 .cfa: $rsp 16 +
STACK CFI 16c0e8 $rbx: .cfa -16 + ^ .cfa: $rsp 48 +
STACK CFI INIT 16e4a0 500 .cfa: $rsp 8 + .ra: .cfa -8 + ^
STACK CFI 16e4a2 .cfa: $rsp 16 +
STACK CFI 16e4a4 .cfa: $rsp 24 +
STACK CFI 16e4a6 .cfa: $rsp 32 +
STACK CFI 16e4a7 .cfa: $rsp 40 +
STACK CFI 16e4b1 $r12: .cfa -32 + ^ $r13: .cfa -24 + ^ $r14: .cfa -16 + ^ $rbx: .cfa -40 + ^ .cfa: $rsp 224 +
STACK CFI INIT 16ea40 500 .cfa: $rsp 8 + .ra: .cfa -8 + ^
STACK CFI 16ea42 .cfa: $rsp 16 +
STACK CFI 16ea44 .cfa: $rsp 24 +
STACK CFI 16ea46 .cfa: $rsp 32 +
STACK CFI 16ea47 .cfa: $rsp 40 +
STACK CFI 16ea51 $r12: .cfa -32 + ^ $r13: .cfa -24 + ^ $r14: .cfa -16 + ^ $rbx: .cfa -40 + ^ .cfa: $rsp 224 +
STACK CFI INIT 170820 240 .cfa: $rsp 8 + .ra: .cfa -8 + ^
STACK CFI 170822 .cfa: $rsp 16 +
STACK CFI 170823 .cfa: $rsp 24 +
STACK CFI 17082a $r14: .cfa -16 + ^ $rbx: .cfa -24 + ^ .cfa: $rsp 80 +
STACK CFI INIT 171460 3c0 .cfa: $rsp 8 + .ra: .cfa -8 + ^
STACK CFI 171462 .cfa: $rsp 16 +
STACK CFI 171464 .cfa: $rsp 24 +
STACK CFI 171466 .cfa: $rsp 32 +
STACK CFI 171467 .cfa: $rsp 40 +
STACK CFI 17146e $r12: .cfa -32 + ^ $r13: .cfa -24 + ^ $r14: .cfa -16 + ^ $rbx: .cfa -40 + ^ .cfa: $rsp 80 +
STACK CFI INIT 171fa0 300 .cfa: $rsp 8 + .ra: .cfa -8 + ^
STACK CFI 171fa2 .cfa: $rsp 16 +
STACK CFI 171fa3 .cfa: $rsp 24 +
STACK CFI 171fad $r14: .cfa -16 + ^ $rbx: .cfa -24 + ^ .cfa: $rsp 8240 +
STACK CFI INIT 1722a0 2c0 .cfa: $rsp 8 + .ra: .cfa -8 + ^
STACK CFI 1722a2 .cfa: $rsp 16 +
STACK CFI 1722a4 .cfa: $rsp 24 +
STACK CFI 1722a5 .cfa: $rsp 32 +
STACK CFI 1722ac $r12: .cfa -24 + ^ $r14: .cfa -16 + ^ $rbx: .cfa -32 + ^ .cfa: $rsp 64 +
STACK CFI INIT 172900 4c0 .cfa: $rsp 8 + .ra: .cfa -8 + ^
STACK CFI 172902 .cfa: $rsp 16 +
STACK CFI 172904 .cfa: $rsp 24 +
STACK CFI 172906 .cfa: $rsp 32 +
STACK CFI 172907 .cfa: $rsp 40 +
STACK CFI 172911 $r12: .cfa -32 + ^ $r13: .cfa -24 + ^ $r14: .cfa -16 + ^ $rbx: .cfa -40 + ^ .cfa: $rsp 256 +
STACK CFI INIT 172dc0 620 .cfa: $rsp 8 + .ra: .cfa -8 + ^
STACK CFI 172dc2 .cfa: $rsp 16 +
STACK CFI 172dc4 .cfa: $rsp 24 +
STACK CFI 172dc6 .cfa: $rsp 32 +
STACK CFI 172dc7 .cfa: $rsp 40 +
STACK CFI 172dd1 $r12: .cfa -32 + ^ $r13: .cfa -24 + ^ $r14: .cfa -16 + ^ $rbx: .cfa -40 + ^ .cfa: $rsp 288 +
STACK CFI INIT 179ec0 9a0 .cfa: $rsp 8 + .ra: .cfa -8 + ^
STACK CFI 179ec2 .cfa: $rsp 16 +
STACK CFI 179ec4 .cfa: $rsp 24 +
STACK CFI 179ec6 .cfa: $rsp 32 +
STACK CFI 179ec7 .cfa: $rsp 40 +
STACK CFI 179ec8 $r12: .cfa -32 + ^ $r13: .cfa -24 + ^ $r14: .cfa -16 + ^ $rbx: .cfa -40 + ^ .cfa: $rsp 48 +
STACK CFI INIT 17aa60 600 .cfa: $rsp 8 + .ra: .cfa -8 + ^
STACK CFI 17aa62 .cfa: $rsp 16 +
STACK CFI 17aa64 .cfa: $rsp 24 +
STACK CFI 17aa66 .cfa: $rsp 32 +
STACK CFI 17aa67 .cfa: $rsp 40 +
STACK CFI 17aa6e $r12: .cfa -32 + ^ $r13: .cfa -24 + ^ $r14: .cfa -16 + ^ $rbx: .cfa -40 + ^ .cfa: $rsp 144 +
STACK CFI INIT 17b060 860 .cfa: $rsp 8 + .ra: .cfa -8 + ^
STACK CFI 17b062 .cfa: $rsp 16 +
STACK CFI 17b064 .cfa: $rsp 24 +
STACK CFI 17b066 .cfa: $rsp 32 +
STACK CFI 17b067 .cfa: $rsp 40 +
STACK CFI 17b071 $r12: .cfa -32 + ^ $r13: .cfa -24 + ^ $r14: .cfa -16 + ^ $rbx: .cfa -40 + ^ .cfa: $rsp 224 +
STACK CFI INIT 17b8c0 760 .cfa: $rsp 8 + .ra: .cfa -8 + ^
STACK CFI 17b8c2 .cfa: $rsp 16 +
STACK CFI 17b8c4 .cfa: $rsp 24 +
STACK CFI 17b8c6 .cfa: $rsp 32 +
STACK CFI 17b8c7 .cfa: $rsp 40 +
STACK CFI 17b8d1 $r12: .cfa -32 + ^ $r13: .cfa -24 + ^ $r14: .cfa -16 + ^ $rbx: .cfa -40 + ^ .cfa: $rsp 352 +
STACK CFI INIT 17c020 760 .cfa: $rsp 8 + .ra: .cfa -8 + ^
STACK CFI 17c022 .cfa: $rsp 16 +
STACK CFI 17c024 .cfa: $rsp 24 +
STACK CFI 17c026 .cfa: $rsp 32 +
STACK CFI 17c027 .cfa: $rsp 40 +
STACK CFI 17c031 $r12: .cfa -32 + ^ $r13: .cfa -24 + ^ $r14: .cfa -16 + ^ $rbx: .cfa -40 + ^ .cfa: $rsp 352 +
STACK CFI INIT 17c780 760 .cfa: $rsp 8 + .ra: .cfa -8 + ^
STACK CFI 17c782 .cfa: $rsp 16 +
STACK CFI 17c784 .cfa: $rsp 24 +
STACK CFI 17c786 .cfa: $rsp 32 +
STACK CFI 17c787 .cfa: $rsp 40 +
STACK CFI 17c791 $r12: .cfa -32 + ^ $r13: .cfa -24 + ^ $r14: .cfa -16 + ^ $rbx: .cfa -40 + ^ .cfa: $rsp 352 +
STACK CFI INIT 17cee0 760 .cfa: $rsp 8 + .ra: .cfa -8 + ^
STACK CFI 17cee2 .cfa: $rsp 16 +
STACK CFI 17cee4 .cfa: $rsp 24 +
STACK CFI 17cee6 .cfa: $rsp 32 +
STACK CFI 17cee7 .cfa: $rsp 40 +
STACK CFI 17cef1 $r12: .cfa -32 + ^ $r13: .cfa -24 + ^ $r14: .cfa -16 + ^ $rbx: .cfa -40 + ^ .cfa: $rsp 352 +
STACK CFI INIT 17d640 760 .cfa: $rsp 8 + .ra: .cfa -8 + ^
STACK CFI 17d642 .cfa: $rsp 16 +
STACK CFI 17d644 .cfa: $rsp 24 +
STACK CFI 17d646 .cfa: $rsp 32 +
STACK CFI 17d647 .cfa: $rsp 40 +
STACK CFI 17d651 $r12: .cfa -32 + ^ $r13: .cfa -24 + ^ $r14: .cfa -16 + ^ $rbx: .cfa -40 + ^ .cfa: $rsp 352 +
STACK CFI INIT 17dda0 760 .cfa: $rsp 8 + .ra: .cfa -8 + ^
STACK CFI 17dda2 .cfa: $rsp 16 +
STACK CFI 17dda4 .cfa: $rsp 24 +
STACK CFI 17dda6 .cfa: $rsp 32 +
STACK CFI 17dda7 .cfa: $rsp 40 +
STACK CFI 17ddb1 $r12: .cfa -32 + ^ $r13: .cfa -24 + ^ $r14: .cfa -16 + ^ $rbx: .cfa -40 + ^ .cfa: $rsp 352 +
STACK CFI INIT 17e500 7a0 .cfa: $rsp 8 + .ra: .cfa -8 + ^
STACK CFI 17e502 .cfa: $rsp 16 +
STACK CFI 17e504 .cfa: $rsp 24 +
STACK CFI 17e506 .cfa: $rsp 32 +
STACK CFI 17e507 .cfa: $rsp 40 +
STACK CFI 17e511 $r12: .cfa -32 + ^ $r13: .cfa -24 + ^ $r14: .cfa -16 + ^ $rbx: .cfa -40 + ^ .cfa: $rsp 384 +
STACK CFI INIT 17eca0 7a0 .cfa: $rsp 8 + .ra: .cfa -8 + ^
STACK CFI 17eca2 .cfa: $rsp 16 +
STACK CFI 17eca4 .cfa: $rsp 24 +
STACK CFI 17eca6 .cfa: $rsp 32 +
STACK CFI 17eca7 .cfa: $rsp 40 +
STACK CFI 17ecb1 $r12: .cfa -32 + ^ $r13: .cfa -24 + ^ $r14: .cfa -16 + ^ $rbx: .cfa -40 + ^ .cfa: $rsp 384 +
STACK CFI INIT 17f440 7a0 .cfa: $rsp 8 + .ra: .cfa -8 + ^
STACK CFI 17f442 .cfa: $rsp 16 +
STACK CFI 17f444 .cfa: $rsp 24 +
STACK CFI 17f446 .cfa: $rsp 32 +
STACK CFI 17f447 .cfa: $rsp 40 +
STACK CFI 17f451 $r12: .cfa -32 + ^ $r13: .cfa -24 + ^ $r14: .cfa -16 + ^ $rbx: .cfa -40 + ^ .cfa: $rsp 384 +
STACK CFI INIT 17fbe0 8e0 .cfa: $rsp 8 + .ra: .cfa -8 + ^
STACK CFI 17fbe2 .cfa: $rsp 16 +
STACK CFI 17fbe4 .cfa: $rsp 24 +
STACK CFI 17fbe6 .cfa: $rsp 32 +
STACK CFI 17fbe7 .cfa: $rsp 40 +
STACK CFI 17fbf1 $r12: .cfa -32 + ^ $r13: .cfa -24 + ^ $r14: .cfa -16 + ^ $rbx: .cfa -40 + ^ .cfa: $rsp 352 +
STACK CFI INIT 180980 600 .cfa: $rsp 8 + .ra: .cfa -8 + ^
STACK CFI 180982 .cfa: $rsp 16 +
STACK CFI 180984 .cfa: $rsp 24 +
STACK CFI 180986 .cfa: $rsp 32 +
STACK CFI 180987 .cfa: $rsp 40 +
STACK CFI 18098e $r12: .cfa -32 + ^ $r13: .cfa -24 + ^ $r14: .cfa -16 + ^ $rbx: .cfa -40 + ^ .cfa: $rsp 144 +
STACK CFI INIT 180f80 8e0 .cfa: $rsp 8 + .ra: .cfa -8 + ^
STACK CFI 180f82 .cfa: $rsp 16 +
STACK CFI 180f84 .cfa: $rsp 24 +
STACK CFI 180f86 .cfa: $rsp 32 +
STACK CFI 180f87 .cfa: $rsp 40 +
STACK CFI 180f91 $r12: .cfa -32 + ^ $r13: .cfa -24 + ^ $r14: .cfa -16 + ^ $rbx: .cfa -40 + ^ .cfa: $rsp 240 +
STACK CFI INIT 181860 7c0 .cfa: $rsp 8 + .ra: .cfa -8 + ^
STACK CFI 181862 .cfa: $rsp 16 +
STACK CFI 181864 .cfa: $rsp 24 +
STACK CFI 181866 .cfa: $rsp 32 +
STACK CFI 181867 .cfa: $rsp 40 +
STACK CFI 181871 $r12: .cfa -32 + ^ $r13: .cfa -24 + ^ $r14: .cfa -16 + ^ $rbx: .cfa -40 + ^ .cfa: $rsp 432 +
STACK CFI INIT 182020 7c0 .cfa: $rsp 8 + .ra: .cfa -8 + ^
STACK CFI 182022 .cfa: $rsp 16 +
STACK CFI 182024 .cfa: $rsp 24 +
STACK CFI 182026 .cfa: $rsp 32 +
STACK CFI 182027 .cfa: $rsp 40 +
STACK CFI 182031 $r12: .cfa -32 + ^ $r13: .cfa -24 + ^ $r14: .cfa -16 + ^ $rbx: .cfa -40 + ^ .cfa: $rsp 432 +
STACK CFI INIT 1827e0 7c0 .cfa: $rsp 8 + .ra: .cfa -8 + ^
STACK CFI 1827e2 .cfa: $rsp 16 +
STACK CFI 1827e4 .cfa: $rsp 24 +
STACK CFI 1827e6 .cfa: $rsp 32 +
STACK CFI 1827e7 .cfa: $rsp 40 +
STACK CFI 1827f1 $r12: .cfa -32 + ^ $r13: .cfa -24 + ^ $r14: .cfa -16 + ^ $rbx: .cfa -40 + ^ .cfa: $rsp 432 +
STACK CFI INIT 182fa0 7c0 .cfa: $rsp 8 + .ra: .cfa -8 + ^
STACK CFI 182fa2 .cfa: $rsp 16 +
STACK CFI 182fa4 .cfa: $rsp 24 +
STACK CFI 182fa6 .cfa: $rsp 32 +
STACK CFI 182fa7 .cfa: $rsp 40 +
STACK CFI 182fb1 $r12: .cfa -32 + ^ $r13: .cfa -24 + ^ $r14: .cfa -16 + ^ $rbx: .cfa -40 + ^ .cfa: $rsp 432 +
STACK CFI INIT 183760 7c0 .cfa: $rsp 8 + .ra: .cfa -8 + ^
STACK CFI 183762 .cfa: $rsp 16 +
STACK CFI 183764 .cfa: $rsp 24 +
STACK CFI 183766 .cfa: $rsp 32 +
STACK CFI 183767 .cfa: $rsp 40 +
STACK CFI 183771 $r12: .cfa -32 + ^ $r13: .cfa -24 + ^ $r14: .cfa -16 + ^ $rbx: .cfa -40 + ^ .cfa: $rsp 432 +
STACK CFI INIT 183f20 7c0 .cfa: $rsp 8 + .ra: .cfa -8 + ^
STACK CFI 183f22 .cfa: $rsp 16 +
STACK CFI 183f24 .cfa: $rsp 24 +
STACK CFI 183f26 .cfa: $rsp 32 +
STACK CFI 183f27 .cfa: $rsp 40 +
STACK CFI 183f31 $r12: .cfa -32 + ^ $r13: .cfa -24 + ^ $r14: .cfa -16 + ^ $rbx: .cfa -40 + ^ .cfa: $rsp 432 +
STACK CFI INIT 1846e0 7e0 .cfa: $rsp 8 + .ra: .cfa -8 + ^
STACK CFI 1846e2 .cfa: $rsp 16 +
STACK CFI 1846e4 .cfa: $rsp 24 +
STACK CFI 1846e6 .cfa: $rsp 32 +
STACK CFI 1846e7 .cfa: $rsp 40 +
STACK CFI 1846f1 $r12: .cfa -32 + ^ $r13: .cfa -24 + ^ $r14: .cfa -16 + ^ $rbx: .cfa -40 + ^ .cfa: $rsp 480 +
STACK CFI INIT 184ec0 7e0 .cfa: $rsp 8 + .ra: .cfa -8 + ^
STACK CFI 184ec2 .cfa: $rsp 16 +
STACK CFI 184ec4 .cfa: $rsp 24 +
STACK CFI 184ec6 .cfa: $rsp 32 +
STACK CFI 184ec7 .cfa: $rsp 40 +
STACK CFI 184ed1 $r12: .cfa -32 + ^ $r13: .cfa -24 + ^ $r14: .cfa -16 + ^ $rbx: .cfa -40 + ^ .cfa: $rsp 480 +
STACK CFI INIT 1856a0 7e0 .cfa: $rsp 8 + .ra: .cfa -8 + ^
STACK CFI 1856a2 .cfa: $rsp 16 +
STACK CFI 1856a4 .cfa: $rsp 24 +
STACK CFI 1856a6 .cfa: $rsp 32 +
STACK CFI 1856a7 .cfa: $rsp 40 +
STACK CFI 1856b1 $r12: .cfa -32 + ^ $r13: .cfa -24 + ^ $r14: .cfa -16 + ^ $rbx: .cfa -40 + ^ .cfa: $rsp 480 +
STACK CFI INIT 185e80 960 .cfa: $rsp 8 + .ra: .cfa -8 + ^
STACK CFI 185e82 .cfa: $rsp 16 +
STACK CFI 185e84 .cfa: $rsp 24 +
STACK CFI 185e86 .cfa: $rsp 32 +
STACK CFI 185e87 .cfa: $rsp 40 +
STACK CFI 185e91 $r12: .cfa -32 + ^ $r13: .cfa -24 + ^ $r14: .cfa -16 + ^ $rbx: .cfa -40 + ^ .cfa: $rsp 432 +
STACK CFI INIT 186b60 2c0 .cfa: $rsp 8 + .ra: .cfa -8 + ^
STACK CFI 186b62 .cfa: $rsp 16 +
STACK CFI 186b64 .cfa: $rsp 24 +
STACK CFI 186b66 .cfa: $rsp 32 +
STACK CFI 186b67 .cfa: $rsp 40 +
STACK CFI 186b68 $r12: .cfa -32 + ^ $r13: .cfa -24 + ^ $r14: .cfa -16 + ^ $rbx: .cfa -40 + ^ .cfa: $rsp 48 +
STACK CFI INIT 186e20 300 .cfa: $rsp 8 + .ra: .cfa -8 + ^
STACK CFI 186e22 .cfa: $rsp 16 +
STACK CFI 186e24 .cfa: $rsp 24 +
STACK CFI 186e26 .cfa: $rsp 32 +
STACK CFI 186e27 .cfa: $rsp 40 +
STACK CFI 186e2e $r12: .cfa -32 + ^ $r13: .cfa -24 + ^ $r14: .cfa -16 + ^ $rbx: .cfa -40 + ^ .cfa: $rsp 64 +
STACK CFI INIT 187420 2c0 .cfa: $rsp 8 + .ra: .cfa -8 + ^
STACK CFI 187422 .cfa: $rsp 16 +
STACK CFI 187424 .cfa: $rsp 24 +
STACK CFI 187426 .cfa: $rsp 32 +
STACK CFI 187427 .cfa: $rsp 40 +
STACK CFI 187428 $r12: .cfa -32 + ^ $r13: .cfa -24 + ^ $r14: .cfa -16 + ^ $rbx: .cfa -40 + ^ .cfa: $rsp 48 +
STACK CFI INIT 1876e0 300 .cfa: $rsp 8 + .ra: .cfa -8 + ^
STACK CFI 1876e2 .cfa: $rsp 16 +
STACK CFI 1876e4 .cfa: $rsp 24 +
STACK CFI 1876e6 .cfa: $rsp 32 +
STACK CFI 1876e7 .cfa: $rsp 40 +
STACK CFI 1876ee $r12: .cfa -32 + ^ $r13: .cfa -24 + ^ $r14: .cfa -16 + ^ $rbx: .cfa -40 + ^ .cfa: $rsp 64 +
STACK CFI INIT 187ce0 3e0 .cfa: $rsp 8 + .ra: .cfa -8 + ^
STACK CFI 187ce2 .cfa: $rsp 16 +
STACK CFI 187ce4 .cfa: $rsp 24 +
STACK CFI 187ce6 .cfa: $rsp 32 +
STACK CFI 187ce7 .cfa: $rsp 40 +
STACK CFI 187cee $r12: .cfa -32 + ^ $r13: .cfa -24 + ^ $r14: .cfa -16 + ^ $rbx: .cfa -40 + ^ .cfa: $rsp 80 +
STACK CFI INIT 1880c0 2a0 .cfa: $rsp 8 + .ra: .cfa -8 + ^
STACK CFI 1880c2 .cfa: $rsp 16 +
STACK CFI 1880c4 .cfa: $rsp 24 +
STACK CFI 1880c6 .cfa: $rsp 32 +
STACK CFI 1880c7 .cfa: $rsp 40 +
STACK CFI 1880ce $r12: .cfa -32 + ^ $r13: .cfa -24 + ^ $r14: .cfa -16 + ^ $rbx: .cfa -40 + ^ .cfa: $rsp 128 +
STACK CFI INIT 188480 680 .cfa: $rsp 8 + .ra: .cfa -8 + ^
STACK CFI 188482 .cfa: $rsp 16 +
STACK CFI 188484 .cfa: $rsp 24 +
STACK CFI 188486 .cfa: $rsp 32 +
STACK CFI 188487 .cfa: $rsp 40 +
STACK CFI 18848e $r12: .cfa -32 + ^ $r13: .cfa -24 + ^ $r14: .cfa -16 + ^ $rbx: .cfa -40 + ^ .cfa: $rsp 128 +
STACK CFI INIT 188b00 2a0 .cfa: $rsp 8 + .ra: .cfa -8 + ^
STACK CFI 188b02 .cfa: $rsp 16 +
STACK CFI 188b04 .cfa: $rsp 24 +
STACK CFI 188b06 .cfa: $rsp 32 +
STACK CFI 188b07 .cfa: $rsp 40 +
STACK CFI 188b0e $r12: .cfa -32 + ^ $r13: .cfa -24 + ^ $r14: .cfa -16 + ^ $rbx: .cfa -40 + ^ .cfa: $rsp 160 +
STACK CFI INIT 188da0 2a0 .cfa: $rsp 8 + .ra: .cfa -8 + ^
STACK CFI 188da2 .cfa: $rsp 16 +
STACK CFI 188da4 .cfa: $rsp 24 +
STACK CFI 188da6 .cfa: $rsp 32 +
STACK CFI 188da7 .cfa: $rsp 40 +
STACK CFI 188dae $r12: .cfa -32 + ^ $r13: .cfa -24 + ^ $r14: .cfa -16 + ^ $rbx: .cfa -40 + ^ .cfa: $rsp 128 +
STACK CFI INIT 189040 2a0 .cfa: $rsp 8 + .ra: .cfa -8 + ^
STACK CFI 189042 .cfa: $rsp 16 +
STACK CFI 189044 .cfa: $rsp 24 +
STACK CFI 189046 .cfa: $rsp 32 +
STACK CFI 189047 .cfa: $rsp 40 +
STACK CFI 18904e $r12: .cfa -32 + ^ $r13: .cfa -24 + ^ $r14: .cfa -16 + ^ $rbx: .cfa -40 + ^ .cfa: $rsp 160 +
STACK CFI INIT 1892e0 620 .cfa: $rsp 8 + .ra: .cfa -8 + ^
STACK CFI 1892e2 .cfa: $rsp 16 +
STACK CFI 1892e4 .cfa: $rsp 24 +
STACK CFI 1892e6 .cfa: $rsp 32 +
STACK CFI 1892e7 .cfa: $rsp 40 +
STACK CFI 1892f1 $r12: .cfa -32 + ^ $r13: .cfa -24 + ^ $r14: .cfa -16 + ^ $rbx: .cfa -40 + ^ .cfa: $rsp 256 +
STACK CFI INIT 189b40 880 .cfa: $rsp 8 + .ra: .cfa -8 + ^
STACK CFI 189b42 .cfa: $rsp 16 +
STACK CFI 189b44 .cfa: $rsp 24 +
STACK CFI 189b46 .cfa: $rsp 32 +
STACK CFI 189b47 .cfa: $rsp 40 +
STACK CFI 189b4e $r12: .cfa -32 + ^ $r13: .cfa -24 + ^ $r14: .cfa -16 + ^ $rbx: .cfa -40 + ^ .cfa: $rsp 128 +
STACK CFI INIT 18a3c0 660 .cfa: $rsp 8 + .ra: .cfa -8 + ^
STACK CFI 18a3c2 .cfa: $rsp 16 +
STACK CFI 18a3c4 .cfa: $rsp 24 +
STACK CFI 18a3c6 .cfa: $rsp 32 +
STACK CFI 18a3c7 .cfa: $rsp 40 +
STACK CFI 18a3d1 $r12: .cfa -32 + ^ $r13: .cfa -24 + ^ $r14: .cfa -16 + ^ $rbx: .cfa -40 + ^ .cfa: $rsp 272 +
STACK CFI INIT 18aa20 320 .cfa: $rsp 8 + .ra: .cfa -8 + ^
STACK CFI 18aa22 .cfa: $rsp 16 +
STACK CFI 18aa24 .cfa: $rsp 24 +
STACK CFI 18aa26 .cfa: $rsp 32 +
STACK CFI 18aa27 .cfa: $rsp 40 +
STACK CFI 18aa2e $r12: .cfa -32 + ^ $r13: .cfa -24 + ^ $r14: .cfa -16 + ^ $rbx: .cfa -40 + ^ .cfa: $rsp 160 +
STACK CFI INIT 18ad40 3c0 .cfa: $rsp 8 + .ra: .cfa -8 + ^
STACK CFI 18ad42 .cfa: $rsp 16 +
STACK CFI 18ad44 .cfa: $rsp 24 +
STACK CFI 18ad46 .cfa: $rsp 32 +
STACK CFI 18ad47 .cfa: $rsp 40 +
STACK CFI 18ad4e $r12: .cfa -32 + ^ $r13: .cfa -24 + ^ $r14: .cfa -16 + ^ $rbx: .cfa -40 + ^ .cfa: $rsp 80 +
STACK CFI INIT 18b100 2c0 .cfa: $rsp 8 + .ra: .cfa -8 + ^
STACK CFI 18b102 .cfa: $rsp 16 +
STACK CFI 18b104 .cfa: $rsp 24 +
STACK CFI 18b106 .cfa: $rsp 32 +
STACK CFI 18b107 .cfa: $rsp 40 +
STACK CFI 18b111 $r12: .cfa -32 + ^ $r13: .cfa -24 + ^ $r14: .cfa -16 + ^ $rbx: .cfa -40 + ^ .cfa: $rsp 192 +
STACK CFI INIT 18b3c0 6a0 .cfa: $rsp 8 + .ra: .cfa -8 + ^
STACK CFI 18b3c2 .cfa: $rsp 16 +
STACK CFI 18b3c4 .cfa: $rsp 24 +
STACK CFI 18b3c6 .cfa: $rsp 32 +
STACK CFI 18b3c7 .cfa: $rsp 40 +
STACK CFI 18b3ce $r12: .cfa -32 + ^ $r13: .cfa -24 + ^ $r14: .cfa -16 + ^ $rbx: .cfa -40 + ^ .cfa: $rsp 128 +
STACK CFI INIT 18ba60 2a0 .cfa: $rsp 8 + .ra: .cfa -8 + ^
STACK CFI 18ba62 .cfa: $rsp 16 +
STACK CFI 18ba64 .cfa: $rsp 24 +
STACK CFI 18ba66 .cfa: $rsp 32 +
STACK CFI 18ba67 .cfa: $rsp 40 +
STACK CFI 18ba6e $r12: .cfa -32 + ^ $r13: .cfa -24 + ^ $r14: .cfa -16 + ^ $rbx: .cfa -40 + ^ .cfa: $rsp 80 +
STACK CFI INIT 18bd00 2a0 .cfa: $rsp 8 + .ra: .cfa -8 + ^
STACK CFI 18bd02 .cfa: $rsp 16 +
STACK CFI 18bd04 .cfa: $rsp 24 +
STACK CFI 18bd06 .cfa: $rsp 32 +
STACK CFI 18bd07 .cfa: $rsp 40 +
STACK CFI 18bd11 $r12: .cfa -32 + ^ $r13: .cfa -24 + ^ $r14: .cfa -16 + ^ $rbx: .cfa -40 + ^ .cfa: $rsp 288 +
STACK CFI INIT 18bfa0 2a0 .cfa: $rsp 8 + .ra: .cfa -8 + ^
STACK CFI 18bfa2 .cfa: $rsp 16 +
STACK CFI 18bfa4 .cfa: $rsp 24 +
STACK CFI 18bfa6 .cfa: $rsp 32 +
STACK CFI 18bfa7 .cfa: $rsp 40 +
STACK CFI 18bfb1 $r12: .cfa -32 + ^ $r13: .cfa -24 + ^ $r14: .cfa -16 + ^ $rbx: .cfa -40 + ^ .cfa: $rsp 192 +
STACK CFI INIT 18c240 2a0 .cfa: $rsp 8 + .ra: .cfa -8 + ^
STACK CFI 18c242 .cfa: $rsp 16 +
STACK CFI 18c244 .cfa: $rsp 24 +
STACK CFI 18c246 .cfa: $rsp 32 +
STACK CFI 18c247 .cfa: $rsp 40 +
STACK CFI 18c251 $r12: .cfa -32 + ^ $r13: .cfa -24 + ^ $r14: .cfa -16 + ^ $rbx: .cfa -40 + ^ .cfa: $rsp 288 +
STACK CFI INIT 18c4e0 620 .cfa: $rsp 8 + .ra: .cfa -8 + ^
STACK CFI 18c4e2 .cfa: $rsp 16 +
STACK CFI 18c4e4 .cfa: $rsp 24 +
STACK CFI 18c4e6 .cfa: $rsp 32 +
STACK CFI 18c4e7 .cfa: $rsp 40 +
STACK CFI 18c4f1 $r12: .cfa -32 + ^ $r13: .cfa -24 + ^ $r14: .cfa -16 + ^ $rbx: .cfa -40 + ^ .cfa: $rsp 432 +
STACK CFI INIT 18cb00 860 .cfa: $rsp 8 + .ra: .cfa -8 + ^
STACK CFI 18cb02 .cfa: $rsp 16 +
STACK CFI 18cb04 .cfa: $rsp 24 +
STACK CFI 18cb06 .cfa: $rsp 32 +
STACK CFI 18cb07 .cfa: $rsp 40 +
STACK CFI 18cb0e $r12: .cfa -32 + ^ $r13: .cfa -24 + ^ $r14: .cfa -16 + ^ $rbx: .cfa -40 + ^ .cfa: $rsp 144 +
STACK CFI INIT 18d360 660 .cfa: $rsp 8 + .ra: .cfa -8 + ^
STACK CFI 18d362 .cfa: $rsp 16 +
STACK CFI 18d364 .cfa: $rsp 24 +
STACK CFI 18d366 .cfa: $rsp 32 +
STACK CFI 18d367 .cfa: $rsp 40 +
STACK CFI 18d371 $r12: .cfa -32 + ^ $r13: .cfa -24 + ^ $r14: .cfa -16 + ^ $rbx: .cfa -40 + ^ .cfa: $rsp 432 +
STACK CFI INIT 18d9c0 340 .cfa: $rsp 8 + .ra: .cfa -8 + ^
STACK CFI 18d9c2 .cfa: $rsp 16 +
STACK CFI 18d9c4 .cfa: $rsp 24 +
STACK CFI 18d9c6 .cfa: $rsp 32 +
STACK CFI 18d9c7 .cfa: $rsp 40 +
STACK CFI 18d9d1 $r12: .cfa -32 + ^ $r13: .cfa -24 + ^ $r14: .cfa -16 + ^ $rbx: .cfa -40 + ^ .cfa: $rsp 256 +
STACK CFI INIT 18dd00 ae0 .cfa: $rsp 8 + .ra: .cfa -8 + ^
STACK CFI 18dd02 .cfa: $rsp 16 +
STACK CFI 18dd04 .cfa: $rsp 24 +
STACK CFI 18dd06 .cfa: $rsp 32 +
STACK CFI 18dd07 .cfa: $rsp 40 +
STACK CFI 18dd11 $r12: .cfa -32 + ^ $r13: .cfa -24 + ^ $r14: .cfa -16 + ^ $rbx: .cfa -40 + ^ .cfa: $rsp 176 +
STACK CFI INIT 18e980 260 .cfa: $rsp 8 + .ra: .cfa -8 + ^
STACK CFI 18e982 .cfa: $rsp 16 +
STACK CFI 18e984 .cfa: $rsp 24 +
STACK CFI 18e986 .cfa: $rsp 32 +
STACK CFI 18e987 .cfa: $rsp 40 +
STACK CFI 18e98e $r12: .cfa -32 + ^ $r13: .cfa -24 + ^ $r14: .cfa -16 + ^ $rbx: .cfa -40 + ^ .cfa: $rsp 64 +
STACK CFI INIT 18ebe0 260 .cfa: $rsp 8 + .ra: .cfa -8 + ^
STACK CFI 18ebe2 .cfa: $rsp 16 +
STACK CFI 18ebe4 .cfa: $rsp 24 +
STACK CFI 18ebe6 .cfa: $rsp 32 +
STACK CFI 18ebe7 .cfa: $rsp 40 +
STACK CFI 18ebee $r12: .cfa -32 + ^ $r13: .cfa -24 + ^ $r14: .cfa -16 + ^ $rbx: .cfa -40 + ^ .cfa: $rsp 64 +
STACK CFI INIT 18ee40 1e0 .cfa: $rsp 8 + .ra: .cfa -8 + ^
STACK CFI 18ee42 .cfa: $rsp 16 +
STACK CFI 18ee44 .cfa: $rsp 24 +
STACK CFI 18ee46 .cfa: $rsp 32 +
STACK CFI 18ee47 .cfa: $rsp 40 +
STACK CFI 18ee4e $r12: .cfa -32 + ^ $r13: .cfa -24 + ^ $r14: .cfa -16 + ^ $rbx: .cfa -40 + ^ .cfa: $rsp 64 +
STACK CFI INIT 18f0c0 1440 .cfa: $rsp 8 + .ra: .cfa -8 + ^
STACK CFI 18f0c2 .cfa: $rsp 16 +
STACK CFI 18f0c4 .cfa: $rsp 24 +
STACK CFI 18f0c6 .cfa: $rsp 32 +
STACK CFI 18f0c7 .cfa: $rsp 40 +
STACK CFI 18f0d1 $r12: .cfa -32 + ^ $r13: .cfa -24 + ^ $r14: .cfa -16 + ^ $rbx: .cfa -40 + ^ .cfa: $rsp 208 +
STACK CFI INIT 190a60 a80 .cfa: $rsp 8 + .ra: .cfa -8 + ^
STACK CFI 190a62 .cfa: $rsp 16 +
STACK CFI 190a64 .cfa: $rsp 24 +
STACK CFI 190a66 .cfa: $rsp 32 +
STACK CFI 190a67 .cfa: $rsp 40 +
STACK CFI 190a71 $r12: .cfa -32 + ^ $r13: .cfa -24 + ^ $r14: .cfa -16 + ^ $rbx: .cfa -40 + ^ .cfa: $rsp 176 +
STACK CFI INIT 191680 260 .cfa: $rsp 8 + .ra: .cfa -8 + ^
STACK CFI 191682 .cfa: $rsp 16 +
STACK CFI 191684 .cfa: $rsp 24 +
STACK CFI 191686 .cfa: $rsp 32 +
STACK CFI 191687 .cfa: $rsp 40 +
STACK CFI 19168e $r12: .cfa -32 + ^ $r13: .cfa -24 + ^ $r14: .cfa -16 + ^ $rbx: .cfa -40 + ^ .cfa: $rsp 64 +
STACK CFI INIT 1918e0 260 .cfa: $rsp 8 + .ra: .cfa -8 + ^
STACK CFI 1918e2 .cfa: $rsp 16 +
STACK CFI 1918e4 .cfa: $rsp 24 +
STACK CFI 1918e6 .cfa: $rsp 32 +
STACK CFI 1918e7 .cfa: $rsp 40 +
STACK CFI 1918ee $r12: .cfa -32 + ^ $r13: .cfa -24 + ^ $r14: .cfa -16 + ^ $rbx: .cfa -40 + ^ .cfa: $rsp 64 +
STACK CFI INIT 191b40 1e0 .cfa: $rsp 8 + .ra: .cfa -8 + ^
STACK CFI 191b42 .cfa: $rsp 16 +
STACK CFI 191b44 .cfa: $rsp 24 +
STACK CFI 191b46 .cfa: $rsp 32 +
STACK CFI 191b47 .cfa: $rsp 40 +
STACK CFI 191b4e $r12: .cfa -32 + ^ $r13: .cfa -24 + ^ $r14: .cfa -16 + ^ $rbx: .cfa -40 + ^ .cfa: $rsp 64 +
STACK CFI INIT 191dc0 1480 .cfa: $rsp 8 + .ra: .cfa -8 + ^
STACK CFI 191dc2 .cfa: $rsp 16 +
STACK CFI 191dc4 .cfa: $rsp 24 +
STACK CFI 191dc6 .cfa: $rsp 32 +
STACK CFI 191dc7 .cfa: $rsp 40 +
STACK CFI 191dd1 $r12: .cfa -32 + ^ $r13: .cfa -24 + ^ $r14: .cfa -16 + ^ $rbx: .cfa -40 + ^ .cfa: $rsp 208 +
STACK CFI INIT 194260 7c0 .cfa: $rsp 8 + .ra: .cfa -8 + ^
STACK CFI 194262 .cfa: $rsp 16 +
STACK CFI 194264 .cfa: $rsp 24 +
STACK CFI 194266 .cfa: $rsp 32 +
STACK CFI 194267 .cfa: $rsp 40 +
STACK CFI 194271 $r12: .cfa -32 + ^ $r13: .cfa -24 + ^ $r14: .cfa -16 + ^ $rbx: .cfa -40 + ^ .cfa: $rsp 384 +
STACK CFI INIT 194a40 2b80 .cfa: $rsp 8 + .ra: .cfa -8 + ^
STACK CFI 194a42 .cfa: $rsp 16 +
STACK CFI 194a44 .cfa: $rsp 24 +
STACK CFI 194a46 .cfa: $rsp 32 +
STACK CFI 194a47 .cfa: $rsp 40 +
STACK CFI 194a51 $r12: .cfa -32 + ^ $r13: .cfa -24 + ^ $r14: .cfa -16 + ^ $rbx: .cfa -40 + ^ .cfa: $rsp 752 +
STACK CFI INIT 1975c0 100 .cfa: $rsp 8 + .ra: .cfa -8 + ^
STACK CFI 1975c2 .cfa: $rsp 16 +
STACK CFI 1975c3 .cfa: $rsp 24 +
STACK CFI 1975c4 $r14: .cfa -16 + ^ $rbx: .cfa -24 + ^ .cfa: $rsp 32 +
STACK CFI INIT 1976c0 660 .cfa: $rsp 8 + .ra: .cfa -8 + ^
STACK CFI 1976c2 .cfa: $rsp 16 +
STACK CFI 1976c4 .cfa: $rsp 24 +
STACK CFI 1976c6 .cfa: $rsp 32 +
STACK CFI 1976c7 .cfa: $rsp 40 +
STACK CFI 1976d1 $r12: .cfa -32 + ^ $r13: .cfa -24 + ^ $r14: .cfa -16 + ^ $rbx: .cfa -40 + ^ .cfa: $rsp 256 +
STACK CFI INIT 197d20 1a0 .cfa: $rsp 8 + .ra: .cfa -8 + ^
STACK CFI 197d22 .cfa: $rsp 16 +
STACK CFI 197d24 .cfa: $rsp 24 +
STACK CFI 197d26 .cfa: $rsp 32 +
STACK CFI 197d27 .cfa: $rsp 40 +
STACK CFI 197d2e $r12: .cfa -32 + ^ $r13: .cfa -24 + ^ $r14: .cfa -16 + ^ $rbx: .cfa -40 + ^ .cfa: $rsp 64 +
STACK CFI INIT 197ec0 1e0 .cfa: $rsp 8 + .ra: .cfa -8 + ^
STACK CFI 197ec2 .cfa: $rsp 16 +
STACK CFI 197ec4 .cfa: $rsp 24 +
STACK CFI 197ec6 .cfa: $rsp 32 +
STACK CFI 197ec7 .cfa: $rsp 40 +
STACK CFI 197ece $r12: .cfa -32 + ^ $r13: .cfa -24 + ^ $r14: .cfa -16 + ^ $rbx: .cfa -40 + ^ .cfa: $rsp 64 +
STACK CFI INIT 198200 7a0 .cfa: $rsp 8 + .ra: .cfa -8 + ^
STACK CFI 198202 .cfa: $rsp 16 +
STACK CFI 198204 .cfa: $rsp 24 +
STACK CFI 198206 .cfa: $rsp 32 +
STACK CFI 198207 .cfa: $rsp 40 +
STACK CFI 198211 $r12: .cfa -32 + ^ $r13: .cfa -24 + ^ $r14: .cfa -16 + ^ $rbx: .cfa -40 + ^ .cfa: $rsp 704 +
STACK CFI INIT 1989a0 2d60 .cfa: $rsp 8 + .ra: .cfa -8 + ^
STACK CFI 1989a2 .cfa: $rsp 16 +
STACK CFI 1989a4 .cfa: $rsp 24 +
STACK CFI 1989a6 .cfa: $rsp 32 +
STACK CFI 1989a7 .cfa: $rsp 40 +
STACK CFI 1989b1 $r12: .cfa -32 + ^ $r13: .cfa -24 + ^ $r14: .cfa -16 + ^ $rbx: .cfa -40 + ^ .cfa: $rsp 768 +
STACK CFI INIT 19b700 6c0 .cfa: $rsp 8 + .ra: .cfa -8 + ^
STACK CFI 19b702 .cfa: $rsp 16 +
STACK CFI 19b704 .cfa: $rsp 24 +
STACK CFI 19b706 .cfa: $rsp 32 +
STACK CFI 19b707 .cfa: $rsp 40 +
STACK CFI 19b711 $r12: .cfa -32 + ^ $r13: .cfa -24 + ^ $r14: .cfa -16 + ^ $rbx: .cfa -40 + ^ .cfa: $rsp 560 +
STACK CFI INIT 19bdc0 1e0 .cfa: $rsp 8 + .ra: .cfa -8 + ^
STACK CFI 19bdc2 .cfa: $rsp 16 +
STACK CFI 19bdc4 .cfa: $rsp 24 +
STACK CFI 19bdc6 .cfa: $rsp 32 +
STACK CFI 19bdc7 .cfa: $rsp 40 +
STACK CFI 19bdce $r12: .cfa -32 + ^ $r13: .cfa -24 + ^ $r14: .cfa -16 + ^ $rbx: .cfa -40 + ^ .cfa: $rsp 64 +
STACK CFI INIT 19bfa0 a40 .cfa: $rsp 8 + .ra: .cfa -8 + ^
STACK CFI 19bfa2 .cfa: $rsp 16 +
STACK CFI 19bfa4 .cfa: $rsp 24 +
STACK CFI 19bfa6 .cfa: $rsp 32 +
STACK CFI 19bfa7 .cfa: $rsp 40 +
STACK CFI 19bfb1 $r12: .cfa -32 + ^ $r13: .cfa -24 + ^ $r14: .cfa -16 + ^ $rbx: .cfa -40 + ^ .cfa: $rsp 576 +
STACK CFI INIT 19c9e0 a80 .cfa: $rsp 8 + .ra: .cfa -8 + ^
STACK CFI 19c9e2 .cfa: $rsp 16 +
STACK CFI 19c9e4 .cfa: $rsp 24 +
STACK CFI 19c9e6 .cfa: $rsp 32 +
STACK CFI 19c9e7 .cfa: $rsp 40 +
STACK CFI 19c9f1 $r12: .cfa -32 + ^ $r13: .cfa -24 + ^ $r14: .cfa -16 + ^ $rbx: .cfa -40 + ^ .cfa: $rsp 192 +
STACK CFI INIT 19dbc0 840 .cfa: $rsp 8 + .ra: .cfa -8 + ^
STACK CFI 19dbc2 .cfa: $rsp 16 +
STACK CFI 19dbc4 .cfa: $rsp 24 +
STACK CFI 19dbc6 .cfa: $rsp 32 +
STACK CFI 19dbc7 .cfa: $rsp 40 +
STACK CFI 19dbd1 $r12: .cfa -32 + ^ $r13: .cfa -24 + ^ $r14: .cfa -16 + ^ $rbx: .cfa -40 + ^ .cfa: $rsp 368 +
STACK CFI INIT 19e400 ae0 .cfa: $rsp 8 + .ra: .cfa -8 + ^
STACK CFI 19e402 .cfa: $rsp 16 +
STACK CFI 19e404 .cfa: $rsp 24 +
STACK CFI 19e406 .cfa: $rsp 32 +
STACK CFI 19e407 .cfa: $rsp 40 +
STACK CFI 19e411 $r12: .cfa -32 + ^ $r13: .cfa -24 + ^ $r14: .cfa -16 + ^ $rbx: .cfa -40 + ^ .cfa: $rsp 1200 +
STACK CFI INIT 19eee0 b00 .cfa: $rsp 8 + .ra: .cfa -8 + ^
STACK CFI 19eee2 .cfa: $rsp 16 +
STACK CFI 19eee4 .cfa: $rsp 24 +
STACK CFI 19eee6 .cfa: $rsp 32 +
STACK CFI 19eee7 .cfa: $rsp 40 +
STACK CFI 19eef1 $r12: .cfa -32 + ^ $r13: .cfa -24 + ^ $r14: .cfa -16 + ^ $rbx: .cfa -40 + ^ .cfa: $rsp 192 +
STACK CFI INIT 1a01a0 840 .cfa: $rsp 8 + .ra: .cfa -8 + ^
STACK CFI 1a01a2 .cfa: $rsp 16 +
STACK CFI 1a01a4 .cfa: $rsp 24 +
STACK CFI 1a01a6 .cfa: $rsp 32 +
STACK CFI 1a01a7 .cfa: $rsp 40 +
STACK CFI 1a01b1 $r12: .cfa -32 + ^ $r13: .cfa -24 + ^ $r14: .cfa -16 + ^ $rbx: .cfa -40 + ^ .cfa: $rsp 672 +
STACK CFI INIT 1a0b20 120 .cfa: $rsp 8 + .ra: .cfa -8 + ^
STACK CFI 1a0b22 .cfa: $rsp 16 +
STACK CFI 1a0b23 .cfa: $rsp 24 +
STACK CFI 1a0b24 $r14: .cfa -16 + ^ $rbx: .cfa -24 + ^ .cfa: $rsp 32 +
STACK CFI INIT 1a0c40 d00 .cfa: $rsp 8 + .ra: .cfa -8 + ^
STACK CFI 1a0c42 .cfa: $rsp 16 +
STACK CFI 1a0c44 .cfa: $rsp 24 +
STACK CFI 1a0c45 $r12: .cfa -24 + ^ $r14: .cfa -16 + ^ $rbx: .cfa -32 + ^ .cfa: $rsp 32 +
STACK CFI INIT 1a1940 120 .cfa: $rsp 8 + .ra: .cfa -8 + ^
STACK CFI 1a1942 .cfa: $rsp 16 +
STACK CFI 1a1944 .cfa: $rsp 24 +
STACK CFI 1a1945 $r12: .cfa -24 + ^ $r14: .cfa -16 + ^ $rbx: .cfa -32 + ^ .cfa: $rsp 32 +
STACK CFI INIT 1a1ae0 100 .cfa: $rsp 8 + .ra: .cfa -8 + ^
STACK CFI 1a1ae1 $rbx: .cfa -16 + ^ .cfa: $rsp 16 +
STACK CFI INIT 1a1be0 460 .cfa: $rsp 8 + .ra: .cfa -8 + ^
STACK CFI 1a1be2 .cfa: $rsp 16 +
STACK CFI 1a1be4 .cfa: $rsp 24 +
STACK CFI 1a1be6 .cfa: $rsp 32 +
STACK CFI 1a1be7 .cfa: $rsp 40 +
STACK CFI 1a1bee $r12: .cfa -32 + ^ $r13: .cfa -24 + ^ $r14: .cfa -16 + ^ $rbx: .cfa -40 + ^ .cfa: $rsp 80 +
STACK CFI INIT 1a2200 100 .cfa: $rsp 8 + .ra: .cfa -8 + ^
STACK CFI 1a2201 $rbx: .cfa -16 + ^ .cfa: $rsp 16 +
STACK CFI INIT 1a4aa0 a40 .cfa: $rsp 8 + .ra: .cfa -8 + ^
STACK CFI 1a4aa1 $rbx: .cfa -16 + ^ .cfa: $rsp 16 +
STACK CFI INIT 1a54e0 340 .cfa: $rsp 8 + .ra: .cfa -8 + ^
STACK CFI 1a54e1 $rbx: .cfa -16 + ^ .cfa: $rsp 16 +
STACK CFI INIT 1a5820 1040 .cfa: $rsp 8 + .ra: .cfa -8 + ^
STACK CFI 1a5821 $rbx: .cfa -16 + ^ .cfa: $rsp 16 +
STACK CFI INIT 1a6860 440 .cfa: $rsp 8 + .ra: .cfa -8 + ^
STACK CFI 1a6861 $rbx: .cfa -16 + ^ .cfa: $rsp 16 +
STACK CFI INIT 1a6ca0 280 .cfa: $rsp 8 + .ra: .cfa -8 + ^
STACK CFI 1a6ca1 $rbx: .cfa -16 + ^ .cfa: $rsp 16 +
STACK CFI INIT 1a6f20 180 .cfa: $rsp 8 + .ra: .cfa -8 + ^
STACK CFI 1a6f21 $rbx: .cfa -16 + ^ .cfa: $rsp 16 +
STACK CFI INIT 1a7160 100 .cfa: $rsp 8 + .ra: .cfa -8 + ^
STACK CFI 1a7161 $rbx: .cfa -16 + ^ .cfa: $rsp 16 +
STACK CFI INIT 1a7320 100 .cfa: $rsp 8 + .ra: .cfa -8 + ^
STACK CFI 1a7321 $rbx: .cfa -16 + ^ .cfa: $rsp 16 +
STACK CFI INIT 1a7420 100 .cfa: $rsp 8 + .ra: .cfa -8 + ^
STACK CFI 1a7421 $rbx: .cfa -16 + ^ .cfa: $rsp 16 +
STACK CFI INIT 1a7520 100 .cfa: $rsp 8 + .ra: .cfa -8 + ^
STACK CFI 1a7521 $rbx: .cfa -16 + ^ .cfa: $rsp 16 +
STACK CFI INIT 1a7620 100 .cfa: $rsp 8 + .ra: .cfa -8 + ^
STACK CFI 1a7621 $rbx: .cfa -16 + ^ .cfa: $rsp 16 +
STACK CFI INIT 1a7720 100 .cfa: $rsp 8 + .ra: .cfa -8 + ^
STACK CFI 1a7721 $rbx: .cfa -16 + ^ .cfa: $rsp 16 +
STACK CFI INIT 1aaca0 220 .cfa: $rsp 8 + .ra: .cfa -8 + ^
STACK CFI 1aaca2 .cfa: $rsp 16 +
STACK CFI 1aaca4 .cfa: $rsp 24 +
STACK CFI 1aaca5 .cfa: $rsp 32 +
STACK CFI 1aacac $r12: .cfa -24 + ^ $r14: .cfa -16 + ^ $rbx: .cfa -32 + ^ .cfa: $rsp 48 +
STACK CFI INIT 1aaec0 2c0 .cfa: $rsp 8 + .ra: .cfa -8 + ^
STACK CFI 1aaec2 .cfa: $rsp 16 +
STACK CFI 1aaec4 .cfa: $rsp 24 +
STACK CFI 1aaec6 .cfa: $rsp 32 +
STACK CFI 1aaec7 .cfa: $rsp 40 +
STACK CFI 1aaece $r12: .cfa -32 + ^ $r13: .cfa -24 + ^ $r14: .cfa -16 + ^ $rbx: .cfa -40 + ^ .cfa: $rsp 80 +
STACK CFI INIT 1ab180 2a0 .cfa: $rsp 8 + .ra: .cfa -8 + ^
STACK CFI 1ab182 .cfa: $rsp 16 +
STACK CFI 1ab184 .cfa: $rsp 24 +
STACK CFI 1ab186 .cfa: $rsp 32 +
STACK CFI 1ab187 .cfa: $rsp 40 +
STACK CFI 1ab18e $r12: .cfa -32 + ^ $r13: .cfa -24 + ^ $r14: .cfa -16 + ^ $rbx: .cfa -40 + ^ .cfa: $rsp 80 +
STACK CFI INIT 1ab500 100 .cfa: $rsp 8 + .ra: .cfa -8 + ^
STACK CFI 1ab502 .cfa: $rsp 16 +
STACK CFI 1ab504 .cfa: $rsp 24 +
STACK CFI 1ab505 $r12: .cfa -24 + ^ $r14: .cfa -16 + ^ $rbx: .cfa -32 + ^ .cfa: $rsp 32 +
STACK CFI INIT 1ab660 1c0 .cfa: $rsp 8 + .ra: .cfa -8 + ^
STACK CFI 1ab662 .cfa: $rsp 16 +
STACK CFI 1ab663 .cfa: $rsp 24 +
STACK CFI 1ab66a $r14: .cfa -16 + ^ $rbx: .cfa -24 + ^ .cfa: $rsp 48 +
STACK CFI INIT 1ab820 1c0 .cfa: $rsp 8 + .ra: .cfa -8 + ^
STACK CFI 1ab822 .cfa: $rsp 16 +
STACK CFI 1ab823 .cfa: $rsp 24 +
STACK CFI 1ab824 $r14: .cfa -16 + ^ $rbx: .cfa -24 + ^ .cfa: $rsp 32 +
STACK CFI INIT 1ab9e0 160 .cfa: $rsp 8 + .ra: .cfa -8 + ^
STACK CFI 1ab9e2 .cfa: $rsp 16 +
STACK CFI 1ab9e4 .cfa: $rsp 24 +
STACK CFI 1ab9e5 $r12: .cfa -24 + ^ $r14: .cfa -16 + ^ $rbx: .cfa -32 + ^ .cfa: $rsp 32 +
STACK CFI INIT 1abb40 100 .cfa: $rsp 8 + .ra: .cfa -8 + ^
STACK CFI 1abb41 $rbx: .cfa -16 + ^ .cfa: $rsp 16 +
STACK CFI INIT 1abfc0 2a0 .cfa: $rsp 8 + .ra: .cfa -8 + ^
STACK CFI 1abfc2 .cfa: $rsp 16 +
STACK CFI 1abfc4 .cfa: $rsp 24 +
STACK CFI 1abfc5 .cfa: $rsp 32 +
STACK CFI 1abfcc $r12: .cfa -24 + ^ $r14: .cfa -16 + ^ $rbx: .cfa -32 + ^ .cfa: $rsp 48 +
STACK CFI INIT 1dee60 1c0 .cfa: $rsp 8 + .ra: .cfa -8 + ^
STACK CFI 1dee62 .cfa: $rsp 16 +
STACK CFI 1dee64 .cfa: $rsp 24 +
STACK CFI 1dee65 $r12: .cfa -24 + ^ $r14: .cfa -16 + ^ $rbx: .cfa -32 + ^ .cfa: $rsp 32 +
STACK CFI INIT 1ac360 600 .cfa: $rsp 8 + .ra: .cfa -8 + ^
STACK CFI 1ac362 .cfa: $rsp 16 +
STACK CFI 1ac364 .cfa: $rsp 24 +
STACK CFI 1ac366 .cfa: $rsp 32 +
STACK CFI 1ac367 .cfa: $rsp 40 +
STACK CFI 1ac36e $r12: .cfa -32 + ^ $r13: .cfa -24 + ^ $r14: .cfa -16 + ^ $rbx: .cfa -40 + ^ .cfa: $rsp 112 +
STACK CFI INIT 1ac960 600 .cfa: $rsp 8 + .ra: .cfa -8 + ^
STACK CFI 1ac962 .cfa: $rsp 16 +
STACK CFI 1ac964 .cfa: $rsp 24 +
STACK CFI 1ac966 .cfa: $rsp 32 +
STACK CFI 1ac967 .cfa: $rsp 40 +
STACK CFI 1ac96e $r12: .cfa -32 + ^ $r13: .cfa -24 + ^ $r14: .cfa -16 + ^ $rbx: .cfa -40 + ^ .cfa: $rsp 112 +
STACK CFI INIT 1acf60 600 .cfa: $rsp 8 + .ra: .cfa -8 + ^
STACK CFI 1acf62 .cfa: $rsp 16 +
STACK CFI 1acf64 .cfa: $rsp 24 +
STACK CFI 1acf66 .cfa: $rsp 32 +
STACK CFI 1acf67 .cfa: $rsp 40 +
STACK CFI 1acf6e $r12: .cfa -32 + ^ $r13: .cfa -24 + ^ $r14: .cfa -16 + ^ $rbx: .cfa -40 + ^ .cfa: $rsp 112 +
STACK CFI INIT 1ad560 600 .cfa: $rsp 8 + .ra: .cfa -8 + ^
STACK CFI 1ad562 .cfa: $rsp 16 +
STACK CFI 1ad564 .cfa: $rsp 24 +
STACK CFI 1ad566 .cfa: $rsp 32 +
STACK CFI 1ad567 .cfa: $rsp 40 +
STACK CFI 1ad56e $r12: .cfa -32 + ^ $r13: .cfa -24 + ^ $r14: .cfa -16 + ^ $rbx: .cfa -40 + ^ .cfa: $rsp 112 +
STACK CFI INIT 1adb60 600 .cfa: $rsp 8 + .ra: .cfa -8 + ^
STACK CFI 1adb62 .cfa: $rsp 16 +
STACK CFI 1adb64 .cfa: $rsp 24 +
STACK CFI 1adb66 .cfa: $rsp 32 +
STACK CFI 1adb67 .cfa: $rsp 40 +
STACK CFI 1adb6e $r12: .cfa -32 + ^ $r13: .cfa -24 + ^ $r14: .cfa -16 + ^ $rbx: .cfa -40 + ^ .cfa: $rsp 112 +
STACK CFI INIT 1ae160 600 .cfa: $rsp 8 + .ra: .cfa -8 + ^
STACK CFI 1ae162 .cfa: $rsp 16 +
STACK CFI 1ae164 .cfa: $rsp 24 +
STACK CFI 1ae166 .cfa: $rsp 32 +
STACK CFI 1ae167 .cfa: $rsp 40 +
STACK CFI 1ae16e $r12: .cfa -32 + ^ $r13: .cfa -24 + ^ $r14: .cfa -16 + ^ $rbx: .cfa -40 + ^ .cfa: $rsp 112 +
STACK CFI INIT 1ae760 280 .cfa: $rsp 8 + .ra: .cfa -8 + ^
STACK CFI 1ae762 .cfa: $rsp 16 +
STACK CFI 1ae764 .cfa: $rsp 24 +
STACK CFI 1ae766 .cfa: $rsp 32 +
STACK CFI 1ae767 .cfa: $rsp 40 +
STACK CFI 1ae768 $r12: .cfa -32 + ^ $r13: .cfa -24 + ^ $r14: .cfa -16 + ^ $rbx: .cfa -40 + ^ .cfa: $rsp 48 +
STACK CFI INIT 1aebc0 200 .cfa: $rsp 8 + .ra: .cfa -8 + ^
STACK CFI 1aebc2 .cfa: $rsp 16 +
STACK CFI 1aebc4 .cfa: $rsp 24 +
STACK CFI 1aebc6 .cfa: $rsp 32 +
STACK CFI 1aebc7 .cfa: $rsp 40 +
STACK CFI 1aebc8 $r12: .cfa -32 + ^ $r13: .cfa -24 + ^ $r14: .cfa -16 + ^ $rbx: .cfa -40 + ^ .cfa: $rsp 48 +
STACK CFI INIT 1aedc0 200 .cfa: $rsp 8 + .ra: .cfa -8 + ^
STACK CFI 1aedc2 .cfa: $rsp 16 +
STACK CFI 1aedc4 .cfa: $rsp 24 +
STACK CFI 1aedc6 .cfa: $rsp 32 +
STACK CFI 1aedc7 .cfa: $rsp 40 +
STACK CFI 1aedc8 $r12: .cfa -32 + ^ $r13: .cfa -24 + ^ $r14: .cfa -16 + ^ $rbx: .cfa -40 + ^ .cfa: $rsp 48 +
STACK CFI INIT 1af460 2c0 .cfa: $rsp 8 + .ra: .cfa -8 + ^
STACK CFI 1af462 .cfa: $rsp 16 +
STACK CFI 1af464 .cfa: $rsp 24 +
STACK CFI 1af466 .cfa: $rsp 32 +
STACK CFI 1af467 .cfa: $rsp 40 +
STACK CFI 1af46e $r12: .cfa -32 + ^ $r13: .cfa -24 + ^ $r14: .cfa -16 + ^ $rbx: .cfa -40 + ^ .cfa: $rsp 64 +
STACK CFI INIT 1afe80 80 .cfa: $rsp 8 + .ra: .cfa -8 + ^
STACK CFI 1afe82 .cfa: $rsp 16 +
STACK CFI 1afe83 .cfa: $rsp 24 +
STACK CFI 1afe84 $r14: .cfa -16 + ^ $rbx: .cfa -24 + ^ .cfa: $rsp 32 +
STACK CFI INIT 1b0460 260 .cfa: $rsp 8 + .ra: .cfa -8 + ^
STACK CFI 1b0462 .cfa: $rsp 16 +
STACK CFI 1b0464 .cfa: $rsp 24 +
STACK CFI 1b0466 .cfa: $rsp 32 +
STACK CFI 1b0467 .cfa: $rsp 40 +
STACK CFI 1b046e $r12: .cfa -32 + ^ $r13: .cfa -24 + ^ $r14: .cfa -16 + ^ $rbx: .cfa -40 + ^ .cfa: $rsp 64 +
STACK CFI INIT 1b0cc0 a0 .cfa: $rsp 8 + .ra: .cfa -8 + ^
STACK CFI 1b0cc7 .cfa: $rsp 32 +
STACK CFI INIT 1b1400 100 .cfa: $rsp 8 + .ra: .cfa -8 + ^
STACK CFI 1b1401 $rbx: .cfa -16 + ^ .cfa: $rsp 16 +
STACK CFI INIT 1b3160 560 .cfa: $rsp 8 + .ra: .cfa -8 + ^
STACK CFI 1b3162 .cfa: $rsp 16 +
STACK CFI 1b3164 .cfa: $rsp 24 +
STACK CFI 1b3166 .cfa: $rsp 32 +
STACK CFI 1b3167 .cfa: $rsp 40 +
STACK CFI 1b316e $r12: .cfa -32 + ^ $r13: .cfa -24 + ^ $r14: .cfa -16 + ^ $rbx: .cfa -40 + ^ .cfa: $rsp 80 +
STACK CFI INIT 1eee20 72 .cfa: $rsp 8 + .ra: .cfa -8 + ^
STACK CFI INIT 1eeea0 15 .cfa: $rsp 8 + .ra: .cfa -8 + ^
STACK CFI INIT 1eeec0 15 .cfa: $rsp 8 + .ra: .cfa -8 + ^
STACK CFI INIT 1eeee0 2a .cfa: $rsp 8 + .ra: .cfa -8 + ^
STACK CFI INIT 1eef20 15 .cfa: $rsp 8 + .ra: .cfa -8 + ^
STACK CFI INIT 1eef40 15 .cfa: $rsp 8 + .ra: .cfa -8 + ^
STACK CFI INIT 1eef60 15 .cfa: $rsp 8 + .ra: .cfa -8 + ^
STACK CFI INIT 1eef80 15 .cfa: $rsp 8 + .ra: .cfa -8 + ^
STACK CFI INIT 1eefa0 15 .cfa: $rsp 8 + .ra: .cfa -8 + ^
STACK CFI INIT 1eefc0 c .cfa: $rsp 8 + .ra: .cfa -8 + ^
STACK CFI INIT 1eefe0 2c .cfa: $rsp 8 + .ra: .cfa -8 + ^
STACK CFI INIT 1ef020 100 .cfa: $rsp 8 + .ra: .cfa -8 + ^
STACK CFI 1ef026 .cfa: $rsp 16 +
STACK CFI INIT 1ef120 120 .cfa: $rsp 8 + .ra: .cfa -8 + ^
STACK CFI 1ef126 .cfa: $rsp 16 +
STACK CFI INIT 1ef240 40 .cfa: $rsp 8 + .ra: .cfa -8 + ^
STACK CFI 1ef246 .cfa: $rsp 32 +
STACK CFI INIT 1ef280 1055 .cfa: $rsp 8 + .ra: .cfa -8 + ^
STACK CFI 1ef281 .cfa: $rsp 16 +
STACK CFI 1ef286 $rbp: .cfa -16 + ^ .cfa: $rbp 16 +
STACK CFI 1ef28d $r13: .cfa -32 + ^ $r14: .cfa -24 + ^
STACK CFI 1ef292 $r12: .cfa -40 + ^
STACK CFI 1ef295 $rbx: .cfa -48 + ^
STACK CFI INIT 1f02e0 3a0 .cfa: $rsp 8 + .ra: .cfa -8 + ^
STACK CFI 1f02e2 .cfa: $rsp 16 +
STACK CFI 1f02f2 .cfa: $rsp 24 +
STACK CFI 1f02f4 .cfa: $rsp 32 +
STACK CFI 1f02f5 .cfa: $rsp 40 +
STACK CFI 1f02fb .cfa: $rsp 112 +
STACK CFI 1f0313 $r12: .cfa -32 + ^ $r13: .cfa -24 + ^ $r14: .cfa -16 + ^ $rbx: .cfa -40 + ^
STACK CFI INIT 1f0680 e0 .cfa: $rsp 8 + .ra: .cfa -8 + ^
STACK CFI 1f0688 .cfa: $rsp 16 +
STACK CFI INIT 1f0760 e0 .cfa: $rsp 8 + .ra: .cfa -8 + ^
STACK CFI 1f0768 .cfa: $rsp 16 +
STACK CFI INIT 1f0840 fac .cfa: $rsp 8 + .ra: .cfa -8 + ^
STACK CFI 1f0842 .cfa: $rsp 16 +
STACK CFI 1f0846 .cfa: $rsp 24 +
STACK CFI 1f0849 $r13: .cfa -24 + ^ $r14: .cfa -16 + ^
STACK CFI 1f084b .cfa: $rsp 32 +
STACK CFI 1f084e $r12: .cfa -32 + ^
STACK CFI 1f084f .cfa: $rsp 40 +
STACK CFI 1f0858 .cfa: $rsp 640 +
STACK CFI 1f0866 $rbx: .cfa -40 + ^
STACK CFI INIT 1f1800 70c .cfa: $rsp 8 + .ra: .cfa -8 + ^
STACK CFI 1f1802 .cfa: $rsp 16 +
STACK CFI 1f180e .cfa: $rsp 24 +
STACK CFI 1f1810 .cfa: $rsp 32 +
STACK CFI 1f1811 .cfa: $rsp 40 +
STACK CFI 1f181a .cfa: $rsp 256 +
STACK CFI 1f1866 $r12: .cfa -32 + ^ $r13: .cfa -24 + ^ $r14: .cfa -16 + ^ $rbx: .cfa -40 + ^
STACK CFI INIT 1f1f20 140 .cfa: $rsp 8 + .ra: .cfa -8 + ^
STACK CFI 1f1f22 .cfa: $rsp 16 +
STACK CFI 1f1f25 $r12: .cfa -16 + ^
STACK CFI 1f1f29 .cfa: $rsp 24 +
STACK CFI 1f1f2b $rbx: .cfa -24 + ^
STACK CFI 1f1f33 .cfa: $rsp 32 +
STACK CFI INIT 1f2060 c45 .cfa: $rsp 8 + .ra: .cfa -8 + ^
STACK CFI 1f2062 .cfa: $rsp 16 +
STACK CFI 1f206b .cfa: $rsp 24 +
STACK CFI 1f206d .cfa: $rsp 32 +
STACK CFI 1f2070 $r12: .cfa -32 + ^ $r13: .cfa -24 + ^ $r14: .cfa -16 + ^
STACK CFI 1f2071 .cfa: $rsp 40 +
STACK CFI 1f2073 $rbx: .cfa -40 + ^
STACK CFI 1f207c .cfa: $rsp 144 +
STACK CFI INIT 1f2cc0 260 .cfa: $rsp 8 + .ra: .cfa -8 + ^
STACK CFI 1f2cc7 $rbx: .cfa -40 + ^
STACK CFI 1f2ce9 .cfa: $rsp 432 +
STACK CFI 1f2d03 $r12: .cfa -32 + ^ $r13: .cfa -24 + ^ $r14: .cfa -16 + ^
STACK CFI INIT 1f2f20 145 .cfa: $rsp 8 + .ra: .cfa -8 + ^
STACK CFI 1f2f21 .cfa: $rsp 16 +
STACK CFI 1f2f24 $rbp: .cfa -16 + ^ .cfa: $rbp 16 +
STACK CFI 1f2f2e $r13: .cfa -32 + ^ $r14: .cfa -24 + ^
STACK CFI 1f2f33 $r12: .cfa -40 + ^
STACK CFI 1f2f3c $rbx: .cfa -48 + ^
STACK CFI INIT 1f3080 1ea .cfa: $rsp 8 + .ra: .cfa -8 + ^
STACK CFI 1f3082 .cfa: $rsp 16 +
STACK CFI 1f3084 .cfa: $rsp 24 +
STACK CFI 1f3087 $r13: .cfa -24 + ^ $r14: .cfa -16 + ^
STACK CFI 1f3089 .cfa: $rsp 32 +
STACK CFI 1f308c $r12: .cfa -32 + ^
STACK CFI 1f308d .cfa: $rsp 40 +
STACK CFI 1f3096 .cfa: $rsp 432 +
STACK CFI 1f30c6 $rbx: .cfa -40 + ^
STACK CFI INIT 1f3280 18a .cfa: $rsp 8 + .ra: .cfa -8 + ^
STACK CFI 1f3281 .cfa: $rsp 16 +
STACK CFI 1f3284 $rbp: .cfa -16 + ^ .cfa: $rbp 16 +
STACK CFI 1f328f $rax: .cfa -64 + ^ $rdx: .cfa -56 + ^
STACK CFI 1f329d $r12: .cfa -40 + ^ $rbx: .cfa -48 + ^
STACK CFI 1f32ab $r13: .cfa -32 + ^ $r14: .cfa -24 + ^
STACK CFI INIT 1f3420 160 .cfa: $rsp 8 + .ra: .cfa -8 + ^
STACK CFI 1f3422 .cfa: $rsp 16 +
STACK CFI 1f3424 .cfa: $rsp 24 +
STACK CFI 1f3427 $r13: .cfa -24 + ^ $r14: .cfa -16 + ^
STACK CFI 1f3429 .cfa: $rsp 32 +
STACK CFI 1f342a .cfa: $rsp 40 +
STACK CFI 1f342c $r12: .cfa -32 + ^ $rbx: .cfa -40 + ^
STACK CFI 1f3435 .cfa: $rsp 416 +
STACK CFI INIT 1f3580 1aa .cfa: $rsp 8 + .ra: .cfa -8 + ^
STACK CFI 1f3581 .cfa: $rsp 16 +
STACK CFI 1f3584 $rbp: .cfa -16 + ^ .cfa: $rbp 16 +
STACK CFI 1f358f $rax: .cfa -64 + ^ $rdx: .cfa -56 + ^
STACK CFI 1f359d $r12: .cfa -40 + ^ $rbx: .cfa -48 + ^
STACK CFI 1f35be $r13: .cfa -32 + ^ $r14: .cfa -24 + ^
STACK CFI INIT 1f3740 1b3 .cfa: $rsp 8 + .ra: .cfa -8 + ^
STACK CFI 1f3742 .cfa: $rsp 16 +
STACK CFI 1f3751 .cfa: $rsp 24 +
STACK CFI 1f3753 $r12: .cfa -16 + ^ $rbx: .cfa -24 + ^
STACK CFI 1f3769 .cfa: $rsp 544 +
STACK CFI INIT 1f3900 28a .cfa: $rsp 8 + .ra: .cfa -8 + ^
STACK CFI 1f3901 .cfa: $rsp 16 +
STACK CFI 1f3904 $rbp: .cfa -16 + ^ .cfa: $rbp 16 +
STACK CFI 1f390d $r14: .cfa -24 + ^
STACK CFI 1f3912 $r13: .cfa -32 + ^
STACK CFI 1f391e $r12: .cfa -40 + ^
STACK CFI 1f3926 $rbx: .cfa -48 + ^
STACK CFI 1f392b $rax: .cfa -64 + ^ $rdx: .cfa -56 + ^
STACK CFI INIT 1f3ba0 18a .cfa: $rsp 8 + .ra: .cfa -8 + ^
STACK CFI 1f3ba1 .cfa: $rsp 16 +
STACK CFI 1f3ba4 $rbp: .cfa -16 + ^ .cfa: $rbp 16 +
STACK CFI 1f3bab $r12: .cfa -40 + ^
STACK CFI 1f3bd4 $r13: .cfa -32 + ^ $r14: .cfa -24 + ^ $rax: .cfa -64 + ^ $rbx: .cfa -48 + ^ $rdx: .cfa -56 + ^
STACK CFI INIT 1f3d40 8c .cfa: $rsp 8 + .ra: .cfa -8 + ^
STACK CFI INIT 1f3de0 8c .cfa: $rsp 8 + .ra: .cfa -8 + ^
STACK CFI INIT 1f3e80 70 .cfa: $rsp 8 + .ra: .cfa -8 + ^
STACK CFI INIT 1f3f00 77 .cfa: $rsp 8 + .ra: .cfa -8 + ^
STACK CFI INIT 1f3f80 179 .cfa: $rsp 8 + .ra: .cfa -8 + ^
STACK CFI 1f3f82 .cfa: $rsp 16 +
STACK CFI 1f3f89 $r14: .cfa -16 + ^
STACK CFI 1f3f8b .cfa: $rsp 24 +
STACK CFI 1f3f8d .cfa: $rsp 32 +
STACK CFI 1f3f92 $r12: .cfa -32 + ^ $r13: .cfa -24 + ^
STACK CFI 1f3f93 .cfa: $rsp 40 +
STACK CFI 1f3f99 .cfa: $rsp 96 +
STACK CFI 1f3fb5 $rbx: .cfa -40 + ^
STACK CFI INIT 1f4100 119 .cfa: $rsp 8 + .ra: .cfa -8 + ^
STACK CFI 1f4102 .cfa: $rsp 16 +
STACK CFI 1f4107 $r14: .cfa -16 + ^
STACK CFI 1f4109 .cfa: $rsp 24 +
STACK CFI 1f410c $r13: .cfa -24 + ^
STACK CFI 1f4112 .cfa: $rsp 32 +
STACK CFI 1f4113 .cfa: $rsp 40 +
STACK CFI 1f4119 .cfa: $rsp 64 +
STACK CFI 1f4128 $r12: .cfa -32 + ^ $rbx: .cfa -40 + ^
STACK CFI INIT 1f4220 f4 .cfa: $rsp 8 + .ra: .cfa -8 + ^
STACK CFI 1f4226 .cfa: $rsp 16 +
STACK CFI INIT 1f4320 e0 .cfa: $rsp 8 + .ra: .cfa -8 + ^
STACK CFI 1f4326 .cfa: $rsp 16 +
STACK CFI INIT 1f4400 24f .cfa: $rsp 8 + .ra: .cfa -8 + ^
STACK CFI 1f4402 .cfa: $rsp 16 +
STACK CFI 1f4408 .cfa: $rsp 24 +
STACK CFI 1f440e .cfa: $rsp 32 +
STACK CFI 1f4418 $r12: .cfa -16 + ^ $rbx: .cfa -24 + ^
STACK CFI INIT 1f4660 252 .cfa: $rsp 8 + .ra: .cfa -8 + ^
STACK CFI 1f4662 .cfa: $rsp 16 +
STACK CFI 1f4665 $r12: .cfa -16 + ^
STACK CFI 1f4666 .cfa: $rsp 24 +
STACK CFI 1f466b $rbx: .cfa -24 + ^
STACK CFI 1f4671 .cfa: $rsp 48 +
STACK CFI INIT 1f48c0 26a .cfa: $rsp 8 + .ra: .cfa -8 + ^
STACK CFI 1f48c2 .cfa: $rsp 16 +
STACK CFI 1f48c4 .cfa: $rsp 24 +
STACK CFI 1f48c7 $r13: .cfa -24 + ^ $r14: .cfa -16 + ^
STACK CFI 1f48c9 .cfa: $rsp 32 +
STACK CFI 1f48ca .cfa: $rsp 40 +
STACK CFI 1f48cc $r12: .cfa -32 + ^ $rbx: .cfa -40 + ^
STACK CFI 1f48d2 .cfa: $rsp 96 +
STACK CFI INIT 1f4b40 e0 .cfa: $rsp 8 + .ra: .cfa -8 + ^
STACK CFI 1f4b47 $rbx: .cfa -40 + ^
STACK CFI 1f4b5c .cfa: $rsp 64 +
STACK CFI 1f4b6b $r12: .cfa -32 + ^ $r13: .cfa -24 + ^ $r14: .cfa -16 + ^
STACK CFI INIT 1f4c20 120 .cfa: $rsp 8 + .ra: .cfa -8 + ^
STACK CFI 1f4c28 $r14: .cfa -16 + ^
STACK CFI 1f4c3d .cfa: $rsp 64 +
STACK CFI 1f4c40 $r12: .cfa -32 + ^ $r13: .cfa -24 + ^ $rbx: .cfa -40 + ^
STACK CFI INIT 1f4d40 264 .cfa: $rsp 8 + .ra: .cfa -8 + ^
STACK CFI 1f4d42 .cfa: $rsp 16 +
STACK CFI 1f4d46 .cfa: $rsp 24 +
STACK CFI 1f4d49 $r13: .cfa -24 + ^ $r14: .cfa -16 + ^
STACK CFI 1f4d4b .cfa: $rsp 32 +
STACK CFI 1f4d4c .cfa: $rsp 40 +
STACK CFI 1f4d4e $r12: .cfa -32 + ^ $rbx: .cfa -40 + ^
STACK CFI 1f4d57 .cfa: $rsp 112 +
STACK CFI INIT 1f4fc0 90 .cfa: $rsp 8 + .ra: .cfa -8 + ^
STACK CFI 1f4fc1 .cfa: $rsp 16 +
STACK CFI 1f4fc3 $rbx: .cfa -16 + ^
STACK CFI INIT 1f5060 d3 .cfa: $rsp 8 + .ra: .cfa -8 + ^
STACK CFI 1f5061 .cfa: $rsp 16 +
STACK CFI 1f5063 $rbx: .cfa -16 + ^
STACK CFI INIT 1f5140 239 .cfa: $rsp 8 + .ra: .cfa -8 + ^
STACK CFI 1f5142 .cfa: $rsp 16 +
STACK CFI 1f5146 .cfa: $rsp 24 +
STACK CFI 1f5149 $r13: .cfa -24 + ^ $r14: .cfa -16 + ^
STACK CFI 1f514b .cfa: $rsp 32 +
STACK CFI 1f514c .cfa: $rsp 40 +
STACK CFI 1f514e $r12: .cfa -32 + ^ $rbx: .cfa -40 + ^
STACK CFI 1f5154 .cfa: $rsp 112 +
STACK CFI INIT 1f5380 33 .cfa: $rsp 8 + .ra: .cfa -8 + ^
STACK CFI INIT 1f53c0 e20 .cfa: $rsp 8 + .ra: .cfa -8 + ^
STACK CFI 1f53c2 .cfa: $rsp 16 +
STACK CFI 1f53c6 .cfa: $rsp 24 +
STACK CFI 1f53c8 .cfa: $rsp 32 +
STACK CFI 1f53c9 .cfa: $rsp 40 +
STACK CFI 1f53cb $r12: .cfa -32 + ^ $r13: .cfa -24 + ^ $r14: .cfa -16 + ^ $rbx: .cfa -40 + ^
STACK CFI 1f53d4 .cfa: $rsp 208 +
STACK CFI INIT 1f61e0 2a7 .cfa: $rsp 8 + .ra: .cfa -8 + ^
STACK CFI 1f61e2 .cfa: $rsp 16 +
STACK CFI 1f61e4 .cfa: $rsp 24 +
STACK CFI 1f61e7 $r13: .cfa -24 + ^ $r14: .cfa -16 + ^
STACK CFI 1f61e9 .cfa: $rsp 32 +
STACK CFI 1f61ec $r12: .cfa -32 + ^
STACK CFI 1f61ed .cfa: $rsp 40 +
STACK CFI 1f61f3 .cfa: $rsp 64 +
STACK CFI 1f6202 $rbx: .cfa -40 + ^
STACK CFI INIT 1f64a0 200 .cfa: $rsp 8 + .ra: .cfa -8 + ^
STACK CFI 1f64a3 .cfa: $rsp 16 +
STACK CFI 1f64a8 $rbx: .cfa -16 + ^
STACK CFI INIT 1f66a0 7 .cfa: $rsp 8 + .ra: .cfa -8 + ^
STACK CFI INIT 1f66c0 6d .cfa: $rsp 8 + .ra: .cfa -8 + ^
STACK CFI 1f66c8 .cfa: $rsp 16 +
STACK CFI INIT c0 80 .cfa: $rsp 8 + .ra: .cfa -8 + ^
STACK CFI INIT 140 3e0 .cfa: $rsp 8 + .ra: .cfa -8 + ^
STACK CFI 142 .cfa: $rsp 16 +
STACK CFI 144 .cfa: $rsp 24 +
STACK CFI 146 .cfa: $rsp 32 +
STACK CFI 147 .cfa: $rsp 40 +
STACK CFI 14e $r12: .cfa -32 + ^ $r13: .cfa -24 + ^ $r14: .cfa -16 + ^ $rbx: .cfa -40 + ^ .cfa: $rsp 64 +
STACK CFI INIT 520 c0 .cfa: $rsp 8 + .ra: .cfa -8 + ^
STACK CFI 522 .cfa: $rsp 16 +
STACK CFI 523 .cfa: $rsp 24 +
STACK CFI 52a $r14: .cfa -16 + ^ $rbx: .cfa -24 + ^ .cfa: $rsp 48 +
STACK CFI INIT 5e0 1c0 .cfa: $rsp 8 + .ra: .cfa -8 + ^
STACK CFI 5e2 .cfa: $rsp 16 +
STACK CFI 5e4 .cfa: $rsp 24 +
STACK CFI 5e6 .cfa: $rsp 32 +
STACK CFI 5e7 .cfa: $rsp 40 +
STACK CFI 5f1 $r12: .cfa -32 + ^ $r13: .cfa -24 + ^ $r14: .cfa -16 + ^ $rbx: .cfa -40 + ^ .cfa: $rsp 176 +
STACK CFI INIT 7a0 1a0 .cfa: $rsp 8 + .ra: .cfa -8 + ^
STACK CFI 7a2 .cfa: $rsp 16 +
STACK CFI 7a4 .cfa: $rsp 24 +
STACK CFI 7a6 .cfa: $rsp 32 +
STACK CFI 7a7 .cfa: $rsp 40 +
STACK CFI 7a8 $r12: .cfa -32 + ^ $r13: .cfa -24 + ^ $r14: .cfa -16 + ^ $rbx: .cfa -40 + ^ .cfa: $rsp 48 +
STACK CFI INIT 940 320 .cfa: $rsp 8 + .ra: .cfa -8 + ^
STACK CFI 942 .cfa: $rsp 16 +
STACK CFI 944 .cfa: $rsp 24 +
STACK CFI 946 .cfa: $rsp 32 +
STACK CFI 947 .cfa: $rsp 40 +
STACK CFI 94e $r12: .cfa -32 + ^ $r13: .cfa -24 + ^ $r14: .cfa -16 + ^ $rbx: .cfa -40 + ^ .cfa: $rsp 96 +
STACK CFI INIT c60 e0 .cfa: $rsp 8 + .ra: .cfa -8 + ^
STACK CFI c61 $rbx: .cfa -16 + ^ .cfa: $rsp 16 +
STACK CFI INIT d40 80 .cfa: $rsp 8 + .ra: .cfa -8 + ^
STACK CFI d42 .cfa: $rsp 16 +
STACK CFI d43 .cfa: $rsp 24 +
STACK CFI d44 $r14: .cfa -16 + ^ $rbx: .cfa -24 + ^ .cfa: $rsp 32 +
STACK CFI INIT dc0 120 .cfa: $rsp 8 + .ra: .cfa -8 + ^
STACK CFI dc1 $rbx: .cfa -16 + ^ .cfa: $rsp 16 +
STACK CFI INIT ee0 80 .cfa: $rsp 8 + .ra: .cfa -8 + ^
STACK CFI ee1 $rbx: .cfa -16 + ^ .cfa: $rsp 16 +
STACK CFI INIT f60 620 .cfa: $rsp 8 + .ra: .cfa -8 + ^
STACK CFI f62 .cfa: $rsp 16 +
STACK CFI f64 .cfa: $rsp 24 +
STACK CFI f66 .cfa: $rsp 32 +
STACK CFI f67 .cfa: $rsp 40 +
STACK CFI f71 $r12: .cfa -32 + ^ $r13: .cfa -24 + ^ $r14: .cfa -16 + ^ $rbx: .cfa -40 + ^ .cfa: $rsp 8416 +
STACK CFI INIT 1580 640 .cfa: $rsp 8 + .ra: .cfa -8 + ^
STACK CFI 1582 .cfa: $rsp 16 +
STACK CFI 1584 .cfa: $rsp 24 +
STACK CFI 1586 .cfa: $rsp 32 +
STACK CFI 1587 .cfa: $rsp 40 +
STACK CFI 158e $r12: .cfa -32 + ^ $r13: .cfa -24 + ^ $r14: .cfa -16 + ^ $rbx: .cfa -40 + ^ .cfa: $rsp 96 +
STACK CFI INIT 1bc0 40 .cfa: $rsp 8 + .ra: .cfa -8 + ^
STACK CFI INIT 1c00 240 .cfa: $rsp 8 + .ra: .cfa -8 + ^
STACK CFI INIT 1e40 40 .cfa: $rsp 8 + .ra: .cfa -8 + ^
STACK CFI INIT 1e80 20 .cfa: $rsp 8 + .ra: .cfa -8 + ^
STACK CFI INIT 1ea0 20 .cfa: $rsp 8 + .ra: .cfa -8 + ^
STACK CFI INIT 1ec0 20 .cfa: $rsp 8 + .ra: .cfa -8 + ^
STACK CFI INIT 2380 260 .cfa: $rsp 8 + .ra: .cfa -8 + ^
STACK CFI 2382 .cfa: $rsp 16 +
STACK CFI 2384 .cfa: $rsp 24 +
STACK CFI 2386 .cfa: $rsp 32 +
STACK CFI 2387 .cfa: $rsp 40 +
STACK CFI 2388 $r12: .cfa -32 + ^ $r13: .cfa -24 + ^ $r14: .cfa -16 + ^ $rbx: .cfa -40 + ^ .cfa: $rsp 48 +
STACK CFI INIT 2880 c0 .cfa: $rsp 8 + .ra: .cfa -8 + ^
STACK CFI 2881 .cfa: $rsp 16 +
STACK CFI 2888 $rbx: .cfa -16 + ^ .cfa: $rsp 32 +
STACK CFI INIT 2940 4a0 .cfa: $rsp 8 + .ra: .cfa -8 + ^
STACK CFI 2942 .cfa: $rsp 16 +
STACK CFI 2944 .cfa: $rsp 24 +
STACK CFI 2946 .cfa: $rsp 32 +
STACK CFI 2947 .cfa: $rsp 40 +
STACK CFI 294e $r12: .cfa -32 + ^ $r13: .cfa -24 + ^ $r14: .cfa -16 + ^ $rbx: .cfa -40 + ^ .cfa: $rsp 64 +
STACK CFI INIT 2de0 40 .cfa: $rsp 8 + .ra: .cfa -8 + ^
STACK CFI 2de1 .cfa: $rsp 16 +
STACK CFI INIT 2e20 6c0 .cfa: $rsp 8 + .ra: .cfa -8 + ^
STACK CFI 2e22 .cfa: $rsp 16 +
STACK CFI 2e24 .cfa: $rsp 24 +
STACK CFI 2e26 .cfa: $rsp 32 +
STACK CFI 2e27 $r12: .cfa -32 + ^ $r13: .cfa -24 + ^ $r14: .cfa -16 + ^ $rbx: .cfa -40 + ^ .cfa: $rsp 40 +
STACK CFI INIT 34e0 2e0 .cfa: $rsp 8 + .ra: .cfa -8 + ^
STACK CFI INIT 3b00 20 .cfa: $rsp 8 + .ra: .cfa -8 + ^
STACK CFI INIT 3b20 20 .cfa: $rsp 8 + .ra: .cfa -8 + ^
STACK CFI INIT 3b40 80 .cfa: $rsp 8 + .ra: .cfa -8 + ^
STACK CFI 3b41 $rbx: .cfa -16 + ^ .cfa: $rsp 16 +
STACK CFI INIT 3bc0 40 .cfa: $rsp 8 + .ra: .cfa -8 + ^
STACK CFI INIT 3c00 20 .cfa: $rsp 8 + .ra: .cfa -8 + ^
STACK CFI INIT 3c20 20 .cfa: $rsp 8 + .ra: .cfa -8 + ^
STACK CFI INIT 3c40 40 .cfa: $rsp 8 + .ra: .cfa -8 + ^
STACK CFI INIT 3c80 40 .cfa: $rsp 8 + .ra: .cfa -8 + ^
STACK CFI INIT 3cc0 20 .cfa: $rsp 8 + .ra: .cfa -8 + ^
STACK CFI INIT 4220 2c0 .cfa: $rsp 8 + .ra: .cfa -8 + ^
STACK CFI 4222 .cfa: $rsp 16 +
STACK CFI 4224 .cfa: $rsp 24 +
STACK CFI 4226 .cfa: $rsp 32 +
STACK CFI 4227 .cfa: $rsp 40 +
STACK CFI 422e $r12: .cfa -32 + ^ $r13: .cfa -24 + ^ $r14: .cfa -16 + ^ $rbx: .cfa -40 + ^ .cfa: $rsp 64 +
STACK CFI INIT 44e0 320 .cfa: $rsp 8 + .ra: .cfa -8 + ^
STACK CFI 44e2 .cfa: $rsp 16 +
STACK CFI 44e3 .cfa: $rsp 24 +
STACK CFI 44e4 $r14: .cfa -16 + ^ $rbx: .cfa -24 + ^ .cfa: $rsp 32 +
STACK CFI INIT 6aa0 380 .cfa: $rsp 8 + .ra: .cfa -8 + ^
STACK CFI 6aa2 .cfa: $rsp 16 +
STACK CFI 6aa4 .cfa: $rsp 24 +
STACK CFI 6aa6 .cfa: $rsp 32 +
STACK CFI 6aa7 .cfa: $rsp 40 +
STACK CFI 6aae $r12: .cfa -32 + ^ $r13: .cfa -24 + ^ $r14: .cfa -16 + ^ $rbx: .cfa -40 + ^ .cfa: $rsp 80 +
STACK CFI INIT 7780 120 .cfa: $rsp 8 + .ra: .cfa -8 + ^
STACK CFI 7782 .cfa: $rsp 16 +
STACK CFI 7784 .cfa: $rsp 24 +
STACK CFI 7786 .cfa: $rsp 32 +
STACK CFI 7787 .cfa: $rsp 40 +
STACK CFI 7788 $r12: .cfa -32 + ^ $r13: .cfa -24 + ^ $r14: .cfa -16 + ^ $rbx: .cfa -40 + ^ .cfa: $rsp 48 +
STACK CFI INIT 78a0 280 .cfa: $rsp 8 + .ra: .cfa -8 + ^
STACK CFI 78a2 .cfa: $rsp 16 +
STACK CFI 78a4 .cfa: $rsp 24 +
STACK CFI 78a6 .cfa: $rsp 32 +
STACK CFI 78a7 .cfa: $rsp 40 +
STACK CFI 78a8 $r12: .cfa -32 + ^ $r13: .cfa -24 + ^ $r14: .cfa -16 + ^ $rbx: .cfa -40 + ^ .cfa: $rsp 48 +
STACK CFI INIT 7b20 2c0 .cfa: $rsp 8 + .ra: .cfa -8 + ^
STACK CFI 7b22 .cfa: $rsp 16 +
STACK CFI 7b24 .cfa: $rsp 24 +
STACK CFI 7b26 .cfa: $rsp 32 +
STACK CFI 7b27 .cfa: $rsp 40 +
STACK CFI 7b2e $r12: .cfa -32 + ^ $r13: .cfa -24 + ^ $r14: .cfa -16 + ^ $rbx: .cfa -40 + ^ .cfa: $rsp 64 +
STACK CFI INIT 8220 180 .cfa: $rsp 8 + .ra: .cfa -8 + ^
STACK CFI 8222 .cfa: $rsp 16 +
STACK CFI 8224 .cfa: $rsp 24 +
STACK CFI 8225 $r12: .cfa -24 + ^ $r14: .cfa -16 + ^ $rbx: .cfa -32 + ^ .cfa: $rsp 32 +
STACK CFI INIT 83a0 420 .cfa: $rsp 8 + .ra: .cfa -8 + ^
STACK CFI 83a2 .cfa: $rsp 16 +
STACK CFI 83a4 .cfa: $rsp 24 +
STACK CFI 83a6 .cfa: $rsp 32 +
STACK CFI 83a7 .cfa: $rsp 40 +
STACK CFI 83ae $r12: .cfa -32 + ^ $r13: .cfa -24 + ^ $r14: .cfa -16 + ^ $rbx: .cfa -40 + ^ .cfa: $rsp 80 +
STACK CFI INIT 87c0 2c0 .cfa: $rsp 8 + .ra: .cfa -8 + ^
STACK CFI 87c2 .cfa: $rsp 16 +
STACK CFI 87c4 .cfa: $rsp 24 +
STACK CFI 87c6 .cfa: $rsp 32 +
STACK CFI 87c7 .cfa: $rsp 40 +
STACK CFI 87ce $r12: .cfa -32 + ^ $r13: .cfa -24 + ^ $r14: .cfa -16 + ^ $rbx: .cfa -40 + ^ .cfa: $rsp 64 +
STACK CFI INIT 8a80 80 .cfa: $rsp 8 + .ra: .cfa -8 + ^
STACK CFI 8a82 .cfa: $rsp 16 +
STACK CFI 8a83 .cfa: $rsp 24 +
STACK CFI 8a84 $r14: .cfa -16 + ^ $rbx: .cfa -24 + ^ .cfa: $rsp 32 +
STACK CFI INIT 8b00 320 .cfa: $rsp 8 + .ra: .cfa -8 + ^
STACK CFI 8b02 .cfa: $rsp 16 +
STACK CFI 8b04 .cfa: $rsp 24 +
STACK CFI 8b06 .cfa: $rsp 32 +
STACK CFI 8b07 .cfa: $rsp 40 +
STACK CFI 8b0e $r12: .cfa -32 + ^ $r13: .cfa -24 + ^ $r14: .cfa -16 + ^ $rbx: .cfa -40 + ^ .cfa: $rsp 128 +
STACK CFI INIT 8e20 120 .cfa: $rsp 8 + .ra: .cfa -8 + ^
STACK CFI 8e22 .cfa: $rsp 16 +
STACK CFI 8e24 .cfa: $rsp 24 +
STACK CFI 8e25 $r12: .cfa -24 + ^ $r14: .cfa -16 + ^ $rbx: .cfa -32 + ^ .cfa: $rsp 32 +
STACK CFI INIT 8f40 a0 .cfa: $rsp 8 + .ra: .cfa -8 + ^
STACK CFI 8f42 .cfa: $rsp 16 +
STACK CFI 8f43 .cfa: $rsp 24 +
STACK CFI 8f44 $r14: .cfa -16 + ^ $rbx: .cfa -24 + ^ .cfa: $rsp 32 +
STACK CFI INIT 9b00 c0 .cfa: $rsp 8 + .ra: .cfa -8 + ^
STACK CFI 9b07 .cfa: $rsp 64 +
STACK CFI INIT 9bc0 c0 .cfa: $rsp 8 + .ra: .cfa -8 + ^
STACK CFI 9bc7 .cfa: $rsp 64 +
STACK CFI INIT 9c80 140 .cfa: $rsp 8 + .ra: .cfa -8 + ^
STACK CFI 9c87 .cfa: $rsp 64 +
STACK CFI INIT 9dc0 2c0 .cfa: $rsp 8 + .ra: .cfa -8 + ^
STACK CFI 9dc2 .cfa: $rsp 16 +
STACK CFI 9dc4 .cfa: $rsp 24 +
STACK CFI 9dc6 .cfa: $rsp 32 +
STACK CFI 9dc7 .cfa: $rsp 40 +
STACK CFI 9dce $r12: .cfa -32 + ^ $r13: .cfa -24 + ^ $r14: .cfa -16 + ^ $rbx: .cfa -40 + ^ .cfa: $rsp 128 +
STACK CFI INIT a080 360 .cfa: $rsp 8 + .ra: .cfa -8 + ^
STACK CFI a082 .cfa: $rsp 16 +
STACK CFI a084 .cfa: $rsp 24 +
STACK CFI a086 .cfa: $rsp 32 +
STACK CFI a087 .cfa: $rsp 40 +
STACK CFI a08e $r12: .cfa -32 + ^ $r13: .cfa -24 + ^ $r14: .cfa -16 + ^ $rbx: .cfa -40 + ^ .cfa: $rsp 96 +
STACK CFI INIT a3e0 460 .cfa: $rsp 8 + .ra: .cfa -8 + ^
STACK CFI a3e2 .cfa: $rsp 16 +
STACK CFI a3e4 .cfa: $rsp 24 +
STACK CFI a3e6 .cfa: $rsp 32 +
STACK CFI a3e7 .cfa: $rsp 40 +
STACK CFI a3f1 $r12: .cfa -32 + ^ $r13: .cfa -24 + ^ $r14: .cfa -16 + ^ $rbx: .cfa -40 + ^ .cfa: $rsp 4272 +
STACK CFI INIT a840 3e0 .cfa: $rsp 8 + .ra: .cfa -8 + ^
STACK CFI a842 .cfa: $rsp 16 +
STACK CFI a844 .cfa: $rsp 24 +
STACK CFI a846 .cfa: $rsp 32 +
STACK CFI a847 .cfa: $rsp 40 +
STACK CFI a84e $r12: .cfa -32 + ^ $r13: .cfa -24 + ^ $r14: .cfa -16 + ^ $rbx: .cfa -40 + ^ .cfa: $rsp 96 +
STACK CFI INIT ac20 1e0 .cfa: $rsp 8 + .ra: .cfa -8 + ^
STACK CFI ac22 .cfa: $rsp 16 +
STACK CFI ac23 .cfa: $rsp 24 +
STACK CFI ac24 $r14: .cfa -16 + ^ $rbx: .cfa -24 + ^ .cfa: $rsp 32 +
STACK CFI INIT ae00 580 .cfa: $rsp 8 + .ra: .cfa -8 + ^
STACK CFI ae02 .cfa: $rsp 16 +
STACK CFI ae04 .cfa: $rsp 24 +
STACK CFI ae06 .cfa: $rsp 32 +
STACK CFI ae07 .cfa: $rsp 40 +
STACK CFI ae0e $r12: .cfa -32 + ^ $r13: .cfa -24 + ^ $r14: .cfa -16 + ^ $rbx: .cfa -40 + ^ .cfa: $rsp 64 +
STACK CFI INIT 10120 a0 .cfa: $rsp 8 + .ra: .cfa -8 + ^
STACK CFI 10121 .cfa: $rsp 16 +
STACK CFI 10128 $rbx: .cfa -16 + ^ .cfa: $rsp 32 +
STACK CFI INIT 11160 e0 .cfa: $rsp 8 + .ra: .cfa -8 + ^
STACK CFI 11162 .cfa: $rsp 16 +
STACK CFI 11163 .cfa: $rsp 24 +
STACK CFI 11164 $r14: .cfa -16 + ^ $rbx: .cfa -24 + ^ .cfa: $rsp 32 +
STACK CFI INIT 11240 100 .cfa: $rsp 8 + .ra: .cfa -8 + ^
STACK CFI 11242 .cfa: $rsp 16 +
STACK CFI 11244 .cfa: $rsp 24 +
STACK CFI 11245 $r12: .cfa -24 + ^ $r14: .cfa -16 + ^ $rbx: .cfa -32 + ^ .cfa: $rsp 32 +
STACK CFI INIT 11340 120 .cfa: $rsp 8 + .ra: .cfa -8 + ^
STACK CFI 11342 .cfa: $rsp 16 +
STACK CFI 11344 .cfa: $rsp 24 +
STACK CFI 11345 $r12: .cfa -24 + ^ $r14: .cfa -16 + ^ $rbx: .cfa -32 + ^ .cfa: $rsp 32 +
STACK CFI INIT 11460 140 .cfa: $rsp 8 + .ra: .cfa -8 + ^
STACK CFI 11462 .cfa: $rsp 16 +
STACK CFI 11464 .cfa: $rsp 24 +
STACK CFI 11465 $r12: .cfa -24 + ^ $r14: .cfa -16 + ^ $rbx: .cfa -32 + ^ .cfa: $rsp 32 +
STACK CFI INIT 115a0 a0 .cfa: $rsp 8 + .ra: .cfa -8 + ^
STACK CFI 115a1 $rbx: .cfa -16 + ^ .cfa: $rsp 16 +
STACK CFI INIT 11640 e0 .cfa: $rsp 8 + .ra: .cfa -8 + ^
STACK CFI 11642 .cfa: $rsp 16 +
STACK CFI 11643 .cfa: $rsp 24 +
STACK CFI 11644 $r14: .cfa -16 + ^ $rbx: .cfa -24 + ^ .cfa: $rsp 32 +
STACK CFI INIT 11720 180 .cfa: $rsp 8 + .ra: .cfa -8 + ^
STACK CFI 11721 $rbx: .cfa -16 + ^ .cfa: $rsp 16 +
STACK CFI INIT 118a0 60 .cfa: $rsp 8 + .ra: .cfa -8 + ^
STACK CFI 118a1 .cfa: $rsp 16 +
STACK CFI INIT 11900 80 .cfa: $rsp 8 + .ra: .cfa -8 + ^
STACK CFI INIT 11980 c0 .cfa: $rsp 8 + .ra: .cfa -8 + ^
STACK CFI 11981 $rbx: .cfa -16 + ^ .cfa: $rsp 16 +
STACK CFI INIT 11d00 240 .cfa: $rsp 8 + .ra: .cfa -8 + ^
STACK CFI 11d02 .cfa: $rsp 16 +
STACK CFI 11d04 .cfa: $rsp 24 +
STACK CFI 11d06 .cfa: $rsp 32 +
STACK CFI 11d07 .cfa: $rsp 40 +
STACK CFI 11d08 $r12: .cfa -32 + ^ $r13: .cfa -24 + ^ $r14: .cfa -16 + ^ $rbx: .cfa -40 + ^ .cfa: $rsp 48 +
STACK CFI INIT 11f40 1a0 .cfa: $rsp 8 + .ra: .cfa -8 + ^
STACK CFI 11f42 .cfa: $rsp 16 +
STACK CFI 11f44 .cfa: $rsp 24 +
STACK CFI 11f45 .cfa: $rsp 32 +
STACK CFI 11f4c $r12: .cfa -24 + ^ $r14: .cfa -16 + ^ $rbx: .cfa -32 + ^ .cfa: $rsp 48 +
STACK CFI INIT 120e0 a0 .cfa: $rsp 8 + .ra: .cfa -8 + ^
STACK CFI 120e1 .cfa: $rsp 16 +
STACK CFI 120e8 $rbx: .cfa -16 + ^ .cfa: $rsp 32 +
STACK CFI INIT 14de0 1c0 .cfa: $rsp 8 + .ra: .cfa -8 + ^
STACK CFI 14de2 .cfa: $rsp 16 +
STACK CFI 14de4 .cfa: $rsp 24 +
STACK CFI 14de6 .cfa: $rsp 32 +
STACK CFI 14de7 .cfa: $rsp 40 +
STACK CFI 14de8 $r12: .cfa -32 + ^ $r13: .cfa -24 + ^ $r14: .cfa -16 + ^ $rbx: .cfa -40 + ^ .cfa: $rsp 48 +
STACK CFI INIT 14fa0 220 .cfa: $rsp 8 + .ra: .cfa -8 + ^
STACK CFI 14fa2 .cfa: $rsp 16 +
STACK CFI 14fa4 .cfa: $rsp 24 +
STACK CFI 14fa6 .cfa: $rsp 32 +
STACK CFI 14fa7 .cfa: $rsp 40 +
STACK CFI 14fb1 $r12: .cfa -32 + ^ $r13: .cfa -24 + ^ $r14: .cfa -16 + ^ $rbx: .cfa -40 + ^ .cfa: $rsp 1104 +
STACK CFI INIT 151c0 320 .cfa: $rsp 8 + .ra: .cfa -8 + ^
STACK CFI 151c2 .cfa: $rsp 16 +
STACK CFI 151c4 .cfa: $rsp 24 +
STACK CFI 151c6 .cfa: $rsp 32 +
STACK CFI 151c7 .cfa: $rsp 40 +
STACK CFI 151ce $r12: .cfa -32 + ^ $r13: .cfa -24 + ^ $r14: .cfa -16 + ^ $rbx: .cfa -40 + ^ .cfa: $rsp 64 +
STACK CFI INIT 154e0 420 .cfa: $rsp 8 + .ra: .cfa -8 + ^
STACK CFI 154e2 .cfa: $rsp 16 +
STACK CFI 154e4 .cfa: $rsp 24 +
STACK CFI 154e6 .cfa: $rsp 32 +
STACK CFI 154e7 .cfa: $rsp 40 +
STACK CFI 154f1 $r12: .cfa -32 + ^ $r13: .cfa -24 + ^ $r14: .cfa -16 + ^ $rbx: .cfa -40 + ^ .cfa: $rsp 320 +
STACK CFI INIT 15900 1140 .cfa: $rsp 8 + .ra: .cfa -8 + ^
STACK CFI 15902 .cfa: $rsp 16 +
STACK CFI 15904 .cfa: $rsp 24 +
STACK CFI 15906 .cfa: $rsp 32 +
STACK CFI 15907 .cfa: $rsp 40 +
STACK CFI 1590e $r12: .cfa -32 + ^ $r13: .cfa -24 + ^ $r14: .cfa -16 + ^ $rbx: .cfa -40 + ^ .cfa: $rsp 144 +
STACK CFI INIT 16a40 180 .cfa: $rsp 8 + .ra: .cfa -8 + ^
STACK CFI 16a42 .cfa: $rsp 16 +
STACK CFI 16a44 .cfa: $rsp 24 +
STACK CFI 16a45 .cfa: $rsp 32 +
STACK CFI 16a4f $r12: .cfa -24 + ^ $r14: .cfa -16 + ^ $rbx: .cfa -32 + ^ .cfa: $rsp 2112 +
STACK CFI INIT 16bc0 220 .cfa: $rsp 8 + .ra: .cfa -8 + ^
STACK CFI 16bc2 .cfa: $rsp 16 +
STACK CFI 16bc3 .cfa: $rsp 24 +
STACK CFI 16bca $r14: .cfa -16 + ^ $rbx: .cfa -24 + ^ .cfa: $rsp 80 +
STACK CFI INIT 16de0 a20 .cfa: $rsp 8 + .ra: .cfa -8 + ^
STACK CFI 16de2 .cfa: $rsp 16 +
STACK CFI 16de4 .cfa: $rsp 24 +
STACK CFI 16de6 .cfa: $rsp 32 +
STACK CFI 16de7 .cfa: $rsp 40 +
STACK CFI 16df1 $r12: .cfa -32 + ^ $r13: .cfa -24 + ^ $r14: .cfa -16 + ^ $rbx: .cfa -40 + ^ .cfa: $rsp 480 +
STACK CFI INIT 17800 80 .cfa: $rsp 8 + .ra: .cfa -8 + ^
STACK CFI 17801 .cfa: $rsp 16 +
STACK CFI 17808 $rbx: .cfa -16 + ^ .cfa: $rsp 32 +
STACK CFI INIT 17880 1720 .cfa: $rsp 8 + .ra: .cfa -8 + ^
STACK CFI 17882 .cfa: $rsp 16 +
STACK CFI 17884 .cfa: $rsp 24 +
STACK CFI 17886 .cfa: $rsp 32 +
STACK CFI 17887 .cfa: $rsp 40 +
STACK CFI 17891 $r12: .cfa -32 + ^ $r13: .cfa -24 + ^ $r14: .cfa -16 + ^ $rbx: .cfa -40 + ^ .cfa: $rsp 320 +
STACK CFI INIT 18fa0 1a0 .cfa: $rsp 8 + .ra: .cfa -8 + ^
STACK CFI 18fa2 .cfa: $rsp 16 +
STACK CFI 18fa3 .cfa: $rsp 24 +
STACK CFI 18fa4 $r14: .cfa -16 + ^ $rbx: .cfa -24 + ^ .cfa: $rsp 32 +
STACK CFI INIT 19140 660 .cfa: $rsp 8 + .ra: .cfa -8 + ^
STACK CFI 19142 .cfa: $rsp 16 +
STACK CFI 19144 .cfa: $rsp 24 +
STACK CFI 19145 .cfa: $rsp 32 +
STACK CFI 1914f $r12: .cfa -24 + ^ $r14: .cfa -16 + ^ $rbx: .cfa -32 + ^ .cfa: $rsp 256 +
STACK CFI INIT 197a0 960 .cfa: $rsp 8 + .ra: .cfa -8 + ^
STACK CFI 197a2 .cfa: $rsp 16 +
STACK CFI 197a4 .cfa: $rsp 24 +
STACK CFI 197a6 .cfa: $rsp 32 +
STACK CFI 197a7 .cfa: $rsp 40 +
STACK CFI 197b1 $r12: .cfa -32 + ^ $r13: .cfa -24 + ^ $r14: .cfa -16 + ^ $rbx: .cfa -40 + ^ .cfa: $rsp 336 +
STACK CFI INIT 1a100 700 .cfa: $rsp 8 + .ra: .cfa -8 + ^
STACK CFI 1a102 .cfa: $rsp 16 +
STACK CFI 1a104 .cfa: $rsp 24 +
STACK CFI 1a106 .cfa: $rsp 32 +
STACK CFI 1a107 .cfa: $rsp 40 +
STACK CFI 1a111 $r12: .cfa -32 + ^ $r13: .cfa -24 + ^ $r14: .cfa -16 + ^ $rbx: .cfa -40 + ^ .cfa: $rsp 1344 +
STACK CFI INIT 1a800 10c0 .cfa: $rsp 8 + .ra: .cfa -8 + ^
STACK CFI 1a802 .cfa: $rsp 16 +
STACK CFI 1a804 .cfa: $rsp 24 +
STACK CFI 1a806 .cfa: $rsp 32 +
STACK CFI 1a807 .cfa: $rsp 40 +
STACK CFI 1a811 $r12: .cfa -32 + ^ $r13: .cfa -24 + ^ $r14: .cfa -16 + ^ $rbx: .cfa -40 + ^ .cfa: $rsp 1584 +
STACK CFI INIT 1b8c0 600 .cfa: $rsp 8 + .ra: .cfa -8 + ^
STACK CFI 1b8c2 .cfa: $rsp 16 +
STACK CFI 1b8c4 .cfa: $rsp 24 +
STACK CFI 1b8c6 .cfa: $rsp 32 +
STACK CFI 1b8c7 .cfa: $rsp 40 +
STACK CFI 1b8d1 $r12: .cfa -32 + ^ $r13: .cfa -24 + ^ $r14: .cfa -16 + ^ $rbx: .cfa -40 + ^ .cfa: $rsp 368 +
STACK CFI INIT 1bec0 720 .cfa: $rsp 8 + .ra: .cfa -8 + ^
STACK CFI 1bec2 .cfa: $rsp 16 +
STACK CFI 1bec4 .cfa: $rsp 24 +
STACK CFI 1bec6 .cfa: $rsp 32 +
STACK CFI 1bec7 .cfa: $rsp 40 +
STACK CFI 1bed1 $r12: .cfa -32 + ^ $r13: .cfa -24 + ^ $r14: .cfa -16 + ^ $rbx: .cfa -40 + ^ .cfa: $rsp 224 +
STACK CFI INIT 1c5e0 f60 .cfa: $rsp 8 + .ra: .cfa -8 + ^
STACK CFI 1c5e2 .cfa: $rsp 16 +
STACK CFI 1c5e4 .cfa: $rsp 24 +
STACK CFI 1c5e6 .cfa: $rsp 32 +
STACK CFI 1c5e7 .cfa: $rsp 40 +
STACK CFI 1c5f1 $r12: .cfa -32 + ^ $r13: .cfa -24 + ^ $r14: .cfa -16 + ^ $rbx: .cfa -40 + ^ .cfa: $rsp 1360 +
STACK CFI INIT 1d540 7a0 .cfa: $rsp 8 + .ra: .cfa -8 + ^
STACK CFI 1d542 .cfa: $rsp 16 +
STACK CFI 1d544 .cfa: $rsp 24 +
STACK CFI 1d546 .cfa: $rsp 32 +
STACK CFI 1d547 .cfa: $rsp 40 +
STACK CFI 1d551 $r12: .cfa -32 + ^ $r13: .cfa -24 + ^ $r14: .cfa -16 + ^ $rbx: .cfa -40 + ^ .cfa: $rsp 1408 +
STACK CFI INIT 1dce0 c40 .cfa: $rsp 8 + .ra: .cfa -8 + ^
STACK CFI 1dce2 .cfa: $rsp 16 +
STACK CFI 1dce4 .cfa: $rsp 24 +
STACK CFI 1dce6 .cfa: $rsp 32 +
STACK CFI 1dce7 .cfa: $rsp 40 +
STACK CFI 1dcf1 $r12: .cfa -32 + ^ $r13: .cfa -24 + ^ $r14: .cfa -16 + ^ $rbx: .cfa -40 + ^ .cfa: $rsp 2480 +
STACK CFI INIT 1e920 720 .cfa: $rsp 8 + .ra: .cfa -8 + ^
STACK CFI 1e922 .cfa: $rsp 16 +
STACK CFI 1e924 .cfa: $rsp 24 +
STACK CFI 1e926 .cfa: $rsp 32 +
STACK CFI 1e927 .cfa: $rsp 40 +
STACK CFI 1e931 $r12: .cfa -32 + ^ $r13: .cfa -24 + ^ $r14: .cfa -16 + ^ $rbx: .cfa -40 + ^ .cfa: $rsp 1360 +
STACK CFI INIT 1f040 740 .cfa: $rsp 8 + .ra: .cfa -8 + ^
STACK CFI 1f042 .cfa: $rsp 16 +
STACK CFI 1f044 .cfa: $rsp 24 +
STACK CFI 1f045 .cfa: $rsp 32 +
STACK CFI 1f04f $r12: .cfa -24 + ^ $r14: .cfa -16 + ^ $rbx: .cfa -32 + ^ .cfa: $rsp 304 +
STACK CFI INIT 1f780 ae0 .cfa: $rsp 8 + .ra: .cfa -8 + ^
STACK CFI 1f782 .cfa: $rsp 16 +
STACK CFI 1f784 .cfa: $rsp 24 +
STACK CFI 1f786 .cfa: $rsp 32 +
STACK CFI 1f787 .cfa: $rsp 40 +
STACK CFI 1f791 $r12: .cfa -32 + ^ $r13: .cfa -24 + ^ $r14: .cfa -16 + ^ $rbx: .cfa -40 + ^ .cfa: $rsp 1808 +
STACK CFI INIT 20260 8a0 .cfa: $rsp 8 + .ra: .cfa -8 + ^
STACK CFI 20262 .cfa: $rsp 16 +
STACK CFI 20264 .cfa: $rsp 24 +
STACK CFI 20266 .cfa: $rsp 32 +
STACK CFI 20267 .cfa: $rsp 40 +
STACK CFI 20271 $r12: .cfa -32 + ^ $r13: .cfa -24 + ^ $r14: .cfa -16 + ^ $rbx: .cfa -40 + ^ .cfa: $rsp 384 +
STACK CFI INIT 20b00 8c0 .cfa: $rsp 8 + .ra: .cfa -8 + ^
STACK CFI 20b02 .cfa: $rsp 16 +
STACK CFI 20b04 .cfa: $rsp 24 +
STACK CFI 20b06 .cfa: $rsp 32 +
STACK CFI 20b07 .cfa: $rsp 40 +
STACK CFI 20b11 $r12: .cfa -32 + ^ $r13: .cfa -24 + ^ $r14: .cfa -16 + ^ $rbx: .cfa -40 + ^ .cfa: $rsp 384 +
STACK CFI INIT 213c0 340 .cfa: $rsp 8 + .ra: .cfa -8 + ^
STACK CFI 213c2 .cfa: $rsp 16 +
STACK CFI 213c3 .cfa: $rsp 24 +
STACK CFI 213cd $r14: .cfa -16 + ^ $rbx: .cfa -24 + ^ .cfa: $rsp 336 +
STACK CFI INIT 21700 3e0 .cfa: $rsp 8 + .ra: .cfa -8 + ^
STACK CFI 21702 .cfa: $rsp 16 +
STACK CFI 21704 .cfa: $rsp 24 +
STACK CFI 21706 .cfa: $rsp 32 +
STACK CFI 21707 .cfa: $rsp 40 +
STACK CFI 21711 $r12: .cfa -32 + ^ $r13: .cfa -24 + ^ $r14: .cfa -16 + ^ $rbx: .cfa -40 + ^ .cfa: $rsp 304 +
STACK CFI INIT 21ae0 380 .cfa: $rsp 8 + .ra: .cfa -8 + ^
STACK CFI 21ae2 .cfa: $rsp 16 +
STACK CFI 21ae4 .cfa: $rsp 24 +
STACK CFI 21ae6 .cfa: $rsp 32 +
STACK CFI 21ae7 .cfa: $rsp 40 +
STACK CFI 21af1 $r12: .cfa -32 + ^ $r13: .cfa -24 + ^ $r14: .cfa -16 + ^ $rbx: .cfa -40 + ^ .cfa: $rsp 496 +
STACK CFI INIT 21fe0 300 .cfa: $rsp 8 + .ra: .cfa -8 + ^
STACK CFI 21fe2 .cfa: $rsp 16 +
STACK CFI 21fe4 .cfa: $rsp 24 +
STACK CFI 21fe6 .cfa: $rsp 32 +
STACK CFI 21fe7 .cfa: $rsp 40 +
STACK CFI 21ff1 $r12: .cfa -32 + ^ $r13: .cfa -24 + ^ $r14: .cfa -16 + ^ $rbx: .cfa -40 + ^ .cfa: $rsp 448 +
STACK CFI INIT 22d60 3a0 .cfa: $rsp 8 + .ra: .cfa -8 + ^
STACK CFI 22d62 .cfa: $rsp 16 +
STACK CFI 22d64 .cfa: $rsp 24 +
STACK CFI 22d65 .cfa: $rsp 32 +
STACK CFI 22d6f $r12: .cfa -24 + ^ $r14: .cfa -16 + ^ $rbx: .cfa -32 + ^ .cfa: $rsp 400 +
STACK CFI INIT 24440 220 .cfa: $rsp 8 + .ra: .cfa -8 + ^
STACK CFI 24442 .cfa: $rsp 16 +
STACK CFI 24444 .cfa: $rsp 24 +
STACK CFI 24446 .cfa: $rsp 32 +
STACK CFI 24447 .cfa: $rsp 40 +
STACK CFI 2444e $r12: .cfa -32 + ^ $r13: .cfa -24 + ^ $r14: .cfa -16 + ^ $rbx: .cfa -40 + ^ .cfa: $rsp 80 +
STACK CFI INIT 24660 1c0 .cfa: $rsp 8 + .ra: .cfa -8 + ^
STACK CFI 24661 .cfa: $rsp 16 +
STACK CFI 24668 $rbx: .cfa -16 + ^ .cfa: $rsp 48 +
STACK CFI INIT 24820 480 .cfa: $rsp 8 + .ra: .cfa -8 + ^
STACK CFI 24822 .cfa: $rsp 16 +
STACK CFI 24824 .cfa: $rsp 24 +
STACK CFI 24826 .cfa: $rsp 32 +
STACK CFI 24827 .cfa: $rsp 40 +
STACK CFI 24831 $r12: .cfa -32 + ^ $r13: .cfa -24 + ^ $r14: .cfa -16 + ^ $rbx: .cfa -40 + ^ .cfa: $rsp 176 +
STACK CFI INIT 24ca0 260 .cfa: $rsp 8 + .ra: .cfa -8 + ^
STACK CFI 24ca2 .cfa: $rsp 16 +
STACK CFI 24ca4 .cfa: $rsp 24 +
STACK CFI 24ca6 .cfa: $rsp 32 +
STACK CFI 24ca7 .cfa: $rsp 40 +
STACK CFI 24cae $r12: .cfa -32 + ^ $r13: .cfa -24 + ^ $r14: .cfa -16 + ^ $rbx: .cfa -40 + ^ .cfa: $rsp 64 +
STACK CFI INIT 24f00 9e0 .cfa: $rsp 8 + .ra: .cfa -8 + ^
STACK CFI 24f02 .cfa: $rsp 16 +
STACK CFI 24f04 .cfa: $rsp 24 +
STACK CFI 24f06 .cfa: $rsp 32 +
STACK CFI 24f07 .cfa: $rsp 40 +
STACK CFI 24f11 $r12: .cfa -32 + ^ $r13: .cfa -24 + ^ $r14: .cfa -16 + ^ $rbx: .cfa -40 + ^ .cfa: $rsp 2576 +
STACK CFI INIT 258e0 b60 .cfa: $rsp 8 + .ra: .cfa -8 + ^
STACK CFI 258e2 .cfa: $rsp 16 +
STACK CFI 258e4 .cfa: $rsp 24 +
STACK CFI 258e6 .cfa: $rsp 32 +
STACK CFI 258e7 .cfa: $rsp 40 +
STACK CFI 258f1 $r12: .cfa -32 + ^ $r13: .cfa -24 + ^ $r14: .cfa -16 + ^ $rbx: .cfa -40 + ^ .cfa: $rsp 1520 +
STACK CFI INIT 26440 2a0 .cfa: $rsp 8 + .ra: .cfa -8 + ^
STACK CFI 26441 .cfa: $rsp 16 +
STACK CFI 26448 $rbx: .cfa -16 + ^ .cfa: $rsp 48 +
STACK CFI INIT 266e0 3a0 .cfa: $rsp 8 + .ra: .cfa -8 + ^
STACK CFI 266e2 .cfa: $rsp 16 +
STACK CFI 266e4 .cfa: $rsp 24 +
STACK CFI 266e5 .cfa: $rsp 32 +
STACK CFI 266ef $r12: .cfa -24 + ^ $r14: .cfa -16 + ^ $rbx: .cfa -32 + ^ .cfa: $rsp 400 +
STACK CFI INIT 26a80 4c0 .cfa: $rsp 8 + .ra: .cfa -8 + ^
STACK CFI 26a82 .cfa: $rsp 16 +
STACK CFI 26a84 .cfa: $rsp 24 +
STACK CFI 26a86 .cfa: $rsp 32 +
STACK CFI 26a87 .cfa: $rsp 40 +
STACK CFI 26a91 $r12: .cfa -32 + ^ $r13: .cfa -24 + ^ $r14: .cfa -16 + ^ $rbx: .cfa -40 + ^ .cfa: $rsp 208 +
STACK CFI INIT 27880 1240 .cfa: $rsp 8 + .ra: .cfa -8 + ^
STACK CFI 27882 .cfa: $rsp 16 +
STACK CFI 27884 .cfa: $rsp 24 +
STACK CFI 27886 .cfa: $rsp 32 +
STACK CFI 27887 .cfa: $rsp 40 +
STACK CFI 27891 $r12: .cfa -32 + ^ $r13: .cfa -24 + ^ $r14: .cfa -16 + ^ $rbx: .cfa -40 + ^ .cfa: $rsp 3312 +
STACK CFI INIT 28ac0 7a0 .cfa: $rsp 8 + .ra: .cfa -8 + ^
STACK CFI 28ac2 .cfa: $rsp 16 +
STACK CFI 28ac4 .cfa: $rsp 24 +
STACK CFI 28ac6 .cfa: $rsp 32 +
STACK CFI 28ac7 .cfa: $rsp 40 +
STACK CFI 28ad1 $r12: .cfa -32 + ^ $r13: .cfa -24 + ^ $r14: .cfa -16 + ^ $rbx: .cfa -40 + ^ .cfa: $rsp 288 +
STACK CFI INIT 29260 2c0 .cfa: $rsp 8 + .ra: .cfa -8 + ^
STACK CFI 29261 .cfa: $rsp 16 +
STACK CFI 29268 $rbx: .cfa -16 + ^ .cfa: $rsp 64 +
STACK CFI INIT 29520 f80 .cfa: $rsp 8 + .ra: .cfa -8 + ^
STACK CFI 29522 .cfa: $rsp 16 +
STACK CFI 29524 .cfa: $rsp 24 +
STACK CFI 29526 .cfa: $rsp 32 +
STACK CFI 29527 .cfa: $rsp 40 +
STACK CFI 29531 $r12: .cfa -32 + ^ $r13: .cfa -24 + ^ $r14: .cfa -16 + ^ $rbx: .cfa -40 + ^ .cfa: $rsp 688 +
STACK CFI INIT 2a4a0 b00 .cfa: $rsp 8 + .ra: .cfa -8 + ^
STACK CFI 2a4a2 .cfa: $rsp 16 +
STACK CFI 2a4a4 .cfa: $rsp 24 +
STACK CFI 2a4a6 .cfa: $rsp 32 +
STACK CFI 2a4a7 .cfa: $rsp 40 +
STACK CFI 2a4b1 $r12: .cfa -32 + ^ $r13: .cfa -24 + ^ $r14: .cfa -16 + ^ $rbx: .cfa -40 + ^ .cfa: $rsp 1216 +
STACK CFI INIT 2afa0 3c0 .cfa: $rsp 8 + .ra: .cfa -8 + ^
STACK CFI 2afa2 .cfa: $rsp 16 +
STACK CFI 2afa3 .cfa: $rsp 24 +
STACK CFI 2afad $r14: .cfa -16 + ^ $rbx: .cfa -24 + ^ .cfa: $rsp 224 +
STACK CFI INIT 2b360 440 .cfa: $rsp 8 + .ra: .cfa -8 + ^
STACK CFI 2b362 .cfa: $rsp 16 +
STACK CFI 2b364 .cfa: $rsp 24 +
STACK CFI 2b365 .cfa: $rsp 32 +
STACK CFI 2b36f $r12: .cfa -24 + ^ $r14: .cfa -16 + ^ $rbx: .cfa -32 + ^ .cfa: $rsp 240 +
STACK CFI INIT 2b7a0 200 .cfa: $rsp 8 + .ra: .cfa -8 + ^
STACK CFI 2b7a2 .cfa: $rsp 16 +
STACK CFI 2b7a4 .cfa: $rsp 24 +
STACK CFI 2b7a5 .cfa: $rsp 32 +
STACK CFI 2b7ac $r12: .cfa -24 + ^ $r14: .cfa -16 + ^ $rbx: .cfa -32 + ^ .cfa: $rsp 64 +
STACK CFI INIT 2b9a0 1c0 .cfa: $rsp 8 + .ra: .cfa -8 + ^
STACK CFI 2b9a1 .cfa: $rsp 16 +
STACK CFI 2b9a8 $rbx: .cfa -16 + ^ .cfa: $rsp 48 +
STACK CFI INIT 2bb60 80 .cfa: $rsp 8 + .ra: .cfa -8 + ^
STACK CFI 2bb61 .cfa: $rsp 16 +
STACK CFI 2bb68 $rbx: .cfa -16 + ^ .cfa: $rsp 32 +
STACK CFI INIT 2e1c0 a0 .cfa: $rsp 8 + .ra: .cfa -8 + ^
STACK CFI 2e1c2 .cfa: $rsp 16 +
STACK CFI 2e1c3 .cfa: $rsp 24 +
STACK CFI 2e1c4 $r14: .cfa -16 + ^ $rbx: .cfa -24 + ^ .cfa: $rsp 32 +
STACK CFI INIT 2e260 a0 .cfa: $rsp 8 + .ra: .cfa -8 + ^
STACK CFI 2e261 .cfa: $rsp 16 +
STACK CFI 2e268 $rbx: .cfa -16 + ^ .cfa: $rsp 32 +
STACK CFI INIT 2e900 a0 .cfa: $rsp 8 + .ra: .cfa -8 + ^
STACK CFI 2e902 .cfa: $rsp 16 +
STACK CFI 2e903 .cfa: $rsp 24 +
STACK CFI 2e904 $r14: .cfa -16 + ^ $rbx: .cfa -24 + ^ .cfa: $rsp 32 +
STACK CFI INIT 2e9a0 a0 .cfa: $rsp 8 + .ra: .cfa -8 + ^
STACK CFI 2e9a1 .cfa: $rsp 16 +
STACK CFI 2e9a8 $rbx: .cfa -16 + ^ .cfa: $rsp 32 +
STACK CFI INIT 2ec00 2a0 .cfa: $rsp 8 + .ra: .cfa -8 + ^
STACK CFI 2ec02 .cfa: $rsp 16 +
STACK CFI 2ec04 .cfa: $rsp 24 +
STACK CFI 2ec06 .cfa: $rsp 32 +
STACK CFI 2ec07 .cfa: $rsp 40 +
STACK CFI 2ec08 $r12: .cfa -32 + ^ $r13: .cfa -24 + ^ $r14: .cfa -16 + ^ $rbx: .cfa -40 + ^ .cfa: $rsp 48 +
STACK CFI INIT 2eea0 1a0 .cfa: $rsp 8 + .ra: .cfa -8 + ^
STACK CFI 2eea2 .cfa: $rsp 16 +
STACK CFI 2eea4 .cfa: $rsp 24 +
STACK CFI 2eea6 .cfa: $rsp 32 +
STACK CFI 2eea7 .cfa: $rsp 40 +
STACK CFI 2eeae $r12: .cfa -32 + ^ $r13: .cfa -24 + ^ $r14: .cfa -16 + ^ $rbx: .cfa -40 + ^ .cfa: $rsp 128 +
STACK CFI INIT 2f040 3e0 .cfa: $rsp 8 + .ra: .cfa -8 + ^
STACK CFI 2f042 .cfa: $rsp 16 +
STACK CFI 2f043 .cfa: $rsp 24 +
STACK CFI 2f044 $r14: .cfa -16 + ^ $rbx: .cfa -24 + ^ .cfa: $rsp 32 +
STACK CFI INIT 2f420 1e0 .cfa: $rsp 8 + .ra: .cfa -8 + ^
STACK CFI 2f422 .cfa: $rsp 16 +
STACK CFI 2f424 .cfa: $rsp 24 +
STACK CFI 2f426 .cfa: $rsp 32 +
STACK CFI 2f427 .cfa: $rsp 40 +
STACK CFI 2f42e $r12: .cfa -32 + ^ $r13: .cfa -24 + ^ $r14: .cfa -16 + ^ $rbx: .cfa -40 + ^ .cfa: $rsp 64 +
STACK CFI INIT 2f600 1c0 .cfa: $rsp 8 + .ra: .cfa -8 + ^
STACK CFI 2f602 .cfa: $rsp 16 +
STACK CFI 2f604 .cfa: $rsp 24 +
STACK CFI 2f606 .cfa: $rsp 32 +
STACK CFI 2f607 $r12: .cfa -32 + ^ $r13: .cfa -24 + ^ $r14: .cfa -16 + ^ $rbx: .cfa -40 + ^ .cfa: $rsp 40 +
STACK CFI INIT 2f7c0 100 .cfa: $rsp 8 + .ra: .cfa -8 + ^
STACK CFI 2f7c2 .cfa: $rsp 16 +
STACK CFI 2f7c3 .cfa: $rsp 24 +
STACK CFI 2f7ca $r14: .cfa -16 + ^ $rbx: .cfa -24 + ^ .cfa: $rsp 80 +
STACK CFI INIT 2f8c0 9a0 .cfa: $rsp 8 + .ra: .cfa -8 + ^
STACK CFI 2f8c2 .cfa: $rsp 16 +
STACK CFI 2f8c4 .cfa: $rsp 24 +
STACK CFI 2f8c6 .cfa: $rsp 32 +
STACK CFI 2f8c7 .cfa: $rsp 40 +
STACK CFI 2f8d1 $r12: .cfa -32 + ^ $r13: .cfa -24 + ^ $r14: .cfa -16 + ^ $rbx: .cfa -40 + ^ .cfa: $rsp 528 +
STACK CFI INIT 30260 3a0 .cfa: $rsp 8 + .ra: .cfa -8 + ^
STACK CFI 30262 .cfa: $rsp 16 +
STACK CFI 30264 .cfa: $rsp 24 +
STACK CFI 30266 .cfa: $rsp 32 +
STACK CFI 30267 .cfa: $rsp 40 +
STACK CFI 30271 $r12: .cfa -32 + ^ $r13: .cfa -24 + ^ $r14: .cfa -16 + ^ $rbx: .cfa -40 + ^ .cfa: $rsp 1168 +
STACK CFI INIT 30600 240 .cfa: $rsp 8 + .ra: .cfa -8 + ^
STACK CFI 30602 .cfa: $rsp 16 +
STACK CFI 30604 .cfa: $rsp 24 +
STACK CFI 30606 .cfa: $rsp 32 +
STACK CFI 30607 .cfa: $rsp 40 +
STACK CFI 30611 $r12: .cfa -32 + ^ $r13: .cfa -24 + ^ $r14: .cfa -16 + ^ $rbx: .cfa -40 + ^ .cfa: $rsp 176 +
STACK CFI INIT 30840 4a0 .cfa: $rsp 8 + .ra: .cfa -8 + ^
STACK CFI 30842 .cfa: $rsp 16 +
STACK CFI 30844 .cfa: $rsp 24 +
STACK CFI 30846 .cfa: $rsp 32 +
STACK CFI 30847 .cfa: $rsp 40 +
STACK CFI 30851 $r12: .cfa -32 + ^ $r13: .cfa -24 + ^ $r14: .cfa -16 + ^ $rbx: .cfa -40 + ^ .cfa: $rsp 192 +
STACK CFI INIT 30ce0 500 .cfa: $rsp 8 + .ra: .cfa -8 + ^
STACK CFI 30ce2 .cfa: $rsp 16 +
STACK CFI 30ce4 .cfa: $rsp 24 +
STACK CFI 30ce6 .cfa: $rsp 32 +
STACK CFI 30ce7 .cfa: $rsp 40 +
STACK CFI 30cf1 $r12: .cfa -32 + ^ $r13: .cfa -24 + ^ $r14: .cfa -16 + ^ $rbx: .cfa -40 + ^ .cfa: $rsp 1200 +
STACK CFI INIT 311e0 2a0 .cfa: $rsp 8 + .ra: .cfa -8 + ^
STACK CFI 311e2 .cfa: $rsp 16 +
STACK CFI 311e4 .cfa: $rsp 24 +
STACK CFI 311e6 .cfa: $rsp 32 +
STACK CFI 311e7 .cfa: $rsp 40 +
STACK CFI 311ee $r12: .cfa -32 + ^ $r13: .cfa -24 + ^ $r14: .cfa -16 + ^ $rbx: .cfa -40 + ^ .cfa: $rsp 96 +
STACK CFI INIT 31480 440 .cfa: $rsp 8 + .ra: .cfa -8 + ^
STACK CFI 31482 .cfa: $rsp 16 +
STACK CFI 31484 .cfa: $rsp 24 +
STACK CFI 31486 .cfa: $rsp 32 +
STACK CFI 31487 .cfa: $rsp 40 +
STACK CFI 3148e $r12: .cfa -32 + ^ $r13: .cfa -24 + ^ $r14: .cfa -16 + ^ $rbx: .cfa -40 + ^ .cfa: $rsp 144 +
STACK CFI INIT 318c0 c0 .cfa: $rsp 8 + .ra: .cfa -8 + ^
STACK CFI 318c2 .cfa: $rsp 16 +
STACK CFI 318c3 .cfa: $rsp 24 +
STACK CFI 318cd $r14: .cfa -16 + ^ $rbx: .cfa -24 + ^ .cfa: $rsp 288 +
STACK CFI INIT 328c0 40 .cfa: $rsp 8 + .ra: .cfa -8 + ^
STACK CFI INIT 32aa0 60 .cfa: $rsp 8 + .ra: .cfa -8 + ^
STACK CFI 32aa2 .cfa: $rsp 16 +
STACK CFI 32aa3 .cfa: $rsp 24 +
STACK CFI 32aa4 $r14: .cfa -16 + ^ $rbx: .cfa -24 + ^ .cfa: $rsp 32 +
STACK CFI INIT 32b00 80 .cfa: $rsp 8 + .ra: .cfa -8 + ^
STACK CFI 32b02 .cfa: $rsp 16 +
STACK CFI 32b03 .cfa: $rsp 24 +
STACK CFI 32b0d $r14: .cfa -16 + ^ $rbx: .cfa -24 + ^ .cfa: $rsp 160 +
STACK CFI INIT 33260 240 .cfa: $rsp 8 + .ra: .cfa -8 + ^
STACK CFI 33262 .cfa: $rsp 16 +
STACK CFI 33264 .cfa: $rsp 24 +
STACK CFI 33266 .cfa: $rsp 32 +
STACK CFI 33267 .cfa: $rsp 40 +
STACK CFI 33268 $r12: .cfa -32 + ^ $r13: .cfa -24 + ^ $r14: .cfa -16 + ^ $rbx: .cfa -40 + ^ .cfa: $rsp 48 +
STACK CFI INIT 334a0 40 .cfa: $rsp 8 + .ra: .cfa -8 + ^
STACK CFI INIT 334e0 40 .cfa: $rsp 8 + .ra: .cfa -8 + ^
STACK CFI 334e1 .cfa: $rsp 16 +
STACK CFI INIT 3f5a0 140 .cfa: $rsp 8 + .ra: .cfa -8 + ^
STACK CFI 3f5a2 .cfa: $rsp 16 +
STACK CFI 3f5a4 .cfa: $rsp 24 +
STACK CFI 3f5a5 $r12: .cfa -24 + ^ $r14: .cfa -16 + ^ $rbx: .cfa -32 + ^ .cfa: $rsp 32 +
STACK CFI INIT 3f6e0 120 .cfa: $rsp 8 + .ra: .cfa -8 + ^
STACK CFI 3f6e1 .cfa: $rsp 16 +
STACK CFI INIT 3f800 80 .cfa: $rsp 8 + .ra: .cfa -8 + ^
STACK CFI 3f801 .cfa: $rsp 16 +
STACK CFI 3f808 $rbx: .cfa -16 + ^ .cfa: $rsp 48 +
STACK CFI INIT 3f880 20 .cfa: $rsp 8 + .ra: .cfa -8 + ^
STACK CFI INIT 3f8a0 200 .cfa: $rsp 8 + .ra: .cfa -8 + ^
STACK CFI 3f8a2 .cfa: $rsp 16 +
STACK CFI 3f8a3 .cfa: $rsp 24 +
STACK CFI 3f8aa $r14: .cfa -16 + ^ $rbx: .cfa -24 + ^ .cfa: $rsp 64 +
STACK CFI INIT 40380 360 .cfa: $rsp 8 + .ra: .cfa -8 + ^
STACK CFI 40382 .cfa: $rsp 16 +
STACK CFI 40384 .cfa: $rsp 24 +
STACK CFI 40386 .cfa: $rsp 32 +
STACK CFI 40387 .cfa: $rsp 40 +
STACK CFI 4038e $r12: .cfa -32 + ^ $r13: .cfa -24 + ^ $r14: .cfa -16 + ^ $rbx: .cfa -40 + ^ .cfa: $rsp 80 +
STACK CFI INIT 40c00 20 .cfa: $rsp 8 + .ra: .cfa -8 + ^
STACK CFI INIT 40c20 1a0 .cfa: $rsp 8 + .ra: .cfa -8 + ^
STACK CFI 40c22 .cfa: $rsp 16 +
STACK CFI 40c24 .cfa: $rsp 24 +
STACK CFI 40c26 .cfa: $rsp 32 +
STACK CFI 40c27 .cfa: $rsp 40 +
STACK CFI 40c28 $r12: .cfa -32 + ^ $r13: .cfa -24 + ^ $r14: .cfa -16 + ^ $rbx: .cfa -40 + ^ .cfa: $rsp 48 +
STACK CFI INIT 40dc0 100 .cfa: $rsp 8 + .ra: .cfa -8 + ^
STACK CFI 40dc2 .cfa: $rsp 16 +
STACK CFI 40dc4 .cfa: $rsp 24 +
STACK CFI 40dc6 .cfa: $rsp 32 +
STACK CFI 40dc7 .cfa: $rsp 40 +
STACK CFI 40dce $r12: .cfa -32 + ^ $r13: .cfa -24 + ^ $r14: .cfa -16 + ^ $rbx: .cfa -40 + ^ .cfa: $rsp 64 +
STACK CFI INIT 40ec0 100 .cfa: $rsp 8 + .ra: .cfa -8 + ^
STACK CFI 40ec1 $rbx: .cfa -16 + ^ .cfa: $rsp 16 +
STACK CFI INIT 40fc0 240 .cfa: $rsp 8 + .ra: .cfa -8 + ^
STACK CFI 40fc2 .cfa: $rsp 16 +
STACK CFI 40fc4 .cfa: $rsp 24 +
STACK CFI 40fc6 .cfa: $rsp 32 +
STACK CFI 40fc7 .cfa: $rsp 40 +
STACK CFI 40fd1 $r12: .cfa -32 + ^ $r13: .cfa -24 + ^ $r14: .cfa -16 + ^ $rbx: .cfa -40 + ^ .cfa: $rsp 208 +
STACK CFI INIT 41200 340 .cfa: $rsp 8 + .ra: .cfa -8 + ^
STACK CFI 41202 .cfa: $rsp 16 +
STACK CFI 41204 .cfa: $rsp 24 +
STACK CFI 41206 .cfa: $rsp 32 +
STACK CFI 41207 .cfa: $rsp 40 +
STACK CFI 4120e $r12: .cfa -32 + ^ $r13: .cfa -24 + ^ $r14: .cfa -16 + ^ $rbx: .cfa -40 + ^ .cfa: $rsp 64 +
STACK CFI INIT 41540 4e0 .cfa: $rsp 8 + .ra: .cfa -8 + ^
STACK CFI 41542 .cfa: $rsp 16 +
STACK CFI 41544 .cfa: $rsp 24 +
STACK CFI 41546 .cfa: $rsp 32 +
STACK CFI 41547 .cfa: $rsp 40 +
STACK CFI 41551 $r12: .cfa -32 + ^ $r13: .cfa -24 + ^ $r14: .cfa -16 + ^ $rbx: .cfa -40 + ^ .cfa: $rsp 1120 +
STACK CFI INIT 41a20 2a0 .cfa: $rsp 8 + .ra: .cfa -8 + ^
STACK CFI 41a22 .cfa: $rsp 16 +
STACK CFI 41a24 .cfa: $rsp 24 +
STACK CFI 41a26 .cfa: $rsp 32 +
STACK CFI 41a27 .cfa: $rsp 40 +
STACK CFI 41a31 $r12: .cfa -32 + ^ $r13: .cfa -24 + ^ $r14: .cfa -16 + ^ $rbx: .cfa -40 + ^ .cfa: $rsp 1104 +
STACK CFI INIT 41cc0 560 .cfa: $rsp 8 + .ra: .cfa -8 + ^
STACK CFI 41cc2 .cfa: $rsp 16 +
STACK CFI 41cc4 .cfa: $rsp 24 +
STACK CFI 41cc5 .cfa: $rsp 32 +
STACK CFI 41ccf $r12: .cfa -24 + ^ $r14: .cfa -16 + ^ $rbx: .cfa -32 + ^ .cfa: $rsp 1168 +
STACK CFI INIT 42220 540 .cfa: $rsp 8 + .ra: .cfa -8 + ^
STACK CFI 42222 .cfa: $rsp 16 +
STACK CFI 42224 .cfa: $rsp 24 +
STACK CFI 42225 .cfa: $rsp 32 +
STACK CFI 4222f $r12: .cfa -24 + ^ $r14: .cfa -16 + ^ $rbx: .cfa -32 + ^ .cfa: $rsp 1072 +
STACK CFI INIT 42760 220 .cfa: $rsp 8 + .ra: .cfa -8 + ^
STACK CFI 42762 .cfa: $rsp 16 +
STACK CFI 42764 .cfa: $rsp 24 +
STACK CFI 42765 $r12: .cfa -24 + ^ $r14: .cfa -16 + ^ $rbx: .cfa -32 + ^ .cfa: $rsp 32 +
STACK CFI INIT 42f40 a0 .cfa: $rsp 8 + .ra: .cfa -8 + ^
STACK CFI 42f42 .cfa: $rsp 16 +
STACK CFI 42f43 .cfa: $rsp 24 +
STACK CFI 42f44 $r14: .cfa -16 + ^ $rbx: .cfa -24 + ^ .cfa: $rsp 32 +
STACK CFI INIT 42fe0 a0 .cfa: $rsp 8 + .ra: .cfa -8 + ^
STACK CFI 42fe1 .cfa: $rsp 16 +
STACK CFI 42fe8 $rbx: .cfa -16 + ^ .cfa: $rsp 32 +
STACK CFI INIT 43220 200 .cfa: $rsp 8 + .ra: .cfa -8 + ^
STACK CFI 43222 .cfa: $rsp 16 +
STACK CFI 43224 .cfa: $rsp 24 +
STACK CFI 43226 .cfa: $rsp 32 +
STACK CFI 43227 .cfa: $rsp 40 +
STACK CFI 4322e $r12: .cfa -32 + ^ $r13: .cfa -24 + ^ $r14: .cfa -16 + ^ $rbx: .cfa -40 + ^ .cfa: $rsp 64 +
STACK CFI INIT 43420 180 .cfa: $rsp 8 + .ra: .cfa -8 + ^
STACK CFI 43422 .cfa: $rsp 16 +
STACK CFI 43423 .cfa: $rsp 24 +
STACK CFI 43424 $r14: .cfa -16 + ^ $rbx: .cfa -24 + ^ .cfa: $rsp 32 +
STACK CFI INIT 435a0 80 .cfa: $rsp 8 + .ra: .cfa -8 + ^
STACK CFI 435a2 .cfa: $rsp 16 +
STACK CFI 435a4 .cfa: $rsp 24 +
STACK CFI 435a6 .cfa: $rsp 32 +
STACK CFI 435a7 .cfa: $rsp 40 +
STACK CFI 435a8 $r12: .cfa -32 + ^ $r13: .cfa -24 + ^ $r14: .cfa -16 + ^ $rbx: .cfa -40 + ^ .cfa: $rsp 48 +
STACK CFI INIT 43620 260 .cfa: $rsp 8 + .ra: .cfa -8 + ^
STACK CFI 43622 .cfa: $rsp 16 +
STACK CFI 43624 .cfa: $rsp 24 +
STACK CFI 43626 .cfa: $rsp 32 +
STACK CFI 43627 .cfa: $rsp 40 +
STACK CFI 43628 $r12: .cfa -32 + ^ $r13: .cfa -24 + ^ $r14: .cfa -16 + ^ $rbx: .cfa -40 + ^ .cfa: $rsp 48 +
STACK CFI INIT 43880 100 .cfa: $rsp 8 + .ra: .cfa -8 + ^
STACK CFI 43882 .cfa: $rsp 16 +
STACK CFI 43884 .cfa: $rsp 24 +
STACK CFI 43886 .cfa: $rsp 32 +
STACK CFI 43887 .cfa: $rsp 40 +
STACK CFI 43888 $r12: .cfa -32 + ^ $r13: .cfa -24 + ^ $r14: .cfa -16 + ^ $rbx: .cfa -40 + ^ .cfa: $rsp 48 +
STACK CFI INIT 43980 a0 .cfa: $rsp 8 + .ra: .cfa -8 + ^
STACK CFI 43982 .cfa: $rsp 16 +
STACK CFI 43984 .cfa: $rsp 24 +
STACK CFI 43986 .cfa: $rsp 32 +
STACK CFI 43987 .cfa: $rsp 40 +
STACK CFI 43988 $r12: .cfa -32 + ^ $r13: .cfa -24 + ^ $r14: .cfa -16 + ^ $rbx: .cfa -40 + ^ .cfa: $rsp 48 +
STACK CFI INIT 43a20 a0 .cfa: $rsp 8 + .ra: .cfa -8 + ^
STACK CFI 43a22 .cfa: $rsp 16 +
STACK CFI 43a24 .cfa: $rsp 24 +
STACK CFI 43a25 $r12: .cfa -24 + ^ $r14: .cfa -16 + ^ $rbx: .cfa -32 + ^ .cfa: $rsp 32 +
STACK CFI INIT 43ac0 80 .cfa: $rsp 8 + .ra: .cfa -8 + ^
STACK CFI 43ac1 $rbx: .cfa -16 + ^ .cfa: $rsp 16 +
STACK CFI INIT 43b40 f40 .cfa: $rsp 8 + .ra: .cfa -8 + ^
STACK CFI 43b42 .cfa: $rsp 16 +
STACK CFI 43b43 .cfa: $rsp 24 +
STACK CFI 43b4a $r14: .cfa -16 + ^ $rbx: .cfa -24 + ^ .cfa: $rsp 48 +
STACK CFI INIT 44a80 80 .cfa: $rsp 8 + .ra: .cfa -8 + ^
STACK CFI 44a82 .cfa: $rsp 16 +
STACK CFI 44a83 .cfa: $rsp 24 +
STACK CFI 44a84 $r14: .cfa -16 + ^ $rbx: .cfa -24 + ^ .cfa: $rsp 32 +
STACK CFI INIT 44b00 20 .cfa: $rsp 8 + .ra: .cfa -8 + ^
STACK CFI INIT 44b20 120 .cfa: $rsp 8 + .ra: .cfa -8 + ^
STACK CFI 44b22 .cfa: $rsp 16 +
STACK CFI 44b23 .cfa: $rsp 24 +
STACK CFI 44b24 $r14: .cfa -16 + ^ $rbx: .cfa -24 + ^ .cfa: $rsp 32 +
STACK CFI INIT 44c40 a0 .cfa: $rsp 8 + .ra: .cfa -8 + ^
STACK CFI INIT 44ce0 a0 .cfa: $rsp 8 + .ra: .cfa -8 + ^
STACK CFI INIT 44d80 1a0 .cfa: $rsp 8 + .ra: .cfa -8 + ^
STACK CFI 44d82 .cfa: $rsp 16 +
STACK CFI 44d83 .cfa: $rsp 24 +
STACK CFI 44d8a $r14: .cfa -16 + ^ $rbx: .cfa -24 + ^ .cfa: $rsp 48 +
STACK CFI INIT 44f20 40 .cfa: $rsp 8 + .ra: .cfa -8 + ^
STACK CFI 44f21 .cfa: $rsp 16 +
STACK CFI INIT 44f60 a0 .cfa: $rsp 8 + .ra: .cfa -8 + ^
STACK CFI 44f61 .cfa: $rsp 16 +
STACK CFI INIT 45000 40 .cfa: $rsp 8 + .ra: .cfa -8 + ^
STACK CFI 45001 .cfa: $rsp 16 +
STACK CFI INIT 45040 80 .cfa: $rsp 8 + .ra: .cfa -8 + ^
STACK CFI INIT 450c0 a0 .cfa: $rsp 8 + .ra: .cfa -8 + ^
STACK CFI 450c1 .cfa: $rsp 16 +
STACK CFI 450c8 $rbx: .cfa -16 + ^ .cfa: $rsp 80 +
STACK CFI INIT 45160 1a0 .cfa: $rsp 8 + .ra: .cfa -8 + ^
STACK CFI 45162 .cfa: $rsp 16 +
STACK CFI 45164 .cfa: $rsp 24 +
STACK CFI 45165 $r12: .cfa -24 + ^ $r14: .cfa -16 + ^ $rbx: .cfa -32 + ^ .cfa: $rsp 32 +
STACK CFI INIT 45300 80 .cfa: $rsp 8 + .ra: .cfa -8 + ^
STACK CFI 45301 .cfa: $rsp 16 +
STACK CFI INIT 45380 e0 .cfa: $rsp 8 + .ra: .cfa -8 + ^
STACK CFI 45382 .cfa: $rsp 16 +
STACK CFI 45383 .cfa: $rsp 24 +
STACK CFI 4538a $r14: .cfa -16 + ^ $rbx: .cfa -24 + ^ .cfa: $rsp 48 +
STACK CFI INIT 45460 8c0 .cfa: $rsp 8 + .ra: .cfa -8 + ^
STACK CFI 45462 .cfa: $rsp 16 +
STACK CFI 45464 .cfa: $rsp 24 +
STACK CFI 45466 .cfa: $rsp 32 +
STACK CFI 45467 .cfa: $rsp 40 +
STACK CFI 4546e $r12: .cfa -32 + ^ $r13: .cfa -24 + ^ $r14: .cfa -16 + ^ $rbx: .cfa -40 + ^ .cfa: $rsp 160 +
STACK CFI INIT 45d20 260 .cfa: $rsp 8 + .ra: .cfa -8 + ^
STACK CFI 45d22 .cfa: $rsp 16 +
STACK CFI 45d24 .cfa: $rsp 24 +
STACK CFI 45d26 .cfa: $rsp 32 +
STACK CFI 45d27 .cfa: $rsp 40 +
STACK CFI 45d2e $r12: .cfa -32 + ^ $r13: .cfa -24 + ^ $r14: .cfa -16 + ^ $rbx: .cfa -40 + ^ .cfa: $rsp 112 +
STACK CFI INIT 47d20 640 .cfa: $rsp 8 + .ra: .cfa -8 + ^
STACK CFI 47d22 .cfa: $rsp 16 +
STACK CFI 47d24 .cfa: $rsp 24 +
STACK CFI 47d26 .cfa: $rsp 32 +
STACK CFI 47d27 .cfa: $rsp 40 +
STACK CFI 47d2e $r12: .cfa -32 + ^ $r13: .cfa -24 + ^ $r14: .cfa -16 + ^ $rbx: .cfa -40 + ^ .cfa: $rsp 112 +
STACK CFI INIT 48360 2e0 .cfa: $rsp 8 + .ra: .cfa -8 + ^
STACK CFI 48362 .cfa: $rsp 16 +
STACK CFI 48364 .cfa: $rsp 24 +
STACK CFI 48366 .cfa: $rsp 32 +
STACK CFI 48367 .cfa: $rsp 40 +
STACK CFI 4836e $r12: .cfa -32 + ^ $r13: .cfa -24 + ^ $r14: .cfa -16 + ^ $rbx: .cfa -40 + ^ .cfa: $rsp 112 +
STACK CFI INIT 48640 400 .cfa: $rsp 8 + .ra: .cfa -8 + ^
STACK CFI 48642 .cfa: $rsp 16 +
STACK CFI 48644 .cfa: $rsp 24 +
STACK CFI 48646 .cfa: $rsp 32 +
STACK CFI 48647 .cfa: $rsp 40 +
STACK CFI 48648 $r12: .cfa -32 + ^ $r13: .cfa -24 + ^ $r14: .cfa -16 + ^ $rbx: .cfa -40 + ^ .cfa: $rsp 48 +
STACK CFI INIT 48a40 40 .cfa: $rsp 8 + .ra: .cfa -8 + ^
STACK CFI 48a41 .cfa: $rsp 16 +
STACK CFI INIT 48a80 80 .cfa: $rsp 8 + .ra: .cfa -8 + ^
STACK CFI INIT 48b00 80 .cfa: $rsp 8 + .ra: .cfa -8 + ^
STACK CFI INIT 48b80 340 .cfa: $rsp 8 + .ra: .cfa -8 + ^
STACK CFI 48b82 .cfa: $rsp 16 +
STACK CFI 48b84 .cfa: $rsp 24 +
STACK CFI 48b85 $r12: .cfa -24 + ^ $r14: .cfa -16 + ^ $rbx: .cfa -32 + ^ .cfa: $rsp 32 +
STACK CFI INIT 48ec0 320 .cfa: $rsp 8 + .ra: .cfa -8 + ^
STACK CFI 48ec2 .cfa: $rsp 16 +
STACK CFI 48ec4 .cfa: $rsp 24 +
STACK CFI 48ec5 .cfa: $rsp 32 +
STACK CFI 48ecc $r12: .cfa -24 + ^ $r14: .cfa -16 + ^ $rbx: .cfa -32 + ^ .cfa: $rsp 112 +
STACK CFI INIT 491e0 16e0 .cfa: $rsp 8 + .ra: .cfa -8 + ^
STACK CFI 491e2 .cfa: $rsp 16 +
STACK CFI 491e4 .cfa: $rsp 24 +
STACK CFI 491e6 .cfa: $rsp 32 +
STACK CFI 491e7 .cfa: $rsp 40 +
STACK CFI 491ee $r12: .cfa -32 + ^ $r13: .cfa -24 + ^ $r14: .cfa -16 + ^ $rbx: .cfa -40 + ^ .cfa: $rsp 128 +
STACK CFI INIT 4b3e0 20 .cfa: $rsp 8 + .ra: .cfa -8 + ^
STACK CFI INIT 4b400 160 .cfa: $rsp 8 + .ra: .cfa -8 + ^
STACK CFI 4b402 .cfa: $rsp 16 +
STACK CFI 4b403 .cfa: $rsp 24 +
STACK CFI 4b404 $r14: .cfa -16 + ^ $rbx: .cfa -24 + ^ .cfa: $rsp 32 +
STACK CFI INIT 4b560 100 .cfa: $rsp 8 + .ra: .cfa -8 + ^
STACK CFI 4b561 .cfa: $rsp 16 +
STACK CFI INIT 4b660 e0 .cfa: $rsp 8 + .ra: .cfa -8 + ^
STACK CFI INIT 4c4a0 120 .cfa: $rsp 8 + .ra: .cfa -8 + ^
STACK CFI INIT 4c5c0 a0 .cfa: $rsp 8 + .ra: .cfa -8 + ^
STACK CFI INIT 4c660 c0 .cfa: $rsp 8 + .ra: .cfa -8 + ^
STACK CFI INIT 4c720 f60 .cfa: $rsp 8 + .ra: .cfa -8 + ^
STACK CFI 4c722 .cfa: $rsp 16 +
STACK CFI 4c724 .cfa: $rsp 24 +
STACK CFI 4c726 .cfa: $rsp 32 +
STACK CFI 4c727 .cfa: $rsp 40 +
