MODULE Linux x86_64 9538CEEF2142F9DDB6B79F0117BEDDBA0 daemonded
FUNC 17fb0 12 0 CMod_LoadLeafSurfaces
FUNC 17fc2 30 0 std::__cxx11::basic_string<char, std::char_traits<char>, std::allocator<char> >::basic_string
FUNC 17ff2 4a 0 google_breakpad::PageAllocator::FreeAll
FUNC 1803c 2c 0 MinidumpWriter::~MinidumpWriter
FUNC 18068 1c7 0 MinidumpWriter::WriteFile
FUNC 18230 67 0 MinidumpWriter::WriteProcFile
FUNC 182a0 145 0 _GLOBAL__sub_I__Z18Cmd_SaveCmdContextv
FUNC 183f0 39 0 std::__cxx11::basic_string<char, std::char_traits<char>, std::allocator<char> >::basic_string
FUNC 18430 5dc 0 __static_initialization_and_destruction_0
FUNC 18a10 5 0 _GLOBAL__sub_I_com_pid
FUNC 18a20 2e 0 _GLOBAL__sub_I__Z14qnettle_randomPvmPh
FUNC 18a50 2e 0 _GLOBAL__sub_I_cvar_vars
FUNC 18a80 39 0 std::__cxx11::basic_string<char, std::char_traits<char>, std::allocator<char> >::basic_string
FUNC 18ac0 56c 0 _GLOBAL__sub_I_fs_missingPaks
FUNC 19030 2e 0 _GLOBAL__sub_I__Z11Huff_putBitiPhPi
FUNC 19060 2e 0 _GLOBAL__sub_I__Z8MSG_InitP5msg_tPhi
FUNC 19090 2e 0 _GLOBAL__sub_I_showpackets
FUNC 190c0 2e 0 _GLOBAL__sub_I_net_enabled
FUNC 190f0 2e 0 _GLOBAL__sub_I_numtokens
FUNC 19120 39 0 std::__cxx11::basic_string<char, std::char_traits<char>, std::allocator<char> >::basic_string
FUNC 19160 201 0 _GLOBAL__sub_I_trans_manager
FUNC 19370 2e 0 _GLOBAL__sub_I__ZN4rVecC2Efff
FUNC 193a0 fd 0 _GLOBAL__sub_I_numNavData
FUNC 194a0 2e 0 _GLOBAL__sub_I__Z15BotCalcSteerDirP5Bot_tR4rVec
FUNC 194d0 ad 0 _GLOBAL__sub_I_agents
FUNC 19580 2e 0 _GLOBAL__sub_I__Z20SV_BotAllocateClientv
FUNC 195b0 101 0 _GLOBAL__sub_I__Z14SV_Heartbeat_fv
FUNC 196c0 e0 0 _GLOBAL__sub_I__Z15SV_GetChallenge8netadr_t
FUNC 197a0 2e 0 _GLOBAL__sub_I__Z18SV_SetConfigstringiPKc
FUNC 197d0 5e7 0 __static_initialization_and_destruction_0
FUNC 19dc0 5 0 _GLOBAL__sub_I_svs
FUNC 19dd0 2e 0 _GLOBAL__sub_I__Z20SV_Netchan_FreeQueueP8client_t
FUNC 19e00 2e 0 _GLOBAL__sub_I__Z13SV_GentityNumi
FUNC 19e30 2e 0 _GLOBAL__sub_I__Z31SV_UpdateServerCommandsToClientP8client_tP5msg_t
FUNC 19e60 39 0 std::__cxx11::basic_string<char, std::char_traits<char>, std::allocator<char> >::basic_string
FUNC 19ea0 3b2 0 __static_initialization_and_destruction_0
FUNC 1a260 5 0 _GLOBAL__sub_I__ZN9Challenge7TimeoutEv
FUNC 1a270 2e 0 _GLOBAL__sub_I__ZN8Keyboard11StringToKeyEN3Str14BasicStringRefIcEE
FUNC 1a2a0 2e 0 _GLOBAL__sub_I_cl_shownet
FUNC 1a2d0 2e 0 _GLOBAL__sub_I__Z7IN_InitPv
FUNC 1a300 2e 0 _GLOBAL__sub_I__ZN11Application6GetAppEv
FUNC 1a330 2e 0 _GLOBAL__sub_I_SDLCompat.cpp
FUNC 1a360 2e 0 _GLOBAL__sub_I__ZN3Cmd6EscapeB5cxx11EN3Str14BasicStringRefIcEE
FUNC 1a390 2e 0 _GLOBAL__sub_I__ZN4Cvar9CvarProxyC2ENSt7__cxx1112basic_stringIcSt11char_traitsIcESaIcEEEiS6_
FUNC 1a3c0 734 0 _GLOBAL__sub_I_fsLogs
FUNC 1ab00 2e 0 _GLOBAL__sub_I__ZNK3IPC8FileDesc5CloseEv
FUNC 1ab30 e0 0 _GLOBAL__sub_I__ZN3Log6LoggerC2EN3Str14BasicStringRefIcEENSt7__cxx1112basic_stringIcSt11char_traitsIcESaIcEEENS_5LevelE
FUNC 1ac10 2e 0 _GLOBAL__sub_I__ZN3Str23AssertOnTinyFormatErrorENSt7__cxx1112basic_stringIcSt11char_traitsIcESaIcEEE
FUNC 1ac40 2e 0 _GLOBAL__sub_I__ZN3Sys8SleepForENSt6chrono8durationIlSt5ratioILl1ELl1000000000EEEE
FUNC 1ac70 39 0 std::__cxx11::basic_string<char, std::char_traits<char>, std::allocator<char> >::basic_string
FUNC 1acb0 3d9 0 _GLOBAL__sub_I_cm
FUNC 1b090 2e 0 _GLOBAL__sub_I_c_totalPatchBlocks
FUNC 1b0c0 2e 0 _GLOBAL__sub_I_numPlanes
FUNC 1b0f0 2e 0 _GLOBAL__sub_I_c_active_windings
FUNC 1b120 335 0 _GLOBAL__sub_I__Z17CM_PointLeafnum_rPKfi
FUNC 1b460 2e 0 _GLOBAL__sub_I__Z30CM_GenerateTriangleSoupCollideiPA3_fiPi
FUNC 1b490 2e 0 _GLOBAL__sub_I_vec3_origin
FUNC 1b4c0 2e 0 _GLOBAL__sub_I__Z16Com_InitGrowListP10growList_ti
FUNC 1b4f0 2e 0 _GLOBAL__sub_I__Z12Q_UTF8_WidthPKc
FUNC 1b520 2e 0 _GLOBAL__sub_I__ZN11Application6TraitsC2Ev
FUNC 1b550 3ad 0 _GLOBAL__sub_I__ZN3Cmd10DelayFrameEv
FUNC 1b900 39 0 std::__cxx11::basic_string<char, std::char_traits<char>, std::allocator<char> >::basic_string
FUNC 1b940 607 0 __static_initialization_and_destruction_0
FUNC 1bf50 5 0 _GLOBAL__sub_I__ZN3Cmd10commandLogE
FUNC 1bf60 2e 0 _GLOBAL__sub_I__ZN2VM16CommonVMServices17HandleMiscSyscallEiRN4Util6ReaderERN3IPC7ChannelE
FUNC 1bf90 39 0 std::__cxx11::basic_string<char, std::char_traits<char>, std::allocator<char> >::basic_string
FUNC 1bfd0 3bb 0 _GLOBAL__sub_I_crashDumpLogs
FUNC 1c390 39 0 std::__cxx11::basic_string<char, std::char_traits<char>, std::allocator<char> >::basic_string
FUNC 1c3d0 2fa 0 _GLOBAL__sub_I_cvar_modifiedFlags
FUNC 1c6d0 39 0 std::__cxx11::basic_string<char, std::char_traits<char>, std::allocator<char> >::basic_string
FUNC 1c710 570 0 __static_initialization_and_destruction_0
FUNC 1cc80 5 0 _GLOBAL__sub_I__ZN3Log8DispatchENS_5EventEi
FUNC 1cc90 1fc 0 main
FUNC 1ce90 b3 0 _GLOBAL__sub_I__ZN3Sys22GetSingletonSocketPathB5cxx11Ev
FUNC 1cf50 2e 0 _GLOBAL__sub_I__ZN2VM12CreateNaClVMESt4pairIN3IPC6SocketES2_EN3Str14BasicStringRefIcEEbbi
FUNC 1cf80 2e 0 _GLOBAL__sub_I__ZN6Crypto10RandomDataEm
FUNC 1cfb0 2e 0 _GLOBAL__sub_I__ZN4Rcon7MessageC2ERK8netadr_tNSt7__cxx1112basic_stringIcSt11char_traitsIcESaIcEEENS_6SecureES9_S9_
FUNC 1cfe0 2e 0 _GLOBAL__sub_I__ZN3Net13OutOfBandDataE8netsrc_tRK8netadr_tPhm
FUNC 1d010 2e 0 _GLOBAL__sub_I__Z13Com_MD5BufferPKciPci
FUNC 1d040 39 0 std::__cxx11::basic_string<char, std::char_traits<char>, std::allocator<char> >::basic_string
FUNC 1d080 3cc 0 _GLOBAL__sub_I_com_ansiColor
FUNC 1d450 59 0 _GLOBAL__sub_I__Z13WriteToStdoutPKc
FUNC 1d4b0 59 0 _GLOBAL__sub_I__Z12CON_Shutdownv
FUNC 1d510 2e 0 _GLOBAL__sub_I__ZN5Color13StrlenNocolorEPKc
FUNC 1d540 2e 0 _GLOBAL__sub_I__ZN4Util12LineEditDataC2Ejj
FUNC 1d570 2e 0 _GLOBAL__sub_I__ZN7Console5FieldC2Ei
FUNC 1d5a0 69 0 _GLOBAL__sub_I__ZN7Console7History5linesB5cxx11E
FUNC 1d610 2e 0 _GLOBAL__sub_I_log.cpp
FUNC 1d640 2e 0 _GLOBAL__sub_I_po_parser.cpp
FUNC 1d670 13 0 set_fast_math
FUNC 1d7c0 1f 0 std::__detail::_Hashtable_alloc<std::allocator<std::__detail::_Hash_node<std::pair<const std::__cxx11::basic_string<char, std::char_traits<char>, std::allocator<char> >, proxyInfo_t>, true> > >::_M_deallocate_node
FUNC 1d7e0 c2 0 std::__cxx11::basic_string<char, std::char_traits<char>, std::allocator<char> >::_M_construct<char*>
FUNC 1d8b0 155 0 EscapeString
FUNC 1da10 5 0 Cmd_SaveCmdContext
FUNC 1da20 5 0 Cmd_RestoreCmdContext
FUNC 1da30 15 0 Cmd_Argc
FUNC 1da50 59 0 Cmd_Argv
FUNC 1dab0 99 0 Cmd_ArgsFrom
FUNC 1db50 a 0 Cmd_Args
FUNC 1db60 5 0 Cmd_QuoteString
FUNC 1db70 23 0 Cmd_QuoteStringBuffer
FUNC 1dba0 16f 0 Cmd_UnquoteString
FUNC 1dd10 a2 0 Cmd_TokenizeString
FUNC 1ddc0 da5 0 Cmd_PrintUsage
FUNC 1eb70 218 0 Cmd_OnCompleteMatch
FUNC 1ed90 1bd 0 Cmd_AddCommand
FUNC 1ef50 ab 0 Cmd_SetCommandCompletionFunc
FUNC 1f000 21e 0 Cmd_RemoveCommand
FUNC 1f220 3 0 std::ctype<char>::do_widen
FUNC 1f230 2 0 ProxyCmd::~ProxyCmd
FUNC 1f240 5 0 ProxyCmd::~ProxyCmd
FUNC 1f250 6e 0 std::unordered_map<std::__cxx11::basic_string<char, std::char_traits<char>, std::allocator<char> >, proxyInfo_t, Str::IHash, Str::IEqual, std::allocator<std::pair<const std::__cxx11::basic_string<char, std::char_traits<char>, std::allocator<char> >, proxyInfo_t> > >::~unordered_map
FUNC 1f2c0 65 0 std::vector<std::pair<std::__cxx11::basic_string<char, std::char_traits<char>, std::allocator<char> >, std::__cxx11::basic_string<char, std::char_traits<char>, std::allocator<char> > >, std::allocator<std::pair<std::__cxx11::basic_string<char, std::char_traits<char>, std::allocator<char> >, std::__cxx11::basic_string<char, std::char_traits<char>, std::allocator<char> > > > >::~vector
FUNC 1f330 9e 0 tinyformat::detail::FormatArg::formatImpl<char [6]>
FUNC 1f3d0 8d 0 tinyformat::detail::FormatArg::toIntImpl<char [6]>
FUNC 1f460 8d 0 tinyformat::detail::FormatArg::toIntImpl<char const*>
FUNC 1f4f0 174 0 tinyformat::detail::FormatArg::formatImpl<char const*>
FUNC 1f670 951 0 tinyformat::detail::streamStateFromFormat
FUNC 1ffd0 32 0 std::pair<std::__cxx11::basic_string<char, std::char_traits<char>, std::allocator<char> >, std::__cxx11::basic_string<char, std::char_traits<char>, std::allocator<char> > >::~pair
FUNC 20010 34 0 std::__cxx11::basic_stringbuf<char, std::char_traits<char>, std::allocator<char> >::~basic_stringbuf
FUNC 20050 3c 0 std::__cxx11::basic_stringbuf<char, std::char_traits<char>, std::allocator<char> >::~basic_stringbuf
FUNC 20090 55 0 std::vector<std::__cxx11::basic_string<char, std::char_traits<char>, std::allocator<char> >, std::allocator<std::__cxx11::basic_string<char, std::char_traits<char>, std::allocator<char> > > >::~vector
FUNC 200f0 d10 0 Log::Logger::Notice<char const (&)[6], char const*, char const*&>
FUNC 20e00 1f7 0 std::_Hashtable<std::__cxx11::basic_string<char, std::char_traits<char>, std::allocator<char> >, std::pair<const std::__cxx11::basic_string<char, std::char_traits<char>, std::allocator<char> >, proxyInfo_t>, std::allocator<std::pair<const std::__cxx11::basic_string<char, std::char_traits<char>, std::allocator<char> >, proxyInfo_t> >, std::__detail::_Select1st, Str::IEqual, Str::IHash, std::__detail::_Mod_range_hashing, std::__detail::_Default_ranged_hash, std::__detail::_Prime_rehash_policy, std::__detail::_Hashtable_traits<true, false, true> >::_M_insert_unique_node
FUNC 21000 2af 0 std::vector<std::pair<std::__cxx11::basic_string<char, std::char_traits<char>, std::allocator<char> >, std::__cxx11::basic_string<char, std::char_traits<char>, std::allocator<char> > >, std::allocator<std::pair<std::__cxx11::basic_string<char, std::char_traits<char>, std::allocator<char> >, std::__cxx11::basic_string<char, std::char_traits<char>, std::allocator<char> > > > >::_M_emplace_back_aux<std::pair<std::__cxx11::basic_string<char, std::char_traits<char>, std::allocator<char> >, std::__cxx11::basic_string<char, std::char_traits<char>, std::allocator<char> > > >
FUNC 212b0 c1 0 std::_Hashtable<std::__cxx11::basic_string<char, std::char_traits<char>, std::allocator<char> >, std::pair<const std::__cxx11::basic_string<char, std::char_traits<char>, std::allocator<char> >, proxyInfo_t>, std::allocator<std::pair<const std::__cxx11::basic_string<char, std::char_traits<char>, std::allocator<char> >, proxyInfo_t> >, std::__detail::_Select1st, Str::IEqual, Str::IHash, std::__detail::_Mod_range_hashing, std::__detail::_Default_ranged_hash, std::__detail::_Prime_rehash_policy, std::__detail::_Hashtable_traits<true, false, true> >::_M_find_before_node
FUNC 21380 13f 0 std::__detail::_Map_base<std::__cxx11::basic_string<char, std::char_traits<char>, std::allocator<char> >, std::pair<const std::__cxx11::basic_string<char, std::char_traits<char>, std::allocator<char> >, proxyInfo_t>, std::allocator<std::pair<const std::__cxx11::basic_string<char, std::char_traits<char>, std::allocator<char> >, proxyInfo_t> >, std::__detail::_Select1st, Str::IEqual, Str::IHash, std::__detail::_Mod_range_hashing, std::__detail::_Default_ranged_hash, std::__detail::_Prime_rehash_policy, std::__detail::_Hashtable_traits<true, false, true>, true>::operator[]
FUNC 214c0 131 0 std::__detail::_Map_base<std::__cxx11::basic_string<char, std::char_traits<char>, std::allocator<char> >, std::pair<const std::__cxx11::basic_string<char, std::char_traits<char>, std::allocator<char> >, proxyInfo_t>, std::allocator<std::pair<const std::__cxx11::basic_string<char, std::char_traits<char>, std::allocator<char> >, proxyInfo_t> >, std::__detail::_Select1st, Str::IEqual, Str::IHash, std::__detail::_Mod_range_hashing, std::__detail::_Default_ranged_hash, std::__detail::_Prime_rehash_policy, std::__detail::_Hashtable_traits<true, false, true>, true>::operator[]
FUNC 21600 56f 0 ProxyCmd::Complete
FUNC 21b70 26 0 ProxyCmd::Run
FUNC 21ba0 36 0 __tcf_0
FUNC 21be0 9 0 SetCheatMode
FUNC 21bf0 5 0 Com_In_Restart_f
FUNC 21c00 d 0 Com_Crash_f
FUNC 21c10 30 0 Com_Error_f
FUNC 21c40 c2 0 std::__cxx11::basic_string<char, std::char_traits<char>, std::allocator<char> >::_M_construct<char*>
FUNC 21d10 8 0 Com_AreCheatsAllowed
FUNC 21d20 a0 0 Com_IsClient
FUNC 21dc0 11 0 Com_IsDedicatedServer
FUNC 21de0 10 0 Com_ServerRunning
FUNC 21df0 4b 0 Com_Allocate_Aligned
FUNC 21e40 5 0 Com_Free_Aligned
FUNC 21e50 5 0 Com_Milliseconds
FUNC 21e60 2b 0 Com_Shutdown
FUNC 21e90 87 0 Com_QueueEvent
FUNC 21f20 2f8 0 Com_GetEvent
FUNC 22220 92 0 Com_SetRecommended
FUNC 222c0 240 0 Com_Init
FUNC 22500 95 0 Com_Freeze_f
FUNC 225a0 1ae 0 Info_Print
FUNC 22750 a4 0 Com_WriteConfigToFile
FUNC 22800 2e 0 Com_WriteConfiguration
FUNC 22830 12 0 Com_WriteConfiguration
FUNC 22850 a7 0 Com_WriteConfig_f
FUNC 22900 f3 0 Com_RunAndTimeServerPacket
FUNC 22a00 1173 0 Com_EventLoop
FUNC 23b80 10a 0 Com_ModifyMsec
FUNC 23c90 68d 0 Com_Frame
FUNC 24320 a 0 std::_Function_handler<void(bool), void (*)(bool)>::_M_invoke
FUNC 24330 36 0 std::_Function_base::_Base_manager<void (*)(bool)>::_M_manager
FUNC 24370 3 0 tinyformat::detail::FormatArg::toIntImpl<int>
FUNC 24380 22 0 Sys::PacketEvent::~PacketEvent
FUNC 243b0 25 0 Sys::PacketEvent::~PacketEvent
FUNC 243e0 22 0 Sys::ConsoleInputEvent::~ConsoleInputEvent
FUNC 24410 29 0 Sys::ConsoleInputEvent::~ConsoleInputEvent
FUNC 24440 57 0 Cvar::Cvar<bool>::~Cvar
FUNC 244a0 6c 0 Cvar::Cvar<std::__cxx11::basic_string<char, std::char_traits<char>, std::allocator<char> > >::~Cvar
FUNC 24510 57 0 Cvar::Cvar<int>::~Cvar
FUNC 24570 7b 0 Cvar::Callback<Cvar::Cvar<bool> >::~Callback
FUNC 245f0 52 0 Cvar::Cvar<int>::~Cvar
FUNC 24650 52 0 Cvar::Cvar<bool>::~Cvar
FUNC 246b0 7a 0 Cvar::Callback<Cvar::Cvar<bool> >::~Callback
FUNC 24730 6a 0 Cvar::Cvar<std::__cxx11::basic_string<char, std::char_traits<char>, std::allocator<char> > >::~Cvar
FUNC 247a0 9e 0 tinyformat::detail::FormatArg::formatImpl<char [8192]>
FUNC 24840 9e 0 tinyformat::detail::FormatArg::formatImpl<char [64]>
FUNC 248e0 8d 0 tinyformat::detail::FormatArg::toIntImpl<Str::BasicStringRef<char> >
FUNC 24970 8d 0 tinyformat::detail::FormatArg::toIntImpl<char [8192]>
FUNC 24a00 8d 0 tinyformat::detail::FormatArg::toIntImpl<std::__cxx11::basic_string<char> >
FUNC 24a90 8d 0 tinyformat::detail::FormatArg::toIntImpl<char [64]>
FUNC 24b20 1f 0 Cvar::Cvar<int>::GetAdditionalDescription
FUNC 24b40 1f 0 Cvar::Cvar<bool>::GetAdditionalDescription
FUNC 24b60 1f 0 Cvar::Cvar<std::__cxx11::basic_string<char, std::char_traits<char>, std::allocator<char> > >::GetAdditionalDescription
FUNC 24b80 27 0 Cvar::Cvar<std::__cxx11::basic_string<char, std::char_traits<char>, std::allocator<char> > >::Validate
FUNC 24bb0 27 0 Cvar::Cvar<bool>::Validate
FUNC 24be0 27 0 Cvar::Cvar<int>::Validate
FUNC 24c10 3a 0 Cvar::CvarProxy::~CvarProxy
FUNC 24c50 3b 0 Cvar::CvarProxy::~CvarProxy
FUNC 24c90 102 0 Log::Logger::Notice<>
FUNC 24da0 cc0 0 Log::Logger::Notice<char (&)[8192]>
FUNC 25a60 cc0 0 Log::Logger::Notice<char (&)[64]>
FUNC 26720 e50 0 Log::Logger::Notice<int&, int&, int&, int&, int&, int&, int&, int&, int&>
FUNC 27570 d6b 0 Log::Logger::Notice<int&, int&, int&, int&, int&>
FUNC 282e0 c1a 0 tinyformat::format<char const*>
FUNC 28f00 f8 0 Log::Logger::Notice<char const*&>
FUNC 29000 c1a 0 tinyformat::format<int>
FUNC 29c20 f8 0 Log::Logger::Notice<int&>
FUNC 29d20 f8 0 Log::Logger::Warn<int&>
FUNC 29e20 c6a 0 tinyformat::format<std::__cxx11::basic_string<char, std::char_traits<char>, std::allocator<char> >, std::__cxx11::basic_string<char, std::char_traits<char>, std::allocator<char> >, std::__cxx11::basic_string<char, std::char_traits<char>, std::allocator<char> > >
FUNC 2aa90 10e 0 Cvar::Cvar<std::__cxx11::basic_string<char, std::char_traits<char>, std::allocator<char> > >::GetDescription
FUNC 2aba0 29d 0 Cvar::Cvar<std::__cxx11::basic_string<char, std::char_traits<char>, std::allocator<char> > >::Cvar
FUNC 2ae40 10e 0 Cvar::Cvar<int>::GetDescription
FUNC 2af50 20d 0 Cvar::Cvar<int>::Cvar
FUNC 2b160 10e 0 Cvar::Cvar<bool>::GetDescription
FUNC 2b270 7d 0 Cvar::Cvar<bool>::Register
FUNC 2b2f0 37c 0 Cvar::Callback<Cvar::Cvar<bool> >::Callback<>
FUNC 2b670 1c5 0 Cvar::Cvar<bool>::Cvar
FUNC 2b840 3ac 0 tinyformat::detail::formatTruncated<std::__cxx11::basic_string<char> >
FUNC 2bbf0 1c 0 tinyformat::detail::FormatArg::formatImpl<std::__cxx11::basic_string<char> >
FUNC 2bc10 3a4 0 tinyformat::detail::formatTruncated<int>
FUNC 2bfc0 6d 0 tinyformat::detail::FormatArg::formatImpl<int>
FUNC 2c030 c4a 0 tinyformat::format<Str::BasicStringRef<char>, std::__cxx11::basic_string<char, std::char_traits<char>, std::allocator<char> > >
FUNC 2cc80 304 0 Cvar::Cvar<std::__cxx11::basic_string<char, std::char_traits<char>, std::allocator<char> > >::OnValueChanged
FUNC 2cf90 1f3 0 Cvar::Cvar<int>::OnValueChanged
FUNC 2d190 1f3 0 Cvar::Cvar<bool>::OnValueChanged
FUNC 2d390 89 0 Cvar::Callback<Cvar::Cvar<bool> >::OnValueChanged
FUNC 2d420 3e4 0 tinyformat::detail::formatTruncated<Str::BasicStringRef<char> >
FUNC 2d810 58 0 tinyformat::detail::FormatArg::formatImpl<Str::BasicStringRef<char> >
FUNC 2d870 8 0 qnettle_random
FUNC 2d880 128 0 Cvar_FindVar
FUNC 2d9b0 1c 0 Cvar_VariableValue
FUNC 2d9d0 27 0 Cvar_VariableIntegerValue
FUNC 2da00 2c 0 Cvar_VariableString
FUNC 2da30 3a 0 Cvar_VariableStringBuffer
FUNC 2da70 2a8 0 Cvar_Get
FUNC 2dd20 138 0 Cvar_Reset
FUNC 2de60 238 0 Cvar_Set
FUNC 2e0a0 5a 0 Cvar_SetValue
FUNC 2e100 7d 0 Cvar_WriteVariables
FUNC 2e180 9 0 Cvar_InfoString
FUNC 2e190 15 0 FS_AllocHandle
FUNC 2e1b0 67 0 FS_CheckHandle
FUNC 2e220 c2 0 std::__cxx11::basic_string<char, std::char_traits<char>, std::allocator<char> >::_M_construct<char*>
FUNC 2e2f0 a3 0 __tcf_0
FUNC 2e3a0 35 0 FS_FileExists
FUNC 2e3e0 3c 0 FS_FTell
FUNC 2e420 26 0 FS_ForceFlush
FUNC 2e450 12 0 FS_FreeFile
FUNC 2e470 42 0 FS_FreeFileList
FUNC 2e4c0 492 0 FS_GetFileList
FUNC 2e960 492 0 FS_GetFileListRecursive
FUNC 2ee00 127 0 FS_LoadedPaks
FUNC 2ef30 202 0 FS_LoadAllMapMetadata
FUNC 2f140 c6 0 FS_Rename
FUNC 2f210 5 0 FS_SV_Rename
FUNC 2f220 4d6 0 FS_ListFiles
FUNC 2f700 100 0 FS_filelength
FUNC 2f800 183 0 FS_Seek
FUNC 2f990 ac 0 FS_Flush
FUNC 2fa40 f5 0 FS_Write
FUNC 2fb40 136 0 FS_Printf
FUNC 2fc80 129 0 FS_Read
FUNC 2fdb0 e0 0 FS_LoadPak
FUNC 2fe90 291 0 FS_LoadBasePak
FUNC 30130 73f 0 FS_LoadServerPaks
FUNC 30870 325 0 FS_FCloseFile
FUNC 30ba0 2f0 0 FS_FOpenFileRead
FUNC 30e90 99 0 FS_ReadFile
FUNC 30f30 12f 0 FS_WriteFile
FUNC 31060 a6 0 FS_Delete
FUNC 31110 151 0 FS_FOpenFileAppend
FUNC 31270 3bb 0 FS_FOpenFileWrite_internal
FUNC 31630 a 0 FS_FOpenFileWriteViaTemporary
FUNC 31640 7 0 FS_SV_FOpenFileWrite
FUNC 31660 431 0 FS_Game_FOpenFileByMode
FUNC 31aa0 4 0 tinyformat::detail::FormatArg::toIntImpl<long int>
FUNC 31ab0 2 0 DirCmd::~DirCmd
FUNC 31ac0 2 0 ListPathsCmd::~ListPathsCmd
FUNC 31ad0 2 0 WhichCmd::~WhichCmd
FUNC 31ae0 5 0 DirCmd::~DirCmd
FUNC 31af0 5 0 ListPathsCmd::~ListPathsCmd
FUNC 31b00 5 0 WhichCmd::~WhichCmd
FUNC 31b10 8a 0 WhichCmd::Complete
FUNC 31ba0 65 0 std::vector<missingPak_t, std::allocator<missingPak_t> >::~vector
FUNC 31c10 9e 0 tinyformat::detail::FormatArg::formatImpl<char [13]>
FUNC 31cb0 8d 0 tinyformat::detail::FormatArg::toIntImpl<char [13]>
FUNC 31d40 32 0 FS::PakPath::DirectoryRange::~DirectoryRange
FUNC 31d80 a5 0 FS::RawPath::DirectoryRange::~DirectoryRange
FUNC 31e30 32 0 missingPak_t::~missingPak_t
FUNC 31e70 fc 0 WhichCmd::WhichCmd
FUNC 31f70 fc 0 ListPathsCmd::ListPathsCmd
FUNC 32070 fc 0 DirCmd::DirCmd
FUNC 32170 802 0 tinyformat::detail::formatImpl
FUNC 32980 ad 0 Cmd::CmdBase::Print<>
FUNC 32a30 428 0 DirCmd::Run
FUNC 32e60 4c4 0 Log::Logger::Debug<char const*&, std::__cxx11::basic_string<char, std::char_traits<char>, std::allocator<char> > >
FUNC 33330 4d0 0 Log::Logger::Warn<char const*&, int&>
FUNC 33800 cf0 0 Log::Logger::Warn<char const*&, long int&>
FUNC 344f0 4e7 0 Log::Logger::Notice<char const*&, char const*&, char const*>
FUNC 349e0 ea 0 std::vector<char*, std::allocator<char*> >::_M_emplace_back_aux<char* const&>
FUNC 34ad0 4d0 0 Log::Logger::Notice<char const*, char const (&)[13]>
FUNC 34fa0 4f 0 Sys::Drop<char const*>
FUNC 34ff0 f8 0 Log::Logger::Notice<char const*>
FUNC 350f0 4f 0 Sys::Error<char const*>
FUNC 35140 f8 0 Log::Logger::Warn<char const*&>
FUNC 35240 c1a 0 tinyformat::format<char [13]>
FUNC 35e60 2f6 0 std::vector<missingPak_t, std::allocator<missingPak_t> >::_M_emplace_back_aux<missingPak_t>
FUNC 36160 cd 0 std::vector<missingPak_t, std::allocator<missingPak_t> >::emplace_back<missingPak_t>
FUNC 36230 c4a 0 tinyformat::format<std::__cxx11::basic_string<char, std::char_traits<char>, std::allocator<char> >, std::__cxx11::basic_string<char, std::char_traits<char>, std::allocator<char> > >
FUNC 36e80 c1a 0 tinyformat::format<std::__cxx11::basic_string<char, std::char_traits<char>, std::allocator<char> > >
FUNC 37aa0 a2 0 Cmd::CmdBase::Print<const std::__cxx11::basic_string<char, std::char_traits<char>, std::allocator<char> >&>
FUNC 37b50 61 0 ListPathsCmd::Run
FUNC 37bc0 136 0 WhichCmd::Run
FUNC 37d00 c4a 0 tinyformat::format<char const*, char const*>
FUNC 38950 fa 0 Log::Logger::Debug<char const*&, char const*>
FUNC 38a50 fb 0 Log::Logger::Warn<char const*&, char const*>
FUNC 38b50 fb 0 Log::Logger::Notice<char const*, char const*>
FUNC 38c50 3a4 0 tinyformat::detail::formatTruncated<long int>
FUNC 39000 6d 0 tinyformat::detail::FormatArg::formatImpl<long int>
FUNC 39070 7e 0 swaplist
FUNC 390f0 1b8 0 increment
FUNC 392b0 97 0 send
FUNC 39350 46 0 Huff_putBit
FUNC 393a0 23 0 Huff_getBit
FUNC 393d0 31f 0 Huff_addRef
FUNC 396f0 6a 0 Huff_Receive
FUNC 39760 74 0 Huff_offsetReceive
FUNC 397e0 a3 0 Huff_transmit
FUNC 39890 3b 0 Huff_offsetTransmit
FUNC 398d0 239 0 Huff_Decompress
FUNC 39b10 13e 0 Huff_Compress
FUNC 39c50 10d 0 Huff_Init
FUNC 39d60 2c 0 qsort_entitystatefields
FUNC 39d90 2c 0 qsort_playerstatefields
FUNC 39dc0 c2 0 std::__cxx11::basic_string<char, std::char_traits<char>, std::allocator<char> >::_M_construct<char*>
FUNC 39e90 13 0 MSG_Clear
FUNC 39eb0 5 0 MSG_Bitstream
FUNC 39ec0 13 0 MSG_BeginReading
FUNC 39ee0 13 0 MSG_BeginReadingOOB
FUNC 39f00 11 0 MSG_BeginReadingUncompressed
FUNC 39f30 89 0 MSG_initHuffman
FUNC 39fc0 45 0 MSG_Init
FUNC 3a010 49 0 MSG_InitOOB
FUNC 3a060 fd 0 MSG_PrioritiseEntitystateFields
FUNC 3a160 fd 0 MSG_PrioritisePlayerStateFields
FUNC 3a260 c5 0 MSG_Copy
FUNC 3a330 1b6 0 MSG_WriteBits
FUNC 3a4f0 a 0 MSG_WriteByte
FUNC 3a510 3f 0 MSG_WriteData
FUNC 3a550 cd 0 MSG_WriteString
FUNC 3a620 cd 0 MSG_WriteBigString
FUNC 3a6f0 a 0 MSG_WriteShort
FUNC 3a700 a 0 MSG_WriteLong
FUNC 3a710 e 0 MSG_WriteFloat
FUNC 3a720 3c 0 MSG_WriteDelta
FUNC 3a760 4c 0 MSG_WriteDeltaFloat
FUNC 3a7b0 1c7 0 MSG_WriteDeltaUsercmd
FUNC 3a980 1d9 0 MSG_ReadBits
FUNC 3ab60 21 0 MSG_ReadChar
FUNC 3ab90 21 0 MSG_ReadByte
FUNC 3abc0 6e 0 MSG_ReadString
FUNC 3ac30 6e 0 MSG_ReadBigString
FUNC 3aca0 7f 0 MSG_ReadStringLine
FUNC 3ad20 57 0 MSG_ReadData
FUNC 3ad80 1f 0 MSG_ReadShort
FUNC 3ada0 37 0 MSG_ReadAngle16
FUNC 3ade0 1e 0 MSG_ReadLong
FUNC 3ae00 32 0 MSG_ReadFloat
FUNC 3ae40 37 0 MSG_ReadDelta
FUNC 3ae80 3f 0 MSG_ReadDeltaFloat
FUNC 3aec0 1f4 0 MSG_ReadDeltaUsercmd
FUNC 3b0c0 312 0 MSG_WriteDeltaEntity
FUNC 3b3e0 593 0 MSG_ReadDeltaPlayerstate
FUNC 3b980 487 0 MSG_ReadDeltaEntity
FUNC 3be10 4a9 0 MSG_WriteDeltaPlayerstate
FUNC 3c2c0 5 0 tinyformat::detail::FormatArg::toIntImpl<float>
FUNC 3c2d0 9e 0 tinyformat::detail::FormatArg::formatImpl<char [8]>
FUNC 3c370 9e 0 tinyformat::detail::FormatArg::formatImpl<char [9]>
FUNC 3c410 9e 0 tinyformat::detail::FormatArg::formatImpl<char [14]>
FUNC 3c4b0 8d 0 tinyformat::detail::FormatArg::toIntImpl<char [9]>
FUNC 3c540 8d 0 tinyformat::detail::FormatArg::toIntImpl<char [8]>
FUNC 3c5d0 8d 0 tinyformat::detail::FormatArg::toIntImpl<char [14]>
FUNC 3c660 cf0 0 Log::Logger::Notice<char const*&, int&>
FUNC 3d350 cf0 0 Log::Logger::Notice<char const*&, float&>
FUNC 3e040 cc0 0 Log::Logger::Notice<char const (&)[9]>
FUNC 3ed00 cc0 0 Log::Logger::Notice<char const (&)[14]>
FUNC 3f9c0 cc0 0 Log::Logger::Notice<char const (&)[8]>
FUNC 40680 c4a 0 tinyformat::format<int, int>
FUNC 412d0 fb 0 Log::Logger::Notice<int&, int&>
FUNC 413d0 4f 0 Sys::Drop<int&>
FUNC 41420 3ac 0 tinyformat::detail::formatTruncated<float>
FUNC 417d0 6f 0 tinyformat::detail::FormatArg::formatImpl<float>
FUNC 41840 c2 0 std::__cxx11::basic_string<char, std::char_traits<char>, std::allocator<char> >::_M_construct<char*>
FUNC 41910 6f 0 Netchan_Init
FUNC 41980 5f 0 Netchan_Setup
FUNC 419e0 c0 0 NET_GetLoopPacket
FUNC 41aa0 52 0 NET_SendLoopPacket
FUNC 41b00 1eb 0 NET_StringToAdr
FUNC 41cf0 50c 0 Netchan_Process
FUNC 42200 29d 0 NET_SendPacket
FUNC 424a0 1a8 0 Netchan_TransmitNextFragment
FUNC 42650 1e2 0 Netchan_Transmit
FUNC 42840 d6b 0 Log::Logger::Notice<char const* const&, int&, int&, int&, int&>
FUNC 435b0 d56 0 Log::Logger::Notice<char const* const&, int&, int, int&>
FUNC 44310 d10 0 Log::Logger::Notice<char const*, int&, int&>
FUNC 45020 cf0 0 Log::Logger::Notice<char const*, int&>
FUNC 45d10 25 0 SockadrToNetadr
FUNC 45d40 c2 0 std::__cxx11::basic_string<char, std::char_traits<char>, std::allocator<char> >::_M_construct<char*>
FUNC 45e10 14 0 NET_ErrorString
FUNC 45e30 fa 0 NetadrToSockadr
FUNC 45f30 46 0 Sys_SockaddrToString
FUNC 45f80 dc 0 NET_AdrToString
FUNC 46060 1a7 0 NET_AdrToStringwPort
FUNC 46210 9 0 NET_IsLocalAddress
FUNC 46220 135 0 Sys_IsLANAddress
FUNC 46360 4e 0 NET_LeaveMulticast6
FUNC 463b0 1ac 0 NET_Sleep
FUNC 46560 226 0 NET_CompareBaseAdrMask
FUNC 46790 84 0 NET_CompareBaseAdr
FUNC 46820 13b 0 NET_CompareAdr
FUNC 46960 be 0 Sys_ShowIP
FUNC 46a20 3dd 0 Sys_GetPacket
FUNC 46e00 339 0 Sys_SendPacket
FUNC 47140 2b6 0 Sys_StringToSockaddr
FUNC 47400 bb 0 Sys_StringToAdr
FUNC 474c0 da 0 NET_SetMulticast6
FUNC 475a0 317 0 NET_IPSocket
FUNC 478c0 433 0 NET_IP6Socket
FUNC 47d00 1f6 0 NET_JoinMulticast6
FUNC 47f00 521 0 NET_OpenSocks
FUNC 48430 7d6 0 NET_Config
FUNC 48c10 25 0 NET_Init
FUNC 48c40 17 0 NET_Shutdown
FUNC 48c60 a 0 NET_Restart_f
FUNC 48c70 4 0 tinyformat::detail::FormatArg::toIntImpl<short unsigned int>
FUNC 48c80 4 0 tinyformat::detail::FormatArg::toIntImpl<unsigned char>
FUNC 48c90 6c 0 tinyformat::detail::FormatArg::formatImpl<unsigned char>
FUNC 48d00 8d 0 tinyformat::detail::FormatArg::toIntImpl<char*>
FUNC 48d90 8d 0 tinyformat::detail::FormatArg::toIntImpl<char [48]>
FUNC 48e20 9e 0 tinyformat::detail::FormatArg::formatImpl<char [48]>
FUNC 48ec0 174 0 tinyformat::detail::FormatArg::formatImpl<char*>
FUNC 49040 cf0 0 Log::Logger::Notice<short unsigned int&, char const*>
FUNC 49d30 cc0 0 Log::Logger::Notice<char (&)[48]>
FUNC 4a9f0 d56 0 Log::Logger::Notice<char const*, char const*, char const*, char const*>
FUNC 4b750 cc0 0 Log::Logger::Warn<char*&>
FUNC 4c410 102 0 Log::Logger::Warn<>
FUNC 4c520 cc0 0 Log::Logger::Notice<unsigned char&>
FUNC 4d1e0 f8 0 Log::Logger::Warn<char const*>
FUNC 4d2e0 3a4 0 tinyformat::detail::formatTruncated<short unsigned int>
FUNC 4d690 6e 0 tinyformat::detail::FormatArg::formatImpl<short unsigned int>
FUNC 4d700 53 0 Parse_AddDefineToHash
FUNC 4d760 8d 0 Parse_FindHashedDefine
FUNC 4d7f0 5c 0 Parse_PopIndent
FUNC 4d850 1e 0 Parse_FreeScript
FUNC 4d870 69 0 Parse_FreeDefine
FUNC 4d8e0 50 0 Parse_PushIndent
FUNC 4d930 3f 0 Parse_StripDoubleQuotes
FUNC 4d970 50 0 Parse_ConvertPath
FUNC 4d9c0 106 0 Parse_ReadWhiteSpace
FUNC 4dad0 4b 0 Parse_CopyToken
FUNC 4db20 b8 0 Parse_UnreadSignToken
FUNC 4dbe0 c2 0 std::__cxx11::basic_string<char, std::char_traits<char>, std::allocator<char> >::_M_construct<char*>
FUNC 4dcb0 13b 0 Parse_CreatePunctuationTable
FUNC 4ddf0 c1 0 Parse_LoadScriptMemory
FUNC 4dec0 111 0 Parse_LoadScriptFile
FUNC 4dfe0 235 0 Parse_LoadSourceHandle
FUNC 4e220 142 0 Parse_FreeSourceHandle
FUNC 4e370 73 0 Parse_SourceFileAndLine
FUNC 4e3f0 117 0 Parse_SourceWarning
FUNC 4e510 bcc 0 Parse_EvaluateTokens
FUNC 4f0e0 19 0 Parse_Directive_line
FUNC 4f100 78 0 Parse_PushScript
FUNC 4f180 68 0 Parse_Directive_endif
FUNC 4f1f0 a2 0 Parse_Directive_else
FUNC 4f2a0 128 0 Parse_ScriptError
FUNC 4f3d0 122 0 Parse_ScriptWarning
FUNC 4f500 3c4 0 Parse_ReadString
FUNC 4f8d0 b1a 0 Parse_ReadSourceToken
FUNC 503f0 82 0 Parse_ReadLine
FUNC 50480 66 0 Parse_Directive_pragma
FUNC 504f0 1b4 0 Parse_Directive_undef
FUNC 506b0 15 0 Parse_Directive_undef
FUNC 506d0 f2 0 Parse_Directive_if_def
FUNC 507d0 a 0 Parse_Directive_ifndef
FUNC 507e0 a 0 Parse_Directive_ifdef
FUNC 507f0 63 0 Parse_Directive_error
FUNC 50860 200 0 Parse_Directive_include
FUNC 50a60 15 0 Parse_Directive_include
FUNC 50a80 905 0 Parse_ExpandDefine
FUNC 51390 79 0 Parse_ExpandDefineIntoSource
FUNC 51410 3c7 0 Parse_DollarEvaluate
FUNC 517e0 17e 0 Parse_DollarDirective_evalfloat
FUNC 51960 146 0 Parse_DollarDirective_evalint
FUNC 51ab0 33f 0 Parse_Evaluate
FUNC 51df0 129 0 Parse_Directive_evalfloat
FUNC 51f20 127 0 Parse_Directive_eval
FUNC 52050 a8 0 Parse_Directive_elif
FUNC 52100 62 0 Parse_Directive_if
FUNC 52170 7ae 0 Parse_ReadToken
FUNC 52920 d8 0 Parse_ReadTokenHandle
FUNC 52a00 51e 0 Parse_Directive_define
FUNC 52f20 15 0 Parse_Directive_define
FUNC 52f40 156 0 Parse_DefineFromString
FUNC 530a0 ac 0 Parse_AddGlobalDefine
FUNC 53150 9e 0 tinyformat::detail::FormatArg::formatImpl<char [1024]>
FUNC 531f0 8d 0 tinyformat::detail::FormatArg::toIntImpl<char [1024]>
FUNC 53280 d10 0 Log::Logger::Notice<char (&)[1024], int&, char (&)[1024]>
FUNC 53f90 35 0 __tcf_0
FUNC 53fd0 c2 0 std::__cxx11::basic_string<char, std::char_traits<char>, std::allocator<char> >::_M_construct<char*>
FUNC 540a0 106 0 Trans_Gettext_Internal
FUNC 541b0 17c 0 Trans_Pgettext_Internal
FUNC 54330 189 0 Trans_GettextPlural_Internal
FUNC 544c0 c 0 Trans_Gettext
FUNC 544d0 c 0 Trans_Pgettext
FUNC 544e0 c 0 Trans_GettextPlural
FUNC 544f0 c 0 Trans_GettextGame
FUNC 54500 c 0 Trans_PgettextGame
FUNC 54510 c 0 Trans_GettextGamePlural
FUNC 54520 50 0 Trans_Error
FUNC 54570 5e 0 Trans_Warning
FUNC 545d0 30 0 Trans_Info
FUNC 54600 375 0 Trans_SetLanguage
FUNC 54980 10 0 Trans_UpdateLanguage_f
FUNC 54990 d0 0 Trans_LoadDefaultLanguage
FUNC 54a60 554 0 Trans_Init
FUNC 54fc0 4 0 tinyformat::detail::FormatArg::toIntImpl<long unsigned int>
FUNC 54fd0 2 0 DaemonFileSystem::~DaemonFileSystem
FUNC 54fe0 5 0 DaemonFileSystem::~DaemonFileSystem
FUNC 54ff0 40 0 DaemonIstream::~DaemonIstream
FUNC 55040 2e 0 DaemonInputbuf::~DaemonInputbuf
FUNC 55070 1a1 0 DaemonFileSystem::open_file
FUNC 55220 85 0 Log::Logger::~Logger
FUNC 552b0 36 0 DaemonInputbuf::~DaemonInputbuf
FUNC 552f0 48 0 DaemonIstream::~DaemonIstream
FUNC 55350 cf0 0 Log::Logger::Warn<char const*, char const*&>
FUNC 56040 cf0 0 Log::Logger::Notice<long unsigned int, char const*>
FUNC 56d30 36 0 std::_Rb_tree<tinygettext::Language, tinygettext::Language, std::_Identity<tinygettext::Language>, std::less<tinygettext::Language>, std::allocator<tinygettext::Language> >::_M_erase
FUNC 56d70 1ea 0 std::vector<std::__cxx11::basic_string<char, std::char_traits<char>, std::allocator<char> >, std::allocator<std::__cxx11::basic_string<char, std::char_traits<char>, std::allocator<char> > > >::_M_emplace_back_aux<std::__cxx11::basic_string<char, std::char_traits<char>, std::allocator<char> > >
FUNC 56f60 1d6 0 DaemonFileSystem::open_directory
FUNC 57140 3a4 0 tinyformat::detail::formatTruncated<long unsigned int>
FUNC 574f0 6d 0 tinyformat::detail::FormatArg::formatImpl<long unsigned int>
FUNC 57560 f 0 rVec::rVec
FUNC 57570 1d 0 rVec::rVec
FUNC 57590 2d 0 rVec::rVec
FUNC 575c0 f 0 qVec::qVec
FUNC 575d0 1d 0 qVec::qVec
FUNC 575f0 2d 0 qVec::qVec
FUNC 57620 a3 0 rBounds::rBounds
FUNC 576d0 23 0 rBounds::rBounds
FUNC 57700 60 0 rBounds::addPoint
FUNC 57760 2e 0 rBounds::clear
FUNC 57790 52 0 botRouteTargetInternal::botRouteTargetInternal
FUNC 577f0 2 0 __tcf_0
FUNC 57800 c2 0 std::__cxx11::basic_string<char, std::char_traits<char>, std::allocator<char> >::_M_construct<char*>
FUNC 578d0 2 0 BotInit
FUNC 578e0 1f6 0 BotSaveOffMeshConnections
FUNC 57ae0 165 0 BotLoadOffMeshConnections
FUNC 57c50 ef 0 BotShutdownNav
FUNC 57d40 46d 0 BotLoadNavMesh
FUNC 581b0 289 0 BotSetupNav
FUNC 58440 2 0 dtTileCacheAlloc::~dtTileCacheAlloc
FUNC 58450 2 0 dtTileCacheAlloc::reset
FUNC 58460 15 0 FastLZCompressor::maxCompressedSize
FUNC 58480 d0 0 MeshProcess::process
FUNC 58550 2 0 LinearAllocator::~LinearAllocator
FUNC 58560 1a 0 LinearAllocator::reset
FUNC 58580 23 0 LinearAllocator::alloc
FUNC 585b0 2 0 LinearAllocator::free
FUNC 585c0 2 0 MeshProcess::~MeshProcess
FUNC 585d0 2 0 FastLZCompressor::~FastLZCompressor
FUNC 585e0 25 0 FastLZCompressor::decompress
FUNC 58610 1a 0 FastLZCompressor::compress
FUNC 58630 5 0 LinearAllocator::~LinearAllocator
FUNC 58640 5 0 dtTileCacheAlloc::~dtTileCacheAlloc
FUNC 58650 5 0 MeshProcess::~MeshProcess
FUNC 58660 5 0 FastLZCompressor::~FastLZCompressor
FUNC 58670 d 0 dtTileCacheAlloc::alloc
FUNC 58680 8 0 dtTileCacheAlloc::free
FUNC 58690 5 0 dtFreeCustom
FUNC 586a0 a 0 dtAllocCustom
FUNC 586b0 cf0 0 Log::Logger::Warn<int&, int const&>
FUNC 593a0 163 0 BotCalcSteerDir
FUNC 59510 a9 0 PointInPolyExtents
FUNC 595c0 7c 0 PointInPoly
FUNC 59640 fc 0 BotFindNearestPoly
FUNC 59740 292 0 FindRoute
FUNC 599e0 50 0 FindWaypoints
FUNC 59a30 1e 0 frand
FUNC 59a50 34 0 __tcf_0
FUNC 59a90 30a 0 BotSetPolyFlags
FUNC 59da0 87 0 BotDisableArea
FUNC 59e30 8a 0 BotEnableArea
FUNC 59ec0 1af 0 BotSetNavMesh
FUNC 5a070 68 0 GetEntPosition
FUNC 5a0e0 52 0 GetEntPosition
FUNC 5a140 b5 0 BotFindRouteExt
FUNC 5a200 cd 0 UpdatePathCorridor
FUNC 5a2d0 7dc 0 BotUpdateCorridor
FUNC 5aab0 11f 0 BotFindRandomPointInRadius
FUNC 5abd0 84 0 BotFindRandomPoint
FUNC 5ac60 1b2 0 BotNavTrace
FUNC 5ae20 15d 0 BotAddObstacle
FUNC 5af80 4f 0 BotRemoveObstacle
FUNC 5afd0 52 0 BotUpdateObstacles
FUNC 5b030 c2 0 std::__cxx11::basic_string<char, std::char_traits<char>, std::allocator<char> >::_M_construct<char*>
FUNC 5b100 ac 0 SV_BotAllocateClient
FUNC 5b1b0 14 0 SV_IsBot
FUNC 5b1d0 53 0 SV_BotGetConsoleMessage
FUNC 5b230 aa 0 SV_BotFreeClient
FUNC 5b2e0 b 0 SV_Heartbeat_f
FUNC 5b2f0 12 0 SV_FieldInfo_f
FUNC 5b310 c2 0 std::__cxx11::basic_string<char, std::char_traits<char>, std::allocator<char> >::_M_construct<char*>
FUNC 5b3e0 77 0 SV_AddOperatorCommands
FUNC 5b460 50 0 SV_RemoveOperatorCommands
FUNC 5b4b0 21 0 SV_Serverinfo_f
FUNC 5b4e0 4a 0 SV_Systeminfo_f
FUNC 5b530 4d 0 SV_Serverinfo_f
FUNC 5b580 3c5 0 SV_MapRestart_f
FUNC 5b950 2 0 ListMapsCmd::~ListMapsCmd
FUNC 5b960 2 0 StatusCmd::~StatusCmd
FUNC 5b970 2 0 MapCmd::~MapCmd
FUNC 5b980 5 0 ListMapsCmd::~ListMapsCmd
FUNC 5b990 5 0 StatusCmd::~StatusCmd
FUNC 5b9a0 5 0 MapCmd::~MapCmd
FUNC 5b9b0 9e 0 tinyformat::detail::FormatArg::formatImpl<char [40]>
FUNC 5ba50 9e 0 tinyformat::detail::FormatArg::formatImpl<char [128]>
FUNC 5baf0 8d 0 tinyformat::detail::FormatArg::toIntImpl<char [128]>
FUNC 5bb80 8d 0 tinyformat::detail::FormatArg::toIntImpl<char [40]>
FUNC 5bc10 108 0 MapCmd::MapCmd
FUNC 5bd20 fc 0 StatusCmd::StatusCmd
FUNC 5be20 fc 0 ListMapsCmd::ListMapsCmd
FUNC 5bf20 ec 0 __gnu_cxx::__to_xstring<std::__cxx11::basic_string<char>, char>
FUNC 5c010 48 0 std::_Rb_tree<std::__cxx11::basic_string<char, std::char_traits<char>, std::allocator<char> >, std::__cxx11::basic_string<char, std::char_traits<char>, std::allocator<char> >, std::_Identity<std::__cxx11::basic_string<char, std::char_traits<char>, std::allocator<char> > >, std::less<std::__cxx11::basic_string<char, std::char_traits<char>, std::allocator<char> > >, std::allocator<std::__cxx11::basic_string<char, std::char_traits<char>, std::allocator<char> > > >::_M_erase
FUNC 5c060 d16 0 ListMapsCmd::Run
FUNC 5cd80 3fa 0 MapCmd::Run
FUNC 5d180 2ba9 0 StatusCmd::Run
FUNC 5fd30 4ab 0 MapCmd::Complete
FUNC 601e0 c2 0 std::__cxx11::basic_string<char, std::char_traits<char>, std::allocator<char> >::_M_construct<char*>
FUNC 602b0 a9 0 SV_CloseDownload
FUNC 60360 75 0 SV_BeginDownload_f
FUNC 603e0 12 0 SV_FreeClient
FUNC 60400 3e 0 SV_BadDownload
FUNC 60440 248 0 SV_UserinfoChanged
FUNC 60690 77 0 SV_UpdateUserinfo_f
FUNC 60710 55 0 SV_ClientThink
FUNC 60770 f7 0 SV_GetChallenge
FUNC 60870 276 0 SV_ExecuteClientCommand
FUNC 60af0 16a 0 SV_DropClient
FUNC 60c60 12 0 SV_DropClient
FUNC 60c80 1a 0 SV_Disconnect_f
FUNC 60ca0 26b 0 SV_ClientCommand
FUNC 60f10 c0 0 SV_ClientEnterWorld
FUNC 60fd0 219 0 SV_UserMove
FUNC 611f0 1784 0 SV_DirectConnect
FUNC 62980 231 0 SV_SendClientGameState
FUNC 62bc0 3a 0 SV_DoneDownload_f
FUNC 62c00 274 0 SV_ExecuteClientMessage
FUNC 62e80 88 0 SV_StopDownload_f
FUNC 62f10 16b 0 SV_NextDownload_f
FUNC 63080 1fb 0 SV_WWWDownload_f
FUNC 63280 c96 0 SV_WriteDownloadToClient
FUNC 63f20 9e 0 tinyformat::detail::FormatArg::formatImpl<char [256]>
FUNC 63fc0 8d 0 tinyformat::detail::FormatArg::toIntImpl<char [256]>
FUNC 64050 4f 0 FS::File::~File
FUNC 640a0 de8 0 Net::OutOfBandPrint<std::__cxx11::basic_string<char, std::char_traits<char>, std::allocator<char> >&>
FUNC 64e90 20c 0 Net::OutOfBandPrint<>
FUNC 650a0 de8 0 Net::OutOfBandPrint<char*&>
FUNC 65e90 101 0 Log::Logger::Debug<>
FUNC 65fa0 5a 0 std::_Rb_tree<std::__cxx11::basic_string<char, std::char_traits<char>, std::allocator<char> >, std::pair<const std::__cxx11::basic_string<char, std::char_traits<char>, std::allocator<char> >, std::__cxx11::basic_string<char, std::char_traits<char>, std::allocator<char> > >, std::_Select1st<std::pair<const std::__cxx11::basic_string<char, std::char_traits<char>, std::allocator<char> >, std::__cxx11::basic_string<char, std::char_traits<char>, std::allocator<char> > > >, std::less<std::__cxx11::basic_string<char, std::char_traits<char>, std::allocator<char> > >, std::allocator<std::pair<const std::__cxx11::basic_string<char, std::char_traits<char>, std::allocator<char> >, std::__cxx11::basic_string<char, std::char_traits<char>, std::allocator<char> > > > >::_M_erase
FUNC 66000 4c4 0 Log::Logger::Debug<int&, long int>
FUNC 664d0 4d0 0 Log::Logger::Notice<char const*&, char (&)[128]>
FUNC 669a0 4d0 0 Log::Logger::Notice<char (&)[128], char*&>
FUNC 66e70 4c4 0 Log::Logger::Debug<char (&)[128], char const*>
FUNC 67340 4f6 0 Log::Logger::Debug<char (&)[128], int&, char*&>
FUNC 67840 4d0 0 Log::Logger::Notice<char (&)[128], int>
FUNC 67d10 fa 0 Log::Logger::Debug<int, int&>
FUNC 67e10 222 0 std::_Rb_tree<std::__cxx11::basic_string<char, std::char_traits<char>, std::allocator<char> >, std::pair<const std::__cxx11::basic_string<char, std::char_traits<char>, std::allocator<char> >, std::__cxx11::basic_string<char, std::char_traits<char>, std::allocator<char> > >, std::_Select1st<std::pair<const std::__cxx11::basic_string<char, std::char_traits<char>, std::allocator<char> >, std::__cxx11::basic_string<char, std::char_traits<char>, std::allocator<char> > > >, std::less<std::__cxx11::basic_string<char, std::char_traits<char>, std::allocator<char> > >, std::allocator<std::pair<const std::__cxx11::basic_string<char, std::char_traits<char>, std::allocator<char> >, std::__cxx11::basic_string<char, std::char_traits<char>, std::allocator<char> > > > >::equal_range
FUNC 68040 ed 0 std::_Rb_tree<std::__cxx11::basic_string<char, std::char_traits<char>, std::allocator<char> >, std::pair<const std::__cxx11::basic_string<char, std::char_traits<char>, std::allocator<char> >, std::__cxx11::basic_string<char, std::char_traits<char>, std::allocator<char> > >, std::_Select1st<std::pair<const std::__cxx11::basic_string<char, std::char_traits<char>, std::allocator<char> >, std::__cxx11::basic_string<char, std::char_traits<char>, std::allocator<char> > > >, std::less<std::__cxx11::basic_string<char, std::char_traits<char>, std::allocator<char> > >, std::allocator<std::pair<const std::__cxx11::basic_string<char, std::char_traits<char>, std::allocator<char> >, std::__cxx11::basic_string<char, std::char_traits<char>, std::allocator<char> > > > >::erase
FUNC 68130 c1a 0 tinyformat::format<char [1024]>
FUNC 68d50 20c 0 Net::OutOfBandPrint<char (&)[1024]>
FUNC 68f60 eb 0 Log::Logger::Debug<char (&)[1024]>
FUNC 69050 147 0 std::_Rb_tree<std::__cxx11::basic_string<char, std::char_traits<char>, std::allocator<char> >, std::pair<const std::__cxx11::basic_string<char, std::char_traits<char>, std::allocator<char> >, std::__cxx11::basic_string<char, std::char_traits<char>, std::allocator<char> > >, std::_Select1st<std::pair<const std::__cxx11::basic_string<char, std::char_traits<char>, std::allocator<char> >, std::__cxx11::basic_string<char, std::char_traits<char>, std::allocator<char> > > >, std::less<std::__cxx11::basic_string<char, std::char_traits<char>, std::allocator<char> > >, std::allocator<std::pair<const std::__cxx11::basic_string<char, std::char_traits<char>, std::allocator<char> >, std::__cxx11::basic_string<char, std::char_traits<char>, std::allocator<char> > > > >::_M_get_insert_unique_pos
FUNC 691a0 2aa 0 std::_Rb_tree<std::__cxx11::basic_string<char, std::char_traits<char>, std::allocator<char> >, std::pair<const std::__cxx11::basic_string<char, std::char_traits<char>, std::allocator<char> >, std::__cxx11::basic_string<char, std::char_traits<char>, std::allocator<char> > >, std::_Select1st<std::pair<const std::__cxx11::basic_string<char, std::char_traits<char>, std::allocator<char> >, std::__cxx11::basic_string<char, std::char_traits<char>, std::allocator<char> > > >, std::less<std::__cxx11::basic_string<char, std::char_traits<char>, std::allocator<char> > >, std::allocator<std::pair<const std::__cxx11::basic_string<char, std::char_traits<char>, std::allocator<char> >, std::__cxx11::basic_string<char, std::char_traits<char>, std::allocator<char> > > > >::_M_get_insert_hint_unique_pos
FUNC 69450 184 0 std::_Rb_tree<std::__cxx11::basic_string<char, std::char_traits<char>, std::allocator<char> >, std::pair<const std::__cxx11::basic_string<char, std::char_traits<char>, std::allocator<char> >, std::__cxx11::basic_string<char, std::char_traits<char>, std::allocator<char> > >, std::_Select1st<std::pair<const std::__cxx11::basic_string<char, std::char_traits<char>, std::allocator<char> >, std::__cxx11::basic_string<char, std::char_traits<char>, std::allocator<char> > > >, std::less<std::__cxx11::basic_string<char, std::char_traits<char>, std::allocator<char> > >, std::allocator<std::pair<const std::__cxx11::basic_string<char, std::char_traits<char>, std::allocator<char> >, std::__cxx11::basic_string<char, std::char_traits<char>, std::allocator<char> > > > >::_M_emplace_hint_unique<const std::piecewise_construct_t&, std::tuple<std::__cxx11::basic_string<char, std::char_traits<char>, std::allocator<char> >&&>, std::tuple<> >
FUNC 695e0 157 0 std::map<std::__cxx11::basic_string<char, std::char_traits<char>, std::allocator<char> >, std::__cxx11::basic_string<char, std::char_traits<char>, std::allocator<char> >, std::less<std::__cxx11::basic_string<char, std::char_traits<char>, std::allocator<char> > >, std::allocator<std::pair<const std::__cxx11::basic_string<char, std::char_traits<char>, std::allocator<char> >, std::__cxx11::basic_string<char, std::char_traits<char>, std::allocator<char> > > > >::operator[]
FUNC 69740 eb 0 Log::Logger::Debug<int&>
FUNC 69830 f8 0 Log::Logger::Warn<int>
FUNC 69930 eb 0 Log::Logger::Debug<char const*&>
FUNC 69a20 c1a 0 tinyformat::format<char [128]>
FUNC 6a640 eb 0 Log::Logger::Debug<char (&)[128]>
FUNC 6a730 f8 0 Log::Logger::Warn<char (&)[128]>
FUNC 6a830 c4a 0 tinyformat::format<int, char [256]>
FUNC 6b480 fa 0 Log::Logger::Debug<int, char (&)[256]>
FUNC 6b580 fb 0 Log::Logger::Notice<int, char (&)[256]>
FUNC 6b680 c4a 0 tinyformat::format<char [128], char [256]>
FUNC 6c2d0 fb 0 Log::Logger::Warn<char (&)[128], char (&)[256]>
FUNC 6c3d0 fb 0 Log::Logger::Notice<char (&)[128], char (&)[256]>
FUNC 6c4d0 c2 0 std::__cxx11::basic_string<char, std::char_traits<char>, std::allocator<char> >::_M_construct<char*>
FUNC 6c5a0 209 0 SV_UpdateConfigStrings
FUNC 6c7b0 8b 0 SV_CreateBaseline
FUNC 6c840 5b 0 SV_BoundMaxClients
FUNC 6c8a0 8a 0 SV_Startup
FUNC 6c930 f7 0 SV_ChangeMaxClients
FUNC 6ca30 47 0 SV_ClearServer
FUNC 6ca80 40c 0 SV_Init
FUNC 6ce90 b3 0 SV_FinalCommand
FUNC 6cf50 12b 0 SV_Shutdown
FUNC 6d080 8d 0 SV_SetConfigstring
FUNC 6d110 40c 0 SV_SpawnServer
FUNC 6d520 74 0 SV_GetConfigstring
FUNC 6d5a0 9e 0 SV_SetUserinfo
FUNC 6d640 72 0 SV_GetUserinfo
FUNC 6d6c0 75 0 SV_GetPlayerPubkey
FUNC 6d740 9e 0 tinyformat::detail::FormatArg::formatImpl<char [22]>
FUNC 6d7e0 9e 0 tinyformat::detail::FormatArg::formatImpl<char [16]>
FUNC 6d880 8d 0 tinyformat::detail::FormatArg::toIntImpl<char [16]>
FUNC 6d910 8d 0 tinyformat::detail::FormatArg::toIntImpl<char [22]>
FUNC 6d9a0 cc0 0 Log::Logger::Notice<char const (&)[22]>
FUNC 6e660 cc0 0 Log::Logger::Notice<const std::__cxx11::basic_string<char, std::char_traits<char>, std::allocator<char> >&>
FUNC 6f320 cc0 0 Log::Logger::Notice<char const (&)[16]>
FUNC 6ffe0 c2 0 std::__cxx11::basic_string<char, std::char_traits<char>, std::allocator<char> >::_M_construct<char*>
FUNC 700b0 3c 0 std::__cxx11::basic_string<char, std::char_traits<char>, std::allocator<char> >::basic_string
FUNC 700f0 23 0 Cvar::GetCvarTypeName<ServerPrivate>
FUNC 70120 69 0 ParseCvarValue
FUNC 70190 a 0 SV_Private
FUNC 701a0 3d 0 SV_NET_Config
FUNC 701e0 10c 0 SV_CalcPings
FUNC 702f0 3e 0 SV_FrameMsec
FUNC 70330 51 0 SerializeCvarValue
FUNC 70390 34 0 SVC_Ping
FUNC 703d0 1eb 0 SV_AddServerCommand
FUNC 705c0 337 0 SV_ResolveMasterServers
FUNC 70900 3e5 0 TranslateText_Internal
FUNC 70cf0 309 0 SV_CheckDRDoS
FUNC 71000 14f 0 SV_CheckTimeouts
FUNC 71150 98 0 SV_PrintTranslatedText
FUNC 711f0 265 0 SV_SendServerCommand
FUNC 71460 101 0 SV_MasterHeartbeat
FUNC 71570 16 0 SV_MasterShutdown
FUNC 71590 5af 0 SV_Frame
FUNC 71b40 185b 0 SVC_RemoteCommand
FUNC 733a0 f3f 0 SVC_Status
FUNC 742e0 d5c 0 SVC_Info
FUNC 75040 d4e 0 SV_ConnectionlessPacket
FUNC 75d90 1f2 0 SV_PacketEvent
FUNC 75f90 3a 0 RconEnvironment::~RconEnvironment
FUNC 75fd0 3b 0 std::array<MasterServer, 5ul>::~array
FUNC 76010 12 0 serverStatic_t::~serverStatic_t
FUNC 76030 3b 0 RconEnvironment::~RconEnvironment
FUNC 76070 52 0 Cvar::Range<Cvar::Cvar<int> >::~Range
FUNC 760d0 57 0 Cvar::Cvar<ServerPrivate>::~Cvar
FUNC 76130 57 0 Cvar::Range<Cvar::Cvar<int> >::~Range
FUNC 76190 52 0 Cvar::Cvar<ServerPrivate>::~Cvar
FUNC 761f0 34b 0 GameVM::~GameVM
FUNC 76540 1f 0 Cvar::Cvar<ServerPrivate>::GetAdditionalDescription
FUNC 76560 27 0 Cvar::Cvar<ServerPrivate>::Validate
FUNC 76590 4c4 0 Log::Logger::Debug<int&, char (&)[1024]>
FUNC 76a60 4c4 0 Log::Logger::Debug<int&, char const*&>
FUNC 76f30 4af 0 Log::Logger::Notice<char*&>
FUNC 773e0 4d0 0 Log::Logger::Notice<char*&, std::__cxx11::basic_string<char, std::char_traits<char>, std::allocator<char> > >
FUNC 778b0 52f 0 Log::Logger::Notice<unsigned char&, unsigned char&, unsigned char&, unsigned char&>
FUNC 77de0 4e7 0 Log::Logger::Notice<std::__cxx11::basic_string<char, std::char_traits<char>, std::allocator<char> >, char const*, char const*>
FUNC 782d0 4d0 0 Log::Logger::Notice<std::__cxx11::basic_string<char, std::char_traits<char>, std::allocator<char> >, char const*>
FUNC 787a0 20c 0 Net::OutOfBandPrint<char const*&>
FUNC 789b0 20c 0 Net::OutOfBandPrint<std::__cxx11::basic_string<char, std::char_traits<char>, std::allocator<char> >&, std::__cxx11::basic_string<char, std::char_traits<char>, std::allocator<char> >&>
FUNC 78bc0 154 0 RconEnvironment::Print
FUNC 78d20 fa 0 Log::Logger::Debug<std::__cxx11::basic_string<char, std::char_traits<char>, std::allocator<char> >, std::__cxx11::basic_string<char, std::char_traits<char>, std::allocator<char> > >
FUNC 78e20 d6 0 Cvar::Range<Cvar::Cvar<int> >::GetAdditionalDescription
FUNC 78f00 129 0 Cvar::Cvar<ServerPrivate>::GetDescription
FUNC 79030 348 0 Cvar::Range<Cvar::Cvar<int> >::Range<>
FUNC 79380 154 0 Cvar::Range<Cvar::Cvar<int> >::Validate
FUNC 794e0 353 0 GameVM::~GameVM
FUNC 79840 203 0 Cvar::Cvar<ServerPrivate>::OnValueChanged
FUNC 79a50 49 0 SV_Netchan_FreeQueue
FUNC 79aa0 7d 0 SV_Netchan_TransmitNextFragment
FUNC 79b20 c9 0 SV_Netchan_Transmit
FUNC 79bf0 c2 0 std::__cxx11::basic_string<char, std::char_traits<char>, std::allocator<char> >::_M_construct<char*>
FUNC 79cc0 3c 0 std::__cxx11::basic_string<char, std::char_traits<char>, std::allocator<char> >::basic_string
FUNC 79d00 2b9 0 IPC::HandleMsg<IPC::Message<IPC::Id<0u, 5u>, int, std::__cxx11::basic_string<char, std::char_traits<char>, std::allocator<char> > >, GameVM::QVMSyscall(int, Util::Reader&, IPC::Channel&)::<lambda(int, std::__cxx11::string)> >
FUNC 79fc0 2b9 0 IPC::HandleMsg<IPC::Message<IPC::Id<0u, 8u>, int, std::__cxx11::basic_string<char, std::char_traits<char>, std::allocator<char> > >, GameVM::QVMSyscall(int, Util::Reader&, IPC::Channel&)::<lambda(int, std::__cxx11::string)> >
FUNC 7a280 27a 0 IPC::HandleMsg<IPC::Message<IPC::Id<0u, 30u>, std::array<float, 3ul>, std::array<float, 3ul>, std::array<float, 3ul> >, GameVM::QVMSyscall(int, Util::Reader&, IPC::Channel&)::<lambda(std::array<float, 3ul>, std::array<float, 3ul>, std::array<float, 3ul>)> >
FUNC 7a500 27a 0 IPC::HandleMsg<IPC::Message<IPC::Id<0u, 31u>, std::array<float, 3ul>, std::array<float, 3ul>, std::array<float, 3ul> >, GameVM::QVMSyscall(int, Util::Reader&, IPC::Channel&)::<lambda(std::array<float, 3ul>, std::array<float, 3ul>, std::array<float, 3ul>)> >
FUNC 7a780 43 0 SV_GameClientNum
FUNC 7a7d0 47 0 SV_SvEntityForGentity
FUNC 7a820 6c 0 SV_GameSendServerCommand
FUNC 7a890 2e 0 SV_GameDropClient
FUNC 7a8c0 106 0 SV_RSAGenMsg
FUNC 7a9d0 96 0 SV_LocateGameData
FUNC 7aa70 2c1 0 IPC::HandleMsg<IPC::Message<IPC::Id<0u, 0u>, IPC::SharedMemory, int, int, int>, GameVM::QVMSyscall(int, Util::Reader&, IPC::Channel&)::<lambda(IPC::SharedMemory, int, int, int)> >
FUNC 7ad40 15 0 GameVM::GameSnapshotCallback
FUNC 7ad60 15 0 GameVM::BotAIStartFrame
FUNC 7ad80 38c 0 IPC::HandleMsg<IPC::SyncMessage<IPC::Message<IPC::Id<0u, 3u>, int, std::__cxx11::basic_string<char, std::char_traits<char>, std::allocator<char> > > >, GameVM::QVMSyscall(int, Util::Reader&, IPC::Channel&)::<lambda(int, std::__cxx11::string)> >
FUNC 7b110 349 0 IPC::HandleMsg<IPC::SyncMessage<IPC::Message<IPC::Id<0u, 4u>, int, std::__cxx11::basic_string<char, std::char_traits<char>, std::allocator<char> > > >, GameVM::QVMSyscall(int, Util::Reader&, IPC::Channel&)::<lambda(int, std::__cxx11::string)> >
FUNC 7b460 289 0 IPC::HandleMsg<IPC::SyncMessage<IPC::Message<IPC::Id<0u, 25u>, int, botRouteTarget_t, bool>, IPC::Reply<int> >, GameVM::QVMSyscall(int, Util::Reader&, IPC::Channel&)::<lambda(int, botRouteTarget_t, bool, int&)> >
FUNC 7b6f0 30c 0 IPC::HandleMsg<IPC::SyncMessage<IPC::Message<IPC::Id<0u, 32u>, std::array<float, 3ul>, std::array<float, 3ul> >, IPC::Reply<int> >, GameVM::QVMSyscall(int, Util::Reader&, IPC::Channel&)::<lambda(std::array<float, 3ul>, std::array<float, 3ul>, int&)> >
FUNC 7ba00 2fd 0 IPC::HandleMsg<IPC::SyncMessage<IPC::Message<IPC::Id<0u, 22u>, botClass_t>, IPC::Reply<int, int> >, GameVM::QVMSyscall(int, Util::Reader&, IPC::Channel&)::<lambda(botClass_t, int&, int&)> >
FUNC 7bd00 28b 0 IPC::HandleMsg<IPC::SyncMessage<IPC::Message<IPC::Id<0u, 6u>, int, int>, IPC::Reply<std::__cxx11::basic_string<char, std::char_traits<char>, std::allocator<char> > > >, GameVM::QVMSyscall(int, Util::Reader&, IPC::Channel&)::<lambda(int, int, std::__cxx11::string&)> >
FUNC 7bf90 28b 0 IPC::HandleMsg<IPC::SyncMessage<IPC::Message<IPC::Id<0u, 9u>, int, int>, IPC::Reply<std::__cxx11::basic_string<char, std::char_traits<char>, std::allocator<char> > > >, GameVM::QVMSyscall(int, Util::Reader&, IPC::Channel&)::<lambda(int, int, std::__cxx11::string&)> >
FUNC 7c220 28b 0 IPC::HandleMsg<IPC::SyncMessage<IPC::Message<IPC::Id<0u, 17u>, int, int>, IPC::Reply<std::__cxx11::basic_string<char, std::char_traits<char>, std::allocator<char> > > >, GameVM::QVMSyscall(int, Util::Reader&, IPC::Channel&)::<lambda(int, int, std::__cxx11::string&)> >
FUNC 7c4b0 540 0 IPC::HandleMsg<IPC::SyncMessage<IPC::Message<IPC::Id<0u, 18u>, int, std::__cxx11::basic_string<char, std::char_traits<char>, std::allocator<char> >, qtime_t>, IPC::Reply<std::__cxx11::basic_string<char, std::char_traits<char>, std::allocator<char> > > >, GameVM::QVMSyscall(int, Util::Reader&, IPC::Channel&)::<lambda(int, std::__cxx11::string, const qtime_t&, std::__cxx11::string&)> >
FUNC 7c9f0 264 0 IPC::HandleMsg<IPC::SyncMessage<IPC::Message<IPC::Id<0u, 12u> >, IPC::Reply<bool, std::__cxx11::basic_string<char, std::char_traits<char>, std::allocator<char> > > >, GameVM::QVMSyscall(int, Util::Reader&, IPC::Channel&)::<lambda(bool&, std::__cxx11::string&)> >
FUNC 7cc60 485 0 IPC::detail::HandleMsg<GameVM::QVMSyscall(int, Util::Reader&, IPC::Channel&)::<lambda(std::__cxx11::string, int&, std::__cxx11::string&, std::__cxx11::string&)>, IPC::Message<IPC::Id<0u, 15u>, std::__cxx11::basic_string<char, std::char_traits<char>, std::allocator<char> > >, IPC::Reply<int, std::__cxx11::basic_string<char, std::char_traits<char>, std::allocator<char> >, std::__cxx11::basic_string<char, std::char_traits<char>, std::allocator<char> > > >
FUNC 7d0f0 30d 0 IPC::HandleMsg<IPC::SyncMessage<IPC::Message<IPC::Id<0u, 21u>, int, int>, IPC::Reply<int, std::__cxx11::basic_string<char, std::char_traits<char>, std::allocator<char> > > >, GameVM::QVMSyscall(int, Util::Reader&, IPC::Channel&)::<lambda(int, int, int&, std::__cxx11::string&)> >
FUNC 7d400 44 0 SV_GentityNum
FUNC 7d450 49 0 SV_GetServerinfo
FUNC 7d4a0 265 0 IPC::HandleMsg<IPC::SyncMessage<IPC::Message<IPC::Id<0u, 10u>, int>, IPC::Reply<std::__cxx11::basic_string<char, std::char_traits<char>, std::allocator<char> > > >, GameVM::QVMSyscall(int, Util::Reader&, IPC::Channel&)::<lambda(int, std::__cxx11::string&)> >
FUNC 7d710 64 0 SV_GetUsercmd
FUNC 7d780 2b1d 0 GameVM::QVMSyscall
FUNC 802a0 11f 0 GameVM::Syscall
FUNC 803c0 252 0 GameVM::GameVM
FUNC 80620 148 0 GameVM::Start
FUNC 80770 7e 0 GameVM::GameStaticInit
FUNC 807f0 a4 0 GameVM::GameInit
FUNC 808a0 6b 0 SV_InitGameVM
FUNC 80910 2d 0 SV_InitGameProgs
FUNC 80940 15c 0 GameVM::GameShutdown
FUNC 80aa0 2c 0 SV_ShutdownGameProgs
FUNC 80ad0 47 0 SV_RestartGameProgs
FUNC 80b20 112 0 GameVM::GameClientConnect
FUNC 80c40 7c 0 GameVM::GameClientBegin
FUNC 80cc0 7c 0 GameVM::GameClientUserInfoChanged
FUNC 80d40 7c 0 GameVM::GameClientDisconnect
FUNC 80dc0 83 0 GameVM::GameClientCommand
FUNC 80e50 7c 0 GameVM::GameClientThink
FUNC 80ed0 7c 0 GameVM::GameRunFrame
FUNC 80f50 3 0 tinyformat::detail::FormatArg::toIntImpl<unsigned int>
FUNC 80f60 3 0 tinyformat::detail::FormatArg::toIntImpl<IPC::SyncMessage<IPC::Message<IPC::Id<0u, 0u>, int> >::<anonymous enum> >
FUNC 80f70 3 0 tinyformat::detail::FormatArg::toIntImpl<IPC::SyncMessage<IPC::Message<IPC::Id<0u, 1u>, int, int, bool, bool> >::<anonymous enum> >
FUNC 80f80 3 0 tinyformat::detail::FormatArg::toIntImpl<IPC::SyncMessage<IPC::Message<IPC::Id<0u, 2u>, bool> >::<anonymous enum> >
FUNC 80f90 3 0 tinyformat::detail::FormatArg::toIntImpl<IPC::SyncMessage<IPC::Message<IPC::Id<0u, 3u>, int, bool, int>, IPC::Reply<bool, std::__cxx11::basic_string<char, std::char_traits<char>, std::allocator<char> > > >::<anonymous enum> >
FUNC 80fa0 3 0 tinyformat::detail::FormatArg::toIntImpl<IPC::SyncMessage<IPC::Message<IPC::Id<0u, 4u>, int> >::<anonymous enum> >
FUNC 80fb0 3 0 tinyformat::detail::FormatArg::toIntImpl<IPC::SyncMessage<IPC::Message<IPC::Id<0u, 5u>, int> >::<anonymous enum> >
FUNC 80fc0 3 0 tinyformat::detail::FormatArg::toIntImpl<IPC::SyncMessage<IPC::Message<IPC::Id<0u, 6u>, int> >::<anonymous enum> >
FUNC 80fd0 3 0 tinyformat::detail::FormatArg::toIntImpl<IPC::SyncMessage<IPC::Message<IPC::Id<0u, 7u>, int, std::__cxx11::basic_string<char, std::char_traits<char>, std::allocator<char> > > >::<anonymous enum> >
FUNC 80fe0 3 0 tinyformat::detail::FormatArg::toIntImpl<IPC::SyncMessage<IPC::Message<IPC::Id<0u, 8u>, int> >::<anonymous enum> >
FUNC 80ff0 3 0 tinyformat::detail::FormatArg::toIntImpl<IPC::SyncMessage<IPC::Message<IPC::Id<0u, 9u>, int> >::<anonymous enum> >
FUNC 81000 7d 0 Util::Reader::~Reader
FUNC 81080 4d 0 Util::Reader::ReadData
FUNC 810d0 4a 0 Util::Reader::CheckEndRead
FUNC 81120 d6 0 std::_Hashtable<unsigned int, std::pair<unsigned int const, Util::Reader>, std::allocator<std::pair<unsigned int const, Util::Reader> >, std::__detail::_Select1st, std::equal_to<unsigned int>, std::hash<unsigned int>, std::__detail::_Mod_range_hashing, std::__detail::_Default_ranged_hash, std::__detail::_Prime_rehash_policy, std::__detail::_Hashtable_traits<false, false, true> >::~_Hashtable
FUNC 81200 a1 0 std::operator+<char, std::char_traits<char>, std::allocator<char> >
FUNC 812b0 96 0 std::operator+<char, std::char_traits<char>, std::allocator<char> >
FUNC 81350 22 0 Util::Writer::~Writer
FUNC 81380 285 0 std::vector<char, std::allocator<char> >::_M_range_insert<char const*>
FUNC 81610 8f 0 Util::SerializeTraits<std::__cxx11::basic_string<char, std::char_traits<char>, std::allocator<char> >, void>::Write
FUNC 816a0 ed 0 tinyformat::format<int, unsigned int>
FUNC 81790 5d6 0 VM::VMParams::VMParams
FUNC 81d70 c9 0 tinyformat::format<IPC::SyncMessage<IPC::Message<IPC::Id<0u, 0u>, int> >::<anonymous enum> >
FUNC 81e40 698 0 IPC::detail::SendMsg<VM::VMBase::SendMsg(Args&& ...) [with Msg = IPC::SyncMessage<IPC::Message<IPC::Id<0u, 0u>, int> >; Args = {int}]::<lambda(uint32_t, Util::Reader)>&, IPC::Message<IPC::Id<0u, 0u>, int>, IPC::Reply<>, int>
FUNC 824e0 c9 0 tinyformat::format<IPC::SyncMessage<IPC::Message<IPC::Id<0u, 1u>, int, int, bool, bool> >::<anonymous enum> >
FUNC 825b0 700 0 IPC::detail::SendMsg<VM::VMBase::SendMsg(Args&& ...) [with Msg = IPC::SyncMessage<IPC::Message<IPC::Id<0u, 1u>, int, int, bool, bool> >; Args = {int&, int&, bool, bool}]::<lambda(uint32_t, Util::Reader)>&, IPC::Message<IPC::Id<0u, 1u>, int, int, bool, bool>, IPC::Reply<>, int&, int&, bool, bool>
FUNC 82cb0 c9 0 tinyformat::format<IPC::SyncMessage<IPC::Message<IPC::Id<0u, 2u>, bool> >::<anonymous enum> >
FUNC 82d80 698 0 IPC::detail::SendMsg<VM::VMBase::SendMsg(Args&& ...) [with Msg = IPC::SyncMessage<IPC::Message<IPC::Id<0u, 2u>, bool> >; Args = {bool&}]::<lambda(uint32_t, Util::Reader)>&, IPC::Message<IPC::Id<0u, 2u>, bool>, IPC::Reply<>, bool&>
FUNC 83420 c9 0 tinyformat::format<IPC::SyncMessage<IPC::Message<IPC::Id<0u, 3u>, int, bool, int>, IPC::Reply<bool, std::__cxx11::basic_string<char, std::char_traits<char>, std::allocator<char> > > >::<anonymous enum> >
FUNC 834f0 81e 0 IPC::detail::SendMsg<VM::VMBase::SendMsg(Args&& ...) [with Msg = IPC::SyncMessage<IPC::Message<IPC::Id<0u, 3u>, int, bool, int>, IPC::Reply<bool, std::__cxx11::basic_string<char, std::char_traits<char>, std::allocator<char> > > >; Args = {int&, bool&, bool&, bool&, std::__cxx11::basic_string<char, std::char_traits<char>, std::allocator<char> >&}]::<lambda(uint32_t, Util::Reader)>&, IPC::Message<IPC::Id<0u, 3u>, int, bool, int>, IPC::Reply<bool, std::__cxx11::basic_string<char, std::char_traits<char>, std::allocator<char> > >, int&, bool&, bool&, bool&, std::__cxx11::basic_string<char, std::char_traits<char>, std::allocator<char> >&>
FUNC 83d10 c9 0 tinyformat::format<IPC::SyncMessage<IPC::Message<IPC::Id<0u, 4u>, int> >::<anonymous enum> >
FUNC 83de0 698 0 IPC::detail::SendMsg<VM::VMBase::SendMsg(Args&& ...) [with Msg = IPC::SyncMessage<IPC::Message<IPC::Id<0u, 4u>, int> >; Args = {int&}]::<lambda(uint32_t, Util::Reader)>&, IPC::Message<IPC::Id<0u, 4u>, int>, IPC::Reply<>, int&>
FUNC 84480 c9 0 tinyformat::format<IPC::SyncMessage<IPC::Message<IPC::Id<0u, 5u>, int> >::<anonymous enum> >
FUNC 84550 698 0 IPC::detail::SendMsg<VM::VMBase::SendMsg(Args&& ...) [with Msg = IPC::SyncMessage<IPC::Message<IPC::Id<0u, 5u>, int> >; Args = {int&}]::<lambda(uint32_t, Util::Reader)>&, IPC::Message<IPC::Id<0u, 5u>, int>, IPC::Reply<>, int&>
FUNC 84bf0 c9 0 tinyformat::format<IPC::SyncMessage<IPC::Message<IPC::Id<0u, 6u>, int> >::<anonymous enum> >
FUNC 84cc0 698 0 IPC::detail::SendMsg<VM::VMBase::SendMsg(Args&& ...) [with Msg = IPC::SyncMessage<IPC::Message<IPC::Id<0u, 6u>, int> >; Args = {int&}]::<lambda(uint32_t, Util::Reader)>&, IPC::Message<IPC::Id<0u, 6u>, int>, IPC::Reply<>, int&>
FUNC 85360 c9 0 tinyformat::format<IPC::SyncMessage<IPC::Message<IPC::Id<0u, 7u>, int, std::__cxx11::basic_string<char, std::char_traits<char>, std::allocator<char> > > >::<anonymous enum> >
FUNC 85430 6b8 0 IPC::detail::SendMsg<VM::VMBase::SendMsg(Args&& ...) [with Msg = IPC::SyncMessage<IPC::Message<IPC::Id<0u, 7u>, int, std::__cxx11::basic_string<char, std::char_traits<char>, std::allocator<char> > > >; Args = {int&, char const*&}]::<lambda(uint32_t, Util::Reader)>&, IPC::Message<IPC::Id<0u, 7u>, int, std::__cxx11::basic_string<char, std::char_traits<char>, std::allocator<char> > >, IPC::Reply<>, int&, char const*&>
FUNC 85af0 c9 0 tinyformat::format<IPC::SyncMessage<IPC::Message<IPC::Id<0u, 8u>, int> >::<anonymous enum> >
FUNC 85bc0 698 0 IPC::detail::SendMsg<VM::VMBase::SendMsg(Args&& ...) [with Msg = IPC::SyncMessage<IPC::Message<IPC::Id<0u, 8u>, int> >; Args = {int&}]::<lambda(uint32_t, Util::Reader)>&, IPC::Message<IPC::Id<0u, 8u>, int>, IPC::Reply<>, int&>
FUNC 86260 c9 0 tinyformat::format<IPC::SyncMessage<IPC::Message<IPC::Id<0u, 9u>, int> >::<anonymous enum> >
FUNC 86330 698 0 IPC::detail::SendMsg<VM::VMBase::SendMsg(Args&& ...) [with Msg = IPC::SyncMessage<IPC::Message<IPC::Id<0u, 9u>, int> >; Args = {int&}]::<lambda(uint32_t, Util::Reader)>&, IPC::Message<IPC::Id<0u, 9u>, int>, IPC::Reply<>, int&>
FUNC 869d0 da 0 tinyformat::detail::formatTruncated<unsigned int>
FUNC 86ab0 6d 0 tinyformat::detail::FormatArg::formatImpl<unsigned int>
FUNC 86b20 da 0 tinyformat::detail::formatTruncated<IPC::SyncMessage<IPC::Message<IPC::Id<0u, 9u>, int> >::<anonymous enum> >
FUNC 86c00 6d 0 tinyformat::detail::FormatArg::formatImpl<IPC::SyncMessage<IPC::Message<IPC::Id<0u, 2u>, bool> >::<anonymous enum> >
FUNC 86c70 6d 0 tinyformat::detail::FormatArg::formatImpl<IPC::SyncMessage<IPC::Message<IPC::Id<0u, 0u>, int> >::<anonymous enum> >
FUNC 86ce0 6d 0 tinyformat::detail::FormatArg::formatImpl<IPC::SyncMessage<IPC::Message<IPC::Id<0u, 3u>, int, bool, int>, IPC::Reply<bool, std::__cxx11::basic_string<char, std::char_traits<char>, std::allocator<char> > > >::<anonymous enum> >
FUNC 86d50 6d 0 tinyformat::detail::FormatArg::formatImpl<IPC::SyncMessage<IPC::Message<IPC::Id<0u, 4u>, int> >::<anonymous enum> >
FUNC 86dc0 6d 0 tinyformat::detail::FormatArg::formatImpl<IPC::SyncMessage<IPC::Message<IPC::Id<0u, 5u>, int> >::<anonymous enum> >
FUNC 86e30 6d 0 tinyformat::detail::FormatArg::formatImpl<IPC::SyncMessage<IPC::Message<IPC::Id<0u, 6u>, int> >::<anonymous enum> >
FUNC 86ea0 6d 0 tinyformat::detail::FormatArg::formatImpl<IPC::SyncMessage<IPC::Message<IPC::Id<0u, 7u>, int, std::__cxx11::basic_string<char, std::char_traits<char>, std::allocator<char> > > >::<anonymous enum> >
FUNC 86f10 6d 0 tinyformat::detail::FormatArg::formatImpl<IPC::SyncMessage<IPC::Message<IPC::Id<0u, 8u>, int> >::<anonymous enum> >
FUNC 86f80 6d 0 tinyformat::detail::FormatArg::formatImpl<IPC::SyncMessage<IPC::Message<IPC::Id<0u, 9u>, int> >::<anonymous enum> >
FUNC 86ff0 6d 0 tinyformat::detail::FormatArg::formatImpl<IPC::SyncMessage<IPC::Message<IPC::Id<0u, 1u>, int, int, bool, bool> >::<anonymous enum> >
FUNC 87060 8d 0 SV_RateMsec
FUNC 870f0 59 0 SV_AddEntToSnapshot
FUNC 87150 23 0 SV_QsortEntityNumbers
FUNC 87180 c2 0 std::__cxx11::basic_string<char, std::char_traits<char>, std::allocator<char> >::_M_construct<char*>
FUNC 87250 6b 0 SV_UpdateServerCommandsToClient
FUNC 872c0 144 0 SV_SendMessageToClient
FUNC 87410 590 0 SV_AddEntitiesVisibleFromPoint
FUNC 879a0 ed 0 SV_SendClientIdle
FUNC 87a90 772 0 SV_SendClientSnapshot
FUNC 88210 2c3 0 SV_SendClientMessages
FUNC 884e0 dc5 0 Log::Logger::Debug<float, float&, int&, float&, int&, float&, float>
FUNC 892b0 c2 0 std::__cxx11::basic_string<char, std::char_traits<char>, std::allocator<char> >::_M_construct<char*>
FUNC 89380 9e 0 std::__cxx11::basic_string<char, std::char_traits<char>, std::allocator<char> >::_M_construct<__gnu_cxx::__normal_iterator<unsigned char const*, std::vector<unsigned char> > >
FUNC 89420 f 0 Challenge::Timeout
FUNC 89430 8 0 Challenge::Bytes
FUNC 89440 111 0 Challenge::GenerateString
FUNC 89560 8 0 ChallengeManager::MaxChallenges
FUNC 89570 196 0 ChallengeManager::Clear
FUNC 89710 43e 0 Cleanup
FUNC 89b50 1c0 0 ChallengeManager::Push
FUNC 89d10 22c 0 ChallengeManager::GenerateChallenge
FUNC 89f40 7c9 0 ChallengeManager::Match
FUNC 8a710 22e 0 ChallengeManager::MatchString
FUNC 8a940 3d 0 Challenge::ValidString
FUNC 8a980 20 0 Str::cisxdigit
FUNC 8a9a0 52 0 Cvar::Range<Cvar::Cvar<long unsigned int> >::~Range
FUNC 8aa00 57 0 Cvar::Cvar<long unsigned int>::~Cvar
FUNC 8aa60 52 0 Cvar::Cvar<long unsigned int>::~Cvar
FUNC 8aac0 57 0 Cvar::Range<Cvar::Cvar<long unsigned int> >::~Range
FUNC 8ab20 158 0 std::deque<Challenge, std::allocator<Challenge> >::~deque
FUNC 8ac80 1f 0 Cvar::Cvar<long unsigned int>::GetAdditionalDescription
FUNC 8aca0 27 0 Cvar::Cvar<long unsigned int>::Validate
FUNC 8acd0 e7c 0 std::deque<Challenge, std::allocator<Challenge> >::_M_erase
FUNC 8bb50 44 0 std::deque<Challenge, std::allocator<Challenge> >::_M_pop_front_aux
FUNC 8bba0 2bd 0 std::deque<Challenge, std::allocator<Challenge> >::_M_push_back_aux<const Challenge&>
FUNC 8be60 89d 0 std::deque<Challenge, std::allocator<Challenge> >::_M_erase
FUNC 8c700 182 0 std::_Deque_base<Challenge, std::allocator<Challenge> >::_M_initialize_map
FUNC 8c890 10f 0 std::__find_if<__gnu_cxx::__normal_iterator<char const*, std::__cxx11::basic_string<char> >, __gnu_cxx::__ops::_Iter_negate<bool (*)(int)> >
FUNC 8c9a0 d7 0 Cvar::Cvar<long unsigned int>::GetDescription
FUNC 8ca80 348 0 Cvar::Range<Cvar::Cvar<long unsigned int> >::Range<>
FUNC 8cdd0 15c 0 Cvar::Range<Cvar::Cvar<long unsigned int> >::Validate
FUNC 8cf30 1ab 0 Cvar::Cvar<long unsigned int>::OnValueChanged
FUNC 8d0e0 da 0 Cvar::Range<Cvar::Cvar<long unsigned int> >::GetAdditionalDescription
FUNC 8d1c0 3 0 Keyboard::StringToKey
FUNC 8d1d0 39 0 Keyboard::KeyToString
FUNC 8d210 3 0 Keyboard::GetCharForScancode
FUNC 8d220 3 0 Keyboard::ScancodeToAscii
FUNC 8d230 2 0 Keyboard::CompleteKeyName
FUNC 8d240 3 0 Keyboard::IsDown
FUNC 8d250 2 0 Keyboard::SetBinding
FUNC 8d260 8 0 Keyboard::GetBinding
FUNC 8d270 1b 0 Keyboard::GetKeysBoundTo
FUNC 8d290 7f 0 Keyboard::GetConsoleKeys
FUNC 8d310 2 0 Keyboard::SetConsoleKeys
FUNC 8d340 3 0 Keyboard::GetTeam
FUNC 8d350 3 0 Keyboard::AnyKeyDown
FUNC 8d370 2 0 Field_Draw
FUNC 8d380 2 0 Field_KeyDownEvent
FUNC 8d390 2 0 Field_CharEvent
FUNC 8d3a0 3 0 Key_GetKeyNumber
FUNC 8d3b0 3 0 Key_GetKeyTime
FUNC 8d3e0 2 0 CL_KeyEvent
FUNC 8d3f0 2 0 CL_CharEvent
FUNC 8d400 2 0 Key_ClearStates
FUNC 8d410 12 0 std::vector<Keyboard::Key, std::allocator<Keyboard::Key> >::~vector
FUNC 8d430 c2 0 std::__cxx11::basic_string<char, std::char_traits<char>, std::allocator<char> >::_M_construct<char*>
FUNC 8d510 28 0 CL_Init
FUNC 8d560 2 0 CL_FocusEvent
FUNC 8d570 2 0 CL_Frame
FUNC 8d580 2 0 CL_PacketEvent
FUNC 8d5a0 2 0 CL_ConsolePrint
FUNC 8d5b0 2 0 CL_JoystickEvent
FUNC 8d5c0 2 0 CL_ShutdownAll
FUNC 8d5d0 2b 0 CL_ForwardCommandToServer
FUNC 8d600 2 0 IN_Init
FUNC 8d660 2 0 IN_DropInputsForFrame
FUNC 8d670 3 0 IN_IsNumLockDown
FUNC 8d680 2 0 IN_SetMouseMode
FUNC 8d690 c2 0 std::__cxx11::basic_string<char, std::char_traits<char>, std::allocator<char> >::_M_construct<char*>
FUNC 8d760 ec 0 Application::GetApp
FUNC 8d850 22 0 Application::ServerApplication::~ServerApplication
FUNC 8d880 29 0 Application::ServerApplication::~ServerApplication
FUNC 8d8b0 5 0 Application::ServerApplication::Frame
FUNC 8d8c0 5 0 Application::ServerApplication::Initialize
FUNC 8d8d0 27 0 Application::ServerApplication::LoadInitialConfig
FUNC 8d900 c4a 0 tinyformat::format<char const*, Str::BasicStringRef<char> >
FUNC 8e550 b7 0 Application::ServerApplication::OnDrop
FUNC 8e610 c1a 0 tinyformat::format<Str::BasicStringRef<char> >
FUNC 8f230 f4 0 Application::ServerApplication::Shutdown
FUNC 8f330 b6 0 Cmd::SkipSpaces
FUNC 8f3f0 1b 0 Cmd::CmdBase::Complete
FUNC 8f410 17 0 Cmd::LambdaCmd::Run
FUNC 8f430 65 0 Cmd::LambdaCmd::Complete
FUNC 8f4a0 c2 0 std::__cxx11::basic_string<char, std::char_traits<char>, std::allocator<char> >::_M_construct<char*>
FUNC 8f570 3b6 0 Cmd::Escape
FUNC 8f930 139 0 Cmd::SplitCommand
FUNC 8fa70 3c2 0 Cmd::SubstituteCvars
FUNC 8fe40 4d 0 Cmd::IsValidCvarName
FUNC 8fe90 78 0 Cmd::IsValidCmdName
FUNC 8ff10 af 0 Cmd::IsSwitch
FUNC 8ffc0 18 0 Cmd::Args::Args
FUNC 8ffe0 45 0 Cmd::Args::Args
FUNC 90050 159 0 Cmd::Args::EscapedArgs
FUNC 901b0 d9 0 Cmd::Args::ConcatArgs
FUNC 90290 4 0 Cmd::Args::ArgVector
FUNC 902a0 c 0 Cmd::Args::size
FUNC 902b0 b 0 Cmd::Args::operator[]
FUNC 902c0 4 0 Cmd::Args::begin
FUNC 902d0 5 0 Cmd::Args::end
FUNC 902e0 e 0 Cmd::CmdBase::CmdBase
FUNC 902f0 4 0 Cmd::CmdBase::GetFlags
FUNC 90300 2b 0 Cmd::CmdBase::ExecuteAfter
FUNC 90330 5 0 Cmd::CmdBase::GetEnv
FUNC 90340 d6 0 Cmd::StaticCmd::StaticCmd
FUNC 90420 d6 0 Cmd::StaticCmd::StaticCmd
FUNC 90500 1b 0 Cmd::NoopComplete
FUNC 90520 1ad 0 Cmd::LambdaCmd::LambdaCmd
FUNC 906d0 1ad 0 Cmd::LambdaCmd::LambdaCmd
FUNC 90880 458 0 Cmd::Args::Args
FUNC 90ce0 12e 0 Cmd::CmdBase::PrintUsage
FUNC 90e10 24c 0 Cmd::AddToCompletion
FUNC 91060 85 0 Cmd::FilterCompletion
FUNC 910f0 42 0 Cmd::LambdaCmd::~LambdaCmd
FUNC 91140 45 0 Cmd::LambdaCmd::~LambdaCmd
FUNC 91190 5d 0 std::function<void(const Cmd::Args&)>::function
FUNC 911f0 5d 0 std::function<std::vector<std::pair<std::__cxx11::basic_string<char, std::char_traits<char>, std::allocator<char> >, std::__cxx11::basic_string<char, std::char_traits<char>, std::allocator<char> > >, std::allocator<std::pair<std::__cxx11::basic_string<char, std::char_traits<char>, std::allocator<char> >, std::__cxx11::basic_string<char, std::char_traits<char>, std::allocator<char> > > > >(int, const Cmd::Args&, Str::BasicStringRef<char>)>::function
FUNC 91250 c6a 0 tinyformat::format<char [6], char const*, char const*>
FUNC 91ec0 caf 0 tinyformat::format<char [6], char const*, char const*, char const*>
FUNC 92b70 c2 0 std::__cxx11::basic_string<char, std::char_traits<char>, std::allocator<char> >::_M_construct<char*>
FUNC 92c40 aa 0 Cvar::CvarProxy::CvarProxy
FUNC 92cf0 9 0 Cvar::CvarProxy::SetValue
FUNC 92d00 ce 0 Cvar::CvarProxy::Register
FUNC 92dd0 2dc 0 Cvar::ParseCvarValue
FUNC 930b0 46 0 Cvar::SerializeCvarValue
FUNC 93100 23 0 Cvar::GetCvarTypeName<bool>
FUNC 93130 14 0 Cvar::ParseCvarValue
FUNC 93150 23 0 Cvar::GetCvarTypeName<int>
FUNC 93180 5 0 Cvar::ParseCvarValue
FUNC 93190 23 0 Cvar::GetCvarTypeName<float>
FUNC 931c0 1c 0 Cvar::ParseCvarValue
FUNC 931e0 52 0 Cvar::SerializeCvarValue
FUNC 93240 23 0 Cvar::GetCvarTypeName<std::__cxx11::basic_string<char> >
FUNC 93270 23 0 Cvar::GetCvarTypeName<long unsigned int>
FUNC 932a0 fa 0 Cvar::ParseCvarValue
FUNC 933a0 51 0 Cvar::SerializeCvarValue
FUNC 93400 57 0 Cvar::SerializeCvarValue
FUNC 93460 51 0 Cvar::SerializeCvarValue
FUNC 93500 2 0 std::_Sp_counted_deleter<__dirstream*, FS::RawPath::ListFiles(Str::StringRef, std::error_code&)::<lambda(DIR*)>, std::allocator<void>, (__gnu_cxx::_Lock_policy)2u>::~_Sp_counted_deleter
FUNC 93530 5 0 std::_Sp_counted_deleter<__dirstream*, FS::RawPath::ListFiles(Str::StringRef, std::error_code&)::<lambda(DIR*)>, std::allocator<void>, (__gnu_cxx::_Lock_policy)2u>::~_Sp_counted_deleter
FUNC 93540 5 0 std::_Sp_counted_deleter<__dirstream*, FS::RawPath::ListFiles(Str::StringRef, std::error_code&)::<lambda(DIR*)>, std::allocator<void>, (__gnu_cxx::_Lock_policy)2u>::_M_destroy
FUNC 93550 df 0 FS::SetErrorCode
FUNC 93630 29 0 FS::SetErrorCodeSystem
FUNC 93660 5e 0 FS::minizip_category
FUNC 936c0 35 0 FS::SetErrorCodeZlib
FUNC 93700 15c 0 FS::::ZipArchive::Open
FUNC 93860 5e 0 FS::filesystem_category
FUNC 938c0 29 0 std::_Sp_counted_deleter<__dirstream*, FS::RawPath::ListFiles(Str::StringRef, std::error_code&)::<lambda(DIR*)>, std::allocator<void>, (__gnu_cxx::_Lock_policy)2u>::_M_get_deleter
FUNC 938f0 9 0 std::_Sp_counted_deleter<__dirstream*, FS::RawPath::ListFiles(Str::StringRef, std::error_code&)::<lambda(DIR*)>, std::allocator<void>, (__gnu_cxx::_Lock_policy)2u>::_M_dispose
FUNC 93970 a0 0 FS::::ZipArchive::ReadFile
FUNC 93a10 3d 0 std::__detail::_Hashtable_alloc<std::allocator<std::__detail::_Hash_node<std::pair<const std::__cxx11::basic_string<char, std::char_traits<char>, std::allocator<char> >, std::pair<unsigned int, long int> >, true> > >::_M_deallocate_nodes
FUNC 93a50 c2 0 std::__cxx11::basic_string<char, std::char_traits<char>, std::allocator<char> >::_M_construct<char*>
FUNC 93b20 3c 0 std::__cxx11::basic_string<char, std::char_traits<char>, std::allocator<char> >::basic_string
FUNC 93b60 44 0 std::__detail::_Hashtable_alloc<std::allocator<std::__detail::_Hash_node<std::pair<const std::__cxx11::basic_string<char, std::char_traits<char>, std::allocator<char> >, std::pair<unsigned int, long int> >, true> > >::_M_allocate_buckets
FUNC 93bb0 253 0 FS::VersionCmp
FUNC 94060 167 0 std::__upper_bound<__gnu_cxx::__normal_iterator<FS::PakInfo*, std::vector<FS::PakInfo> >, FS::PakInfo, __gnu_cxx::__ops::_Val_comp_iter<FS::RefreshPaks()::<lambda(const FS::PakInfo&, const FS::PakInfo&)> > >
FUNC 941d0 179 0 std::__lower_bound<__gnu_cxx::__normal_iterator<FS::PakInfo*, std::vector<FS::PakInfo> >, FS::PakInfo, __gnu_cxx::__ops::_Iter_comp_val<FS::RefreshPaks()::<lambda(const FS::PakInfo&, const FS::PakInfo&)> > >
FUNC 94350 de 0 FS::GetRealPath
FUNC 94430 924 0 std::__insertion_sort<__gnu_cxx::__normal_iterator<FS::PakInfo*, std::vector<FS::PakInfo> >, __gnu_cxx::__ops::_Iter_comp_iter<FS::RefreshPaks()::<lambda(const FS::PakInfo&, const FS::PakInfo&)> > >
FUNC 94d60 38c 0 std::__move_merge<FS::PakInfo*, __gnu_cxx::__normal_iterator<FS::PakInfo*, std::vector<FS::PakInfo> >, __gnu_cxx::__ops::_Iter_comp_iter<FS::RefreshPaks()::<lambda(const FS::PakInfo&, const FS::PakInfo&)> > >
FUNC 950f0 3ac 0 std::__move_merge<__gnu_cxx::__normal_iterator<FS::PakInfo*, std::vector<FS::PakInfo> >, FS::PakInfo*, __gnu_cxx::__ops::_Iter_comp_iter<FS::RefreshPaks()::<lambda(const FS::PakInfo&, const FS::PakInfo&)> > >
FUNC 954a0 293 0 std::__merge_sort_with_buffer<__gnu_cxx::__normal_iterator<FS::PakInfo*, std::vector<FS::PakInfo> >, FS::PakInfo*, __gnu_cxx::__ops::_Iter_comp_iter<FS::RefreshPaks()::<lambda(const FS::PakInfo&, const FS::PakInfo&)> > >
FUNC 95740 8 0 FS::UseLegacyPaks
FUNC 95750 9e 0 FS::Path::IsValid
FUNC 957f0 1e8 0 FS::Path::Build
FUNC 959e0 78 0 FS::Path::DirName
FUNC 95a60 91 0 FS::Path::BaseName
FUNC 95b00 86 0 FS::Path::Extension
FUNC 95b90 a6 0 FS::Path::StripExtension
FUNC 95c40 b1 0 FS::Path::BaseNameStripExtension
FUNC 95d00 49 0 FS::File::Close
FUNC 95d50 89 0 FS::File::Length
FUNC 95de0 a1 0 FS::File::Timestamp
FUNC 95e90 41 0 FS::File::SeekCur
FUNC 95ee0 39 0 FS::File::SeekSet
FUNC 95f20 41 0 FS::File::SeekEnd
FUNC 95f70 8 0 FS::File::Tell
FUNC 95f80 7e 0 FS::File::Read
FUNC 96000 5e 0 FS::File::Write
FUNC 96060 39 0 FS::File::Flush
FUNC 960a0 97 0 FS::File::ReadAll
FUNC 96140 8b 0 FS::File::CopyTo
FUNC 961d0 49 0 FS::File::SetLineBuffered
FUNC 96220 8 0 FS::PakPath::GetLoadedPaks
FUNC 96230 27c 0 FS::PakPath::DirectoryRange::InternalAdvance
FUNC 964b0 41 0 FS::PakPath::DirectoryRange::Advance
FUNC 96500 196 0 FS::PakPath::ListFiles
FUNC 966a0 196 0 FS::PakPath::ListFilesRecursive
FUNC 96840 1bd 0 FS::RawPath::CreatePathTo
FUNC 96a00 2c5 0 FS::RawPath::OpenMode
FUNC 96cd0 e9 0 FS::HomePath::OpenMode
FUNC 96dc0 40 0 FS::RawPath::OpenRead
FUNC 96e00 43 0 FS::RawPath::OpenWrite
FUNC 96e50 43 0 FS::RawPath::OpenAppend
FUNC 96ea0 43 0 FS::RawPath::OpenEdit
FUNC 96ef0 4f 0 FS::RawPath::FileExists
FUNC 96f40 91 0 FS::RawPath::FileTimestamp
FUNC 96fe0 39 0 FS::RawPath::DeleteFile
FUNC 97020 179 0 FS::RawPath::MoveFile
FUNC 971a0 21a 0 FS::RawPath::DirectoryRange::Advance
FUNC 973c0 375 0 FS::RawPath::ListFiles
FUNC 97740 40 0 FS::HomePath::OpenRead
FUNC 97780 43 0 FS::HomePath::OpenWrite
FUNC 977d0 43 0 FS::HomePath::OpenAppend
FUNC 97820 43 0 FS::HomePath::OpenEdit
FUNC 97870 ad 0 FS::HomePath::FileExists
FUNC 97920 d4 0 FS::HomePath::FileTimestamp
FUNC 97a00 160 0 FS::HomePath::MoveFile
FUNC 97b60 c9 0 FS::HomePath::DeleteFile
FUNC 97c30 f5 0 FS::HomePath::ListFiles
FUNC 97d30 b0 0 FS::DefaultBasePath
FUNC 97de0 24c 0 FS::DefaultHomePath
FUNC 98030 7 0 FS::FlushAll
FUNC 98040 8 0 FS::IsInitialized
FUNC 98050 129 0 FS::FindPak
FUNC 98180 184 0 FS::FindPak
FUNC 98310 8 0 FS::GetAvailablePaks
FUNC 98320 8 0 FS::GetHomePath
FUNC 98330 8 0 FS::GetLibPath
FUNC 98340 311 0 FS::FindPak
FUNC 98660 ba 0 FS::MakePakName
FUNC 98720 176 0 FS::GetAvailableMapPaks
FUNC 988a0 df8 0 IPC::detail::HandleMsg<FS::HandleFileSystemSyscall(int, Util::Reader&, IPC::Channel&, Str::StringRef)::<lambda(std::__cxx11::string&, std::__cxx11::string&, std::vector<FS::PakInfo>&, std::vector<FS::LoadedPakInfo>&, std::unordered_map<std::__cxx11::basic_string<char>, std::pair<unsigned int, long int> >&)>, IPC::Message<IPC::Id<6u, 0u> >, IPC::Reply<std::__cxx11::basic_string<char, std::char_traits<char>, std::allocator<char> >, std::__cxx11::basic_string<char, std::char_traits<char>, std::allocator<char> >, std::vector<FS::PakInfo, std::allocator<FS::PakInfo> >, std::vector<FS::LoadedPakInfo, std::allocator<FS::LoadedPakInfo> >, std::unordered_map<std::__cxx11::basic_string<char, std::char_traits<char>, std::allocator<char> >, std::pair<unsigned int, long int>, std::hash<std::__cxx11::basic_string<char, std::char_traits<char>, std::allocator<char> > >, std::equal_to<std::__cxx11::basic_string<char, std::char_traits<char>, std::allocator<char> > >, std::allocator<std::pair<const std::__cxx11::basic_string<char, std::char_traits<char>, std::allocator<char> >, std::pair<unsigned int, long int> > > > > >
FUNC 996a0 87a 0 FS::::ZipArchive::OpenFileWithSymlinkResolution
FUNC 99f20 3b9 0 FS::ParsePakName
FUNC 9a2e0 2c5 0 FS::RawPath::RecursiveDirectoryRange::Advance
FUNC 9a5b0 442 0 FS::RawPath::ListFilesRecursive
FUNC 9aa00 f5 0 FS::HomePath::ListFilesRecursive
FUNC 9ab00 3fd 0 FS::AddPak
FUNC 9af00 4b7 0 FS::FindPaksInPath
FUNC 9b3c0 3ec 0 FS::PakPath::ReadFile
FUNC 9b7b0 460 0 FS::PakPath::CopyFile
FUNC 9bc10 6f 0 FS::PakPath::FileExists
FUNC 9bc80 89 0 FS::PakPath::LocateFile
FUNC 9bd10 13f 0 FS::PakPath::FileTimestamp
FUNC 9be50 850 0 FS::PakPath::CompleteFilename
FUNC 9c6a0 6fd 0 FS::HomePath::CompleteFilename
FUNC 9cda0 3de 0 FS::::ZipArchive::ForEachFile<FS::PakPath::InternalLoadPak(const FS::PakInfo&, Util::optional<unsigned int>, Str::StringRef, std::error_code&)::<lambda(Str::StringRef, FS::offset_t, uint32_t)> >
FUNC 9d180 1293 0 FS::PakPath::InternalLoadPak
FUNC 9e420 47 0 FS::PakPath::LoadPak
FUNC 9e470 4a 0 FS::PakPath::LoadPakPrefix
FUNC 9e4c0 4a 0 FS::PakPath::LoadPakExplicit
FUNC 9e510 3373 0 FS::HandleFileSystemSyscall
FUNC a1890 1d7 0 std::__merge_without_buffer<__gnu_cxx::__normal_iterator<FS::PakInfo*, std::vector<FS::PakInfo> >, long int, __gnu_cxx::__ops::_Iter_comp_iter<FS::RefreshPaks()::<lambda(const FS::PakInfo&, const FS::PakInfo&)> > >
FUNC a1a70 c3 0 std::__inplace_stable_sort<__gnu_cxx::__normal_iterator<FS::PakInfo*, std::vector<FS::PakInfo> >, __gnu_cxx::__ops::_Iter_comp_iter<FS::RefreshPaks()::<lambda(const FS::PakInfo&, const FS::PakInfo&)> > >
FUNC a1b40 4e6 0 std::__merge_adaptive<__gnu_cxx::__normal_iterator<FS::PakInfo*, std::vector<FS::PakInfo> >, long int, FS::PakInfo*, __gnu_cxx::__ops::_Iter_comp_iter<FS::RefreshPaks()::<lambda(const FS::PakInfo&, const FS::PakInfo&)> > >
FUNC a2030 fd 0 std::__stable_sort_adaptive<__gnu_cxx::__normal_iterator<FS::PakInfo*, std::vector<FS::PakInfo> >, FS::PakInfo*, long int, __gnu_cxx::__ops::_Iter_comp_iter<FS::RefreshPaks()::<lambda(const FS::PakInfo&, const FS::PakInfo&)> > >
FUNC a2130 338 0 FS::RefreshPaks
FUNC a2470 1d5 0 FS::PakPath::ClearPaks
FUNC a2650 737 0 FS::Initialize
FUNC a2d90 58b 0 FS::GetAvailableMaps
FUNC a3320 8 0 FS::minizip_category_impl::name
FUNC a3330 8 0 FS::filesystem_category_impl::name
FUNC a3340 12 0 std::_Sp_counted_base<(__gnu_cxx::_Lock_policy)2u>::_M_destroy
FUNC a3360 43 0 FS::PakPath::LoadedPakGuard::~LoadedPakGuard
FUNC a33b0 f 0 FS::minizip_category_impl::~minizip_category_impl
FUNC a33c0 1c 0 FS::minizip_category_impl::~minizip_category_impl
FUNC a33e0 f 0 FS::filesystem_category_impl::~filesystem_category_impl
FUNC a33f0 1c 0 FS::filesystem_category_impl::~filesystem_category_impl
FUNC a3410 f 0 Util::bad_optional_access::~bad_optional_access
FUNC a3420 1c 0 Util::bad_optional_access::~bad_optional_access
FUNC a3440 dc 0 FS::filesystem_category_impl::message
FUNC a3520 e1 0 FS::minizip_category_impl::message
FUNC a3610 9e 0 tinyformat::detail::FormatArg::formatImpl<char [5]>
FUNC a36b0 75 0 std::vector<FS::PakInfo, std::allocator<FS::PakInfo> >::~vector
FUNC a3730 95 0 std::vector<FS::LoadedPakInfo, std::allocator<FS::LoadedPakInfo> >::~vector
FUNC a37d0 8d 0 tinyformat::detail::FormatArg::toIntImpl<char [5]>
FUNC a3860 42 0 FS::PakInfo::~PakInfo
FUNC a38b0 10a 0 FS::PakInfo::PakInfo
FUNC a39c0 5a 0 FS::LoadedPakInfo::~LoadedPakInfo
FUNC a3a20 11b 0 FS::RawPath::RecursiveDirectoryRange::~RecursiveDirectoryRange
FUNC a3b40 19d 0 Log::Logger::Warn<Str::BasicStringRef<char>&, int&>
FUNC a3ce0 19d 0 Log::Logger::Warn<int&, std::__cxx11::basic_string<char, std::char_traits<char>, std::allocator<char> > >
FUNC a3e80 33 0 std::operator==<char>
FUNC a3ec0 19d 0 Log::Logger::Warn<const std::__cxx11::basic_string<char, std::char_traits<char>, std::allocator<char> >&, std::__cxx11::basic_string<char, std::char_traits<char>, std::allocator<char> >&>
FUNC a4060 3b 0 Str::BasicStringRef<char>::compare
FUNC a40a0 4d9 0 std::vector<FS::PakInfo, std::allocator<FS::PakInfo> >::operator=
FUNC a4580 6e6 0 std::vector<FS::LoadedPakInfo, std::allocator<FS::LoadedPakInfo> >::operator=
FUNC a4c70 19d 0 Log::Logger::Warn<std::__cxx11::basic_string<char, std::char_traits<char>, std::allocator<char> >&, char const*>
FUNC a4e10 f2 0 std::vector<IPC::FileDesc, std::allocator<IPC::FileDesc> >::_M_emplace_back_aux<const IPC::FileDesc&>
FUNC a4f10 35 0 std::_Hashtable<std::__cxx11::basic_string<char, std::char_traits<char>, std::allocator<char> >, std::pair<const std::__cxx11::basic_string<char, std::char_traits<char>, std::allocator<char> >, std::pair<unsigned int, long int> >, std::allocator<std::pair<const std::__cxx11::basic_string<char, std::char_traits<char>, std::allocator<char> >, std::pair<unsigned int, long int> > >, std::__detail::_Select1st, std::equal_to<std::__cxx11::basic_string<char, std::char_traits<char>, std::allocator<char> > >, std::hash<std::__cxx11::basic_string<char, std::char_traits<char>, std::allocator<char> > >, std::__detail::_Mod_range_hashing, std::__detail::_Default_ranged_hash, std::__detail::_Prime_rehash_policy, std::__detail::_Hashtable_traits<true, false, true> >::clear
FUNC a4f50 22 0 std::_Hashtable<std::__cxx11::basic_string<char, std::char_traits<char>, std::allocator<char> >, std::pair<const std::__cxx11::basic_string<char, std::char_traits<char>, std::allocator<char> >, std::pair<unsigned int, long int> >, std::allocator<std::pair<const std::__cxx11::basic_string<char, std::char_traits<char>, std::allocator<char> >, std::pair<unsigned int, long int> > >, std::__detail::_Select1st, std::equal_to<std::__cxx11::basic_string<char, std::char_traits<char>, std::allocator<char> > >, std::hash<std::__cxx11::basic_string<char, std::char_traits<char>, std::allocator<char> > >, std::__detail::_Mod_range_hashing, std::__detail::_Default_ranged_hash, std::__detail::_Prime_rehash_policy, std::__detail::_Hashtable_traits<true, false, true> >::~_Hashtable
FUNC a4f80 5 0 std::unordered_map<std::__cxx11::basic_string<char, std::char_traits<char>, std::allocator<char> >, std::pair<unsigned int, long int>, std::hash<std::__cxx11::basic_string<char, std::char_traits<char>, std::allocator<char> > >, std::equal_to<std::__cxx11::basic_string<char, std::char_traits<char>, std::allocator<char> > >, std::allocator<std::pair<const std::__cxx11::basic_string<char, std::char_traits<char>, std::allocator<char> >, std::pair<unsigned int, long int> > > >::~unordered_map
FUNC a4f90 3bd 0 std::vector<FS::LoadedPakInfo, std::allocator<FS::LoadedPakInfo> >::_M_emplace_back_aux<>
FUNC a5350 211 0 std::vector<std::__cxx11::basic_string<char, std::char_traits<char>, std::allocator<char> >, std::allocator<std::__cxx11::basic_string<char, std::char_traits<char>, std::allocator<char> > > >::_M_emplace_back_aux<const std::__cxx11::basic_string<char, std::char_traits<char>, std::allocator<char> >&>
FUNC a5570 1cc 0 tinyformat::format<Str::BasicStringRef<char>, Str::BasicStringRef<char>, unsigned int, char [5]>
FUNC a5740 18f 0 tinyformat::format<Str::BasicStringRef<char>, Str::BasicStringRef<char>, char [5]>
FUNC a58d0 16b 0 tinyformat::format<Str::BasicStringRef<char>, char [5]>
FUNC a5a40 3d9 0 std::vector<FS::PakInfo, std::allocator<FS::PakInfo> >::_M_emplace_back_aux<const FS::PakInfo&>
FUNC a5e20 78 0 std::__detail::_Hashtable_alloc<std::allocator<std::__detail::_Hash_node<std::pair<const std::__cxx11::basic_string<char, std::char_traits<char>, std::allocator<char> >, std::pair<unsigned int, long int> >, true> > >::_M_allocate_node<const std::pair<const std::__cxx11::basic_string<char, std::char_traits<char>, std::allocator<char> >, std::pair<unsigned int, long int> >&>
FUNC a5ea0 27d 0 std::_Hashtable<std::__cxx11::basic_string<char, std::char_traits<char>, std::allocator<char> >, std::pair<const std::__cxx11::basic_string<char, std::char_traits<char>, std::allocator<char> >, std::pair<unsigned int, long int> >, std::allocator<std::pair<const std::__cxx11::basic_string<char, std::char_traits<char>, std::allocator<char> >, std::pair<unsigned int, long int> > >, std::__detail::_Select1st, std::equal_to<std::__cxx11::basic_string<char, std::char_traits<char>, std::allocator<char> > >, std::hash<std::__cxx11::basic_string<char, std::char_traits<char>, std::allocator<char> > >, std::__detail::_Mod_range_hashing, std::__detail::_Default_ranged_hash, std::__detail::_Prime_rehash_policy, std::__detail::_Hashtable_traits<true, false, true> >::_M_assign<std::_Hashtable<_Key, _Value, _Alloc, _ExtractKey, _Equal, _H1, _H2, _Hash, _RehashPolicy, _Traits>::operator=(const std::_Hashtable<_Key, _Value, _Alloc, _ExtractKey, _Equal, _H1, _H2, _Hash, _RehashPolicy, _Traits>&) [with _Key = std::__cxx11::basic_string<char>; _Value = std::pair<const std::__cxx11::basic_string<char>, std::pair<unsigned int, long int> >; _Alloc = std::allocator<std::pair<const std::__cxx11::basic_string<char>, std::pair<unsigned int, long int> > >; _ExtractKey = std::__detail::_Select1st; _Equal = std::equal_to<std::__cxx11::basic_string<char> >; _H1 = std::hash<std::__cxx11::basic_string<char> >; _H2 = std::__detail::_Mod_range_hashing; _Hash = std::__detail::_Default_ranged_hash; _RehashPolicy = std::__detail::_Prime_rehash_policy; _Traits = std::__detail::_Hashtable_traits<true, false, true>]::<lambda(const __node_type*)> >
FUNC a6120 17f 0 std::_Hashtable<std::__cxx11::basic_string<char, std::char_traits<char>, std::allocator<char> >, std::pair<const std::__cxx11::basic_string<char, std::char_traits<char>, std::allocator<char> >, std::pair<unsigned int, long int> >, std::allocator<std::pair<const std::__cxx11::basic_string<char, std::char_traits<char>, std::allocator<char> >, std::pair<unsigned int, long int> > >, std::__detail::_Select1st, std::equal_to<std::__cxx11::basic_string<char, std::char_traits<char>, std::allocator<char> > >, std::hash<std::__cxx11::basic_string<char, std::char_traits<char>, std::allocator<char> > >, std::__detail::_Mod_range_hashing, std::__detail::_Default_ranged_hash, std::__detail::_Prime_rehash_policy, std::__detail::_Hashtable_traits<true, false, true> >::operator=
FUNC a62a0 116 0 std::_Tuple_impl<0ul, std::__cxx11::basic_string<char, std::char_traits<char>, std::allocator<char> >, std::__cxx11::basic_string<char, std::char_traits<char>, std::allocator<char> >, std::vector<FS::PakInfo, std::allocator<FS::PakInfo> >, std::vector<FS::LoadedPakInfo, std::allocator<FS::LoadedPakInfo> >, std::unordered_map<std::__cxx11::basic_string<char, std::char_traits<char>, std::allocator<char> >, std::pair<unsigned int, long int>, std::hash<std::__cxx11::basic_string<char, std::char_traits<char>, std::allocator<char> > >, std::equal_to<std::__cxx11::basic_string<char, std::char_traits<char>, std::allocator<char> > >, std::allocator<std::pair<const std::__cxx11::basic_string<char, std::char_traits<char>, std::allocator<char> >, std::pair<unsigned int, long int> > > > >::~_Tuple_impl
FUNC a63c0 fb 0 Log::Logger::Warn<Str::BasicStringRef<char>&, const std::__cxx11::basic_string<char, std::char_traits<char>, std::allocator<char> >&>
FUNC a64c0 fa 0 Log::Logger::Debug<Str::BasicStringRef<char>&, std::__cxx11::basic_string<char, std::char_traits<char>, std::allocator<char> >&>
FUNC a65c0 d9 0 std::__find_if<char const*, __gnu_cxx::__ops::_Iter_equals_val<char const> >
FUNC a66a0 fa 0 Log::Logger::Verbose<const std::__cxx11::basic_string<char, std::char_traits<char>, std::allocator<char> >&>
FUNC a67a0 4f 0 Sys::Error<std::__cxx11::basic_string<char, std::char_traits<char>, std::allocator<char> >&>
FUNC a67f0 f8 0 Log::Logger::Warn<std::__cxx11::basic_string<char, std::char_traits<char>, std::allocator<char> >&>
FUNC a68f0 3ce 0 std::vector<FS::RawPath::DirectoryRange, std::allocator<FS::RawPath::DirectoryRange> >::_M_emplace_back_aux<FS::RawPath::DirectoryRange>
FUNC a6cc0 f5 0 std::vector<FS::RawPath::DirectoryRange, std::allocator<FS::RawPath::DirectoryRange> >::emplace_back<FS::RawPath::DirectoryRange>
FUNC a6dc0 209 0 std::__find_if<__gnu_cxx::__normal_iterator<std::__cxx11::basic_string<char>*, std::vector<std::__cxx11::basic_string<char> > >, __gnu_cxx::__ops::_Iter_equals_val<const Util::optional<std::__cxx11::basic_string<char> > > >
FUNC a6fd0 2ca 0 std::vector<FS::PakInfo, std::allocator<FS::PakInfo> >::_M_emplace_back_aux<FS::PakInfo>
FUNC a72a0 a5 0 Util::Reader::FillTuple<0ul, std::__cxx11::basic_string<char>, std::tuple<std::__cxx11::basic_string<char, std::char_traits<char>, std::allocator<char> > > >
FUNC a7350 a4 0 std::_Hashtable<std::__cxx11::basic_string<char, std::char_traits<char>, std::allocator<char> >, std::pair<const std::__cxx11::basic_string<char, std::char_traits<char>, std::allocator<char> >, std::pair<unsigned int, long int> >, std::allocator<std::pair<const std::__cxx11::basic_string<char, std::char_traits<char>, std::allocator<char> >, std::pair<unsigned int, long int> > >, std::__detail::_Select1st, std::equal_to<std::__cxx11::basic_string<char, std::char_traits<char>, std::allocator<char> > >, std::hash<std::__cxx11::basic_string<char, std::char_traits<char>, std::allocator<char> > >, std::__detail::_Mod_range_hashing, std::__detail::_Default_ranged_hash, std::__detail::_Prime_rehash_policy, std::__detail::_Hashtable_traits<true, false, true> >::_M_find_before_node
FUNC a7400 59 0 std::_Hashtable<std::__cxx11::basic_string<char, std::char_traits<char>, std::allocator<char> >, std::pair<const std::__cxx11::basic_string<char, std::char_traits<char>, std::allocator<char> >, std::pair<unsigned int, long int> >, std::allocator<std::pair<const std::__cxx11::basic_string<char, std::char_traits<char>, std::allocator<char> >, std::pair<unsigned int, long int> > >, std::__detail::_Select1st, std::equal_to<std::__cxx11::basic_string<char, std::char_traits<char>, std::allocator<char> > >, std::hash<std::__cxx11::basic_string<char, std::char_traits<char>, std::allocator<char> > >, std::__detail::_Mod_range_hashing, std::__detail::_Default_ranged_hash, std::__detail::_Prime_rehash_policy, std::__detail::_Hashtable_traits<true, false, true> >::find
FUNC a7460 29f 0 std::vector<std::pair<std::__cxx11::basic_string<char, std::char_traits<char>, std::allocator<char> >, std::__cxx11::basic_string<char, std::char_traits<char>, std::allocator<char> > >, std::allocator<std::pair<std::__cxx11::basic_string<char, std::char_traits<char>, std::allocator<char> >, std::__cxx11::basic_string<char, std::char_traits<char>, std::allocator<char> > > > >::_M_emplace_back_aux<std::__cxx11::basic_string<char, std::char_traits<char>, std::allocator<char> >&, char const (&)[1]>
FUNC a7700 a5 0 std::vector<std::pair<std::__cxx11::basic_string<char, std::char_traits<char>, std::allocator<char> >, std::__cxx11::basic_string<char, std::char_traits<char>, std::allocator<char> > >, std::allocator<std::pair<std::__cxx11::basic_string<char, std::char_traits<char>, std::allocator<char> >, std::__cxx11::basic_string<char, std::char_traits<char>, std::allocator<char> > > > >::emplace_back<std::__cxx11::basic_string<char, std::char_traits<char>, std::allocator<char> >&, char const (&)[1]>
FUNC a77b0 6c 0 FS::PakInfo::operator=
FUNC a7820 ee 0 std::_Hashtable<std::__cxx11::basic_string<char, std::char_traits<char>, std::allocator<char> >, std::pair<const std::__cxx11::basic_string<char, std::char_traits<char>, std::allocator<char> >, std::pair<unsigned int, long int> >, std::allocator<std::pair<const std::__cxx11::basic_string<char, std::char_traits<char>, std::allocator<char> >, std::pair<unsigned int, long int> > >, std::__detail::_Select1st, std::equal_to<std::__cxx11::basic_string<char, std::char_traits<char>, std::allocator<char> > >, std::hash<std::__cxx11::basic_string<char, std::char_traits<char>, std::allocator<char> > >, std::__detail::_Mod_range_hashing, std::__detail::_Default_ranged_hash, std::__detail::_Prime_rehash_policy, std::__detail::_Hashtable_traits<true, false, true> >::_M_rehash
FUNC a7910 11f 0 std::_Hashtable<std::__cxx11::basic_string<char, std::char_traits<char>, std::allocator<char> >, std::pair<const std::__cxx11::basic_string<char, std::char_traits<char>, std::allocator<char> >, std::pair<unsigned int, long int> >, std::allocator<std::pair<const std::__cxx11::basic_string<char, std::char_traits<char>, std::allocator<char> >, std::pair<unsigned int, long int> > >, std::__detail::_Select1st, std::equal_to<std::__cxx11::basic_string<char, std::char_traits<char>, std::allocator<char> > >, std::hash<std::__cxx11::basic_string<char, std::char_traits<char>, std::allocator<char> > >, std::__detail::_Mod_range_hashing, std::__detail::_Default_ranged_hash, std::__detail::_Prime_rehash_policy, std::__detail::_Hashtable_traits<true, false, true> >::_M_insert_unique_node
FUNC a7a30 fd 0 std::_Hashtable<std::__cxx11::basic_string<char, std::char_traits<char>, std::allocator<char> >, std::pair<const std::__cxx11::basic_string<char, std::char_traits<char>, std::allocator<char> >, std::pair<unsigned int, long int> >, std::allocator<std::pair<const std::__cxx11::basic_string<char, std::char_traits<char>, std::allocator<char> >, std::pair<unsigned int, long int> > >, std::__detail::_Select1st, std::equal_to<std::__cxx11::basic_string<char, std::char_traits<char>, std::allocator<char> > >, std::hash<std::__cxx11::basic_string<char, std::char_traits<char>, std::allocator<char> > >, std::__detail::_Mod_range_hashing, std::__detail::_Default_ranged_hash, std::__detail::_Prime_rehash_policy, std::__detail::_Hashtable_traits<true, false, true> >::_M_emplace<const std::__cxx11::basic_string<char, std::char_traits<char>, std::allocator<char> >&, std::pair<unsigned int, long int> >
FUNC a7b30 fd 0 std::_Hashtable<std::__cxx11::basic_string<char, std::char_traits<char>, std::allocator<char> >, std::pair<const std::__cxx11::basic_string<char, std::char_traits<char>, std::allocator<char> >, std::pair<unsigned int, long int> >, std::allocator<std::pair<const std::__cxx11::basic_string<char, std::char_traits<char>, std::allocator<char> >, std::pair<unsigned int, long int> > >, std::__detail::_Select1st, std::equal_to<std::__cxx11::basic_string<char, std::char_traits<char>, std::allocator<char> > >, std::hash<std::__cxx11::basic_string<char, std::char_traits<char>, std::allocator<char> > >, std::__detail::_Mod_range_hashing, std::__detail::_Default_ranged_hash, std::__detail::_Prime_rehash_policy, std::__detail::_Hashtable_traits<true, false, true> >::_M_emplace<Str::BasicStringRef<char>&, std::pair<unsigned int, long int> >
FUNC a7c30 2ac 0 std::swap<FS::PakInfo>
FUNC a7ee0 a04 0 std::_V2::__rotate<__gnu_cxx::__normal_iterator<FS::PakInfo*, std::vector<FS::PakInfo> > >
FUNC a88f0 2d3 0 std::__rotate_adaptive<__gnu_cxx::__normal_iterator<FS::PakInfo*, std::vector<FS::PakInfo> >, FS::PakInfo*, long int>
FUNC a8bd0 2c 0 IPC::FreeHandles
FUNC a8c00 c2 0 std::__cxx11::basic_string<char, std::char_traits<char>, std::allocator<char> >::_M_construct<char*>
FUNC a8cd0 7 0 IPC::FileDesc::Close
FUNC a8ce0 95 0 IPC::FileHandle::GetDesc
FUNC a8d80 5f 0 IPC::FileHandle::FromDesc
FUNC a8de0 18 0 IPC::Socket::Close
FUNC a8e00 12 0 IPC::Socket::GetDesc
FUNC a8e20 e 0 IPC::Socket::FromDesc
FUNC a8e30 6 0 IPC::Socket::FromHandle
FUNC a8e40 94 0 IPC::Socket::SetRecvTimeout
FUNC a8ee0 25 0 IPC::SharedMemory::Close
FUNC a8f10 14 0 IPC::SharedMemory::GetDesc
FUNC a8f30 3b6 0 IPC::Socket::SendMsg
FUNC a92f0 80 0 IPC::Socket::CreatePair
FUNC a9370 104c 0 IPC::InternalRecvMsg
FUNC aa3c0 d3 0 IPC::Socket::RecvMsg
FUNC aa4a0 b0 0 IPC::MapSharedMemory
FUNC aa550 44 0 IPC::SharedMemory::FromDesc
FUNC aa5a0 1f2 0 IPC::SharedMemory::Create
FUNC aa7a0 f2 0 std::vector<IPC::FileDesc, std::allocator<IPC::FileDesc> >::_M_emplace_back_aux<>
FUNC aa8a0 c1a 0 tinyformat::format<char [256]>
FUNC ab4c0 4f 0 Sys::Drop<char (&)[256]>
FUNC ab510 275 0 std::vector<char, std::allocator<char> >::_M_range_insert<char*>
FUNC ab790 c4a 0 tinyformat::format<long unsigned int, char*>
FUNC ac3e0 55 0 Log::::LogSpamSuppressor::~LogSpamSuppressor
FUNC ac440 c2 0 std::__cxx11::basic_string<char, std::char_traits<char>, std::allocator<char> >::_M_construct<char*>
FUNC ac510 18a 0 Log::Logger::Prefix
FUNC ac6a0 ea 0 Log::ParseCvarValue
FUNC ac790 cf 0 Log::SerializeCvarValue
FUNC ac860 23 0 Cvar::GetCvarTypeName<Log::Level>
FUNC ac890 384 0 Log::DispatchByLevel
FUNC acc20 c6 0 Log::CommandInteractionMessage
FUNC accf0 7f 0 Log::Logger::WithoutSuppression
FUNC acd70 595 0 Log::Logger::Logger
FUNC ad310 ff 0 Log::GetCvarOrDie<int>
FUNC ad410 82c 0 Log::DispatchWithSuppression
FUNC adc40 133 0 Log::Logger::Dispatch
FUNC add80 2 0 std::_Sp_counted_ptr<Cvar::Cvar<Log::Level>*, (__gnu_cxx::_Lock_policy)2u>::~_Sp_counted_ptr
FUNC add90 12 0 std::_Sp_counted_ptr<Cvar::Cvar<Log::Level>*, (__gnu_cxx::_Lock_policy)2u>::_M_dispose
FUNC addb0 3 0 std::_Sp_counted_ptr<Cvar::Cvar<Log::Level>*, (__gnu_cxx::_Lock_policy)2u>::_M_get_deleter
FUNC addc0 5 0 std::_Sp_counted_ptr<Cvar::Cvar<Log::Level>*, (__gnu_cxx::_Lock_policy)2u>::~_Sp_counted_ptr
FUNC addd0 12 0 std::_Sp_counted_ptr<Cvar::Cvar<Log::Level>*, (__gnu_cxx::_Lock_policy)2u>::_M_destroy
FUNC addf0 57 0 Cvar::Cvar<Log::Level>::~Cvar
FUNC ade50 52 0 Cvar::Cvar<Log::Level>::~Cvar
FUNC adeb0 1f 0 Cvar::Cvar<Log::Level>::GetAdditionalDescription
FUNC aded0 27 0 Cvar::Cvar<Log::Level>::Validate
FUNC adf00 62 0 std::_Sp_counted_base<(__gnu_cxx::_Lock_policy)2u>::_M_release
FUNC adf70 d73 0 Cvar::Cvar<Log::Level>::GetDescription
FUNC aecf0 4f 0 Sys::Error<Str::BasicStringRef<char>&, std::__cxx11::basic_string<char, std::char_traits<char>, std::allocator<char> >&>
FUNC aed40 2c6 0 Cvar::Cvar<Log::Level>::OnValueChanged
FUNC af010 c 0 Str::AssertOnTinyFormatError
FUNC af020 c4 0 Str::ParseInt
FUNC af0f0 14 0 Str::ToFloat
FUNC af110 61 0 Str::ToFloat
FUNC af180 24 0 Str::GetHex
FUNC af1b0 e 0 Str::HexDigit
FUNC af1c0 ea 0 Str::ToUpper
FUNC af2b0 ea 0 Str::ToLower
FUNC af3a0 42 0 Str::IsPrefix
FUNC af3f0 38 0 Str::IsSuffix
FUNC af430 4f 0 Str::LongestPrefixSize
FUNC af480 f8 0 Str::IsIPrefix
FUNC af580 101 0 Str::LongestIPrefixSize
FUNC af690 66 0 Str::IsIEqual
FUNC af700 398 0 Str::UTF8To32
FUNC afaa0 2ed 0 Str::UTF32To8
FUNC afd90 c2 0 std::__cxx11::basic_string<char, std::char_traits<char>, std::allocator<char> >::_M_construct<char*>
FUNC afe60 6e 0 Sys::SleepFor
FUNC afed0 90 0 Sys::SleepUntil
FUNC aff60 6a 0 Sys::Milliseconds
FUNC affd0 106 0 Sys::Drop
FUNC b00e0 99 0 Sys::SetupCrashHandler
FUNC b0180 1e 0 Sys::DynamicLib::Close
FUNC b01a0 21d 0 Sys::DynamicLib::Open
FUNC b03c0 43 0 Sys::DynamicLib::InternalLoadSym
FUNC b0410 10 0 Sys::OSExit
FUNC b0420 8 0 Sys::IsProcessTerminating
FUNC b0430 24 0 operator new
FUNC b0460 15 0 operator delete
FUNC b0480 f6 0 Com_Error
FUNC b0580 78 0 Sys::CrashHandler
FUNC b0600 ad 0 Sys::GenRandomBytes
FUNC b06b0 28 0 Sys::DropErr::~DropErr
FUNC b06e0 cbb 0 tinyformat::format<int, char*>
FUNC b13a0 c9b 0 tinyformat::format<char*>
FUNC b2040 c2 0 std::__cxx11::basic_string<char, std::char_traits<char>, std::allocator<char> >::_M_construct<char*>
FUNC b2110 46 0 CM_FreeAll
FUNC b2160 69 0 CM_BoundBrush
FUNC b21d0 19 0 CM_ClearMap
FUNC b21f0 28 0 CM_InlineModel
FUNC b2220 7 0 CM_NumInlineModels
FUNC b2230 8 0 CM_EntityString
FUNC b2240 36 0 CM_LeafCluster
FUNC b2280 37 0 CM_LeafArea
FUNC b22c0 5ac 0 CM_TempBoxModel
FUNC b2870 8a 0 CM_Alloc
FUNC b2900 8f 0 CMod_LoadShaders
FUNC b2990 16f 0 CMod_LoadSubmodels
FUNC b2b00 ac 0 CMod_LoadNodes
FUNC b2bb0 138 0 CMod_LoadLeafs
FUNC b2cf0 119 0 CMod_LoadPlanes
FUNC b2e10 58 0 CMod_LoadLeafBrushes
FUNC b2e70 58 0 CMod_LoadLeafSurfaces
FUNC b2ed0 90 0 CMod_LoadVisibility
FUNC b2f60 3a8 0 CMod_LoadSurfaces
FUNC b3310 17c 0 CM_InitBoxHull
FUNC b3490 33f 0 CMod_LoadEntityString
FUNC b37d0 154 0 CMod_LoadBrushes
FUNC b3930 11e 0 CMod_LoadBrushSides
FUNC b3a50 db 0 CM_ClipHandleToModel
FUNC b3b30 52 0 CM_ModelBounds
FUNC b3b90 92a 0 CM_LoadMap
FUNC b44c0 12 0 std::vector<void*, std::allocator<void*> >::~vector
FUNC b44e0 cc7 0 Log::Logger::Debug<Str::BasicStringRef<char>&>
FUNC b51b0 ea 0 std::vector<void*, std::allocator<void*> >::_M_emplace_back_aux<void* const&>
FUNC b52a0 cc0 0 Log::Logger::Warn<char (&)[1024]>
FUNC b5f60 fa 0 Log::Logger::Debug<int&, int&>
FUNC b6060 caf 0 tinyformat::format<char const*, int, int, int>
FUNC b6d10 7a 0 CM_SetGridWrapWidth
FUNC b6d90 1e6 0 CM_RemoveDegenerateColumns
FUNC b6f80 430 0 CM_SubdivideGridColumns
FUNC b73b0 c2 0 std::__cxx11::basic_string<char, std::char_traits<char>, std::allocator<char> >::_M_construct<char*>
FUNC b7480 115 0 CM_GridPlane
FUNC b75a0 48a 0 CM_SetBorderInward
FUNC b7a30 17 0 CM_ClearLevelPatches
FUNC b7a50 1297 0 CM_GeneratePatchCollide
FUNC b8cf0 8d 0 tinyformat::detail::FormatArg::toIntImpl<void*>
FUNC b8d80 c6a 0 tinyformat::format<int, int, void*>
FUNC b99f0 3a4 0 tinyformat::detail::formatTruncated<void*>
FUNC b9da0 20 0 tinyformat::detail::FormatArg::formatImpl<void*>
FUNC b9dc0 b3 0 CM_CreateNewFloatPlane
FUNC b9e80 c2 0 std::__cxx11::basic_string<char, std::char_traits<char>, std::allocator<char> >::_M_construct<char const*>
FUNC b9f50 30 0 CM_ResetPlaneCounts
FUNC b9f80 25 0 CM_SignbitsForNormal
FUNC b9fb0 f3 0 CM_PlaneFromPoints
FUNC ba0b0 10c 0 CM_PlaneEqual
FUNC ba1c0 93 0 CM_SnapVector
FUNC ba260 96 0 CM_FindPlane2
FUNC ba300 1ef 0 CM_FindPlane
FUNC ba4f0 7c 0 CM_GenerateBoundaryForPoints
FUNC ba570 6e 0 CM_PointOnPlaneSide
FUNC ba5e0 219 0 CM_ValidateFacet
FUNC ba800 f0 0 CM_GenerateFacetFor3Points
FUNC ba8f0 948 0 CM_AddFacetBevels
FUNC bb240 41 0 AllocWinding
FUNC bb290 2c 0 FreeWinding
FUNC bb2c0 6d 0 WindingBounds
FUNC bb330 303 0 BaseWindingForPlane
FUNC bb640 2a 0 CopyWinding
FUNC bb670 378 0 ChopWindingInPlace
FUNC bb9f0 35 0 CM_StoreLeafs
FUNC bba30 c2 0 std::__cxx11::basic_string<char, std::char_traits<char>, std::allocator<char> >::_M_construct<char*>
FUNC bbb00 89 0 CM_PointLeafnum_r
FUNC bbb90 17 0 CM_PointLeafnum
FUNC bbbb0 75 0 CM_BoxLeafnums_r
FUNC bbc30 b6 0 CM_BoxLeafnums
FUNC bbcf0 38 0 CM_ClusterPVS
FUNC bbd30 95 0 CM_FloodArea_r
FUNC bbdd0 5d 0 CM_FloodAreaConnections
FUNC bbe30 f6 0 CM_AdjustAreaPortalState
FUNC bbf30 5b 0 CM_AreasConnected
FUNC bbf90 89 0 CM_WriteAreaBits
FUNC bc020 b5 0 CM_BoundsIntersect
FUNC bc0e0 a3 0 CM_BoundsIntersectPoint
FUNC bc190 11a 0 CM_PointContents
FUNC bc2b0 13 0 CM_PointContents
FUNC bc2d0 150 0 CM_TransformedPointContents
FUNC bc420 c2 0 std::__cxx11::basic_string<char, std::char_traits<char>, std::allocator<char> >::_M_construct<char*>
FUNC bc4f0 64d 0 CM_GenerateTriangleSoupCollide
FUNC bcb40 8d 0 tinyformat::detail::FormatArg::toIntImpl<int*>
FUNC bcbd0 8d 0 tinyformat::detail::FormatArg::toIntImpl<float (*)[3]>
FUNC bcc60 caf 0 tinyformat::format<int, float (*)[3], int, int*>
FUNC bd910 3a4 0 tinyformat::detail::formatTruncated<int*>
FUNC bdcc0 20 0 tinyformat::detail::FormatArg::formatImpl<float (*)[3]>
FUNC bdce0 20 0 tinyformat::detail::FormatArg::formatImpl<int*>
FUNC bdd00 5f 0 m3_det
FUNC bdd60 7d 0 m4_submat
FUNC bdde0 c 0 Q_rand
FUNC bddf0 1f 0 Q_random
FUNC bde10 33 0 Q_crandom
FUNC bde50 1b 0 ClampByte
FUNC bde70 1e 0 ClampChar
FUNC bde90 68 0 DirToByte
FUNC bdf00 67 0 ByteToDir
FUNC bdf70 b2 0 PlaneNormalize
FUNC be030 12c 0 RotatePointAroundVector
FUNC be160 16d 0 vectoangles
FUNC be2d0 39 0 AxisClear
FUNC be310 59 0 AxisCopy
FUNC be370 65 0 ProjectPointOnPlane
FUNC be3e0 64 0 ProjectPointOntoRectangleOutwards
FUNC be450 66 0 ExponentialFade
FUNC be4c0 44 0 LerpAngle
FUNC be510 72 0 AngleSubtract
FUNC be590 15f 0 AnglesSubtract
FUNC be6f0 28 0 AngleNormalize360
FUNC be730 3a 0 AngleNormalize180
FUNC be770 3e 0 AngleDelta
FUNC be7b0 28 0 SetPlaneSignbits
FUNC be7e0 e8 0 BoxOnPlaneSide
FUNC be8d0 21 0 ZeroBounds
FUNC be900 2d 0 ClearBounds
FUNC be930 5c 0 AddPointToBounds
FUNC be990 5c 0 BoundsAdd
FUNC be9f0 43 0 BoundsIntersect
FUNC bea40 56 0 BoundsIntersectSphere
FUNC beaa0 35 0 BoundsIntersectPoint
FUNC beae0 5a 0 BoundsMaxExtent
FUNC beb40 26 0 VectorCompare
FUNC beb70 8e 0 VectorNormalize
FUNC bec00 d0 0 PlaneFromPoints
FUNC becd0 11d 0 PlaneFromPointsOrder
FUNC bedf0 df 0 MakeNormalVectors
FUNC beed0 79 0 VectorNormalizeFast
FUNC bef50 a0 0 VectorNormalize2
FUNC beff0 cd 0 PlaneIntersectRay
FUNC bf0c0 229 0 PlanesGetIntersectionPoint
FUNC bf2f0 53 0 CrossProduct
FUNC bf350 27 0 VectorLength
FUNC bf380 78 0 AngleBetweenVectors
FUNC bf400 6a 0 RadiusFromBounds
FUNC bf470 23 0 VectorLengthSquared
FUNC bf4a0 63 0 Distance
FUNC bf510 31 0 DistanceSquared
FUNC bf550 2e 0 VectorInverse
FUNC bf580 1a 0 NearestPowerOfTwo
FUNC bf5a0 1a1 0 AxisMultiply
FUNC bf750 1a7 0 AngleVectors
FUNC bf900 77 0 AnglesToAxis
FUNC bf980 94 0 PerpendicularVector
FUNC bfa20 e0 0 RotateAroundDirection
FUNC bfb00 101 0 GetPerpendicularViewVector
FUNC bfc10 e1 0 ProjectPointOntoVector
FUNC bfd00 3a3 0 DistanceBetweenLineSegmentsSquared
FUNC c00b0 173 0 ProjectPointOntoVectorBounded
FUNC c0230 166 0 DistanceFromLineSquared
FUNC c03a0 1e9 0 AxisToAngles
FUNC c0590 63 0 VectorDistanceSquared
FUNC c0600 5c 0 MatrixIdentity
FUNC c0660 54 0 MatrixClear
FUNC c06c0 9f 0 MatrixCopy
FUNC c0760 c3 0 MatrixCompare
FUNC c0830 9f 0 MatrixTranspose
FUNC c08d0 1d7 0 MatrixInverse
FUNC c0ab0 9f 0 MatrixSetupXRotation
FUNC c0b50 9f 0 MatrixSetupYRotation
FUNC c0bf0 9f 0 MatrixSetupZRotation
FUNC c0c90 5c 0 MatrixSetupTranslation
FUNC c0cf0 56 0 MatrixSetupScale
FUNC c0d50 5c 0 MatrixSetupShear
FUNC c0db0 66 0 MatrixMultiply
FUNC c0e20 e7 0 MatrixMultiply2
FUNC c0f10 12a 0 MatrixMultiplyZRotation
FUNC c1040 a8 0 MatrixMultiplyTranslation
FUNC c10f0 9b 0 MatrixMultiplyScale
FUNC c1190 a9 0 MatrixMultiplyShear
FUNC c1240 123 0 MatrixToAngles
FUNC c1370 1c0 0 MatrixFromAngles
FUNC c1530 10a 0 MatrixMultiplyRotation
FUNC c1640 80 0 MatrixFromVectorsFLU
FUNC c16c0 91 0 MatrixFromVectorsFRU
FUNC c1760 118 0 MatrixFromQuat
FUNC c1880 15c 0 MatrixFromPlanes
FUNC c19e0 67 0 MatrixToVectorsFLU
FUNC c1a50 78 0 MatrixToVectorsFRU
FUNC c1ad0 91 0 MatrixSetupTransformFromVectorsFLU
FUNC c1b70 a2 0 MatrixSetupTransformFromVectorsFRU
FUNC c1c20 90 0 MatrixSetupTransformFromRotation
FUNC c1cb0 d3 0 MatrixSetupTransformFromQuat
FUNC c1d90 e0 0 MatrixAffineInverse
FUNC c1e70 89 0 MatrixTransformNormal
FUNC c1f00 79 0 MatrixTransformNormal2
FUNC c1f80 97 0 MatrixTransformPoint
FUNC c2020 88 0 MatrixTransformPoint2
FUNC c20b0 df 0 MatrixTransform4
FUNC c2190 53 0 MatrixTransformPlane
FUNC c21f0 60 0 MatrixTransformPlane2
FUNC c2250 210 0 MatrixTransformBounds
FUNC c2460 a8 0 MatrixPerspectiveProjection
FUNC c2510 b8 0 MatrixPerspectiveProjectionLH
FUNC c25d0 a0 0 MatrixPerspectiveProjectionRH
FUNC c2670 d9 0 MatrixPerspectiveProjectionFovYAspectLH
FUNC c2750 fc 0 MatrixPerspectiveProjectionFovXYLH
FUNC c2850 f4 0 MatrixPerspectiveProjectionFovXYRH
FUNC c2950 e2 0 MatrixPerspectiveProjectionFovXYInfiniteRH
FUNC c2a40 be 0 MatrixOrthogonalProjection
FUNC c2b00 bb 0 MatrixOrthogonalProjectionLH
FUNC c2bc0 b4 0 MatrixOrthogonalProjectionRH
FUNC c2c80 145 0 MatrixPlaneReflection
FUNC c2dd0 1f2 0 MatrixLookAtLH
FUNC c2fd0 1fb 0 MatrixLookAtRH
FUNC c31d0 d5 0 MatrixScaleTranslateToUnitCube
FUNC c32b0 d9 0 MatrixCrop
FUNC c3390 a7 0 QuatNormalize
FUNC c3440 22d 0 QuatFromMatrix
FUNC c3670 48 0 QuatFromAngles
FUNC c36c0 be 0 QuatToVectorsFRU
FUNC c3790 b7 0 QuatToAxis
FUNC c3850 218 0 QuatToAngles
FUNC c3a70 e6 0 QuatMultiply
FUNC c3b60 63 0 QuatMultiply2
FUNC c3bd0 2f8 0 QuatSlerp
FUNC c3ed0 ed 0 QuatTransformVector
FUNC c3fc0 e8 0 QuatTransformVectorInverse
FUNC c40b0 89 0 internalTime
FUNC c4140 c2 0 std::__cxx11::basic_string<char, std::char_traits<char>, std::allocator<char> >::_M_construct<char*>
FUNC c4210 24 0 Com_InitGrowList
FUNC c4240 26 0 Com_DestroyGrowList
FUNC c4270 e 0 Com_Clamp
FUNC c4280 22 0 COM_FixPath
FUNC c42b0 24 0 COM_SkipPath
FUNC c42e0 d0 0 Com_SkipTokens
FUNC c43b0 51 0 COM_GetExtension
FUNC c4410 22 0 COM_StripExtension
FUNC c4440 47 0 COM_StripExtension2
FUNC c4490 4d 0 Com_HashKey
FUNC c44e0 164 0 Com_EntityTypeName
FUNC c4650 2 0 COM_BackupParseSession
FUNC c4660 c3 0 COM_Compress
FUNC c4730 233 0 COM_ParseExt
FUNC c4970 a 0 COM_Parse
FUNC c4980 459 0 COM_ParseExt2
FUNC c4de0 a 0 COM_Parse2
FUNC c4df0 53 0 SkipBracedSection_Depth
FUNC c4e50 53 0 SkipBracedSection
FUNC c4eb0 2b 0 SkipRestOfLine
FUNC c4ee0 7f 0 Com_HexStrToInt
FUNC c4f60 1da 0 Com_ClearForeignCharacters
FUNC c5140 50 0 Q_strtoi
FUNC c5190 82 0 Q_strncpyz
FUNC c5220 67 0 COM_StripExtension3
FUNC c5290 51 0 Q_strncmp
FUNC c52f0 2b 0 Q_strlwr
FUNC c5320 2b 0 Q_strupr
FUNC c5350 3d 0 Q_strcat
FUNC c5390 91 0 Q_strnicmp
FUNC c5430 76 0 Q_stricmp
FUNC c54b0 7f 0 Q_stristr
FUNC c5530 b6 0 Com_StringContains
FUNC c55f0 32e 0 Com_Filter
FUNC c5920 c4 0 Q_isBadDirChar
FUNC c59f0 2a 0 Q_CountChar
FUNC c5a20 176 0 va
FUNC c5ba0 1c 0 InfoValidItem
FUNC c5bc0 7d 0 Info_NextPair
FUNC c5c40 37 0 Info_Validate
FUNC c5c80 33 0 Com_ClientListContains
FUNC c5cc0 2d 0 Com_ClientListAdd
FUNC c5cf0 2d 0 Com_ClientListRemove
FUNC c5d20 5e 0 Com_ClientListParse
FUNC c5d80 89 0 VectorMatrixMultiply
FUNC c5e10 54 0 Q_ParseNewlines
FUNC c5e70 c 0 Com_RealTime
FUNC c5e80 c 0 Com_GMTime
FUNC c5e90 fc 0 COM_ParseError
FUNC c5f90 fc 0 COM_ParseWarning
FUNC c6090 2fa 0 InfoMapToString
FUNC c6390 146 0 Com_AddToGrowList
FUNC c64e0 94 0 Com_GrowListElement
FUNC c6580 13a 0 Com_sprintf
FUNC c66c0 a8 0 COM_DefaultExtension
FUNC c6770 27 0 COM_BeginParseSession
FUNC c67a0 48 0 Com_ClientListString
FUNC c67f0 6e 0 COM_MatchToken
FUNC c6860 183 0 Info_RemoveKey
FUNC c69f0 1e2 0 Info_ValueForKey
FUNC c6be0 228 0 Info_SetValueForKey
FUNC c6e10 166 0 Com_ParseInfos
FUNC c6f80 174 0 Info_SetValueForKeyRocket
FUNC c7100 726 0 InfoStringToMap
FUNC c7830 9e 0 tinyformat::detail::FormatArg::formatImpl<char [4096]>
FUNC c78d0 8d 0 tinyformat::detail::FormatArg::toIntImpl<char [4096]>
FUNC c7960 d10 0 Log::Logger::Warn<char (&)[1024], int&, char (&)[4096]>
FUNC c8670 fb 0 Log::Logger::Notice<int&, int>
FUNC c8770 c4a 0 tinyformat::format<char*, char const*>
FUNC c93c0 4f 0 Sys::Drop<char*&, char const*&>
FUNC c9410 c6a 0 tinyformat::format<char*, char const*, char const*>
FUNC ca080 4f 0 Sys::Drop<char*&, char const*&, char const*&>
FUNC ca0d0 171 0 std::_Rb_tree<std::__cxx11::basic_string<char, std::char_traits<char>, std::allocator<char> >, std::pair<const std::__cxx11::basic_string<char, std::char_traits<char>, std::allocator<char> >, std::__cxx11::basic_string<char, std::char_traits<char>, std::allocator<char> > >, std::_Select1st<std::pair<const std::__cxx11::basic_string<char, std::char_traits<char>, std::allocator<char> >, std::__cxx11::basic_string<char, std::char_traits<char>, std::allocator<char> > > >, std::less<std::__cxx11::basic_string<char, std::char_traits<char>, std::allocator<char> > >, std::allocator<std::pair<const std::__cxx11::basic_string<char, std::char_traits<char>, std::allocator<char> >, std::__cxx11::basic_string<char, std::char_traits<char>, std::allocator<char> > > > >::_M_emplace_hint_unique<const std::piecewise_construct_t&, std::tuple<const std::__cxx11::basic_string<char, std::char_traits<char>, std::allocator<char> >&>, std::tuple<> >
FUNC ca250 7a 0 Q_UTF8_Width
FUNC ca2d0 3c 0 Q_UTF8_WidthCP
FUNC ca310 2a 0 Q_UTF8_Strlen
FUNC ca340 f 0 Q_UTF8_ContByte
FUNC ca350 27c 0 Q_UTF8_CodePoint
FUNC ca5d0 124 0 Q_UTF8_Encode
FUNC ca700 4d 0 Q_Unicode_IsAlpha
FUNC ca750 4d 0 Q_Unicode_IsUpper
FUNC ca7a0 4d 0 Q_Unicode_IsLower
FUNC ca7f0 4d 0 Q_Unicode_IsIdeo
FUNC ca840 4d 0 Q_Unicode_IsDigit
FUNC ca890 15 0 Q_Unicode_IsAlphaOrIdeo
FUNC ca8b0 1e 0 Q_Unicode_IsAlphaOrIdeoOrDigit
FUNC ca8d0 31 0 Q_Unicode_IsPrivateUse
FUNC ca910 4e 0 Q_Unicode_ToUpper
FUNC ca960 4e 0 Q_Unicode_ToLower
FUNC ca9b0 2 0 Application::Application::LoadInitialConfig
FUNC ca9c0 2 0 Application::Application::Initialize
FUNC ca9d0 2 0 Application::Application::Shutdown
FUNC ca9e0 c2 0 std::__cxx11::basic_string<char, std::char_traits<char>, std::allocator<char> >::_M_construct<char*>
FUNC caab0 28 0 Application::Traits::Traits
FUNC caae0 33 0 Application::Application::Application
FUNC cab20 5 0 Application::Application::GetTraits
FUNC cab30 29 0 Application::LoadInitialConfig
FUNC cab60 41 0 Application::Initialize
FUNC cabb0 31 0 Application::Frame
FUNC cabf0 43 0 Application::OnDrop
FUNC cac40 43 0 Application::Shutdown
FUNC cac90 19 0 Application::OnUnhandledCommand
FUNC cacb0 12 0 Application::GetTraits
FUNC cacd0 2e 0 Application::Application::OnUnhandledCommand
FUNC cad00 2 0 Application::Application::Frame
FUNC cad10 22 0 Application::Application::~Application
FUNC cad40 29 0 Application::Application::~Application
FUNC cad70 c2 0 std::__cxx11::basic_string<char, std::char_traits<char>, std::allocator<char> >::_M_construct<char*>
FUNC cae40 3bf 0 Cmd::GetAliasConfigText
FUNC cb200 96 0 Cmd::DelayFrame
FUNC cb2a0 171 0 Cmd::CompleteDelayName
FUNC cb420 153 0 Cmd::CompleteAliasName
FUNC cb580 2 0 Cmd::ListAliasesCmd::~ListAliasesCmd
FUNC cb590 2 0 Cmd::ClearAliasesCmd::~ClearAliasesCmd
FUNC cb5a0 2 0 Cmd::UnaliasCmd::~UnaliasCmd
FUNC cb5b0 2 0 Cmd::AliasCmd::~AliasCmd
FUNC cb5c0 2 0 Cmd::AliasProxy::~AliasProxy
FUNC cb5d0 2 0 Cmd::UndelayAllCmd::~UndelayAllCmd
FUNC cb5e0 2 0 Cmd::UndelayCmd::~UndelayCmd
FUNC cb5f0 2 0 Cmd::DelayCmd::~DelayCmd
FUNC cb600 2 0 Cmd::CycleCmd::~CycleCmd
FUNC cb610 2 0 Cmd::ToggleCmd::~ToggleCmd
FUNC cb620 2 0 Cmd::IfCmd::~IfCmd
FUNC cb630 2 0 Cmd::MathCmd::~MathCmd
FUNC cb640 2 0 Cmd::ConcatCmd::~ConcatCmd
FUNC cb650 2 0 Cmd::RandomCmd::~RandomCmd
FUNC cb660 2 0 Cmd::EchoCmd::~EchoCmd
FUNC cb670 2 0 Cmd::ExecCmd::~ExecCmd
FUNC cb680 2 0 Cmd::VstrCmd::~VstrCmd
FUNC cb690 5 0 Cmd::AliasProxy::~AliasProxy
FUNC cb6a0 5 0 Cmd::ListAliasesCmd::~ListAliasesCmd
FUNC cb6b0 5 0 Cmd::ClearAliasesCmd::~ClearAliasesCmd
FUNC cb6c0 5 0 Cmd::UnaliasCmd::~UnaliasCmd
FUNC cb6d0 5 0 Cmd::AliasCmd::~AliasCmd
FUNC cb6e0 5 0 Cmd::UndelayAllCmd::~UndelayAllCmd
FUNC cb6f0 5 0 Cmd::UndelayCmd::~UndelayCmd
FUNC cb700 5 0 Cmd::DelayCmd::~DelayCmd
FUNC cb710 5 0 Cmd::CycleCmd::~CycleCmd
FUNC cb720 5 0 Cmd::ToggleCmd::~ToggleCmd
FUNC cb730 5 0 Cmd::IfCmd::~IfCmd
FUNC cb740 5 0 Cmd::MathCmd::~MathCmd
FUNC cb750 5 0 Cmd::ConcatCmd::~ConcatCmd
FUNC cb760 5 0 Cmd::RandomCmd::~RandomCmd
FUNC cb770 5 0 Cmd::EchoCmd::~EchoCmd
FUNC cb780 5 0 Cmd::ExecCmd::~ExecCmd
FUNC cb790 5 0 Cmd::VstrCmd::~VstrCmd
FUNC cb7a0 6c 0 Cmd::CycleCmd::Complete
FUNC cb810 6c 0 Cmd::ToggleCmd::Complete
FUNC cb880 6c 0 Cmd::IfCmd::Complete
FUNC cb8f0 6c 0 Cmd::MathCmd::Complete
FUNC cb960 62 0 Cmd::ConcatCmd::Complete
FUNC cb9d0 6c 0 Cmd::RandomCmd::Complete
FUNC cba40 6c 0 Cmd::VstrCmd::Complete
FUNC cbab0 133 0 Cmd::ExecCmd::Complete
FUNC cbbf0 14e 0 Cmd::ConcatCmd::Run
FUNC cbd40 cf 0 Cmd::VstrCmd::Run
FUNC cbe10 58 0 Cmd::UndelayAllCmd::Run
FUNC cbe70 65 0 std::vector<Cmd::delayRecord_t, std::allocator<Cmd::delayRecord_t> >::~vector
FUNC cbee0 2ef 0 Cmd::CycleCmd::Run
FUNC cc1d0 290 0 Cmd::ToggleCmd::Run
FUNC cc460 fc 0 Cmd::VstrCmd::VstrCmd
FUNC cc560 10f 0 Cmd::ExecCmd::ExecCmd
FUNC cc670 fc 0 Cmd::EchoCmd::EchoCmd
FUNC cc770 fc 0 Cmd::RandomCmd::RandomCmd
FUNC cc870 fc 0 Cmd::ConcatCmd::ConcatCmd
FUNC cc970 fc 0 Cmd::MathCmd::MathCmd
FUNC cca70 fc 0 Cmd::IfCmd::IfCmd
FUNC ccb70 fc 0 Cmd::ToggleCmd::ToggleCmd
FUNC ccc70 fc 0 Cmd::CycleCmd::CycleCmd
FUNC ccd70 fc 0 Cmd::DelayCmd::DelayCmd
FUNC cce70 32 0 Cmd::delayRecord_t::~delayRecord_t
FUNC cceb0 fc 0 Cmd::UndelayCmd::UndelayCmd
FUNC ccfb0 fc 0 Cmd::UndelayAllCmd::UndelayAllCmd
FUNC cd0b0 fc 0 Cmd::AliasCmd::AliasCmd
FUNC cd1b0 fc 0 Cmd::UnaliasCmd::UnaliasCmd
FUNC cd2b0 fc 0 Cmd::ClearAliasesCmd::ClearAliasesCmd
FUNC cd3b0 fc 0 Cmd::ListAliasesCmd::ListAliasesCmd
FUNC cd4b0 159 0 Cmd::RandomCmd::Run
FUNC cd610 161 0 Cmd::EchoCmd::Run
FUNC cd780 40f 0 Cmd::IfCmd::Run
FUNC cdb90 5c 0 Util::optional<float>::value
FUNC cdbf0 798 0 Cmd::MathCmd::Run
FUNC ce390 1a4f 0 Cmd::ExecCmd::SetExecArgs
FUNC cfde0 c4 0 std::vector<Cmd::delayRecord_t, std::allocator<Cmd::delayRecord_t> >::_M_erase
FUNC cfeb0 161 0 Cmd::UndelayCmd::Run
FUNC d0020 310 0 std::vector<Cmd::delayRecord_t, std::allocator<Cmd::delayRecord_t> >::_M_emplace_back_aux<Cmd::delayRecord_t>
FUNC d0330 e5 0 std::vector<Cmd::delayRecord_t, std::allocator<Cmd::delayRecord_t> >::emplace_back<Cmd::delayRecord_t>
FUNC d0420 3e1 0 Cmd::DelayCmd::Run
FUNC d0810 76 0 std::_Hashtable<std::__cxx11::basic_string<char, std::char_traits<char>, std::allocator<char> >, std::pair<const std::__cxx11::basic_string<char, std::char_traits<char>, std::allocator<char> >, Cmd::aliasRecord_t>, std::allocator<std::pair<const std::__cxx11::basic_string<char, std::char_traits<char>, std::allocator<char> >, Cmd::aliasRecord_t> >, std::__detail::_Select1st, Str::IEqual, Str::IHash, std::__detail::_Mod_range_hashing, std::__detail::_Default_ranged_hash, std::__detail::_Prime_rehash_policy, std::__detail::_Hashtable_traits<true, false, true> >::clear
FUNC d0890 1e 0 Cmd::ClearAliasesCmd::Run
FUNC d08b0 22 0 std::unordered_map<std::__cxx11::basic_string<char, std::char_traits<char>, std::allocator<char> >, Cmd::aliasRecord_t, Str::IHash, Str::IEqual, std::allocator<std::pair<const std::__cxx11::basic_string<char, std::char_traits<char>, std::allocator<char> >, Cmd::aliasRecord_t> > >::~unordered_map
FUNC d08e0 a2 0 Cmd::CmdBase::Print<char const*>
FUNC d0990 3f5 0 Cmd::ExecCmd::Run
FUNC d0d90 c5 0 std::vector<std::pair<std::__cxx11::basic_string<char, std::char_traits<char>, std::allocator<char> >, std::__cxx11::basic_string<char, std::char_traits<char>, std::allocator<char> > >, std::allocator<std::pair<std::__cxx11::basic_string<char, std::char_traits<char>, std::allocator<char> >, std::__cxx11::basic_string<char, std::char_traits<char>, std::allocator<char> > > > >::emplace_back<std::pair<std::__cxx11::basic_string<char, std::char_traits<char>, std::allocator<char> >, std::__cxx11::basic_string<char, std::char_traits<char>, std::allocator<char> > > >
FUNC d0e60 6c 0 Cmd::UndelayCmd::Complete
FUNC d0ed0 6c 0 Cmd::DelayCmd::Complete
FUNC d0f40 6c 0 Cmd::UnaliasCmd::Complete
FUNC d0fb0 16d 0 Cmd::AliasCmd::Complete
FUNC d1120 93 0 std::__detail::_Hashtable_alloc<std::allocator<std::__detail::_Hash_node<std::pair<const std::__cxx11::basic_string<char, std::char_traits<char>, std::allocator<char> >, Cmd::aliasRecord_t>, true> > >::_M_allocate_node<const std::piecewise_construct_t&, std::tuple<const std::__cxx11::basic_string<char, std::char_traits<char>, std::allocator<char> >&>, std::tuple<> >
FUNC d11c0 21f 0 std::_Hashtable<std::__cxx11::basic_string<char, std::char_traits<char>, std::allocator<char> >, std::pair<const std::__cxx11::basic_string<char, std::char_traits<char>, std::allocator<char> >, Cmd::aliasRecord_t>, std::allocator<std::pair<const std::__cxx11::basic_string<char, std::char_traits<char>, std::allocator<char> >, Cmd::aliasRecord_t> >, std::__detail::_Select1st, Str::IEqual, Str::IHash, std::__detail::_Mod_range_hashing, std::__detail::_Default_ranged_hash, std::__detail::_Prime_rehash_policy, std::__detail::_Hashtable_traits<true, false, true> >::_M_insert_unique_node
FUNC d13e0 ea 0 std::vector<const Cmd::aliasRecord_t*, std::allocator<const Cmd::aliasRecord_t*> >::_M_emplace_back_aux<const Cmd::aliasRecord_t*>
FUNC d14d0 ea 0 std::vector<const std::__cxx11::basic_string<char, std::char_traits<char>, std::allocator<char> >*, std::allocator<const std::__cxx11::basic_string<char, std::char_traits<char>, std::allocator<char> >*> >::_M_emplace_back_aux<const std::__cxx11::basic_string<char, std::char_traits<char>, std::allocator<char> >*>
FUNC d15c0 1c5a 0 Cmd::ListAliasesCmd::Run
FUNC d3220 c1 0 std::_Hashtable<std::__cxx11::basic_string<char, std::char_traits<char>, std::allocator<char> >, std::pair<const std::__cxx11::basic_string<char, std::char_traits<char>, std::allocator<char> >, Cmd::aliasRecord_t>, std::allocator<std::pair<const std::__cxx11::basic_string<char, std::char_traits<char>, std::allocator<char> >, Cmd::aliasRecord_t> >, std::__detail::_Select1st, Str::IEqual, Str::IHash, std::__detail::_Mod_range_hashing, std::__detail::_Default_ranged_hash, std::__detail::_Prime_rehash_policy, std::__detail::_Hashtable_traits<true, false, true> >::_M_find_before_node
FUNC d32f0 a9 0 std::_Hashtable<std::__cxx11::basic_string<char, std::char_traits<char>, std::allocator<char> >, std::pair<const std::__cxx11::basic_string<char, std::char_traits<char>, std::allocator<char> >, Cmd::aliasRecord_t>, std::allocator<std::pair<const std::__cxx11::basic_string<char, std::char_traits<char>, std::allocator<char> >, Cmd::aliasRecord_t> >, std::__detail::_Select1st, Str::IEqual, Str::IHash, std::__detail::_Mod_range_hashing, std::__detail::_Default_ranged_hash, std::__detail::_Prime_rehash_policy, std::__detail::_Hashtable_traits<true, false, true> >::find
FUNC d33a0 165 0 Cmd::UnaliasCmd::Run
FUNC d3510 29c 0 Cmd::AliasProxy::Run
FUNC d37b0 ea 0 std::__detail::_Map_base<std::__cxx11::basic_string<char, std::char_traits<char>, std::allocator<char> >, std::pair<const std::__cxx11::basic_string<char, std::char_traits<char>, std::allocator<char> >, Cmd::aliasRecord_t>, std::allocator<std::pair<const std::__cxx11::basic_string<char, std::char_traits<char>, std::allocator<char> >, Cmd::aliasRecord_t> >, std::__detail::_Select1st, Str::IEqual, Str::IHash, std::__detail::_Mod_range_hashing, std::__detail::_Default_ranged_hash, std::__detail::_Prime_rehash_policy, std::__detail::_Hashtable_traits<true, false, true>, true>::operator[]
FUNC d38a0 f8e 0 Cmd::AliasCmd::Run
FUNC d4830 c2 0 std::__cxx11::basic_string<char, std::char_traits<char>, std::allocator<char> >::_M_construct<char*>
FUNC d4900 80 0 Cmd::DefaultEnvironment::Print
FUNC d4980 97 0 Cmd::GetCommandMap
FUNC d4a20 8 0 Cmd::GetCurrentArgs
FUNC d4a30 8 0 Cmd::GetEnv
FUNC d4a40 f 0 Cmd::SetCurrentArgs
FUNC d4a50 13 0 Cmd::SaveArgs
FUNC d4a70 13 0 Cmd::LoadArgs
FUNC d4a90 2c1 0 Cmd::BufferCommandTextInternal
FUNC d4d60 e 0 Cmd::BufferCommandText
FUNC d4d70 b 0 Cmd::BufferCommandTextAfter
FUNC d4d80 20 0 Cmd::DefaultEnvironment::ExecuteAfter
FUNC d4da0 56 0 Cmd::RemoveFlaggedCommands
FUNC d4e00 48 0 Cmd::RemoveSameCommands
FUNC d4e50 2ce 0 Cmd::CompleteCommandNames
FUNC d5120 3f 0 Cmd::ChangeDescription
FUNC d5160 1c 0 Cmd::CommandExists
FUNC d5180 255 0 Cmd::ExecuteCommand
FUNC d53e0 233 0 Cmd::ExecuteCommandBuffer
FUNC d5620 1b8 0 Cmd::CompleteArgument
FUNC d57e0 b4 0 Cmd::RemoveCommand
FUNC d58a0 2d6 0 Cmd::AddCommand
FUNC d5b80 2 0 Cmd::ListCmdsCmd::~ListCmdsCmd
FUNC d5b90 2 0 Cmd::DefaultEnvironment::~DefaultEnvironment
FUNC d5ba0 5 0 Cmd::DefaultEnvironment::~DefaultEnvironment
FUNC d5bb0 5 0 Cmd::ListCmdsCmd::~ListCmdsCmd
FUNC d5bc0 55 0 std::vector<Cmd::BufferEntry, std::allocator<Cmd::BufferEntry> >::~vector
FUNC d5c20 55 0 Cmd::Args::~Args
FUNC d5c80 32 0 std::pair<const std::__cxx11::basic_string<char, std::char_traits<char>, std::allocator<char> >, Cmd::commandRecord_t>::~pair
FUNC d5cc0 16c 0 Cmd::ListCmdsCmd::ListCmdsCmd
FUNC d5e30 cc0 0 Log::Logger::Warn<const std::__cxx11::basic_string<char, std::char_traits<char>, std::allocator<char> >&>
FUNC d6af0 2d4 0 std::vector<std::__cxx11::basic_string<char, std::char_traits<char>, std::allocator<char> >, std::allocator<std::__cxx11::basic_string<char, std::char_traits<char>, std::allocator<char> > > >::operator=
FUNC d6dd0 ce7 0 Log::Logger::Debug<int&, std::__cxx11::basic_string<char, std::char_traits<char>, std::allocator<char> > >
FUNC d7ac0 4cc 0 std::vector<Cmd::BufferEntry, std::allocator<Cmd::BufferEntry> >::_M_insert_aux<Cmd::BufferEntry>
FUNC d7f90 c5 0 std::_Hashtable<std::__cxx11::basic_string<char, std::char_traits<char>, std::allocator<char> >, std::pair<const std::__cxx11::basic_string<char, std::char_traits<char>, std::allocator<char> >, Cmd::commandRecord_t>, std::allocator<std::pair<const std::__cxx11::basic_string<char, std::char_traits<char>, std::allocator<char> >, Cmd::commandRecord_t> >, std::__detail::_Select1st, Str::IEqual, Str::IHash, std::__detail::_Mod_range_hashing, std::__detail::_Default_ranged_hash, std::__detail::_Prime_rehash_policy, std::__detail::_Hashtable_traits<true, false, true> >::_M_erase
FUNC d8060 39 0 std::_Hashtable<std::__cxx11::basic_string<char, std::char_traits<char>, std::allocator<char> >, std::pair<const std::__cxx11::basic_string<char, std::char_traits<char>, std::allocator<char> >, Cmd::commandRecord_t>, std::allocator<std::pair<const std::__cxx11::basic_string<char, std::char_traits<char>, std::allocator<char> >, Cmd::commandRecord_t> >, std::__detail::_Select1st, Str::IEqual, Str::IHash, std::__detail::_Mod_range_hashing, std::__detail::_Default_ranged_hash, std::__detail::_Prime_rehash_policy, std::__detail::_Hashtable_traits<true, false, true> >::erase
FUNC d80a0 6c 0 Cmd::ListCmdsCmd::Complete
FUNC d8110 ea 0 std::vector<const Cmd::commandRecord_t*, std::allocator<const Cmd::commandRecord_t*> >::_M_emplace_back_aux<const Cmd::commandRecord_t*>
FUNC d8200 1c12 0 Cmd::ListCmdsCmd::Run
FUNC d9e20 201 0 std::_Hashtable<std::__cxx11::basic_string<char, std::char_traits<char>, std::allocator<char> >, std::pair<const std::__cxx11::basic_string<char, std::char_traits<char>, std::allocator<char> >, Cmd::commandRecord_t>, std::allocator<std::pair<const std::__cxx11::basic_string<char, std::char_traits<char>, std::allocator<char> >, Cmd::commandRecord_t> >, std::__detail::_Select1st, Str::IEqual, Str::IHash, std::__detail::_Mod_range_hashing, std::__detail::_Default_ranged_hash, std::__detail::_Prime_rehash_policy, std::__detail::_Hashtable_traits<true, false, true> >::_M_insert_unique_node
FUNC da030 c1 0 std::_Hashtable<std::__cxx11::basic_string<char, std::char_traits<char>, std::allocator<char> >, std::pair<const std::__cxx11::basic_string<char, std::char_traits<char>, std::allocator<char> >, Cmd::commandRecord_t>, std::allocator<std::pair<const std::__cxx11::basic_string<char, std::char_traits<char>, std::allocator<char> >, Cmd::commandRecord_t> >, std::__detail::_Select1st, Str::IEqual, Str::IHash, std::__detail::_Mod_range_hashing, std::__detail::_Default_ranged_hash, std::__detail::_Prime_rehash_policy, std::__detail::_Hashtable_traits<true, false, true> >::_M_find_before_node
FUNC da100 a9 0 std::_Hashtable<std::__cxx11::basic_string<char, std::char_traits<char>, std::allocator<char> >, std::pair<const std::__cxx11::basic_string<char, std::char_traits<char>, std::allocator<char> >, Cmd::commandRecord_t>, std::allocator<std::pair<const std::__cxx11::basic_string<char, std::char_traits<char>, std::allocator<char> >, Cmd::commandRecord_t> >, std::__detail::_Select1st, Str::IEqual, Str::IHash, std::__detail::_Mod_range_hashing, std::__detail::_Default_ranged_hash, std::__detail::_Prime_rehash_policy, std::__detail::_Hashtable_traits<true, false, true> >::find
FUNC da1b0 9e 0 std::__detail::_Hashtable_alloc<std::allocator<std::__detail::_Hash_node<std::pair<const std::__cxx11::basic_string<char, std::char_traits<char>, std::allocator<char> >, Cmd::commandRecord_t>, true> > >::_M_allocate_node<const std::pair<const std::__cxx11::basic_string<char, std::char_traits<char>, std::allocator<char> >, Cmd::commandRecord_t>&>
FUNC da250 c2 0 std::__cxx11::basic_string<char, std::char_traits<char>, std::allocator<char> >::_M_construct<char*>
FUNC da320 427 0 VM::CommonVMServices::EnvPrint
FUNC da750 470 0 VM::CommonVMServices::EnvExecuteAfter
FUNC dabc0 d7 0 VM::CommonVMServices::CommonVMServices
FUNC daca0 184 0 VM::CommonVMServices::~CommonVMServices
FUNC dae30 5 0 VM::CommonVMServices::GetVM
FUNC dae40 d3b 0 VM::CommonVMServices::RegisterCvar
FUNC dbb80 5b1 0 VM::CommonVMServices::SetCvar
FUNC dc140 471 0 VM::CommonVMServices::AddCvarFlags
FUNC dc5c0 806 0 VM::CommonVMServices::HandleMiscSyscall
FUNC dcdd0 697 0 IPC::HandleMsg<IPC::SyncMessage<IPC::Message<IPC::Id<1u, 10u>, std::__cxx11::basic_string<char, std::char_traits<char>, std::allocator<char> >, std::__cxx11::basic_string<char, std::char_traits<char>, std::allocator<char> >, int>, IPC::Reply<int, std::__cxx11::basic_string<char, std::char_traits<char>, std::allocator<char> > > >, VM::CommonVMServices::HandleCommonQVMSyscall(int, Util::Reader&, IPC::Channel&)::<lambda(const string&, std::__cxx11::string, int, int&, std::__cxx11::string&)> >
FUNC dd470 537 0 VM::CommonVMServices::GetCvar
FUNC dd9b0 501 0 VM::CommonVMServices::HandleLogSyscall
FUNC ddec0 85 0 VM::CommonVMServices::HandleCvarSyscall
FUNC ddf50 2ee8 0 VM::CommonVMServices::HandleCommonQVMSyscall
FUNC e0e40 452 0 VM::CommonVMServices::RemoveCommand
FUNC e12a0 756 0 VM::CommonVMServices::AddCommand
FUNC e1a00 85 0 VM::CommonVMServices::HandleCommandSyscall
FUNC e1a90 10b 0 VM::CommonVMServices::Syscall
FUNC e1ba0 2 0 VM::CommonVMServices::ProxyCmd::~ProxyCmd
FUNC e1bb0 3 0 tinyformat::detail::FormatArg::toIntImpl<IPC::SyncMessage<IPC::Message<IPC::Id<3u, 0u>, std::__cxx11::basic_string<char, std::char_traits<char>, std::allocator<char> > > >::<anonymous enum> >
FUNC e1bc0 3 0 tinyformat::detail::FormatArg::toIntImpl<IPC::SyncMessage<IPC::Message<IPC::Id<3u, 1u>, int, std::__cxx11::basic_string<char, std::char_traits<char>, std::allocator<char> >, std::__cxx11::basic_string<char, std::char_traits<char>, std::allocator<char> > >, IPC::Reply<std::vector<std::pair<std::__cxx11::basic_string<char, std::char_traits<char>, std::allocator<char> >, std::__cxx11::basic_string<char, std::char_traits<char>, std::allocator<char> > >, std::allocator<std::pair<std::__cxx11::basic_string<char, std::char_traits<char>, std::allocator<char> >, std::__cxx11::basic_string<char, std::char_traits<char>, std::allocator<char> > > > > > >::<anonymous enum> >
FUNC e1bd0 3 0 tinyformat::detail::FormatArg::toIntImpl<IPC::SyncMessage<IPC::Message<IPC::Id<4u, 0u>, std::__cxx11::basic_string<char, std::char_traits<char>, std::allocator<char> >, std::__cxx11::basic_string<char, std::char_traits<char>, std::allocator<char> > >, IPC::Reply<bool, std::__cxx11::basic_string<char, std::char_traits<char>, std::allocator<char> > > >::<anonymous enum> >
FUNC e1be0 5 0 VM::CommonVMServices::ProxyCmd::~ProxyCmd
FUNC e1bf0 54 0 VM::CommonVMServices::ProxyCvar::~ProxyCvar
FUNC e1c50 52 0 VM::CommonVMServices::ProxyCvar::~ProxyCvar
FUNC e1cb0 5d 0 Util::SerializeTraits<std::__cxx11::basic_string<char, std::char_traits<char>, std::allocator<char> >, void>::Read
FUNC e1d10 32 0 std::_Tuple_impl<0ul, std::__cxx11::basic_string<char, std::char_traits<char>, std::allocator<char> >, std::__cxx11::basic_string<char, std::char_traits<char>, std::allocator<char> > >::~_Tuple_impl
FUNC e1d50 1e0 0 std::vector<std::unique_ptr<VM::CommonVMServices::ProxyCvar, std::default_delete<VM::CommonVMServices::ProxyCvar> >, std::allocator<std::unique_ptr<VM::CommonVMServices::ProxyCvar, std::default_delete<VM::CommonVMServices::ProxyCvar> > > >::_M_emplace_back_aux<VM::CommonVMServices::ProxyCvar*>
FUNC e1f30 32 0 std::_Tuple_impl<0ul, std::__cxx11::basic_string<char, std::char_traits<char>, std::allocator<char> >, std::__cxx11::basic_string<char, std::char_traits<char>, std::allocator<char> >, int>::~_Tuple_impl
FUNC e1f70 3f8 0 tinyformat::format<int, std::__cxx11::basic_string<char, std::char_traits<char>, std::allocator<char> > >
FUNC e2370 4f 0 Sys::Drop<int&, std::__cxx11::basic_string<char, std::char_traits<char>, std::allocator<char> >&>
FUNC e23c0 20b 0 std::_Hashtable<std::__cxx11::basic_string<char, std::char_traits<char>, std::allocator<char> >, std::pair<const std::__cxx11::basic_string<char, std::char_traits<char>, std::allocator<char> >, long unsigned int>, std::allocator<std::pair<const std::__cxx11::basic_string<char, std::char_traits<char>, std::allocator<char> >, long unsigned int> >, std::__detail::_Select1st, std::equal_to<std::__cxx11::basic_string<char, std::char_traits<char>, std::allocator<char> > >, std::hash<std::__cxx11::basic_string<char, std::char_traits<char>, std::allocator<char> > >, std::__detail::_Mod_range_hashing, std::__detail::_Default_ranged_hash, std::__detail::_Prime_rehash_policy, std::__detail::_Hashtable_traits<true, false, true> >::_M_insert_unique_node
FUNC e25d0 113 0 Util::Reader::FillTuple<0ul, std::__cxx11::basic_string<char>, std::__cxx11::basic_string<char, std::char_traits<char>, std::allocator<char> >, std::tuple<std::__cxx11::basic_string<char, std::char_traits<char>, std::allocator<char> >, std::__cxx11::basic_string<char, std::char_traits<char>, std::allocator<char> > > >
FUNC e26f0 fb 0 Log::Logger::Warn<std::__cxx11::basic_string<char, std::char_traits<char>, std::allocator<char> >&, std::__cxx11::basic_string<char, std::char_traits<char>, std::allocator<char> >&>
FUNC e27f0 a4 0 std::_Hashtable<std::__cxx11::basic_string<char, std::char_traits<char>, std::allocator<char> >, std::pair<const std::__cxx11::basic_string<char, std::char_traits<char>, std::allocator<char> >, long unsigned int>, std::allocator<std::pair<const std::__cxx11::basic_string<char, std::char_traits<char>, std::allocator<char> >, long unsigned int> >, std::__detail::_Select1st, std::equal_to<std::__cxx11::basic_string<char, std::char_traits<char>, std::allocator<char> > >, std::hash<std::__cxx11::basic_string<char, std::char_traits<char>, std::allocator<char> > >, std::__detail::_Mod_range_hashing, std::__detail::_Default_ranged_hash, std::__detail::_Prime_rehash_policy, std::__detail::_Hashtable_traits<true, false, true> >::_M_find_before_node
FUNC e28a0 3a3 0 tinyformat::format<IPC::SyncMessage<IPC::Message<IPC::Id<3u, 0u>, std::__cxx11::basic_string<char, std::char_traits<char>, std::allocator<char> > > >::<anonymous enum> >
FUNC e2c50 784 0 IPC::detail::SendMsg<VM::VMBase::SendMsg(Args&& ...) [with Msg = IPC::SyncMessage<IPC::Message<IPC::Id<3u, 0u>, std::__cxx11::basic_string<char, std::char_traits<char>, std::allocator<char> > > >; Args = {std::__cxx11::basic_string<char, std::char_traits<char>, std::allocator<char> >}]::<lambda(uint32_t, Util::Reader)>&, IPC::Message<IPC::Id<3u, 0u>, std::__cxx11::basic_string<char, std::char_traits<char>, std::allocator<char> > >, IPC::Reply<>, std::__cxx11::basic_string<char, std::char_traits<char>, std::allocator<char> > >
FUNC e33e0 cb 0 VM::CommonVMServices::ProxyCmd::Run
FUNC e34b0 3a3 0 tinyformat::format<IPC::SyncMessage<IPC::Message<IPC::Id<3u, 1u>, int, std::__cxx11::basic_string<char, std::char_traits<char>, std::allocator<char> >, std::__cxx11::basic_string<char, std::char_traits<char>, std::allocator<char> > >, IPC::Reply<std::vector<std::pair<std::__cxx11::basic_string<char, std::char_traits<char>, std::allocator<char> >, std::__cxx11::basic_string<char, std::char_traits<char>, std::allocator<char> > >, std::allocator<std::pair<std::__cxx11::basic_string<char, std::char_traits<char>, std::allocator<char> >, std::__cxx11::basic_string<char, std::char_traits<char>, std::allocator<char> > > > > > >::<anonymous enum> >
FUNC e3860 3a3 0 tinyformat::format<IPC::SyncMessage<IPC::Message<IPC::Id<4u, 0u>, std::__cxx11::basic_string<char, std::char_traits<char>, std::allocator<char> >, std::__cxx11::basic_string<char, std::char_traits<char>, std::allocator<char> > >, IPC::Reply<bool, std::__cxx11::basic_string<char, std::char_traits<char>, std::allocator<char> > > >::<anonymous enum> >
FUNC e3c10 8d0 0 IPC::detail::SendMsg<VM::VMBase::SendMsg(Args&& ...) [with Msg = IPC::SyncMessage<IPC::Message<IPC::Id<4u, 0u>, std::__cxx11::basic_string<char, std::char_traits<char>, std::allocator<char> >, std::__cxx11::basic_string<char, std::char_traits<char>, std::allocator<char> > >, IPC::Reply<bool, std::__cxx11::basic_string<char, std::char_traits<char>, std::allocator<char> > > >; Args = {std::__cxx11::basic_string<char, std::char_traits<char>, std::allocator<char> >&, Str::BasicStringRef<char>&, bool&, std::__cxx11::basic_string<char, std::char_traits<char>, std::allocator<char> >&}]::<lambda(uint32_t, Util::Reader)>&, IPC::Message<IPC::Id<4u, 0u>, std::__cxx11::basic_string<char, std::char_traits<char>, std::allocator<char> >, std::__cxx11::basic_string<char, std::char_traits<char>, std::allocator<char> > >, IPC::Reply<bool, std::__cxx11::basic_string<char, std::char_traits<char>, std::allocator<char> > >, std::__cxx11::basic_string<char, std::char_traits<char>, std::allocator<char> >&, Str::BasicStringRef<char>&, bool&, std::__cxx11::basic_string<char, std::char_traits<char>, std::allocator<char> >&>
FUNC e44e0 df 0 VM::CommonVMServices::ProxyCvar::OnValueChanged
FUNC e45c0 2b7 0 std::vector<std::pair<std::__cxx11::basic_string<char, std::char_traits<char>, std::allocator<char> >, std::__cxx11::basic_string<char, std::char_traits<char>, std::allocator<char> > >, std::allocator<std::pair<std::__cxx11::basic_string<char, std::char_traits<char>, std::allocator<char> >, std::__cxx11::basic_string<char, std::char_traits<char>, std::allocator<char> > > > >::_M_default_append
FUNC e4880 cc6 0 IPC::detail::SendMsg<VM::VMBase::SendMsg(Args&& ...) [with Msg = IPC::SyncMessage<IPC::Message<IPC::Id<3u, 1u>, int, std::__cxx11::basic_string<char, std::char_traits<char>, std::allocator<char> >, std::__cxx11::basic_string<char, std::char_traits<char>, std::allocator<char> > >, IPC::Reply<std::vector<std::pair<std::__cxx11::basic_string<char, std::char_traits<char>, std::allocator<char> >, std::__cxx11::basic_string<char, std::char_traits<char>, std::allocator<char> > >, std::allocator<std::pair<std::__cxx11::basic_string<char, std::char_traits<char>, std::allocator<char> >, std::__cxx11::basic_string<char, std::char_traits<char>, std::allocator<char> > > > > > >; Args = {int&, std::__cxx11::basic_string<char, std::char_traits<char>, std::allocator<char> >, Str::BasicStringRef<char>&, std::vector<std::pair<std::__cxx11::basic_string<char, std::char_traits<char>, std::allocator<char> >, std::__cxx11::basic_string<char, std::char_traits<char>, std::allocator<char> > >, std::allocator<std::pair<std::__cxx11::basic_string<char, std::char_traits<char>, std::allocator<char> >, std::__cxx11::basic_string<char, std::char_traits<char>, std::allocator<char> > > > >&}]::<lambda(uint32_t, Util::Reader)>&, IPC::Message<IPC::Id<3u, 1u>, int, std::__cxx11::basic_string<char, std::char_traits<char>, std::allocator<char> >, std::__cxx11::basic_string<char, std::char_traits<char>, std::allocator<char> > >, IPC::Reply<std::vector<std::pair<std::__cxx11::basic_string<char, std::char_traits<char>, std::allocator<char> >, std::__cxx11::basic_string<char, std::char_traits<char>, std::allocator<char> > >, std::allocator<std::pair<std::__cxx11::basic_string<char, std::char_traits<char>, std::allocator<char> >, std::__cxx11::basic_string<char, std::char_traits<char>, std::allocator<char> > > > > >, int&, std::__cxx11::basic_string<char, std::char_traits<char>, std::allocator<char> >, Str::BasicStringRef<char>&, std::vector<std::pair<std::__cxx11::basic_string<char, std::char_traits<char>, std::allocator<char> >, std::__cxx11::basic_string<char, std::char_traits<char>, std::allocator<char> > >, std::allocator<std::pair<std::__cxx11::basic_string<char, std::char_traits<char>, std::allocator<char> >, std::__cxx11::basic_string<char, std::char_traits<char>, std::allocator<char> > > > >&>
FUNC e5550 117 0 VM::CommonVMServices::ProxyCmd::Complete
FUNC e5670 3a4 0 tinyformat::detail::formatTruncated<IPC::SyncMessage<IPC::Message<IPC::Id<4u, 0u>, std::__cxx11::basic_string<char, std::char_traits<char>, std::allocator<char> >, std::__cxx11::basic_string<char, std::char_traits<char>, std::allocator<char> > >, IPC::Reply<bool, std::__cxx11::basic_string<char, std::char_traits<char>, std::allocator<char> > > >::<anonymous enum> >
FUNC e5a20 6d 0 tinyformat::detail::FormatArg::formatImpl<IPC::SyncMessage<IPC::Message<IPC::Id<4u, 0u>, std::__cxx11::basic_string<char, std::char_traits<char>, std::allocator<char> >, std::__cxx11::basic_string<char, std::char_traits<char>, std::allocator<char> > >, IPC::Reply<bool, std::__cxx11::basic_string<char, std::char_traits<char>, std::allocator<char> > > >::<anonymous enum> >
FUNC e5a90 6d 0 tinyformat::detail::FormatArg::formatImpl<IPC::SyncMessage<IPC::Message<IPC::Id<3u, 0u>, std::__cxx11::basic_string<char, std::char_traits<char>, std::allocator<char> > > >::<anonymous enum> >
FUNC e5b00 6d 0 tinyformat::detail::FormatArg::formatImpl<IPC::SyncMessage<IPC::Message<IPC::Id<3u, 1u>, int, std::__cxx11::basic_string<char, std::char_traits<char>, std::allocator<char> >, std::__cxx11::basic_string<char, std::char_traits<char>, std::allocator<char> > >, IPC::Reply<std::vector<std::pair<std::__cxx11::basic_string<char, std::char_traits<char>, std::allocator<char> >, std::__cxx11::basic_string<char, std::char_traits<char>, std::allocator<char> > >, std::allocator<std::pair<std::__cxx11::basic_string<char, std::char_traits<char>, std::allocator<char> >, std::__cxx11::basic_string<char, std::char_traits<char>, std::allocator<char> > > > > > >::<anonymous enum> >
FUNC e5b70 57 0 Sys::CrashDumpPath
FUNC e5bd0 c2 0 std::__cxx11::basic_string<char, std::char_traits<char>, std::allocator<char> >::_M_construct<char*>
FUNC e5ca0 4f3 0 Sys::BreakpadInitInternal
FUNC e61a0 11b 0 Sys::BreakpadInit
FUNC e62c0 1c2 0 Sys::CreateCrashDumpPath
FUNC e6490 2f3 0 Sys::NaclCrashDump
FUNC e6790 22 0 std::unique_ptr<google_breakpad::ExceptionHandler, std::default_delete<google_breakpad::ExceptionHandler> >::~unique_ptr
FUNC e67c0 cc0 0 Log::Logger::Warn<char*>
FUNC e7480 d17 0 Log::Logger::Debug<char const*, char const*, char const*>
FUNC e81a0 eb 0 Log::Logger::Debug<std::__cxx11::basic_string<char, std::char_traits<char>, std::allocator<char> > >
FUNC e8290 f8 0 Log::Logger::Notice<std::__cxx11::basic_string<char, std::char_traits<char>, std::allocator<char> >&>
FUNC e8390 c2 0 std::__cxx11::basic_string<char, std::char_traits<char>, std::allocator<char> >::_M_construct<char*>
FUNC e8460 97 0 Cvar::GetCvarMap
FUNC e8500 d4 0 Cvar::Shutdown
FUNC e85e0 63 0 Cvar::InfoString
FUNC e8650 14b 0 Cvar::Raw
FUNC e87a0 10f1 0 Cvar::GetCvarConfigText
FUNC e98a0 d49 0 Cvar::ChangeCvarDescription
FUNC ea5f0 db6 0 Cvar::SetCStyleDescription
FUNC eb3b0 156 0 Cvar::GetCCvar
FUNC eb510 16c 0 Cvar::SetCCvar
FUNC eb680 152 0 Cvar::SetLatchedValues
FUNC eb7e0 187 0 Cvar::SetCheatsAllowed
FUNC eb970 279 0 Cvar::Complete
FUNC ebbf0 73 0 Cvar::GetValue
FUNC ebc70 31 0 Cvar::Unregister
FUNC ebcb0 b9 0 Cvar::AddFlags
FUNC ebd70 49 0 Cvar::ClearFlags
FUNC ebdc0 2c 0 Cvar::FindCCvar
FUNC ebdf0 1205 0 Cvar::InternalSetValue
FUNC ed000 9a 0 Cvar::SetValue
FUNC ed0a0 9d 0 Cvar::SetValueForce
FUNC ed140 9a 0 Cvar::SetValueCProxy
FUNC ed1e0 559 0 Cvar::Register
FUNC ed740 1dc 0 Cvar::PopulateInfoMap
FUNC ed920 2 0 Cvar::ListCvars::~ListCvars
FUNC ed930 2 0 Cvar::ResetCmd::~ResetCmd
FUNC ed940 2 0 Cvar::SetCmd::~SetCmd
FUNC ed950 2 0 Cvar::CvarCommand::~CvarCommand
FUNC ed960 5 0 Cvar::CvarCommand::~CvarCommand
FUNC ed970 5 0 Cvar::ListCvars::~ListCvars
FUNC ed980 5 0 Cvar::ResetCmd::~ResetCmd
FUNC ed990 5 0 Cvar::SetCmd::~SetCmd
FUNC ed9a0 45 0 __tcf_0
FUNC ed9f0 10b 0 Cvar::SetCmd::SetCmd
FUNC edb00 fc 0 Cvar::ResetCmd::ResetCmd
FUNC edc00 fc 0 Cvar::ListCvars::ListCvars
FUNC edd00 d10 0 Log::Logger::Notice<std::__cxx11::basic_string<char, std::char_traits<char>, std::allocator<char> >&, const std::__cxx11::basic_string<char, std::char_traits<char>, std::allocator<char> >&, std::__cxx11::basic_string<char, std::char_traits<char>, std::allocator<char> >&>
FUNC eea10 ea 0 std::vector<Cvar::cvarRecord_t*, std::allocator<Cvar::cvarRecord_t*> >::_M_emplace_back_aux<Cvar::cvarRecord_t* const&>
FUNC eeb00 20b 0 std::_Hashtable<std::__cxx11::basic_string<char, std::char_traits<char>, std::allocator<char> >, std::pair<const std::__cxx11::basic_string<char, std::char_traits<char>, std::allocator<char> >, Cvar::cvarRecord_t*>, std::allocator<std::pair<const std::__cxx11::basic_string<char, std::char_traits<char>, std::allocator<char> >, Cvar::cvarRecord_t*> >, std::__detail::_Select1st, Str::IEqual, Str::IHash, std::__detail::_Mod_range_hashing, std::__detail::_Default_ranged_hash, std::__detail::_Prime_rehash_policy, std::__detail::_Hashtable_traits<true, false, true> >::_M_insert_unique_node
FUNC eed10 c6a 0 tinyformat::format<char const*, char const*, char const*>
FUNC ef980 fe 0 Log::Logger::Notice<char const*, char const*, char const*>
FUNC efa80 213 0 Cvar::ListCvars::Complete
FUNC efca0 6c 0 Cvar::ResetCmd::Complete
FUNC efd10 6c 0 Cvar::SetCmd::Complete
FUNC efd80 caf 0 tinyformat::format<long unsigned int, std::__cxx11::basic_string<char, std::char_traits<char>, std::allocator<char> >, std::__cxx11::basic_string<char, std::char_traits<char>, std::allocator<char> >, std::__cxx11::basic_string<char, std::char_traits<char>, std::allocator<char> > >
FUNC f0a30 cb 0 Cmd::CmdBase::Print<long unsigned int&, const std::__cxx11::basic_string<char, std::char_traits<char>, std::allocator<char> >&, std::__cxx11::basic_string<char, std::char_traits<char>, std::allocator<char> >&, std::__cxx11::basic_string<char, std::char_traits<char>, std::allocator<char> >&>
FUNC f0b00 15cb 0 Cvar::ListCvars::Run
FUNC f20d0 c1 0 std::_Hashtable<std::__cxx11::basic_string<char, std::char_traits<char>, std::allocator<char> >, std::pair<const std::__cxx11::basic_string<char, std::char_traits<char>, std::allocator<char> >, Cvar::cvarRecord_t*>, std::allocator<std::pair<const std::__cxx11::basic_string<char, std::char_traits<char>, std::allocator<char> >, Cvar::cvarRecord_t*> >, std::__detail::_Select1st, Str::IEqual, Str::IHash, std::__detail::_Mod_range_hashing, std::__detail::_Default_ranged_hash, std::__detail::_Prime_rehash_policy, std::__detail::_Hashtable_traits<true, false, true> >::_M_find_before_node
FUNC f21a0 a9 0 std::_Hashtable<std::__cxx11::basic_string<char, std::char_traits<char>, std::allocator<char> >, std::pair<const std::__cxx11::basic_string<char, std::char_traits<char>, std::allocator<char> >, Cvar::cvarRecord_t*>, std::allocator<std::pair<const std::__cxx11::basic_string<char, std::char_traits<char>, std::allocator<char> >, Cvar::cvarRecord_t*> >, std::__detail::_Select1st, Str::IEqual, Str::IHash, std::__detail::_Mod_range_hashing, std::__detail::_Default_ranged_hash, std::__detail::_Prime_rehash_policy, std::__detail::_Hashtable_traits<true, false, true> >::find
FUNC f2250 129 0 std::__detail::_Map_base<std::__cxx11::basic_string<char, std::char_traits<char>, std::allocator<char> >, std::pair<const std::__cxx11::basic_string<char, std::char_traits<char>, std::allocator<char> >, Cvar::cvarRecord_t*>, std::allocator<std::pair<const std::__cxx11::basic_string<char, std::char_traits<char>, std::allocator<char> >, Cvar::cvarRecord_t*> >, std::__detail::_Select1st, Str::IEqual, Str::IHash, std::__detail::_Mod_range_hashing, std::__detail::_Default_ranged_hash, std::__detail::_Prime_rehash_policy, std::__detail::_Hashtable_traits<true, false, true>, true>::operator[]
FUNC f2380 17a 0 Cvar::ResetCmd::Run
FUNC f2500 e5 0 Cvar::SetCmd::Run
FUNC f25f0 139 0 Cvar::CvarCommand::Run
FUNC f2730 68 0 __tcf_0
FUNC f27a0 c2 0 std::__cxx11::basic_string<char, std::char_traits<char>, std::allocator<char> >::_M_construct<char*>
FUNC f2870 f 0 Log::RegisterTarget
FUNC f2880 b 0 Log::Target::Target
FUNC f2890 f 0 Log::Target::Register
FUNC f28a0 234 0 Log::Dispatch
FUNC f2ae0 299 0 Log::OpenLogFile
FUNC f2d80 2 0 Log::TTYTarget::~TTYTarget
FUNC f2d90 5 0 Log::TTYTarget::~TTYTarget
FUNC f2da0 41 0 Log::TTYTarget::Process
FUNC f2df0 5a 0 Log::LogFileTarget::~LogFileTarget
FUNC f2e50 62 0 Log::LogFileTarget::~LogFileTarget
FUNC f2ec0 211 0 std::vector<Log::Event, std::allocator<Log::Event> >::_M_emplace_back_aux<const Log::Event&>
FUNC f30e0 de 0 Log::LogFileTarget::Process
FUNC f31c0 c4a 0 tinyformat::format<std::__cxx11::basic_string<char, std::char_traits<char>, std::allocator<char> >, char const*>
FUNC f3e10 b4 0 Sys::SignalThread
FUNC f3ed0 c2 0 std::__cxx11::basic_string<char, std::char_traits<char>, std::allocator<char> >::_M_construct<char*>
FUNC f3fa0 39 0 std::__cxx11::basic_string<char, std::char_traits<char>, std::allocator<char> >::basic_string
FUNC f3fe0 3ed 0 Sys::GetSingletonSocketPath
FUNC f43d0 174 0 Sys::CloseSingletonSocket
FUNC f4550 2f 0 Sys::Quit
FUNC f4580 80 0 Sys::Error
FUNC f4600 178 0 Sys::SignalHandler
FUNC f4780 134 0 Sys::ReadSingletonSocketCommands
FUNC f48c0 95 0 Sys::ReadSingletonSocket
FUNC f4960 b7 0 Sys::EarlyCvar
FUNC f4a20 1769 0 Sys::Init
FUNC f6190 2 0 Util::optional<std::chrono::time_point<std::chrono::_V2::steady_clock, std::chrono::duration<long int, std::ratio<1l, 1000000000l> > > >::~optional
FUNC f61a0 2 0 Sys::QuitCmd::~QuitCmd
FUNC f61b0 2 0 std::_Sp_counted_ptr_inplace<std::thread::_Impl<std::_Bind_simple<void (*())()> >, std::allocator<std::thread::_Impl<std::_Bind_simple<void (*())()> > >, (__gnu_cxx::_Lock_policy)2u>::~_Sp_counted_ptr_inplace
FUNC f61c0 d 0 std::_Sp_counted_ptr_inplace<std::thread::_Impl<std::_Bind_simple<void (*())()> >, std::allocator<std::thread::_Impl<std::_Bind_simple<void (*())()> > >, (__gnu_cxx::_Lock_policy)2u>::_M_dispose
FUNC f61d0 3 0 std::thread::_Impl<std::_Bind_simple<void (*())()> >::_M_run
FUNC f61e0 5 0 Sys::QuitCmd::~QuitCmd
FUNC f61f0 5 0 std::_Sp_counted_ptr_inplace<std::thread::_Impl<std::_Bind_simple<void (*())()> >, std::allocator<std::thread::_Impl<std::_Bind_simple<void (*())()> > >, (__gnu_cxx::_Lock_policy)2u>::~_Sp_counted_ptr_inplace
FUNC f6200 5 0 std::_Sp_counted_ptr_inplace<std::thread::_Impl<std::_Bind_simple<void (*())()> >, std::allocator<std::thread::_Impl<std::_Bind_simple<void (*())()> > >, (__gnu_cxx::_Lock_policy)2u>::_M_destroy
FUNC f6210 29 0 std::_Sp_counted_ptr_inplace<std::thread::_Impl<std::_Bind_simple<void (*())()> >, std::allocator<std::thread::_Impl<std::_Bind_simple<void (*())()> > >, (__gnu_cxx::_Lock_policy)2u>::_M_get_deleter
FUNC f6240 7d 0 std::thread::_Impl<std::_Bind_simple<void (*())()> >::~_Impl
FUNC f62c0 8b 0 std::thread::_Impl<std::_Bind_simple<void (*())()> >::~_Impl
FUNC f6350 fc 0 Sys::QuitCmd::QuitCmd
FUNC f6450 11d 0 Sys::cmdlineArgs_t::~cmdlineArgs_t
FUNC f6570 62 0 std::operator+<char, std::char_traits<char>, std::allocator<char> >
FUNC f65e0 56 0 Sys::QuitCmd::Run
FUNC f6640 13a 0 std::thread::thread<void (&)()>
FUNC f6780 251 0 std::vector<std::__cxx11::basic_string<char, std::char_traits<char>, std::allocator<char> >, std::allocator<std::__cxx11::basic_string<char, std::char_traits<char>, std::allocator<char> > > >::emplace_back<std::__cxx11::basic_string<char, std::char_traits<char>, std::allocator<char> > >
FUNC f69e0 c4a 0 tinyformat::format<char const*, std::__cxx11::basic_string<char, std::char_traits<char>, std::allocator<char> > >
FUNC f7630 4f 0 Sys::Error<char*>
FUNC f7680 21f 0 std::_Hashtable<std::__cxx11::basic_string<char, std::char_traits<char>, std::allocator<char> >, std::pair<const std::__cxx11::basic_string<char, std::char_traits<char>, std::allocator<char> >, std::__cxx11::basic_string<char, std::char_traits<char>, std::allocator<char> > >, std::allocator<std::pair<const std::__cxx11::basic_string<char, std::char_traits<char>, std::allocator<char> >, std::__cxx11::basic_string<char, std::char_traits<char>, std::allocator<char> > > >, std::__detail::_Select1st, std::equal_to<std::__cxx11::basic_string<char, std::char_traits<char>, std::allocator<char> > >, std::hash<std::__cxx11::basic_string<char, std::char_traits<char>, std::allocator<char> > >, std::__detail::_Mod_range_hashing, std::__detail::_Default_ranged_hash, std::__detail::_Prime_rehash_policy, std::__detail::_Hashtable_traits<true, false, true> >::_M_insert_unique_node
FUNC f78a0 3e2 0 std::vector<std::__cxx11::basic_string<char, std::char_traits<char>, std::allocator<char> >, std::allocator<std::__cxx11::basic_string<char, std::char_traits<char>, std::allocator<char> > > >::_M_insert_aux<std::__cxx11::basic_string<char, std::char_traits<char>, std::allocator<char> > >
FUNC f7c90 4f 0 Sys::Error<const std::__cxx11::basic_string<char, std::char_traits<char>, std::allocator<char> >&>
FUNC f7ce0 4f 0 Sys::Error<char const*, char const*>
FUNC f7d30 a4 0 std::_Hashtable<std::__cxx11::basic_string<char, std::char_traits<char>, std::allocator<char> >, std::pair<const std::__cxx11::basic_string<char, std::char_traits<char>, std::allocator<char> >, std::__cxx11::basic_string<char, std::char_traits<char>, std::allocator<char> > >, std::allocator<std::pair<const std::__cxx11::basic_string<char, std::char_traits<char>, std::allocator<char> >, std::__cxx11::basic_string<char, std::char_traits<char>, std::allocator<char> > > >, std::__detail::_Select1st, std::equal_to<std::__cxx11::basic_string<char, std::char_traits<char>, std::allocator<char> > >, std::hash<std::__cxx11::basic_string<char, std::char_traits<char>, std::allocator<char> > >, std::__detail::_Mod_range_hashing, std::__detail::_Default_ranged_hash, std::__detail::_Prime_rehash_policy, std::__detail::_Hashtable_traits<true, false, true> >::_M_find_before_node
FUNC f7de0 2 0 std::_Sp_counted_ptr_inplace<std::thread::_Impl<std::_Bind_simple<VM::CreateInProcessNativeVM(std::pair<IPC::Socket, IPC::Socket>, Str::StringRef, VM::VMBase::InProcessInfo&)::<lambda()>()> >, std::allocator<std::thread::_Impl<std::_Bind_simple<VM::CreateInProcessNativeVM(std::pair<IPC::Socket, IPC::Socket>, Str::StringRef, VM::VMBase::InProcessInfo&)::<lambda()>()> > >, (__gnu_cxx::_Lock_policy)2u>::~_Sp_counted_ptr_inplace
FUNC f7df0 5 0 std::_Sp_counted_ptr_inplace<std::thread::_Impl<std::_Bind_simple<VM::CreateInProcessNativeVM(std::pair<IPC::Socket, IPC::Socket>, Str::StringRef, VM::VMBase::InProcessInfo&)::<lambda()>()> >, std::allocator<std::thread::_Impl<std::_Bind_simple<VM::CreateInProcessNativeVM(std::pair<IPC::Socket, IPC::Socket>, Str::StringRef, VM::VMBase::InProcessInfo&)::<lambda()>()> > >, (__gnu_cxx::_Lock_policy)2u>::_M_destroy
FUNC f7e00 5 0 std::_Sp_counted_ptr_inplace<std::thread::_Impl<std::_Bind_simple<VM::CreateInProcessNativeVM(std::pair<IPC::Socket, IPC::Socket>, Str::StringRef, VM::VMBase::InProcessInfo&)::<lambda()>()> >, std::allocator<std::thread::_Impl<std::_Bind_simple<VM::CreateInProcessNativeVM(std::pair<IPC::Socket, IPC::Socket>, Str::StringRef, VM::VMBase::InProcessInfo&)::<lambda()>()> > >, (__gnu_cxx::_Lock_policy)2u>::~_Sp_counted_ptr_inplace
FUNC f7e10 29 0 std::_Sp_counted_ptr_inplace<std::thread::_Impl<std::_Bind_simple<VM::CreateInProcessNativeVM(std::pair<IPC::Socket, IPC::Socket>, Str::StringRef, VM::VMBase::InProcessInfo&)::<lambda()>()> >, std::allocator<std::thread::_Impl<std::_Bind_simple<VM::CreateInProcessNativeVM(std::pair<IPC::Socket, IPC::Socket>, Str::StringRef, VM::VMBase::InProcessInfo&)::<lambda()>()> > >, (__gnu_cxx::_Lock_policy)2u>::_M_get_deleter
FUNC f7e40 c2 0 std::__cxx11::basic_string<char, std::char_traits<char>, std::allocator<char> >::_M_construct<char*>
FUNC f7f10 6e 0 std::thread::_Impl<std::_Bind_simple<VM::CreateInProcessNativeVM(std::pair<IPC::Socket, IPC::Socket>, Str::StringRef, VM::VMBase::InProcessInfo&)::<lambda()>()> >::_M_run
FUNC f7f80 7d 0 std::thread::_Impl<std::_Bind_simple<VM::CreateInProcessNativeVM(std::pair<IPC::Socket, IPC::Socket>, Str::StringRef, VM::VMBase::InProcessInfo&)::<lambda()>()> >::~_Impl
FUNC f8000 7d 0 std::_Sp_counted_ptr_inplace<std::thread::_Impl<std::_Bind_simple<VM::CreateInProcessNativeVM(std::pair<IPC::Socket, IPC::Socket>, Str::StringRef, VM::VMBase::InProcessInfo&)::<lambda()>()> >, std::allocator<std::thread::_Impl<std::_Bind_simple<VM::CreateInProcessNativeVM(std::pair<IPC::Socket, IPC::Socket>, Str::StringRef, VM::VMBase::InProcessInfo&)::<lambda()>()> > >, (__gnu_cxx::_Lock_policy)2u>::_M_dispose
FUNC f8080 8b 0 std::thread::_Impl<std::_Bind_simple<VM::CreateInProcessNativeVM(std::pair<IPC::Socket, IPC::Socket>, Str::StringRef, VM::VMBase::InProcessInfo&)::<lambda()>()> >::~_Impl
FUNC f8110 16a 0 VM::VMBase::FreeInProcessVM
FUNC f8280 218 0 VM::InternalLoadModule
FUNC f84a0 f36 0 VM::CreateNaClVM
FUNC f93e0 423 0 VM::CreateNativeVM
FUNC f9810 578 0 VM::CreateInProcessNativeVM
FUNC f9d90 16a 0 VM::VMBase::LogMessage
FUNC f9f00 33c 0 VM::VMBase::Free
FUNC fa240 808 0 VM::VMBase::Create
FUNC faa50 3 0 tinyformat::detail::FormatArg::toIntImpl<VM::vmType_t>
FUNC faa60 cf0 0 Log::Logger::Warn<int, char*>
FUNC fb750 4f 0 Sys::Drop<char*>
FUNC fb7a0 ea 0 std::vector<char const*, std::allocator<char const*> >::_M_emplace_back_aux<char const*>
FUNC fb890 2d 0 std::vector<char const*, std::allocator<char const*> >::emplace_back<char const*>
FUNC fb8c0 4f 0 Sys::Drop<std::__cxx11::basic_string<char, std::char_traits<char>, std::allocator<char> >&, std::__cxx11::basic_string<char, std::char_traits<char>, std::allocator<char> >&>
FUNC fb910 fb 0 Log::Logger::Warn<std::__cxx11::basic_string<char, std::char_traits<char>, std::allocator<char> >&, std::__cxx11::basic_string<char, std::char_traits<char>, std::allocator<char> > >
FUNC fba10 c1a 0 tinyformat::format<VM::vmType_t>
FUNC fc630 cc5 0 tinyformat::format<char const*, char const*, int, int, long unsigned int>
FUNC fd300 f8 0 Log::Logger::Notice<int>
FUNC fd400 3a4 0 tinyformat::detail::formatTruncated<VM::vmType_t>
FUNC fd7b0 6d 0 tinyformat::detail::FormatArg::formatImpl<VM::vmType_t>
FUNC fd820 93 0 Crypto::RandomData
FUNC fd8c0 d2 0 Crypto::Hash::Sha256
FUNC fd9a0 c2 0 Crypto::Hash::Md5
FUNC fda70 1a4 0 Crypto::Encoding::HexDecode
FUNC fdc20 116 0 Crypto::Encoding::HexEncode
FUNC fdd40 10b 0 Crypto::Encoding::Base64Encode
FUNC fde50 151 0 Crypto::Encoding::Base64Decode
FUNC fdfb0 77 0 Crypto::AddPadding
FUNC fe030 11b 0 Crypto::Aes256Decrypt
FUNC fe150 143 0 Crypto::Aes256Encrypt
FUNC fe2a0 11a 0 std::vector<unsigned char, std::allocator<unsigned char> >::operator=
FUNC fe3c0 d5 0 std::vector<unsigned char, std::allocator<unsigned char> >::emplace_back<unsigned char>
FUNC fe4a0 54 0 std::vector<unsigned char, std::allocator<unsigned char> >::_M_erase
FUNC fe500 265 0 std::vector<unsigned char, std::allocator<unsigned char> >::_M_fill_insert
FUNC fe770 14d 0 Rcon::Message::Message
FUNC fe8c0 a0 0 Rcon::Message::Message
FUNC fe960 12f 0 Rcon::Message::Valid
FUNC fea90 69 0 std::__cxx11::basic_string<unsigned char, std::char_traits<unsigned char>, std::allocator<unsigned char> >::_M_create
FUNC feb00 c2 0 std::__cxx11::basic_string<char, std::char_traits<char>, std::allocator<char> >::_M_construct<char*>
FUNC febd0 47 0 Net::GetPort
FUNC fec20 42d 0 Net::AddressToString
FUNC ff050 5d6 0 Net::OutOfBandData
FUNC ff630 16f 0 std::__cxx11::basic_string<unsigned char, std::char_traits<unsigned char>, std::allocator<unsigned char> >::_M_mutate
FUNC ff7a0 286 0 std::__cxx11::basic_string<unsigned char, std::char_traits<unsigned char>, std::allocator<unsigned char> >::_M_replace
FUNC ffa30 7a3 0 MD5Transform
FUNC 1001e0 ab 0 MD5Final
FUNC 100290 123 0 MD5Update
FUNC 1003c0 c2 0 Com_MD5Buffer
FUNC 100490 8c 0 Com_BlockChecksum
FUNC 100520 c2 0 std::__cxx11::basic_string<char, std::char_traits<char>, std::allocator<char> >::_M_construct<char*>
FUNC 1005f0 1f2 0 Color::To4bit
FUNC 1007f0 c2 0 std::__cxx11::basic_string<char, std::char_traits<char>, std::allocator<char> >::_M_construct<char*>
FUNC 1008c0 27d 0 CON_Init_TTY
FUNC 100b40 5 0 CON_SigCont
FUNC 100b50 862 0 CON_AnsiColorPrint
FUNC 1013c0 d85 0 WriteToStdout
FUNC 102150 53 0 CON_Shutdown_TTY
FUNC 1021b0 6a 0 CON_Hide
FUNC 102220 a9 0 CON_Show
FUNC 1022d0 3e 0 CON_Print_TTY
FUNC 102310 37b 0 CON_Input_TTY
FUNC 102690 32 0 Console::Field::~Field
FUNC 1026d0 8 0 CON_Resize
FUNC 1026e0 3e 0 CON_SetColor
FUNC 102720 c2 0 std::__cxx11::basic_string<char, std::char_traits<char>, std::allocator<char> >::_M_construct<char*>
FUNC 1027f0 4ac 0 CON_ColorPrint
FUNC 102ca0 89 0 CON_UpdateClock
FUNC 102d30 3cf 0 CON_Redraw
FUNC 103100 4d 0 CON_Shutdown
FUNC 103150 188 0 CON_Init
FUNC 1032e0 1a1 0 CON_Print
FUNC 103490 14d5 0 CON_Input
FUNC 104970 1b 0 Color::detail::Indexed
FUNC 104990 43a 0 Color::detail::ToString
FUNC 104dd0 397 0 Color::TokenIterator::NextToken
FUNC 105170 2ec 0 Color::StripColors
FUNC 105460 148 0 Color::StrlenNocolor
FUNC 1055b0 15d 0 Color::StripColors
FUNC 105710 282 0 Color::StripColors
FUNC 1059a0 2b 0 Util::LineEditData::LineEditData
FUNC 1059e0 4 0 Util::LineEditData::GetText
FUNC 1059f0 b 0 Util::LineEditData::GetViewText
FUNC 105a00 4 0 Util::LineEditData::GetViewStartPos
FUNC 105a10 4 0 Util::LineEditData::GetCursorPos
FUNC 105a20 7 0 Util::LineEditData::GetViewCursorPos
FUNC 105a30 182 0 Util::LineEditData::SetText
FUNC 105bc0 f 0 Util::LineEditData::CursorStart
FUNC 105bd0 40 0 Util::LineEditData::SwapWithNext
FUNC 105c10 20 0 Util::LineEditData::Clear
FUNC 105c30 4 0 Util::LineEditData::GetWidth
FUNC 105c40 3d 0 Util::LineEditData::UpdateScroll
FUNC 105c80 11 0 Util::LineEditData::CursorRight
FUNC 105ca0 9 0 Util::LineEditData::CursorEnd
FUNC 105cb0 5 0 Util::LineEditData::SetCursor
FUNC 105cc0 19 0 Util::LineEditData::CursorLeft
FUNC 105ce0 12 0 Util::LineEditData::SetWidth
FUNC 105d00 22e 0 Util::LineEditData::AddChar
FUNC 105f30 5e 0 Util::LineEditData::DeletePrev
FUNC 105f90 3a 0 Util::LineEditData::DeleteNext
FUNC 105fd0 6a 0 std::__cxx11::basic_string<char32_t, std::char_traits<char32_t>, std::allocator<char32_t> >::_M_erase
FUNC 106040 81 0 std::__cxx11::basic_string<char32_t, std::char_traits<char32_t>, std::allocator<char32_t> >::_M_create
FUNC 1060d0 c2 0 std::__cxx11::basic_string<char, std::char_traits<char>, std::allocator<char> >::_M_construct<char*>
FUNC 1061a0 30b 0 std::__unguarded_linear_insert<__gnu_cxx::__normal_iterator<std::pair<std::__cxx11::basic_string<char>, std::__cxx11::basic_string<char> >*, std::vector<std::pair<std::__cxx11::basic_string<char>, std::__cxx11::basic_string<char> > > >, __gnu_cxx::__ops::_Val_less_iter>
FUNC 1064b0 3f 0 Console::Field::Field
FUNC 1064f0 db 0 Console::Field::HistoryPrev
FUNC 1065d0 db 0 Console::Field::HistoryNext
FUNC 1066b0 346 0 Console::Field::RunCommand
FUNC 106a00 eef 0 std::__introsort_loop<__gnu_cxx::__normal_iterator<std::pair<std::__cxx11::basic_string<char>, std::__cxx11::basic_string<char> >*, std::vector<std::pair<std::__cxx11::basic_string<char>, std::__cxx11::basic_string<char> > > >, long int, __gnu_cxx::__ops::_Iter_less_iter>
FUNC 1078f0 2448 0 Console::Field::AutoComplete
FUNC 109d40 12e 0 std::__unique<__gnu_cxx::__normal_iterator<std::pair<std::__cxx11::basic_string<char>, std::__cxx11::basic_string<char> >*, std::vector<std::pair<std::__cxx11::basic_string<char>, std::__cxx11::basic_string<char> > > >, __gnu_cxx::__ops::_Iter_equal_to_iter>
FUNC 109e70 16f 0 std::__cxx11::basic_string<char32_t, std::char_traits<char32_t>, std::allocator<char32_t> >::_M_mutate
FUNC 109fe0 2e5 0 std::__cxx11::basic_string<char32_t, std::char_traits<char32_t>, std::allocator<char32_t> >::_M_replace
FUNC 10a2d0 353 0 std::__insertion_sort<__gnu_cxx::__normal_iterator<std::pair<std::__cxx11::basic_string<char>, std::__cxx11::basic_string<char> >*, std::vector<std::pair<std::__cxx11::basic_string<char>, std::__cxx11::basic_string<char> > > >, __gnu_cxx::__ops::_Iter_less_iter>
FUNC 10a630 62e 0 std::__adjust_heap<__gnu_cxx::__normal_iterator<std::pair<std::__cxx11::basic_string<char>, std::__cxx11::basic_string<char> >*, std::vector<std::pair<std::__cxx11::basic_string<char>, std::__cxx11::basic_string<char> > > >, long int, std::pair<std::__cxx11::basic_string<char>, std::__cxx11::basic_string<char> >, __gnu_cxx::__ops::_Iter_less_iter>
FUNC 10ac60 c2 0 std::__cxx11::basic_string<char, std::char_traits<char>, std::allocator<char> >::_M_construct<char*>
FUNC 10ad30 1c 0 Console::History::History
FUNC 10ad50 4e 0 Console::History::GetFilename
FUNC 10ada0 16b 0 Console::History::PrevLine
FUNC 10af10 124 0 Console::History::NextLine
FUNC 10b040 29e 0 Console::History::Save
FUNC 10b2e0 3b7 0 Console::History::Load
FUNC 10b6a0 1ba 0 Console::History::Add
FUNC 10b860 31 0 std::unique_lock<std::mutex>::unlock
FUNC 10b8a0 cf0 0 Log::Logger::Warn<std::__cxx11::basic_string<char, std::char_traits<char>, std::allocator<char> >, char const*>
FUNC 10c590 259 0 std::vector<std::__cxx11::basic_string<char, std::char_traits<char>, std::allocator<char> >, std::allocator<std::__cxx11::basic_string<char, std::char_traits<char>, std::allocator<char> > > >::_M_emplace_back_aux<std::__cxx11::basic_string<char, std::char_traits<char>, std::allocator<char> >&, long unsigned int&, long unsigned int>
FUNC 10c7f0 293 0 accumulate_locstring
FUNC 10ca90 24 0 accumulate_env
FUNC 10cac0 184 0 FL_FindLocale
FUNC 10cc50 57 0 FL_FreeLocale
FUNC 10ccb0 c2 0 std::__cxx11::basic_string<char, std::char_traits<char>, std::allocator<char> >::_M_construct<char*>
FUNC 10cd80 23 0 tinygettext::Dictionary::get_charset
FUNC 10cdb0 16 0 tinygettext::Dictionary::set_plural_forms
FUNC 10cdd0 f 0 tinygettext::Dictionary::get_plural_forms
FUNC 10cde0 ad 0 tinygettext::Dictionary::Dictionary
FUNC 10ce90 30 0 tinygettext::Dictionary::~Dictionary
FUNC 10cec0 3e4 0 tinygettext::Dictionary::translate_plural
FUNC 10d2b0 47 0 tinygettext::Dictionary::translate_plural
FUNC 10d300 185 0 tinygettext::Dictionary::translate
FUNC 10d490 41 0 tinygettext::Dictionary::translate
FUNC 10d4e0 175 0 tinygettext::Dictionary::translate_ctxt
FUNC 10d660 1b7 0 tinygettext::Dictionary::translate_ctxt_plural
FUNC 10d820 2cc 0 tinygettext::Dictionary::add_translation
FUNC 10daf0 33a 0 tinygettext::Dictionary::add_translation
FUNC 10de30 439 0 tinygettext::Dictionary::add_translation
FUNC 10e270 442 0 tinygettext::Dictionary::add_translation
FUNC 10e6c0 a2 0 std::_Rb_tree<std::__cxx11::basic_string<char, std::char_traits<char>, std::allocator<char> >, std::pair<const std::__cxx11::basic_string<char, std::char_traits<char>, std::allocator<char> >, std::vector<std::__cxx11::basic_string<char, std::char_traits<char>, std::allocator<char> >, std::allocator<std::__cxx11::basic_string<char, std::char_traits<char>, std::allocator<char> > > > >, std::_Select1st<std::pair<const std::__cxx11::basic_string<char, std::char_traits<char>, std::allocator<char> >, std::vector<std::__cxx11::basic_string<char, std::char_traits<char>, std::allocator<char> >, std::allocator<std::__cxx11::basic_string<char, std::char_traits<char>, std::allocator<char> > > > > >, std::less<std::__cxx11::basic_string<char, std::char_traits<char>, std::allocator<char> > >, std::allocator<std::pair<const std::__cxx11::basic_string<char, std::char_traits<char>, std::allocator<char> >, std::vector<std::__cxx11::basic_string<char, std::char_traits<char>, std::allocator<char> >, std::allocator<std::__cxx11::basic_string<char, std::char_traits<char>, std::allocator<char> > > > > > >::_M_erase
FUNC 10e770 55 0 std::_Rb_tree<std::__cxx11::basic_string<char, std::char_traits<char>, std::allocator<char> >, std::pair<const std::__cxx11::basic_string<char, std::char_traits<char>, std::allocator<char> >, std::map<std::__cxx11::basic_string<char, std::char_traits<char>, std::allocator<char> >, std::vector<std::__cxx11::basic_string<char, std::char_traits<char>, std::allocator<char> >, std::allocator<std::__cxx11::basic_string<char, std::char_traits<char>, std::allocator<char> > > >, std::less<std::__cxx11::basic_string<char, std::char_traits<char>, std::allocator<char> > >, std::allocator<std::pair<const std::__cxx11::basic_string<char, std::char_traits<char>, std::allocator<char> >, std::vector<std::__cxx11::basic_string<char, std::char_traits<char>, std::allocator<char> >, std::allocator<std::__cxx11::basic_string<char, std::char_traits<char>, std::allocator<char> > > > > > > >, std::_Select1st<std::pair<const std::__cxx11::basic_string<char, std::char_traits<char>, std::allocator<char> >, std::map<std::__cxx11::basic_string<char, std::char_traits<char>, std::allocator<char> >, std::vector<std::__cxx11::basic_string<char, std::char_traits<char>, std::allocator<char> >, std::allocator<std::__cxx11::basic_string<char, std::char_traits<char>, std::allocator<char> > > >, std::less<std::__cxx11::basic_string<char, std::char_traits<char>, std::allocator<char> > >, std::allocator<std::pair<const std::__cxx11::basic_string<char, std::char_traits<char>, std::allocator<char> >, std::vector<std::__cxx11::basic_string<char, std::char_traits<char>, std::allocator<char> >, std::allocator<std::__cxx11::basic_string<char, std::char_traits<char>, std::allocator<char> > > > > > > > >, std::less<std::__cxx11::basic_string<char, std::char_traits<char>, std::allocator<char> > >, std::allocator<std::pair<const std::__cxx11::basic_string<char, std::char_traits<char>, std::allocator<char> >, std::map<std::__cxx11::basic_string<char, std::char_traits<char>, std::allocator<char> >, std::vector<std::__cxx11::basic_string<char, std::char_traits<char>, std::allocator<char> >, std::allocator<std::__cxx11::basic_string<char, std::char_traits<char>, std::allocator<char> > > >, std::less<std::__cxx11::basic_string<char, std::char_traits<char>, std::allocator<char> > >, std::allocator<std::pair<const std::__cxx11::basic_string<char, std::char_traits<char>, std::allocator<char> >, std::vector<std::__cxx11::basic_string<char, std::char_traits<char>, std::allocator<char> >, std::allocator<std::__cxx11::basic_string<char, std::char_traits<char>, std::allocator<char> > > > > > > > > >::_M_erase
FUNC 10e7d0 105 0 std::_Rb_tree<std::__cxx11::basic_string<char, std::char_traits<char>, std::allocator<char> >, std::pair<const std::__cxx11::basic_string<char, std::char_traits<char>, std::allocator<char> >, std::vector<std::__cxx11::basic_string<char, std::char_traits<char>, std::allocator<char> >, std::allocator<std::__cxx11::basic_string<char, std::char_traits<char>, std::allocator<char> > > > >, std::_Select1st<std::pair<const std::__cxx11::basic_string<char, std::char_traits<char>, std::allocator<char> >, std::vector<std::__cxx11::basic_string<char, std::char_traits<char>, std::allocator<char> >, std::allocator<std::__cxx11::basic_string<char, std::char_traits<char>, std::allocator<char> > > > > >, std::less<std::__cxx11::basic_string<char, std::char_traits<char>, std::allocator<char> > >, std::allocator<std::pair<const std::__cxx11::basic_string<char, std::char_traits<char>, std::allocator<char> >, std::vector<std::__cxx11::basic_string<char, std::char_traits<char>, std::allocator<char> >, std::allocator<std::__cxx11::basic_string<char, std::char_traits<char>, std::allocator<char> > > > > > >::find
FUNC 10e8e0 105 0 std::_Rb_tree<std::__cxx11::basic_string<char, std::char_traits<char>, std::allocator<char> >, std::pair<const std::__cxx11::basic_string<char, std::char_traits<char>, std::allocator<char> >, std::map<std::__cxx11::basic_string<char, std::char_traits<char>, std::allocator<char> >, std::vector<std::__cxx11::basic_string<char, std::char_traits<char>, std::allocator<char> >, std::allocator<std::__cxx11::basic_string<char, std::char_traits<char>, std::allocator<char> > > >, std::less<std::__cxx11::basic_string<char, std::char_traits<char>, std::allocator<char> > >, std::allocator<std::pair<const std::__cxx11::basic_string<char, std::char_traits<char>, std::allocator<char> >, std::vector<std::__cxx11::basic_string<char, std::char_traits<char>, std::allocator<char> >, std::allocator<std::__cxx11::basic_string<char, std::char_traits<char>, std::allocator<char> > > > > > > >, std::_Select1st<std::pair<const std::__cxx11::basic_string<char, std::char_traits<char>, std::allocator<char> >, std::map<std::__cxx11::basic_string<char, std::char_traits<char>, std::allocator<char> >, std::vector<std::__cxx11::basic_string<char, std::char_traits<char>, std::allocator<char> >, std::allocator<std::__cxx11::basic_string<char, std::char_traits<char>, std::allocator<char> > > >, std::less<std::__cxx11::basic_string<char, std::char_traits<char>, std::allocator<char> > >, std::allocator<std::pair<const std::__cxx11::basic_string<char, std::char_traits<char>, std::allocator<char> >, std::vector<std::__cxx11::basic_string<char, std::char_traits<char>, std::allocator<char> >, std::allocator<std::__cxx11::basic_string<char, std::char_traits<char>, std::allocator<char> > > > > > > > >, std::less<std::__cxx11::basic_string<char, std::char_traits<char>, std::allocator<char> > >, std::allocator<std::pair<const std::__cxx11::basic_string<char, std::char_traits<char>, std::allocator<char> >, std::map<std::__cxx11::basic_string<char, std::char_traits<char>, std::allocator<char> >, std::vector<std::__cxx11::basic_string<char, std::char_traits<char>, std::allocator<char> >, std::allocator<std::__cxx11::basic_string<char, std::char_traits<char>, std::allocator<char> > > >, std::less<std::__cxx11::basic_string<char, std::char_traits<char>, std::allocator<char> > >, std::allocator<std::pair<const std::__cxx11::basic_string<char, std::char_traits<char>, std::allocator<char> >, std::vector<std::__cxx11::basic_string<char, std::char_traits<char>, std::allocator<char> >, std::allocator<std::__cxx11::basic_string<char, std::char_traits<char>, std::allocator<char> > > > > > > > > >::find
FUNC 10e9f0 147 0 std::_Rb_tree<std::__cxx11::basic_string<char, std::char_traits<char>, std::allocator<char> >, std::pair<const std::__cxx11::basic_string<char, std::char_traits<char>, std::allocator<char> >, std::vector<std::__cxx11::basic_string<char, std::char_traits<char>, std::allocator<char> >, std::allocator<std::__cxx11::basic_string<char, std::char_traits<char>, std::allocator<char> > > > >, std::_Select1st<std::pair<const std::__cxx11::basic_string<char, std::char_traits<char>, std::allocator<char> >, std::vector<std::__cxx11::basic_string<char, std::char_traits<char>, std::allocator<char> >, std::allocator<std::__cxx11::basic_string<char, std::char_traits<char>, std::allocator<char> > > > > >, std::less<std::__cxx11::basic_string<char, std::char_traits<char>, std::allocator<char> > >, std::allocator<std::pair<const std::__cxx11::basic_string<char, std::char_traits<char>, std::allocator<char> >, std::vector<std::__cxx11::basic_string<char, std::char_traits<char>, std::allocator<char> >, std::allocator<std::__cxx11::basic_string<char, std::char_traits<char>, std::allocator<char> > > > > > >::_M_get_insert_unique_pos
FUNC 10eb40 2aa 0 std::_Rb_tree<std::__cxx11::basic_string<char, std::char_traits<char>, std::allocator<char> >, std::pair<const std::__cxx11::basic_string<char, std::char_traits<char>, std::allocator<char> >, std::vector<std::__cxx11::basic_string<char, std::char_traits<char>, std::allocator<char> >, std::allocator<std::__cxx11::basic_string<char, std::char_traits<char>, std::allocator<char> > > > >, std::_Select1st<std::pair<const std::__cxx11::basic_string<char, std::char_traits<char>, std::allocator<char> >, std::vector<std::__cxx11::basic_string<char, std::char_traits<char>, std::allocator<char> >, std::allocator<std::__cxx11::basic_string<char, std::char_traits<char>, std::allocator<char> > > > > >, std::less<std::__cxx11::basic_string<char, std::char_traits<char>, std::allocator<char> > >, std::allocator<std::pair<const std::__cxx11::basic_string<char, std::char_traits<char>, std::allocator<char> >, std::vector<std::__cxx11::basic_string<char, std::char_traits<char>, std::allocator<char> >, std::allocator<std::__cxx11::basic_string<char, std::char_traits<char>, std::allocator<char> > > > > > >::_M_get_insert_hint_unique_pos
FUNC 10edf0 1a9 0 std::_Rb_tree<std::__cxx11::basic_string<char, std::char_traits<char>, std::allocator<char> >, std::pair<const std::__cxx11::basic_string<char, std::char_traits<char>, std::allocator<char> >, std::vector<std::__cxx11::basic_string<char, std::char_traits<char>, std::allocator<char> >, std::allocator<std::__cxx11::basic_string<char, std::char_traits<char>, std::allocator<char> > > > >, std::_Select1st<std::pair<const std::__cxx11::basic_string<char, std::char_traits<char>, std::allocator<char> >, std::vector<std::__cxx11::basic_string<char, std::char_traits<char>, std::allocator<char> >, std::allocator<std::__cxx11::basic_string<char, std::char_traits<char>, std::allocator<char> > > > > >, std::less<std::__cxx11::basic_string<char, std::char_traits<char>, std::allocator<char> > >, std::allocator<std::pair<const std::__cxx11::basic_string<char, std::char_traits<char>, std::allocator<char> >, std::vector<std::__cxx11::basic_string<char, std::char_traits<char>, std::allocator<char> >, std::allocator<std::__cxx11::basic_string<char, std::char_traits<char>, std::allocator<char> > > > > > >::_M_emplace_hint_unique<const std::piecewise_construct_t&, std::tuple<const std::__cxx11::basic_string<char, std::char_traits<char>, std::allocator<char> >&>, std::tuple<> >
FUNC 10efa0 147 0 std::_Rb_tree<std::__cxx11::basic_string<char, std::char_traits<char>, std::allocator<char> >, std::pair<const std::__cxx11::basic_string<char, std::char_traits<char>, std::allocator<char> >, std::map<std::__cxx11::basic_string<char, std::char_traits<char>, std::allocator<char> >, std::vector<std::__cxx11::basic_string<char, std::char_traits<char>, std::allocator<char> >, std::allocator<std::__cxx11::basic_string<char, std::char_traits<char>, std::allocator<char> > > >, std::less<std::__cxx11::basic_string<char, std::char_traits<char>, std::allocator<char> > >, std::allocator<std::pair<const std::__cxx11::basic_string<char, std::char_traits<char>, std::allocator<char> >, std::vector<std::__cxx11::basic_string<char, std::char_traits<char>, std::allocator<char> >, std::allocator<std::__cxx11::basic_string<char, std::char_traits<char>, std::allocator<char> > > > > > > >, std::_Select1st<std::pair<const std::__cxx11::basic_string<char, std::char_traits<char>, std::allocator<char> >, std::map<std::__cxx11::basic_string<char, std::char_traits<char>, std::allocator<char> >, std::vector<std::__cxx11::basic_string<char, std::char_traits<char>, std::allocator<char> >, std::allocator<std::__cxx11::basic_string<char, std::char_traits<char>, std::allocator<char> > > >, std::less<std::__cxx11::basic_string<char, std::char_traits<char>, std::allocator<char> > >, std::allocator<std::pair<const std::__cxx11::basic_string<char, std::char_traits<char>, std::allocator<char> >, std::vector<std::__cxx11::basic_string<char, std::char_traits<char>, std::allocator<char> >, std::allocator<std::__cxx11::basic_string<char, std::char_traits<char>, std::allocator<char> > > > > > > > >, std::less<std::__cxx11::basic_string<char, std::char_traits<char>, std::allocator<char> > >, std::allocator<std::pair<const std::__cxx11::basic_string<char, std::char_traits<char>, std::allocator<char> >, std::map<std::__cxx11::basic_string<char, std::char_traits<char>, std::allocator<char> >, std::vector<std::__cxx11::basic_string<char, std::char_traits<char>, std::allocator<char> >, std::allocator<std::__cxx11::basic_string<char, std::char_traits<char>, std::allocator<char> > > >, std::less<std::__cxx11::basic_string<char, std::char_traits<char>, std::allocator<char> > >, std::allocator<std::pair<const std::__cxx11::basic_string<char, std::char_traits<char>, std::allocator<char> >, std::vector<std::__cxx11::basic_string<char, std::char_traits<char>, std::allocator<char> >, std::allocator<std::__cxx11::basic_string<char, std::char_traits<char>, std::allocator<char> > > > > > > > > >::_M_get_insert_unique_pos
FUNC 10f0f0 2aa 0 std::_Rb_tree<std::__cxx11::basic_string<char, std::char_traits<char>, std::allocator<char> >, std::pair<const std::__cxx11::basic_string<char, std::char_traits<char>, std::allocator<char> >, std::map<std::__cxx11::basic_string<char, std::char_traits<char>, std::allocator<char> >, std::vector<std::__cxx11::basic_string<char, std::char_traits<char>, std::allocator<char> >, std::allocator<std::__cxx11::basic_string<char, std::char_traits<char>, std::allocator<char> > > >, std::less<std::__cxx11::basic_string<char, std::char_traits<char>, std::allocator<char> > >, std::allocator<std::pair<const std::__cxx11::basic_string<char, std::char_traits<char>, std::allocator<char> >, std::vector<std::__cxx11::basic_string<char, std::char_traits<char>, std::allocator<char> >, std::allocator<std::__cxx11::basic_string<char, std::char_traits<char>, std::allocator<char> > > > > > > >, std::_Select1st<std::pair<const std::__cxx11::basic_string<char, std::char_traits<char>, std::allocator<char> >, std::map<std::__cxx11::basic_string<char, std::char_traits<char>, std::allocator<char> >, std::vector<std::__cxx11::basic_string<char, std::char_traits<char>, std::allocator<char> >, std::allocator<std::__cxx11::basic_string<char, std::char_traits<char>, std::allocator<char> > > >, std::less<std::__cxx11::basic_string<char, std::char_traits<char>, std::allocator<char> > >, std::allocator<std::pair<const std::__cxx11::basic_string<char, std::char_traits<char>, std::allocator<char> >, std::vector<std::__cxx11::basic_string<char, std::char_traits<char>, std::allocator<char> >, std::allocator<std::__cxx11::basic_string<char, std::char_traits<char>, std::allocator<char> > > > > > > > >, std::less<std::__cxx11::basic_string<char, std::char_traits<char>, std::allocator<char> > >, std::allocator<std::pair<const std::__cxx11::basic_string<char, std::char_traits<char>, std::allocator<char> >, std::map<std::__cxx11::basic_string<char, std::char_traits<char>, std::allocator<char> >, std::vector<std::__cxx11::basic_string<char, std::char_traits<char>, std::allocator<char> >, std::allocator<std::__cxx11::basic_string<char, std::char_traits<char>, std::allocator<char> > > >, std::less<std::__cxx11::basic_string<char, std::char_traits<char>, std::allocator<char> > >, std::allocator<std::pair<const std::__cxx11::basic_string<char, std::char_traits<char>, std::allocator<char> >, std::vector<std::__cxx11::basic_string<char, std::char_traits<char>, std::allocator<char> >, std::allocator<std::__cxx11::basic_string<char, std::char_traits<char>, std::allocator<char> > > > > > > > > >::_M_get_insert_hint_unique_pos
FUNC 10f3a0 189 0 std::_Rb_tree<std::__cxx11::basic_string<char, std::char_traits<char>, std::allocator<char> >, std::pair<const std::__cxx11::basic_string<char, std::char_traits<char>, std::allocator<char> >, std::map<std::__cxx11::basic_string<char, std::char_traits<char>, std::allocator<char> >, std::vector<std::__cxx11::basic_string<char, std::char_traits<char>, std::allocator<char> >, std::allocator<std::__cxx11::basic_string<char, std::char_traits<char>, std::allocator<char> > > >, std::less<std::__cxx11::basic_string<char, std::char_traits<char>, std::allocator<char> > >, std::allocator<std::pair<const std::__cxx11::basic_string<char, std::char_traits<char>, std::allocator<char> >, std::vector<std::__cxx11::basic_string<char, std::char_traits<char>, std::allocator<char> >, std::allocator<std::__cxx11::basic_string<char, std::char_traits<char>, std::allocator<char> > > > > > > >, std::_Select1st<std::pair<const std::__cxx11::basic_string<char, std::char_traits<char>, std::allocator<char> >, std::map<std::__cxx11::basic_string<char, std::char_traits<char>, std::allocator<char> >, std::vector<std::__cxx11::basic_string<char, std::char_traits<char>, std::allocator<char> >, std::allocator<std::__cxx11::basic_string<char, std::char_traits<char>, std::allocator<char> > > >, std::less<std::__cxx11::basic_string<char, std::char_traits<char>, std::allocator<char> > >, std::allocator<std::pair<const std::__cxx11::basic_string<char, std::char_traits<char>, std::allocator<char> >, std::vector<std::__cxx11::basic_string<char, std::char_traits<char>, std::allocator<char> >, std::allocator<std::__cxx11::basic_string<char, std::char_traits<char>, std::allocator<char> > > > > > > > >, std::less<std::__cxx11::basic_string<char, std::char_traits<char>, std::allocator<char> > >, std::allocator<std::pair<const std::__cxx11::basic_string<char, std::char_traits<char>, std::allocator<char> >, std::map<std::__cxx11::basic_string<char, std::char_traits<char>, std::allocator<char> >, std::vector<std::__cxx11::basic_string<char, std::char_traits<char>, std::allocator<char> >, std::allocator<std::__cxx11::basic_string<char, std::char_traits<char>, std::allocator<char> > > >, std::less<std::__cxx11::basic_string<char, std::char_traits<char>, std::allocator<char> > >, std::allocator<std::pair<const std::__cxx11::basic_string<char, std::char_traits<char>, std::allocator<char> >, std::vector<std::__cxx11::basic_string<char, std::char_traits<char>, std::allocator<char> >, std::allocator<std::__cxx11::basic_string<char, std::char_traits<char>, std::allocator<char> > > > > > > > > >::_M_emplace_hint_unique<const std::piecewise_construct_t&, std::tuple<const std::__cxx11::basic_string<char, std::char_traits<char>, std::allocator<char> >&>, std::tuple<> >
FUNC 10f530 c2 0 std::__cxx11::basic_string<char, std::char_traits<char>, std::allocator<char> >::_M_construct<char const*>
FUNC 10f600 30 0 tinygettext::DictionaryManager::set_language
FUNC 10f630 5 0 tinygettext::DictionaryManager::get_language
FUNC 10f640 5 0 tinygettext::DictionaryManager::get_use_fuzzy
FUNC 10f650 32 0 tinygettext::DictionaryManager::set_filesystem
FUNC 10f690 d3 0 tinygettext::DictionaryManager::~DictionaryManager
FUNC 10f770 80 0 tinygettext::DictionaryManager::clear_cache
FUNC 10f7f0 23 0 tinygettext::DictionaryManager::set_charset
FUNC 10f820 1b 0 tinygettext::DictionaryManager::set_use_fuzzy
FUNC 10f840 146 0 tinygettext::DictionaryManager::DictionaryManager
FUNC 10f990 336 0 tinygettext::DictionaryManager::get_languages
FUNC 10fcd0 62 0 tinygettext::DictionaryManager::add_directory
FUNC 10fd40 948 0 tinygettext::DictionaryManager::get_dictionary
FUNC 110690 31 0 tinygettext::DictionaryManager::get_dictionary
FUNC 1106d0 36 0 std::_Rb_tree<tinygettext::Language, std::pair<const tinygettext::Language, tinygettext::Dictionary*>, std::_Select1st<std::pair<const tinygettext::Language, tinygettext::Dictionary*> >, std::less<tinygettext::Language>, std::allocator<std::pair<const tinygettext::Language, tinygettext::Dictionary*> > >::_M_erase
FUNC 110710 80 0 std::_Rb_tree<tinygettext::Language, std::pair<const tinygettext::Language, tinygettext::Dictionary*>, std::_Select1st<std::pair<const tinygettext::Language, tinygettext::Dictionary*> >, std::less<tinygettext::Language>, std::allocator<std::pair<const tinygettext::Language, tinygettext::Dictionary*> > >::_M_get_insert_unique_pos
FUNC 110790 100 0 std::_Rb_tree<tinygettext::Language, std::pair<const tinygettext::Language, tinygettext::Dictionary*>, std::_Select1st<std::pair<const tinygettext::Language, tinygettext::Dictionary*> >, std::less<tinygettext::Language>, std::allocator<std::pair<const tinygettext::Language, tinygettext::Dictionary*> > >::_M_get_insert_hint_unique_pos
FUNC 110890 c2 0 std::__cxx11::basic_string<char, std::char_traits<char>, std::allocator<char> >::_M_construct<char*>
FUNC 110960 4 0 tinygettext::Language::Language
FUNC 110970 8 0 tinygettext::Language::Language
FUNC 110980 70 0 tinygettext::Language::get_language
FUNC 1109f0 6b 0 tinygettext::Language::get_country
FUNC 110a60 6b 0 tinygettext::Language::get_modifier
FUNC 110ad0 431 0 tinygettext::Language::match
FUNC 110f10 70 0 tinygettext::Language::get_name
FUNC 110f80 212 0 tinygettext::Language::str
FUNC 1111a0 a 0 tinygettext::Language::operator==
FUNC 1111b0 a 0 tinygettext::Language::operator!=
FUNC 1111c0 23db 0 tinygettext::resolve_language_alias
FUNC 1135a0 5f7 0 tinygettext::Language::from_spec
FUNC 113ba0 3f8 0 tinygettext::Language::from_env
FUNC 113fa0 7d 0 tinygettext::Language::from_name
FUNC 114020 9 0 std::map<std::__cxx11::basic_string<char, std::char_traits<char>, std::allocator<char> >, std::__cxx11::basic_string<char, std::char_traits<char>, std::allocator<char> >, std::less<std::__cxx11::basic_string<char, std::char_traits<char>, std::allocator<char> > >, std::allocator<std::pair<const std::__cxx11::basic_string<char, std::char_traits<char>, std::allocator<char> >, std::__cxx11::basic_string<char, std::char_traits<char>, std::allocator<char> > > > >::~map
FUNC 114030 56 0 std::_Rb_tree<std::__cxx11::basic_string<char, std::char_traits<char>, std::allocator<char> >, std::pair<const std::__cxx11::basic_string<char, std::char_traits<char>, std::allocator<char> >, std::vector<tinygettext::LanguageSpec*, std::allocator<tinygettext::LanguageSpec*> > >, std::_Select1st<std::pair<const std::__cxx11::basic_string<char, std::char_traits<char>, std::allocator<char> >, std::vector<tinygettext::LanguageSpec*, std::allocator<tinygettext::LanguageSpec*> > > >, std::less<std::__cxx11::basic_string<char, std::char_traits<char>, std::allocator<char> > >, std::allocator<std::pair<const std::__cxx11::basic_string<char, std::char_traits<char>, std::allocator<char> >, std::vector<tinygettext::LanguageSpec*, std::allocator<tinygettext::LanguageSpec*> > > > >::_M_erase
FUNC 114090 9 0 std::map<std::__cxx11::basic_string<char, std::char_traits<char>, std::allocator<char> >, std::vector<tinygettext::LanguageSpec*, std::allocator<tinygettext::LanguageSpec*> >, std::less<std::__cxx11::basic_string<char, std::char_traits<char>, std::allocator<char> > >, std::allocator<std::pair<const std::__cxx11::basic_string<char, std::char_traits<char>, std::allocator<char> >, std::vector<tinygettext::LanguageSpec*, std::allocator<tinygettext::LanguageSpec*> > > > >::~map
FUNC 1140a0 ea 0 std::vector<tinygettext::LanguageSpec*, std::allocator<tinygettext::LanguageSpec*> >::_M_emplace_back_aux<tinygettext::LanguageSpec*>
FUNC 114190 147 0 std::_Rb_tree<std::__cxx11::basic_string<char, std::char_traits<char>, std::allocator<char> >, std::pair<const std::__cxx11::basic_string<char, std::char_traits<char>, std::allocator<char> >, std::vector<tinygettext::LanguageSpec*, std::allocator<tinygettext::LanguageSpec*> > >, std::_Select1st<std::pair<const std::__cxx11::basic_string<char, std::char_traits<char>, std::allocator<char> >, std::vector<tinygettext::LanguageSpec*, std::allocator<tinygettext::LanguageSpec*> > > >, std::less<std::__cxx11::basic_string<char, std::char_traits<char>, std::allocator<char> > >, std::allocator<std::pair<const std::__cxx11::basic_string<char, std::char_traits<char>, std::allocator<char> >, std::vector<tinygettext::LanguageSpec*, std::allocator<tinygettext::LanguageSpec*> > > > >::_M_get_insert_unique_pos
FUNC 1142e0 2aa 0 std::_Rb_tree<std::__cxx11::basic_string<char, std::char_traits<char>, std::allocator<char> >, std::pair<const std::__cxx11::basic_string<char, std::char_traits<char>, std::allocator<char> >, std::vector<tinygettext::LanguageSpec*, std::allocator<tinygettext::LanguageSpec*> > >, std::_Select1st<std::pair<const std::__cxx11::basic_string<char, std::char_traits<char>, std::allocator<char> >, std::vector<tinygettext::LanguageSpec*, std::allocator<tinygettext::LanguageSpec*> > > >, std::less<std::__cxx11::basic_string<char, std::char_traits<char>, std::allocator<char> > >, std::allocator<std::pair<const std::__cxx11::basic_string<char, std::char_traits<char>, std::allocator<char> >, std::vector<tinygettext::LanguageSpec*, std::allocator<tinygettext::LanguageSpec*> > > > >::_M_get_insert_hint_unique_pos
FUNC 114590 3a 0 tinygettext::Log::default_log_callback
FUNC 1145d0 c2 0 std::__cxx11::basic_string<char, std::char_traits<char>, std::allocator<char> >::_M_construct<char*>
FUNC 1146a0 8 0 tinygettext::Log::set_log_info_callback
FUNC 1146b0 8 0 tinygettext::Log::set_log_warning_callback
FUNC 1146c0 8 0 tinygettext::Log::set_log_error_callback
FUNC 1146d0 1c4 0 tinygettext::Log::Log
FUNC 1148a0 1b5 0 tinygettext::Log::~Log
FUNC 114a60 5 0 tinygettext::Log::get
FUNC 114a70 c2 0 std::__cxx11::basic_string<char, std::char_traits<char>, std::allocator<char> >::_M_construct<char const*>
FUNC 114b40 98 0 tinygettext::POParser::POParser
FUNC 114be0 3a 0 tinygettext::POParser::~POParser
FUNC 114c20 174 0 tinygettext::POParser::warning
FUNC 114da0 92 0 tinygettext::POParser::next_line
FUNC 114e40 6b1 0 tinygettext::POParser::parse_header
FUNC 115500 76 0 tinygettext::POParser::is_empty_line
FUNC 115580 130 0 tinygettext::POParser::error
FUNC 1156b0 31 0 tinygettext::POParser::prefix
FUNC 1156f0 898 0 tinygettext::POParser::get_string_line
FUNC 115f90 6a9 0 tinygettext::POParser::get_string
FUNC 116640 a18 0 tinygettext::POParser::parse
FUNC 117060 7b 0 tinygettext::POParser::parse
FUNC 1170e0 237 0 std::vector<std::__cxx11::basic_string<char, std::char_traits<char>, std::allocator<char> >, std::allocator<std::__cxx11::basic_string<char, std::char_traits<char>, std::allocator<char> > > >::_M_default_append
FUNC 117320 c2 0 std::__cxx11::basic_string<char, std::char_traits<char>, std::allocator<char> >::_M_construct<char*>
FUNC 1173f0 30 0 tinygettext::IConv::IConv
FUNC 117420 42 0 tinygettext::IConv::~IConv
FUNC 117470 27f 0 tinygettext::IConv::convert
FUNC 1176f0 7a7 0 tinygettext::IConv::set_charsets
FUNC 117ea0 72 0 tinygettext::IConv::IConv
FUNC 117f20 3 0 tinygettext::plural1
FUNC 117f30 9 0 tinygettext::plural2_1
FUNC 117f40 9 0 tinygettext::plural2_2
FUNC 117f50 2b 0 tinygettext::plural2_mk
FUNC 117f80 50 0 tinygettext::plural3_lv
FUNC 117fd0 1b 0 tinygettext::plural3_ga
FUNC 117ff0 6e 0 tinygettext::plural3_lt
FUNC 118060 76 0 tinygettext::plural3_1
FUNC 1180e0 1b 0 tinygettext::plural3_sk
FUNC 118100 5b 0 tinygettext::plural3_pl
FUNC 118160 3e 0 tinygettext::plural3_sl
FUNC 1181a0 2e 0 tinygettext::plural4_ar
FUNC 1181d0 1e8f 0 tinygettext::PluralForms::from_string
FUNC 11a060 48 0 std::_Rb_tree<std::__cxx11::basic_string<char, std::char_traits<char>, std::allocator<char> >, std::pair<const std::__cxx11::basic_string<char, std::char_traits<char>, std::allocator<char> >, tinygettext::PluralForms>, std::_Select1st<std::pair<const std::__cxx11::basic_string<char, std::char_traits<char>, std::allocator<char> >, tinygettext::PluralForms> >, std::less<std::__cxx11::basic_string<char, std::char_traits<char>, std::allocator<char> > >, std::allocator<std::pair<const std::__cxx11::basic_string<char, std::char_traits<char>, std::allocator<char> >, tinygettext::PluralForms> > >::_M_erase
FUNC 11a0b0 9 0 std::map<std::__cxx11::basic_string<char, std::char_traits<char>, std::allocator<char> >, tinygettext::PluralForms, std::less<std::__cxx11::basic_string<char, std::char_traits<char>, std::allocator<char> > >, std::allocator<std::pair<const std::__cxx11::basic_string<char, std::char_traits<char>, std::allocator<char> >, tinygettext::PluralForms> > >::~map
FUNC 11a0c0 147 0 std::_Rb_tree<std::__cxx11::basic_string<char, std::char_traits<char>, std::allocator<char> >, std::pair<const std::__cxx11::basic_string<char, std::char_traits<char>, std::allocator<char> >, tinygettext::PluralForms>, std::_Select1st<std::pair<const std::__cxx11::basic_string<char, std::char_traits<char>, std::allocator<char> >, tinygettext::PluralForms> >, std::less<std::__cxx11::basic_string<char, std::char_traits<char>, std::allocator<char> > >, std::allocator<std::pair<const std::__cxx11::basic_string<char, std::char_traits<char>, std::allocator<char> >, tinygettext::PluralForms> > >::_M_get_insert_unique_pos
FUNC 11a210 2aa 0 std::_Rb_tree<std::__cxx11::basic_string<char, std::char_traits<char>, std::allocator<char> >, std::pair<const std::__cxx11::basic_string<char, std::char_traits<char>, std::allocator<char> >, tinygettext::PluralForms>, std::_Select1st<std::pair<const std::__cxx11::basic_string<char, std::char_traits<char>, std::allocator<char> >, tinygettext::PluralForms> >, std::less<std::__cxx11::basic_string<char, std::char_traits<char>, std::allocator<char> > >, std::allocator<std::pair<const std::__cxx11::basic_string<char, std::char_traits<char>, std::allocator<char> >, tinygettext::PluralForms> > >::_M_get_insert_hint_unique_pos
FUNC 11a4c0 175 0 std::_Rb_tree<std::__cxx11::basic_string<char, std::char_traits<char>, std::allocator<char> >, std::pair<const std::__cxx11::basic_string<char, std::char_traits<char>, std::allocator<char> >, tinygettext::PluralForms>, std::_Select1st<std::pair<const std::__cxx11::basic_string<char, std::char_traits<char>, std::allocator<char> >, tinygettext::PluralForms> >, std::less<std::__cxx11::basic_string<char, std::char_traits<char>, std::allocator<char> > >, std::allocator<std::pair<const std::__cxx11::basic_string<char, std::char_traits<char>, std::allocator<char> >, tinygettext::PluralForms> > >::_M_emplace_hint_unique<const std::piecewise_construct_t&, std::tuple<std::__cxx11::basic_string<char, std::char_traits<char>, std::allocator<char> >&&>, std::tuple<> >
FUNC 11a640 49e 0 fastlz1_compress
FUNC 11aae0 598 0 fastlz2_compress
FUNC 11b080 15 0 fastlz_compress
FUNC 11b0a0 44f 0 fastlz_decompress
FUNC 11b4f0 33 0 fastlz_compress_level
FUNC 11b530 5 0 dtFreeDefault
FUNC 11b540 5 0 dtAllocDefault
FUNC 11b550 2b 0 dtAllocSetCustom
FUNC 11b580 6 0 dtAlloc
FUNC 11b590 12 0 dtFree
FUNC 11b5b0 c1 0 calcSlabEndPoints
FUNC 11b680 11d 0 dtNavMesh::unconnectLinks
FUNC 11b7a0 7e 0 dtNavMesh::dtNavMesh
FUNC 11b820 22 0 dtAllocNavMesh
FUNC 11b850 85 0 dtNavMesh::~dtNavMesh
FUNC 11b8e0 22 0 dtFreeNavMesh
FUNC 11b910 2ac 0 dtNavMesh::init
FUNC 11bbc0 4 0 dtNavMesh::getParams
FUNC 11bbd0 39f 0 dtNavMesh::findConnectingPolys
FUNC 11bf70 12 0 dtNavMesh::unconnectLinks
FUNC 11bf90 340 0 dtNavMesh::connectExtLinks
FUNC 11c2d0 e1 0 dtNavMesh::connectIntLinks
FUNC 11c3c0 3da 0 dtNavMesh::getPolyHeight
FUNC 11c7a0 3c3 0 dtNavMesh::closestPointOnPoly
FUNC 11cb70 3a6 0 dtNavMesh::queryPolygonsInTile
FUNC 11cf20 206 0 dtNavMesh::findNearestPolyInTile
FUNC 11d130 294 0 dtNavMesh::connectExtOffMeshLinks
FUNC 11d3d0 216 0 dtNavMesh::baseOffMeshLinks
FUNC 11d5f0 55 0 dtNavMesh::getTileAt
FUNC 11d650 6a 0 dtNavMesh::getTilesAt
FUNC 11d6c0 7e 0 dtNavMesh::getNeighbourTilesAt
FUNC 11d740 45a 0 dtNavMesh::addTile
FUNC 11dba0 dc 0 dtNavMesh::init
FUNC 11dc90 73 0 dtNavMesh::getTileRefAt
FUNC 11dd10 63 0 dtNavMesh::getTileByRef
FUNC 11dd80 4 0 dtNavMesh::getMaxTiles
FUNC 11ddb0 14 0 dtNavMesh::getTile
FUNC 11ddd0 4e 0 dtNavMesh::calcTileLoc
FUNC 11de20 b5 0 dtNavMesh::getTileAndPolyByRef
FUNC 11dee0 59 0 dtNavMesh::getTileAndPolyByRefUnsafe
FUNC 11df40 7d 0 dtNavMesh::isValidPolyRef
FUNC 11dfc0 2e2 0 dtNavMesh::removeTile
FUNC 11e2b0 33 0 dtNavMesh::getPolyRefBase
FUNC 11e300 1b 0 dtNavMesh::getTileStateSize
FUNC 11e320 d4 0 dtNavMesh::storeTileState
FUNC 11e400 f4 0 dtNavMesh::restoreTileState
FUNC 11e500 162 0 dtNavMesh::getOffMeshConnectionPolyEndPoints
FUNC 11e670 a4 0 dtNavMesh::getOffMeshConnectionByRef
FUNC 11e720 9d 0 dtNavMesh::setPolyFlags
FUNC 11e7c0 a0 0 dtNavMesh::getPolyFlags
FUNC 11e860 a8 0 dtNavMesh::setPolyArea
FUNC 11e910 a2 0 dtNavMesh::getPolyArea
FUNC 11e9c0 c9 0 insertInterval
FUNC 11ea90 8d7 0 dtNavMeshQuery::raycast
FUNC 11f370 31 0 dtQueryFilter::dtQueryFilter
FUNC 11f3b0 64 0 dtAllocNavMeshQuery
FUNC 11f420 48 0 dtNavMeshQuery::dtNavMeshQuery
FUNC 11f470 4a 0 dtNavMeshQuery::~dtNavMeshQuery
FUNC 11f4c0 22 0 dtFreeNavMeshQuery
FUNC 11f4f0 18f 0 dtNavMeshQuery::init
FUNC 11f680 66 0 dtNavMeshQuery::closestPointOnPoly
FUNC 11f6f0 253 0 dtNavMeshQuery::closestPointOnPolyBoundary
FUNC 11f950 10d 0 dtNavMeshQuery::getPolyHeight
FUNC 11fa60 39f 0 dtNavMeshQuery::findRandomPoint
FUNC 11fe00 527 0 dtNavMeshQuery::queryPolygonsInTile
FUNC 120330 193 0 dtNavMeshQuery::queryPolygons
FUNC 1204d0 26 0 dtNavMeshQuery::queryPolygons
FUNC 120500 cc 0 dtNavMeshQuery::findNearestPoly
FUNC 1205d0 a7 0 dtNavMeshQuery::queryPolygons
FUNC 120680 f5 0 dtNavMeshQuery::getPathToNode
FUNC 120780 249 0 dtNavMeshQuery::initSlicedFindPath
FUNC 1209d0 1a2 0 dtNavMeshQuery::appendVertex
FUNC 120b80 81e 0 dtNavMeshQuery::moveAlongSurface
FUNC 1213a0 351 0 dtNavMeshQuery::getPortalPoints
FUNC 121700 10b 0 dtNavMeshQuery::getPortalPoints
FUNC 121810 8b7 0 dtNavMeshQuery::findRandomPointAroundCircle
FUNC 1220d0 2ec 0 dtNavMeshQuery::appendPortals
FUNC 1223c0 b84 0 dtNavMeshQuery::findStraightPath
FUNC 122f50 a9 0 dtNavMeshQuery::getEdgeMidPoint
FUNC 123000 a3 0 dtNavMeshQuery::getEdgeMidPoint
FUNC 1230b0 7cb 0 dtNavMeshQuery::findPath
FUNC 123880 7b1 0 dtNavMeshQuery::updateSlicedFindPath
FUNC 124040 a4 0 dtNavMeshQuery::raycast
FUNC 1240f0 334 0 dtNavMeshQuery::finalizeSlicedFindPath
FUNC 124430 3be 0 dtNavMeshQuery::finalizeSlicedFindPathPartial
FUNC 1247f0 16 0 dtNavMeshQuery::raycast
FUNC 124810 685 0 dtNavMeshQuery::findPolysAroundCircle
FUNC 124ea0 710 0 dtNavMeshQuery::findPolysAroundShape
FUNC 1255b0 ba 0 dtNavMeshQuery::getPathFromDijkstraSearch
FUNC 125670 6aa 0 dtNavMeshQuery::findLocalNeighbourhood
FUNC 125d20 6ca 0 dtNavMeshQuery::getPolyWallSegments
FUNC 1263f0 8d6 0 dtNavMeshQuery::findDistanceToWall
FUNC 126cd0 89 0 dtNavMeshQuery::isValidPolyRef
FUNC 126d60 84 0 dtNavMeshQuery::isInClosedList
FUNC 126df0 2 0 dtCollectPolysQuery::~dtCollectPolysQuery
FUNC 126e00 2 0 dtFindNearestPolyQuery::~dtFindNearestPolyQuery
FUNC 126e10 5 0 dtFindNearestPolyQuery::~dtFindNearestPolyQuery
FUNC 126e20 5 0 dtCollectPolysQuery::~dtCollectPolysQuery
FUNC 126e30 41 0 dtCollectPolysQuery::process
FUNC 126e80 144 0 dtFindNearestPolyQuery::process
FUNC 126fd0 a0 0 dtNodePool::dtNodePool
FUNC 127070 1f 0 dtNodePool::~dtNodePool
FUNC 127090 22 0 dtNodePool::clear
FUNC 1270c0 b2 0 dtNodePool::findNodes
FUNC 127180 93 0 dtNodePool::findNode
FUNC 127220 104 0 dtNodePool::getNode
FUNC 127330 2b 0 dtNodeQueue::dtNodeQueue
FUNC 127360 8 0 dtNodeQueue::~dtNodeQueue
FUNC 127370 6d 0 dtNodeQueue::bubbleUp
FUNC 1273e0 63 0 dtNodeQueue::trickleDown
FUNC 127450 117 0 dtMergeCorridorStartMoved
FUNC 127570 ed 0 dtMergeCorridorEndMoved
FUNC 127660 10b 0 dtMergeCorridorStartShortcut
FUNC 127770 17 0 dtPathCorridor::dtPathCorridor
FUNC 127790 9 0 dtPathCorridor::~dtPathCorridor
FUNC 1277a0 49 0 dtPathCorridor::init
FUNC 1277f0 47 0 dtPathCorridor::reset
FUNC 127840 173 0 dtPathCorridor::findCorners
FUNC 1279c0 14c 0 dtPathCorridor::optimizePathVisibility
FUNC 127b10 f0 0 dtPathCorridor::optimizePathTopology
FUNC 127c00 f8 0 dtPathCorridor::moveOverOffmeshConnection
FUNC 127d00 e9 0 dtPathCorridor::movePosition
FUNC 127df0 c0 0 dtPathCorridor::moveTargetPosition
FUNC 127eb0 49 0 dtPathCorridor::setCorridor
FUNC 127f00 69 0 dtPathCorridor::fixPathStart
FUNC 127f70 132 0 dtPathCorridor::trimInvalidPath
FUNC 1280b0 74 0 dtPathCorridor::isValid
FUNC 128130 c9 0 dtTileCache::dtTileCache
FUNC 128200 28 0 dtAllocTileCache
FUNC 128230 97 0 dtTileCache::~dtTileCache
FUNC 1282d0 22 0 dtFreeTileCache
FUNC 128300 53 0 dtTileCache::getTileByRef
FUNC 128360 2be 0 dtTileCache::init
FUNC 128620 8f 0 dtTileCache::getTilesAt
FUNC 1286b0 55 0 dtTileCache::getTileAt
FUNC 128710 23 0 dtTileCache::getTileRef
FUNC 128740 23 0 dtTileCache::getObstacleRef
FUNC 128770 3b 0 dtTileCache::getObstacleByRef
FUNC 1287b0 f4 0 dtTileCache::addTile
FUNC 1288b0 1a7 0 dtTileCache::removeTile
FUNC 128a60 ff 0 dtTileCache::addObstacle
FUNC 128b60 117 0 dtTileCache::addBoxObstacle
FUNC 128c80 177 0 dtTileCache::addBoxObstacle
FUNC 128e00 43 0 dtTileCache::removeObstacle
FUNC 128e50 55f 0 dtTileCache::buildNavMeshTile
FUNC 1293b0 94 0 dtTileCache::buildNavMeshTilesAt
FUNC 129450 86 0 dtTileCache::calcTightTileBounds
FUNC 1294e0 32a 0 dtTileCache::queryTiles
FUNC 129810 11a 0 dtTileCache::getObstacleBounds
FUNC 129930 410 0 dtTileCache::update
FUNC 129d40 d2 0 getNeighbourReg
FUNC 129e20 90 0 between
FUNC 129eb0 267 0 getPolyMergeValue
FUNC 12a120 172 0 mergePolys
FUNC 12a2a0 492 0 diagonal
FUNC 12a740 341 0 triangulate
FUNC 12aa90 49 0 dtAllocTileCacheContourSet
FUNC 12aae0 e2 0 dtFreeTileCacheContourSet
FUNC 12abd0 6c 0 dtAllocTileCachePolyMesh
FUNC 12ac40 e2 0 dtFreeTileCachePolyMesh
FUNC 12ad30 8b0 0 dtBuildTileCacheRegions
FUNC 12b5e0 c4b 0 dtBuildTileCacheContours
FUNC 12c230 1b29 0 dtBuildTileCachePolyMesh
FUNC 12dd60 317 0 dtMarkCylinderArea
FUNC 12e080 19e 0 dtMarkBoxArea
FUNC 12e220 29a 0 dtMarkBoxArea
FUNC 12e4c0 1e9 0 dtBuildTileCacheLayer
FUNC 12e6b0 22 0 dtFreeTileCacheLayer
FUNC 12e6e0 1e6 0 dtDecompressTileCacheLayer
FUNC 12e8d0 1ec 0 dtTileCacheHeaderSwapEndian
FUNC 12eac0 7b 0 projectPoly
FUNC 12eb40 42d 0 dtClosestPtPointTriangle
FUNC 12ef70 156 0 dtIntersectSegmentPoly2D
FUNC 12f0d0 ba 0 dtDistancePtSegSqr2D
FUNC 12f190 8f 0 dtCalcPolyCenter
FUNC 12f220 fb 0 dtClosestHeightPointTriangle
FUNC 12f320 9b 0 dtPointInPolygon
FUNC 12f3c0 c6 0 dtDistancePtPolyEdgesSqr
FUNC 12f490 23f 0 dtOverlapPolyPoly2D
FUNC 12f6d0 19c 0 dtRandomPointInConvexPoly
FUNC 12f870 a1 0 dtIntersectSegSeg2D
FUNC 12f920 15 0 compareItemX
FUNC 12f940 17 0 compareItemY
FUNC 12f960 17 0 compareItemZ
FUNC 12f980 27b 0 subdivide
FUNC 12fc00 1214 0 dtCreateNavMeshData
FUNC 130e20 354 0 dtNavMeshHeaderSwapEndian
FUNC 131180 2bc 0 dtNavMeshDataSwapEndian
FUNC 131440 7f 0 google_breakpad::CrashGenerationServer::Stop
FUNC 1314c0 51 0 google_breakpad::CrashGenerationServer::ControlEvent
FUNC 131520 8c 0 google_breakpad::CrashGenerationServer::CrashGenerationServer
FUNC 1315b0 2a 0 google_breakpad::CrashGenerationServer::~CrashGenerationServer
FUNC 1315e0 d0 0 google_breakpad::CrashGenerationServer::Start
FUNC 1316b0 12 0 google_breakpad::CrashGenerationServer::Stop
FUNC 1316d0 ba 0 google_breakpad::CrashGenerationServer::CreateReportChannel
FUNC 131790 15 0 google_breakpad::CrashGenerationServer::ControlEvent
FUNC 1317b0 10e 0 google_breakpad::CrashGenerationServer::MakeMinidumpFilename
FUNC 1318c0 272 0 google_breakpad::CrashGenerationServer::ClientEvent
FUNC 131b40 d3 0 google_breakpad::CrashGenerationServer::Run
FUNC 131c20 10 0 google_breakpad::CrashGenerationServer::ThreadMain
FUNC 131c30 74 0 google_breakpad::ExceptionHandler::RestoreHandlersLocked
FUNC 131cb0 c2 0 std::__cxx11::basic_string<char, std::char_traits<char>, std::allocator<char> >::_M_construct<char*>
FUNC 131d80 359 0 google_breakpad::ExceptionHandler::~ExceptionHandler
FUNC 1320e0 14e 0 google_breakpad::ExceptionHandler::InstallHandlersLocked
FUNC 132230 12 0 google_breakpad::ExceptionHandler::RestoreHandlersLocked
FUNC 132250 d1 0 google_breakpad::ExceptionHandler::SendContinueSignalToChild
FUNC 132330 4ef 0 google_breakpad::ExceptionHandler::GenerateDump
FUNC 132820 1da 0 google_breakpad::ExceptionHandler::HandleSignal
FUNC 132a00 1aa 0 google_breakpad::ExceptionHandler::SignalHandler
FUNC 132bb0 7f 0 google_breakpad::ExceptionHandler::SimulateSignalDelivery
FUNC 132c30 e5 0 google_breakpad::ExceptionHandler::WaitForContinueSignal
FUNC 132d20 8a 0 google_breakpad::ExceptionHandler::DoDump
FUNC 132db0 28 0 google_breakpad::ExceptionHandler::ThreadEntry
FUNC 132de0 195 0 google_breakpad::ExceptionHandler::WriteMinidump
FUNC 132f80 e3 0 google_breakpad::ExceptionHandler::AddMappingInfo
FUNC 133070 91 0 google_breakpad::ExceptionHandler::RegisterAppMemory
FUNC 133110 52 0 google_breakpad::ExceptionHandler::UnregisterAppMemory
FUNC 133170 12e 0 google_breakpad::ExceptionHandler::WriteMinidumpForChild
FUNC 1332a0 3a8 0 google_breakpad::ExceptionHandler::ExceptionHandler
FUNC 133650 160 0 google_breakpad::ExceptionHandler::WriteMinidump
FUNC 1337b0 32 0 google_breakpad::MinidumpDescriptor::~MinidumpDescriptor
FUNC 1337f0 ea 0 std::vector<google_breakpad::ExceptionHandler*, std::allocator<google_breakpad::ExceptionHandler*> >::_M_emplace_back_aux<google_breakpad::ExceptionHandler*>
FUNC 1338e0 c2 0 std::__cxx11::basic_string<char, std::char_traits<char>, std::allocator<char> >::_M_construct<char*>
FUNC 1339b0 76 0 google_breakpad::MinidumpDescriptor::MinidumpDescriptor
FUNC 133a30 2c8 0 google_breakpad::MinidumpDescriptor::UpdatePath
FUNC 133d00 75 0 google_breakpad::MinidumpDescriptor::operator=
FUNC 133d80 33 0 logger::write
FUNC 133dc0 17dc 0 google_breakpad::WriteMicrodump
FUNC 1355a0 6 0 google_breakpad::LinuxDumper::LateInit
FUNC 1355b0 1bf 0 google_breakpad::::ElfFileSoName
FUNC 135770 163 0 google_breakpad::LinuxDumper::HandleDeletedFileInMapping
FUNC 1358e0 48f 0 google_breakpad::LinuxDumper::LinuxDumper
FUNC 135d70 5f 0 google_breakpad::LinuxDumper::~LinuxDumper
FUNC 135dd0 66 0 google_breakpad::LinuxDumper::~LinuxDumper
FUNC 135e40 c8 0 google_breakpad::LinuxDumper::GetMappingEffectiveNameAndPath
FUNC 135f10 119 0 google_breakpad::LinuxDumper::ReadAuxv
FUNC 136030 32 0 google_breakpad::LinuxDumper::Init
FUNC 136070 9d 0 google_breakpad::LinuxDumper::GetStackInfo
FUNC 136110 4b 0 google_breakpad::LinuxDumper::FindMapping
FUNC 136160 53 0 google_breakpad::LinuxDumper::HandleDeletedFileInMapping
FUNC 1361c0 32f 0 google_breakpad::LinuxDumper::ElfFileIdentifierForMapping
FUNC 1364f0 8eb 0 google_breakpad::LinuxDumper::EnumerateMappings
FUNC 136de0 143 0 google_breakpad::PageAllocator::Alloc
FUNC 136f30 281 0 std::vector<google_breakpad::MappingInfo*, google_breakpad::PageStdAllocator<google_breakpad::MappingInfo*> >::_M_default_append
FUNC 1371c0 3 0 google_breakpad::LinuxPtraceDumper::IsPostMortem
FUNC 1371d0 187 0 google_breakpad::LinuxPtraceDumper::CopyFromProcess
FUNC 137360 bb 0 google_breakpad::LinuxPtraceDumper::BuildProcPath
FUNC 137420 bc 0 google_breakpad::LinuxPtraceDumper::ThreadsResume
FUNC 1374e0 5ee 0 google_breakpad::LinuxPtraceDumper::EnumerateThreads
FUNC 137ad0 4cc 0 google_breakpad::LinuxPtraceDumper::GetThreadInfoByIndex
FUNC 137fa0 1c 0 google_breakpad::LinuxPtraceDumper::LinuxPtraceDumper
FUNC 137fc0 251 0 google_breakpad::LinuxPtraceDumper::ThreadsSuspend
FUNC 138220 f 0 google_breakpad::LinuxPtraceDumper::~LinuxPtraceDumper
FUNC 138230 1c 0 google_breakpad::LinuxPtraceDumper::~LinuxPtraceDumper
FUNC 138250 281 0 std::vector<int, google_breakpad::PageStdAllocator<int> >::_M_default_append
FUNC 1384e0 dd1 0 MinidumpWriter::WriteThreadListStream
FUNC 1392c0 1f53 0 MinidumpWriter::Dump
FUNC 13b220 188 0 google_breakpad::WriteMinidump
FUNC 13b3b0 2a1 0 google_breakpad::WriteMinidump
FUNC 13b660 282 0 WriteMinidumpImpl
FUNC 13b8f0 109 0 google_breakpad::WriteMinidump
FUNC 13ba00 109 0 google_breakpad::WriteMinidump
FUNC 13bb10 26 0 google_breakpad::WriteMinidump
FUNC 13bb40 25 0 google_breakpad::WriteMinidump
FUNC 13bb70 24 0 google_breakpad::WriteMinidump
FUNC 13bba0 23 0 google_breakpad::WriteMinidump
FUNC 13bbd0 232 0 google_breakpad::ProcCpuInfoReader::GetNextField
FUNC 13be10 254 0 std::vector<char, google_breakpad::PageStdAllocator<char> >::resize
FUNC 13c070 21b 0 std::vector<MDMemoryDescriptor, google_breakpad::PageStdAllocator<MDMemoryDescriptor> >::reserve
FUNC 13c290 24c 0 std::vector<MDMemoryDescriptor, google_breakpad::PageStdAllocator<MDMemoryDescriptor> >::_M_emplace_back_aux<const MDMemoryDescriptor&>
FUNC 13c4e0 1a 0 google_breakpad::MinidumpFileWriter::MinidumpFileWriter
FUNC 13c500 5a 0 google_breakpad::MinidumpFileWriter::Open
FUNC 13c560 7 0 google_breakpad::MinidumpFileWriter::SetFile
FUNC 13c570 5d 0 google_breakpad::MinidumpFileWriter::Close
FUNC 13c5d0 12 0 google_breakpad::MinidumpFileWriter::~MinidumpFileWriter
FUNC 13c5f0 61 0 google_breakpad::MinidumpFileWriter::Allocate
FUNC 13c660 93 0 google_breakpad::MinidumpFileWriter::Copy
FUNC 13c700 5b 0 google_breakpad::MinidumpFileWriter::WriteMemory
FUNC 13c760 d5 0 google_breakpad::MinidumpFileWriter::CopyStringToMDString
FUNC 13c840 d4 0 google_breakpad::MinidumpFileWriter::CopyStringToMDString
FUNC 13c920 1b 0 google_breakpad::UntypedMDRVA::Allocate
FUNC 13c940 8 0 google_breakpad::UntypedMDRVA::Copy
FUNC 13c950 5 0 google_breakpad::MinidumpFileWriter::WriteString
FUNC 13c960 5 0 google_breakpad::MinidumpFileWriter::WriteString
FUNC 13c970 185 0 google_breakpad::MinidumpFileWriter::WriteStringCore<wchar_t>
FUNC 13cb00 17a 0 google_breakpad::MinidumpFileWriter::WriteStringCore<char>
FUNC 13cc80 c2 0 std::__cxx11::basic_string<char, std::char_traits<char>, std::allocator<char> >::_M_construct<char const*>
FUNC 13cd50 b1 0 google_breakpad::UTF8ToUTF16Char
FUNC 13ce10 7b 0 google_breakpad::UTF32ToUTF16Char
FUNC 13ce90 173 0 google_breakpad::UTF16ToUTF8
FUNC 13d010 f0 0 google_breakpad::UTF32ToUTF16
FUNC 13d100 e8 0 google_breakpad::UTF8ToUTF16
FUNC 13d1f0 2bd 0 std::vector<short unsigned int, std::allocator<short unsigned int> >::_M_fill_insert
FUNC 13d4b0 14d 0 std::vector<short unsigned int, std::allocator<short unsigned int> >::_M_default_append
FUNC 13d600 1f 0 google_breakpad::IsValidElf
FUNC 13d620 5 0 google_breakpad::ElfClass
FUNC 13d630 22f 0 google_breakpad::FindElfSection
FUNC 13d860 135 0 google_breakpad::FindElfSegment
FUNC 13d9a0 e2 0 google_breakpad::FileID::FileID
FUNC 13da90 341 0 google_breakpad::FileID::ElfFileIdentifierFromMappedFile
FUNC 13dde0 7c 0 google_breakpad::FileID::ElfFileIdentifier
FUNC 13de60 104 0 google_breakpad::FileID::ConvertIdentifierToString
FUNC 13df70 73 0 CreateGUID
FUNC 13dff0 51 0 GUIDToString
FUNC 13e050 16 0 GUIDGenerator::InitOnceImpl
FUNC 13e070 1e 0 my_strlen
FUNC 13e090 46 0 my_strcmp
FUNC 13e0e0 56 0 my_strncmp
FUNC 13e140 4c 0 my_strtoui
FUNC 13e190 39 0 my_uint_len
FUNC 13e1d0 3c 0 my_uitos
FUNC 13e210 34 0 my_strchr
FUNC 13e250 26 0 my_strrchr
FUNC 13e280 34 0 my_memchr
FUNC 13e2c0 7c 0 my_read_hex_ptr
FUNC 13e340 3a 0 my_read_decimal_ptr
FUNC 13e380 1f 0 my_memset
FUNC 13e3a0 38 0 my_strlcpy
FUNC 13e3e0 8f 0 my_strlcat
FUNC 13e470 6c 0 my_isspace
FUNC 13e4e0 10 0 google_breakpad::MemoryMappedFile::MemoryMappedFile
FUNC 13e4f0 4b 0 google_breakpad::MemoryMappedFile::Unmap
FUNC 13e540 2 0 google_breakpad::MemoryMappedFile::~MemoryMappedFile
FUNC 13e550 1af 0 google_breakpad::MemoryMappedFile::Map
FUNC 13e700 14 0 google_breakpad::MemoryMappedFile::MemoryMappedFile
FUNC 13e720 40 0 google_breakpad::SafeReadLink
FUNC 13e760 2 0 google_breakpad::::CrashGenerationClientImpl::~CrashGenerationClientImpl
FUNC 13e770 213 0 google_breakpad::::CrashGenerationClientImpl::RequestDump
FUNC 13e990 5 0 google_breakpad::::CrashGenerationClientImpl::~CrashGenerationClientImpl
FUNC 13e9a0 23 0 google_breakpad::CrashGenerationClient::TryCreate
FUNC 13e9d0 8 0 google_breakpad::ThreadInfo::GetInstructionPointer
FUNC 13e9e0 2fc 0 google_breakpad::ThreadInfo::FillCPUContext
FUNC 13ece0 1a 0 google_breakpad::ThreadInfo::GetGeneralPurposeRegisters
FUNC 13ed00 1d 0 google_breakpad::ThreadInfo::GetFloatingPointRegisters
FUNC 13ed20 8 0 google_breakpad::UContextReader::GetStackPointer
FUNC 13ed30 8 0 google_breakpad::UContextReader::GetInstructionPointer
FUNC 13ed40 263 0 google_breakpad::UContextReader::FillCPUContext
FUNC 13efb0 c7 0 isLegalUTF8
FUNC 13f080 fd 0 ConvertUTF32toUTF16
FUNC 13f180 117 0 ConvertUTF16toUTF32
FUNC 13f2a0 1ff 0 ConvertUTF16toUTF8
FUNC 13f4a0 2b 0 isLegalUTF8Sequence
FUNC 13f4d0 26f 0 ConvertUTF8toUTF16
FUNC 13f740 19a 0 ConvertUTF32toUTF8
FUNC 13f8e0 287 0 ConvertUTF8toUTF32
FUNC 13fb70 e4 0 TryShmOrTempOpen
FUNC 13fc60 5 0 NaClDuplicateNaClHandle
FUNC 13fc70 8 0 NaClSetCreateMemoryObjectFunc
FUNC 13fc80 17 0 NaClWouldBlock
FUNC 13fca0 7c 0 NaClGetLastErrorString
FUNC 13fd20 36 0 NaClCreateMemoryObject
FUNC 13fd60 38 0 NaClMap
FUNC 13fda0 5 0 NaClUnmap
FUNC 13fdb0 6 0 NaClBoundSocket
FUNC 13fdc0 6 0 NaClSendDatagramTo
FUNC 13fdd0 14 0 NaClSocketPair
FUNC 13fdf0 5 0 NaClClose
FUNC 13fe00 142 0 NaClSendDatagram
FUNC 13ff50 1e6 0 NaClReceiveDatagram
FUNC 140140 53 0 NaClMessageSizeIsValid
FUNC 1401a0 7a 0 unz64local_getByte
FUNC 140220 96 0 unz64local_getShort
FUNC 1402c0 e6 0 unz64local_getLong
FUNC 1403b0 16a 0 unz64local_getLong64
FUNC 140520 812 0 unz64local_GetCurrentFileInfoInternal
FUNC 140d40 76 0 unzStringFileNameCompare
FUNC 140dc0 1d 0 unzGetGlobalInfo64
FUNC 140de0 1d 0 unzGetGlobalInfo
FUNC 140e00 23 0 unzGetCurrentFileInfo64
FUNC 140e30 118 0 unzGetCurrentFileInfo
FUNC 140f50 66 0 unzGoToFirstFile
FUNC 140fc0 84f 0 unzOpenInternal
FUNC 141810 60 0 unzOpen2
FUNC 141870 ab 0 unzOpen2_64
FUNC 141920 9 0 unzOpen
FUNC 141930 c 0 unzOpen64
FUNC 141940 ae 0 unzGoToNextFile
FUNC 1419f0 31c 0 unzLocateFile
FUNC 141d10 46 0 unzGetFilePos64
FUNC 141d60 3c 0 unzGetFilePos
FUNC 141da0 66 0 unzGoToFilePos64
FUNC 141e10 5c 0 unzGoToFilePos
FUNC 141e70 23 0 unzGetCurrentFileZStreamPos64
FUNC 141ea0 33a 0 unzReadCurrentFile
FUNC 1421e0 28 0 unztell
FUNC 142210 21 0 unztell64
FUNC 142240 26 0 unzeof
FUNC 142270 c4 0 unzGetLocalExtrafield
FUNC 142340 b0 0 unzCloseCurrentFile
FUNC 1423f0 35 0 unzClose
FUNC 142430 67f 0 unzOpenCurrentFile3
FUNC 142ab0 e 0 unzOpenCurrentFile
FUNC 142ac0 e 0 unzOpenCurrentFilePassword
FUNC 142ad0 8 0 unzOpenCurrentFile2
FUNC 142ae0 98 0 unzGetGlobalComment
FUNC 142b80 3c 0 unzGetOffset64
FUNC 142bc0 3a 0 unzGetOffset
FUNC 142c00 5e 0 unzSetOffset64
FUNC 142c60 2 0 unzSetOffset
FUNC 142c70 8 0 ferror_file_func
FUNC 142c80 8 0 fclose_file_func
FUNC 142c90 57 0 fseek_file_func
FUNC 142cf0 8 0 ftell_file_func
FUNC 142d00 13 0 fwrite_file_func
FUNC 142d20 49 0 fopen64_file_func
FUNC 142d80 57 0 fseek64_file_func
FUNC 142de0 8 0 ftell64_file_func
FUNC 142df0 13 0 fread_file_func
FUNC 142e10 1d 0 call_zopen64
FUNC 142e30 1d 0 call_zseek64
FUNC 142e50 3b 0 call_ztell64
FUNC 142e90 5f 0 fill_zlib_filefunc64_32_def_from_filefunc32
FUNC 142ef0 55 0 fill_fopen_filefunc
FUNC 142f50 55 0 fill_fopen64_filefunc
PUBLIC 174a0 0 _init
PUBLIC 1d690 0 _start
PUBLIC 1f220 0 std::ctype<char>::do_widen(char) const
PUBLIC 1f2c0 0 std::vector<std::pair<std::__cxx11::basic_string<char, std::char_traits<char>, std::allocator<char> >, std::__cxx11::basic_string<char, std::char_traits<char>, std::allocator<char> > >, std::allocator<std::pair<std::__cxx11::basic_string<char, std::char_traits<char>, std::allocator<char> >, std::__cxx11::basic_string<char, std::char_traits<char>, std::allocator<char> > > > >::~vector()
PUBLIC 1ffd0 0 std::pair<std::__cxx11::basic_string<char, std::char_traits<char>, std::allocator<char> >, std::__cxx11::basic_string<char, std::char_traits<char>, std::allocator<char> > >::~pair()
PUBLIC 20010 0 std::__cxx11::basic_stringbuf<char, std::char_traits<char>, std::allocator<char> >::~basic_stringbuf()
PUBLIC 20050 0 std::__cxx11::basic_stringbuf<char, std::char_traits<char>, std::allocator<char> >::~basic_stringbuf()
PUBLIC 20090 0 std::vector<std::__cxx11::basic_string<char, std::char_traits<char>, std::allocator<char> >, std::allocator<std::__cxx11::basic_string<char, std::char_traits<char>, std::allocator<char> > > >::~vector()
PUBLIC 21000 0 void std::vector<std::pair<std::__cxx11::basic_string<char, std::char_traits<char>, std::allocator<char> >, std::__cxx11::basic_string<char, std::char_traits<char>, std::allocator<char> > >, std::allocator<std::pair<std::__cxx11::basic_string<char, std::char_traits<char>, std::allocator<char> >, std::__cxx11::basic_string<char, std::char_traits<char>, std::allocator<char> > > > >::_M_emplace_back_aux<std::pair<std::__cxx11::basic_string<char, std::char_traits<char>, std::allocator<char> >, std::__cxx11::basic_string<char, std::char_traits<char>, std::allocator<char> > > >(std::pair<std::__cxx11::basic_string<char, std::char_traits<char>, std::allocator<char> >, std::__cxx11::basic_string<char, std::char_traits<char>, std::allocator<char> > >&&)
PUBLIC 24320 0 std::_Function_handler<void (bool), void (*)(bool)>::_M_invoke(std::_Any_data const&, bool&&)
PUBLIC 24330 0 std::_Function_base::_Base_manager<void (*)(bool)>::_M_manager(std::_Any_data&, std::_Any_data const&, std::_Manager_operation)
PUBLIC 349e0 0 void std::vector<char*, std::allocator<char*> >::_M_emplace_back_aux<char* const&>(char* const&)
PUBLIC 56d70 0 void std::vector<std::__cxx11::basic_string<char, std::char_traits<char>, std::allocator<char> >, std::allocator<std::__cxx11::basic_string<char, std::char_traits<char>, std::allocator<char> > > >::_M_emplace_back_aux<std::__cxx11::basic_string<char, std::char_traits<char>, std::allocator<char> > >(std::__cxx11::basic_string<char, std::char_traits<char>, std::allocator<char> >&&)
PUBLIC 5bf20 0 std::__cxx11::basic_string<char, std::char_traits<char>, std::allocator<char> > __gnu_cxx::__to_xstring<std::__cxx11::basic_string<char, std::char_traits<char>, std::allocator<char> >, char>(int (*)(char*, unsigned long, char const*, __va_list_tag*), unsigned long, char const*, ...)
PUBLIC 5c010 0 std::_Rb_tree<std::__cxx11::basic_string<char, std::char_traits<char>, std::allocator<char> >, std::__cxx11::basic_string<char, std::char_traits<char>, std::allocator<char> >, std::_Identity<std::__cxx11::basic_string<char, std::char_traits<char>, std::allocator<char> > >, std::less<std::__cxx11::basic_string<char, std::char_traits<char>, std::allocator<char> > >, std::allocator<std::__cxx11::basic_string<char, std::char_traits<char>, std::allocator<char> > > >::_M_erase(std::_Rb_tree_node<std::__cxx11::basic_string<char, std::char_traits<char>, std::allocator<char> > >*)
PUBLIC 65fa0 0 std::_Rb_tree<std::__cxx11::basic_string<char, std::char_traits<char>, std::allocator<char> >, std::pair<std::__cxx11::basic_string<char, std::char_traits<char>, std::allocator<char> > const, std::__cxx11::basic_string<char, std::char_traits<char>, std::allocator<char> > >, std::_Select1st<std::pair<std::__cxx11::basic_string<char, std::char_traits<char>, std::allocator<char> > const, std::__cxx11::basic_string<char, std::char_traits<char>, std::allocator<char> > > >, std::less<std::__cxx11::basic_string<char, std::char_traits<char>, std::allocator<char> > >, std::allocator<std::pair<std::__cxx11::basic_string<char, std::char_traits<char>, std::allocator<char> > const, std::__cxx11::basic_string<char, std::char_traits<char>, std::allocator<char> > > > >::_M_erase(std::_Rb_tree_node<std::pair<std::__cxx11::basic_string<char, std::char_traits<char>, std::allocator<char> > const, std::__cxx11::basic_string<char, std::char_traits<char>, std::allocator<char> > > >*)
PUBLIC 67e10 0 std::_Rb_tree<std::__cxx11::basic_string<char, std::char_traits<char>, std::allocator<char> >, std::pair<std::__cxx11::basic_string<char, std::char_traits<char>, std::allocator<char> > const, std::__cxx11::basic_string<char, std::char_traits<char>, std::allocator<char> > >, std::_Select1st<std::pair<std::__cxx11::basic_string<char, std::char_traits<char>, std::allocator<char> > const, std::__cxx11::basic_string<char, std::char_traits<char>, std::allocator<char> > > >, std::less<std::__cxx11::basic_string<char, std::char_traits<char>, std::allocator<char> > >, std::allocator<std::pair<std::__cxx11::basic_string<char, std::char_traits<char>, std::allocator<char> > const, std::__cxx11::basic_string<char, std::char_traits<char>, std::allocator<char> > > > >::equal_range(std::__cxx11::basic_string<char, std::char_traits<char>, std::allocator<char> > const&)
PUBLIC 68040 0 std::_Rb_tree<std::__cxx11::basic_string<char, std::char_traits<char>, std::allocator<char> >, std::pair<std::__cxx11::basic_string<char, std::char_traits<char>, std::allocator<char> > const, std::__cxx11::basic_string<char, std::char_traits<char>, std::allocator<char> > >, std::_Select1st<std::pair<std::__cxx11::basic_string<char, std::char_traits<char>, std::allocator<char> > const, std::__cxx11::basic_string<char, std::char_traits<char>, std::allocator<char> > > >, std::less<std::__cxx11::basic_string<char, std::char_traits<char>, std::allocator<char> > >, std::allocator<std::pair<std::__cxx11::basic_string<char, std::char_traits<char>, std::allocator<char> > const, std::__cxx11::basic_string<char, std::char_traits<char>, std::allocator<char> > > > >::erase(std::__cxx11::basic_string<char, std::char_traits<char>, std::allocator<char> > const&)
PUBLIC 69050 0 std::_Rb_tree<std::__cxx11::basic_string<char, std::char_traits<char>, std::allocator<char> >, std::pair<std::__cxx11::basic_string<char, std::char_traits<char>, std::allocator<char> > const, std::__cxx11::basic_string<char, std::char_traits<char>, std::allocator<char> > >, std::_Select1st<std::pair<std::__cxx11::basic_string<char, std::char_traits<char>, std::allocator<char> > const, std::__cxx11::basic_string<char, std::char_traits<char>, std::allocator<char> > > >, std::less<std::__cxx11::basic_string<char, std::char_traits<char>, std::allocator<char> > >, std::allocator<std::pair<std::__cxx11::basic_string<char, std::char_traits<char>, std::allocator<char> > const, std::__cxx11::basic_string<char, std::char_traits<char>, std::allocator<char> > > > >::_M_get_insert_unique_pos(std::__cxx11::basic_string<char, std::char_traits<char>, std::allocator<char> > const&)
PUBLIC 691a0 0 std::_Rb_tree<std::__cxx11::basic_string<char, std::char_traits<char>, std::allocator<char> >, std::pair<std::__cxx11::basic_string<char, std::char_traits<char>, std::allocator<char> > const, std::__cxx11::basic_string<char, std::char_traits<char>, std::allocator<char> > >, std::_Select1st<std::pair<std::__cxx11::basic_string<char, std::char_traits<char>, std::allocator<char> > const, std::__cxx11::basic_string<char, std::char_traits<char>, std::allocator<char> > > >, std::less<std::__cxx11::basic_string<char, std::char_traits<char>, std::allocator<char> > >, std::allocator<std::pair<std::__cxx11::basic_string<char, std::char_traits<char>, std::allocator<char> > const, std::__cxx11::basic_string<char, std::char_traits<char>, std::allocator<char> > > > >::_M_get_insert_hint_unique_pos(std::_Rb_tree_const_iterator<std::pair<std::__cxx11::basic_string<char, std::char_traits<char>, std::allocator<char> > const, std::__cxx11::basic_string<char, std::char_traits<char>, std::allocator<char> > > >, std::__cxx11::basic_string<char, std::char_traits<char>, std::allocator<char> > const&)
PUBLIC 69450 0 std::_Rb_tree_iterator<std::pair<std::__cxx11::basic_string<char, std::char_traits<char>, std::allocator<char> > const, std::__cxx11::basic_string<char, std::char_traits<char>, std::allocator<char> > > > std::_Rb_tree<std::__cxx11::basic_string<char, std::char_traits<char>, std::allocator<char> >, std::pair<std::__cxx11::basic_string<char, std::char_traits<char>, std::allocator<char> > const, std::__cxx11::basic_string<char, std::char_traits<char>, std::allocator<char> > >, std::_Select1st<std::pair<std::__cxx11::basic_string<char, std::char_traits<char>, std::allocator<char> > const, std::__cxx11::basic_string<char, std::char_traits<char>, std::allocator<char> > > >, std::less<std::__cxx11::basic_string<char, std::char_traits<char>, std::allocator<char> > >, std::allocator<std::pair<std::__cxx11::basic_string<char, std::char_traits<char>, std::allocator<char> > const, std::__cxx11::basic_string<char, std::char_traits<char>, std::allocator<char> > > > >::_M_emplace_hint_unique<std::piecewise_construct_t const&, std::tuple<std::__cxx11::basic_string<char, std::char_traits<char>, std::allocator<char> >&&>, std::tuple<> >(std::_Rb_tree_const_iterator<std::pair<std::__cxx11::basic_string<char, std::char_traits<char>, std::allocator<char> > const, std::__cxx11::basic_string<char, std::char_traits<char>, std::allocator<char> > > >, std::piecewise_construct_t const&, std::tuple<std::__cxx11::basic_string<char, std::char_traits<char>, std::allocator<char> >&&>&&, std::tuple<>&&)
PUBLIC 695e0 0 std::map<std::__cxx11::basic_string<char, std::char_traits<char>, std::allocator<char> >, std::__cxx11::basic_string<char, std::char_traits<char>, std::allocator<char> >, std::less<std::__cxx11::basic_string<char, std::char_traits<char>, std::allocator<char> > >, std::allocator<std::pair<std::__cxx11::basic_string<char, std::char_traits<char>, std::allocator<char> > const, std::__cxx11::basic_string<char, std::char_traits<char>, std::allocator<char> > > > >::operator[](std::__cxx11::basic_string<char, std::char_traits<char>, std::allocator<char> >&&)
PUBLIC 700f0 0 std::__cxx11::basic_string<char, std::char_traits<char>, std::allocator<char> > Cvar::GetCvarTypeName<ServerPrivate>()
PUBLIC 81200 0 std::__cxx11::basic_string<char, std::char_traits<char>, std::allocator<char> > std::operator+<char, std::char_traits<char>, std::allocator<char> >(char const*, std::__cxx11::basic_string<char, std::char_traits<char>, std::allocator<char> > const&)
PUBLIC 812b0 0 std::__cxx11::basic_string<char, std::char_traits<char>, std::allocator<char> > std::operator+<char, std::char_traits<char>, std::allocator<char> >(std::__cxx11::basic_string<char, std::char_traits<char>, std::allocator<char> >&&, char const*)
PUBLIC 81380 0 void std::vector<char, std::allocator<char> >::_M_range_insert<char const*>(__gnu_cxx::__normal_iterator<char*, std::vector<char, std::allocator<char> > >, char const*, char const*, std::forward_iterator_tag)
PUBLIC 93100 0 std::__cxx11::basic_string<char, std::char_traits<char>, std::allocator<char> > Cvar::GetCvarTypeName<bool>()
PUBLIC 93150 0 std::__cxx11::basic_string<char, std::char_traits<char>, std::allocator<char> > Cvar::GetCvarTypeName<int>()
PUBLIC 93190 0 std::__cxx11::basic_string<char, std::char_traits<char>, std::allocator<char> > Cvar::GetCvarTypeName<float>()
PUBLIC 93240 0 std::__cxx11::basic_string<char, std::char_traits<char>, std::allocator<char> > Cvar::GetCvarTypeName<std::__cxx11::basic_string<char, std::char_traits<char>, std::allocator<char> > >()
PUBLIC 93270 0 std::__cxx11::basic_string<char, std::char_traits<char>, std::allocator<char> > Cvar::GetCvarTypeName<unsigned long>()
PUBLIC a3340 0 std::_Sp_counted_base<(__gnu_cxx::_Lock_policy)2>::_M_destroy()
PUBLIC a3e80 0 __gnu_cxx::__enable_if<std::__is_char<char>::__value, bool>::__type std::operator==<char>(std::__cxx11::basic_string<char, std::char_traits<char>, std::allocator<char> > const&, std::__cxx11::basic_string<char, std::char_traits<char>, std::allocator<char> > const&)
PUBLIC a4f10 0 std::_Hashtable<std::__cxx11::basic_string<char, std::char_traits<char>, std::allocator<char> >, std::pair<std::__cxx11::basic_string<char, std::char_traits<char>, std::allocator<char> > const, std::pair<unsigned int, long> >, std::allocator<std::pair<std::__cxx11::basic_string<char, std::char_traits<char>, std::allocator<char> > const, std::pair<unsigned int, long> > >, std::__detail::_Select1st, std::equal_to<std::__cxx11::basic_string<char, std::char_traits<char>, std::allocator<char> > >, std::hash<std::__cxx11::basic_string<char, std::char_traits<char>, std::allocator<char> > >, std::__detail::_Mod_range_hashing, std::__detail::_Default_ranged_hash, std::__detail::_Prime_rehash_policy, std::__detail::_Hashtable_traits<true, false, true> >::clear()
PUBLIC a4f50 0 std::_Hashtable<std::__cxx11::basic_string<char, std::char_traits<char>, std::allocator<char> >, std::pair<std::__cxx11::basic_string<char, std::char_traits<char>, std::allocator<char> > const, std::pair<unsigned int, long> >, std::allocator<std::pair<std::__cxx11::basic_string<char, std::char_traits<char>, std::allocator<char> > const, std::pair<unsigned int, long> > >, std::__detail::_Select1st, std::equal_to<std::__cxx11::basic_string<char, std::char_traits<char>, std::allocator<char> > >, std::hash<std::__cxx11::basic_string<char, std::char_traits<char>, std::allocator<char> > >, std::__detail::_Mod_range_hashing, std::__detail::_Default_ranged_hash, std::__detail::_Prime_rehash_policy, std::__detail::_Hashtable_traits<true, false, true> >::~_Hashtable()
PUBLIC a4f80 0 std::unordered_map<std::__cxx11::basic_string<char, std::char_traits<char>, std::allocator<char> >, std::pair<unsigned int, long>, std::hash<std::__cxx11::basic_string<char, std::char_traits<char>, std::allocator<char> > >, std::equal_to<std::__cxx11::basic_string<char, std::char_traits<char>, std::allocator<char> > >, std::allocator<std::pair<std::__cxx11::basic_string<char, std::char_traits<char>, std::allocator<char> > const, std::pair<unsigned int, long> > > >::~unordered_map()
PUBLIC a5350 0 void std::vector<std::__cxx11::basic_string<char, std::char_traits<char>, std::allocator<char> >, std::allocator<std::__cxx11::basic_string<char, std::char_traits<char>, std::allocator<char> > > >::_M_emplace_back_aux<std::__cxx11::basic_string<char, std::char_traits<char>, std::allocator<char> > const&>(std::__cxx11::basic_string<char, std::char_traits<char>, std::allocator<char> > const&)
PUBLIC a5e20 0 std::__detail::_Hash_node<std::pair<std::__cxx11::basic_string<char, std::char_traits<char>, std::allocator<char> > const, std::pair<unsigned int, long> >, true>* std::__detail::_Hashtable_alloc<std::allocator<std::__detail::_Hash_node<std::pair<std::__cxx11::basic_string<char, std::char_traits<char>, std::allocator<char> > const, std::pair<unsigned int, long> >, true> > >::_M_allocate_node<std::pair<std::__cxx11::basic_string<char, std::char_traits<char>, std::allocator<char> > const, std::pair<unsigned int, long> > const&>(std::pair<std::__cxx11::basic_string<char, std::char_traits<char>, std::allocator<char> > const, std::pair<unsigned int, long> > const&)
PUBLIC a5ea0 0 void std::_Hashtable<std::__cxx11::basic_string<char, std::char_traits<char>, std::allocator<char> >, std::pair<std::__cxx11::basic_string<char, std::char_traits<char>, std::allocator<char> > const, std::pair<unsigned int, long> >, std::allocator<std::pair<std::__cxx11::basic_string<char, std::char_traits<char>, std::allocator<char> > const, std::pair<unsigned int, long> > >, std::__detail::_Select1st, std::equal_to<std::__cxx11::basic_string<char, std::char_traits<char>, std::allocator<char> > >, std::hash<std::__cxx11::basic_string<char, std::char_traits<char>, std::allocator<char> > >, std::__detail::_Mod_range_hashing, std::__detail::_Default_ranged_hash, std::__detail::_Prime_rehash_policy, std::__detail::_Hashtable_traits<true, false, true> >::_M_assign<std::_Hashtable<std::__cxx11::basic_string<char, std::char_traits<char>, std::allocator<char> >, std::pair<std::__cxx11::basic_string<char, std::char_traits<char>, std::allocator<char> > const, std::pair<unsigned int, long> >, std::allocator<std::pair<std::__cxx11::basic_string<char, std::char_traits<char>, std::allocator<char> > const, std::pair<unsigned int, long> > >, std::__detail::_Select1st, std::equal_to<std::__cxx11::basic_string<char, std::char_traits<char>, std::allocator<char> > >, std::hash<std::__cxx11::basic_string<char, std::char_traits<char>, std::allocator<char> > >, std::__detail::_Mod_range_hashing, std::__detail::_Default_ranged_hash, std::__detail::_Prime_rehash_policy, std::__detail::_Hashtable_traits<true, false, true> >::operator=(std::_Hashtable<std::__cxx11::basic_string<char, std::char_traits<char>, std::allocator<char> >, std::pair<std::__cxx11::basic_string<char, std::char_traits<char>, std::allocator<char> > const, std::pair<unsigned int, long> >, std::allocator<std::pair<std::__cxx11::basic_string<char, std::char_traits<char>, std::allocator<char> > const, std::pair<unsigned int, long> > >, std::__detail::_Select1st, std::equal_to<std::__cxx11::basic_string<char, std::char_traits<char>, std::allocator<char> > >, std::hash<std::__cxx11::basic_string<char, std::char_traits<char>, std::allocator<char> > >, std::__detail::_Mod_range_hashing, std::__detail::_Default_ranged_hash, std::__detail::_Prime_rehash_policy, std::__detail::_Hashtable_traits<true, false, true> > const&)::{lambda(std::__detail::_Hash_node<std::pair<std::__cxx11::basic_string<char, std::char_traits<char>, std::allocator<char> > const, std::pair<unsigned int, long> >, true> const*)#2}>(std::_Hashtable<std::__cxx11::basic_string<char, std::char_traits<char>, std::allocator<char> >, std::pair<std::__cxx11::basic_string<char, std::char_traits<char>, std::allocator<char> > const, std::pair<unsigned int, long> >, std::allocator<std::pair<std::__cxx11::basic_string<char, std::char_traits<char>, std::allocator<char> > const, std::pair<unsigned int, long> > >, std::__detail::_Select1st, std::equal_to<std::__cxx11::basic_string<char, std::char_traits<char>, std::allocator<char> > >, std::hash<std::__cxx11::basic_string<char, std::char_traits<char>, std::allocator<char> > >, std::__detail::_Mod_range_hashing, std::__detail::_Default_ranged_hash, std::__detail::_Prime_rehash_policy, std::__detail::_Hashtable_traits<true, false, true> > const&, std::_Hashtable<std::__cxx11::basic_string<char, std::char_traits<char>, std::allocator<char> >, std::pair<std::__cxx11::basic_string<char, std::char_traits<char>, std::allocator<char> > const, std::pair<unsigned int, long> >, std::allocator<std::pair<std::__cxx11::basic_string<char, std::char_traits<char>, std::allocator<char> > const, std::pair<unsigned int, long> > >, std::__detail::_Select1st, std::equal_to<std::__cxx11::basic_string<char, std::char_traits<char>, std::allocator<char> > >, std::hash<std::__cxx11::basic_string<char, std::char_traits<char>, std::allocator<char> > >, std::__detail::_Mod_range_hashing, std::__detail::_Default_ranged_hash, std::__detail::_Prime_rehash_policy, std::__detail::_Hashtable_traits<true, false, true> >::operator=(std::_Hashtable<std::__cxx11::basic_string<char, std::char_traits<char>, std::allocator<char> >, std::pair<std::__cxx11::basic_string<char, std::char_traits<char>, std::allocator<char> > const, std::pair<unsigned int, long> >, std::allocator<std::pair<std::__cxx11::basic_string<char, std::char_traits<char>, std::allocator<char> > const, std::pair<unsigned int, long> > >, std::__detail::_Select1st, std::equal_to<std::__cxx11::basic_string<char, std::char_traits<char>, std::allocator<char> > >, std::hash<std::__cxx11::basic_string<char, std::char_traits<char>, std::allocator<char> > >, std::__detail::_Mod_range_hashing, std::__detail::_Default_ranged_hash, std::__detail::_Prime_rehash_policy, std::__detail::_Hashtable_traits<true, false, true> > const&)::{lambda(std::__detail::_Hash_node<std::pair<std::__cxx11::basic_string<char, std::char_traits<char>, std::allocator<char> > const, std::pair<unsigned int, long> >, true> const*)#2} const&)
PUBLIC a6120 0 std::_Hashtable<std::__cxx11::basic_string<char, std::char_traits<char>, std::allocator<char> >, std::pair<std::__cxx11::basic_string<char, std::char_traits<char>, std::allocator<char> > const, std::pair<unsigned int, long> >, std::allocator<std::pair<std::__cxx11::basic_string<char, std::char_traits<char>, std::allocator<char> > const, std::pair<unsigned int, long> > >, std::__detail::_Select1st, std::equal_to<std::__cxx11::basic_string<char, std::char_traits<char>, std::allocator<char> > >, std::hash<std::__cxx11::basic_string<char, std::char_traits<char>, std::allocator<char> > >, std::__detail::_Mod_range_hashing, std::__detail::_Default_ranged_hash, std::__detail::_Prime_rehash_policy, std::__detail::_Hashtable_traits<true, false, true> >::operator=(std::_Hashtable<std::__cxx11::basic_string<char, std::char_traits<char>, std::allocator<char> >, std::pair<std::__cxx11::basic_string<char, std::char_traits<char>, std::allocator<char> > const, std::pair<unsigned int, long> >, std::allocator<std::pair<std::__cxx11::basic_string<char, std::char_traits<char>, std::allocator<char> > const, std::pair<unsigned int, long> > >, std::__detail::_Select1st, std::equal_to<std::__cxx11::basic_string<char, std::char_traits<char>, std::allocator<char> > >, std::hash<std::__cxx11::basic_string<char, std::char_traits<char>, std::allocator<char> > >, std::__detail::_Mod_range_hashing, std::__detail::_Default_ranged_hash, std::__detail::_Prime_rehash_policy, std::__detail::_Hashtable_traits<true, false, true> > const&)
PUBLIC a7350 0 std::_Hashtable<std::__cxx11::basic_string<char, std::char_traits<char>, std::allocator<char> >, std::pair<std::__cxx11::basic_string<char, std::char_traits<char>, std::allocator<char> > const, std::pair<unsigned int, long> >, std::allocator<std::pair<std::__cxx11::basic_string<char, std::char_traits<char>, std::allocator<char> > const, std::pair<unsigned int, long> > >, std::__detail::_Select1st, std::equal_to<std::__cxx11::basic_string<char, std::char_traits<char>, std::allocator<char> > >, std::hash<std::__cxx11::basic_string<char, std::char_traits<char>, std::allocator<char> > >, std::__detail::_Mod_range_hashing, std::__detail::_Default_ranged_hash, std::__detail::_Prime_rehash_policy, std::__detail::_Hashtable_traits<true, false, true> >::_M_find_before_node(unsigned long, std::__cxx11::basic_string<char, std::char_traits<char>, std::allocator<char> > const&, unsigned long) const
PUBLIC a7400 0 std::_Hashtable<std::__cxx11::basic_string<char, std::char_traits<char>, std::allocator<char> >, std::pair<std::__cxx11::basic_string<char, std::char_traits<char>, std::allocator<char> > const, std::pair<unsigned int, long> >, std::allocator<std::pair<std::__cxx11::basic_string<char, std::char_traits<char>, std::allocator<char> > const, std::pair<unsigned int, long> > >, std::__detail::_Select1st, std::equal_to<std::__cxx11::basic_string<char, std::char_traits<char>, std::allocator<char> > >, std::hash<std::__cxx11::basic_string<char, std::char_traits<char>, std::allocator<char> > >, std::__detail::_Mod_range_hashing, std::__detail::_Default_ranged_hash, std::__detail::_Prime_rehash_policy, std::__detail::_Hashtable_traits<true, false, true> >::find(std::__cxx11::basic_string<char, std::char_traits<char>, std::allocator<char> > const&)
PUBLIC a7460 0 void std::vector<std::pair<std::__cxx11::basic_string<char, std::char_traits<char>, std::allocator<char> >, std::__cxx11::basic_string<char, std::char_traits<char>, std::allocator<char> > >, std::allocator<std::pair<std::__cxx11::basic_string<char, std::char_traits<char>, std::allocator<char> >, std::__cxx11::basic_string<char, std::char_traits<char>, std::allocator<char> > > > >::_M_emplace_back_aux<std::__cxx11::basic_string<char, std::char_traits<char>, std::allocator<char> >&, char const (&) [1]>(std::__cxx11::basic_string<char, std::char_traits<char>, std::allocator<char> >&, char const (&) [1])
PUBLIC a7700 0 void std::vector<std::pair<std::__cxx11::basic_string<char, std::char_traits<char>, std::allocator<char> >, std::__cxx11::basic_string<char, std::char_traits<char>, std::allocator<char> > >, std::allocator<std::pair<std::__cxx11::basic_string<char, std::char_traits<char>, std::allocator<char> >, std::__cxx11::basic_string<char, std::char_traits<char>, std::allocator<char> > > > >::emplace_back<std::__cxx11::basic_string<char, std::char_traits<char>, std::allocator<char> >&, char const (&) [1]>(std::__cxx11::basic_string<char, std::char_traits<char>, std::allocator<char> >&, char const (&) [1])
PUBLIC a7820 0 std::_Hashtable<std::__cxx11::basic_string<char, std::char_traits<char>, std::allocator<char> >, std::pair<std::__cxx11::basic_string<char, std::char_traits<char>, std::allocator<char> > const, std::pair<unsigned int, long> >, std::allocator<std::pair<std::__cxx11::basic_string<char, std::char_traits<char>, std::allocator<char> > const, std::pair<unsigned int, long> > >, std::__detail::_Select1st, std::equal_to<std::__cxx11::basic_string<char, std::char_traits<char>, std::allocator<char> > >, std::hash<std::__cxx11::basic_string<char, std::char_traits<char>, std::allocator<char> > >, std::__detail::_Mod_range_hashing, std::__detail::_Default_ranged_hash, std::__detail::_Prime_rehash_policy, std::__detail::_Hashtable_traits<true, false, true> >::_M_rehash(unsigned long, unsigned long const&)
PUBLIC a7910 0 std::_Hashtable<std::__cxx11::basic_string<char, std::char_traits<char>, std::allocator<char> >, std::pair<std::__cxx11::basic_string<char, std::char_traits<char>, std::allocator<char> > const, std::pair<unsigned int, long> >, std::allocator<std::pair<std::__cxx11::basic_string<char, std::char_traits<char>, std::allocator<char> > const, std::pair<unsigned int, long> > >, std::__detail::_Select1st, std::equal_to<std::__cxx11::basic_string<char, std::char_traits<char>, std::allocator<char> > >, std::hash<std::__cxx11::basic_string<char, std::char_traits<char>, std::allocator<char> > >, std::__detail::_Mod_range_hashing, std::__detail::_Default_ranged_hash, std::__detail::_Prime_rehash_policy, std::__detail::_Hashtable_traits<true, false, true> >::_M_insert_unique_node(unsigned long, unsigned long, std::__detail::_Hash_node<std::pair<std::__cxx11::basic_string<char, std::char_traits<char>, std::allocator<char> > const, std::pair<unsigned int, long> >, true>*)
PUBLIC a7a30 0 std::pair<std::__detail::_Node_iterator<std::pair<std::__cxx11::basic_string<char, std::char_traits<char>, std::allocator<char> > const, std::pair<unsigned int, long> >, false, true>, bool> std::_Hashtable<std::__cxx11::basic_string<char, std::char_traits<char>, std::allocator<char> >, std::pair<std::__cxx11::basic_string<char, std::char_traits<char>, std::allocator<char> > const, std::pair<unsigned int, long> >, std::allocator<std::pair<std::__cxx11::basic_string<char, std::char_traits<char>, std::allocator<char> > const, std::pair<unsigned int, long> > >, std::__detail::_Select1st, std::equal_to<std::__cxx11::basic_string<char, std::char_traits<char>, std::allocator<char> > >, std::hash<std::__cxx11::basic_string<char, std::char_traits<char>, std::allocator<char> > >, std::__detail::_Mod_range_hashing, std::__detail::_Default_ranged_hash, std::__detail::_Prime_rehash_policy, std::__detail::_Hashtable_traits<true, false, true> >::_M_emplace<std::__cxx11::basic_string<char, std::char_traits<char>, std::allocator<char> > const&, std::pair<unsigned int, long> >(std::integral_constant<bool, true>, std::__cxx11::basic_string<char, std::char_traits<char>, std::allocator<char> > const&, std::pair<unsigned int, long>&&)
PUBLIC a7b30 0 std::pair<std::__detail::_Node_iterator<std::pair<std::__cxx11::basic_string<char, std::char_traits<char>, std::allocator<char> > const, std::pair<unsigned int, long> >, false, true>, bool> std::_Hashtable<std::__cxx11::basic_string<char, std::char_traits<char>, std::allocator<char> >, std::pair<std::__cxx11::basic_string<char, std::char_traits<char>, std::allocator<char> > const, std::pair<unsigned int, long> >, std::allocator<std::pair<std::__cxx11::basic_string<char, std::char_traits<char>, std::allocator<char> > const, std::pair<unsigned int, long> > >, std::__detail::_Select1st, std::equal_to<std::__cxx11::basic_string<char, std::char_traits<char>, std::allocator<char> > >, std::hash<std::__cxx11::basic_string<char, std::char_traits<char>, std::allocator<char> > >, std::__detail::_Mod_range_hashing, std::__detail::_Default_ranged_hash, std::__detail::_Prime_rehash_policy, std::__detail::_Hashtable_traits<true, false, true> >::_M_emplace<Str::BasicStringRef<char>&, std::pair<unsigned int, long> >(std::integral_constant<bool, true>, Str::BasicStringRef<char>&, std::pair<unsigned int, long>&&)
PUBLIC ab510 0 void std::vector<char, std::allocator<char> >::_M_range_insert<char*>(__gnu_cxx::__normal_iterator<char*, std::vector<char, std::allocator<char> > >, char*, char*, std::forward_iterator_tag)
PUBLIC ac860 0 std::__cxx11::basic_string<char, std::char_traits<char>, std::allocator<char> > Cvar::GetCvarTypeName<Log::Level>()
PUBLIC adf00 0 std::_Sp_counted_base<(__gnu_cxx::_Lock_policy)2>::_M_release()
PUBLIC b0430 0 operator new(unsigned long)
PUBLIC b0460 0 operator delete(void*)
PUBLIC b44c0 0 std::vector<void*, std::allocator<void*> >::~vector()
PUBLIC b51b0 0 void std::vector<void*, std::allocator<void*> >::_M_emplace_back_aux<void* const&>(void* const&)
PUBLIC ca0d0 0 std::_Rb_tree_iterator<std::pair<std::__cxx11::basic_string<char, std::char_traits<char>, std::allocator<char> > const, std::__cxx11::basic_string<char, std::char_traits<char>, std::allocator<char> > > > std::_Rb_tree<std::__cxx11::basic_string<char, std::char_traits<char>, std::allocator<char> >, std::pair<std::__cxx11::basic_string<char, std::char_traits<char>, std::allocator<char> > const, std::__cxx11::basic_string<char, std::char_traits<char>, std::allocator<char> > >, std::_Select1st<std::pair<std::__cxx11::basic_string<char, std::char_traits<char>, std::allocator<char> > const, std::__cxx11::basic_string<char, std::char_traits<char>, std::allocator<char> > > >, std::less<std::__cxx11::basic_string<char, std::char_traits<char>, std::allocator<char> > >, std::allocator<std::pair<std::__cxx11::basic_string<char, std::char_traits<char>, std::allocator<char> > const, std::__cxx11::basic_string<char, std::char_traits<char>, std::allocator<char> > > > >::_M_emplace_hint_unique<std::piecewise_construct_t const&, std::tuple<std::__cxx11::basic_string<char, std::char_traits<char>, std::allocator<char> > const&>, std::tuple<> >(std::_Rb_tree_const_iterator<std::pair<std::__cxx11::basic_string<char, std::char_traits<char>, std::allocator<char> > const, std::__cxx11::basic_string<char, std::char_traits<char>, std::allocator<char> > > >, std::piecewise_construct_t const&, std::tuple<std::__cxx11::basic_string<char, std::char_traits<char>, std::allocator<char> > const&>&&, std::tuple<>&&)
PUBLIC d0d90 0 void std::vector<std::pair<std::__cxx11::basic_string<char, std::char_traits<char>, std::allocator<char> >, std::__cxx11::basic_string<char, std::char_traits<char>, std::allocator<char> > >, std::allocator<std::pair<std::__cxx11::basic_string<char, std::char_traits<char>, std::allocator<char> >, std::__cxx11::basic_string<char, std::char_traits<char>, std::allocator<char> > > > >::emplace_back<std::pair<std::__cxx11::basic_string<char, std::char_traits<char>, std::allocator<char> >, std::__cxx11::basic_string<char, std::char_traits<char>, std::allocator<char> > > >(std::pair<std::__cxx11::basic_string<char, std::char_traits<char>, std::allocator<char> >, std::__cxx11::basic_string<char, std::char_traits<char>, std::allocator<char> > >&&)
PUBLIC d14d0 0 void std::vector<std::__cxx11::basic_string<char, std::char_traits<char>, std::allocator<char> > const*, std::allocator<std::__cxx11::basic_string<char, std::char_traits<char>, std::allocator<char> > const*> >::_M_emplace_back_aux<std::__cxx11::basic_string<char, std::char_traits<char>, std::allocator<char> > const*>(std::__cxx11::basic_string<char, std::char_traits<char>, std::allocator<char> > const*&&)
PUBLIC d6af0 0 std::vector<std::__cxx11::basic_string<char, std::char_traits<char>, std::allocator<char> >, std::allocator<std::__cxx11::basic_string<char, std::char_traits<char>, std::allocator<char> > > >::operator=(std::vector<std::__cxx11::basic_string<char, std::char_traits<char>, std::allocator<char> >, std::allocator<std::__cxx11::basic_string<char, std::char_traits<char>, std::allocator<char> > > > const&)
PUBLIC e1d10 0 std::_Tuple_impl<0ul, std::__cxx11::basic_string<char, std::char_traits<char>, std::allocator<char> >, std::__cxx11::basic_string<char, std::char_traits<char>, std::allocator<char> > >::~_Tuple_impl()
PUBLIC e1f30 0 std::_Tuple_impl<0ul, std::__cxx11::basic_string<char, std::char_traits<char>, std::allocator<char> >, std::__cxx11::basic_string<char, std::char_traits<char>, std::allocator<char> >, int>::~_Tuple_impl()
PUBLIC e23c0 0 std::_Hashtable<std::__cxx11::basic_string<char, std::char_traits<char>, std::allocator<char> >, std::pair<std::__cxx11::basic_string<char, std::char_traits<char>, std::allocator<char> > const, unsigned long>, std::allocator<std::pair<std::__cxx11::basic_string<char, std::char_traits<char>, std::allocator<char> > const, unsigned long> >, std::__detail::_Select1st, std::equal_to<std::__cxx11::basic_string<char, std::char_traits<char>, std::allocator<char> > >, std::hash<std::__cxx11::basic_string<char, std::char_traits<char>, std::allocator<char> > >, std::__detail::_Mod_range_hashing, std::__detail::_Default_ranged_hash, std::__detail::_Prime_rehash_policy, std::__detail::_Hashtable_traits<true, false, true> >::_M_insert_unique_node(unsigned long, unsigned long, std::__detail::_Hash_node<std::pair<std::__cxx11::basic_string<char, std::char_traits<char>, std::allocator<char> > const, unsigned long>, true>*)
PUBLIC e27f0 0 std::_Hashtable<std::__cxx11::basic_string<char, std::char_traits<char>, std::allocator<char> >, std::pair<std::__cxx11::basic_string<char, std::char_traits<char>, std::allocator<char> > const, unsigned long>, std::allocator<std::pair<std::__cxx11::basic_string<char, std::char_traits<char>, std::allocator<char> > const, unsigned long> >, std::__detail::_Select1st, std::equal_to<std::__cxx11::basic_string<char, std::char_traits<char>, std::allocator<char> > >, std::hash<std::__cxx11::basic_string<char, std::char_traits<char>, std::allocator<char> > >, std::__detail::_Mod_range_hashing, std::__detail::_Default_ranged_hash, std::__detail::_Prime_rehash_policy, std::__detail::_Hashtable_traits<true, false, true> >::_M_find_before_node(unsigned long, std::__cxx11::basic_string<char, std::char_traits<char>, std::allocator<char> > const&, unsigned long) const
PUBLIC e45c0 0 std::vector<std::pair<std::__cxx11::basic_string<char, std::char_traits<char>, std::allocator<char> >, std::__cxx11::basic_string<char, std::char_traits<char>, std::allocator<char> > >, std::allocator<std::pair<std::__cxx11::basic_string<char, std::char_traits<char>, std::allocator<char> >, std::__cxx11::basic_string<char, std::char_traits<char>, std::allocator<char> > > > >::_M_default_append(unsigned long)
PUBLIC f61b0 0 std::_Sp_counted_ptr_inplace<std::thread::_Impl<std::_Bind_simple<void (*())()> >, std::allocator<std::thread::_Impl<std::_Bind_simple<void (*())()> > >, (__gnu_cxx::_Lock_policy)2>::~_Sp_counted_ptr_inplace()
PUBLIC f61c0 0 std::_Sp_counted_ptr_inplace<std::thread::_Impl<std::_Bind_simple<void (*())()> >, std::allocator<std::thread::_Impl<std::_Bind_simple<void (*())()> > >, (__gnu_cxx::_Lock_policy)2>::_M_dispose()
PUBLIC f61d0 0 std::thread::_Impl<std::_Bind_simple<void (*())()> >::_M_run()
PUBLIC f61f0 0 std::_Sp_counted_ptr_inplace<std::thread::_Impl<std::_Bind_simple<void (*())()> >, std::allocator<std::thread::_Impl<std::_Bind_simple<void (*())()> > >, (__gnu_cxx::_Lock_policy)2>::~_Sp_counted_ptr_inplace()
PUBLIC f6200 0 std::_Sp_counted_ptr_inplace<std::thread::_Impl<std::_Bind_simple<void (*())()> >, std::allocator<std::thread::_Impl<std::_Bind_simple<void (*())()> > >, (__gnu_cxx::_Lock_policy)2>::_M_destroy()
PUBLIC f6210 0 std::_Sp_counted_ptr_inplace<std::thread::_Impl<std::_Bind_simple<void (*())()> >, std::allocator<std::thread::_Impl<std::_Bind_simple<void (*())()> > >, (__gnu_cxx::_Lock_policy)2>::_M_get_deleter(std::type_info const&)
PUBLIC f6240 0 std::thread::_Impl<std::_Bind_simple<void (*())()> >::~_Impl()
PUBLIC f62c0 0 std::thread::_Impl<std::_Bind_simple<void (*())()> >::~_Impl()
PUBLIC f6570 0 std::__cxx11::basic_string<char, std::char_traits<char>, std::allocator<char> > std::operator+<char, std::char_traits<char>, std::allocator<char> >(std::__cxx11::basic_string<char, std::char_traits<char>, std::allocator<char> >&&, std::__cxx11::basic_string<char, std::char_traits<char>, std::allocator<char> > const&)
PUBLIC f6640 0 std::thread::thread<void (&)()>(void (&)())
PUBLIC f6780 0 void std::vector<std::__cxx11::basic_string<char, std::char_traits<char>, std::allocator<char> >, std::allocator<std::__cxx11::basic_string<char, std::char_traits<char>, std::allocator<char> > > >::emplace_back<std::__cxx11::basic_string<char, std::char_traits<char>, std::allocator<char> > >(std::__cxx11::basic_string<char, std::char_traits<char>, std::allocator<char> >&&)
PUBLIC f7680 0 std::_Hashtable<std::__cxx11::basic_string<char, std::char_traits<char>, std::allocator<char> >, std::pair<std::__cxx11::basic_string<char, std::char_traits<char>, std::allocator<char> > const, std::__cxx11::basic_string<char, std::char_traits<char>, std::allocator<char> > >, std::allocator<std::pair<std::__cxx11::basic_string<char, std::char_traits<char>, std::allocator<char> > const, std::__cxx11::basic_string<char, std::char_traits<char>, std::allocator<char> > > >, std::__detail::_Select1st, std::equal_to<std::__cxx11::basic_string<char, std::char_traits<char>, std::allocator<char> > >, std::hash<std::__cxx11::basic_string<char, std::char_traits<char>, std::allocator<char> > >, std::__detail::_Mod_range_hashing, std::__detail::_Default_ranged_hash, std::__detail::_Prime_rehash_policy, std::__detail::_Hashtable_traits<true, false, true> >::_M_insert_unique_node(unsigned long, unsigned long, std::__detail::_Hash_node<std::pair<std::__cxx11::basic_string<char, std::char_traits<char>, std::allocator<char> > const, std::__cxx11::basic_string<char, std::char_traits<char>, std::allocator<char> > >, true>*)
PUBLIC f78a0 0 void std::vector<std::__cxx11::basic_string<char, std::char_traits<char>, std::allocator<char> >, std::allocator<std::__cxx11::basic_string<char, std::char_traits<char>, std::allocator<char> > > >::_M_insert_aux<std::__cxx11::basic_string<char, std::char_traits<char>, std::allocator<char> > >(__gnu_cxx::__normal_iterator<std::__cxx11::basic_string<char, std::char_traits<char>, std::allocator<char> >*, std::vector<std::__cxx11::basic_string<char, std::char_traits<char>, std::allocator<char> >, std::allocator<std::__cxx11::basic_string<char, std::char_traits<char>, std::allocator<char> > > > >, std::__cxx11::basic_string<char, std::char_traits<char>, std::allocator<char> >&&)
PUBLIC f7d30 0 std::_Hashtable<std::__cxx11::basic_string<char, std::char_traits<char>, std::allocator<char> >, std::pair<std::__cxx11::basic_string<char, std::char_traits<char>, std::allocator<char> > const, std::__cxx11::basic_string<char, std::char_traits<char>, std::allocator<char> > >, std::allocator<std::pair<std::__cxx11::basic_string<char, std::char_traits<char>, std::allocator<char> > const, std::__cxx11::basic_string<char, std::char_traits<char>, std::allocator<char> > > >, std::__detail::_Select1st, std::equal_to<std::__cxx11::basic_string<char, std::char_traits<char>, std::allocator<char> > >, std::hash<std::__cxx11::basic_string<char, std::char_traits<char>, std::allocator<char> > >, std::__detail::_Mod_range_hashing, std::__detail::_Default_ranged_hash, std::__detail::_Prime_rehash_policy, std::__detail::_Hashtable_traits<true, false, true> >::_M_find_before_node(unsigned long, std::__cxx11::basic_string<char, std::char_traits<char>, std::allocator<char> > const&, unsigned long) const
PUBLIC fb7a0 0 void std::vector<char const*, std::allocator<char const*> >::_M_emplace_back_aux<char const*>(char const*&&)
PUBLIC fb890 0 void std::vector<char const*, std::allocator<char const*> >::emplace_back<char const*>(char const*&&)
PUBLIC fe2a0 0 std::vector<unsigned char, std::allocator<unsigned char> >::operator=(std::vector<unsigned char, std::allocator<unsigned char> > const&)
PUBLIC fe3c0 0 void std::vector<unsigned char, std::allocator<unsigned char> >::emplace_back<unsigned char>(unsigned char&&)
PUBLIC fe4a0 0 std::vector<unsigned char, std::allocator<unsigned char> >::_M_erase(__gnu_cxx::__normal_iterator<unsigned char*, std::vector<unsigned char, std::allocator<unsigned char> > >, __gnu_cxx::__normal_iterator<unsigned char*, std::vector<unsigned char, std::allocator<unsigned char> > >)
PUBLIC fe500 0 std::vector<unsigned char, std::allocator<unsigned char> >::_M_fill_insert(__gnu_cxx::__normal_iterator<unsigned char*, std::vector<unsigned char, std::allocator<unsigned char> > >, unsigned long, unsigned char const&)
PUBLIC ff630 0 std::__cxx11::basic_string<unsigned char, std::char_traits<unsigned char>, std::allocator<unsigned char> >::_M_mutate(unsigned long, unsigned long, unsigned char const*, unsigned long)
PUBLIC ff7a0 0 std::__cxx11::basic_string<unsigned char, std::char_traits<unsigned char>, std::allocator<unsigned char> >::_M_replace(unsigned long, unsigned long, unsigned char const*, unsigned long)
PUBLIC 105fd0 0 std::__cxx11::basic_string<char32_t, std::char_traits<char32_t>, std::allocator<char32_t> >::_M_erase(unsigned long, unsigned long)
PUBLIC 109e70 0 std::__cxx11::basic_string<char32_t, std::char_traits<char32_t>, std::allocator<char32_t> >::_M_mutate(unsigned long, unsigned long, char32_t const*, unsigned long)
PUBLIC 109fe0 0 std::__cxx11::basic_string<char32_t, std::char_traits<char32_t>, std::allocator<char32_t> >::_M_replace(unsigned long, unsigned long, char32_t const*, unsigned long)
PUBLIC 10b860 0 std::unique_lock<std::mutex>::unlock()
PUBLIC 10c590 0 void std::vector<std::__cxx11::basic_string<char, std::char_traits<char>, std::allocator<char> >, std::allocator<std::__cxx11::basic_string<char, std::char_traits<char>, std::allocator<char> > > >::_M_emplace_back_aux<std::__cxx11::basic_string<char, std::char_traits<char>, std::allocator<char> >&, unsigned long&, unsigned long>(std::__cxx11::basic_string<char, std::char_traits<char>, std::allocator<char> >&, unsigned long&, unsigned long&&)
PUBLIC 10e6c0 0 std::_Rb_tree<std::__cxx11::basic_string<char, std::char_traits<char>, std::allocator<char> >, std::pair<std::__cxx11::basic_string<char, std::char_traits<char>, std::allocator<char> > const, std::vector<std::__cxx11::basic_string<char, std::char_traits<char>, std::allocator<char> >, std::allocator<std::__cxx11::basic_string<char, std::char_traits<char>, std::allocator<char> > > > >, std::_Select1st<std::pair<std::__cxx11::basic_string<char, std::char_traits<char>, std::allocator<char> > const, std::vector<std::__cxx11::basic_string<char, std::char_traits<char>, std::allocator<char> >, std::allocator<std::__cxx11::basic_string<char, std::char_traits<char>, std::allocator<char> > > > > >, std::less<std::__cxx11::basic_string<char, std::char_traits<char>, std::allocator<char> > >, std::allocator<std::pair<std::__cxx11::basic_string<char, std::char_traits<char>, std::allocator<char> > const, std::vector<std::__cxx11::basic_string<char, std::char_traits<char>, std::allocator<char> >, std::allocator<std::__cxx11::basic_string<char, std::char_traits<char>, std::allocator<char> > > > > > >::_M_erase(std::_Rb_tree_node<std::pair<std::__cxx11::basic_string<char, std::char_traits<char>, std::allocator<char> > const, std::vector<std::__cxx11::basic_string<char, std::char_traits<char>, std::allocator<char> >, std::allocator<std::__cxx11::basic_string<char, std::char_traits<char>, std::allocator<char> > > > > >*)
PUBLIC 10e770 0 std::_Rb_tree<std::__cxx11::basic_string<char, std::char_traits<char>, std::allocator<char> >, std::pair<std::__cxx11::basic_string<char, std::char_traits<char>, std::allocator<char> > const, std::map<std::__cxx11::basic_string<char, std::char_traits<char>, std::allocator<char> >, std::vector<std::__cxx11::basic_string<char, std::char_traits<char>, std::allocator<char> >, std::allocator<std::__cxx11::basic_string<char, std::char_traits<char>, std::allocator<char> > > >, std::less<std::__cxx11::basic_string<char, std::char_traits<char>, std::allocator<char> > >, std::allocator<std::pair<std::__cxx11::basic_string<char, std::char_traits<char>, std::allocator<char> > const, std::vector<std::__cxx11::basic_string<char, std::char_traits<char>, std::allocator<char> >, std::allocator<std::__cxx11::basic_string<char, std::char_traits<char>, std::allocator<char> > > > > > > >, std::_Select1st<std::pair<std::__cxx11::basic_string<char, std::char_traits<char>, std::allocator<char> > const, std::map<std::__cxx11::basic_string<char, std::char_traits<char>, std::allocator<char> >, std::vector<std::__cxx11::basic_string<char, std::char_traits<char>, std::allocator<char> >, std::allocator<std::__cxx11::basic_string<char, std::char_traits<char>, std::allocator<char> > > >, std::less<std::__cxx11::basic_string<char, std::char_traits<char>, std::allocator<char> > >, std::allocator<std::pair<std::__cxx11::basic_string<char, std::char_traits<char>, std::allocator<char> > const, std::vector<std::__cxx11::basic_string<char, std::char_traits<char>, std::allocator<char> >, std::allocator<std::__cxx11::basic_string<char, std::char_traits<char>, std::allocator<char> > > > > > > > >, std::less<std::__cxx11::basic_string<char, std::char_traits<char>, std::allocator<char> > >, std::allocator<std::pair<std::__cxx11::basic_string<char, std::char_traits<char>, std::allocator<char> > const, std::map<std::__cxx11::basic_string<char, std::char_traits<char>, std::allocator<char> >, std::vector<std::__cxx11::basic_string<char, std::char_traits<char>, std::allocator<char> >, std::allocator<std::__cxx11::basic_string<char, std::char_traits<char>, std::allocator<char> > > >, std::less<std::__cxx11::basic_string<char, std::char_traits<char>, std::allocator<char> > >, std::allocator<std::pair<std::__cxx11::basic_string<char, std::char_traits<char>, std::allocator<char> > const, std::vector<std::__cxx11::basic_string<char, std::char_traits<char>, std::allocator<char> >, std::allocator<std::__cxx11::basic_string<char, std::char_traits<char>, std::allocator<char> > > > > > > > > >::_M_erase(std::_Rb_tree_node<std::pair<std::__cxx11::basic_string<char, std::char_traits<char>, std::allocator<char> > const, std::map<std::__cxx11::basic_string<char, std::char_traits<char>, std::allocator<char> >, std::vector<std::__cxx11::basic_string<char, std::char_traits<char>, std::allocator<char> >, std::allocator<std::__cxx11::basic_string<char, std::char_traits<char>, std::allocator<char> > > >, std::less<std::__cxx11::basic_string<char, std::char_traits<char>, std::allocator<char> > >, std::allocator<std::pair<std::__cxx11::basic_string<char, std::char_traits<char>, std::allocator<char> > const, std::vector<std::__cxx11::basic_string<char, std::char_traits<char>, std::allocator<char> >, std::allocator<std::__cxx11::basic_string<char, std::char_traits<char>, std::allocator<char> > > > > > > > >*)
PUBLIC 10e7d0 0 std::_Rb_tree<std::__cxx11::basic_string<char, std::char_traits<char>, std::allocator<char> >, std::pair<std::__cxx11::basic_string<char, std::char_traits<char>, std::allocator<char> > const, std::vector<std::__cxx11::basic_string<char, std::char_traits<char>, std::allocator<char> >, std::allocator<std::__cxx11::basic_string<char, std::char_traits<char>, std::allocator<char> > > > >, std::_Select1st<std::pair<std::__cxx11::basic_string<char, std::char_traits<char>, std::allocator<char> > const, std::vector<std::__cxx11::basic_string<char, std::char_traits<char>, std::allocator<char> >, std::allocator<std::__cxx11::basic_string<char, std::char_traits<char>, std::allocator<char> > > > > >, std::less<std::__cxx11::basic_string<char, std::char_traits<char>, std::allocator<char> > >, std::allocator<std::pair<std::__cxx11::basic_string<char, std::char_traits<char>, std::allocator<char> > const, std::vector<std::__cxx11::basic_string<char, std::char_traits<char>, std::allocator<char> >, std::allocator<std::__cxx11::basic_string<char, std::char_traits<char>, std::allocator<char> > > > > > >::find(std::__cxx11::basic_string<char, std::char_traits<char>, std::allocator<char> > const&) const
PUBLIC 10e8e0 0 std::_Rb_tree<std::__cxx11::basic_string<char, std::char_traits<char>, std::allocator<char> >, std::pair<std::__cxx11::basic_string<char, std::char_traits<char>, std::allocator<char> > const, std::map<std::__cxx11::basic_string<char, std::char_traits<char>, std::allocator<char> >, std::vector<std::__cxx11::basic_string<char, std::char_traits<char>, std::allocator<char> >, std::allocator<std::__cxx11::basic_string<char, std::char_traits<char>, std::allocator<char> > > >, std::less<std::__cxx11::basic_string<char, std::char_traits<char>, std::allocator<char> > >, std::allocator<std::pair<std::__cxx11::basic_string<char, std::char_traits<char>, std::allocator<char> > const, std::vector<std::__cxx11::basic_string<char, std::char_traits<char>, std::allocator<char> >, std::allocator<std::__cxx11::basic_string<char, std::char_traits<char>, std::allocator<char> > > > > > > >, std::_Select1st<std::pair<std::__cxx11::basic_string<char, std::char_traits<char>, std::allocator<char> > const, std::map<std::__cxx11::basic_string<char, std::char_traits<char>, std::allocator<char> >, std::vector<std::__cxx11::basic_string<char, std::char_traits<char>, std::allocator<char> >, std::allocator<std::__cxx11::basic_string<char, std::char_traits<char>, std::allocator<char> > > >, std::less<std::__cxx11::basic_string<char, std::char_traits<char>, std::allocator<char> > >, std::allocator<std::pair<std::__cxx11::basic_string<char, std::char_traits<char>, std::allocator<char> > const, std::vector<std::__cxx11::basic_string<char, std::char_traits<char>, std::allocator<char> >, std::allocator<std::__cxx11::basic_string<char, std::char_traits<char>, std::allocator<char> > > > > > > > >, std::less<std::__cxx11::basic_string<char, std::char_traits<char>, std::allocator<char> > >, std::allocator<std::pair<std::__cxx11::basic_string<char, std::char_traits<char>, std::allocator<char> > const, std::map<std::__cxx11::basic_string<char, std::char_traits<char>, std::allocator<char> >, std::vector<std::__cxx11::basic_string<char, std::char_traits<char>, std::allocator<char> >, std::allocator<std::__cxx11::basic_string<char, std::char_traits<char>, std::allocator<char> > > >, std::less<std::__cxx11::basic_string<char, std::char_traits<char>, std::allocator<char> > >, std::allocator<std::pair<std::__cxx11::basic_string<char, std::char_traits<char>, std::allocator<char> > const, std::vector<std::__cxx11::basic_string<char, std::char_traits<char>, std::allocator<char> >, std::allocator<std::__cxx11::basic_string<char, std::char_traits<char>, std::allocator<char> > > > > > > > > >::find(std::__cxx11::basic_string<char, std::char_traits<char>, std::allocator<char> > const&)
PUBLIC 10e9f0 0 std::_Rb_tree<std::__cxx11::basic_string<char, std::char_traits<char>, std::allocator<char> >, std::pair<std::__cxx11::basic_string<char, std::char_traits<char>, std::allocator<char> > const, std::vector<std::__cxx11::basic_string<char, std::char_traits<char>, std::allocator<char> >, std::allocator<std::__cxx11::basic_string<char, std::char_traits<char>, std::allocator<char> > > > >, std::_Select1st<std::pair<std::__cxx11::basic_string<char, std::char_traits<char>, std::allocator<char> > const, std::vector<std::__cxx11::basic_string<char, std::char_traits<char>, std::allocator<char> >, std::allocator<std::__cxx11::basic_string<char, std::char_traits<char>, std::allocator<char> > > > > >, std::less<std::__cxx11::basic_string<char, std::char_traits<char>, std::allocator<char> > >, std::allocator<std::pair<std::__cxx11::basic_string<char, std::char_traits<char>, std::allocator<char> > const, std::vector<std::__cxx11::basic_string<char, std::char_traits<char>, std::allocator<char> >, std::allocator<std::__cxx11::basic_string<char, std::char_traits<char>, std::allocator<char> > > > > > >::_M_get_insert_unique_pos(std::__cxx11::basic_string<char, std::char_traits<char>, std::allocator<char> > const&)
PUBLIC 10eb40 0 std::_Rb_tree<std::__cxx11::basic_string<char, std::char_traits<char>, std::allocator<char> >, std::pair<std::__cxx11::basic_string<char, std::char_traits<char>, std::allocator<char> > const, std::vector<std::__cxx11::basic_string<char, std::char_traits<char>, std::allocator<char> >, std::allocator<std::__cxx11::basic_string<char, std::char_traits<char>, std::allocator<char> > > > >, std::_Select1st<std::pair<std::__cxx11::basic_string<char, std::char_traits<char>, std::allocator<char> > const, std::vector<std::__cxx11::basic_string<char, std::char_traits<char>, std::allocator<char> >, std::allocator<std::__cxx11::basic_string<char, std::char_traits<char>, std::allocator<char> > > > > >, std::less<std::__cxx11::basic_string<char, std::char_traits<char>, std::allocator<char> > >, std::allocator<std::pair<std::__cxx11::basic_string<char, std::char_traits<char>, std::allocator<char> > const, std::vector<std::__cxx11::basic_string<char, std::char_traits<char>, std::allocator<char> >, std::allocator<std::__cxx11::basic_string<char, std::char_traits<char>, std::allocator<char> > > > > > >::_M_get_insert_hint_unique_pos(std::_Rb_tree_const_iterator<std::pair<std::__cxx11::basic_string<char, std::char_traits<char>, std::allocator<char> > const, std::vector<std::__cxx11::basic_string<char, std::char_traits<char>, std::allocator<char> >, std::allocator<std::__cxx11::basic_string<char, std::char_traits<char>, std::allocator<char> > > > > >, std::__cxx11::basic_string<char, std::char_traits<char>, std::allocator<char> > const&)
PUBLIC 10edf0 0 std::_Rb_tree_iterator<std::pair<std::__cxx11::basic_string<char, std::char_traits<char>, std::allocator<char> > const, std::vector<std::__cxx11::basic_string<char, std::char_traits<char>, std::allocator<char> >, std::allocator<std::__cxx11::basic_string<char, std::char_traits<char>, std::allocator<char> > > > > > std::_Rb_tree<std::__cxx11::basic_string<char, std::char_traits<char>, std::allocator<char> >, std::pair<std::__cxx11::basic_string<char, std::char_traits<char>, std::allocator<char> > const, std::vector<std::__cxx11::basic_string<char, std::char_traits<char>, std::allocator<char> >, std::allocator<std::__cxx11::basic_string<char, std::char_traits<char>, std::allocator<char> > > > >, std::_Select1st<std::pair<std::__cxx11::basic_string<char, std::char_traits<char>, std::allocator<char> > const, std::vector<std::__cxx11::basic_string<char, std::char_traits<char>, std::allocator<char> >, std::allocator<std::__cxx11::basic_string<char, std::char_traits<char>, std::allocator<char> > > > > >, std::less<std::__cxx11::basic_string<char, std::char_traits<char>, std::allocator<char> > >, std::allocator<std::pair<std::__cxx11::basic_string<char, std::char_traits<char>, std::allocator<char> > const, std::vector<std::__cxx11::basic_string<char, std::char_traits<char>, std::allocator<char> >, std::allocator<std::__cxx11::basic_string<char, std::char_traits<char>, std::allocator<char> > > > > > >::_M_emplace_hint_unique<std::piecewise_construct_t const&, std::tuple<std::__cxx11::basic_string<char, std::char_traits<char>, std::allocator<char> > const&>, std::tuple<> >(std::_Rb_tree_const_iterator<std::pair<std::__cxx11::basic_string<char, std::char_traits<char>, std::allocator<char> > const, std::vector<std::__cxx11::basic_string<char, std::char_traits<char>, std::allocator<char> >, std::allocator<std::__cxx11::basic_string<char, std::char_traits<char>, std::allocator<char> > > > > >, std::piecewise_construct_t const&, std::tuple<std::__cxx11::basic_string<char, std::char_traits<char>, std::allocator<char> > const&>&&, std::tuple<>&&)
PUBLIC 10efa0 0 std::_Rb_tree<std::__cxx11::basic_string<char, std::char_traits<char>, std::allocator<char> >, std::pair<std::__cxx11::basic_string<char, std::char_traits<char>, std::allocator<char> > const, std::map<std::__cxx11::basic_string<char, std::char_traits<char>, std::allocator<char> >, std::vector<std::__cxx11::basic_string<char, std::char_traits<char>, std::allocator<char> >, std::allocator<std::__cxx11::basic_string<char, std::char_traits<char>, std::allocator<char> > > >, std::less<std::__cxx11::basic_string<char, std::char_traits<char>, std::allocator<char> > >, std::allocator<std::pair<std::__cxx11::basic_string<char, std::char_traits<char>, std::allocator<char> > const, std::vector<std::__cxx11::basic_string<char, std::char_traits<char>, std::allocator<char> >, std::allocator<std::__cxx11::basic_string<char, std::char_traits<char>, std::allocator<char> > > > > > > >, std::_Select1st<std::pair<std::__cxx11::basic_string<char, std::char_traits<char>, std::allocator<char> > const, std::map<std::__cxx11::basic_string<char, std::char_traits<char>, std::allocator<char> >, std::vector<std::__cxx11::basic_string<char, std::char_traits<char>, std::allocator<char> >, std::allocator<std::__cxx11::basic_string<char, std::char_traits<char>, std::allocator<char> > > >, std::less<std::__cxx11::basic_string<char, std::char_traits<char>, std::allocator<char> > >, std::allocator<std::pair<std::__cxx11::basic_string<char, std::char_traits<char>, std::allocator<char> > const, std::vector<std::__cxx11::basic_string<char, std::char_traits<char>, std::allocator<char> >, std::allocator<std::__cxx11::basic_string<char, std::char_traits<char>, std::allocator<char> > > > > > > > >, std::less<std::__cxx11::basic_string<char, std::char_traits<char>, std::allocator<char> > >, std::allocator<std::pair<std::__cxx11::basic_string<char, std::char_traits<char>, std::allocator<char> > const, std::map<std::__cxx11::basic_string<char, std::char_traits<char>, std::allocator<char> >, std::vector<std::__cxx11::basic_string<char, std::char_traits<char>, std::allocator<char> >, std::allocator<std::__cxx11::basic_string<char, std::char_traits<char>, std::allocator<char> > > >, std::less<std::__cxx11::basic_string<char, std::char_traits<char>, std::allocator<char> > >, std::allocator<std::pair<std::__cxx11::basic_string<char, std::char_traits<char>, std::allocator<char> > const, std::vector<std::__cxx11::basic_string<char, std::char_traits<char>, std::allocator<char> >, std::allocator<std::__cxx11::basic_string<char, std::char_traits<char>, std::allocator<char> > > > > > > > > >::_M_get_insert_unique_pos(std::__cxx11::basic_string<char, std::char_traits<char>, std::allocator<char> > const&)
PUBLIC 10f0f0 0 std::_Rb_tree<std::__cxx11::basic_string<char, std::char_traits<char>, std::allocator<char> >, std::pair<std::__cxx11::basic_string<char, std::char_traits<char>, std::allocator<char> > const, std::map<std::__cxx11::basic_string<char, std::char_traits<char>, std::allocator<char> >, std::vector<std::__cxx11::basic_string<char, std::char_traits<char>, std::allocator<char> >, std::allocator<std::__cxx11::basic_string<char, std::char_traits<char>, std::allocator<char> > > >, std::less<std::__cxx11::basic_string<char, std::char_traits<char>, std::allocator<char> > >, std::allocator<std::pair<std::__cxx11::basic_string<char, std::char_traits<char>, std::allocator<char> > const, std::vector<std::__cxx11::basic_string<char, std::char_traits<char>, std::allocator<char> >, std::allocator<std::__cxx11::basic_string<char, std::char_traits<char>, std::allocator<char> > > > > > > >, std::_Select1st<std::pair<std::__cxx11::basic_string<char, std::char_traits<char>, std::allocator<char> > const, std::map<std::__cxx11::basic_string<char, std::char_traits<char>, std::allocator<char> >, std::vector<std::__cxx11::basic_string<char, std::char_traits<char>, std::allocator<char> >, std::allocator<std::__cxx11::basic_string<char, std::char_traits<char>, std::allocator<char> > > >, std::less<std::__cxx11::basic_string<char, std::char_traits<char>, std::allocator<char> > >, std::allocator<std::pair<std::__cxx11::basic_string<char, std::char_traits<char>, std::allocator<char> > const, std::vector<std::__cxx11::basic_string<char, std::char_traits<char>, std::allocator<char> >, std::allocator<std::__cxx11::basic_string<char, std::char_traits<char>, std::allocator<char> > > > > > > > >, std::less<std::__cxx11::basic_string<char, std::char_traits<char>, std::allocator<char> > >, std::allocator<std::pair<std::__cxx11::basic_string<char, std::char_traits<char>, std::allocator<char> > const, std::map<std::__cxx11::basic_string<char, std::char_traits<char>, std::allocator<char> >, std::vector<std::__cxx11::basic_string<char, std::char_traits<char>, std::allocator<char> >, std::allocator<std::__cxx11::basic_string<char, std::char_traits<char>, std::allocator<char> > > >, std::less<std::__cxx11::basic_string<char, std::char_traits<char>, std::allocator<char> > >, std::allocator<std::pair<std::__cxx11::basic_string<char, std::char_traits<char>, std::allocator<char> > const, std::vector<std::__cxx11::basic_string<char, std::char_traits<char>, std::allocator<char> >, std::allocator<std::__cxx11::basic_string<char, std::char_traits<char>, std::allocator<char> > > > > > > > > >::_M_get_insert_hint_unique_pos(std::_Rb_tree_const_iterator<std::pair<std::__cxx11::basic_string<char, std::char_traits<char>, std::allocator<char> > const, std::map<std::__cxx11::basic_string<char, std::char_traits<char>, std::allocator<char> >, std::vector<std::__cxx11::basic_string<char, std::char_traits<char>, std::allocator<char> >, std::allocator<std::__cxx11::basic_string<char, std::char_traits<char>, std::allocator<char> > > >, std::less<std::__cxx11::basic_string<char, std::char_traits<char>, std::allocator<char> > >, std::allocator<std::pair<std::__cxx11::basic_string<char, std::char_traits<char>, std::allocator<char> > const, std::vector<std::__cxx11::basic_string<char, std::char_traits<char>, std::allocator<char> >, std::allocator<std::__cxx11::basic_string<char, std::char_traits<char>, std::allocator<char> > > > > > > > >, std::__cxx11::basic_string<char, std::char_traits<char>, std::allocator<char> > const&)
PUBLIC 10f3a0 0 std::_Rb_tree_iterator<std::pair<std::__cxx11::basic_string<char, std::char_traits<char>, std::allocator<char> > const, std::map<std::__cxx11::basic_string<char, std::char_traits<char>, std::allocator<char> >, std::vector<std::__cxx11::basic_string<char, std::char_traits<char>, std::allocator<char> >, std::allocator<std::__cxx11::basic_string<char, std::char_traits<char>, std::allocator<char> > > >, std::less<std::__cxx11::basic_string<char, std::char_traits<char>, std::allocator<char> > >, std::allocator<std::pair<std::__cxx11::basic_string<char, std::char_traits<char>, std::allocator<char> > const, std::vector<std::__cxx11::basic_string<char, std::char_traits<char>, std::allocator<char> >, std::allocator<std::__cxx11::basic_string<char, std::char_traits<char>, std::allocator<char> > > > > > > > > std::_Rb_tree<std::__cxx11::basic_string<char, std::char_traits<char>, std::allocator<char> >, std::pair<std::__cxx11::basic_string<char, std::char_traits<char>, std::allocator<char> > const, std::map<std::__cxx11::basic_string<char, std::char_traits<char>, std::allocator<char> >, std::vector<std::__cxx11::basic_string<char, std::char_traits<char>, std::allocator<char> >, std::allocator<std::__cxx11::basic_string<char, std::char_traits<char>, std::allocator<char> > > >, std::less<std::__cxx11::basic_string<char, std::char_traits<char>, std::allocator<char> > >, std::allocator<std::pair<std::__cxx11::basic_string<char, std::char_traits<char>, std::allocator<char> > const, std::vector<std::__cxx11::basic_string<char, std::char_traits<char>, std::allocator<char> >, std::allocator<std::__cxx11::basic_string<char, std::char_traits<char>, std::allocator<char> > > > > > > >, std::_Select1st<std::pair<std::__cxx11::basic_string<char, std::char_traits<char>, std::allocator<char> > const, std::map<std::__cxx11::basic_string<char, std::char_traits<char>, std::allocator<char> >, std::vector<std::__cxx11::basic_string<char, std::char_traits<char>, std::allocator<char> >, std::allocator<std::__cxx11::basic_string<char, std::char_traits<char>, std::allocator<char> > > >, std::less<std::__cxx11::basic_string<char, std::char_traits<char>, std::allocator<char> > >, std::allocator<std::pair<std::__cxx11::basic_string<char, std::char_traits<char>, std::allocator<char> > const, std::vector<std::__cxx11::basic_string<char, std::char_traits<char>, std::allocator<char> >, std::allocator<std::__cxx11::basic_string<char, std::char_traits<char>, std::allocator<char> > > > > > > > >, std::less<std::__cxx11::basic_string<char, std::char_traits<char>, std::allocator<char> > >, std::allocator<std::pair<std::__cxx11::basic_string<char, std::char_traits<char>, std::allocator<char> > const, std::map<std::__cxx11::basic_string<char, std::char_traits<char>, std::allocator<char> >, std::vector<std::__cxx11::basic_string<char, std::char_traits<char>, std::allocator<char> >, std::allocator<std::__cxx11::basic_string<char, std::char_traits<char>, std::allocator<char> > > >, std::less<std::__cxx11::basic_string<char, std::char_traits<char>, std::allocator<char> > >, std::allocator<std::pair<std::__cxx11::basic_string<char, std::char_traits<char>, std::allocator<char> > const, std::vector<std::__cxx11::basic_string<char, std::char_traits<char>, std::allocator<char> >, std::allocator<std::__cxx11::basic_string<char, std::char_traits<char>, std::allocator<char> > > > > > > > > >::_M_emplace_hint_unique<std::piecewise_construct_t const&, std::tuple<std::__cxx11::basic_string<char, std::char_traits<char>, std::allocator<char> > const&>, std::tuple<> >(std::_Rb_tree_const_iterator<std::pair<std::__cxx11::basic_string<char, std::char_traits<char>, std::allocator<char> > const, std::map<std::__cxx11::basic_string<char, std::char_traits<char>, std::allocator<char> >, std::vector<std::__cxx11::basic_string<char, std::char_traits<char>, std::allocator<char> >, std::allocator<std::__cxx11::basic_string<char, std::char_traits<char>, std::allocator<char> > > >, std::less<std::__cxx11::basic_string<char, std::char_traits<char>, std::allocator<char> > >, std::allocator<std::pair<std::__cxx11::basic_string<char, std::char_traits<char>, std::allocator<char> > const, std::vector<std::__cxx11::basic_string<char, std::char_traits<char>, std::allocator<char> >, std::allocator<std::__cxx11::basic_string<char, std::char_traits<char>, std::allocator<char> > > > > > > > >, std::piecewise_construct_t const&, std::tuple<std::__cxx11::basic_string<char, std::char_traits<char>, std::allocator<char> > const&>&&, std::tuple<>&&)
PUBLIC 114020 0 std::map<std::__cxx11::basic_string<char, std::char_traits<char>, std::allocator<char> >, std::__cxx11::basic_string<char, std::char_traits<char>, std::allocator<char> >, std::less<std::__cxx11::basic_string<char, std::char_traits<char>, std::allocator<char> > >, std::allocator<std::pair<std::__cxx11::basic_string<char, std::char_traits<char>, std::allocator<char> > const, std::__cxx11::basic_string<char, std::char_traits<char>, std::allocator<char> > > > >::~map()
PUBLIC 1170e0 0 std::vector<std::__cxx11::basic_string<char, std::char_traits<char>, std::allocator<char> >, std::allocator<std::__cxx11::basic_string<char, std::char_traits<char>, std::allocator<char> > > >::_M_default_append(unsigned long)
PUBLIC 13d1f0 0 std::vector<unsigned short, std::allocator<unsigned short> >::_M_fill_insert(__gnu_cxx::__normal_iterator<unsigned short*, std::vector<unsigned short, std::allocator<unsigned short> > >, unsigned long, unsigned short const&)
PUBLIC 13d4b0 0 std::vector<unsigned short, std::allocator<unsigned short> >::_M_default_append(unsigned long)
PUBLIC 142fb0 0 __libc_csu_init
PUBLIC 143020 0 __libc_csu_fini
PUBLIC 143024 0 _fini
STACK CFI INIT 1d690 2a .cfa: $rsp 8 + .ra: .cfa -8 + ^
STACK CFI INIT 174c0 10 .cfa: $rsp 16 + .ra: .cfa -8 + ^
STACK CFI 174c6 .cfa: $rsp 24 +
STACK CFI INIT 1f220 3 .cfa: $rsp 8 + .ra: .cfa -8 + ^
STACK CFI INIT 1f230 2 .cfa: $rsp 8 + .ra: .cfa -8 + ^
STACK CFI INIT 1f240 5 .cfa: $rsp 8 + .ra: .cfa -8 + ^
STACK CFI INIT 1d7c0 1f .cfa: $rsp 8 + .ra: .cfa -8 + ^
STACK CFI 1d7c1 $rbx: .cfa -16 + ^ .cfa: $rsp 16 +
STACK CFI 1d7da .cfa: $rsp 8 +
STACK CFI INIT 1f250 6e .cfa: $rsp 8 + .ra: .cfa -8 + ^
STACK CFI 1f251 $rbp: .cfa -16 + ^ .cfa: $rsp 16 +
STACK CFI 1f252 $rbx: .cfa -24 + ^ .cfa: $rsp 24 +
STACK CFI 1f259 .cfa: $rsp 32 +
STACK CFI 1f2b0 .cfa: $rsp 24 +
STACK CFI 1f2b1 .cfa: $rsp 16 +
STACK CFI 1f2b2 .cfa: $rsp 8 +
STACK CFI 1f2b7 .cfa: $rsp 32 +
STACK CFI 1f2bb .cfa: $rsp 24 +
STACK CFI 1f2bc .cfa: $rsp 16 +
STACK CFI 1f2bd .cfa: $rsp 8 +
STACK CFI INIT 1d7e0 c2 .cfa: $rsp 8 + .ra: .cfa -8 + ^
STACK CFI 1d7e2 $r12: .cfa -16 + ^ .cfa: $rsp 16 +
STACK CFI 1d7e3 $rbp: .cfa -24 + ^ .cfa: $rsp 24 +
STACK CFI 1d7e7 $rbx: .cfa -32 + ^ .cfa: $rsp 32 +
STACK CFI 1d7ee .cfa: $rsp 48 +
STACK CFI 1d85a .cfa: $rsp 32 +
STACK CFI 1d85b .cfa: $rsp 24 +
STACK CFI 1d85c .cfa: $rsp 16 +
STACK CFI 1d85e .cfa: $rsp 8 +
STACK CFI 1d860 .cfa: $rsp 48 +
STACK CFI INIT 1d8b0 155 .cfa: $rsp 8 + .ra: .cfa -8 + ^
STACK CFI 1d8b1 $rbp: .cfa -16 + ^ .cfa: $rsp 16 +
STACK CFI 1d8b2 $rbx: .cfa -24 + ^ .cfa: $rsp 24 +
STACK CFI 1d8bd .cfa: $rsp 32 +
STACK CFI 1d99a .cfa: $rsp 24 +
STACK CFI 1d99e .cfa: $rsp 16 +
STACK CFI 1d99f .cfa: $rsp 8 +
STACK CFI 1d9a0 .cfa: $rsp 32 +
STACK CFI 1da02 .cfa: $rsp 24 +
STACK CFI 1da03 .cfa: $rsp 16 +
STACK CFI 1da04 .cfa: $rsp 8 +
STACK CFI INIT 1f2c0 65 .cfa: $rsp 8 + .ra: .cfa -8 + ^
STACK CFI 1f2c2 $r12: .cfa -16 + ^ .cfa: $rsp 16 +
STACK CFI 1f2c3 $rbp: .cfa -24 + ^ .cfa: $rsp 24 +
STACK CFI 1f2c4 $rbx: .cfa -32 + ^ .cfa: $rsp 32 +
STACK CFI 1f30e .cfa: $rsp 24 +
STACK CFI 1f312 .cfa: $rsp 16 +
STACK CFI 1f314 .cfa: $rsp 8 +
STACK CFI 1f320 .cfa: $rsp 32 +
STACK CFI 1f321 .cfa: $rsp 24 +
STACK CFI 1f322 .cfa: $rsp 16 +
STACK CFI 1f324 .cfa: $rsp 8 +
STACK CFI INIT 1f330 9e .cfa: $rsp 8 + .ra: .cfa -8 + ^
STACK CFI 1f386 $rbp: .cfa -16 + ^ .cfa: $rsp 16 +
STACK CFI 1f387 $rbx: .cfa -24 + ^ .cfa: $rsp 24 +
STACK CFI 1f394 .cfa: $rsp 32 +
STACK CFI 1f39d .cfa: $rsp 24 +
STACK CFI 1f3a4 $rbx: $rbx .cfa: $rsp 16 +
STACK CFI 1f3a5 $rbp: $rbp .cfa: $rsp 8 +
STACK CFI INIT 1f3d0 8d .cfa: $rsp 8 + .ra: .cfa -8 + ^
STACK CFI 1f3d1 $rbp: .cfa -16 + ^ .cfa: $rsp 16 +
STACK CFI 1f3d2 $rbx: .cfa -24 + ^ .cfa: $rsp 24 +
STACK CFI 1f3e4 .cfa: $rsp 80 +
STACK CFI 1f438 .cfa: $rsp 24 +
STACK CFI 1f439 .cfa: $rsp 16 +
STACK CFI 1f43a .cfa: $rsp 8 +
STACK CFI 1f43b .cfa: $rsp 80 +
STACK CFI INIT 1f460 8d .cfa: $rsp 8 + .ra: .cfa -8 + ^
STACK CFI 1f461 $rbp: .cfa -16 + ^ .cfa: $rsp 16 +
STACK CFI 1f462 $rbx: .cfa -24 + ^ .cfa: $rsp 24 +
STACK CFI 1f474 .cfa: $rsp 80 +
STACK CFI 1f4c8 .cfa: $rsp 24 +
STACK CFI 1f4c9 .cfa: $rsp 16 +
STACK CFI 1f4ca .cfa: $rsp 8 +
STACK CFI 1f4cb .cfa: $rsp 80 +
STACK CFI INIT 1f4f0 174 .cfa: $rsp 8 + .ra: .cfa -8 + ^
STACK CFI 1f4f2 $r12: .cfa -16 + ^ .cfa: $rsp 16 +
STACK CFI 1f4f3 $rbp: .cfa -24 + ^ .cfa: $rsp 24 +
STACK CFI 1f4f7 $rbx: .cfa -32 + ^ .cfa: $rsp 32 +
STACK CFI 1f4fb .cfa: $rsp 96 +
STACK CFI 1f56f .cfa: $rsp 32 +
STACK CFI 1f570 .cfa: $rsp 24 +
STACK CFI 1f571 .cfa: $rsp 16 +
STACK CFI 1f573 .cfa: $rsp 8 +
STACK CFI 1f578 .cfa: $rsp 96 +
STACK CFI INIT 1f670 951 .cfa: $rsp 8 + .ra: .cfa -8 + ^
STACK CFI 1f672 $r15: .cfa -16 + ^ .cfa: $rsp 16 +
STACK CFI 1f674 $r14: .cfa -24 + ^ .cfa: $rsp 24 +
STACK CFI 1f676 $r13: .cfa -32 + ^ .cfa: $rsp 32 +
STACK CFI 1f678 $r12: .cfa -40 + ^ .cfa: $rsp 40 +
STACK CFI 1f679 $rbp: .cfa -48 + ^ .cfa: $rsp 48 +
STACK CFI 1f67a $rbx: .cfa -56 + ^ .cfa: $rsp 56 +
STACK CFI 1f681 .cfa: $rsp 160 +
STACK CFI 1f6f1 .cfa: $rsp 56 +
STACK CFI 1f6f2 .cfa: $rsp 48 +
STACK CFI 1f6f3 .cfa: $rsp 40 +
STACK CFI 1f6f5 .cfa: $rsp 32 +
STACK CFI 1f6f7 .cfa: $rsp 24 +
STACK CFI 1f6f9 .cfa: $rsp 16 +
STACK CFI 1f6fb .cfa: $rsp 8 +
STACK CFI 1f700 .cfa: $rsp 160 +
STACK CFI INIT 1da10 5 .cfa: $rsp 8 + .ra: .cfa -8 + ^
STACK CFI INIT 1da20 5 .cfa: $rsp 8 + .ra: .cfa -8 + ^
STACK CFI INIT 1da30 15 .cfa: $rsp 8 + .ra: .cfa -8 + ^
STACK CFI 1da34 .cfa: $rsp 16 +
STACK CFI 1da3d .cfa: $rsp 8 +
STACK CFI INIT 1da50 59 .cfa: $rsp 8 + .ra: .cfa -8 + ^
STACK CFI 1da51 $rbx: .cfa -16 + ^ .cfa: $rsp 16 +
STACK CFI 1da9f .cfa: $rsp 8 +
STACK CFI 1daa0 .cfa: $rsp 16 +
STACK CFI 1daa8 .cfa: $rsp 8 +
STACK CFI INIT 1dab0 99 .cfa: $rsp 8 + .ra: .cfa -8 + ^
STACK CFI 1dab1 $rbp: .cfa -16 + ^ .cfa: $rsp 16 +
STACK CFI 1dab2 $rbx: .cfa -24 + ^ .cfa: $rsp 24 +
STACK CFI 1dab8 .cfa: $rsp 80 +
STACK CFI 1db24 .cfa: $rsp 24 +
STACK CFI 1db25 .cfa: $rsp 16 +
STACK CFI 1db26 .cfa: $rsp 8 +
STACK CFI 1db27 .cfa: $rsp 80 +
STACK CFI INIT 1db50 a .cfa: $rsp 8 + .ra: .cfa -8 + ^
STACK CFI INIT 1db60 5 .cfa: $rsp 8 + .ra: .cfa -8 + ^
STACK CFI INIT 1db70 23 .cfa: $rsp 8 + .ra: .cfa -8 + ^
STACK CFI 1db71 $rbp: .cfa -16 + ^ .cfa: $rsp 16 +
STACK CFI 1db72 $rbx: .cfa -24 + ^ .cfa: $rsp 24 +
STACK CFI 1db7b .cfa: $rsp 32 +
STACK CFI 1db84 .cfa: $rsp 24 +
STACK CFI 1db8a .cfa: $rsp 16 +
STACK CFI 1db8b .cfa: $rsp 8 +
STACK CFI INIT 1dba0 16f .cfa: $rsp 8 + .ra: .cfa -8 + ^
STACK CFI INIT 1ffd0 32 .cfa: $rsp 8 + .ra: .cfa -8 + ^
STACK CFI 1ffd1 $rbx: .cfa -16 + ^ .cfa: $rsp 16 +
STACK CFI 1fff3 .cfa: $rsp 8 +
STACK CFI 20000 .cfa: $rsp 16 +
STACK CFI 20001 .cfa: $rsp 8 +
STACK CFI INIT 20010 34 .cfa: $rsp 8 + .ra: .cfa -8 + ^
STACK CFI 20018 $rbx: .cfa -16 + ^ .cfa: $rsp 16 +
STACK CFI 2003f .cfa: $rsp 8 +
STACK CFI INIT 20050 3c .cfa: $rsp 8 + .ra: .cfa -8 + ^
STACK CFI 20058 $rbx: .cfa -16 + ^ .cfa: $rsp 16 +
STACK CFI 20087 .cfa: $rsp 8 +
STACK CFI INIT 20090 55 .cfa: $rsp 8 + .ra: .cfa -8 + ^
STACK CFI 20092 $r12: .cfa -16 + ^ .cfa: $rsp 16 +
STACK CFI 20093 $rbp: .cfa -24 + ^ .cfa: $rsp 24 +
STACK CFI 20094 $rbx: .cfa -32 + ^ .cfa: $rsp 32 +
STACK CFI 200cc .cfa: $rsp 24 +
STACK CFI 200d0 .cfa: $rsp 16 +
STACK CFI 200d2 .cfa: $rsp 8 +
STACK CFI 200e0 .cfa: $rsp 32 +
STACK CFI 200e1 .cfa: $rsp 24 +
STACK CFI 200e2 .cfa: $rsp 16 +
STACK CFI 200e4 .cfa: $rsp 8 +
STACK CFI INIT 1dd10 a2 .cfa: $rsp 8 + .ra: .cfa -8 + ^
STACK CFI 1dd11 $rbp: .cfa -16 + ^ .cfa: $rsp 16 +
STACK CFI 1dd12 $rbx: .cfa -24 + ^ .cfa: $rsp 24 +
STACK CFI 1dd19 .cfa: $rsp 64 +
STACK CFI 1dd97 .cfa: $rsp 24 +
STACK CFI 1dd98 .cfa: $rsp 16 +
STACK CFI 1dd99 .cfa: $rsp 8 +
STACK CFI 1dd9a .cfa: $rsp 64 +
STACK CFI INIT 200f0 d10 .cfa: $rsp 8 + .ra: .cfa -8 + ^
STACK CFI 200f1 $rbp: .cfa -16 + ^ .cfa: $rsp 16 +
STACK CFI 200f4 .cfa: $rbp 16 +
STACK CFI 200fc $r12: .cfa -48 + ^ $r13: .cfa -40 + ^ $r14: .cfa -32 + ^ $r15: .cfa -24 + ^
STACK CFI 20107 $rbx: .cfa -56 + ^
STACK CFI 20155 .cfa: $rsp 8 +
STACK CFI 20156 .cfa: $rbp 16 +
STACK CFI INIT 1ddc0 da5 .cfa: $rsp 8 + .ra: .cfa -8 + ^
STACK CFI 1ddc1 $rbp: .cfa -16 + ^ .cfa: $rsp 16 +
STACK CFI 1ddc4 .cfa: $rbp 16 +
STACK CFI 1ddd4 $r12: .cfa -48 + ^ $r13: .cfa -40 + ^ $r14: .cfa -32 + ^ $r15: .cfa -24 + ^ $rbx: .cfa -56 + ^
STACK CFI 1de36 .cfa: $rsp 8 +
STACK CFI 1de37 .cfa: $rbp 16 +
STACK CFI INIT 20e00 1f7 .cfa: $rsp 8 + .ra: .cfa -8 + ^
STACK CFI 20e02 $r15: .cfa -16 + ^ .cfa: $rsp 16 +
STACK CFI 20e04 $r14: .cfa -24 + ^ .cfa: $rsp 24 +
STACK CFI 20e09 $r13: .cfa -32 + ^ .cfa: $rsp 32 +
STACK CFI 20e0b $r12: .cfa -40 + ^ .cfa: $rsp 40 +
STACK CFI 20e0f $rbp: .cfa -48 + ^ .cfa: $rsp 48 +
STACK CFI 20e10 $rbx: .cfa -56 + ^ .cfa: $rsp 56 +
STACK CFI 20e23 .cfa: $rsp 64 +
STACK CFI 20f4e .cfa: $rsp 56 +
STACK CFI 20f52 .cfa: $rsp 48 +
STACK CFI 20f53 .cfa: $rsp 40 +
STACK CFI 20f55 .cfa: $rsp 32 +
STACK CFI 20f57 .cfa: $rsp 24 +
STACK CFI 20f59 .cfa: $rsp 16 +
STACK CFI 20f5b .cfa: $rsp 8 +
STACK CFI 20f60 .cfa: $rsp 64 +
STACK CFI INIT 21000 2af .cfa: $rsp 8 + .ra: .cfa -8 + ^
STACK CFI 21002 $r15: .cfa -16 + ^ .cfa: $rsp 16 +
STACK CFI 21004 $r14: .cfa -24 + ^ .cfa: $rsp 24 +
STACK CFI 21006 $r13: .cfa -32 + ^ .cfa: $rsp 32 +
STACK CFI 21008 $r12: .cfa -40 + ^ .cfa: $rsp 40 +
STACK CFI 21009 $rbp: .cfa -48 + ^ .cfa: $rsp 48 +
STACK CFI 2100a $rbx: .cfa -56 + ^ .cfa: $rsp 56 +
STACK CFI 21014 .cfa: $rsp 64 +
STACK CFI 2122d .cfa: $rsp 56 +
STACK CFI 2122e .cfa: $rsp 48 +
STACK CFI 2122f .cfa: $rsp 40 +
STACK CFI 21231 .cfa: $rsp 32 +
STACK CFI 21233 .cfa: $rsp 24 +
STACK CFI 21235 .cfa: $rsp 16 +
STACK CFI 21237 .cfa: $rsp 8 +
STACK CFI 21240 .cfa: $rsp 64 +
STACK CFI INIT 1eb70 218 .cfa: $rsp 8 + .ra: .cfa -8 + ^
STACK CFI 1eb71 $rbp: .cfa -16 + ^ .cfa: $rsp 16 +
STACK CFI 1eb72 $rbx: .cfa -24 + ^ .cfa: $rsp 24 +
STACK CFI 1eb79 .cfa: $rsp 112 +
STACK CFI 1ebc3 .cfa: $rsp 24 +
STACK CFI 1ebc4 .cfa: $rsp 16 +
STACK CFI 1ebc5 .cfa: $rsp 8 +
STACK CFI 1ebd0 .cfa: $rsp 112 +
STACK CFI INIT 212b0 c1 .cfa: $rsp 8 + .ra: .cfa -8 + ^
STACK CFI 212c2 $r14: .cfa -16 + ^ .cfa: $rsp 16 +
STACK CFI 212c4 $r13: .cfa -24 + ^ .cfa: $rsp 24 +
STACK CFI 212c6 $r12: .cfa -32 + ^ .cfa: $rsp 32 +
STACK CFI 212c7 $rbp: .cfa -40 + ^ .cfa: $rsp 40 +
STACK CFI 212cb $rbx: .cfa -48 + ^ .cfa: $rsp 48 +
STACK CFI 212fd $rbx: $rbx .cfa: $rsp 40 +
STACK CFI 212fe $rbp: $rbp .cfa: $rsp 32 +
STACK CFI 21300 $r12: $r12 .cfa: $rsp 24 +
STACK CFI 21302 $r13: $r13 .cfa: $rsp 16 +
STACK CFI 21304 $r14: $r14 .cfa: $rsp 8 +
STACK CFI 21308 $r12: .cfa -32 + ^ $r13: .cfa -24 + ^ $r14: .cfa -16 + ^ $rbp: .cfa -40 + ^ $rbx: .cfa -48 + ^ .cfa: $rsp 48 +
STACK CFI 2136e $r12: $r12 $r13: $r13 $r14: $r14 $rbp: $rbp $rbx: $rbx .cfa: $rsp 8 +
STACK CFI INIT 21380 13f .cfa: $rsp 8 + .ra: .cfa -8 + ^
STACK CFI 21382 $r13: .cfa -16 + ^ .cfa: $rsp 16 +
STACK CFI 21384 $r12: .cfa -24 + ^ .cfa: $rsp 24 +
STACK CFI 21388 $rbp: .cfa -32 + ^ .cfa: $rsp 32 +
STACK CFI 21389 $rbx: .cfa -40 + ^ .cfa: $rsp 40 +
STACK CFI 21390 .cfa: $rsp 96 +
STACK CFI 21420 .cfa: $rsp 40 +
STACK CFI 21421 .cfa: $rsp 32 +
STACK CFI 21422 .cfa: $rsp 24 +
STACK CFI 21424 .cfa: $rsp 16 +
STACK CFI 21426 .cfa: $rsp 8 +
STACK CFI 21430 .cfa: $rsp 96 +
STACK CFI INIT 1ed90 1bd .cfa: $rsp 8 + .ra: .cfa -8 + ^
STACK CFI 1ed92 $r12: .cfa -16 + ^ .cfa: $rsp 16 +
STACK CFI 1ed93 $rbp: .cfa -24 + ^ .cfa: $rsp 24 +
STACK CFI 1ed97 $rbx: .cfa -32 + ^ .cfa: $rsp 32 +
STACK CFI 1eda5 .cfa: $rsp 112 +
STACK CFI 1ee72 .cfa: $rsp 32 +
STACK CFI 1ee73 .cfa: $rsp 24 +
STACK CFI 1ee74 .cfa: $rsp 16 +
STACK CFI 1ee76 .cfa: $rsp 8 +
STACK CFI 1ee80 .cfa: $rsp 112 +
STACK CFI INIT 1ef50 ab .cfa: $rsp 8 + .ra: .cfa -8 + ^
STACK CFI 1ef52 $r12: .cfa -16 + ^ .cfa: $rsp 16 +
STACK CFI 1ef53 $rbp: .cfa -24 + ^ .cfa: $rsp 24 +
STACK CFI 1ef57 $rbx: .cfa -32 + ^ .cfa: $rsp 32 +
STACK CFI 1ef65 .cfa: $rsp 80 +
STACK CFI 1efd4 .cfa: $rsp 32 +
STACK CFI 1efd5 .cfa: $rsp 24 +
STACK CFI 1efd6 .cfa: $rsp 16 +
STACK CFI 1efd8 .cfa: $rsp 8 +
STACK CFI 1efd9 .cfa: $rsp 80 +
STACK CFI INIT 214c0 131 .cfa: $rsp 8 + .ra: .cfa -8 + ^
STACK CFI 214c2 $r14: .cfa -16 + ^ .cfa: $rsp 16 +
STACK CFI 214c4 $r13: .cfa -24 + ^ .cfa: $rsp 24 +
STACK CFI 214c9 $r12: .cfa -32 + ^ .cfa: $rsp 32 +
STACK CFI 214ca $rbp: .cfa -40 + ^ .cfa: $rsp 40 +
STACK CFI 214ce $rbx: .cfa -48 + ^ .cfa: $rsp 48 +
STACK CFI 214d2 .cfa: $rsp 96 +
STACK CFI 2155e .cfa: $rsp 48 +
STACK CFI 2155f .cfa: $rsp 40 +
STACK CFI 21560 .cfa: $rsp 32 +
STACK CFI 21562 .cfa: $rsp 24 +
STACK CFI 21564 .cfa: $rsp 16 +
STACK CFI 21566 .cfa: $rsp 8 +
STACK CFI 21570 .cfa: $rsp 96 +
STACK CFI INIT 21600 56f .cfa: $rsp 8 + .ra: .cfa -8 + ^
STACK CFI 21602 $r15: .cfa -16 + ^ .cfa: $rsp 16 +
STACK CFI 21604 $r14: .cfa -24 + ^ .cfa: $rsp 24 +
STACK CFI 21608 $r13: .cfa -32 + ^ .cfa: $rsp 32 +
STACK CFI 2160a $r12: .cfa -40 + ^ .cfa: $rsp 40 +
STACK CFI 2160e $rbp: .cfa -48 + ^ .cfa: $rsp 48 +
STACK CFI 2160f $rbx: .cfa -56 + ^ .cfa: $rsp 56 +
STACK CFI 21622 .cfa: $rsp 208 +
STACK CFI 2194d .cfa: $rsp 56 +
STACK CFI 2194e .cfa: $rsp 48 +
STACK CFI 2194f .cfa: $rsp 40 +
STACK CFI 21951 .cfa: $rsp 32 +
STACK CFI 21953 .cfa: $rsp 24 +
STACK CFI 21955 .cfa: $rsp 16 +
STACK CFI 21957 .cfa: $rsp 8 +
STACK CFI 21960 .cfa: $rsp 208 +
STACK CFI INIT 21b70 26 .cfa: $rsp 8 + .ra: .cfa -8 + ^
STACK CFI 21b74 .cfa: $rsp 16 +
STACK CFI 21b94 .cfa: $rsp 8 +
STACK CFI INIT 1f000 21e .cfa: $rsp 8 + .ra: .cfa -8 + ^
STACK CFI 1f002 $r15: .cfa -16 + ^ .cfa: $rsp 16 +
STACK CFI 1f004 $r14: .cfa -24 + ^ .cfa: $rsp 24 +
STACK CFI 1f00d $r13: .cfa -32 + ^ .cfa: $rsp 32 +
STACK CFI 1f00f $r12: .cfa -40 + ^ .cfa: $rsp 40 +
STACK CFI 1f010 $rbp: .cfa -48 + ^ .cfa: $rsp 48 +
STACK CFI 1f011 $rbx: .cfa -56 + ^ .cfa: $rsp 56 +
STACK CFI 1f018 .cfa: $rsp 144 +
STACK CFI 1f177 .cfa: $rsp 56 +
STACK CFI 1f178 .cfa: $rsp 48 +
STACK CFI 1f179 .cfa: $rsp 40 +
STACK CFI 1f17b .cfa: $rsp 32 +
STACK CFI 1f17d .cfa: $rsp 24 +
STACK CFI 1f17f .cfa: $rsp 16 +
STACK CFI 1f181 .cfa: $rsp 8 +
STACK CFI 1f188 .cfa: $rsp 144 +
STACK CFI INIT 182a0 145 .cfa: $rsp 8 + .ra: .cfa -8 + ^
STACK CFI 182ab .cfa: $rsp 16 +
STACK CFI 183e0 .cfa: $rsp 8 +
STACK CFI INIT 24320 a .cfa: $rsp 8 + .ra: .cfa -8 + ^
STACK CFI INIT 24330 36 .cfa: $rsp 8 + .ra: .cfa -8 + ^
STACK CFI INIT 24370 3 .cfa: $rsp 8 + .ra: .cfa -8 + ^
STACK CFI INIT 21ba0 36 .cfa: $rsp 8 + .ra: .cfa -8 + ^
STACK CFI 21ba1 $rbp: .cfa -16 + ^ .cfa: $rsp 16 +
STACK CFI 21ba2 $rbx: .cfa -24 + ^ .cfa: $rsp 24 +
STACK CFI 21bb4 .cfa: $rsp 32 +
STACK CFI 21bd3 .cfa: $rsp 24 +
STACK CFI 21bd4 .cfa: $rsp 16 +
STACK CFI 21bd5 .cfa: $rsp 8 +
STACK CFI INIT 24380 22 .cfa: $rsp 8 + .ra: .cfa -8 + ^
STACK CFI INIT 243b0 25 .cfa: $rsp 8 + .ra: .cfa -8 + ^
STACK CFI 243b8 $rbx: .cfa -16 + ^ .cfa: $rsp 16 +
STACK CFI 243d0 .cfa: $rsp 8 +
STACK CFI INIT 243e0 22 .cfa: $rsp 8 + .ra: .cfa -8 + ^
STACK CFI INIT 24410 29 .cfa: $rsp 8 + .ra: .cfa -8 + ^
STACK CFI 24418 $rbx: .cfa -16 + ^ .cfa: $rsp 16 +
STACK CFI 24434 .cfa: $rsp 8 +
STACK CFI INIT 21be0 9 .cfa: $rsp 8 + .ra: .cfa -8 + ^
STACK CFI INIT 21bf0 5 .cfa: $rsp 8 + .ra: .cfa -8 + ^
STACK CFI INIT 21c00 d .cfa: $rsp 8 + .ra: .cfa -8 + ^
STACK CFI INIT 21c10 30 .cfa: $rsp 8 + .ra: .cfa -8 + ^
STACK CFI 21c14 .cfa: $rsp 16 +
STACK CFI INIT 21c40 c2 .cfa: $rsp 8 + .ra: .cfa -8 + ^
STACK CFI 21c42 $r12: .cfa -16 + ^ .cfa: $rsp 16 +
STACK CFI 21c43 $rbp: .cfa -24 + ^ .cfa: $rsp 24 +
STACK CFI 21c47 $rbx: .cfa -32 + ^ .cfa: $rsp 32 +
STACK CFI 21c4e .cfa: $rsp 48 +
STACK CFI 21cba .cfa: $rsp 32 +
STACK CFI 21cbb .cfa: $rsp 24 +
STACK CFI 21cbc .cfa: $rsp 16 +
STACK CFI 21cbe .cfa: $rsp 8 +
STACK CFI 21cc0 .cfa: $rsp 48 +
STACK CFI INIT 183f0 39 .cfa: $rsp 8 + .ra: .cfa -8 + ^
STACK CFI 183f1 $rbp: .cfa -16 + ^ .cfa: $rsp 16 +
STACK CFI 183f2 $rbx: .cfa -24 + ^ .cfa: $rsp 24 +
STACK CFI 18404 .cfa: $rsp 32 +
STACK CFI 1841c .cfa: $rsp 24 +
STACK CFI 18423 .cfa: $rsp 16 +
STACK CFI 18424 .cfa: $rsp 8 +
STACK CFI INIT 24440 57 .cfa: $rsp 8 + .ra: .cfa -8 + ^
STACK CFI 24448 $rbx: .cfa -16 + ^ .cfa: $rsp 16 +
STACK CFI 24492 .cfa: $rsp 8 +
STACK CFI INIT 244a0 6c .cfa: $rsp 8 + .ra: .cfa -8 + ^
STACK CFI 244a8 $rbx: .cfa -16 + ^ .cfa: $rsp 16 +
STACK CFI 24507 .cfa: $rsp 8 +
STACK CFI INIT 24510 57 .cfa: $rsp 8 + .ra: .cfa -8 + ^
STACK CFI 24518 $rbx: .cfa -16 + ^ .cfa: $rsp 16 +
STACK CFI 24562 .cfa: $rsp 8 +
STACK CFI INIT 24570 7b .cfa: $rsp 8 + .ra: .cfa -8 + ^
STACK CFI 24578 $rbx: .cfa -16 + ^ .cfa: $rsp 16 +
STACK CFI 245e6 .cfa: $rsp 8 +
STACK CFI INIT 245f0 52 .cfa: $rsp 8 + .ra: .cfa -8 + ^
STACK CFI 245f8 $rbx: .cfa -16 + ^ .cfa: $rsp 16 +
STACK CFI 2463a .cfa: $rsp 8 +
STACK CFI 24640 .cfa: $rsp 16 +
STACK CFI 24641 .cfa: $rsp 8 +
STACK CFI INIT 24650 52 .cfa: $rsp 8 + .ra: .cfa -8 + ^
STACK CFI 24658 $rbx: .cfa -16 + ^ .cfa: $rsp 16 +
STACK CFI 2469a .cfa: $rsp 8 +
STACK CFI 246a0 .cfa: $rsp 16 +
STACK CFI 246a1 .cfa: $rsp 8 +
STACK CFI INIT 246b0 7a .cfa: $rsp 8 + .ra: .cfa -8 + ^
STACK CFI 246b8 $rbx: .cfa -16 + ^ .cfa: $rsp 16 +
STACK CFI 2471e .cfa: $rsp 8 +
STACK CFI 24728 .cfa: $rsp 16 +
STACK CFI 24729 .cfa: $rsp 8 +
STACK CFI INIT 24730 6a .cfa: $rsp 8 + .ra: .cfa -8 + ^
STACK CFI 24738 $rbx: .cfa -16 + ^ .cfa: $rsp 16 +
STACK CFI 2478f .cfa: $rsp 8 +
STACK CFI 24798 .cfa: $rsp 16 +
STACK CFI 24799 .cfa: $rsp 8 +
STACK CFI INIT 247a0 9e .cfa: $rsp 8 + .ra: .cfa -8 + ^
STACK CFI 247f6 $rbp: .cfa -16 + ^ .cfa: $rsp 16 +
STACK CFI 247f7 $rbx: .cfa -24 + ^ .cfa: $rsp 24 +
STACK CFI 24804 .cfa: $rsp 32 +
STACK CFI 2480d .cfa: $rsp 24 +
STACK CFI 24814 $rbx: $rbx .cfa: $rsp 16 +
STACK CFI 24815 $rbp: $rbp .cfa: $rsp 8 +
STACK CFI INIT 24840 9e .cfa: $rsp 8 + .ra: .cfa -8 + ^
STACK CFI 24896 $rbp: .cfa -16 + ^ .cfa: $rsp 16 +
STACK CFI 24897 $rbx: .cfa -24 + ^ .cfa: $rsp 24 +
STACK CFI 248a4 .cfa: $rsp 32 +
STACK CFI 248ad .cfa: $rsp 24 +
STACK CFI 248b4 $rbx: $rbx .cfa: $rsp 16 +
STACK CFI 248b5 $rbp: $rbp .cfa: $rsp 8 +
STACK CFI INIT 248e0 8d .cfa: $rsp 8 + .ra: .cfa -8 + ^
STACK CFI 248e1 $rbp: .cfa -16 + ^ .cfa: $rsp 16 +
STACK CFI 248e2 $rbx: .cfa -24 + ^ .cfa: $rsp 24 +
STACK CFI 248f4 .cfa: $rsp 80 +
STACK CFI 24948 .cfa: $rsp 24 +
STACK CFI 24949 .cfa: $rsp 16 +
STACK CFI 2494a .cfa: $rsp 8 +
STACK CFI 2494b .cfa: $rsp 80 +
STACK CFI INIT 24970 8d .cfa: $rsp 8 + .ra: .cfa -8 + ^
STACK CFI 24971 $rbp: .cfa -16 + ^ .cfa: $rsp 16 +
STACK CFI 24972 $rbx: .cfa -24 + ^ .cfa: $rsp 24 +
STACK CFI 24984 .cfa: $rsp 80 +
STACK CFI 249d8 .cfa: $rsp 24 +
STACK CFI 249d9 .cfa: $rsp 16 +
STACK CFI 249da .cfa: $rsp 8 +
STACK CFI 249db .cfa: $rsp 80 +
STACK CFI INIT 24a00 8d .cfa: $rsp 8 + .ra: .cfa -8 + ^
STACK CFI 24a01 $rbp: .cfa -16 + ^ .cfa: $rsp 16 +
STACK CFI 24a02 $rbx: .cfa -24 + ^ .cfa: $rsp 24 +
STACK CFI 24a14 .cfa: $rsp 80 +
STACK CFI 24a68 .cfa: $rsp 24 +
STACK CFI 24a69 .cfa: $rsp 16 +
STACK CFI 24a6a .cfa: $rsp 8 +
STACK CFI 24a6b .cfa: $rsp 80 +
STACK CFI INIT 24a90 8d .cfa: $rsp 8 + .ra: .cfa -8 + ^
STACK CFI 24a91 $rbp: .cfa -16 + ^ .cfa: $rsp 16 +
STACK CFI 24a92 $rbx: .cfa -24 + ^ .cfa: $rsp 24 +
STACK CFI 24aa4 .cfa: $rsp 80 +
STACK CFI 24af8 .cfa: $rsp 24 +
STACK CFI 24af9 .cfa: $rsp 16 +
STACK CFI 24afa .cfa: $rsp 8 +
STACK CFI 24afb .cfa: $rsp 80 +
STACK CFI INIT 24b20 1f .cfa: $rsp 8 + .ra: .cfa -8 + ^
STACK CFI 24b2c $rbx: .cfa -16 + ^ .cfa: $rsp 16 +
STACK CFI 24b3e .cfa: $rsp 8 +
STACK CFI INIT 24b40 1f .cfa: $rsp 8 + .ra: .cfa -8 + ^
STACK CFI 24b4c $rbx: .cfa -16 + ^ .cfa: $rsp 16 +
STACK CFI 24b5e .cfa: $rsp 8 +
STACK CFI INIT 24b60 1f .cfa: $rsp 8 + .ra: .cfa -8 + ^
STACK CFI 24b6c $rbx: .cfa -16 + ^ .cfa: $rsp 16 +
STACK CFI 24b7e .cfa: $rsp 8 +
STACK CFI INIT 24b80 27 .cfa: $rsp 8 + .ra: .cfa -8 + ^
STACK CFI 24b81 $rbx: .cfa -16 + ^ .cfa: $rsp 16 +
STACK CFI 24ba6 .cfa: $rsp 8 +
STACK CFI INIT 24bb0 27 .cfa: $rsp 8 + .ra: .cfa -8 + ^
STACK CFI 24bb1 $rbx: .cfa -16 + ^ .cfa: $rsp 16 +
STACK CFI 24bd6 .cfa: $rsp 8 +
STACK CFI INIT 24be0 27 .cfa: $rsp 8 + .ra: .cfa -8 + ^
STACK CFI 24be1 $rbx: .cfa -16 + ^ .cfa: $rsp 16 +
STACK CFI 24c06 .cfa: $rsp 8 +
STACK CFI INIT 21d10 8 .cfa: $rsp 8 + .ra: .cfa -8 + ^
STACK CFI INIT 21d20 a0 .cfa: $rsp 8 + .ra: .cfa -8 + ^
STACK CFI 21d21 $rbp: .cfa -16 + ^ .cfa: $rsp 16 +
STACK CFI 21d22 $rbx: .cfa -24 + ^ .cfa: $rsp 24 +
STACK CFI 21d26 .cfa: $rsp 96 +
STACK CFI 21db8 .cfa: $rsp 24 +
STACK CFI 21db9 .cfa: $rsp 16 +
STACK CFI 21dba .cfa: $rsp 8 +
STACK CFI 21dbb .cfa: $rsp 96 +
STACK CFI INIT 21dc0 11 .cfa: $rsp 8 + .ra: .cfa -8 + ^
STACK CFI 21dc4 .cfa: $rsp 16 +
STACK CFI 21dcd .cfa: $rsp 8 +
STACK CFI INIT 21de0 10 .cfa: $rsp 8 + .ra: .cfa -8 + ^
STACK CFI INIT 21df0 4b .cfa: $rsp 8 + .ra: .cfa -8 + ^
STACK CFI 21df4 .cfa: $rsp 32 +
STACK CFI 21e35 .cfa: $rsp 8 +
STACK CFI 21e36 .cfa: $rsp 32 +
STACK CFI INIT 21e40 5 .cfa: $rsp 8 + .ra: .cfa -8 + ^
STACK CFI INIT 21e50 5 .cfa: $rsp 8 + .ra: .cfa -8 + ^
STACK CFI INIT 21e60 2b .cfa: $rsp 8 + .ra: .cfa -8 + ^
STACK CFI 21e64 .cfa: $rsp 16 +
STACK CFI 21e86 .cfa: $rsp 8 +
STACK CFI INIT 24c10 3a .cfa: $rsp 8 + .ra: .cfa -8 + ^
STACK CFI 24c18 $rbx: .cfa -16 + ^ .cfa: $rsp 16 +
STACK CFI 24c3e .cfa: $rsp 8 +
STACK CFI 24c48 .cfa: $rsp 16 +
STACK CFI 24c49 .cfa: $rsp 8 +
STACK CFI INIT 24c50 3b .cfa: $rsp 8 + .ra: .cfa -8 + ^
STACK CFI 24c58 $rbx: .cfa -16 + ^ .cfa: $rsp 16 +
STACK CFI 24c86 .cfa: $rsp 8 +
STACK CFI INIT 24c90 102 .cfa: $rsp 8 + .ra: .cfa -8 + ^
STACK CFI 24c92 $r14: .cfa -16 + ^ .cfa: $rsp 16 +
STACK CFI 24c94 $r13: .cfa -24 + ^ .cfa: $rsp 24 +
STACK CFI 24c96 $r12: .cfa -32 + ^ .cfa: $rsp 32 +
STACK CFI 24c97 $rbp: .cfa -40 + ^ .cfa: $rsp 40 +
STACK CFI 24c98 $rbx: .cfa -48 + ^ .cfa: $rsp 48 +
STACK CFI 24c9c .cfa: $rsp 128 +
STACK CFI 24ccd .cfa: $rsp 48 +
STACK CFI 24cce .cfa: $rsp 40 +
STACK CFI 24ccf .cfa: $rsp 32 +
STACK CFI 24cd1 .cfa: $rsp 24 +
STACK CFI 24cd3 .cfa: $rsp 16 +
STACK CFI 24cd5 .cfa: $rsp 8 +
STACK CFI 24ce0 .cfa: $rsp 128 +
STACK CFI INIT 21e90 87 .cfa: $rsp 8 + .ra: .cfa -8 + ^
STACK CFI 21e97 $rbx: .cfa -16 + ^ .cfa: $rsp 16 +
STACK CFI 21ee8 .cfa: $rsp 8 +
STACK CFI 21ef0 .cfa: $rsp 16 +
STACK CFI INIT 21f20 2f8 .cfa: $rsp 8 + .ra: .cfa -8 + ^
STACK CFI 21f22 $r15: .cfa -16 + ^ .cfa: $rsp 16 +
STACK CFI 21f24 $r14: .cfa -24 + ^ .cfa: $rsp 24 +
STACK CFI 21f26 $r13: .cfa -32 + ^ .cfa: $rsp 32 +
STACK CFI 21f28 $r12: .cfa -40 + ^ .cfa: $rsp 40 +
STACK CFI 21f29 $rbp: .cfa -48 + ^ .cfa: $rsp 48 +
STACK CFI 21f2a $rbx: .cfa -56 + ^ .cfa: $rsp 56 +
STACK CFI 21f34 .cfa: $rsp 192 +
STACK CFI 21f96 .cfa: $rsp 56 +
STACK CFI 21f97 .cfa: $rsp 48 +
STACK CFI 21f98 .cfa: $rsp 40 +
STACK CFI 21f9a .cfa: $rsp 32 +
STACK CFI 21f9c .cfa: $rsp 24 +
STACK CFI 21f9e .cfa: $rsp 16 +
STACK CFI 21fa0 .cfa: $rsp 8 +
STACK CFI 21fa8 .cfa: $rsp 192 +
STACK CFI INIT 22220 92 .cfa: $rsp 8 + .ra: .cfa -8 + ^
STACK CFI 22232 .cfa: $rsp 16 +
STACK CFI 22276 .cfa: $rsp 8 +
STACK CFI 22280 .cfa: $rsp 16 +
STACK CFI 222b1 .cfa: $rsp 8 +
STACK CFI INIT 222c0 240 .cfa: $rsp 8 + .ra: .cfa -8 + ^
STACK CFI 222c4 .cfa: $rsp 32 +
STACK CFI 224fa .cfa: $rsp 8 +
STACK CFI 224fb .cfa: $rsp 32 +
STACK CFI INIT 22500 95 .cfa: $rsp 8 + .ra: .cfa -8 + ^
STACK CFI 22501 $rbx: .cfa -16 + ^ .cfa: $rsp 16 +
STACK CFI 22505 .cfa: $rsp 32 +
STACK CFI 2252b .cfa: $rsp 16 +
STACK CFI 2252c .cfa: $rsp 8 +
STACK CFI 22530 .cfa: $rsp 32 +
STACK CFI 22593 .cfa: $rsp 16 +
STACK CFI 22594 .cfa: $rsp 8 +
STACK CFI INIT 24da0 cc0 .cfa: $rsp 8 + .ra: .cfa -8 + ^
STACK CFI 24da1 $rbp: .cfa -16 + ^ .cfa: $rsp 16 +
STACK CFI 24da4 .cfa: $rbp 16 +
STACK CFI 24dad $r12: .cfa -48 + ^ $r13: .cfa -40 + ^ $r14: .cfa -32 + ^ $r15: .cfa -24 + ^ $rbx: .cfa -56 + ^
STACK CFI 24e05 .cfa: $rsp 8 +
STACK CFI 24e06 .cfa: $rbp 16 +
STACK CFI INIT 225a0 1ae .cfa: $rsp 8 + .ra: .cfa -8 + ^
STACK CFI 225a2 $r13: .cfa -16 + ^ .cfa: $rsp 16 +
STACK CFI 225a4 $r12: .cfa -24 + ^ .cfa: $rsp 24 +
STACK CFI 225a5 $rbp: .cfa -32 + ^ .cfa: $rsp 32 +
STACK CFI 225a6 $rbx: .cfa -40 + ^ .cfa: $rsp 40 +
STACK CFI 225b0 .cfa: $rsp 16448 +
STACK CFI 226f0 .cfa: $rsp 40 +
STACK CFI 226f1 .cfa: $rsp 32 +
STACK CFI 226f2 .cfa: $rsp 24 +
STACK CFI 226f4 .cfa: $rsp 16 +
STACK CFI 226f6 .cfa: $rsp 8 +
STACK CFI 226f7 .cfa: $rsp 16448 +
STACK CFI INIT 25a60 cc0 .cfa: $rsp 8 + .ra: .cfa -8 + ^
STACK CFI 25a61 $rbp: .cfa -16 + ^ .cfa: $rsp 16 +
STACK CFI 25a64 .cfa: $rbp 16 +
STACK CFI 25a6d $r12: .cfa -48 + ^ $r13: .cfa -40 + ^ $r14: .cfa -32 + ^ $r15: .cfa -24 + ^ $rbx: .cfa -56 + ^
STACK CFI 25ac5 .cfa: $rsp 8 +
STACK CFI 25ac6 .cfa: $rbp 16 +
STACK CFI INIT 26720 e50 .cfa: $rsp 8 + .ra: .cfa -8 + ^
STACK CFI 26721 $rbp: .cfa -16 + ^ .cfa: $rsp 16 +
STACK CFI 26727 .cfa: $rbp 16 +
STACK CFI 2672f $r12: .cfa -48 + ^ $r13: .cfa -40 + ^ $r14: .cfa -32 + ^ $r15: .cfa -24 + ^
STACK CFI 2673a $rbx: .cfa -56 + ^
STACK CFI 267ca .cfa: $rsp 8 +
STACK CFI 267cb .cfa: $rbp 16 +
STACK CFI INIT 27570 d6b .cfa: $rsp 8 + .ra: .cfa -8 + ^
STACK CFI 27571 $rbp: .cfa -16 + ^ .cfa: $rsp 16 +
STACK CFI 27574 .cfa: $rbp 16 +
STACK CFI 27584 $r12: .cfa -48 + ^ $r13: .cfa -40 + ^ $r14: .cfa -32 + ^ $r15: .cfa -24 + ^ $rbx: .cfa -56 + ^
STACK CFI 275ef .cfa: $rsp 8 +
STACK CFI 275f0 .cfa: $rbp 16 +
STACK CFI INIT 282e0 c1a .cfa: $rsp 8 + .ra: .cfa -8 + ^
STACK CFI 282e1 $rbp: .cfa -16 + ^ .cfa: $rsp 16 +
STACK CFI 282e4 .cfa: $rbp 16 +
STACK CFI 282ec $r12: .cfa -48 + ^ $r13: .cfa -40 + ^ $r14: .cfa -32 + ^ $r15: .cfa -24 + ^
STACK CFI 282f4 $rbx: .cfa -56 + ^
STACK CFI 28847 .cfa: $rsp 8 +
STACK CFI 28850 .cfa: $rbp 16 +
STACK CFI INIT 28f00 f8 .cfa: $rsp 8 + .ra: .cfa -8 + ^
STACK CFI 28f02 $r14: .cfa -16 + ^ .cfa: $rsp 16 +
STACK CFI 28f04 $r13: .cfa -24 + ^ .cfa: $rsp 24 +
STACK CFI 28f06 $r12: .cfa -32 + ^ .cfa: $rsp 32 +
STACK CFI 28f07 $rbp: .cfa -40 + ^ .cfa: $rsp 40 +
STACK CFI 28f08 $rbx: .cfa -48 + ^ .cfa: $rsp 48 +
STACK CFI 28f0c .cfa: $rsp 128 +
STACK CFI 28f3d .cfa: $rsp 48 +
STACK CFI 28f3e .cfa: $rsp 40 +
STACK CFI 28f3f .cfa: $rsp 32 +
STACK CFI 28f41 .cfa: $rsp 24 +
STACK CFI 28f43 .cfa: $rsp 16 +
STACK CFI 28f45 .cfa: $rsp 8 +
STACK CFI 28f50 .cfa: $rsp 128 +
STACK CFI INIT 22750 a4 .cfa: $rsp 8 + .ra: .cfa -8 + ^
STACK CFI 22751 $rbp: .cfa -16 + ^ .cfa: $rsp 16 +
STACK CFI 22752 $rbx: .cfa -24 + ^ .cfa: $rsp 24 +
STACK CFI 22768 .cfa: $rsp 128 +
STACK CFI 227c7 .cfa: $rsp 24 +
STACK CFI 227c8 .cfa: $rsp 16 +
STACK CFI 227c9 .cfa: $rsp 8 +
STACK CFI 227d0 .cfa: $rsp 128 +
STACK CFI INIT 22800 2e .cfa: $rsp 8 + .ra: .cfa -8 + ^
STACK CFI INIT 22830 12 .cfa: $rsp 8 + .ra: .cfa -8 + ^
STACK CFI INIT 22850 a7 .cfa: $rsp 8 + .ra: .cfa -8 + ^
STACK CFI 22851 $rbx: .cfa -16 + ^ .cfa: $rsp 16 +
STACK CFI 22855 .cfa: $rsp 96 +
STACK CFI 22891 .cfa: $rsp 16 +
STACK CFI 22892 .cfa: $rsp 8 +
STACK CFI 22898 .cfa: $rsp 96 +
STACK CFI INIT 29000 c1a .cfa: $rsp 8 + .ra: .cfa -8 + ^
STACK CFI 29001 $rbp: .cfa -16 + ^ .cfa: $rsp 16 +
STACK CFI 29004 .cfa: $rbp 16 +
STACK CFI 2900c $r12: .cfa -48 + ^ $r13: .cfa -40 + ^ $r14: .cfa -32 + ^ $r15: .cfa -24 + ^
STACK CFI 29014 $rbx: .cfa -56 + ^
STACK CFI 29567 .cfa: $rsp 8 +
STACK CFI 29570 .cfa: $rbp 16 +
STACK CFI INIT 29c20 f8 .cfa: $rsp 8 + .ra: .cfa -8 + ^
STACK CFI 29c22 $r14: .cfa -16 + ^ .cfa: $rsp 16 +
STACK CFI 29c24 $r13: .cfa -24 + ^ .cfa: $rsp 24 +
STACK CFI 29c26 $r12: .cfa -32 + ^ .cfa: $rsp 32 +
STACK CFI 29c27 $rbp: .cfa -40 + ^ .cfa: $rsp 40 +
STACK CFI 29c28 $rbx: .cfa -48 + ^ .cfa: $rsp 48 +
STACK CFI 29c2c .cfa: $rsp 128 +
STACK CFI 29c5d .cfa: $rsp 48 +
STACK CFI 29c5e .cfa: $rsp 40 +
STACK CFI 29c5f .cfa: $rsp 32 +
STACK CFI 29c61 .cfa: $rsp 24 +
STACK CFI 29c63 .cfa: $rsp 16 +
STACK CFI 29c65 .cfa: $rsp 8 +
STACK CFI 29c70 .cfa: $rsp 128 +
STACK CFI INIT 22900 f3 .cfa: $rsp 8 + .ra: .cfa -8 + ^
STACK CFI 22901 $rbp: .cfa -16 + ^ .cfa: $rsp 16 +
STACK CFI 22907 .cfa: $rsp 48 +
STACK CFI 22930 .cfa: $rsp 96 +
STACK CFI 22969 .cfa: $rsp 48 +
STACK CFI 22984 .cfa: $rsp 16 +
STACK CFI 22985 .cfa: $rsp 8 +
STACK CFI 22990 .cfa: $rsp 48 +
STACK CFI INIT 22a00 1173 .cfa: $rsp 8 + .ra: .cfa -8 + ^
STACK CFI 22a01 $rbp: .cfa -16 + ^ .cfa: $rsp 16 +
STACK CFI 22a09 .cfa: $rbp 16 +
STACK CFI 22a20 $r12: .cfa -48 + ^ $r13: .cfa -40 + ^ $r14: .cfa -32 + ^ $r15: .cfa -24 + ^ $rbx: .cfa -56 + ^
STACK CFI 23899 .cfa: $rsp 8 +
STACK CFI 2389a .cfa: $rbp 16 +
STACK CFI INIT 29d20 f8 .cfa: $rsp 8 + .ra: .cfa -8 + ^
STACK CFI 29d22 $r14: .cfa -16 + ^ .cfa: $rsp 16 +
STACK CFI 29d24 $r13: .cfa -24 + ^ .cfa: $rsp 24 +
STACK CFI 29d26 $r12: .cfa -32 + ^ .cfa: $rsp 32 +
STACK CFI 29d27 $rbp: .cfa -40 + ^ .cfa: $rsp 40 +
STACK CFI 29d28 $rbx: .cfa -48 + ^ .cfa: $rsp 48 +
STACK CFI 29d2c .cfa: $rsp 128 +
STACK CFI 29d5d .cfa: $rsp 48 +
STACK CFI 29d5e .cfa: $rsp 40 +
STACK CFI 29d5f .cfa: $rsp 32 +
STACK CFI 29d61 .cfa: $rsp 24 +
STACK CFI 29d63 .cfa: $rsp 16 +
STACK CFI 29d65 .cfa: $rsp 8 +
STACK CFI 29d70 .cfa: $rsp 128 +
STACK CFI INIT 23b80 10a .cfa: $rsp 8 + .ra: .cfa -8 + ^
STACK CFI 23b81 $rbx: .cfa -16 + ^ .cfa: $rsp 16 +
STACK CFI 23b85 .cfa: $rsp 32 +
STACK CFI 23bc7 .cfa: $rsp 16 +
STACK CFI 23bc8 .cfa: $rsp 8 +
STACK CFI 23bd0 .cfa: $rsp 32 +
STACK CFI 23bf5 .cfa: $rsp 16 +
STACK CFI 23bf6 .cfa: $rsp 8 +
STACK CFI 23c00 .cfa: $rsp 32 +
STACK CFI 23c62 .cfa: $rsp 16 +
STACK CFI 23c63 .cfa: $rsp 8 +
STACK CFI 23c68 .cfa: $rsp 32 +
STACK CFI INIT 23c90 68d .cfa: $rsp 8 + .ra: .cfa -8 + ^
STACK CFI 23c92 $r15: .cfa -16 + ^ .cfa: $rsp 16 +
STACK CFI 23c94 $r14: .cfa -24 + ^ .cfa: $rsp 24 +
STACK CFI 23c96 $r13: .cfa -32 + ^ .cfa: $rsp 32 +
STACK CFI 23c98 $r12: .cfa -40 + ^ .cfa: $rsp 40 +
STACK CFI 23c99 $rbp: .cfa -48 + ^ .cfa: $rsp 48 +
STACK CFI 23c9a $rbx: .cfa -56 + ^ .cfa: $rsp 56 +
STACK CFI 23ca1 .cfa: $rsp 192 +
STACK CFI 23eaa .cfa: $rsp 200 +
STACK CFI 23eb7 .cfa: $rsp 208 +
STACK CFI 23ebd .cfa: $rsp 200 +
STACK CFI 23ebe .cfa: $rsp 192 +
STACK CFI 23f12 .cfa: $rsp 56 +
STACK CFI 23f13 .cfa: $rsp 48 +
STACK CFI 23f14 .cfa: $rsp 40 +
STACK CFI 23f16 .cfa: $rsp 32 +
STACK CFI 23f18 .cfa: $rsp 24 +
STACK CFI 23f1a .cfa: $rsp 16 +
STACK CFI 23f1c .cfa: $rsp 8 +
STACK CFI 23f20 .cfa: $rsp 192 +
STACK CFI 23fc6 .cfa: $rsp 200 +
STACK CFI 23fce .cfa: $rsp 208 +
STACK CFI 23fd6 .cfa: $rsp 216 +
STACK CFI 23fdc .cfa: $rsp 224 +
STACK CFI 23fe2 .cfa: $rsp 232 +
STACK CFI 23fe8 .cfa: $rsp 240 +
STACK CFI 23ffb .cfa: $rsp 192 +
STACK CFI INIT 29e20 c6a .cfa: $rsp 8 + .ra: .cfa -8 + ^
STACK CFI 29e21 $rbp: .cfa -16 + ^ .cfa: $rsp 16 +
STACK CFI 29e24 .cfa: $rbp 16 +
STACK CFI 29e2c $r12: .cfa -48 + ^ $r13: .cfa -40 + ^ $r14: .cfa -32 + ^ $r15: .cfa -24 + ^
STACK CFI 29e3a $rbx: .cfa -56 + ^
STACK CFI 2a3d9 .cfa: $rsp 8 +
STACK CFI 2a3e0 .cfa: $rbp 16 +
STACK CFI INIT 2aa90 10e .cfa: $rsp 8 + .ra: .cfa -8 + ^
STACK CFI 2aa92 $r13: .cfa -16 + ^ .cfa: $rsp 16 +
STACK CFI 2aa94 $r12: .cfa -24 + ^ .cfa: $rsp 24 +
STACK CFI 2aa9c $rbp: .cfa -32 + ^ .cfa: $rsp 32 +
STACK CFI 2aa9d $rbx: .cfa -40 + ^ .cfa: $rsp 40 +
STACK CFI 2aaa7 .cfa: $rsp 128 +
STACK CFI 2ab4a .cfa: $rsp 40 +
STACK CFI 2ab4b .cfa: $rsp 32 +
STACK CFI 2ab4c .cfa: $rsp 24 +
STACK CFI 2ab4e .cfa: $rsp 16 +
STACK CFI 2ab50 .cfa: $rsp 8 +
STACK CFI 2ab58 .cfa: $rsp 128 +
STACK CFI INIT 2aba0 29d .cfa: $rsp 8 + .ra: .cfa -8 + ^
STACK CFI 2aba2 $r15: .cfa -16 + ^ .cfa: $rsp 16 +
STACK CFI 2aba4 $r14: .cfa -24 + ^ .cfa: $rsp 24 +
STACK CFI 2aba9 $r13: .cfa -32 + ^ .cfa: $rsp 32 +
STACK CFI 2abab $r12: .cfa -40 + ^ .cfa: $rsp 40 +
STACK CFI 2abaf $rbp: .cfa -48 + ^ .cfa: $rsp 48 +
STACK CFI 2abb0 $rbx: .cfa -56 + ^ .cfa: $rsp 56 +
STACK CFI 2abbd .cfa: $rsp 192 +
STACK CFI 2ad4f .cfa: $rsp 56 +
STACK CFI 2ad50 .cfa: $rsp 48 +
STACK CFI 2ad51 .cfa: $rsp 40 +
STACK CFI 2ad53 .cfa: $rsp 32 +
STACK CFI 2ad55 .cfa: $rsp 24 +
STACK CFI 2ad57 .cfa: $rsp 16 +
STACK CFI 2ad59 .cfa: $rsp 8 +
STACK CFI 2ad60 .cfa: $rsp 192 +
STACK CFI INIT 2ae40 10e .cfa: $rsp 8 + .ra: .cfa -8 + ^
STACK CFI 2ae42 $r13: .cfa -16 + ^ .cfa: $rsp 16 +
STACK CFI 2ae44 $r12: .cfa -24 + ^ .cfa: $rsp 24 +
STACK CFI 2ae4c $rbp: .cfa -32 + ^ .cfa: $rsp 32 +
STACK CFI 2ae4d $rbx: .cfa -40 + ^ .cfa: $rsp 40 +
STACK CFI 2ae57 .cfa: $rsp 128 +
STACK CFI 2aefa .cfa: $rsp 40 +
STACK CFI 2aefb .cfa: $rsp 32 +
STACK CFI 2aefc .cfa: $rsp 24 +
STACK CFI 2aefe .cfa: $rsp 16 +
STACK CFI 2af00 .cfa: $rsp 8 +
STACK CFI 2af08 .cfa: $rsp 128 +
STACK CFI INIT 2af50 20d .cfa: $rsp 8 + .ra: .cfa -8 + ^
STACK CFI 2af52 $r15: .cfa -16 + ^ .cfa: $rsp 16 +
STACK CFI 2af54 $r14: .cfa -24 + ^ .cfa: $rsp 24 +
STACK CFI 2af59 $r13: .cfa -32 + ^ .cfa: $rsp 32 +
STACK CFI 2af5b $r12: .cfa -40 + ^ .cfa: $rsp 40 +
STACK CFI 2af5f $rbp: .cfa -48 + ^ .cfa: $rsp 48 +
STACK CFI 2af60 $rbx: .cfa -56 + ^ .cfa: $rsp 56 +
STACK CFI 2af6d .cfa: $rsp 160 +
STACK CFI 2b09b .cfa: $rsp 56 +
STACK CFI 2b09c .cfa: $rsp 48 +
STACK CFI 2b09d .cfa: $rsp 40 +
STACK CFI 2b09f .cfa: $rsp 32 +
STACK CFI 2b0a1 .cfa: $rsp 24 +
STACK CFI 2b0a3 .cfa: $rsp 16 +
STACK CFI 2b0a5 .cfa: $rsp 8 +
STACK CFI 2b0b0 .cfa: $rsp 160 +
STACK CFI INIT 2b160 10e .cfa: $rsp 8 + .ra: .cfa -8 + ^
STACK CFI 2b162 $r13: .cfa -16 + ^ .cfa: $rsp 16 +
STACK CFI 2b164 $r12: .cfa -24 + ^ .cfa: $rsp 24 +
STACK CFI 2b16c $rbp: .cfa -32 + ^ .cfa: $rsp 32 +
STACK CFI 2b16d $rbx: .cfa -40 + ^ .cfa: $rsp 40 +
STACK CFI 2b177 .cfa: $rsp 128 +
STACK CFI 2b21a .cfa: $rsp 40 +
STACK CFI 2b21b .cfa: $rsp 32 +
STACK CFI 2b21c .cfa: $rsp 24 +
STACK CFI 2b21e .cfa: $rsp 16 +
STACK CFI 2b220 .cfa: $rsp 8 +
STACK CFI 2b228 .cfa: $rsp 128 +
STACK CFI INIT 2b270 7d .cfa: $rsp 8 + .ra: .cfa -8 + ^
STACK CFI 2b271 $rbp: .cfa -16 + ^ .cfa: $rsp 16 +
STACK CFI 2b272 $rbx: .cfa -24 + ^ .cfa: $rsp 24 +
STACK CFI 2b27c .cfa: $rsp 80 +
STACK CFI 2b2c8 .cfa: $rsp 24 +
STACK CFI 2b2c9 .cfa: $rsp 16 +
STACK CFI 2b2ca .cfa: $rsp 8 +
STACK CFI 2b2cb .cfa: $rsp 80 +
STACK CFI INIT 2b2f0 37c .cfa: $rsp 8 + .ra: .cfa -8 + ^
STACK CFI 2b2f2 $r15: .cfa -16 + ^ .cfa: $rsp 16 +
STACK CFI 2b2f4 $r14: .cfa -24 + ^ .cfa: $rsp 24 +
STACK CFI 2b2f9 $r13: .cfa -32 + ^ .cfa: $rsp 32 +
STACK CFI 2b2fb $r12: .cfa -40 + ^ .cfa: $rsp 40 +
STACK CFI 2b2fc $rbp: .cfa -48 + ^ .cfa: $rsp 48 +
STACK CFI 2b2fd $rbx: .cfa -56 + ^ .cfa: $rsp 56 +
STACK CFI 2b307 .cfa: $rsp 224 +
STACK CFI 2b52d .cfa: $rsp 56 +
STACK CFI 2b52e .cfa: $rsp 48 +
STACK CFI 2b52f .cfa: $rsp 40 +
STACK CFI 2b531 .cfa: $rsp 32 +
STACK CFI 2b533 .cfa: $rsp 24 +
STACK CFI 2b535 .cfa: $rsp 16 +
STACK CFI 2b537 .cfa: $rsp 8 +
STACK CFI 2b540 .cfa: $rsp 224 +
STACK CFI INIT 2b670 1c5 .cfa: $rsp 8 + .ra: .cfa -8 + ^
STACK CFI 2b672 $r15: .cfa -16 + ^ .cfa: $rsp 16 +
STACK CFI 2b674 $r14: .cfa -24 + ^ .cfa: $rsp 24 +
STACK CFI 2b679 $r13: .cfa -32 + ^ .cfa: $rsp 32 +
STACK CFI 2b67b $r12: .cfa -40 + ^ .cfa: $rsp 40 +
STACK CFI 2b67f $rbp: .cfa -48 + ^ .cfa: $rsp 48 +
STACK CFI 2b680 $rbx: .cfa -56 + ^ .cfa: $rsp 56 +
STACK CFI 2b68e .cfa: $rsp 160 +
STACK CFI 2b796 .cfa: $rsp 56 +
STACK CFI 2b797 .cfa: $rsp 48 +
STACK CFI 2b798 .cfa: $rsp 40 +
STACK CFI 2b79a .cfa: $rsp 32 +
STACK CFI 2b79c .cfa: $rsp 24 +
STACK CFI 2b79e .cfa: $rsp 16 +
STACK CFI 2b7a0 .cfa: $rsp 8 +
STACK CFI 2b7a8 .cfa: $rsp 160 +
STACK CFI INIT 18430 5dc .cfa: $rsp 8 + .ra: .cfa -8 + ^
STACK CFI 18432 $r13: .cfa -16 + ^ .cfa: $rsp 16 +
STACK CFI 18434 $r12: .cfa -24 + ^ .cfa: $rsp 24 +
STACK CFI 1843c $rbp: .cfa -32 + ^ .cfa: $rsp 32 +
STACK CFI 1843d $rbx: .cfa -40 + ^ .cfa: $rsp 40 +
STACK CFI 18441 .cfa: $rsp 160 +
STACK CFI 18937 .cfa: $rsp 40 +
STACK CFI 18938 .cfa: $rsp 32 +
STACK CFI 18939 .cfa: $rsp 24 +
STACK CFI 1893b .cfa: $rsp 16 +
STACK CFI 1893d .cfa: $rsp 8 +
STACK CFI 1893e .cfa: $rsp 160 +
STACK CFI INIT 2b840 3ac .cfa: $rsp 8 + .ra: .cfa -8 + ^
STACK CFI 2b842 $r15: .cfa -16 + ^ .cfa: $rsp 16 +
STACK CFI 2b844 $r14: .cfa -24 + ^ .cfa: $rsp 24 +
STACK CFI 2b849 $r13: .cfa -32 + ^ .cfa: $rsp 32 +
STACK CFI 2b84b $r12: .cfa -40 + ^ .cfa: $rsp 40 +
STACK CFI 2b84f $rbp: .cfa -48 + ^ .cfa: $rsp 48 +
STACK CFI 2b850 $rbx: .cfa -56 + ^ .cfa: $rsp 56 +
STACK CFI 2b859 .cfa: $rsp 544 +
STACK CFI 2bb08 .cfa: $rsp 56 +
STACK CFI 2bb09 .cfa: $rsp 48 +
STACK CFI 2bb0a .cfa: $rsp 40 +
STACK CFI 2bb0c .cfa: $rsp 32 +
STACK CFI 2bb0e .cfa: $rsp 24 +
STACK CFI 2bb10 .cfa: $rsp 16 +
STACK CFI 2bb12 .cfa: $rsp 8 +
STACK CFI 2bb18 .cfa: $rsp 544 +
STACK CFI INIT 2bbf0 1c .cfa: $rsp 8 + .ra: .cfa -8 + ^
STACK CFI INIT 2bc10 3a4 .cfa: $rsp 8 + .ra: .cfa -8 + ^
STACK CFI 2bc12 $r15: .cfa -16 + ^ .cfa: $rsp 16 +
STACK CFI 2bc14 $r14: .cfa -24 + ^ .cfa: $rsp 24 +
STACK CFI 2bc19 $r13: .cfa -32 + ^ .cfa: $rsp 32 +
STACK CFI 2bc1b $r12: .cfa -40 + ^ .cfa: $rsp 40 +
STACK CFI 2bc1f $rbp: .cfa -48 + ^ .cfa: $rsp 48 +
STACK CFI 2bc20 $rbx: .cfa -56 + ^ .cfa: $rsp 56 +
STACK CFI 2bc29 .cfa: $rsp 544 +
STACK CFI 2bed3 .cfa: $rsp 56 +
STACK CFI 2bed4 .cfa: $rsp 48 +
STACK CFI 2bed5 .cfa: $rsp 40 +
STACK CFI 2bed7 .cfa: $rsp 32 +
STACK CFI 2bed9 .cfa: $rsp 24 +
STACK CFI 2bedb .cfa: $rsp 16 +
STACK CFI 2bedd .cfa: $rsp 8 +
STACK CFI 2bee0 .cfa: $rsp 544 +
STACK CFI INIT 2bfc0 6d .cfa: $rsp 8 + .ra: .cfa -8 + ^
STACK CFI 2bfc4 .cfa: $rsp 32 +
STACK CFI 2bffc .cfa: $rsp 8 +
STACK CFI 2c000 .cfa: $rsp 32 +
STACK CFI INIT 2c030 c4a .cfa: $rsp 8 + .ra: .cfa -8 + ^
STACK CFI 2c031 $rbp: .cfa -16 + ^ .cfa: $rsp 16 +
STACK CFI 2c034 .cfa: $rbp 16 +
STACK CFI 2c03c $r12: .cfa -48 + ^ $r13: .cfa -40 + ^ $r14: .cfa -32 + ^ $r15: .cfa -24 + ^
STACK CFI 2c047 $rbx: .cfa -56 + ^
STACK CFI 2c5c1 .cfa: $rsp 8 +
STACK CFI 2c5c8 .cfa: $rbp 16 +
STACK CFI INIT 2cc80 304 .cfa: $rsp 8 + .ra: .cfa -8 + ^
STACK CFI 2cc82 $r15: .cfa -16 + ^ .cfa: $rsp 16 +
STACK CFI 2cc84 $r14: .cfa -24 + ^ .cfa: $rsp 24 +
STACK CFI 2cc89 $r13: .cfa -32 + ^ .cfa: $rsp 32 +
STACK CFI 2cc8b $r12: .cfa -40 + ^ .cfa: $rsp 40 +
STACK CFI 2cc8f $rbp: .cfa -48 + ^ .cfa: $rsp 48 +
STACK CFI 2cc90 $rbx: .cfa -56 + ^ .cfa: $rsp 56 +
STACK CFI 2cc97 .cfa: $rsp 192 +
STACK CFI 2ce67 .cfa: $rsp 56 +
STACK CFI 2ce68 .cfa: $rsp 48 +
STACK CFI 2ce69 .cfa: $rsp 40 +
STACK CFI 2ce6b .cfa: $rsp 32 +
STACK CFI 2ce6d .cfa: $rsp 24 +
STACK CFI 2ce6f .cfa: $rsp 16 +
STACK CFI 2ce71 .cfa: $rsp 8 +
STACK CFI 2ce78 .cfa: $rsp 192 +
STACK CFI INIT 2cf90 1f3 .cfa: $rsp 8 + .ra: .cfa -8 + ^
STACK CFI 2cf92 $r14: .cfa -16 + ^ .cfa: $rsp 16 +
STACK CFI 2cf94 $r13: .cfa -24 + ^ .cfa: $rsp 24 +
STACK CFI 2cf99 $r12: .cfa -32 + ^ .cfa: $rsp 32 +
STACK CFI 2cf9a $rbp: .cfa -40 + ^ .cfa: $rsp 40 +
STACK CFI 2cf9e $rbx: .cfa -48 + ^ .cfa: $rsp 48 +
STACK CFI 2cfa2 .cfa: $rsp 128 +
STACK CFI 2d0dc .cfa: $rsp 48 +
STACK CFI 2d0dd .cfa: $rsp 40 +
STACK CFI 2d0de .cfa: $rsp 32 +
STACK CFI 2d0e0 .cfa: $rsp 24 +
STACK CFI 2d0e2 .cfa: $rsp 16 +
STACK CFI 2d0e4 .cfa: $rsp 8 +
STACK CFI 2d0e8 .cfa: $rsp 128 +
STACK CFI INIT 2d190 1f3 .cfa: $rsp 8 + .ra: .cfa -8 + ^
STACK CFI 2d192 $r14: .cfa -16 + ^ .cfa: $rsp 16 +
STACK CFI 2d194 $r13: .cfa -24 + ^ .cfa: $rsp 24 +
STACK CFI 2d199 $r12: .cfa -32 + ^ .cfa: $rsp 32 +
STACK CFI 2d19a $rbp: .cfa -40 + ^ .cfa: $rsp 40 +
STACK CFI 2d19e $rbx: .cfa -48 + ^ .cfa: $rsp 48 +
STACK CFI 2d1a2 .cfa: $rsp 128 +
STACK CFI 2d2dc .cfa: $rsp 48 +
STACK CFI 2d2dd .cfa: $rsp 40 +
STACK CFI 2d2de .cfa: $rsp 32 +
STACK CFI 2d2e0 .cfa: $rsp 24 +
STACK CFI 2d2e2 .cfa: $rsp 16 +
STACK CFI 2d2e4 .cfa: $rsp 8 +
STACK CFI 2d2e8 .cfa: $rsp 128 +
STACK CFI INIT 2d390 89 .cfa: $rsp 8 + .ra: .cfa -8 + ^
STACK CFI 2d391 $rbp: .cfa -16 + ^ .cfa: $rsp 16 +
STACK CFI 2d392 $rbx: .cfa -24 + ^ .cfa: $rsp 24 +
STACK CFI 2d39c .cfa: $rsp 48 +
STACK CFI 2d3ef .cfa: $rsp 24 +
STACK CFI 2d3f0 .cfa: $rsp 16 +
STACK CFI 2d3f1 .cfa: $rsp 8 +
STACK CFI 2d3f2 .cfa: $rsp 48 +
STACK CFI INIT 2d420 3e4 .cfa: $rsp 8 + .ra: .cfa -8 + ^
STACK CFI 2d422 $r15: .cfa -16 + ^ .cfa: $rsp 16 +
STACK CFI 2d424 $r14: .cfa -24 + ^ .cfa: $rsp 24 +
STACK CFI 2d429 $r13: .cfa -32 + ^ .cfa: $rsp 32 +
STACK CFI 2d42b $r12: .cfa -40 + ^ .cfa: $rsp 40 +
STACK CFI 2d42f $rbp: .cfa -48 + ^ .cfa: $rsp 48 +
STACK CFI 2d430 $rbx: .cfa -56 + ^ .cfa: $rsp 56 +
STACK CFI 2d439 .cfa: $rsp 544 +
STACK CFI 2d6fe .cfa: $rsp 56 +
STACK CFI 2d6ff .cfa: $rsp 48 +
STACK CFI 2d700 .cfa: $rsp 40 +
STACK CFI 2d702 .cfa: $rsp 32 +
STACK CFI 2d704 .cfa: $rsp 24 +
STACK CFI 2d706 .cfa: $rsp 16 +
STACK CFI 2d708 .cfa: $rsp 8 +
STACK CFI 2d710 .cfa: $rsp 544 +
STACK CFI INIT 2d810 58 .cfa: $rsp 8 + .ra: .cfa -8 + ^
STACK CFI 2d821 $rbp: .cfa -16 + ^ .cfa: $rsp 16 +
STACK CFI 2d822 $rbx: .cfa -24 + ^ .cfa: $rsp 24 +
STACK CFI 2d826 .cfa: $rsp 32 +
STACK CFI 2d83d .cfa: $rsp 24 +
STACK CFI 2d844 $rbx: $rbx .cfa: $rsp 16 +
STACK CFI 2d845 $rbp: $rbp .cfa: $rsp 8 +
STACK CFI 2d850 $rbp: .cfa -16 + ^ $rbx: .cfa -24 + ^ .cfa: $rsp 32 +
STACK CFI 2d85e .cfa: $rsp 24 +
STACK CFI 2d85f $rbx: $rbx .cfa: $rsp 16 +
STACK CFI 2d860 $rbp: $rbp .cfa: $rsp 8 +
STACK CFI INIT 18a10 5 .cfa: $rsp 8 + .ra: .cfa -8 + ^
STACK CFI INIT 2d870 8 .cfa: $rsp 8 + .ra: .cfa -8 + ^
STACK CFI INIT 18a20 2e .cfa: $rsp 8 + .ra: .cfa -8 + ^
STACK CFI 18a2b .cfa: $rsp 16 +
STACK CFI 18a49 .cfa: $rsp 8 +
STACK CFI INIT 2d880 128 .cfa: $rsp 8 + .ra: .cfa -8 + ^
STACK CFI 2d882 $r13: .cfa -16 + ^ .cfa: $rsp 16 +
STACK CFI 2d884 $r12: .cfa -24 + ^ .cfa: $rsp 24 +
STACK CFI 2d885 $rbp: .cfa -32 + ^ .cfa: $rsp 32 +
STACK CFI 2d886 $rbx: .cfa -40 + ^ .cfa: $rsp 40 +
STACK CFI 2d88a .cfa: $rsp 112 +
STACK CFI 2d919 .cfa: $rsp 40 +
STACK CFI 2d91a .cfa: $rsp 32 +
STACK CFI 2d91b .cfa: $rsp 24 +
STACK CFI 2d91d .cfa: $rsp 16 +
STACK CFI 2d91f .cfa: $rsp 8 +
STACK CFI 2d920 .cfa: $rsp 112 +
STACK CFI INIT 2d9b0 1c .cfa: $rsp 8 + .ra: .cfa -8 + ^
STACK CFI 2d9b4 .cfa: $rsp 16 +
STACK CFI 2d9cb .cfa: $rsp 8 +
STACK CFI INIT 2d9d0 27 .cfa: $rsp 8 + .ra: .cfa -8 + ^
STACK CFI 2d9d4 .cfa: $rsp 16 +
STACK CFI 2d9e5 .cfa: $rsp 8 +
STACK CFI 2d9f0 .cfa: $rsp 16 +
STACK CFI 2d9f6 .cfa: $rsp 8 +
STACK CFI INIT 2da00 2c .cfa: $rsp 8 + .ra: .cfa -8 + ^
STACK CFI 2da04 .cfa: $rsp 16 +
STACK CFI 2da16 .cfa: $rsp 8 +
STACK CFI 2da20 .cfa: $rsp 16 +
STACK CFI 2da2b .cfa: $rsp 8 +
STACK CFI INIT 2da30 3a .cfa: $rsp 8 + .ra: .cfa -8 + ^
STACK CFI 2da31 $rbp: .cfa -16 + ^ .cfa: $rsp 16 +
STACK CFI 2da32 $rbx: .cfa -24 + ^ .cfa: $rsp 24 +
STACK CFI 2da3b .cfa: $rsp 32 +
STACK CFI 2da4d .cfa: $rsp 24 +
STACK CFI 2da53 .cfa: $rsp 16 +
STACK CFI 2da54 .cfa: $rsp 8 +
STACK CFI 2da60 .cfa: $rsp 32 +
STACK CFI 2da67 .cfa: $rsp 24 +
STACK CFI 2da68 .cfa: $rsp 16 +
STACK CFI 2da69 .cfa: $rsp 8 +
STACK CFI INIT 2da70 2a8 .cfa: $rsp 8 + .ra: .cfa -8 + ^
STACK CFI 2da72 $r15: .cfa -16 + ^ .cfa: $rsp 16 +
STACK CFI 2da74 $r14: .cfa -24 + ^ .cfa: $rsp 24 +
STACK CFI 2da76 $r13: .cfa -32 + ^ .cfa: $rsp 32 +
STACK CFI 2da78 $r12: .cfa -40 + ^ .cfa: $rsp 40 +
STACK CFI 2da79 $rbp: .cfa -48 + ^ .cfa: $rsp 48 +
STACK CFI 2da7a $rbx: .cfa -56 + ^ .cfa: $rsp 56 +
STACK CFI 2da81 .cfa: $rsp 208 +
STACK CFI 2dbd6 .cfa: $rsp 56 +
STACK CFI 2dbd7 .cfa: $rsp 48 +
STACK CFI 2dbd8 .cfa: $rsp 40 +
STACK CFI 2dbda .cfa: $rsp 32 +
STACK CFI 2dbdc .cfa: $rsp 24 +
STACK CFI 2dbde .cfa: $rsp 16 +
STACK CFI 2dbe0 .cfa: $rsp 8 +
STACK CFI 2dbe8 .cfa: $rsp 208 +
STACK CFI INIT 2dd20 138 .cfa: $rsp 8 + .ra: .cfa -8 + ^
STACK CFI 2dd22 $r13: .cfa -16 + ^ .cfa: $rsp 16 +
STACK CFI 2dd24 $r12: .cfa -24 + ^ .cfa: $rsp 24 +
STACK CFI 2dd25 $rbp: .cfa -32 + ^ .cfa: $rsp 32 +
STACK CFI 2dd26 $rbx: .cfa -40 + ^ .cfa: $rsp 40 +
STACK CFI 2dd2a .cfa: $rsp 112 +
STACK CFI 2ddc7 .cfa: $rsp 40 +
STACK CFI 2ddc8 .cfa: $rsp 32 +
STACK CFI 2ddc9 .cfa: $rsp 24 +
STACK CFI 2ddcb .cfa: $rsp 16 +
STACK CFI 2ddcd .cfa: $rsp 8 +
STACK CFI 2ddd0 .cfa: $rsp 112 +
STACK CFI INIT 2de60 238 .cfa: $rsp 8 + .ra: .cfa -8 + ^
STACK CFI 2de62 $r14: .cfa -16 + ^ .cfa: $rsp 16 +
STACK CFI 2de64 $r13: .cfa -24 + ^ .cfa: $rsp 24 +
STACK CFI 2de66 $r12: .cfa -32 + ^ .cfa: $rsp 32 +
STACK CFI 2de67 $rbp: .cfa -40 + ^ .cfa: $rsp 40 +
STACK CFI 2de6b $rbx: .cfa -48 + ^ .cfa: $rsp 48 +
STACK CFI 2de6f .cfa: $rsp 144 +
STACK CFI 2df68 .cfa: $rsp 48 +
STACK CFI 2df69 .cfa: $rsp 40 +
STACK CFI 2df6a .cfa: $rsp 32 +
STACK CFI 2df6c .cfa: $rsp 24 +
STACK CFI 2df6e .cfa: $rsp 16 +
STACK CFI 2df70 .cfa: $rsp 8 +
STACK CFI 2df78 .cfa: $rsp 144 +
STACK CFI INIT 2e0a0 5a .cfa: $rsp 8 + .ra: .cfa -8 + ^
STACK CFI 2e0a5 $rbx: .cfa -16 + ^ .cfa: $rsp 16 +
STACK CFI 2e0d1 .cfa: $rsp 8 +
STACK CFI 2e0e0 .cfa: $rsp 16 +
STACK CFI 2e0f5 .cfa: $rsp 8 +
STACK CFI INIT 2e100 7d .cfa: $rsp 8 + .ra: .cfa -8 + ^
STACK CFI 2e101 $rbp: .cfa -16 + ^ .cfa: $rsp 16 +
STACK CFI 2e102 $rbx: .cfa -24 + ^ .cfa: $rsp 24 +
STACK CFI 2e108 .cfa: $rsp 80 +
STACK CFI 2e158 .cfa: $rsp 24 +
STACK CFI 2e159 .cfa: $rsp 16 +
STACK CFI 2e15a .cfa: $rsp 8 +
STACK CFI 2e15b .cfa: $rsp 80 +
STACK CFI INIT 2e180 9 .cfa: $rsp 8 + .ra: .cfa -8 + ^
STACK CFI INIT 18a50 2e .cfa: $rsp 8 + .ra: .cfa -8 + ^
STACK CFI 18a5b .cfa: $rsp 16 +
STACK CFI 18a79 .cfa: $rsp 8 +
STACK CFI INIT 31aa0 4 .cfa: $rsp 8 + .ra: .cfa -8 + ^
STACK CFI INIT 31ab0 2 .cfa: $rsp 8 + .ra: .cfa -8 + ^
STACK CFI INIT 31ac0 2 .cfa: $rsp 8 + .ra: .cfa -8 + ^
STACK CFI INIT 31ad0 2 .cfa: $rsp 8 + .ra: .cfa -8 + ^
STACK CFI INIT 31ae0 5 .cfa: $rsp 8 + .ra: .cfa -8 + ^
STACK CFI INIT 31af0 5 .cfa: $rsp 8 + .ra: .cfa -8 + ^
STACK CFI INIT 31b00 5 .cfa: $rsp 8 + .ra: .cfa -8 + ^
STACK CFI INIT 31b10 8a .cfa: $rsp 8 + .ra: .cfa -8 + ^
STACK CFI 31b11 $rbx: .cfa -16 + ^ .cfa: $rsp 16 +
STACK CFI 31b18 .cfa: $rsp 48 +
STACK CFI 31b58 .cfa: $rsp 16 +
STACK CFI 31b59 .cfa: $rsp 8 +
STACK CFI 31b60 .cfa: $rsp 48 +
STACK CFI 31b6b .cfa: $rsp 56 +
STACK CFI 31b6f .cfa: $rsp 64 +
STACK CFI 31b70 .cfa: $rsp 72 +
STACK CFI 31b74 .cfa: $rsp 80 +
STACK CFI 31b8e .cfa: $rsp 48 +
STACK CFI INIT 2e190 15 .cfa: $rsp 8 + .ra: .cfa -8 + ^
STACK CFI 2e19b .cfa: $rsp 16 +
STACK CFI INIT 2e1b0 67 .cfa: $rsp 8 + .ra: .cfa -8 + ^
STACK CFI 2e1b4 .cfa: $rsp 16 +
STACK CFI 2e1e3 .cfa: $rsp 8 +
STACK CFI 2e1e4 .cfa: $rsp 16 +
STACK CFI INIT 2e220 c2 .cfa: $rsp 8 + .ra: .cfa -8 + ^
STACK CFI 2e222 $r12: .cfa -16 + ^ .cfa: $rsp 16 +
STACK CFI 2e223 $rbp: .cfa -24 + ^ .cfa: $rsp 24 +
STACK CFI 2e227 $rbx: .cfa -32 + ^ .cfa: $rsp 32 +
STACK CFI 2e22e .cfa: $rsp 48 +
STACK CFI 2e29a .cfa: $rsp 32 +
STACK CFI 2e29b .cfa: $rsp 24 +
STACK CFI 2e29c .cfa: $rsp 16 +
STACK CFI 2e29e .cfa: $rsp 8 +
STACK CFI 2e2a0 .cfa: $rsp 48 +
STACK CFI INIT 18a80 39 .cfa: $rsp 8 + .ra: .cfa -8 + ^
STACK CFI 18a81 $rbp: .cfa -16 + ^ .cfa: $rsp 16 +
STACK CFI 18a82 $rbx: .cfa -24 + ^ .cfa: $rsp 24 +
STACK CFI 18a94 .cfa: $rsp 32 +
STACK CFI 18aac .cfa: $rsp 24 +
STACK CFI 18ab3 .cfa: $rsp 16 +
STACK CFI 18ab4 .cfa: $rsp 8 +
STACK CFI INIT 2e2f0 a3 .cfa: $rsp 8 + .ra: .cfa -8 + ^
STACK CFI 2e2f2 $r13: .cfa -16 + ^ .cfa: $rsp 16 +
STACK CFI 2e2f4 $r12: .cfa -24 + ^ .cfa: $rsp 24 +
STACK CFI 2e2fc $rbp: .cfa -32 + ^ .cfa: $rsp 32 +
STACK CFI 2e2fd $rbx: .cfa -40 + ^ .cfa: $rsp 40 +
STACK CFI 2e308 .cfa: $rsp 80 +
STACK CFI 2e387 .cfa: $rsp 40 +
STACK CFI 2e388 .cfa: $rsp 32 +
STACK CFI 2e389 .cfa: $rsp 24 +
STACK CFI 2e38b .cfa: $rsp 16 +
STACK CFI 2e38d .cfa: $rsp 8 +
STACK CFI 2e38e .cfa: $rsp 80 +
STACK CFI INIT 31ba0 65 .cfa: $rsp 8 + .ra: .cfa -8 + ^
STACK CFI 31ba2 $r12: .cfa -16 + ^ .cfa: $rsp 16 +
STACK CFI 31ba3 $rbp: .cfa -24 + ^ .cfa: $rsp 24 +
STACK CFI 31ba4 $rbx: .cfa -32 + ^ .cfa: $rsp 32 +
STACK CFI 31bee .cfa: $rsp 24 +
STACK CFI 31bf2 .cfa: $rsp 16 +
STACK CFI 31bf4 .cfa: $rsp 8 +
STACK CFI 31c00 .cfa: $rsp 32 +
STACK CFI 31c01 .cfa: $rsp 24 +
STACK CFI 31c02 .cfa: $rsp 16 +
STACK CFI 31c04 .cfa: $rsp 8 +
STACK CFI INIT 31c10 9e .cfa: $rsp 8 + .ra: .cfa -8 + ^
STACK CFI 31c66 $rbp: .cfa -16 + ^ .cfa: $rsp 16 +
STACK CFI 31c67 $rbx: .cfa -24 + ^ .cfa: $rsp 24 +
STACK CFI 31c74 .cfa: $rsp 32 +
STACK CFI 31c7d .cfa: $rsp 24 +
STACK CFI 31c84 $rbx: $rbx .cfa: $rsp 16 +
STACK CFI 31c85 $rbp: $rbp .cfa: $rsp 8 +
STACK CFI INIT 31cb0 8d .cfa: $rsp 8 + .ra: .cfa -8 + ^
STACK CFI 31cb1 $rbp: .cfa -16 + ^ .cfa: $rsp 16 +
STACK CFI 31cb2 $rbx: .cfa -24 + ^ .cfa: $rsp 24 +
STACK CFI 31cc4 .cfa: $rsp 80 +
STACK CFI 31d18 .cfa: $rsp 24 +
STACK CFI 31d19 .cfa: $rsp 16 +
STACK CFI 31d1a .cfa: $rsp 8 +
STACK CFI 31d1b .cfa: $rsp 80 +
STACK CFI INIT 2e3a0 35 .cfa: $rsp 8 + .ra: .cfa -8 + ^
STACK CFI 2e3a1 $rbx: .cfa -16 + ^ .cfa: $rsp 16 +
STACK CFI 2e3b9 .cfa: $rsp 8 +
STACK CFI 2e3c0 .cfa: $rsp 16 +
STACK CFI 2e3d4 .cfa: $rsp 8 +
STACK CFI INIT 2e3e0 3c .cfa: $rsp 8 + .ra: .cfa -8 + ^
STACK CFI 2e3e1 $rbx: .cfa -16 + ^ .cfa: $rsp 16 +
STACK CFI 2e40e .cfa: $rsp 8 +
STACK CFI 2e410 .cfa: $rsp 16 +
STACK CFI 2e41b .cfa: $rsp 8 +
STACK CFI INIT 2e420 26 .cfa: $rsp 8 + .ra: .cfa -8 + ^
STACK CFI 2e421 $rbx: .cfa -16 + ^ .cfa: $rsp 16 +
STACK CFI 2e445 .cfa: $rsp 8 +
STACK CFI INIT 2e450 12 .cfa: $rsp 8 + .ra: .cfa -8 + ^
STACK CFI INIT 31d40 32 .cfa: $rsp 8 + .ra: .cfa -8 + ^
STACK CFI 31d41 $rbx: .cfa -16 + ^ .cfa: $rsp 16 +
STACK CFI 31d63 .cfa: $rsp 8 +
STACK CFI 31d70 .cfa: $rsp 16 +
STACK CFI 31d71 .cfa: $rsp 8 +
STACK CFI INIT 31d80 a5 .cfa: $rsp 8 + .ra: .cfa -8 + ^
STACK CFI 31d81 $rbp: .cfa -16 + ^ .cfa: $rsp 16 +
STACK CFI 31d82 $rbx: .cfa -24 + ^ .cfa: $rsp 24 +
STACK CFI 31d8d .cfa: $rsp 32 +
STACK CFI 31dc5 .cfa: $rsp 24 +
STACK CFI 31dc6 .cfa: $rsp 16 +
STACK CFI 31dc7 .cfa: $rsp 8 +
STACK CFI 31dd0 .cfa: $rsp 32 +
STACK CFI 31dfc .cfa: $rsp 24 +
STACK CFI 31dfd .cfa: $rsp 16 +
STACK CFI 31dfe .cfa: $rsp 8 +
STACK CFI 31e00 .cfa: $rsp 32 +
STACK CFI INIT 2e470 42 .cfa: $rsp 8 + .ra: .cfa -8 + ^
STACK CFI 2e476 $rbp: .cfa -16 + ^ .cfa: $rsp 16 +
STACK CFI 2e477 $rbx: .cfa -24 + ^ .cfa: $rsp 24 +
STACK CFI 2e481 .cfa: $rsp 32 +
STACK CFI 2e4a5 .cfa: $rsp 24 +
STACK CFI 2e4a9 $rbx: $rbx .cfa: $rsp 16 +
STACK CFI 2e4aa $rbp: $rbp .cfa: $rsp 8 +
STACK CFI INIT 2e4c0 492 .cfa: $rsp 8 + .ra: .cfa -8 + ^
STACK CFI 2e4c2 $r15: .cfa -16 + ^ .cfa: $rsp 16 +
STACK CFI 2e4c4 $r14: .cfa -24 + ^ .cfa: $rsp 24 +
STACK CFI 2e4c9 $r13: .cfa -32 + ^ .cfa: $rsp 32 +
STACK CFI 2e4cb $r12: .cfa -40 + ^ .cfa: $rsp 40 +
STACK CFI 2e4cf $rbp: .cfa -48 + ^ .cfa: $rsp 48 +
STACK CFI 2e4d0 $rbx: .cfa -56 + ^ .cfa: $rsp 56 +
STACK CFI 2e4e5 .cfa: $rsp 320 +
STACK CFI 2e777 .cfa: $rsp 56 +
STACK CFI 2e778 .cfa: $rsp 48 +
STACK CFI 2e779 .cfa: $rsp 40 +
STACK CFI 2e77b .cfa: $rsp 32 +
STACK CFI 2e77d .cfa: $rsp 24 +
STACK CFI 2e77f .cfa: $rsp 16 +
STACK CFI 2e781 .cfa: $rsp 8 +
STACK CFI 2e788 .cfa: $rsp 320 +
STACK CFI INIT 2e960 492 .cfa: $rsp 8 + .ra: .cfa -8 + ^
STACK CFI 2e962 $r15: .cfa -16 + ^ .cfa: $rsp 16 +
STACK CFI 2e964 $r14: .cfa -24 + ^ .cfa: $rsp 24 +
STACK CFI 2e969 $r13: .cfa -32 + ^ .cfa: $rsp 32 +
STACK CFI 2e96b $r12: .cfa -40 + ^ .cfa: $rsp 40 +
STACK CFI 2e96f $rbp: .cfa -48 + ^ .cfa: $rsp 48 +
STACK CFI 2e970 $rbx: .cfa -56 + ^ .cfa: $rsp 56 +
STACK CFI 2e985 .cfa: $rsp 320 +
STACK CFI 2ec17 .cfa: $rsp 56 +
STACK CFI 2ec18 .cfa: $rsp 48 +
STACK CFI 2ec19 .cfa: $rsp 40 +
STACK CFI 2ec1b .cfa: $rsp 32 +
STACK CFI 2ec1d .cfa: $rsp 24 +
STACK CFI 2ec1f .cfa: $rsp 16 +
STACK CFI 2ec21 .cfa: $rsp 8 +
STACK CFI 2ec28 .cfa: $rsp 320 +
STACK CFI INIT 2ee00 127 .cfa: $rsp 8 + .ra: .cfa -8 + ^
STACK CFI 2ee02 $r14: .cfa -16 + ^ .cfa: $rsp 16 +
STACK CFI 2ee04 $r13: .cfa -24 + ^ .cfa: $rsp 24 +
STACK CFI 2ee06 $r12: .cfa -32 + ^ .cfa: $rsp 32 +
STACK CFI 2ee07 $rbp: .cfa -40 + ^ .cfa: $rsp 40 +
STACK CFI 2ee08 $rbx: .cfa -48 + ^ .cfa: $rsp 48 +
STACK CFI 2ee0c .cfa: $rsp 112 +
STACK CFI 2eefb .cfa: $rsp 48 +
STACK CFI 2eefc .cfa: $rsp 40 +
STACK CFI 2eefd .cfa: $rsp 32 +
STACK CFI 2eeff .cfa: $rsp 24 +
STACK CFI 2ef01 .cfa: $rsp 16 +
STACK CFI 2ef03 .cfa: $rsp 8 +
STACK CFI 2ef04 .cfa: $rsp 112 +
STACK CFI INIT 2ef30 202 .cfa: $rsp 8 + .ra: .cfa -8 + ^
STACK CFI 2ef32 $r15: .cfa -16 + ^ .cfa: $rsp 16 +
STACK CFI 2ef34 $r14: .cfa -24 + ^ .cfa: $rsp 24 +
STACK CFI 2ef36 $r13: .cfa -32 + ^ .cfa: $rsp 32 +
STACK CFI 2ef38 $r12: .cfa -40 + ^ .cfa: $rsp 40 +
STACK CFI 2ef39 $rbp: .cfa -48 + ^ .cfa: $rsp 48 +
STACK CFI 2ef3a $rbx: .cfa -56 + ^ .cfa: $rsp 56 +
STACK CFI 2ef3e .cfa: $rsp 144 +
STACK CFI 2f067 .cfa: $rsp 56 +
STACK CFI 2f068 .cfa: $rsp 48 +
STACK CFI 2f069 .cfa: $rsp 40 +
STACK CFI 2f06b .cfa: $rsp 32 +
STACK CFI 2f06d .cfa: $rsp 24 +
STACK CFI 2f06f .cfa: $rsp 16 +
STACK CFI 2f071 .cfa: $rsp 8 +
STACK CFI 2f072 .cfa: $rsp 144 +
STACK CFI INIT 31e30 32 .cfa: $rsp 8 + .ra: .cfa -8 + ^
STACK CFI 31e31 $rbx: .cfa -16 + ^ .cfa: $rsp 16 +
STACK CFI 31e53 .cfa: $rsp 8 +
STACK CFI 31e60 .cfa: $rsp 16 +
STACK CFI 31e61 .cfa: $rsp 8 +
STACK CFI INIT 31e70 fc .cfa: $rsp 8 + .ra: .cfa -8 + ^
STACK CFI 31e72 $r12: .cfa -16 + ^ .cfa: $rsp 16 +
STACK CFI 31e73 $rbp: .cfa -24 + ^ .cfa: $rsp 24 +
STACK CFI 31e7b $rbx: .cfa -32 + ^ .cfa: $rsp 32 +
STACK CFI 31e89 .cfa: $rsp 112 +
STACK CFI 31f28 .cfa: $rsp 32 +
STACK CFI 31f29 .cfa: $rsp 24 +
STACK CFI 31f2a .cfa: $rsp 16 +
STACK CFI 31f2c .cfa: $rsp 8 +
STACK CFI 31f2d .cfa: $rsp 112 +
STACK CFI INIT 31f70 fc .cfa: $rsp 8 + .ra: .cfa -8 + ^
STACK CFI 31f72 $r12: .cfa -16 + ^ .cfa: $rsp 16 +
STACK CFI 31f73 $rbp: .cfa -24 + ^ .cfa: $rsp 24 +
STACK CFI 31f7b $rbx: .cfa -32 + ^ .cfa: $rsp 32 +
STACK CFI 31f89 .cfa: $rsp 112 +
STACK CFI 32028 .cfa: $rsp 32 +
STACK CFI 32029 .cfa: $rsp 24 +
STACK CFI 3202a .cfa: $rsp 16 +
STACK CFI 3202c .cfa: $rsp 8 +
STACK CFI 3202d .cfa: $rsp 112 +
STACK CFI INIT 32070 fc .cfa: $rsp 8 + .ra: .cfa -8 + ^
STACK CFI 32072 $r12: .cfa -16 + ^ .cfa: $rsp 16 +
STACK CFI 32073 $rbp: .cfa -24 + ^ .cfa: $rsp 24 +
STACK CFI 3207b $rbx: .cfa -32 + ^ .cfa: $rsp 32 +
STACK CFI 32089 .cfa: $rsp 112 +
STACK CFI 32128 .cfa: $rsp 32 +
STACK CFI 32129 .cfa: $rsp 24 +
STACK CFI 3212a .cfa: $rsp 16 +
STACK CFI 3212c .cfa: $rsp 8 +
STACK CFI 3212d .cfa: $rsp 112 +
STACK CFI INIT 32170 802 .cfa: $rsp 8 + .ra: .cfa -8 + ^
STACK CFI 32172 $r15: .cfa -16 + ^ .cfa: $rsp 16 +
STACK CFI 32174 $r14: .cfa -24 + ^ .cfa: $rsp 24 +
STACK CFI 32179 $r13: .cfa -32 + ^ .cfa: $rsp 32 +
STACK CFI 3217b $r12: .cfa -40 + ^ .cfa: $rsp 40 +
STACK CFI 3217f $rbp: .cfa -48 + ^ .cfa: $rsp 48 +
STACK CFI 32180 $rbx: .cfa -56 + ^ .cfa: $rsp 56 +
STACK CFI 3218d .cfa: $rsp 640 +
STACK CFI 32286 .cfa: $rsp 648 +
STACK CFI 32288 .cfa: $rsp 656 +
STACK CFI 322b0 .cfa: $rsp 648 +
STACK CFI 322b1 .cfa: $rsp 640 +
STACK CFI 323be .cfa: $rsp 56 +
STACK CFI 323bf .cfa: $rsp 48 +
STACK CFI 323c0 .cfa: $rsp 40 +
STACK CFI 323c2 .cfa: $rsp 32 +
STACK CFI 323c4 .cfa: $rsp 24 +
STACK CFI 323c6 .cfa: $rsp 16 +
STACK CFI 323c8 .cfa: $rsp 8 +
STACK CFI 323d0 .cfa: $rsp 640 +
STACK CFI INIT 32980 ad .cfa: $rsp 8 + .ra: .cfa -8 + ^
STACK CFI 32982 $r14: .cfa -16 + ^ .cfa: $rsp 16 +
STACK CFI 32984 $r13: .cfa -24 + ^ .cfa: $rsp 24 +
STACK CFI 32989 $r12: .cfa -32 + ^ .cfa: $rsp 32 +
STACK CFI 3298a $rbp: .cfa -40 + ^ .cfa: $rsp 40 +
STACK CFI 3298e $rbx: .cfa -48 + ^ .cfa: $rsp 48 +
STACK CFI 32992 .cfa: $rsp 96 +
STACK CFI 32a02 .cfa: $rsp 48 +
STACK CFI 32a03 .cfa: $rsp 40 +
STACK CFI 32a04 .cfa: $rsp 32 +
STACK CFI 32a06 .cfa: $rsp 24 +
STACK CFI 32a08 .cfa: $rsp 16 +
STACK CFI 32a0a .cfa: $rsp 8 +
STACK CFI 32a0b .cfa: $rsp 96 +
STACK CFI INIT 32a30 428 .cfa: $rsp 8 + .ra: .cfa -8 + ^
STACK CFI 32a32 $r15: .cfa -16 + ^ .cfa: $rsp 16 +
STACK CFI 32a34 $r14: .cfa -24 + ^ .cfa: $rsp 24 +
STACK CFI 32a36 $r13: .cfa -32 + ^ .cfa: $rsp 32 +
STACK CFI 32a38 $r12: .cfa -40 + ^ .cfa: $rsp 40 +
STACK CFI 32a3c $rbp: .cfa -48 + ^ .cfa: $rsp 48 +
STACK CFI 32a3d $rbx: .cfa -56 + ^ .cfa: $rsp 56 +
STACK CFI 32a4a .cfa: $rsp 272 +
STACK CFI 32ab3 .cfa: $rsp 56 +
STACK CFI 32ab4 .cfa: $rsp 48 +
STACK CFI 32ab5 .cfa: $rsp 40 +
STACK CFI 32ab7 .cfa: $rsp 32 +
STACK CFI 32ab9 .cfa: $rsp 24 +
STACK CFI 32abb .cfa: $rsp 16 +
STACK CFI 32abd .cfa: $rsp 8 +
STACK CFI 32ac0 .cfa: $rsp 272 +
STACK CFI INIT 32e60 4c4 .cfa: $rsp 8 + .ra: .cfa -8 + ^
STACK CFI 32e62 $r15: .cfa -16 + ^ .cfa: $rsp 16 +
STACK CFI 32e64 $r14: .cfa -24 + ^ .cfa: $rsp 24 +
STACK CFI 32e66 $r13: .cfa -32 + ^ .cfa: $rsp 32 +
STACK CFI 32e68 $r12: .cfa -40 + ^ .cfa: $rsp 40 +
STACK CFI 32e69 $rbp: .cfa -48 + ^ .cfa: $rsp 48 +
STACK CFI 32e6a $rbx: .cfa -56 + ^ .cfa: $rsp 56 +
STACK CFI 32e71 .cfa: $rsp 608 +
STACK CFI 32eac .cfa: $rsp 56 +
STACK CFI 32ead .cfa: $rsp 48 +
STACK CFI 32eae .cfa: $rsp 40 +
STACK CFI 32eb0 .cfa: $rsp 32 +
STACK CFI 32eb2 .cfa: $rsp 24 +
STACK CFI 32eb4 .cfa: $rsp 16 +
STACK CFI 32eb6 .cfa: $rsp 8 +
STACK CFI 32ec0 .cfa: $rsp 608 +
STACK CFI INIT 33330 4d0 .cfa: $rsp 8 + .ra: .cfa -8 + ^
STACK CFI 33332 $r15: .cfa -16 + ^ .cfa: $rsp 16 +
STACK CFI 33334 $r14: .cfa -24 + ^ .cfa: $rsp 24 +
STACK CFI 33336 $r13: .cfa -32 + ^ .cfa: $rsp 32 +
STACK CFI 33338 $r12: .cfa -40 + ^ .cfa: $rsp 40 +
STACK CFI 33339 $rbp: .cfa -48 + ^ .cfa: $rsp 48 +
STACK CFI 3333a $rbx: .cfa -56 + ^ .cfa: $rsp 56 +
STACK CFI 33341 .cfa: $rsp 624 +
STACK CFI 33380 .cfa: $rsp 56 +
STACK CFI 33381 .cfa: $rsp 48 +
STACK CFI 33382 .cfa: $rsp 40 +
STACK CFI 33384 .cfa: $rsp 32 +
STACK CFI 33386 .cfa: $rsp 24 +
STACK CFI 33388 .cfa: $rsp 16 +
STACK CFI 3338a .cfa: $rsp 8 +
STACK CFI 33390 .cfa: $rsp 624 +
STACK CFI INIT 33800 cf0 .cfa: $rsp 8 + .ra: .cfa -8 + ^
STACK CFI 33801 $rbp: .cfa -16 + ^ .cfa: $rsp 16 +
STACK CFI 33804 .cfa: $rbp 16 +
STACK CFI 3380c $r12: .cfa -48 + ^ $r13: .cfa -40 + ^ $r14: .cfa -32 + ^ $r15: .cfa -24 + ^
STACK CFI 33817 $rbx: .cfa -56 + ^
STACK CFI 33865 .cfa: $rsp 8 +
STACK CFI 33866 .cfa: $rbp 16 +
STACK CFI INIT 344f0 4e7 .cfa: $rsp 8 + .ra: .cfa -8 + ^
STACK CFI 344f2 $r15: .cfa -16 + ^ .cfa: $rsp 16 +
STACK CFI 344f4 $r14: .cfa -24 + ^ .cfa: $rsp 24 +
STACK CFI 344f6 $r13: .cfa -32 + ^ .cfa: $rsp 32 +
STACK CFI 344f8 $r12: .cfa -40 + ^ .cfa: $rsp 40 +
STACK CFI 344f9 $rbp: .cfa -48 + ^ .cfa: $rsp 48 +
STACK CFI 344fa $rbx: .cfa -56 + ^ .cfa: $rsp 56 +
STACK CFI 34501 .cfa: $rsp 656 +
STACK CFI 34544 .cfa: $rsp 56 +
STACK CFI 34545 .cfa: $rsp 48 +
STACK CFI 34546 .cfa: $rsp 40 +
STACK CFI 34548 .cfa: $rsp 32 +
STACK CFI 3454a .cfa: $rsp 24 +
STACK CFI 3454c .cfa: $rsp 16 +
STACK CFI 3454e .cfa: $rsp 8 +
STACK CFI 34550 .cfa: $rsp 656 +
STACK CFI INIT 2f140 c6 .cfa: $rsp 8 + .ra: .cfa -8 + ^
STACK CFI 2f142 $r12: .cfa -16 + ^ .cfa: $rsp 16 +
STACK CFI 2f143 $rbp: .cfa -24 + ^ .cfa: $rsp 24 +
STACK CFI 2f144 $rbx: .cfa -32 + ^ .cfa: $rsp 32 +
STACK CFI 2f14b .cfa: $rsp 64 +
STACK CFI 2f1a4 .cfa: $rsp 32 +
STACK CFI 2f1a5 .cfa: $rsp 24 +
STACK CFI 2f1a6 .cfa: $rsp 16 +
STACK CFI 2f1a8 .cfa: $rsp 8 +
STACK CFI 2f1a9 .cfa: $rsp 64 +
STACK CFI INIT 2f210 5 .cfa: $rsp 8 + .ra: .cfa -8 + ^
STACK CFI INIT 349e0 ea .cfa: $rsp 8 + .ra: .cfa -8 + ^
STACK CFI 349e2 $r15: .cfa -16 + ^ .cfa: $rsp 16 +
STACK CFI 349e4 $r14: .cfa -24 + ^ .cfa: $rsp 24 +
STACK CFI 349e9 $r13: .cfa -32 + ^ .cfa: $rsp 32 +
STACK CFI 349eb $r12: .cfa -40 + ^ .cfa: $rsp 40 +
STACK CFI 349ef $rbp: .cfa -48 + ^ .cfa: $rsp 48 +
STACK CFI 349f0 $rbx: .cfa -56 + ^ .cfa: $rsp 56 +
STACK CFI 349f4 .cfa: $rsp 64 +
STACK CFI 34a7a .cfa: $rsp 56 +
STACK CFI 34a7b .cfa: $rsp 48 +
STACK CFI 34a7c .cfa: $rsp 40 +
STACK CFI 34a7e .cfa: $rsp 32 +
STACK CFI 34a80 .cfa: $rsp 24 +
STACK CFI 34a82 .cfa: $rsp 16 +
STACK CFI 34a84 .cfa: $rsp 8 +
STACK CFI 34a88 .cfa: $rsp 64 +
STACK CFI INIT 2f220 4d6 .cfa: $rsp 8 + .ra: .cfa -8 + ^
STACK CFI 2f222 $r15: .cfa -16 + ^ .cfa: $rsp 16 +
STACK CFI 2f224 $r14: .cfa -24 + ^ .cfa: $rsp 24 +
STACK CFI 2f226 $r13: .cfa -32 + ^ .cfa: $rsp 32 +
STACK CFI 2f228 $r12: .cfa -40 + ^ .cfa: $rsp 40 +
STACK CFI 2f22c $rbp: .cfa -48 + ^ .cfa: $rsp 48 +
STACK CFI 2f22d $rbx: .cfa -56 + ^ .cfa: $rsp 56 +
STACK CFI 2f237 .cfa: $rsp 320 +
STACK CFI 2f4b1 .cfa: $rsp 56 +
STACK CFI 2f4b2 .cfa: $rsp 48 +
STACK CFI 2f4b3 .cfa: $rsp 40 +
STACK CFI 2f4b5 .cfa: $rsp 32 +
STACK CFI 2f4b7 .cfa: $rsp 24 +
STACK CFI 2f4b9 .cfa: $rsp 16 +
STACK CFI 2f4bb .cfa: $rsp 8 +
STACK CFI 2f4c0 .cfa: $rsp 320 +
STACK CFI INIT 34ad0 4d0 .cfa: $rsp 8 + .ra: .cfa -8 + ^
STACK CFI 34ad2 $r15: .cfa -16 + ^ .cfa: $rsp 16 +
STACK CFI 34ad4 $r14: .cfa -24 + ^ .cfa: $rsp 24 +
STACK CFI 34ad6 $r13: .cfa -32 + ^ .cfa: $rsp 32 +
STACK CFI 34ad8 $r12: .cfa -40 + ^ .cfa: $rsp 40 +
STACK CFI 34ad9 $rbp: .cfa -48 + ^ .cfa: $rsp 48 +
STACK CFI 34ada $rbx: .cfa -56 + ^ .cfa: $rsp 56 +
STACK CFI 34ae1 .cfa: $rsp 624 +
STACK CFI 34b20 .cfa: $rsp 56 +
STACK CFI 34b21 .cfa: $rsp 48 +
STACK CFI 34b22 .cfa: $rsp 40 +
STACK CFI 34b24 .cfa: $rsp 32 +
STACK CFI 34b26 .cfa: $rsp 24 +
STACK CFI 34b28 .cfa: $rsp 16 +
STACK CFI 34b2a .cfa: $rsp 8 +
STACK CFI 34b30 .cfa: $rsp 624 +
STACK CFI INIT 34fa0 4f .cfa: $rsp 8 + .ra: .cfa -8 + ^
STACK CFI 34fa1 $rbp: .cfa -16 + ^ .cfa: $rsp 16 +
STACK CFI 34fa2 $rbx: .cfa -24 + ^ .cfa: $rsp 24 +
STACK CFI 34fa9 .cfa: $rsp 80 +
STACK CFI INIT 34ff0 f8 .cfa: $rsp 8 + .ra: .cfa -8 + ^
STACK CFI 34ff2 $r14: .cfa -16 + ^ .cfa: $rsp 16 +
STACK CFI 34ff4 $r13: .cfa -24 + ^ .cfa: $rsp 24 +
STACK CFI 34ff6 $r12: .cfa -32 + ^ .cfa: $rsp 32 +
STACK CFI 34ff7 $rbp: .cfa -40 + ^ .cfa: $rsp 40 +
STACK CFI 34ff8 $rbx: .cfa -48 + ^ .cfa: $rsp 48 +
STACK CFI 34ffc .cfa: $rsp 128 +
STACK CFI 3502d .cfa: $rsp 48 +
STACK CFI 3502e .cfa: $rsp 40 +
STACK CFI 3502f .cfa: $rsp 32 +
STACK CFI 35031 .cfa: $rsp 24 +
STACK CFI 35033 .cfa: $rsp 16 +
STACK CFI 35035 .cfa: $rsp 8 +
STACK CFI 35040 .cfa: $rsp 128 +
STACK CFI INIT 2f700 100 .cfa: $rsp 8 + .ra: .cfa -8 + ^
STACK CFI 2f701 $rbp: .cfa -16 + ^ .cfa: $rsp 16 +
STACK CFI 2f702 $rbx: .cfa -24 + ^ .cfa: $rsp 24 +
STACK CFI 2f711 .cfa: $rsp 112 +
STACK CFI 2f758 .cfa: $rsp 24 +
STACK CFI 2f759 .cfa: $rsp 16 +
STACK CFI 2f75a .cfa: $rsp 8 +
STACK CFI 2f760 .cfa: $rsp 112 +
STACK CFI INIT 2f800 183 .cfa: $rsp 8 + .ra: .cfa -8 + ^
STACK CFI 2f802 $r12: .cfa -16 + ^ .cfa: $rsp 16 +
STACK CFI 2f803 $rbp: .cfa -24 + ^ .cfa: $rsp 24 +
STACK CFI 2f807 $rbx: .cfa -32 + ^ .cfa: $rsp 32 +
STACK CFI 2f811 .cfa: $rsp 48 +
STACK CFI 2f8bb .cfa: $rsp 32 +
STACK CFI 2f8bc .cfa: $rsp 24 +
STACK CFI 2f8bd .cfa: $rsp 16 +
STACK CFI 2f8bf .cfa: $rsp 8 +
STACK CFI 2f8c0 .cfa: $rsp 48 +
STACK CFI INIT 2f990 ac .cfa: $rsp 8 + .ra: .cfa -8 + ^
STACK CFI 2f991 $rbx: .cfa -16 + ^ .cfa: $rsp 16 +
STACK CFI 2f99c .cfa: $rsp 32 +
STACK CFI 2f9e8 .cfa: $rsp 16 +
STACK CFI 2f9e9 .cfa: $rsp 8 +
STACK CFI 2f9ea .cfa: $rsp 32 +
STACK CFI INIT 2fa40 f5 .cfa: $rsp 8 + .ra: .cfa -8 + ^
STACK CFI 2fa42 $r14: .cfa -16 + ^ .cfa: $rsp 16 +
STACK CFI 2fa44 $r13: .cfa -24 + ^ .cfa: $rsp 24 +
STACK CFI 2fa49 $r12: .cfa -32 + ^ .cfa: $rsp 32 +
STACK CFI 2fa4a $rbp: .cfa -40 + ^ .cfa: $rsp 40 +
STACK CFI 2fa4d $rbx: .cfa -48 + ^ .cfa: $rsp 48 +
STACK CFI 2fa62 .cfa: $rsp 64 +
STACK CFI 2fabf .cfa: $rsp 48 +
STACK CFI 2fac0 .cfa: $rsp 40 +
STACK CFI 2fac1 .cfa: $rsp 32 +
STACK CFI 2fac3 .cfa: $rsp 24 +
STACK CFI 2fac5 .cfa: $rsp 16 +
STACK CFI 2fac7 .cfa: $rsp 8 +
STACK CFI 2fad0 .cfa: $rsp 64 +
STACK CFI INIT 2fb40 136 .cfa: $rsp 8 + .ra: .cfa -8 + ^
STACK CFI 2fb41 $rbp: .cfa -16 + ^ .cfa: $rsp 16 +
STACK CFI 2fb42 $rbx: .cfa -24 + ^ .cfa: $rsp 24 +
STACK CFI 2fb4b .cfa: $rsp 4352 +
STACK CFI 2fc6e .cfa: $rsp 24 +
STACK CFI 2fc6f .cfa: $rsp 16 +
STACK CFI 2fc70 .cfa: $rsp 8 +
STACK CFI 2fc71 .cfa: $rsp 4352 +
STACK CFI INIT 2fc80 129 .cfa: $rsp 8 + .ra: .cfa -8 + ^
STACK CFI 2fc82 $r13: .cfa -16 + ^ .cfa: $rsp 16 +
STACK CFI 2fc84 $r12: .cfa -24 + ^ .cfa: $rsp 24 +
STACK CFI 2fc88 $rbp: .cfa -32 + ^ .cfa: $rsp 32 +
STACK CFI 2fc89 $rbx: .cfa -40 + ^ .cfa: $rsp 40 +
STACK CFI 2fc96 .cfa: $rsp 64 +
STACK CFI 2fd1d .cfa: $rsp 40 +
STACK CFI 2fd1e .cfa: $rsp 32 +
STACK CFI 2fd1f .cfa: $rsp 24 +
STACK CFI 2fd21 .cfa: $rsp 16 +
STACK CFI 2fd23 .cfa: $rsp 8 +
STACK CFI 2fd28 .cfa: $rsp 64 +
STACK CFI INIT 350f0 4f .cfa: $rsp 8 + .ra: .cfa -8 + ^
STACK CFI 350f1 $rbp: .cfa -16 + ^ .cfa: $rsp 16 +
STACK CFI 350f2 $rbx: .cfa -24 + ^ .cfa: $rsp 24 +
STACK CFI 350f9 .cfa: $rsp 80 +
STACK CFI INIT 35140 f8 .cfa: $rsp 8 + .ra: .cfa -8 + ^
STACK CFI 35142 $r14: .cfa -16 + ^ .cfa: $rsp 16 +
STACK CFI 35144 $r13: .cfa -24 + ^ .cfa: $rsp 24 +
STACK CFI 35146 $r12: .cfa -32 + ^ .cfa: $rsp 32 +
STACK CFI 35147 $rbp: .cfa -40 + ^ .cfa: $rsp 40 +
STACK CFI 35148 $rbx: .cfa -48 + ^ .cfa: $rsp 48 +
STACK CFI 3514c .cfa: $rsp 128 +
STACK CFI 3517d .cfa: $rsp 48 +
STACK CFI 3517e .cfa: $rsp 40 +
STACK CFI 3517f .cfa: $rsp 32 +
STACK CFI 35181 .cfa: $rsp 24 +
STACK CFI 35183 .cfa: $rsp 16 +
STACK CFI 35185 .cfa: $rsp 8 +
STACK CFI 35190 .cfa: $rsp 128 +
STACK CFI INIT 35240 c1a .cfa: $rsp 8 + .ra: .cfa -8 + ^
STACK CFI 35241 $rbp: .cfa -16 + ^ .cfa: $rsp 16 +
STACK CFI 35244 .cfa: $rbp 16 +
STACK CFI 3524c $r12: .cfa -48 + ^ $r13: .cfa -40 + ^ $r14: .cfa -32 + ^ $r15: .cfa -24 + ^
STACK CFI 35254 $rbx: .cfa -56 + ^
STACK CFI 357a7 .cfa: $rsp 8 +
STACK CFI 357b0 .cfa: $rbp 16 +
STACK CFI INIT 35e60 2f6 .cfa: $rsp 8 + .ra: .cfa -8 + ^
STACK CFI 35e62 $r15: .cfa -16 + ^ .cfa: $rsp 16 +
STACK CFI 35e64 $r14: .cfa -24 + ^ .cfa: $rsp 24 +
STACK CFI 35e70 $r13: .cfa -32 + ^ .cfa: $rsp 32 +
STACK CFI 35e72 $r12: .cfa -40 + ^ .cfa: $rsp 40 +
STACK CFI 35e73 $rbp: .cfa -48 + ^ .cfa: $rsp 48 +
STACK CFI 35e74 $rbx: .cfa -56 + ^ .cfa: $rsp 56 +
STACK CFI 35e7e .cfa: $rsp 64 +
STACK CFI 360cd .cfa: $rsp 56 +
STACK CFI 360ce .cfa: $rsp 48 +
STACK CFI 360cf .cfa: $rsp 40 +
STACK CFI 360d1 .cfa: $rsp 32 +
STACK CFI 360d3 .cfa: $rsp 24 +
STACK CFI 360d5 .cfa: $rsp 16 +
STACK CFI 360d7 .cfa: $rsp 8 +
STACK CFI 360e0 .cfa: $rsp 64 +
STACK CFI INIT 36160 cd .cfa: $rsp 8 + .ra: .cfa -8 + ^
STACK CFI INIT 36230 c4a .cfa: $rsp 8 + .ra: .cfa -8 + ^
STACK CFI 36231 $rbp: .cfa -16 + ^ .cfa: $rsp 16 +
STACK CFI 36234 .cfa: $rbp 16 +
STACK CFI 3623c $r12: .cfa -48 + ^ $r13: .cfa -40 + ^ $r14: .cfa -32 + ^ $r15: .cfa -24 + ^
STACK CFI 36247 $rbx: .cfa -56 + ^
STACK CFI 367c1 .cfa: $rsp 8 +
STACK CFI 367c8 .cfa: $rbp 16 +
STACK CFI INIT 36e80 c1a .cfa: $rsp 8 + .ra: .cfa -8 + ^
STACK CFI 36e81 $rbp: .cfa -16 + ^ .cfa: $rsp 16 +
STACK CFI 36e84 .cfa: $rbp 16 +
STACK CFI 36e8c $r12: .cfa -48 + ^ $r13: .cfa -40 + ^ $r14: .cfa -32 + ^ $r15: .cfa -24 + ^
STACK CFI 36e94 $rbx: .cfa -56 + ^
STACK CFI 373e7 .cfa: $rsp 8 +
STACK CFI 373f0 .cfa: $rbp 16 +
STACK CFI INIT 37aa0 a2 .cfa: $rsp 8 + .ra: .cfa -8 + ^
STACK CFI 37aa2 $r14: .cfa -16 + ^ .cfa: $rsp 16 +
STACK CFI 37aa4 $r13: .cfa -24 + ^ .cfa: $rsp 24 +
STACK CFI 37aa9 $r12: .cfa -32 + ^ .cfa: $rsp 32 +
STACK CFI 37aaa $rbp: .cfa -40 + ^ .cfa: $rsp 40 +
STACK CFI 37aae $rbx: .cfa -48 + ^ .cfa: $rsp 48 +
STACK CFI 37ab2 .cfa: $rsp 96 +
STACK CFI 37b17 .cfa: $rsp 48 +
STACK CFI 37b18 .cfa: $rsp 40 +
STACK CFI 37b19 .cfa: $rsp 32 +
STACK CFI 37b1b .cfa: $rsp 24 +
STACK CFI 37b1d .cfa: $rsp 16 +
STACK CFI 37b1f .cfa: $rsp 8 +
STACK CFI 37b20 .cfa: $rsp 96 +
STACK CFI INIT 37b50 61 .cfa: $rsp 8 + .ra: .cfa -8 + ^
STACK CFI 37b52 $r12: .cfa -16 + ^ .cfa: $rsp 16 +
STACK CFI 37b53 $rbp: .cfa -24 + ^ .cfa: $rsp 24 +
STACK CFI 37b57 $rbx: .cfa -32 + ^ .cfa: $rsp 32 +
STACK CFI 37bad .cfa: $rsp 24 +
STACK CFI 37bae .cfa: $rsp 16 +
STACK CFI 37bb0 .cfa: $rsp 8 +
STACK CFI INIT 37bc0 136 .cfa: $rsp 8 + .ra: .cfa -8 + ^
STACK CFI 37bc2 $r14: .cfa -16 + ^ .cfa: $rsp 16 +
STACK CFI 37bc4 $r13: .cfa -24 + ^ .cfa: $rsp 24 +
STACK CFI 37bc6 $r12: .cfa -32 + ^ .cfa: $rsp 32 +
STACK CFI 37bc7 $rbp: .cfa -40 + ^ .cfa: $rsp 40 +
STACK CFI 37bcb $rbx: .cfa -48 + ^ .cfa: $rsp 48 +
STACK CFI 37bd5 .cfa: $rsp 96 +
STACK CFI 37c28 .cfa: $rsp 48 +
STACK CFI 37c29 .cfa: $rsp 40 +
STACK CFI 37c2a .cfa: $rsp 32 +
STACK CFI 37c2c .cfa: $rsp 24 +
STACK CFI 37c2e .cfa: $rsp 16 +
STACK CFI 37c30 .cfa: $rsp 8 +
STACK CFI 37c38 .cfa: $rsp 96 +
STACK CFI INIT 37d00 c4a .cfa: $rsp 8 + .ra: .cfa -8 + ^
STACK CFI 37d01 $rbp: .cfa -16 + ^ .cfa: $rsp 16 +
STACK CFI 37d04 .cfa: $rbp 16 +
STACK CFI 37d0c $r12: .cfa -48 + ^ $r13: .cfa -40 + ^ $r14: .cfa -32 + ^ $r15: .cfa -24 + ^
STACK CFI 37d17 $rbx: .cfa -56 + ^
STACK CFI 38291 .cfa: $rsp 8 +
STACK CFI 38298 .cfa: $rbp 16 +
STACK CFI INIT 38950 fa .cfa: $rsp 8 + .ra: .cfa -8 + ^
STACK CFI 38952 $r14: .cfa -16 + ^ .cfa: $rsp 16 +
STACK CFI 38954 $r13: .cfa -24 + ^ .cfa: $rsp 24 +
STACK CFI 38956 $r12: .cfa -32 + ^ .cfa: $rsp 32 +
STACK CFI 38957 $rbp: .cfa -40 + ^ .cfa: $rsp 40 +
STACK CFI 38958 $rbx: .cfa -48 + ^ .cfa: $rsp 48 +
STACK CFI 3895c .cfa: $rsp 128 +
STACK CFI 3898e .cfa: $rsp 48 +
STACK CFI 3898f .cfa: $rsp 40 +
STACK CFI 38990 .cfa: $rsp 32 +
STACK CFI 38992 .cfa: $rsp 24 +
STACK CFI 38994 .cfa: $rsp 16 +
STACK CFI 38996 .cfa: $rsp 8 +
STACK CFI 389a0 .cfa: $rsp 128 +
STACK CFI INIT 38a50 fb .cfa: $rsp 8 + .ra: .cfa -8 + ^
STACK CFI 38a52 $r14: .cfa -16 + ^ .cfa: $rsp 16 +
STACK CFI 38a54 $r13: .cfa -24 + ^ .cfa: $rsp 24 +
STACK CFI 38a56 $r12: .cfa -32 + ^ .cfa: $rsp 32 +
STACK CFI 38a57 $rbp: .cfa -40 + ^ .cfa: $rsp 40 +
STACK CFI 38a58 $rbx: .cfa -48 + ^ .cfa: $rsp 48 +
STACK CFI 38a5c .cfa: $rsp 128 +
STACK CFI 38a8d .cfa: $rsp 48 +
STACK CFI 38a8e .cfa: $rsp 40 +
STACK CFI 38a8f .cfa: $rsp 32 +
STACK CFI 38a91 .cfa: $rsp 24 +
STACK CFI 38a93 .cfa: $rsp 16 +
STACK CFI 38a95 .cfa: $rsp 8 +
STACK CFI 38aa0 .cfa: $rsp 128 +
STACK CFI INIT 2fdb0 e0 .cfa: $rsp 8 + .ra: .cfa -8 + ^
STACK CFI 2fdb1 $rbx: .cfa -16 + ^ .cfa: $rsp 16 +
STACK CFI 2fdb8 .cfa: $rsp 48 +
STACK CFI 2fe0a .cfa: $rsp 16 +
STACK CFI 2fe0b .cfa: $rsp 8 +
STACK CFI 2fe10 .cfa: $rsp 48 +
STACK CFI INIT 2fe90 291 .cfa: $rsp 8 + .ra: .cfa -8 + ^
STACK CFI 2fe92 $r13: .cfa -16 + ^ .cfa: $rsp 16 +
STACK CFI 2fe94 $r12: .cfa -24 + ^ .cfa: $rsp 24 +
STACK CFI 2fe95 $rbp: .cfa -32 + ^ .cfa: $rsp 32 +
STACK CFI 2fe96 $rbx: .cfa -40 + ^ .cfa: $rsp 40 +
STACK CFI 2fe9d .cfa: $rsp 208 +
STACK CFI 3005a .cfa: $rsp 40 +
STACK CFI 3005b .cfa: $rsp 32 +
STACK CFI 3005c .cfa: $rsp 24 +
STACK CFI 3005e .cfa: $rsp 16 +
STACK CFI 30060 .cfa: $rsp 8 +
STACK CFI 30061 .cfa: $rsp 208 +
STACK CFI INIT 30130 73f .cfa: $rsp 8 + .ra: .cfa -8 + ^
STACK CFI 30132 $r15: .cfa -16 + ^ .cfa: $rsp 16 +
STACK CFI 30134 $r14: .cfa -24 + ^ .cfa: $rsp 24 +
STACK CFI 30136 $r13: .cfa -32 + ^ .cfa: $rsp 32 +
STACK CFI 30138 $r12: .cfa -40 + ^ .cfa: $rsp 40 +
STACK CFI 30139 $rbp: .cfa -48 + ^ .cfa: $rsp 48 +
STACK CFI 3013a $rbx: .cfa -56 + ^ .cfa: $rsp 56 +
STACK CFI 30144 .cfa: $rsp 352 +
STACK CFI 305cd .cfa: $rsp 56 +
STACK CFI 305ce .cfa: $rsp 48 +
STACK CFI 305cf .cfa: $rsp 40 +
STACK CFI 305d1 .cfa: $rsp 32 +
STACK CFI 305d3 .cfa: $rsp 24 +
STACK CFI 305d5 .cfa: $rsp 16 +
STACK CFI 305d7 .cfa: $rsp 8 +
STACK CFI 305e0 .cfa: $rsp 352 +
STACK CFI INIT 38b50 fb .cfa: $rsp 8 + .ra: .cfa -8 + ^
STACK CFI 38b52 $r14: .cfa -16 + ^ .cfa: $rsp 16 +
STACK CFI 38b54 $r13: .cfa -24 + ^ .cfa: $rsp 24 +
STACK CFI 38b56 $r12: .cfa -32 + ^ .cfa: $rsp 32 +
STACK CFI 38b57 $rbp: .cfa -40 + ^ .cfa: $rsp 40 +
STACK CFI 38b58 $rbx: .cfa -48 + ^ .cfa: $rsp 48 +
STACK CFI 38b5c .cfa: $rsp 128 +
STACK CFI 38b8d .cfa: $rsp 48 +
STACK CFI 38b8e .cfa: $rsp 40 +
STACK CFI 38b8f .cfa: $rsp 32 +
STACK CFI 38b91 .cfa: $rsp 24 +
STACK CFI 38b93 .cfa: $rsp 16 +
STACK CFI 38b95 .cfa: $rsp 8 +
STACK CFI 38ba0 .cfa: $rsp 128 +
STACK CFI INIT 30870 325 .cfa: $rsp 8 + .ra: .cfa -8 + ^
STACK CFI 30872 $r13: .cfa -16 + ^ .cfa: $rsp 16 +
STACK CFI 30874 $r12: .cfa -24 + ^ .cfa: $rsp 24 +
STACK CFI 30875 $rbp: .cfa -32 + ^ .cfa: $rsp 32 +
STACK CFI 30876 $rbx: .cfa -40 + ^ .cfa: $rsp 40 +
STACK CFI 3087d .cfa: $rsp 144 +
STACK CFI 308ab .cfa: $rsp 40 +
STACK CFI 308ac .cfa: $rsp 32 +
STACK CFI 308ad .cfa: $rsp 24 +
STACK CFI 308af .cfa: $rsp 16 +
STACK CFI 308b1 .cfa: $rsp 8 +
STACK CFI 308b8 .cfa: $rsp 144 +
STACK CFI INIT 30ba0 2f0 .cfa: $rsp 8 + .ra: .cfa -8 + ^
STACK CFI 30ba2 $r13: .cfa -16 + ^ .cfa: $rsp 16 +
STACK CFI 30ba4 $r12: .cfa -24 + ^ .cfa: $rsp 24 +
STACK CFI 30bac $rbp: .cfa -32 + ^ .cfa: $rsp 32 +
STACK CFI 30bad $rbx: .cfa -40 + ^ .cfa: $rsp 40 +
STACK CFI 30bb7 .cfa: $rsp 176 +
STACK CFI 30d38 .cfa: $rsp 40 +
STACK CFI 30d39 .cfa: $rsp 32 +
STACK CFI 30d3a .cfa: $rsp 24 +
STACK CFI 30d3c .cfa: $rsp 16 +
STACK CFI 30d3e .cfa: $rsp 8 +
STACK CFI 30d40 .cfa: $rsp 176 +
STACK CFI INIT 30e90 99 .cfa: $rsp 8 + .ra: .cfa -8 + ^
STACK CFI 30e92 $r12: .cfa -16 + ^ .cfa: $rsp 16 +
STACK CFI 30e93 $rbp: .cfa -24 + ^ .cfa: $rsp 24 +
STACK CFI 30e97 $rbx: .cfa -32 + ^ .cfa: $rsp 32 +
STACK CFI 30e9b .cfa: $rsp 48 +
STACK CFI 30f07 .cfa: $rsp 32 +
STACK CFI 30f08 .cfa: $rsp 24 +
STACK CFI 30f09 .cfa: $rsp 16 +
STACK CFI 30f0b .cfa: $rsp 8 +
STACK CFI 30f10 .cfa: $rsp 48 +
STACK CFI INIT 30f30 12f .cfa: $rsp 8 + .ra: .cfa -8 + ^
STACK CFI 30f32 $r13: .cfa -16 + ^ .cfa: $rsp 16 +
STACK CFI 30f34 $r12: .cfa -24 + ^ .cfa: $rsp 24 +
STACK CFI 30f38 $rbp: .cfa -32 + ^ .cfa: $rsp 32 +
STACK CFI 30f39 $rbx: .cfa -40 + ^ .cfa: $rsp 40 +
STACK CFI 30f43 .cfa: $rsp 112 +
STACK CFI 30fce .cfa: $rsp 40 +
STACK CFI 30fcf .cfa: $rsp 32 +
STACK CFI 30fd0 .cfa: $rsp 24 +
STACK CFI 30fd2 .cfa: $rsp 16 +
STACK CFI 30fd4 .cfa: $rsp 8 +
STACK CFI 30fd5 .cfa: $rsp 112 +
STACK CFI INIT 31060 a6 .cfa: $rsp 8 + .ra: .cfa -8 + ^
STACK CFI 31061 $rbx: .cfa -16 + ^ .cfa: $rsp 16 +
STACK CFI 31068 .cfa: $rsp 48 +
STACK CFI 310aa .cfa: $rsp 16 +
STACK CFI 310ab .cfa: $rsp 8 +
STACK CFI 310ac .cfa: $rsp 48 +
STACK CFI INIT 31110 151 .cfa: $rsp 8 + .ra: .cfa -8 + ^
STACK CFI 31112 $r13: .cfa -16 + ^ .cfa: $rsp 16 +
STACK CFI 31114 $r12: .cfa -24 + ^ .cfa: $rsp 24 +
STACK CFI 31115 $rbp: .cfa -32 + ^ .cfa: $rsp 32 +
STACK CFI 31116 $rbx: .cfa -40 + ^ .cfa: $rsp 40 +
STACK CFI 3111f .cfa: $rsp 112 +
STACK CFI 311f1 .cfa: $rsp 40 +
STACK CFI 311f2 .cfa: $rsp 32 +
STACK CFI 311f3 .cfa: $rsp 24 +
STACK CFI 311f5 .cfa: $rsp 16 +
STACK CFI 311f7 .cfa: $rsp 8 +
STACK CFI 31200 .cfa: $rsp 112 +
STACK CFI INIT 31270 3bb .cfa: $rsp 8 + .ra: .cfa -8 + ^
STACK CFI 31272 $r15: .cfa -16 + ^ .cfa: $rsp 16 +
STACK CFI 31274 $r14: .cfa -24 + ^ .cfa: $rsp 24 +
STACK CFI 31276 $r13: .cfa -32 + ^ .cfa: $rsp 32 +
STACK CFI 31278 $r12: .cfa -40 + ^ .cfa: $rsp 40 +
STACK CFI 3127c $rbp: .cfa -48 + ^ .cfa: $rsp 48 +
STACK CFI 3127d $rbx: .cfa -56 + ^ .cfa: $rsp 56 +
STACK CFI 31289 .cfa: $rsp 192 +
STACK CFI 313de .cfa: $rsp 56 +
STACK CFI 313df .cfa: $rsp 48 +
STACK CFI 313e0 .cfa: $rsp 40 +
STACK CFI 313e2 .cfa: $rsp 32 +
STACK CFI 313e4 .cfa: $rsp 24 +
STACK CFI 313e6 .cfa: $rsp 16 +
STACK CFI 313e8 .cfa: $rsp 8 +
STACK CFI 313f0 .cfa: $rsp 192 +
STACK CFI INIT 31630 a .cfa: $rsp 8 + .ra: .cfa -8 + ^
STACK CFI INIT 31640 7 .cfa: $rsp 8 + .ra: .cfa -8 + ^
STACK CFI INIT 31650 2 .cfa: $rsp 8 + .ra: .cfa -8 + ^
STACK CFI INIT 31660 431 .cfa: $rsp 8 + .ra: .cfa -8 + ^
STACK CFI 31662 $r14: .cfa -16 + ^ .cfa: $rsp 16 +
STACK CFI 31664 $r13: .cfa -24 + ^ .cfa: $rsp 24 +
STACK CFI 31666 $r12: .cfa -32 + ^ .cfa: $rsp 32 +
STACK CFI 31667 $rbp: .cfa -40 + ^ .cfa: $rsp 40 +
STACK CFI 31668 $rbx: .cfa -48 + ^ .cfa: $rsp 48 +
STACK CFI 31671 .cfa: $rsp 192 +
STACK CFI 31732 .cfa: $rsp 48 +
STACK CFI 31733 .cfa: $rsp 40 +
STACK CFI 31734 .cfa: $rsp 32 +
STACK CFI 31736 .cfa: $rsp 24 +
STACK CFI 31738 .cfa: $rsp 16 +
STACK CFI 3173a .cfa: $rsp 8 +
STACK CFI 31740 .cfa: $rsp 192 +
STACK CFI INIT 38c50 3a4 .cfa: $rsp 8 + .ra: .cfa -8 + ^
STACK CFI 38c52 $r15: .cfa -16 + ^ .cfa: $rsp 16 +
STACK CFI 38c54 $r14: .cfa -24 + ^ .cfa: $rsp 24 +
STACK CFI 38c59 $r13: .cfa -32 + ^ .cfa: $rsp 32 +
STACK CFI 38c5b $r12: .cfa -40 + ^ .cfa: $rsp 40 +
STACK CFI 38c5f $rbp: .cfa -48 + ^ .cfa: $rsp 48 +
STACK CFI 38c60 $rbx: .cfa -56 + ^ .cfa: $rsp 56 +
STACK CFI 38c69 .cfa: $rsp 544 +
STACK CFI 38f13 .cfa: $rsp 56 +
STACK CFI 38f14 .cfa: $rsp 48 +
STACK CFI 38f15 .cfa: $rsp 40 +
STACK CFI 38f17 .cfa: $rsp 32 +
STACK CFI 38f19 .cfa: $rsp 24 +
STACK CFI 38f1b .cfa: $rsp 16 +
STACK CFI 38f1d .cfa: $rsp 8 +
STACK CFI 38f20 .cfa: $rsp 544 +
STACK CFI INIT 39000 6d .cfa: $rsp 8 + .ra: .cfa -8 + ^
STACK CFI 39004 .cfa: $rsp 32 +
STACK CFI 3903c .cfa: $rsp 8 +
STACK CFI 39040 .cfa: $rsp 32 +
STACK CFI INIT 18ac0 56c .cfa: $rsp 8 + .ra: .cfa -8 + ^
STACK CFI 18ac2 $r14: .cfa -16 + ^ .cfa: $rsp 16 +
STACK CFI 18ac4 $r13: .cfa -24 + ^ .cfa: $rsp 24 +
STACK CFI 18acd $r12: .cfa -32 + ^ .cfa: $rsp 32 +
STACK CFI 18ace $rbp: .cfa -40 + ^ .cfa: $rsp 40 +
STACK CFI 18acf $rbx: .cfa -48 + ^ .cfa: $rsp 48 +
STACK CFI 18ad6 .cfa: $rsp 192 +
STACK CFI 18ee8 .cfa: $rsp 48 +
STACK CFI 18ee9 .cfa: $rsp 40 +
STACK CFI 18eea .cfa: $rsp 32 +
STACK CFI 18eec .cfa: $rsp 24 +
STACK CFI 18eee .cfa: $rsp 16 +
STACK CFI 18ef0 .cfa: $rsp 8 +
STACK CFI 18ef1 .cfa: $rsp 192 +
STACK CFI INIT 39070 7e .cfa: $rsp 8 + .ra: .cfa -8 + ^
STACK CFI INIT 390f0 1b8 .cfa: $rsp 8 + .ra: .cfa -8 + ^
STACK CFI 390fb $r14: .cfa -16 + ^ .cfa: $rsp 16 +
STACK CFI 390fc $rbx: .cfa -24 + ^ .cfa: $rsp 24 +
STACK CFI 39106 .cfa: $rsp 32 +
STACK CFI 391af .cfa: $rsp 24 +
STACK CFI 391b0 $rbx: $rbx .cfa: $rsp 16 +
STACK CFI 391b2 $r14: $r14 .cfa: $rsp 8 +
STACK CFI 391b8 $r14: .cfa -16 + ^ $rbx: .cfa -24 + ^ .cfa: $rsp 32 +
STACK CFI INIT 392b0 97 .cfa: $rsp 8 + .ra: .cfa -8 + ^
STACK CFI 392b2 $r12: .cfa -16 + ^ .cfa: $rsp 16 +
STACK CFI 392b3 $rbp: .cfa -24 + ^ .cfa: $rsp 24 +
STACK CFI 392b7 $rbx: .cfa -32 + ^ .cfa: $rsp 32 +
STACK CFI 392f7 .cfa: $rsp 24 +
STACK CFI 392f8 .cfa: $rsp 16 +
STACK CFI 392fa .cfa: $rsp 8 +
STACK CFI 39300 .cfa: $rsp 32 +
STACK CFI 39333 .cfa: $rsp 24 +
STACK CFI 39334 .cfa: $rsp 16 +
STACK CFI 39336 .cfa: $rsp 8 +
STACK CFI 39340 .cfa: $rsp 32 +
STACK CFI INIT 39350 46 .cfa: $rsp 8 + .ra: .cfa -8 + ^
STACK CFI INIT 393a0 23 .cfa: $rsp 8 + .ra: .cfa -8 + ^
STACK CFI INIT 393d0 31f .cfa: $rsp 8 + .ra: .cfa -8 + ^
STACK CFI 393f4 $rbx: .cfa -16 + ^ .cfa: $rsp 16 +
STACK CFI 39611 $rbx: $rbx .cfa: $rsp 8 +
STACK CFI 39620 $rbx: .cfa -16 + ^ .cfa: $rsp 16 +
STACK CFI INIT 396f0 6a .cfa: $rsp 8 + .ra: .cfa -8 + ^
STACK CFI INIT 39760 74 .cfa: $rsp 8 + .ra: .cfa -8 + ^
STACK CFI INIT 397e0 a3 .cfa: $rsp 8 + .ra: .cfa -8 + ^
STACK CFI 39809 $rbp: .cfa -16 + ^ .cfa: $rsp 16 +
STACK CFI 3980a $rbx: .cfa -24 + ^ .cfa: $rsp 24 +
STACK CFI 39818 .cfa: $rsp 32 +
STACK CFI 3987f .cfa: $rsp 24 +
STACK CFI 39880 $rbx: $rbx .cfa: $rsp 16 +
STACK CFI 39881 $rbp: $rbp .cfa: $rsp 8 +
STACK CFI INIT 39890 3b .cfa: $rsp 8 + .ra: .cfa -8 + ^
STACK CFI 398b0 .cfa: $rsp 16 +
STACK CFI 398c2 .cfa: $rsp 8 +
STACK CFI INIT 398d0 239 .cfa: $rsp 8 + .ra: .cfa -8 + ^
STACK CFI 398d2 $r15: .cfa -16 + ^ .cfa: $rsp 16 +
STACK CFI 398d4 $r14: .cfa -24 + ^ .cfa: $rsp 24 +
STACK CFI 398d9 $r13: .cfa -32 + ^ .cfa: $rsp 32 +
STACK CFI 398db $r12: .cfa -40 + ^ .cfa: $rsp 40 +
STACK CFI 398dc $rbp: .cfa -48 + ^ .cfa: $rsp 48 +
STACK CFI 398dd $rbx: .cfa -56 + ^ .cfa: $rsp 56 +
STACK CFI 398e4 .cfa: $rsp 116928 +
STACK CFI 39ab0 .cfa: $rsp 56 +
STACK CFI 39ab1 .cfa: $rsp 48 +
STACK CFI 39ab2 .cfa: $rsp 40 +
STACK CFI 39ab4 .cfa: $rsp 32 +
STACK CFI 39ab6 .cfa: $rsp 24 +
STACK CFI 39ab8 .cfa: $rsp 16 +
STACK CFI 39aba .cfa: $rsp 8 +
STACK CFI 39ac0 .cfa: $rsp 116928 +
STACK CFI INIT 39b10 13e .cfa: $rsp 8 + .ra: .cfa -8 + ^
STACK CFI 39b12 $r15: .cfa -16 + ^ .cfa: $rsp 16 +
STACK CFI 39b14 $r14: .cfa -24 + ^ .cfa: $rsp 24 +
STACK CFI 39b19 $r13: .cfa -32 + ^ .cfa: $rsp 32 +
STACK CFI 39b1b $r12: .cfa -40 + ^ .cfa: $rsp 40 +
STACK CFI 39b1c $rbp: .cfa -48 + ^ .cfa: $rsp 48 +
STACK CFI 39b1d $rbx: .cfa -56 + ^ .cfa: $rsp 56 +
STACK CFI 39b24 .cfa: $rsp 116880 +
STACK CFI 39c3e .cfa: $rsp 56 +
STACK CFI 39c3f .cfa: $rsp 48 +
STACK CFI 39c40 .cfa: $rsp 40 +
STACK CFI 39c42 .cfa: $rsp 32 +
STACK CFI 39c44 .cfa: $rsp 24 +
STACK CFI 39c46 .cfa: $rsp 16 +
STACK CFI 39c48 .cfa: $rsp 8 +
STACK CFI 39c49 .cfa: $rsp 116880 +
STACK CFI INIT 39c50 10d .cfa: $rsp 8 + .ra: .cfa -8 + ^
STACK CFI 39c51 $rbx: .cfa -16 + ^ .cfa: $rsp 16 +
STACK CFI 39d5c .cfa: $rsp 8 +
STACK CFI INIT 19030 2e .cfa: $rsp 8 + .ra: .cfa -8 + ^
STACK CFI 1903b .cfa: $rsp 16 +
STACK CFI 19059 .cfa: $rsp 8 +
STACK CFI INIT 39d60 2c .cfa: $rsp 8 + .ra: .cfa -8 + ^
STACK CFI INIT 39d90 2c .cfa: $rsp 8 + .ra: .cfa -8 + ^
STACK CFI INIT 3c2c0 5 .cfa: $rsp 8 + .ra: .cfa -8 + ^
STACK CFI INIT 39dc0 c2 .cfa: $rsp 8 + .ra: .cfa -8 + ^
STACK CFI 39dc2 $r12: .cfa -16 + ^ .cfa: $rsp 16 +
STACK CFI 39dc3 $rbp: .cfa -24 + ^ .cfa: $rsp 24 +
STACK CFI 39dc7 $rbx: .cfa -32 + ^ .cfa: $rsp 32 +
STACK CFI 39dce .cfa: $rsp 48 +
STACK CFI 39e3a .cfa: $rsp 32 +
STACK CFI 39e3b .cfa: $rsp 24 +
STACK CFI 39e3c .cfa: $rsp 16 +
STACK CFI 39e3e .cfa: $rsp 8 +
STACK CFI 39e40 .cfa: $rsp 48 +
STACK CFI INIT 3c2d0 9e .cfa: $rsp 8 + .ra: .cfa -8 + ^
STACK CFI 3c326 $rbp: .cfa -16 + ^ .cfa: $rsp 16 +
STACK CFI 3c327 $rbx: .cfa -24 + ^ .cfa: $rsp 24 +
STACK CFI 3c334 .cfa: $rsp 32 +
STACK CFI 3c33d .cfa: $rsp 24 +
STACK CFI 3c344 $rbx: $rbx .cfa: $rsp 16 +
STACK CFI 3c345 $rbp: $rbp .cfa: $rsp 8 +
STACK CFI INIT 3c370 9e .cfa: $rsp 8 + .ra: .cfa -8 + ^
STACK CFI 3c3c6 $rbp: .cfa -16 + ^ .cfa: $rsp 16 +
STACK CFI 3c3c7 $rbx: .cfa -24 + ^ .cfa: $rsp 24 +
STACK CFI 3c3d4 .cfa: $rsp 32 +
STACK CFI 3c3dd .cfa: $rsp 24 +
STACK CFI 3c3e4 $rbx: $rbx .cfa: $rsp 16 +
STACK CFI 3c3e5 $rbp: $rbp .cfa: $rsp 8 +
STACK CFI INIT 3c410 9e .cfa: $rsp 8 + .ra: .cfa -8 + ^
STACK CFI 3c466 $rbp: .cfa -16 + ^ .cfa: $rsp 16 +
STACK CFI 3c467 $rbx: .cfa -24 + ^ .cfa: $rsp 24 +
STACK CFI 3c474 .cfa: $rsp 32 +
STACK CFI 3c47d .cfa: $rsp 24 +
STACK CFI 3c484 $rbx: $rbx .cfa: $rsp 16 +
STACK CFI 3c485 $rbp: $rbp .cfa: $rsp 8 +
STACK CFI INIT 3c4b0 8d .cfa: $rsp 8 + .ra: .cfa -8 + ^
STACK CFI 3c4b1 $rbp: .cfa -16 + ^ .cfa: $rsp 16 +
STACK CFI 3c4b2 $rbx: .cfa -24 + ^ .cfa: $rsp 24 +
STACK CFI 3c4c4 .cfa: $rsp 80 +
STACK CFI 3c518 .cfa: $rsp 24 +
STACK CFI 3c519 .cfa: $rsp 16 +
STACK CFI 3c51a .cfa: $rsp 8 +
STACK CFI 3c51b .cfa: $rsp 80 +
STACK CFI INIT 3c540 8d .cfa: $rsp 8 + .ra: .cfa -8 + ^
STACK CFI 3c541 $rbp: .cfa -16 + ^ .cfa: $rsp 16 +
STACK CFI 3c542 $rbx: .cfa -24 + ^ .cfa: $rsp 24 +
STACK CFI 3c554 .cfa: $rsp 80 +
STACK CFI 3c5a8 .cfa: $rsp 24 +
STACK CFI 3c5a9 .cfa: $rsp 16 +
STACK CFI 3c5aa .cfa: $rsp 8 +
STACK CFI 3c5ab .cfa: $rsp 80 +
STACK CFI INIT 3c5d0 8d .cfa: $rsp 8 + .ra: .cfa -8 + ^
STACK CFI 3c5d1 $rbp: .cfa -16 + ^ .cfa: $rsp 16 +
STACK CFI 3c5d2 $rbx: .cfa -24 + ^ .cfa: $rsp 24 +
STACK CFI 3c5e4 .cfa: $rsp 80 +
STACK CFI 3c638 .cfa: $rsp 24 +
STACK CFI 3c639 .cfa: $rsp 16 +
STACK CFI 3c63a .cfa: $rsp 8 +
STACK CFI 3c63b .cfa: $rsp 80 +
STACK CFI INIT 39e90 13 .cfa: $rsp 8 + .ra: .cfa -8 + ^
STACK CFI INIT 39eb0 5 .cfa: $rsp 8 + .ra: .cfa -8 + ^
STACK CFI INIT 39ec0 13 .cfa: $rsp 8 + .ra: .cfa -8 + ^
STACK CFI INIT 39ee0 13 .cfa: $rsp 8 + .ra: .cfa -8 + ^
STACK CFI INIT 39f00 11 .cfa: $rsp 8 + .ra: .cfa -8 + ^
STACK CFI INIT 39f20 2 .cfa: $rsp 8 + .ra: .cfa -8 + ^
STACK CFI INIT 39f30 89 .cfa: $rsp 8 + .ra: .cfa -8 + ^
STACK CFI 39f32 $r13: .cfa -16 + ^ .cfa: $rsp 16 +
STACK CFI 39f34 $r12: .cfa -24 + ^ .cfa: $rsp 24 +
STACK CFI 39f3c $rbp: .cfa -32 + ^ .cfa: $rsp 32 +
STACK CFI 39f3d $rbx: .cfa -40 + ^ .cfa: $rsp 40 +
STACK CFI 39f4a .cfa: $rsp 48 +
STACK CFI 39fb2 .cfa: $rsp 40 +
STACK CFI 39fb3 .cfa: $rsp 32 +
STACK CFI 39fb4 .cfa: $rsp 24 +
STACK CFI 39fb6 .cfa: $rsp 16 +
STACK CFI 39fb8 .cfa: $rsp 8 +
STACK CFI INIT 39fc0 45 .cfa: $rsp 8 + .ra: .cfa -8 + ^
STACK CFI 39fc9 $r12: .cfa -16 + ^ .cfa: $rsp 16 +
STACK CFI 39fcd $rbp: .cfa -24 + ^ .cfa: $rsp 24 +
STACK CFI 39fd0 $rbx: .cfa -32 + ^ .cfa: $rsp 32 +
STACK CFI 3a001 .cfa: $rsp 24 +
STACK CFI 3a002 .cfa: $rsp 16 +
STACK CFI 3a004 .cfa: $rsp 8 +
STACK CFI INIT 3a010 49 .cfa: $rsp 8 + .ra: .cfa -8 + ^
STACK CFI 3a019 $r12: .cfa -16 + ^ .cfa: $rsp 16 +
STACK CFI 3a01d $rbp: .cfa -24 + ^ .cfa: $rsp 24 +
STACK CFI 3a020 $rbx: .cfa -32 + ^ .cfa: $rsp 32 +
STACK CFI 3a055 .cfa: $rsp 24 +
STACK CFI 3a056 .cfa: $rsp 16 +
STACK CFI 3a058 .cfa: $rsp 8 +
STACK CFI INIT 3c660 cf0 .cfa: $rsp 8 + .ra: .cfa -8 + ^
STACK CFI 3c661 $rbp: .cfa -16 + ^ .cfa: $rsp 16 +
STACK CFI 3c664 .cfa: $rbp 16 +
STACK CFI 3c66c $r12: .cfa -48 + ^ $r13: .cfa -40 + ^ $r14: .cfa -32 + ^ $r15: .cfa -24 + ^
STACK CFI 3c677 $rbx: .cfa -56 + ^
STACK CFI 3c6c5 .cfa: $rsp 8 +
STACK CFI 3c6c6 .cfa: $rbp 16 +
STACK CFI INIT 3a060 fd .cfa: $rsp 8 + .ra: .cfa -8 + ^
STACK CFI 3a062 $r12: .cfa -16 + ^ .cfa: $rsp 16 +
STACK CFI 3a063 $rbp: .cfa -24 + ^ .cfa: $rsp 24 +
STACK CFI 3a064 $rbx: .cfa -32 + ^ .cfa: $rsp 32 +
STACK CFI 3a06b .cfa: $rsp 288 +
STACK CFI 3a153 .cfa: $rsp 32 +
STACK CFI 3a154 .cfa: $rsp 24 +
STACK CFI 3a155 .cfa: $rsp 16 +
STACK CFI 3a157 .cfa: $rsp 8 +
STACK CFI 3a158 .cfa: $rsp 288 +
STACK CFI INIT 3a160 fd .cfa: $rsp 8 + .ra: .cfa -8 + ^
STACK CFI 3a162 $r12: .cfa -16 + ^ .cfa: $rsp 16 +
STACK CFI 3a163 $rbp: .cfa -24 + ^ .cfa: $rsp 24 +
STACK CFI 3a164 $rbx: .cfa -32 + ^ .cfa: $rsp 32 +
STACK CFI 3a16b .cfa: $rsp 256 +
STACK CFI 3a253 .cfa: $rsp 32 +
STACK CFI 3a254 .cfa: $rsp 24 +
STACK CFI 3a255 .cfa: $rsp 16 +
STACK CFI 3a257 .cfa: $rsp 8 +
STACK CFI 3a258 .cfa: $rsp 256 +
STACK CFI INIT 3d350 cf0 .cfa: $rsp 8 + .ra: .cfa -8 + ^
STACK CFI 3d351 $rbp: .cfa -16 + ^ .cfa: $rsp 16 +
STACK CFI 3d354 .cfa: $rbp 16 +
STACK CFI 3d35c $r12: .cfa -48 + ^ $r13: .cfa -40 + ^ $r14: .cfa -32 + ^ $r15: .cfa -24 + ^
STACK CFI 3d367 $rbx: .cfa -56 + ^
STACK CFI 3d3b5 .cfa: $rsp 8 +
STACK CFI 3d3b6 .cfa: $rbp 16 +
STACK CFI INIT 3e040 cc0 .cfa: $rsp 8 + .ra: .cfa -8 + ^
STACK CFI 3e041 $rbp: .cfa -16 + ^ .cfa: $rsp 16 +
STACK CFI 3e044 .cfa: $rbp 16 +
STACK CFI 3e04d $r12: .cfa -48 + ^ $r13: .cfa -40 + ^ $r14: .cfa -32 + ^ $r15: .cfa -24 + ^ $rbx: .cfa -56 + ^
STACK CFI 3e0a5 .cfa: $rsp 8 +
STACK CFI 3e0a6 .cfa: $rbp 16 +
STACK CFI INIT 3ed00 cc0 .cfa: $rsp 8 + .ra: .cfa -8 + ^
STACK CFI 3ed01 $rbp: .cfa -16 + ^ .cfa: $rsp 16 +
STACK CFI 3ed04 .cfa: $rbp 16 +
STACK CFI 3ed0d $r12: .cfa -48 + ^ $r13: .cfa -40 + ^ $r14: .cfa -32 + ^ $r15: .cfa -24 + ^ $rbx: .cfa -56 + ^
STACK CFI 3ed65 .cfa: $rsp 8 +
STACK CFI 3ed66 .cfa: $rbp 16 +
STACK CFI INIT 3f9c0 cc0 .cfa: $rsp 8 + .ra: .cfa -8 + ^
STACK CFI 3f9c1 $rbp: .cfa -16 + ^ .cfa: $rsp 16 +
STACK CFI 3f9c4 .cfa: $rbp 16 +
STACK CFI 3f9cd $r12: .cfa -48 + ^ $r13: .cfa -40 + ^ $r14: .cfa -32 + ^ $r15: .cfa -24 + ^ $rbx: .cfa -56 + ^
STACK CFI 3fa25 .cfa: $rsp 8 +
STACK CFI 3fa26 .cfa: $rbp 16 +
STACK CFI INIT 40680 c4a .cfa: $rsp 8 + .ra: .cfa -8 + ^
STACK CFI 40681 $rbp: .cfa -16 + ^ .cfa: $rsp 16 +
STACK CFI 40684 .cfa: $rbp 16 +
STACK CFI 4068c $r12: .cfa -48 + ^ $r13: .cfa -40 + ^ $r14: .cfa -32 + ^ $r15: .cfa -24 + ^
STACK CFI 40697 $rbx: .cfa -56 + ^
STACK CFI 40c11 .cfa: $rsp 8 +
STACK CFI 40c18 .cfa: $rbp 16 +
STACK CFI INIT 3a260 c5 .cfa: $rsp 8 + .ra: .cfa -8 + ^
STACK CFI 3a261 $rbp: .cfa -16 + ^ .cfa: $rsp 16 +
STACK CFI 3a262 $rbx: .cfa -24 + ^ .cfa: $rsp 24 +
STACK CFI 3a269 .cfa: $rsp 96 +
STACK CFI 3a2d0 .cfa: $rsp 24 +
STACK CFI 3a2d1 .cfa: $rsp 16 +
STACK CFI 3a2d2 .cfa: $rsp 8 +
STACK CFI 3a2d3 .cfa: $rsp 96 +
STACK CFI INIT 412d0 fb .cfa: $rsp 8 + .ra: .cfa -8 + ^
STACK CFI 412d2 $r14: .cfa -16 + ^ .cfa: $rsp 16 +
STACK CFI 412d4 $r13: .cfa -24 + ^ .cfa: $rsp 24 +
STACK CFI 412d6 $r12: .cfa -32 + ^ .cfa: $rsp 32 +
STACK CFI 412d7 $rbp: .cfa -40 + ^ .cfa: $rsp 40 +
STACK CFI 412d8 $rbx: .cfa -48 + ^ .cfa: $rsp 48 +
STACK CFI 412dc .cfa: $rsp 128 +
STACK CFI 4130d .cfa: $rsp 48 +
STACK CFI 4130e .cfa: $rsp 40 +
STACK CFI 4130f .cfa: $rsp 32 +
STACK CFI 41311 .cfa: $rsp 24 +
STACK CFI 41313 .cfa: $rsp 16 +
STACK CFI 41315 .cfa: $rsp 8 +
STACK CFI 41320 .cfa: $rsp 128 +
STACK CFI INIT 413d0 4f .cfa: $rsp 8 + .ra: .cfa -8 + ^
STACK CFI 413d1 $rbp: .cfa -16 + ^ .cfa: $rsp 16 +
STACK CFI 413d2 $rbx: .cfa -24 + ^ .cfa: $rsp 24 +
STACK CFI 413d9 .cfa: $rsp 80 +
STACK CFI INIT 3a330 1b6 .cfa: $rsp 8 + .ra: .cfa -8 + ^
STACK CFI 3a332 $r14: .cfa -16 + ^ .cfa: $rsp 16 +
STACK CFI 3a334 $r13: .cfa -24 + ^ .cfa: $rsp 24 +
STACK CFI 3a336 $r12: .cfa -32 + ^ .cfa: $rsp 32 +
STACK CFI 3a337 $rbp: .cfa -40 + ^ .cfa: $rsp 40 +
STACK CFI 3a338 $rbx: .cfa -48 + ^ .cfa: $rsp 48 +
STACK CFI 3a33c .cfa: $rsp 64 +
STACK CFI 3a3a8 .cfa: $rsp 48 +
STACK CFI 3a3a9 .cfa: $rsp 40 +
STACK CFI 3a3aa .cfa: $rsp 32 +
STACK CFI 3a3ac .cfa: $rsp 24 +
STACK CFI 3a3ae .cfa: $rsp 16 +
STACK CFI 3a3b0 .cfa: $rsp 8 +
STACK CFI 3a3b8 .cfa: $rsp 64 +
STACK CFI 3a44d .cfa: $rsp 48 +
STACK CFI 3a44e .cfa: $rsp 40 +
STACK CFI 3a44f .cfa: $rsp 32 +
STACK CFI 3a451 .cfa: $rsp 24 +
STACK CFI 3a453 .cfa: $rsp 16 +
STACK CFI 3a455 .cfa: $rsp 8 +
STACK CFI 3a460 .cfa: $rsp 64 +
STACK CFI 3a468 .cfa: $rsp 48 +
STACK CFI 3a469 .cfa: $rsp 40 +
STACK CFI 3a46a .cfa: $rsp 32 +
STACK CFI 3a46c .cfa: $rsp 24 +
STACK CFI 3a46e .cfa: $rsp 16 +
STACK CFI 3a470 .cfa: $rsp 8 +
STACK CFI 3a478 .cfa: $rsp 64 +
STACK CFI INIT 3a4f0 a .cfa: $rsp 8 + .ra: .cfa -8 + ^
STACK CFI INIT 3a500 2 .cfa: $rsp 8 + .ra: .cfa -8 + ^
STACK CFI INIT 3a510 3f .cfa: $rsp 8 + .ra: .cfa -8 + ^
STACK CFI 3a519 $r12: .cfa -16 + ^ .cfa: $rsp 16 +
STACK CFI 3a51a $rbp: .cfa -24 + ^ .cfa: $rsp 24 +
STACK CFI 3a51e $rbx: .cfa -32 + ^ .cfa: $rsp 32 +
STACK CFI 3a54a $rbx: $rbx .cfa: $rsp 24 +
STACK CFI 3a54b $rbp: $rbp .cfa: $rsp 16 +
STACK CFI 3a54d $r12: $r12 .cfa: $rsp 8 +
STACK CFI INIT 3a550 cd .cfa: $rsp 8 + .ra: .cfa -8 + ^
STACK CFI 3a552 $r13: .cfa -16 + ^ .cfa: $rsp 16 +
STACK CFI 3a554 $r12: .cfa -24 + ^ .cfa: $rsp 24 +
STACK CFI 3a558 $rbp: .cfa -32 + ^ .cfa: $rsp 32 +
STACK CFI 3a559 $rbx: .cfa -40 + ^ .cfa: $rsp 40 +
STACK CFI 3a560 .cfa: $rsp 1088 +
STACK CFI 3a611 .cfa: $rsp 40 +
STACK CFI 3a612 .cfa: $rsp 32 +
STACK CFI 3a613 .cfa: $rsp 24 +
STACK CFI 3a615 .cfa: $rsp 16 +
STACK CFI 3a617 .cfa: $rsp 8 +
STACK CFI 3a618 .cfa: $rsp 1088 +
STACK CFI INIT 3a620 cd .cfa: $rsp 8 + .ra: .cfa -8 + ^
STACK CFI 3a622 $r13: .cfa -16 + ^ .cfa: $rsp 16 +
STACK CFI 3a624 $r12: .cfa -24 + ^ .cfa: $rsp 24 +
STACK CFI 3a628 $rbp: .cfa -32 + ^ .cfa: $rsp 32 +
STACK CFI 3a629 $rbx: .cfa -40 + ^ .cfa: $rsp 40 +
STACK CFI 3a630 .cfa: $rsp 8256 +
STACK CFI 3a6e1 .cfa: $rsp 40 +
STACK CFI 3a6e2 .cfa: $rsp 32 +
STACK CFI 3a6e3 .cfa: $rsp 24 +
STACK CFI 3a6e5 .cfa: $rsp 16 +
STACK CFI 3a6e7 .cfa: $rsp 8 +
STACK CFI 3a6e8 .cfa: $rsp 8256 +
STACK CFI INIT 3a6f0 a .cfa: $rsp 8 + .ra: .cfa -8 + ^
STACK CFI INIT 3a700 a .cfa: $rsp 8 + .ra: .cfa -8 + ^
STACK CFI INIT 3a710 e .cfa: $rsp 8 + .ra: .cfa -8 + ^
STACK CFI INIT 3a720 3c .cfa: $rsp 8 + .ra: .cfa -8 + ^
STACK CFI 3a726 $r12: .cfa -16 + ^ .cfa: $rsp 16 +
STACK CFI 3a727 $rbp: .cfa -24 + ^ .cfa: $rsp 24 +
STACK CFI 3a72b $rbx: .cfa -32 + ^ .cfa: $rsp 32 +
STACK CFI 3a748 $rbx: $rbx .cfa: $rsp 24 +
STACK CFI 3a749 $rbp: $rbp .cfa: $rsp 16 +
STACK CFI 3a74b $r12: $r12 .cfa: $rsp 8 +
STACK CFI INIT 3a760 4c .cfa: $rsp 8 + .ra: .cfa -8 + ^
STACK CFI 3a766 $rbp: .cfa -16 + ^ .cfa: $rsp 16 +
STACK CFI 3a767 $rbx: .cfa -24 + ^ .cfa: $rsp 24 +
STACK CFI 3a77c .cfa: $rsp 32 +
STACK CFI 3a785 .cfa: $rsp 24 +
STACK CFI 3a78b $rbx: $rbx .cfa: $rsp 16 +
STACK CFI 3a78c $rbp: $rbp .cfa: $rsp 8 +
STACK CFI INIT 3a7b0 1c7 .cfa: $rsp 8 + .ra: .cfa -8 + ^
STACK CFI 3a7b2 $r12: .cfa -16 + ^ .cfa: $rsp 16 +
STACK CFI 3a7b3 $rbp: .cfa -24 + ^ .cfa: $rsp 24 +
STACK CFI 3a7b7 $rbx: .cfa -32 + ^ .cfa: $rsp 32 +
STACK CFI 3a848 .cfa: $rsp 24 +
STACK CFI 3a853 .cfa: $rsp 16 +
STACK CFI 3a855 .cfa: $rsp 8 +
STACK CFI 3a860 .cfa: $rsp 32 +
STACK CFI 3a96a .cfa: $rsp 24 +
STACK CFI 3a96b .cfa: $rsp 16 +
STACK CFI 3a96d .cfa: $rsp 8 +
STACK CFI INIT 3a980 1d9 .cfa: $rsp 8 + .ra: .cfa -8 + ^
STACK CFI 3a982 $r15: .cfa -16 + ^ .cfa: $rsp 16 +
STACK CFI 3a984 $r14: .cfa -24 + ^ .cfa: $rsp 24 +
STACK CFI 3a986 $r13: .cfa -32 + ^ .cfa: $rsp 32 +
STACK CFI 3a988 $r12: .cfa -40 + ^ .cfa: $rsp 40 +
STACK CFI 3a989 $rbp: .cfa -48 + ^ .cfa: $rsp 48 +
STACK CFI 3a98a $rbx: .cfa -56 + ^ .cfa: $rsp 56 +
STACK CFI 3a991 .cfa: $rsp 96 +
STACK CFI 3aa1a .cfa: $rsp 56 +
STACK CFI 3aa1b .cfa: $rsp 48 +
STACK CFI 3aa1c .cfa: $rsp 40 +
STACK CFI 3aa1e .cfa: $rsp 32 +
STACK CFI 3aa20 .cfa: $rsp 24 +
STACK CFI 3aa22 .cfa: $rsp 16 +
STACK CFI 3aa24 .cfa: $rsp 8 +
STACK CFI 3aa28 .cfa: $rsp 96 +
STACK CFI INIT 3ab60 21 .cfa: $rsp 8 + .ra: .cfa -8 + ^
STACK CFI 3ab61 $rbx: .cfa -16 + ^ .cfa: $rsp 16 +
STACK CFI 3ab7d .cfa: $rsp 8 +
STACK CFI INIT 3ab90 21 .cfa: $rsp 8 + .ra: .cfa -8 + ^
STACK CFI 3ab91 $rbx: .cfa -16 + ^ .cfa: $rsp 16 +
STACK CFI 3abad .cfa: $rsp 8 +
STACK CFI INIT 3abc0 6e .cfa: $rsp 8 + .ra: .cfa -8 + ^
STACK CFI 3abc2 $r13: .cfa -16 + ^ .cfa: $rsp 16 +
STACK CFI 3abc4 $r12: .cfa -24 + ^ .cfa: $rsp 24 +
STACK CFI 3abcc $rbp: .cfa -32 + ^ .cfa: $rsp 32 +
STACK CFI 3abcd $rbx: .cfa -40 + ^ .cfa: $rsp 40 +
STACK CFI 3abd6 .cfa: $rsp 48 +
STACK CFI 3ac02 .cfa: $rsp 40 +
STACK CFI 3ac0a .cfa: $rsp 32 +
STACK CFI 3ac0b .cfa: $rsp 24 +
STACK CFI 3ac0d .cfa: $rsp 16 +
STACK CFI 3ac0f .cfa: $rsp 8 +
STACK CFI 3ac10 .cfa: $rsp 48 +
STACK CFI INIT 3ac30 6e .cfa: $rsp 8 + .ra: .cfa -8 + ^
STACK CFI 3ac32 $r13: .cfa -16 + ^ .cfa: $rsp 16 +
STACK CFI 3ac34 $r12: .cfa -24 + ^ .cfa: $rsp 24 +
STACK CFI 3ac3c $rbp: .cfa -32 + ^ .cfa: $rsp 32 +
STACK CFI 3ac3d $rbx: .cfa -40 + ^ .cfa: $rsp 40 +
STACK CFI 3ac46 .cfa: $rsp 48 +
STACK CFI 3ac72 .cfa: $rsp 40 +
STACK CFI 3ac7a .cfa: $rsp 32 +
STACK CFI 3ac7b .cfa: $rsp 24 +
STACK CFI 3ac7d .cfa: $rsp 16 +
STACK CFI 3ac7f .cfa: $rsp 8 +
STACK CFI 3ac80 .cfa: $rsp 48 +
STACK CFI INIT 3aca0 7f .cfa: $rsp 8 + .ra: .cfa -8 + ^
STACK CFI 3aca2 $r13: .cfa -16 + ^ .cfa: $rsp 16 +
STACK CFI 3aca4 $r12: .cfa -24 + ^ .cfa: $rsp 24 +
STACK CFI 3acac $rbp: .cfa -32 + ^ .cfa: $rsp 32 +
STACK CFI 3acad $rbx: .cfa -40 + ^ .cfa: $rsp 40 +
STACK CFI 3acb6 .cfa: $rsp 48 +
STACK CFI 3ace5 .cfa: $rsp 40 +
STACK CFI 3aced .cfa: $rsp 32 +
STACK CFI 3acee .cfa: $rsp 24 +
STACK CFI 3acf0 .cfa: $rsp 16 +
STACK CFI 3acf2 .cfa: $rsp 8 +
STACK CFI 3acf8 .cfa: $rsp 48 +
STACK CFI INIT 3ad20 57 .cfa: $rsp 8 + .ra: .cfa -8 + ^
STACK CFI 3ad29 $r13: .cfa -16 + ^ .cfa: $rsp 16 +
STACK CFI 3ad2b $r12: .cfa -24 + ^ .cfa: $rsp 24 +
STACK CFI 3ad2c $rbp: .cfa -32 + ^ .cfa: $rsp 32 +
STACK CFI 3ad2d $rbx: .cfa -40 + ^ .cfa: $rsp 40 +
STACK CFI 3ad42 .cfa: $rsp 48 +
STACK CFI 3ad6f .cfa: $rsp 40 +
STACK CFI 3ad70 $rbx: $rbx .cfa: $rsp 32 +
STACK CFI 3ad71 $rbp: $rbp .cfa: $rsp 24 +
STACK CFI 3ad73 $r12: $r12 .cfa: $rsp 16 +
STACK CFI 3ad75 $r13: $r13 .cfa: $rsp 8 +
STACK CFI INIT 3ad80 1f .cfa: $rsp 8 + .ra: .cfa -8 + ^
STACK CFI 3ad81 $rbx: .cfa -16 + ^ .cfa: $rsp 16 +
STACK CFI 3ad9b .cfa: $rsp 8 +
STACK CFI INIT 3ada0 37 .cfa: $rsp 8 + .ra: .cfa -8 + ^
STACK CFI 3ada1 $rbx: .cfa -16 + ^ .cfa: $rsp 16 +
STACK CFI 3adbf .cfa: $rsp 8 +
STACK CFI 3adc0 .cfa: $rsp 16 +
STACK CFI 3adc6 .cfa: $rsp 8 +
STACK CFI INIT 3ade0 1e .cfa: $rsp 8 + .ra: .cfa -8 + ^
STACK CFI 3ade1 $rbx: .cfa -16 + ^ .cfa: $rsp 16 +
STACK CFI 3adfa .cfa: $rsp 8 +
STACK CFI INIT 3ae00 32 .cfa: $rsp 8 + .ra: .cfa -8 + ^
STACK CFI 3ae01 $rbx: .cfa -16 + ^ .cfa: $rsp 16 +
STACK CFI 3ae0d .cfa: $rsp 32 +
STACK CFI 3ae30 .cfa: $rsp 16 +
STACK CFI 3ae31 .cfa: $rsp 8 +
STACK CFI INIT 3ae40 37 .cfa: $rsp 8 + .ra: .cfa -8 + ^
STACK CFI 3ae42 $r12: .cfa -16 + ^ .cfa: $rsp 16 +
STACK CFI 3ae43 $rbp: .cfa -24 + ^ .cfa: $rsp 24 +
STACK CFI 3ae46 $rbx: .cfa -32 + ^ .cfa: $rsp 32 +
STACK CFI 3ae5d .cfa: $rsp 24 +
STACK CFI 3ae5e .cfa: $rsp 16 +
STACK CFI 3ae60 .cfa: $rsp 8 +
STACK CFI 3ae68 .cfa: $rsp 32 +
STACK CFI 3ae6f .cfa: $rsp 24 +
STACK CFI 3ae70 .cfa: $rsp 16 +
STACK CFI 3ae72 .cfa: $rsp 8 +
STACK CFI INIT 3ae80 3f .cfa: $rsp 8 + .ra: .cfa -8 + ^
STACK CFI 3ae81 $rbx: .cfa -16 + ^ .cfa: $rsp 16 +
STACK CFI 3ae8d .cfa: $rsp 32 +
STACK CFI 3aebd .cfa: $rsp 16 +
STACK CFI 3aebe .cfa: $rsp 8 +
STACK CFI INIT 3aec0 1f4 .cfa: $rsp 8 + .ra: .cfa -8 + ^
STACK CFI 3aec2 $r13: .cfa -16 + ^ .cfa: $rsp 16 +
STACK CFI 3aec4 $r12: .cfa -24 + ^ .cfa: $rsp 24 +
STACK CFI 3aec8 $rbp: .cfa -32 + ^ .cfa: $rsp 32 +
STACK CFI 3aec9 $rbx: .cfa -40 + ^ .cfa: $rsp 40 +
STACK CFI 3aed8 .cfa: $rsp 48 +
STACK CFI 3b00c .cfa: $rsp 40 +
STACK CFI 3b00d .cfa: $rsp 32 +
STACK CFI 3b00e .cfa: $rsp 24 +
STACK CFI 3b010 .cfa: $rsp 16 +
STACK CFI 3b012 .cfa: $rsp 8 +
STACK CFI 3b018 .cfa: $rsp 48 +
STACK CFI 3b060 .cfa: $rsp 40 +
STACK CFI 3b061 .cfa: $rsp 32 +
STACK CFI 3b062 .cfa: $rsp 24 +
STACK CFI 3b064 .cfa: $rsp 16 +
STACK CFI 3b066 .cfa: $rsp 8 +
STACK CFI 3b070 .cfa: $rsp 48 +
STACK CFI INIT 3b0c0 312 .cfa: $rsp 8 + .ra: .cfa -8 + ^
STACK CFI 3b0c2 $r15: .cfa -16 + ^ .cfa: $rsp 16 +
STACK CFI 3b0c4 $r14: .cfa -24 + ^ .cfa: $rsp 24 +
STACK CFI 3b0c6 $r13: .cfa -32 + ^ .cfa: $rsp 32 +
STACK CFI 3b0c8 $r12: .cfa -40 + ^ .cfa: $rsp 40 +
STACK CFI 3b0cc $rbp: .cfa -48 + ^ .cfa: $rsp 48 +
STACK CFI 3b0cd $rbx: .cfa -56 + ^ .cfa: $rsp 56 +
STACK CFI 3b0d4 .cfa: $rsp 128 +
STACK CFI 3b15f .cfa: $rsp 56 +
STACK CFI 3b160 .cfa: $rsp 48 +
STACK CFI 3b161 .cfa: $rsp 40 +
STACK CFI 3b163 .cfa: $rsp 32 +
STACK CFI 3b165 .cfa: $rsp 24 +
STACK CFI 3b167 .cfa: $rsp 16 +
STACK CFI 3b169 .cfa: $rsp 8 +
STACK CFI 3b16a .cfa: $rsp 128 +
STACK CFI INIT 3b3e0 593 .cfa: $rsp 8 + .ra: .cfa -8 + ^
STACK CFI 3b3e2 $r15: .cfa -16 + ^ .cfa: $rsp 16 +
STACK CFI 3b3e4 $r14: .cfa -24 + ^ .cfa: $rsp 24 +
STACK CFI 3b3e6 $r13: .cfa -32 + ^ .cfa: $rsp 32 +
STACK CFI 3b3e8 $r12: .cfa -40 + ^ .cfa: $rsp 40 +
STACK CFI 3b3ec $rbp: .cfa -48 + ^ .cfa: $rsp 48 +
STACK CFI 3b3ed $rbx: .cfa -56 + ^ .cfa: $rsp 56 +
STACK CFI 3b3fa .cfa: $rsp 576 +
STACK CFI 3b67b .cfa: $rsp 56 +
STACK CFI 3b67c .cfa: $rsp 48 +
STACK CFI 3b67d .cfa: $rsp 40 +
STACK CFI 3b67f .cfa: $rsp 32 +
STACK CFI 3b681 .cfa: $rsp 24 +
STACK CFI 3b683 .cfa: $rsp 16 +
STACK CFI 3b685 .cfa: $rsp 8 +
STACK CFI 3b690 .cfa: $rsp 576 +
STACK CFI INIT 3b980 487 .cfa: $rsp 8 + .ra: .cfa -8 + ^
STACK CFI 3b982 $r15: .cfa -16 + ^ .cfa: $rsp 16 +
STACK CFI 3b984 $r14: .cfa -24 + ^ .cfa: $rsp 24 +
STACK CFI 3b986 $r13: .cfa -32 + ^ .cfa: $rsp 32 +
STACK CFI 3b988 $r12: .cfa -40 + ^ .cfa: $rsp 40 +
STACK CFI 3b989 $rbp: .cfa -48 + ^ .cfa: $rsp 48 +
STACK CFI 3b98a $rbx: .cfa -56 + ^ .cfa: $rsp 56 +
STACK CFI 3b991 .cfa: $rsp 128 +
STACK CFI 3ba4e .cfa: $rsp 56 +
STACK CFI 3ba4f .cfa: $rsp 48 +
STACK CFI 3ba50 .cfa: $rsp 40 +
STACK CFI 3ba52 .cfa: $rsp 32 +
STACK CFI 3ba54 .cfa: $rsp 24 +
STACK CFI 3ba56 .cfa: $rsp 16 +
STACK CFI 3ba58 .cfa: $rsp 8 +
STACK CFI 3ba60 .cfa: $rsp 128 +
STACK CFI INIT 3be10 4a9 .cfa: $rsp 8 + .ra: .cfa -8 + ^
STACK CFI 3be12 $r15: .cfa -16 + ^ .cfa: $rsp 16 +
STACK CFI 3be14 $r14: .cfa -24 + ^ .cfa: $rsp 24 +
STACK CFI 3be19 $r13: .cfa -32 + ^ .cfa: $rsp 32 +
STACK CFI 3be1b $r12: .cfa -40 + ^ .cfa: $rsp 40 +
STACK CFI 3be1f $rbp: .cfa -48 + ^ .cfa: $rsp 48 +
STACK CFI 3be20 $rbx: .cfa -56 + ^ .cfa: $rsp 56 +
STACK CFI 3be2a .cfa: $rsp 544 +
STACK CFI 3c1e8 .cfa: $rsp 56 +
STACK CFI 3c1e9 .cfa: $rsp 48 +
STACK CFI 3c1ea .cfa: $rsp 40 +
STACK CFI 3c1ec .cfa: $rsp 32 +
STACK CFI 3c1ee .cfa: $rsp 24 +
STACK CFI 3c1f0 .cfa: $rsp 16 +
STACK CFI 3c1f2 .cfa: $rsp 8 +
STACK CFI 3c1f3 .cfa: $rsp 544 +
STACK CFI INIT 41420 3ac .cfa: $rsp 8 + .ra: .cfa -8 + ^
STACK CFI 41422 $r15: .cfa -16 + ^ .cfa: $rsp 16 +
STACK CFI 41424 $r14: .cfa -24 + ^ .cfa: $rsp 24 +
STACK CFI 41429 $r13: .cfa -32 + ^ .cfa: $rsp 32 +
STACK CFI 4142b $r12: .cfa -40 + ^ .cfa: $rsp 40 +
STACK CFI 4142f $rbp: .cfa -48 + ^ .cfa: $rsp 48 +
STACK CFI 41430 $rbx: .cfa -56 + ^ .cfa: $rsp 56 +
STACK CFI 41439 .cfa: $rsp 544 +
STACK CFI 416e9 .cfa: $rsp 56 +
STACK CFI 416ea .cfa: $rsp 48 +
STACK CFI 416eb .cfa: $rsp 40 +
STACK CFI 416ed .cfa: $rsp 32 +
STACK CFI 416ef .cfa: $rsp 24 +
STACK CFI 416f1 .cfa: $rsp 16 +
STACK CFI 416f3 .cfa: $rsp 8 +
STACK CFI 416f8 .cfa: $rsp 544 +
STACK CFI INIT 417d0 6f .cfa: $rsp 8 + .ra: .cfa -8 + ^
STACK CFI 417d4 .cfa: $rsp 32 +
STACK CFI 4180c .cfa: $rsp 8 +
STACK CFI 41810 .cfa: $rsp 32 +
STACK CFI INIT 19060 2e .cfa: $rsp 8 + .ra: .cfa -8 + ^
STACK CFI 1906b .cfa: $rsp 16 +
STACK CFI 19089 .cfa: $rsp 8 +
STACK CFI INIT 41840 c2 .cfa: $rsp 8 + .ra: .cfa -8 + ^
STACK CFI 41842 $r12: .cfa -16 + ^ .cfa: $rsp 16 +
STACK CFI 41843 $rbp: .cfa -24 + ^ .cfa: $rsp 24 +
STACK CFI 41847 $rbx: .cfa -32 + ^ .cfa: $rsp 32 +
STACK CFI 4184e .cfa: $rsp 48 +
STACK CFI 418ba .cfa: $rsp 32 +
STACK CFI 418bb .cfa: $rsp 24 +
STACK CFI 418bc .cfa: $rsp 16 +
STACK CFI 418be .cfa: $rsp 8 +
STACK CFI 418c0 .cfa: $rsp 48 +
STACK CFI INIT 41910 6f .cfa: $rsp 8 + .ra: .cfa -8 + ^
STACK CFI 41911 $rbx: .cfa -16 + ^ .cfa: $rsp 16 +
STACK CFI 41977 .cfa: $rsp 8 +
STACK CFI INIT 41980 5f .cfa: $rsp 8 + .ra: .cfa -8 + ^
STACK CFI 41982 $r12: .cfa -16 + ^ .cfa: $rsp 16 +
STACK CFI 41983 $rbp: .cfa -24 + ^ .cfa: $rsp 24 +
STACK CFI 41987 $rbx: .cfa -32 + ^ .cfa: $rsp 32 +
STACK CFI 419db .cfa: $rsp 24 +
STACK CFI 419dc .cfa: $rsp 16 +
STACK CFI 419de .cfa: $rsp 8 +
STACK CFI INIT 419e0 c0 .cfa: $rsp 8 + .ra: .cfa -8 + ^
STACK CFI 419e5 $r12: .cfa -16 + ^ .cfa: $rsp 16 +
STACK CFI 419e6 $rbp: .cfa -24 + ^ .cfa: $rsp 24 +
STACK CFI 419ee $rbx: .cfa -32 + ^ .cfa: $rsp 32 +
STACK CFI 41a9c .cfa: $rsp 24 +
STACK CFI 41a9d .cfa: $rsp 16 +
STACK CFI 41a9f .cfa: $rsp 8 +
STACK CFI INIT 41aa0 52 .cfa: $rsp 8 + .ra: .cfa -8 + ^
STACK CFI 41aab $rbx: .cfa -16 + ^ .cfa: $rsp 16 +
STACK CFI 41af1 .cfa: $rsp 8 +
STACK CFI INIT 41b00 1eb .cfa: $rsp 8 + .ra: .cfa -8 + ^
STACK CFI 41b02 $r13: .cfa -16 + ^ .cfa: $rsp 16 +
STACK CFI 41b04 $r12: .cfa -24 + ^ .cfa: $rsp 24 +
STACK CFI 41b08 $rbp: .cfa -32 + ^ .cfa: $rsp 32 +
STACK CFI 41b09 $rbx: .cfa -40 + ^ .cfa: $rsp 40 +
STACK CFI 41b20 .cfa: $rsp 1088 +
STACK CFI 41c57 .cfa: $rsp 40 +
STACK CFI 41c58 .cfa: $rsp 32 +
STACK CFI 41c59 .cfa: $rsp 24 +
STACK CFI 41c5b .cfa: $rsp 16 +
STACK CFI 41c5d .cfa: $rsp 8 +
STACK CFI 41c60 .cfa: $rsp 1088 +
STACK CFI INIT 42840 d6b .cfa: $rsp 8 + .ra: .cfa -8 + ^
STACK CFI 42841 $rbp: .cfa -16 + ^ .cfa: $rsp 16 +
STACK CFI 42844 .cfa: $rbp 16 +
STACK CFI 42854 $r12: .cfa -48 + ^ $r13: .cfa -40 + ^ $r14: .cfa -32 + ^ $r15: .cfa -24 + ^ $rbx: .cfa -56 + ^
STACK CFI 428bf .cfa: $rsp 8 +
STACK CFI 428c0 .cfa: $rbp 16 +
STACK CFI INIT 435b0 d56 .cfa: $rsp 8 + .ra: .cfa -8 + ^
STACK CFI 435b1 $rbp: .cfa -16 + ^ .cfa: $rsp 16 +
STACK CFI 435b4 .cfa: $rbp 16 +
STACK CFI 435c4 $r12: .cfa -48 + ^ $r13: .cfa -40 + ^ $r14: .cfa -32 + ^ $r15: .cfa -24 + ^ $rbx: .cfa -56 + ^
STACK CFI 4361d .cfa: $rsp 8 +
STACK CFI 4361e .cfa: $rbp 16 +
STACK CFI INIT 44310 d10 .cfa: $rsp 8 + .ra: .cfa -8 + ^
STACK CFI 44311 $rbp: .cfa -16 + ^ .cfa: $rsp 16 +
STACK CFI 44314 .cfa: $rbp 16 +
STACK CFI 4431c $r12: .cfa -48 + ^ $r13: .cfa -40 + ^ $r14: .cfa -32 + ^ $r15: .cfa -24 + ^
STACK CFI 44327 $rbx: .cfa -56 + ^
STACK CFI 44375 .cfa: $rsp 8 +
STACK CFI 44376 .cfa: $rbp 16 +
STACK CFI INIT 45020 cf0 .cfa: $rsp 8 + .ra: .cfa -8 + ^
STACK CFI 45021 $rbp: .cfa -16 + ^ .cfa: $rsp 16 +
STACK CFI 45024 .cfa: $rbp 16 +
STACK CFI 4502c $r12: .cfa -48 + ^ $r13: .cfa -40 + ^ $r14: .cfa -32 + ^ $r15: .cfa -24 + ^
STACK CFI 45037 $rbx: .cfa -56 + ^
STACK CFI 45085 .cfa: $rsp 8 +
STACK CFI 45086 .cfa: $rbp 16 +
STACK CFI INIT 41cf0 50c .cfa: $rsp 8 + .ra: .cfa -8 + ^
STACK CFI 41cf2 $r14: .cfa -16 + ^ .cfa: $rsp 16 +
STACK CFI 41cf4 $r13: .cfa -24 + ^ .cfa: $rsp 24 +
STACK CFI 41cf6 $r12: .cfa -32 + ^ .cfa: $rsp 32 +
STACK CFI 41cf7 $rbp: .cfa -40 + ^ .cfa: $rsp 40 +
STACK CFI 41cfb $rbx: .cfa -48 + ^ .cfa: $rsp 48 +
STACK CFI 41d05 .cfa: $rsp 80 +
STACK CFI 41d97 .cfa: $rsp 128 +
STACK CFI 41dcb .cfa: $rsp 80 +
STACK CFI 41e39 .cfa: $rsp 128 +
STACK CFI 41e6d .cfa: $rsp 80 +
STACK CFI 41ebe .cfa: $rsp 48 +
STACK CFI 41ebf .cfa: $rsp 40 +
STACK CFI 41ec0 .cfa: $rsp 32 +
STACK CFI 41ec2 .cfa: $rsp 24 +
STACK CFI 41ec4 .cfa: $rsp 16 +
STACK CFI 41ec6 .cfa: $rsp 8 +
STACK CFI 41ed0 .cfa: $rsp 80 +
STACK CFI 41f51 .cfa: $rsp 128 +
STACK CFI 41f85 .cfa: $rsp 80 +
STACK CFI 42011 .cfa: $rsp 88 +
STACK CFI 42017 .cfa: $rsp 96 +
STACK CFI 42023 .cfa: $rsp 88 +
STACK CFI 42025 .cfa: $rsp 80 +
STACK CFI 420be .cfa: $rsp 128 +
STACK CFI 420f2 .cfa: $rsp 80 +
STACK CFI 42148 .cfa: $rsp 128 +
STACK CFI 4217c .cfa: $rsp 80 +
STACK CFI INIT 42200 29d .cfa: $rsp 8 + .ra: .cfa -8 + ^
STACK CFI 42202 $r15: .cfa -16 + ^ .cfa: $rsp 16 +
STACK CFI 42204 $r14: .cfa -24 + ^ .cfa: $rsp 24 +
STACK CFI 42206 $r13: .cfa -32 + ^ .cfa: $rsp 32 +
STACK CFI 42208 $r12: .cfa -40 + ^ .cfa: $rsp 40 +
STACK CFI 4220c $rbp: .cfa -48 + ^ .cfa: $rsp 48 +
STACK CFI 4220d $rbx: .cfa -56 + ^ .cfa: $rsp 56 +
STACK CFI 42213 .cfa: $rsp 128 +
STACK CFI 4226a .cfa: $rsp 176 +
STACK CFI 422b8 .cfa: $rsp 128 +
STACK CFI 422d0 .cfa: $rsp 56 +
STACK CFI 422d1 .cfa: $rsp 48 +
STACK CFI 422d2 .cfa: $rsp 40 +
STACK CFI 422d4 .cfa: $rsp 32 +
STACK CFI 422d6 .cfa: $rsp 24 +
STACK CFI 422d8 .cfa: $rsp 16 +
STACK CFI 422da .cfa: $rsp 8 +
STACK CFI 422e0 .cfa: $rsp 128 +
STACK CFI INIT 424a0 1a8 .cfa: $rsp 8 + .ra: .cfa -8 + ^
STACK CFI 424a1 $rbp: .cfa -16 + ^ .cfa: $rsp 16 +
STACK CFI 424a2 $rbx: .cfa -24 + ^ .cfa: $rsp 24 +
STACK CFI 424b1 .cfa: $rsp 1504 +
STACK CFI 4254c .cfa: $rsp 1552 +
STACK CFI 4258d .cfa: $rsp 1504 +
STACK CFI 425db .cfa: $rsp 24 +
STACK CFI 425dc .cfa: $rsp 16 +
STACK CFI 425dd .cfa: $rsp 8 +
STACK CFI 425e0 .cfa: $rsp 1504 +
STACK CFI 4262f .cfa: $rsp 1512 +
STACK CFI 42637 .cfa: $rsp 1520 +
STACK CFI 4263d .cfa: $rsp 1512 +
STACK CFI 4263e .cfa: $rsp 1504 +
STACK CFI INIT 42650 1e2 .cfa: $rsp 8 + .ra: .cfa -8 + ^
STACK CFI 42652 $r12: .cfa -16 + ^ .cfa: $rsp 16 +
STACK CFI 42653 $rbp: .cfa -24 + ^ .cfa: $rsp 24 +
STACK CFI 42654 $rbx: .cfa -32 + ^ .cfa: $rsp 32 +
STACK CFI 4265b .cfa: $rsp 1552 +
STACK CFI 426e1 .cfa: $rsp 1600 +
STACK CFI 42722 .cfa: $rsp 1552 +
STACK CFI 42747 .cfa: $rsp 32 +
STACK CFI 42748 .cfa: $rsp 24 +
STACK CFI 42749 .cfa: $rsp 16 +
STACK CFI 4274b .cfa: $rsp 8 +
STACK CFI 42750 .cfa: $rsp 1552 +
STACK CFI 4278a .cfa: $rsp 1560 +
STACK CFI 427a8 .cfa: $rsp 1568 +
STACK CFI 427c3 .cfa: $rsp 1560 +
STACK CFI 427c4 .cfa: $rsp 1552 +
STACK CFI INIT 19090 2e .cfa: $rsp 8 + .ra: .cfa -8 + ^
STACK CFI 1909b .cfa: $rsp 16 +
STACK CFI 190b9 .cfa: $rsp 8 +
STACK CFI INIT 48c70 4 .cfa: $rsp 8 + .ra: .cfa -8 + ^
STACK CFI INIT 48c80 4 .cfa: $rsp 8 + .ra: .cfa -8 + ^
STACK CFI INIT 48c90 6c .cfa: $rsp 8 + .ra: .cfa -8 + ^
STACK CFI 48c94 .cfa: $rsp 32 +
STACK CFI 48ceb .cfa: $rsp 8 +
STACK CFI 48cf0 .cfa: $rsp 32 +
STACK CFI INIT 45d10 25 .cfa: $rsp 8 + .ra: .cfa -8 + ^
STACK CFI INIT 45d40 c2 .cfa: $rsp 8 + .ra: .cfa -8 + ^
STACK CFI 45d42 $r12: .cfa -16 + ^ .cfa: $rsp 16 +
STACK CFI 45d43 $rbp: .cfa -24 + ^ .cfa: $rsp 24 +
STACK CFI 45d47 $rbx: .cfa -32 + ^ .cfa: $rsp 32 +
STACK CFI 45d4e .cfa: $rsp 48 +
STACK CFI 45dba .cfa: $rsp 32 +
STACK CFI 45dbb .cfa: $rsp 24 +
STACK CFI 45dbc .cfa: $rsp 16 +
STACK CFI 45dbe .cfa: $rsp 8 +
STACK CFI 45dc0 .cfa: $rsp 48 +
STACK CFI INIT 48d00 8d .cfa: $rsp 8 + .ra: .cfa -8 + ^
STACK CFI 48d01 $rbp: .cfa -16 + ^ .cfa: $rsp 16 +
STACK CFI 48d02 $rbx: .cfa -24 + ^ .cfa: $rsp 24 +
STACK CFI 48d14 .cfa: $rsp 80 +
STACK CFI 48d68 .cfa: $rsp 24 +
STACK CFI 48d69 .cfa: $rsp 16 +
STACK CFI 48d6a .cfa: $rsp 8 +
STACK CFI 48d6b .cfa: $rsp 80 +
STACK CFI INIT 48d90 8d .cfa: $rsp 8 + .ra: .cfa -8 + ^
STACK CFI 48d91 $rbp: .cfa -16 + ^ .cfa: $rsp 16 +
STACK CFI 48d92 $rbx: .cfa -24 + ^ .cfa: $rsp 24 +
STACK CFI 48da4 .cfa: $rsp 80 +
STACK CFI 48df8 .cfa: $rsp 24 +
STACK CFI 48df9 .cfa: $rsp 16 +
STACK CFI 48dfa .cfa: $rsp 8 +
STACK CFI 48dfb .cfa: $rsp 80 +
STACK CFI INIT 48e20 9e .cfa: $rsp 8 + .ra: .cfa -8 + ^
STACK CFI 48e76 $rbp: .cfa -16 + ^ .cfa: $rsp 16 +
STACK CFI 48e77 $rbx: .cfa -24 + ^ .cfa: $rsp 24 +
STACK CFI 48e84 .cfa: $rsp 32 +
STACK CFI 48e8d .cfa: $rsp 24 +
STACK CFI 48e94 $rbx: $rbx .cfa: $rsp 16 +
STACK CFI 48e95 $rbp: $rbp .cfa: $rsp 8 +
STACK CFI INIT 48ec0 174 .cfa: $rsp 8 + .ra: .cfa -8 + ^
STACK CFI 48ec2 $r12: .cfa -16 + ^ .cfa: $rsp 16 +
STACK CFI 48ec3 $rbp: .cfa -24 + ^ .cfa: $rsp 24 +
STACK CFI 48ec7 $rbx: .cfa -32 + ^ .cfa: $rsp 32 +
STACK CFI 48ecb .cfa: $rsp 96 +
STACK CFI 48f3f .cfa: $rsp 32 +
STACK CFI 48f40 .cfa: $rsp 24 +
STACK CFI 48f41 .cfa: $rsp 16 +
STACK CFI 48f43 .cfa: $rsp 8 +
STACK CFI 48f48 .cfa: $rsp 96 +
STACK CFI INIT 45e10 14 .cfa: $rsp 8 + .ra: .cfa -8 + ^
STACK CFI 45e14 .cfa: $rsp 16 +
STACK CFI 45e1f .cfa: $rsp 8 +
STACK CFI INIT 45e30 fa .cfa: $rsp 8 + .ra: .cfa -8 + ^
STACK CFI INIT 45f30 46 .cfa: $rsp 8 + .ra: .cfa -8 + ^
STACK CFI 45f31 $rbp: .cfa -16 + ^ .cfa: $rsp 16 +
STACK CFI 45f32 $rbx: .cfa -24 + ^ .cfa: $rsp 24 +
STACK CFI 45f45 .cfa: $rsp 40 +
STACK CFI 45f4e .cfa: $rsp 48 +
STACK CFI 45f64 .cfa: $rsp 40 +
STACK CFI 45f65 .cfa: $rsp 32 +
STACK CFI 45f73 .cfa: $rsp 24 +
STACK CFI 45f74 .cfa: $rsp 16 +
STACK CFI 45f75 .cfa: $rsp 8 +
STACK CFI INIT 45f80 dc .cfa: $rsp 8 + .ra: .cfa -8 + ^
STACK CFI 45f87 .cfa: $rsp 160 +
STACK CFI 45fdb .cfa: $rsp 8 +
STACK CFI 45fe0 .cfa: $rsp 160 +
STACK CFI INIT 46060 1a7 .cfa: $rsp 8 + .ra: .cfa -8 + ^
STACK CFI 46061 $rbx: .cfa -16 + ^ .cfa: $rsp 16 +
STACK CFI 46097 .cfa: $rsp 8 +
STACK CFI 460a0 .cfa: $rsp 16 +
STACK CFI 460c6 .cfa: $rsp 64 +
STACK CFI 46113 .cfa: $rsp 16 +
STACK CFI 4612e .cfa: $rsp 8 +
STACK CFI 46130 .cfa: $rsp 16 +
STACK CFI 46151 .cfa: $rsp 64 +
STACK CFI 4619e .cfa: $rsp 16 +
STACK CFI 461b9 .cfa: $rsp 8 +
STACK CFI 461c0 .cfa: $rsp 16 +
STACK CFI 461e0 .cfa: $rsp 8 +
STACK CFI 461e8 .cfa: $rsp 16 +
STACK CFI INIT 46210 9 .cfa: $rsp 8 + .ra: .cfa -8 + ^
STACK CFI INIT 46220 135 .cfa: $rsp 8 + .ra: .cfa -8 + ^
STACK CFI INIT 46360 4e .cfa: $rsp 8 + .ra: .cfa -8 + ^
STACK CFI 4636f .cfa: $rsp 16 +
STACK CFI 4638a .cfa: $rsp 8 +
STACK CFI 46390 .cfa: $rsp 16 +
STACK CFI INIT 463b0 1ac .cfa: $rsp 8 + .ra: .cfa -8 + ^
STACK CFI 463b2 $r13: .cfa -16 + ^ .cfa: $rsp 16 +
STACK CFI 463b4 $r12: .cfa -24 + ^ .cfa: $rsp 24 +
STACK CFI 463b5 $rbp: .cfa -32 + ^ .cfa: $rsp 32 +
STACK CFI 463b6 $rbx: .cfa -40 + ^ .cfa: $rsp 40 +
STACK CFI 463bf .cfa: $rsp 208 +
STACK CFI 464e2 .cfa: $rsp 40 +
STACK CFI 464e3 .cfa: $rsp 32 +
STACK CFI 464e4 .cfa: $rsp 24 +
STACK CFI 464e6 .cfa: $rsp 16 +
STACK CFI 464e8 .cfa: $rsp 8 +
STACK CFI 464f0 .cfa: $rsp 208 +
STACK CFI INIT 46560 226 .cfa: $rsp 8 + .ra: .cfa -8 + ^
STACK CFI 46562 $r13: .cfa -16 + ^ .cfa: $rsp 16 +
STACK CFI 46564 $r12: .cfa -24 + ^ .cfa: $rsp 24 +
STACK CFI 46565 $rbp: .cfa -32 + ^ .cfa: $rsp 32 +
STACK CFI 46566 $rbx: .cfa -40 + ^ .cfa: $rsp 40 +
STACK CFI 4656c .cfa: $rsp 48 +
STACK CFI 46626 .cfa: $rsp 40 +
STACK CFI 46627 .cfa: $rsp 32 +
STACK CFI 46628 .cfa: $rsp 24 +
STACK CFI 4662a .cfa: $rsp 16 +
STACK CFI 4662c .cfa: $rsp 8 +
STACK CFI 46630 .cfa: $rsp 48 +
STACK CFI 46660 .cfa: $rsp 40 +
STACK CFI 46661 .cfa: $rsp 32 +
STACK CFI 46662 .cfa: $rsp 24 +
STACK CFI 46664 .cfa: $rsp 16 +
STACK CFI 46666 .cfa: $rsp 8 +
STACK CFI 46670 .cfa: $rsp 48 +
STACK CFI INIT 46790 84 .cfa: $rsp 8 + .ra: .cfa -8 + ^
STACK CFI 46794 .cfa: $rsp 96 +
STACK CFI 46813 .cfa: $rsp 8 +
STACK CFI INIT 46820 13b .cfa: $rsp 8 + .ra: .cfa -8 + ^
STACK CFI 46822 $r13: .cfa -16 + ^ .cfa: $rsp 16 +
STACK CFI 46824 $r12: .cfa -24 + ^ .cfa: $rsp 24 +
STACK CFI 46825 $rbp: .cfa -32 + ^ .cfa: $rsp 32 +
STACK CFI 46826 $rbx: .cfa -40 + ^ .cfa: $rsp 40 +
STACK CFI 4682d .cfa: $rsp 224 +
STACK CFI 46925 .cfa: $rsp 144 +
STACK CFI 4694f .cfa: $rsp 40 +
STACK CFI 46950 .cfa: $rsp 32 +
STACK CFI 46951 .cfa: $rsp 24 +
STACK CFI 46953 .cfa: $rsp 16 +
STACK CFI 46955 .cfa: $rsp 8 +
STACK CFI 46956 .cfa: $rsp 144 +
STACK CFI INIT 49040 cf0 .cfa: $rsp 8 + .ra: .cfa -8 + ^
STACK CFI 49041 $rbp: .cfa -16 + ^ .cfa: $rsp 16 +
STACK CFI 49044 .cfa: $rbp 16 +
STACK CFI 4904c $r12: .cfa -48 + ^ $r13: .cfa -40 + ^ $r14: .cfa -32 + ^ $r15: .cfa -24 + ^
STACK CFI 49057 $rbx: .cfa -56 + ^
STACK CFI 490a5 .cfa: $rsp 8 +
STACK CFI 490a6 .cfa: $rbp 16 +
STACK CFI INIT 49d30 cc0 .cfa: $rsp 8 + .ra: .cfa -8 + ^
STACK CFI 49d31 $rbp: .cfa -16 + ^ .cfa: $rsp 16 +
STACK CFI 49d34 .cfa: $rbp 16 +
STACK CFI 49d3d $r12: .cfa -48 + ^ $r13: .cfa -40 + ^ $r14: .cfa -32 + ^ $r15: .cfa -24 + ^ $rbx: .cfa -56 + ^
STACK CFI 49d95 .cfa: $rsp 8 +
STACK CFI 49d96 .cfa: $rbp 16 +
STACK CFI INIT 46960 be .cfa: $rsp 8 + .ra: .cfa -8 + ^
STACK CFI 46962 $r12: .cfa -16 + ^ .cfa: $rsp 16 +
STACK CFI 46963 $rbp: .cfa -24 + ^ .cfa: $rsp 24 +
STACK CFI 46964 $rbx: .cfa -32 + ^ .cfa: $rsp 32 +
STACK CFI 46968 .cfa: $rsp 96 +
STACK CFI 46a14 .cfa: $rsp 32 +
STACK CFI 46a15 .cfa: $rsp 24 +
STACK CFI 46a16 .cfa: $rsp 16 +
STACK CFI 46a18 .cfa: $rsp 8 +
STACK CFI 46a19 .cfa: $rsp 96 +
STACK CFI INIT 4a9f0 d56 .cfa: $rsp 8 + .ra: .cfa -8 + ^
STACK CFI 4a9f1 $rbp: .cfa -16 + ^ .cfa: $rsp 16 +
STACK CFI 4a9f4 .cfa: $rbp 16 +
STACK CFI 4aa04 $r12: .cfa -48 + ^ $r13: .cfa -40 + ^ $r14: .cfa -32 + ^ $r15: .cfa -24 + ^ $rbx: .cfa -56 + ^
STACK CFI 4aa5d .cfa: $rsp 8 +
STACK CFI 4aa5e .cfa: $rbp 16 +
STACK CFI INIT 4b750 cc0 .cfa: $rsp 8 + .ra: .cfa -8 + ^
STACK CFI 4b751 $rbp: .cfa -16 + ^ .cfa: $rsp 16 +
STACK CFI 4b754 .cfa: $rbp 16 +
STACK CFI 4b75d $r12: .cfa -48 + ^ $r13: .cfa -40 + ^ $r14: .cfa -32 + ^ $r15: .cfa -24 + ^ $rbx: .cfa -56 + ^
STACK CFI 4b7b5 .cfa: $rsp 8 +
STACK CFI 4b7b6 .cfa: $rbp 16 +
STACK CFI INIT 4c410 102 .cfa: $rsp 8 + .ra: .cfa -8 + ^
STACK CFI 4c412 $r14: .cfa -16 + ^ .cfa: $rsp 16 +
STACK CFI 4c414 $r13: .cfa -24 + ^ .cfa: $rsp 24 +
STACK CFI 4c416 $r12: .cfa -32 + ^ .cfa: $rsp 32 +
STACK CFI 4c417 $rbp: .cfa -40 + ^ .cfa: $rsp 40 +
STACK CFI 4c418 $rbx: .cfa -48 + ^ .cfa: $rsp 48 +
STACK CFI 4c41c .cfa: $rsp 128 +
STACK CFI 4c44d .cfa: $rsp 48 +
STACK CFI 4c44e .cfa: $rsp 40 +
STACK CFI 4c44f .cfa: $rsp 32 +
STACK CFI 4c451 .cfa: $rsp 24 +
STACK CFI 4c453 .cfa: $rsp 16 +
STACK CFI 4c455 .cfa: $rsp 8 +
STACK CFI 4c460 .cfa: $rsp 128 +
STACK CFI INIT 4c520 cc0 .cfa: $rsp 8 + .ra: .cfa -8 + ^
STACK CFI 4c521 $rbp: .cfa -16 + ^ .cfa: $rsp 16 +
STACK CFI 4c524 .cfa: $rbp 16 +
STACK CFI 4c52d $r12: .cfa -48 + ^ $r13: .cfa -40 + ^ $r14: .cfa -32 + ^ $r15: .cfa -24 + ^ $rbx: .cfa -56 + ^
STACK CFI 4c585 .cfa: $rsp 8 +
STACK CFI 4c586 .cfa: $rbp 16 +
STACK CFI INIT 46a20 3dd .cfa: $rsp 8 + .ra: .cfa -8 + ^
STACK CFI 46a22 $r13: .cfa -16 + ^ .cfa: $rsp 16 +
STACK CFI 46a24 $r12: .cfa -24 + ^ .cfa: $rsp 24 +
STACK CFI 46a25 $rbp: .cfa -32 + ^ .cfa: $rsp 32 +
STACK CFI 46a26 $rbx: .cfa -40 + ^ .cfa: $rsp 40 +
STACK CFI 46a33 .cfa: $rsp 224 +
STACK CFI 46c60 .cfa: $rsp 272 +
STACK CFI 46c94 .cfa: $rsp 224 +
STACK CFI 46cd1 .cfa: $rsp 40 +
STACK CFI 46cd2 .cfa: $rsp 32 +
STACK CFI 46cd3 .cfa: $rsp 24 +
STACK CFI 46cd5 .cfa: $rsp 16 +
STACK CFI 46cd7 .cfa: $rsp 8 +
STACK CFI 46ce0 .cfa: $rsp 224 +
STACK CFI INIT 46e00 339 .cfa: $rsp 8 + .ra: .cfa -8 + ^
STACK CFI 46e02 $r12: .cfa -16 + ^ .cfa: $rsp 16 +
STACK CFI 46e03 $rbp: .cfa -24 + ^ .cfa: $rsp 24 +
STACK CFI 46e04 $rbx: .cfa -32 + ^ .cfa: $rsp 32 +
STACK CFI 46e0b .cfa: $rsp 192 +
STACK CFI 46e9e .cfa: $rsp 32 +
STACK CFI 46e9f .cfa: $rsp 24 +
STACK CFI 46ea0 .cfa: $rsp 16 +
STACK CFI 46ea2 .cfa: $rsp 8 +
STACK CFI 46ea8 .cfa: $rsp 192 +
STACK CFI INIT 47140 2b6 .cfa: $rsp 8 + .ra: .cfa -8 + ^
STACK CFI 47142 $r13: .cfa -16 + ^ .cfa: $rsp 16 +
STACK CFI 47144 $r12: .cfa -24 + ^ .cfa: $rsp 24 +
STACK CFI 47148 $rbp: .cfa -32 + ^ .cfa: $rsp 32 +
STACK CFI 47149 $rbx: .cfa -40 + ^ .cfa: $rsp 40 +
STACK CFI 4715b .cfa: $rsp 144 +
STACK CFI 47241 .cfa: $rsp 40 +
STACK CFI 47242 .cfa: $rsp 32 +
STACK CFI 47243 .cfa: $rsp 24 +
STACK CFI 47245 .cfa: $rsp 16 +
STACK CFI 47247 .cfa: $rsp 8 +
STACK CFI 47250 .cfa: $rsp 144 +
STACK CFI INIT 47400 bb .cfa: $rsp 8 + .ra: .cfa -8 + ^
STACK CFI 47401 $rbp: .cfa -16 + ^ .cfa: $rsp 16 +
STACK CFI 47402 $rbx: .cfa -24 + ^ .cfa: $rsp 24 +
STACK CFI 47411 .cfa: $rsp 192 +
STACK CFI 4747a .cfa: $rsp 24 +
STACK CFI 4747b .cfa: $rsp 16 +
STACK CFI 4747c .cfa: $rsp 8 +
STACK CFI 47480 .cfa: $rsp 192 +
STACK CFI INIT 474c0 da .cfa: $rsp 8 + .ra: .cfa -8 + ^
STACK CFI 474c4 .cfa: $rsp 64 +
STACK CFI 4752d .cfa: $rsp 8 +
STACK CFI 47530 .cfa: $rsp 64 +
STACK CFI INIT 4d1e0 f8 .cfa: $rsp 8 + .ra: .cfa -8 + ^
STACK CFI 4d1e2 $r14: .cfa -16 + ^ .cfa: $rsp 16 +
STACK CFI 4d1e4 $r13: .cfa -24 + ^ .cfa: $rsp 24 +
STACK CFI 4d1e6 $r12: .cfa -32 + ^ .cfa: $rsp 32 +
STACK CFI 4d1e7 $rbp: .cfa -40 + ^ .cfa: $rsp 40 +
STACK CFI 4d1e8 $rbx: .cfa -48 + ^ .cfa: $rsp 48 +
STACK CFI 4d1ec .cfa: $rsp 128 +
STACK CFI 4d21d .cfa: $rsp 48 +
STACK CFI 4d21e .cfa: $rsp 40 +
STACK CFI 4d21f .cfa: $rsp 32 +
STACK CFI 4d221 .cfa: $rsp 24 +
STACK CFI 4d223 .cfa: $rsp 16 +
STACK CFI 4d225 .cfa: $rsp 8 +
STACK CFI 4d230 .cfa: $rsp 128 +
STACK CFI INIT 475a0 317 .cfa: $rsp 8 + .ra: .cfa -8 + ^
STACK CFI 475a2 $r15: .cfa -16 + ^ .cfa: $rsp 16 +
STACK CFI 475a4 $r14: .cfa -24 + ^ .cfa: $rsp 24 +
STACK CFI 475a9 $r13: .cfa -32 + ^ .cfa: $rsp 32 +
STACK CFI 475ab $r12: .cfa -40 + ^ .cfa: $rsp 40 +
STACK CFI 475af $rbp: .cfa -48 + ^ .cfa: $rsp 48 +
STACK CFI 475b0 $rbx: .cfa -56 + ^ .cfa: $rsp 56 +
STACK CFI 475b9 .cfa: $rsp 160 +
STACK CFI 47720 .cfa: $rsp 56 +
STACK CFI 47721 .cfa: $rsp 48 +
STACK CFI 47722 .cfa: $rsp 40 +
STACK CFI 47724 .cfa: $rsp 32 +
STACK CFI 47726 .cfa: $rsp 24 +
STACK CFI 47728 .cfa: $rsp 16 +
STACK CFI 4772a .cfa: $rsp 8 +
STACK CFI 47730 .cfa: $rsp 160 +
STACK CFI INIT 478c0 433 .cfa: $rsp 8 + .ra: .cfa -8 + ^
STACK CFI 478c2 $r15: .cfa -16 + ^ .cfa: $rsp 16 +
STACK CFI 478c4 $r14: .cfa -24 + ^ .cfa: $rsp 24 +
STACK CFI 478c6 $r13: .cfa -32 + ^ .cfa: $rsp 32 +
STACK CFI 478c8 $r12: .cfa -40 + ^ .cfa: $rsp 40 +
STACK CFI 478cc $rbp: .cfa -48 + ^ .cfa: $rsp 48 +
STACK CFI 478cd $rbx: .cfa -56 + ^ .cfa: $rsp 56 +
STACK CFI 478d9 .cfa: $rsp 208 +
STACK CFI 4796d .cfa: $rsp 216 +
STACK CFI 4798a .cfa: $rsp 224 +
STACK CFI 479af .cfa: $rsp 216 +
STACK CFI 479b0 .cfa: $rsp 208 +
STACK CFI 47ac3 .cfa: $rsp 56 +
STACK CFI 47ac4 .cfa: $rsp 48 +
STACK CFI 47ac5 .cfa: $rsp 40 +
STACK CFI 47ac7 .cfa: $rsp 32 +
STACK CFI 47ac9 .cfa: $rsp 24 +
STACK CFI 47acb .cfa: $rsp 16 +
STACK CFI 47acd .cfa: $rsp 8 +
STACK CFI 47ad0 .cfa: $rsp 208 +
STACK CFI INIT 47d00 1f6 .cfa: $rsp 8 + .ra: .cfa -8 + ^
STACK CFI 47d04 .cfa: $rsp 48 +
STACK CFI 47d40 .cfa: $rsp 8 +
STACK CFI 47d48 .cfa: $rsp 48 +
STACK CFI INIT 47f00 521 .cfa: $rsp 8 + .ra: .cfa -8 + ^
STACK CFI 47f02 $r15: .cfa -16 + ^ .cfa: $rsp 16 +
STACK CFI 47f04 $r14: .cfa -24 + ^ .cfa: $rsp 24 +
STACK CFI 47f0d $r13: .cfa -32 + ^ .cfa: $rsp 32 +
STACK CFI 47f0f $r12: .cfa -40 + ^ .cfa: $rsp 40 +
STACK CFI 47f15 $rbp: .cfa -48 + ^ .cfa: $rsp 48 +
STACK CFI 47f16 $rbx: .cfa -56 + ^ .cfa: $rsp 56 +
STACK CFI 47f23 .cfa: $rsp 176 +
STACK CFI 47fad .cfa: $rsp 56 +
STACK CFI 47fae .cfa: $rsp 48 +
STACK CFI 47faf .cfa: $rsp 40 +
STACK CFI 47fb1 .cfa: $rsp 32 +
STACK CFI 47fb3 .cfa: $rsp 24 +
STACK CFI 47fb5 .cfa: $rsp 16 +
STACK CFI 47fb7 .cfa: $rsp 8 +
STACK CFI 47fc0 .cfa: $rsp 176 +
STACK CFI INIT 48430 7d6 .cfa: $rsp 8 + .ra: .cfa -8 + ^
STACK CFI 48432 $r15: .cfa -16 + ^ .cfa: $rsp 16 +
STACK CFI 48434 $r14: .cfa -24 + ^ .cfa: $rsp 24 +
STACK CFI 48439 $r13: .cfa -32 + ^ .cfa: $rsp 32 +
STACK CFI 4843b $r12: .cfa -40 + ^ .cfa: $rsp 40 +
STACK CFI 48443 $rbp: .cfa -48 + ^ .cfa: $rsp 48 +
STACK CFI 48444 $rbx: .cfa -56 + ^ .cfa: $rsp 56 +
STACK CFI 48454 .cfa: $rsp 160 +
STACK CFI 48731 .cfa: $rsp 56 +
STACK CFI 48732 .cfa: $rsp 48 +
STACK CFI 48733 .cfa: $rsp 40 +
STACK CFI 48735 .cfa: $rsp 32 +
STACK CFI 48737 .cfa: $rsp 24 +
STACK CFI 48739 .cfa: $rsp 16 +
STACK CFI 4873b .cfa: $rsp 8 +
STACK CFI 48740 .cfa: $rsp 160 +
STACK CFI INIT 48c10 25 .cfa: $rsp 8 + .ra: .cfa -8 + ^
STACK CFI 48c14 .cfa: $rsp 16 +
STACK CFI 48c30 .cfa: $rsp 8 +
STACK CFI INIT 48c40 17 .cfa: $rsp 8 + .ra: .cfa -8 + ^
STACK CFI INIT 48c60 a .cfa: $rsp 8 + .ra: .cfa -8 + ^
STACK CFI INIT 4d2e0 3a4 .cfa: $rsp 8 + .ra: .cfa -8 + ^
STACK CFI 4d2e2 $r15: .cfa -16 + ^ .cfa: $rsp 16 +
STACK CFI 4d2e4 $r14: .cfa -24 + ^ .cfa: $rsp 24 +
STACK CFI 4d2e9 $r13: .cfa -32 + ^ .cfa: $rsp 32 +
STACK CFI 4d2eb $r12: .cfa -40 + ^ .cfa: $rsp 40 +
STACK CFI 4d2ef $rbp: .cfa -48 + ^ .cfa: $rsp 48 +
STACK CFI 4d2f0 $rbx: .cfa -56 + ^ .cfa: $rsp 56 +
STACK CFI 4d2f9 .cfa: $rsp 544 +
STACK CFI 4d5a4 .cfa: $rsp 56 +
STACK CFI 4d5a5 .cfa: $rsp 48 +
STACK CFI 4d5a6 .cfa: $rsp 40 +
STACK CFI 4d5a8 .cfa: $rsp 32 +
STACK CFI 4d5aa .cfa: $rsp 24 +
STACK CFI 4d5ac .cfa: $rsp 16 +
STACK CFI 4d5ae .cfa: $rsp 8 +
STACK CFI 4d5b0 .cfa: $rsp 544 +
STACK CFI INIT 4d690 6e .cfa: $rsp 8 + .ra: .cfa -8 + ^
STACK CFI 4d694 .cfa: $rsp 32 +
STACK CFI 4d6cc .cfa: $rsp 8 +
STACK CFI 4d6d0 .cfa: $rsp 32 +
STACK CFI INIT 190c0 2e .cfa: $rsp 8 + .ra: .cfa -8 + ^
STACK CFI 190cb .cfa: $rsp 16 +
STACK CFI 190e9 .cfa: $rsp 8 +
STACK CFI INIT 4d700 53 .cfa: $rsp 8 + .ra: .cfa -8 + ^
STACK CFI INIT 4d760 8d .cfa: $rsp 8 + .ra: .cfa -8 + ^
STACK CFI 4d761 $rbp: .cfa -16 + ^ .cfa: $rsp 16 +
STACK CFI 4d762 $rbx: .cfa -24 + ^ .cfa: $rsp 24 +
STACK CFI 4d769 .cfa: $rsp 32 +
STACK CFI 4d7d4 .cfa: $rsp 24 +
STACK CFI 4d7d8 .cfa: $rsp 16 +
STACK CFI 4d7d9 .cfa: $rsp 8 +
STACK CFI 4d7e0 .cfa: $rsp 32 +
STACK CFI 4d7e4 .cfa: $rsp 24 +
STACK CFI 4d7e7 .cfa: $rsp 16 +
STACK CFI 4d7e8 .cfa: $rsp 8 +
STACK CFI 4d7e9 .cfa: $rsp 32 +
STACK CFI INIT 4d7f0 5c .cfa: $rsp 8 + .ra: .cfa -8 + ^
STACK CFI INIT 4d850 1e .cfa: $rsp 8 + .ra: .cfa -8 + ^
STACK CFI 4d851 $rbx: .cfa -16 + ^ .cfa: $rsp 16 +
STACK CFI 4d869 .cfa: $rsp 8 +
STACK CFI INIT 4d870 69 .cfa: $rsp 8 + .ra: .cfa -8 + ^
STACK CFI 4d871 $rbp: .cfa -16 + ^ .cfa: $rsp 16 +
STACK CFI 4d872 $rbx: .cfa -24 + ^ .cfa: $rsp 24 +
STACK CFI 4d879 .cfa: $rsp 32 +
STACK CFI 4d8cf .cfa: $rsp 24 +
STACK CFI 4d8d3 .cfa: $rsp 16 +
STACK CFI 4d8d4 .cfa: $rsp 8 +
STACK CFI INIT 4d8e0 50 .cfa: $rsp 8 + .ra: .cfa -8 + ^
STACK CFI 4d8e2 $r12: .cfa -16 + ^ .cfa: $rsp 16 +
STACK CFI 4d8e3 $rbp: .cfa -24 + ^ .cfa: $rsp 24 +
STACK CFI 4d8e7 $rbx: .cfa -32 + ^ .cfa: $rsp 32 +
STACK CFI 4d92c .cfa: $rsp 24 +
STACK CFI 4d92d .cfa: $rsp 16 +
STACK CFI 4d92f .cfa: $rsp 8 +
STACK CFI INIT 4d930 3f .cfa: $rsp 8 + .ra: .cfa -8 + ^
STACK CFI 4d931 $rbx: .cfa -16 + ^ .cfa: $rsp 16 +
STACK CFI 4d94c .cfa: $rsp 8 +
STACK CFI 4d950 .cfa: $rsp 16 +
STACK CFI 4d954 .cfa: $rsp 8 +
STACK CFI 4d958 .cfa: $rsp 16 +
STACK CFI INIT 4d970 50 .cfa: $rsp 8 + .ra: .cfa -8 + ^
STACK CFI 4d971 $rbx: .cfa -16 + ^ .cfa: $rsp 16 +
STACK CFI 4d990 .cfa: $rsp 8 +
STACK CFI 4d998 .cfa: $rsp 16 +
STACK CFI INIT 4d9c0 106 .cfa: $rsp 8 + .ra: .cfa -8 + ^
STACK CFI INIT 4dad0 4b .cfa: $rsp 8 + .ra: .cfa -8 + ^
STACK CFI 4dad1 $rbx: .cfa -16 + ^ .cfa: $rsp 16 +
STACK CFI 4db09 .cfa: $rsp 8 +
STACK CFI 4db0a .cfa: $rsp 16 +
STACK CFI INIT 4db20 b8 .cfa: $rsp 8 + .ra: .cfa -8 + ^
STACK CFI 4db21 $rbx: .cfa -16 + ^ .cfa: $rsp 16 +
STACK CFI 4db2b .cfa: $rsp 1104 +
STACK CFI 4dbd1 .cfa: $rsp 16 +
STACK CFI 4dbd2 .cfa: $rsp 8 +
STACK CFI 4dbd3 .cfa: $rsp 1104 +
STACK CFI INIT 4dbe0 c2 .cfa: $rsp 8 + .ra: .cfa -8 + ^
STACK CFI 4dbe2 $r12: .cfa -16 + ^ .cfa: $rsp 16 +
STACK CFI 4dbe3 $rbp: .cfa -24 + ^ .cfa: $rsp 24 +
STACK CFI 4dbe7 $rbx: .cfa -32 + ^ .cfa: $rsp 32 +
STACK CFI 4dbee .cfa: $rsp 48 +
STACK CFI 4dc5a .cfa: $rsp 32 +
STACK CFI 4dc5b .cfa: $rsp 24 +
STACK CFI 4dc5c .cfa: $rsp 16 +
STACK CFI 4dc5e .cfa: $rsp 8 +
STACK CFI 4dc60 .cfa: $rsp 48 +
STACK CFI INIT 4dcb0 13b .cfa: $rsp 8 + .ra: .cfa -8 + ^
STACK CFI 4dcb2 $r15: .cfa -16 + ^ .cfa: $rsp 16 +
STACK CFI 4dcb4 $r14: .cfa -24 + ^ .cfa: $rsp 24 +
STACK CFI 4dcb9 $r13: .cfa -32 + ^ .cfa: $rsp 32 +
STACK CFI 4dcbb $r12: .cfa -40 + ^ .cfa: $rsp 40 +
STACK CFI 4dcbc $rbp: .cfa -48 + ^ .cfa: $rsp 48 +
STACK CFI 4dcbd $rbx: .cfa -56 + ^ .cfa: $rsp 56 +
STACK CFI 4dcc1 .cfa: $rsp 80 +
STACK CFI 4dd8f .cfa: $rsp 56 +
STACK CFI 4dd90 .cfa: $rsp 48 +
STACK CFI 4dd91 .cfa: $rsp 40 +
STACK CFI 4dd93 .cfa: $rsp 32 +
STACK CFI 4dd95 .cfa: $rsp 24 +
STACK CFI 4dd97 .cfa: $rsp 16 +
STACK CFI 4dd99 .cfa: $rsp 8 +
STACK CFI 4dda0 .cfa: $rsp 80 +
STACK CFI INIT 4ddf0 c1 .cfa: $rsp 8 + .ra: .cfa -8 + ^
STACK CFI 4ddf2 $r13: .cfa -16 + ^ .cfa: $rsp 16 +
STACK CFI 4ddf4 $r12: .cfa -24 + ^ .cfa: $rsp 24 +
STACK CFI 4ddf8 $rbp: .cfa -32 + ^ .cfa: $rsp 32 +
STACK CFI 4ddfc $rbx: .cfa -40 + ^ .cfa: $rsp 40 +
STACK CFI 4de0c .cfa: $rsp 48 +
STACK CFI 4dea7 .cfa: $rsp 40 +
STACK CFI 4deab .cfa: $rsp 32 +
STACK CFI 4deac .cfa: $rsp 24 +
STACK CFI 4deae .cfa: $rsp 16 +
STACK CFI 4deb0 .cfa: $rsp 8 +
STACK CFI INIT 4dec0 111 .cfa: $rsp 8 + .ra: .cfa -8 + ^
STACK CFI 4dec2 $r13: .cfa -16 + ^ .cfa: $rsp 16 +
STACK CFI 4dec4 $r12: .cfa -24 + ^ .cfa: $rsp 24 +
STACK CFI 4dec8 $rbp: .cfa -32 + ^ .cfa: $rsp 32 +
STACK CFI 4dec9 $rbx: .cfa -40 + ^ .cfa: $rsp 40 +
STACK CFI 4decd .cfa: $rsp 64 +
STACK CFI 4dfba .cfa: $rsp 40 +
STACK CFI 4dfbb .cfa: $rsp 32 +
STACK CFI 4dfbc .cfa: $rsp 24 +
STACK CFI 4dfbe .cfa: $rsp 16 +
STACK CFI 4dfc0 .cfa: $rsp 8 +
STACK CFI 4dfc8 .cfa: $rsp 64 +
STACK CFI INIT 53150 9e .cfa: $rsp 8 + .ra: .cfa -8 + ^
STACK CFI 531a6 $rbp: .cfa -16 + ^ .cfa: $rsp 16 +
STACK CFI 531a7 $rbx: .cfa -24 + ^ .cfa: $rsp 24 +
STACK CFI 531b4 .cfa: $rsp 32 +
STACK CFI 531bd .cfa: $rsp 24 +
STACK CFI 531c4 $rbx: $rbx .cfa: $rsp 16 +
STACK CFI 531c5 $rbp: $rbp .cfa: $rsp 8 +
STACK CFI INIT 531f0 8d .cfa: $rsp 8 + .ra: .cfa -8 + ^
STACK CFI 531f1 $rbp: .cfa -16 + ^ .cfa: $rsp 16 +
STACK CFI 531f2 $rbx: .cfa -24 + ^ .cfa: $rsp 24 +
STACK CFI 53204 .cfa: $rsp 80 +
STACK CFI 53258 .cfa: $rsp 24 +
STACK CFI 53259 .cfa: $rsp 16 +
STACK CFI 5325a .cfa: $rsp 8 +
STACK CFI 5325b .cfa: $rsp 80 +
STACK CFI INIT 4dfe0 235 .cfa: $rsp 8 + .ra: .cfa -8 + ^
STACK CFI 4dfe2 $r15: .cfa -16 + ^ .cfa: $rsp 16 +
STACK CFI 4dfe4 $r14: .cfa -24 + ^ .cfa: $rsp 24 +
STACK CFI 4dfed $r13: .cfa -32 + ^ .cfa: $rsp 32 +
STACK CFI 4dfef $r12: .cfa -40 + ^ .cfa: $rsp 40 +
STACK CFI 4dff6 $rbp: .cfa -48 + ^ .cfa: $rsp 48 +
STACK CFI 4dff7 $rbx: .cfa -56 + ^ .cfa: $rsp 56 +
STACK CFI 4dffb .cfa: $rsp 64 +
STACK CFI 4e1f6 .cfa: $rsp 56 +
STACK CFI 4e1fa .cfa: $rsp 48 +
STACK CFI 4e1fb .cfa: $rsp 40 +
STACK CFI 4e1fd .cfa: $rsp 32 +
STACK CFI 4e1ff .cfa: $rsp 24 +
STACK CFI 4e201 .cfa: $rsp 16 +
STACK CFI 4e203 .cfa: $rsp 8 +
STACK CFI 4e204 .cfa: $rsp 64 +
STACK CFI 4e208 .cfa: $rsp 56 +
STACK CFI 4e20b .cfa: $rsp 48 +
STACK CFI 4e20c .cfa: $rsp 40 +
STACK CFI 4e20e .cfa: $rsp 32 +
STACK CFI 4e210 .cfa: $rsp 24 +
STACK CFI 4e212 .cfa: $rsp 16 +
STACK CFI 4e214 .cfa: $rsp 8 +
STACK CFI INIT 4e220 142 .cfa: $rsp 8 + .ra: .cfa -8 + ^
STACK CFI 4e230 $r13: .cfa -16 + ^ .cfa: $rsp 16 +
STACK CFI 4e239 $r12: .cfa -24 + ^ .cfa: $rsp 24 +
STACK CFI 4e23a $rbp: .cfa -32 + ^ .cfa: $rsp 32 +
STACK CFI 4e23b $rbx: .cfa -40 + ^ .cfa: $rsp 40 +
STACK CFI 4e242 .cfa: $rsp 48 +
STACK CFI 4e35a .cfa: $rsp 40 +
STACK CFI 4e35b $rbx: $rbx .cfa: $rsp 32 +
STACK CFI 4e35c $rbp: $rbp .cfa: $rsp 24 +
STACK CFI 4e35e $r12: $r12 .cfa: $rsp 16 +
STACK CFI 4e360 $r13: $r13 .cfa: $rsp 8 +
STACK CFI INIT 4e370 73 .cfa: $rsp 8 + .ra: .cfa -8 + ^
STACK CFI 4e37c $r12: .cfa -16 + ^ .cfa: $rsp 16 +
STACK CFI 4e37d $rbp: .cfa -24 + ^ .cfa: $rsp 24 +
STACK CFI 4e385 $rbx: .cfa -32 + ^ .cfa: $rsp 32 +
STACK CFI 4e3c1 $rbx: $rbx .cfa: $rsp 24 +
STACK CFI 4e3c2 $rbp: $rbp .cfa: $rsp 16 +
STACK CFI 4e3c4 $r12: $r12 .cfa: $rsp 8 +
STACK CFI 4e3d0 $r12: .cfa -16 + ^ $rbp: .cfa -24 + ^ $rbx: .cfa -32 + ^ .cfa: $rsp 32 +
STACK CFI 4e3de $rbx: $rbx .cfa: $rsp 24 +
STACK CFI 4e3df $rbp: $rbp .cfa: $rsp 16 +
STACK CFI 4e3e1 $r12: $r12 .cfa: $rsp 8 +
STACK CFI INIT 53280 d10 .cfa: $rsp 8 + .ra: .cfa -8 + ^
STACK CFI 53281 $rbp: .cfa -16 + ^ .cfa: $rsp 16 +
STACK CFI 53284 .cfa: $rbp 16 +
STACK CFI 5328c $r12: .cfa -48 + ^ $r13: .cfa -40 + ^ $r14: .cfa -32 + ^ $r15: .cfa -24 + ^
STACK CFI 53297 $rbx: .cfa -56 + ^
STACK CFI 532e5 .cfa: $rsp 8 +
STACK CFI 532e6 .cfa: $rbp 16 +
STACK CFI INIT 4e3f0 117 .cfa: $rsp 8 + .ra: .cfa -8 + ^
STACK CFI 4e3f1 $rbp: .cfa -16 + ^ .cfa: $rsp 16 +
STACK CFI 4e3f2 $rbx: .cfa -24 + ^ .cfa: $rsp 24 +
STACK CFI 4e3fc .cfa: $rsp 1280 +
STACK CFI 4e4ff .cfa: $rsp 24 +
STACK CFI 4e500 .cfa: $rsp 16 +
STACK CFI 4e501 .cfa: $rsp 8 +
STACK CFI 4e502 .cfa: $rsp 1280 +
STACK CFI INIT 4e510 bcc .cfa: $rsp 8 + .ra: .cfa -8 + ^
STACK CFI 4e512 $r15: .cfa -16 + ^ .cfa: $rsp 16 +
STACK CFI 4e514 $r14: .cfa -24 + ^ .cfa: $rsp 24 +
STACK CFI 4e519 $r13: .cfa -32 + ^ .cfa: $rsp 32 +
STACK CFI 4e51b $r12: .cfa -40 + ^ .cfa: $rsp 40 +
STACK CFI 4e51f $rbp: .cfa -48 + ^ .cfa: $rsp 48 +
STACK CFI 4e520 $rbx: .cfa -56 + ^ .cfa: $rsp 56 +
STACK CFI 4e52a .cfa: $rsp 4768 +
STACK CFI 4e684 .cfa: $rsp 56 +
STACK CFI 4e685 .cfa: $rsp 48 +
STACK CFI 4e686 .cfa: $rsp 40 +
STACK CFI 4e688 .cfa: $rsp 32 +
STACK CFI 4e68a .cfa: $rsp 24 +
STACK CFI 4e68c .cfa: $rsp 16 +
STACK CFI 4e68e .cfa: $rsp 8 +
STACK CFI 4e690 .cfa: $rsp 4768 +
STACK CFI INIT 4f0e0 19 .cfa: $rsp 8 + .ra: .cfa -8 + ^
STACK CFI 4f0eb .cfa: $rsp 16 +
STACK CFI 4f0f8 .cfa: $rsp 8 +
STACK CFI INIT 4f100 78 .cfa: $rsp 8 + .ra: .cfa -8 + ^
STACK CFI 4f102 $r12: .cfa -16 + ^ .cfa: $rsp 16 +
STACK CFI 4f103 $rbp: .cfa -24 + ^ .cfa: $rsp 24 +
STACK CFI 4f107 $rbx: .cfa -32 + ^ .cfa: $rsp 32 +
STACK CFI 4f13c .cfa: $rsp 24 +
STACK CFI 4f14a .cfa: $rsp 16 +
STACK CFI 4f14c .cfa: $rsp 8 +
STACK CFI 4f158 .cfa: $rsp 32 +
STACK CFI 4f170 .cfa: $rsp 24 +
STACK CFI 4f171 .cfa: $rsp 16 +
STACK CFI 4f173 .cfa: $rsp 8 +
STACK CFI 4f174 .cfa: $rsp 32 +
STACK CFI INIT 4f180 68 .cfa: $rsp 8 + .ra: .cfa -8 + ^
STACK CFI 4f181 $rbp: .cfa -16 + ^ .cfa: $rsp 16 +
STACK CFI 4f182 $rbx: .cfa -24 + ^ .cfa: $rsp 24 +
STACK CFI 4f189 .cfa: $rsp 48 +
STACK CFI 4f1c8 .cfa: $rsp 24 +
STACK CFI 4f1c9 .cfa: $rsp 16 +
STACK CFI 4f1ca .cfa: $rsp 8 +
STACK CFI 4f1d0 .cfa: $rsp 48 +
STACK CFI INIT 4f1f0 a2 .cfa: $rsp 8 + .ra: .cfa -8 + ^
STACK CFI 4f1f1 $rbp: .cfa -16 + ^ .cfa: $rsp 16 +
STACK CFI 4f1f2 $rbx: .cfa -24 + ^ .cfa: $rsp 24 +
STACK CFI 4f1f9 .cfa: $rsp 48 +
STACK CFI 4f255 .cfa: $rsp 24 +
STACK CFI 4f256 .cfa: $rsp 16 +
STACK CFI 4f257 .cfa: $rsp 8 +
STACK CFI 4f260 .cfa: $rsp 48 +
STACK CFI INIT 4f2a0 128 .cfa: $rsp 8 + .ra: .cfa -8 + ^
STACK CFI 4f2a1 $rbp: .cfa -16 + ^ .cfa: $rsp 16 +
STACK CFI 4f2a2 $rbx: .cfa -24 + ^ .cfa: $rsp 24 +
STACK CFI 4f2ac .cfa: $rsp 1280 +
STACK CFI 4f34a .cfa: $rsp 24 +
STACK CFI 4f34b .cfa: $rsp 16 +
STACK CFI 4f34c .cfa: $rsp 8 +
STACK CFI 4f350 .cfa: $rsp 1280 +
STACK CFI INIT 4f3d0 122 .cfa: $rsp 8 + .ra: .cfa -8 + ^
STACK CFI 4f3d1 $rbp: .cfa -16 + ^ .cfa: $rsp 16 +
STACK CFI 4f3d2 $rbx: .cfa -24 + ^ .cfa: $rsp 24 +
STACK CFI 4f3dc .cfa: $rsp 1280 +
STACK CFI 4f476 .cfa: $rsp 24 +
STACK CFI 4f477 .cfa: $rsp 16 +
STACK CFI 4f478 .cfa: $rsp 8 +
STACK CFI 4f480 .cfa: $rsp 1280 +
STACK CFI INIT 4f500 3c4 .cfa: $rsp 8 + .ra: .cfa -8 + ^
STACK CFI 4f502 $r15: .cfa -16 + ^ .cfa: $rsp 16 +
STACK CFI 4f504 $r14: .cfa -24 + ^ .cfa: $rsp 24 +
STACK CFI 4f508 $r13: .cfa -32 + ^ .cfa: $rsp 32 +
STACK CFI 4f50a $r12: .cfa -40 + ^ .cfa: $rsp 40 +
STACK CFI 4f50e $rbp: .cfa -48 + ^ .cfa: $rsp 48 +
STACK CFI 4f50f $rbx: .cfa -56 + ^ .cfa: $rsp 56 +
STACK CFI 4f526 .cfa: $rsp 80 +
STACK CFI 4f636 .cfa: $rsp 56 +
STACK CFI 4f639 .cfa: $rsp 48 +
STACK CFI 4f63a .cfa: $rsp 40 +
STACK CFI 4f63c .cfa: $rsp 32 +
STACK CFI 4f63e .cfa: $rsp 24 +
STACK CFI 4f640 .cfa: $rsp 16 +
STACK CFI 4f642 .cfa: $rsp 8 +
STACK CFI 4f648 .cfa: $rsp 80 +
STACK CFI 4f6e1 .cfa: $rsp 56 +
STACK CFI 4f6e2 .cfa: $rsp 48 +
STACK CFI 4f6e8 .cfa: $rsp 40 +
STACK CFI 4f6ea .cfa: $rsp 32 +
STACK CFI 4f6ec .cfa: $rsp 24 +
STACK CFI 4f6ee .cfa: $rsp 16 +
STACK CFI 4f6f0 .cfa: $rsp 8 +
STACK CFI 4f6f8 .cfa: $rsp 80 +
STACK CFI 4f716 .cfa: $rsp 56 +
STACK CFI 4f719 .cfa: $rsp 48 +
STACK CFI 4f71a .cfa: $rsp 40 +
STACK CFI 4f71c .cfa: $rsp 32 +
STACK CFI 4f71e .cfa: $rsp 24 +
STACK CFI 4f720 .cfa: $rsp 16 +
STACK CFI 4f722 .cfa: $rsp 8 +
STACK CFI 4f728 .cfa: $rsp 80 +
STACK CFI 4f749 .cfa: $rsp 56 +
STACK CFI 4f74c .cfa: $rsp 48 +
STACK CFI 4f74d .cfa: $rsp 40 +
STACK CFI 4f74f .cfa: $rsp 32 +
STACK CFI 4f751 .cfa: $rsp 24 +
STACK CFI 4f753 .cfa: $rsp 16 +
STACK CFI 4f755 .cfa: $rsp 8 +
STACK CFI 4f756 .cfa: $rsp 80 +
STACK CFI INIT 4f8d0 b1a .cfa: $rsp 8 + .ra: .cfa -8 + ^
STACK CFI 4f8d2 $r15: .cfa -16 + ^ .cfa: $rsp 16 +
STACK CFI 4f8d4 $r14: .cfa -24 + ^ .cfa: $rsp 24 +
STACK CFI 4f8d6 $r13: .cfa -32 + ^ .cfa: $rsp 32 +
STACK CFI 4f8d8 $r12: .cfa -40 + ^ .cfa: $rsp 40 +
STACK CFI 4f8d9 $rbp: .cfa -48 + ^ .cfa: $rsp 48 +
STACK CFI 4f8da $rbx: .cfa -56 + ^ .cfa: $rsp 56 +
STACK CFI 4f8e4 .cfa: $rsp 128 +
STACK CFI 4fc87 .cfa: $rsp 56 +
STACK CFI 4fc88 .cfa: $rsp 48 +
STACK CFI 4fc89 .cfa: $rsp 40 +
STACK CFI 4fc8b .cfa: $rsp 32 +
STACK CFI 4fc8d .cfa: $rsp 24 +
STACK CFI 4fc8f .cfa: $rsp 16 +
STACK CFI 4fc91 .cfa: $rsp 8 +
STACK CFI 4fc98 .cfa: $rsp 128 +
STACK CFI INIT 503f0 82 .cfa: $rsp 8 + .ra: .cfa -8 + ^
STACK CFI 503f2 $r12: .cfa -16 + ^ .cfa: $rsp 16 +
STACK CFI 503f6 $rbp: .cfa -24 + ^ .cfa: $rsp 24 +
STACK CFI 503fa $rbx: .cfa -32 + ^ .cfa: $rsp 32 +
STACK CFI 5043a .cfa: $rsp 24 +
STACK CFI 5043b .cfa: $rsp 16 +
STACK CFI 5043d .cfa: $rsp 8 +
STACK CFI 50440 .cfa: $rsp 32 +
STACK CFI 50460 .cfa: $rsp 24 +
STACK CFI 50461 .cfa: $rsp 16 +
STACK CFI 50463 .cfa: $rsp 8 +
STACK CFI 50468 .cfa: $rsp 32 +
STACK CFI 50469 .cfa: $rsp 24 +
STACK CFI 5046f .cfa: $rsp 16 +
STACK CFI 50471 .cfa: $rsp 8 +
STACK CFI INIT 50480 66 .cfa: $rsp 8 + .ra: .cfa -8 + ^
STACK CFI 50481 $rbp: .cfa -16 + ^ .cfa: $rsp 16 +
STACK CFI 50482 $rbx: .cfa -24 + ^ .cfa: $rsp 24 +
STACK CFI 50493 .cfa: $rsp 1120 +
STACK CFI 504de .cfa: $rsp 24 +
STACK CFI 504df .cfa: $rsp 16 +
STACK CFI 504e0 .cfa: $rsp 8 +
STACK CFI 504e1 .cfa: $rsp 1120 +
STACK CFI INIT 504f0 1b4 .cfa: $rsp 8 + .ra: .cfa -8 + ^
STACK CFI 504f2 $r14: .cfa -16 + ^ .cfa: $rsp 16 +
STACK CFI 504f4 $r13: .cfa -24 + ^ .cfa: $rsp 24 +
STACK CFI 504f6 $r12: .cfa -32 + ^ .cfa: $rsp 32 +
STACK CFI 504f7 $rbp: .cfa -40 + ^ .cfa: $rsp 40 +
STACK CFI 504fb $rbx: .cfa -48 + ^ .cfa: $rsp 48 +
STACK CFI 50502 .cfa: $rsp 1136 +
STACK CFI 50641 .cfa: $rsp 48 +
STACK CFI 50642 .cfa: $rsp 40 +
STACK CFI 50643 .cfa: $rsp 32 +
STACK CFI 50645 .cfa: $rsp 24 +
STACK CFI 50647 .cfa: $rsp 16 +
STACK CFI 50649 .cfa: $rsp 8 +
STACK CFI 50650 .cfa: $rsp 1136 +
STACK CFI INIT 506b0 15 .cfa: $rsp 8 + .ra: .cfa -8 + ^
STACK CFI INIT 506d0 f2 .cfa: $rsp 8 + .ra: .cfa -8 + ^
STACK CFI 506d2 $r13: .cfa -16 + ^ .cfa: $rsp 16 +
STACK CFI 506d4 $r12: .cfa -24 + ^ .cfa: $rsp 24 +
STACK CFI 506d8 $rbp: .cfa -32 + ^ .cfa: $rsp 32 +
STACK CFI 506d9 $rbx: .cfa -40 + ^ .cfa: $rsp 40 +
STACK CFI 506e3 .cfa: $rsp 1136 +
STACK CFI 5075f .cfa: $rsp 40 +
STACK CFI 50760 .cfa: $rsp 32 +
STACK CFI 50761 .cfa: $rsp 24 +
STACK CFI 50763 .cfa: $rsp 16 +
STACK CFI 50765 .cfa: $rsp 8 +
STACK CFI 50770 .cfa: $rsp 1136 +
STACK CFI INIT 507d0 a .cfa: $rsp 8 + .ra: .cfa -8 + ^
STACK CFI INIT 507e0 a .cfa: $rsp 8 + .ra: .cfa -8 + ^
STACK CFI INIT 507f0 63 .cfa: $rsp 8 + .ra: .cfa -8 + ^
STACK CFI 507f1 $rbp: .cfa -16 + ^ .cfa: $rsp 16 +
STACK CFI 507f2 $rbx: .cfa -24 + ^ .cfa: $rsp 24 +
STACK CFI 507fc .cfa: $rsp 1120 +
STACK CFI 50849 .cfa: $rsp 24 +
STACK CFI 5084c .cfa: $rsp 16 +
STACK CFI 5084d .cfa: $rsp 8 +
STACK CFI 5084e .cfa: $rsp 1120 +
STACK CFI INIT 50860 200 .cfa: $rsp 8 + .ra: .cfa -8 + ^
STACK CFI 50862 $r12: .cfa -16 + ^ .cfa: $rsp 16 +
STACK CFI 50863 $rbp: .cfa -24 + ^ .cfa: $rsp 24 +
STACK CFI 50864 $rbx: .cfa -32 + ^ .cfa: $rsp 32 +
STACK CFI 5086e .cfa: $rsp 1200 +
STACK CFI 508e9 .cfa: $rsp 32 +
STACK CFI 508ea .cfa: $rsp 24 +
STACK CFI 508eb .cfa: $rsp 16 +
STACK CFI 508ed .cfa: $rsp 8 +
STACK CFI 508f0 .cfa: $rsp 1200 +
STACK CFI INIT 50a60 15 .cfa: $rsp 8 + .ra: .cfa -8 + ^
STACK CFI INIT 50a80 905 .cfa: $rsp 8 + .ra: .cfa -8 + ^
STACK CFI 50a82 $r15: .cfa -16 + ^ .cfa: $rsp 16 +
STACK CFI 50a84 $r14: .cfa -24 + ^ .cfa: $rsp 24 +
STACK CFI 50a86 $r13: .cfa -32 + ^ .cfa: $rsp 32 +
STACK CFI 50a88 $r12: .cfa -40 + ^ .cfa: $rsp 40 +
STACK CFI 50a89 $rbp: .cfa -48 + ^ .cfa: $rsp 48 +
STACK CFI 50a8a $rbx: .cfa -56 + ^ .cfa: $rsp 56 +
STACK CFI 50a94 .cfa: $rsp 2240 +
STACK CFI 50d3b .cfa: $rsp 56 +
STACK CFI 50d3c .cfa: $rsp 48 +
STACK CFI 50d3d .cfa: $rsp 40 +
STACK CFI 50d3f .cfa: $rsp 32 +
STACK CFI 50d41 .cfa: $rsp 24 +
STACK CFI 50d43 .cfa: $rsp 16 +
STACK CFI 50d45 .cfa: $rsp 8 +
STACK CFI 50d46 .cfa: $rsp 2240 +
STACK CFI INIT 51390 79 .cfa: $rsp 8 + .ra: .cfa -8 + ^
STACK CFI 51391 $rbx: .cfa -16 + ^ .cfa: $rsp 16 +
STACK CFI 51398 .cfa: $rsp 48 +
STACK CFI 513fd .cfa: $rsp 16 +
STACK CFI 513fe .cfa: $rsp 8 +
STACK CFI 51400 .cfa: $rsp 48 +
STACK CFI INIT 51410 3c7 .cfa: $rsp 8 + .ra: .cfa -8 + ^
STACK CFI 51412 $r15: .cfa -16 + ^ .cfa: $rsp 16 +
STACK CFI 51414 $r14: .cfa -24 + ^ .cfa: $rsp 24 +
STACK CFI 51416 $r13: .cfa -32 + ^ .cfa: $rsp 32 +
STACK CFI 51418 $r12: .cfa -40 + ^ .cfa: $rsp 40 +
STACK CFI 5141c $rbp: .cfa -48 + ^ .cfa: $rsp 48 +
STACK CFI 5141d $rbx: .cfa -56 + ^ .cfa: $rsp 56 +
STACK CFI 51424 .cfa: $rsp 1184 +
STACK CFI 51611 .cfa: $rsp 56 +
STACK CFI 51612 .cfa: $rsp 48 +
STACK CFI 51613 .cfa: $rsp 40 +
STACK CFI 51615 .cfa: $rsp 32 +
STACK CFI 51617 .cfa: $rsp 24 +
STACK CFI 51619 .cfa: $rsp 16 +
STACK CFI 5161b .cfa: $rsp 8 +
STACK CFI 51620 .cfa: $rsp 1184 +
STACK CFI INIT 517e0 17e .cfa: $rsp 8 + .ra: .cfa -8 + ^
STACK CFI 517e1 $rbp: .cfa -16 + ^ .cfa: $rsp 16 +
STACK CFI 517e2 $rbx: .cfa -24 + ^ .cfa: $rsp 24 +
STACK CFI 517f0 .cfa: $rsp 1136 +
STACK CFI 5182f .cfa: $rsp 24 +
STACK CFI 51830 .cfa: $rsp 16 +
STACK CFI 51831 .cfa: $rsp 8 +
STACK CFI 51838 .cfa: $rsp 1136 +
STACK CFI INIT 51960 146 .cfa: $rsp 8 + .ra: .cfa -8 + ^
STACK CFI 51961 $rbp: .cfa -16 + ^ .cfa: $rsp 16 +
STACK CFI 51962 $rbx: .cfa -24 + ^ .cfa: $rsp 24 +
STACK CFI 51973 .cfa: $rsp 1152 +
STACK CFI 519b2 .cfa: $rsp 24 +
STACK CFI 519b3 .cfa: $rsp 16 +
STACK CFI 519b4 .cfa: $rsp 8 +
STACK CFI 519b8 .cfa: $rsp 1152 +
STACK CFI INIT 51ab0 33f .cfa: $rsp 8 + .ra: .cfa -8 + ^
STACK CFI 51ab2 $r15: .cfa -16 + ^ .cfa: $rsp 16 +
STACK CFI 51ab4 $r14: .cfa -24 + ^ .cfa: $rsp 24 +
STACK CFI 51ab9 $r13: .cfa -32 + ^ .cfa: $rsp 32 +
STACK CFI 51abb $r12: .cfa -40 + ^ .cfa: $rsp 40 +
STACK CFI 51abf $rbp: .cfa -48 + ^ .cfa: $rsp 48 +
STACK CFI 51ac0 $rbx: .cfa -56 + ^ .cfa: $rsp 56 +
STACK CFI 51ac7 .cfa: $rsp 1168 +
STACK CFI 51ce2 .cfa: $rsp 56 +
STACK CFI 51ce3 .cfa: $rsp 48 +
STACK CFI 51ce4 .cfa: $rsp 40 +
STACK CFI 51ce6 .cfa: $rsp 32 +
STACK CFI 51ce8 .cfa: $rsp 24 +
STACK CFI 51cea .cfa: $rsp 16 +
STACK CFI 51cec .cfa: $rsp 8 +
STACK CFI 51cf0 .cfa: $rsp 1168 +
STACK CFI INIT 51df0 129 .cfa: $rsp 8 + .ra: .cfa -8 + ^
STACK CFI 51df1 $rbp: .cfa -16 + ^ .cfa: $rsp 16 +
STACK CFI 51df2 $rbx: .cfa -24 + ^ .cfa: $rsp 24 +
STACK CFI 51e00 .cfa: $rsp 1136 +
STACK CFI 51e3f .cfa: $rsp 24 +
STACK CFI 51e40 .cfa: $rsp 16 +
STACK CFI 51e41 .cfa: $rsp 8 +
STACK CFI 51e48 .cfa: $rsp 1136 +
STACK CFI INIT 51f20 127 .cfa: $rsp 8 + .ra: .cfa -8 + ^
STACK CFI 51f21 $rbp: .cfa -16 + ^ .cfa: $rsp 16 +
STACK CFI 51f22 $rbx: .cfa -24 + ^ .cfa: $rsp 24 +
STACK CFI 51f33 .cfa: $rsp 1152 +
STACK CFI 51f72 .cfa: $rsp 24 +
STACK CFI 51f73 .cfa: $rsp 16 +
STACK CFI 51f74 .cfa: $rsp 8 +
STACK CFI 51f78 .cfa: $rsp 1152 +
STACK CFI INIT 52050 a8 .cfa: $rsp 8 + .ra: .cfa -8 + ^
STACK CFI 52051 $rbp: .cfa -16 + ^ .cfa: $rsp 16 +
STACK CFI 52052 $rbx: .cfa -24 + ^ .cfa: $rsp 24 +
STACK CFI 52059 .cfa: $rsp 64 +
STACK CFI 520b1 .cfa: $rsp 24 +
STACK CFI 520b2 .cfa: $rsp 16 +
STACK CFI 520b3 .cfa: $rsp 8 +
STACK CFI 520b8 .cfa: $rsp 64 +
STACK CFI INIT 52100 62 .cfa: $rsp 8 + .ra: .cfa -8 + ^
STACK CFI 52101 $rbx: .cfa -16 + ^ .cfa: $rsp 16 +
STACK CFI 5210f .cfa: $rsp 32 +
STACK CFI 5215b .cfa: $rsp 16 +
STACK CFI 5215c .cfa: $rsp 8 +
STACK CFI 5215d .cfa: $rsp 32 +
STACK CFI INIT 52170 7ae .cfa: $rsp 8 + .ra: .cfa -8 + ^
STACK CFI 52172 $r15: .cfa -16 + ^ .cfa: $rsp 16 +
STACK CFI 52174 $r14: .cfa -24 + ^ .cfa: $rsp 24 +
STACK CFI 52176 $r13: .cfa -32 + ^ .cfa: $rsp 32 +
STACK CFI 52178 $r12: .cfa -40 + ^ .cfa: $rsp 40 +
STACK CFI 52179 $rbp: .cfa -48 + ^ .cfa: $rsp 48 +
STACK CFI 5217a $rbx: .cfa -56 + ^ .cfa: $rsp 56 +
STACK CFI 52187 .cfa: $rsp 2256 +
STACK CFI 52240 .cfa: $rsp 56 +
STACK CFI 52241 .cfa: $rsp 48 +
STACK CFI 52242 .cfa: $rsp 40 +
STACK CFI 52244 .cfa: $rsp 32 +
STACK CFI 52246 .cfa: $rsp 24 +
STACK CFI 52248 .cfa: $rsp 16 +
STACK CFI 5224a .cfa: $rsp 8 +
STACK CFI 52250 .cfa: $rsp 2256 +
STACK CFI INIT 52920 d8 .cfa: $rsp 8 + .ra: .cfa -8 + ^
STACK CFI 52922 $r13: .cfa -16 + ^ .cfa: $rsp 16 +
STACK CFI 52924 $r12: .cfa -24 + ^ .cfa: $rsp 24 +
STACK CFI 52928 $rbp: .cfa -32 + ^ .cfa: $rsp 32 +
STACK CFI 52929 $rbx: .cfa -40 + ^ .cfa: $rsp 40 +
STACK CFI 52930 .cfa: $rsp 1152 +
STACK CFI 529d2 .cfa: $rsp 40 +
STACK CFI 529d3 .cfa: $rsp 32 +
STACK CFI 529d4 .cfa: $rsp 24 +
STACK CFI 529d6 .cfa: $rsp 16 +
STACK CFI 529d8 .cfa: $rsp 8 +
STACK CFI 529e0 .cfa: $rsp 1152 +
STACK CFI INIT 52a00 51e .cfa: $rsp 8 + .ra: .cfa -8 + ^
STACK CFI 52a02 $r15: .cfa -16 + ^ .cfa: $rsp 16 +
STACK CFI 52a04 $r14: .cfa -24 + ^ .cfa: $rsp 24 +
STACK CFI 52a06 $r13: .cfa -32 + ^ .cfa: $rsp 32 +
STACK CFI 52a08 $r12: .cfa -40 + ^ .cfa: $rsp 40 +
STACK CFI 52a09 $rbp: .cfa -48 + ^ .cfa: $rsp 48 +
STACK CFI 52a0a $rbx: .cfa -56 + ^ .cfa: $rsp 56 +
STACK CFI 52a14 .cfa: $rsp 2256 +
STACK CFI 52a9b .cfa: $rsp 56 +
STACK CFI 52a9c .cfa: $rsp 48 +
STACK CFI 52a9d .cfa: $rsp 40 +
STACK CFI 52a9f .cfa: $rsp 32 +
STACK CFI 52aa1 .cfa: $rsp 24 +
STACK CFI 52aa3 .cfa: $rsp 16 +
STACK CFI 52aa5 .cfa: $rsp 8 +
STACK CFI 52ab0 .cfa: $rsp 2256 +
STACK CFI INIT 52f20 15 .cfa: $rsp 8 + .ra: .cfa -8 + ^
STACK CFI INIT 52f40 156 .cfa: $rsp 8 + .ra: .cfa -8 + ^
STACK CFI 52f42 $r12: .cfa -16 + ^ .cfa: $rsp 16 +
STACK CFI 52f43 $rbp: .cfa -24 + ^ .cfa: $rsp 24 +
STACK CFI 52f4a $rbx: .cfa -32 + ^ .cfa: $rsp 32 +
STACK CFI 52f54 .cfa: $rsp 1312 +
STACK CFI 53060 .cfa: $rsp 32 +
STACK CFI 53061 .cfa: $rsp 24 +
STACK CFI 53062 .cfa: $rsp 16 +
STACK CFI 53064 .cfa: $rsp 8 +
STACK CFI 53068 .cfa: $rsp 1312 +
STACK CFI INIT 530a0 ac .cfa: $rsp 8 + .ra: .cfa -8 + ^
STACK CFI 530a2 $r14: .cfa -16 + ^ .cfa: $rsp 16 +
STACK CFI 530a4 $r13: .cfa -24 + ^ .cfa: $rsp 24 +
STACK CFI 530a6 $r12: .cfa -32 + ^ .cfa: $rsp 32 +
STACK CFI 530a7 $rbp: .cfa -40 + ^ .cfa: $rsp 40 +
STACK CFI 530a8 $rbx: .cfa -48 + ^ .cfa: $rsp 48 +
STACK CFI 53104 .cfa: $rsp 40 +
STACK CFI 5310a .cfa: $rsp 32 +
STACK CFI 5310c .cfa: $rsp 24 +
STACK CFI 5310e .cfa: $rsp 16 +
STACK CFI 53110 .cfa: $rsp 8 +
STACK CFI 53118 .cfa: $rsp 48 +
STACK CFI 53129 .cfa: $rsp 40 +
STACK CFI 5312a .cfa: $rsp 32 +
STACK CFI 5312c .cfa: $rsp 24 +
STACK CFI 5312e .cfa: $rsp 16 +
STACK CFI 53130 .cfa: $rsp 8 +
STACK CFI 53138 .cfa: $rsp 48 +
STACK CFI 53139 .cfa: $rsp 40 +
STACK CFI 5313c .cfa: $rsp 32 +
STACK CFI 5313e .cfa: $rsp 24 +
STACK CFI 53140 .cfa: $rsp 16 +
STACK CFI 53142 .cfa: $rsp 8 +
STACK CFI 53143 .cfa: $rsp 48 +
STACK CFI INIT 190f0 2e .cfa: $rsp 8 + .ra: .cfa -8 + ^
STACK CFI 190fb .cfa: $rsp 16 +
STACK CFI 19119 .cfa: $rsp 8 +
STACK CFI INIT 54fc0 4 .cfa: $rsp 8 + .ra: .cfa -8 + ^
STACK CFI INIT 54fd0 2 .cfa: $rsp 8 + .ra: .cfa -8 + ^
STACK CFI INIT 54fe0 5 .cfa: $rsp 8 + .ra: .cfa -8 + ^
STACK CFI INIT 53f90 35 .cfa: $rsp 8 + .ra: .cfa -8 + ^
STACK CFI 53f91 $rbp: .cfa -16 + ^ .cfa: $rsp 16 +
STACK CFI 53f92 $rbx: .cfa -24 + ^ .cfa: $rsp 24 +
STACK CFI 53fa4 .cfa: $rsp 32 +
STACK CFI 53fc2 .cfa: $rsp 24 +
STACK CFI 53fc3 .cfa: $rsp 16 +
STACK CFI 53fc4 .cfa: $rsp 8 +
STACK CFI INIT 54ff0 40 .cfa: $rsp 8 + .ra: .cfa -8 + ^
STACK CFI 54ff8 $rbx: .cfa -16 + ^ .cfa: $rsp 16 +
STACK CFI 5502b .cfa: $rsp 8 +
STACK CFI INIT 55030 9 .cfa: $rsp 8 + .ra: .cfa -8 + ^
STACK CFI INIT 55040 2e .cfa: $rsp 8 + .ra: .cfa -8 + ^
STACK CFI 55048 $rbx: .cfa -16 + ^ .cfa: $rsp 16 +
STACK CFI 55069 .cfa: $rsp 8 +
STACK CFI INIT 55070 1a1 .cfa: $rsp 8 + .ra: .cfa -8 + ^
STACK CFI 55072 $r15: .cfa -16 + ^ .cfa: $rsp 16 +
STACK CFI 55074 $r14: .cfa -24 + ^ .cfa: $rsp 24 +
STACK CFI 55079 $r13: .cfa -32 + ^ .cfa: $rsp 32 +
STACK CFI 5507b $r12: .cfa -40 + ^ .cfa: $rsp 40 +
STACK CFI 5507f $rbp: .cfa -48 + ^ .cfa: $rsp 48 +
STACK CFI 55080 $rbx: .cfa -56 + ^ .cfa: $rsp 56 +
STACK CFI 55089 .cfa: $rsp 64 +
STACK CFI 551bb .cfa: $rsp 56 +
STACK CFI 551bf .cfa: $rsp 48 +
STACK CFI 551c0 .cfa: $rsp 40 +
STACK CFI 551c2 .cfa: $rsp 32 +
STACK CFI 551c4 .cfa: $rsp 24 +
STACK CFI 551c6 .cfa: $rsp 16 +
STACK CFI 551c8 .cfa: $rsp 8 +
STACK CFI 551c9 .cfa: $rsp 64 +
STACK CFI INIT 53fd0 c2 .cfa: $rsp 8 + .ra: .cfa -8 + ^
STACK CFI 53fd2 $r12: .cfa -16 + ^ .cfa: $rsp 16 +
STACK CFI 53fd3 $rbp: .cfa -24 + ^ .cfa: $rsp 24 +
STACK CFI 53fd7 $rbx: .cfa -32 + ^ .cfa: $rsp 32 +
STACK CFI 53fde .cfa: $rsp 48 +
STACK CFI 5404a .cfa: $rsp 32 +
STACK CFI 5404b .cfa: $rsp 24 +
STACK CFI 5404c .cfa: $rsp 16 +
STACK CFI 5404e .cfa: $rsp 8 +
STACK CFI 54050 .cfa: $rsp 48 +
STACK CFI INIT 19120 39 .cfa: $rsp 8 + .ra: .cfa -8 + ^
STACK CFI 19121 $rbp: .cfa -16 + ^ .cfa: $rsp 16 +
STACK CFI 19122 $rbx: .cfa -24 + ^ .cfa: $rsp 24 +
STACK CFI 19134 .cfa: $rsp 32 +
STACK CFI 1914c .cfa: $rsp 24 +
STACK CFI 19153 .cfa: $rsp 16 +
STACK CFI 19154 .cfa: $rsp 8 +
STACK CFI INIT 55220 85 .cfa: $rsp 8 + .ra: .cfa -8 + ^
STACK CFI 55221 $rbx: .cfa -16 + ^ .cfa: $rsp 16 +
STACK CFI 55251 .cfa: $rsp 8 +
STACK CFI 55258 .cfa: $rsp 16 +
STACK CFI 5529f .cfa: $rsp 8 +
STACK CFI INIT 552b0 36 .cfa: $rsp 8 + .ra: .cfa -8 + ^
STACK CFI 552b8 $rbx: .cfa -16 + ^ .cfa: $rsp 16 +
STACK CFI 552e1 .cfa: $rsp 8 +
STACK CFI INIT 552f0 48 .cfa: $rsp 8 + .ra: .cfa -8 + ^
STACK CFI 552f8 $rbx: .cfa -16 + ^ .cfa: $rsp 16 +
STACK CFI 55333 .cfa: $rsp 8 +
STACK CFI INIT 55340 9 .cfa: $rsp 8 + .ra: .cfa -8 + ^
STACK CFI INIT 540a0 106 .cfa: $rsp 8 + .ra: .cfa -8 + ^
STACK CFI 540a2 $r12: .cfa -16 + ^ .cfa: $rsp 16 +
STACK CFI 540a3 $rbp: .cfa -24 + ^ .cfa: $rsp 24 +
STACK CFI 540a4 $rbx: .cfa -32 + ^ .cfa: $rsp 32 +
STACK CFI 540a8 .cfa: $rsp 112 +
STACK CFI 5417a .cfa: $rsp 32 +
STACK CFI 5417b .cfa: $rsp 24 +
STACK CFI 5417c .cfa: $rsp 16 +
STACK CFI 5417e .cfa: $rsp 8 +
STACK CFI 54180 .cfa: $rsp 112 +
STACK CFI INIT 541b0 17c .cfa: $rsp 8 + .ra: .cfa -8 + ^
STACK CFI 541b2 $r13: .cfa -16 + ^ .cfa: $rsp 16 +
STACK CFI 541b4 $r12: .cfa -24 + ^ .cfa: $rsp 24 +
STACK CFI 541b5 $rbp: .cfa -32 + ^ .cfa: $rsp 32 +
STACK CFI 541b6 $rbx: .cfa -40 + ^ .cfa: $rsp 40 +
STACK CFI 541bd .cfa: $rsp 176 +
STACK CFI 542ea .cfa: $rsp 40 +
STACK CFI 542eb .cfa: $rsp 32 +
STACK CFI 542ec .cfa: $rsp 24 +
STACK CFI 542ee .cfa: $rsp 16 +
STACK CFI 542f0 .cfa: $rsp 8 +
STACK CFI 542f1 .cfa: $rsp 176 +
STACK CFI INIT 54330 189 .cfa: $rsp 8 + .ra: .cfa -8 + ^
STACK CFI 54332 $r14: .cfa -16 + ^ .cfa: $rsp 16 +
STACK CFI 54334 $r13: .cfa -24 + ^ .cfa: $rsp 24 +
STACK CFI 54336 $r12: .cfa -32 + ^ .cfa: $rsp 32 +
STACK CFI 54337 $rbp: .cfa -40 + ^ .cfa: $rsp 40 +
STACK CFI 54338 $rbx: .cfa -48 + ^ .cfa: $rsp 48 +
STACK CFI 5433f .cfa: $rsp 176 +
STACK CFI 5437b .cfa: $rsp 48 +
STACK CFI 5437c .cfa: $rsp 40 +
STACK CFI 5437d .cfa: $rsp 32 +
STACK CFI 5437f .cfa: $rsp 24 +
STACK CFI 54381 .cfa: $rsp 16 +
STACK CFI 54383 .cfa: $rsp 8 +
STACK CFI 54388 .cfa: $rsp 176 +
STACK CFI INIT 544c0 c .cfa: $rsp 8 + .ra: .cfa -8 + ^
STACK CFI INIT 544d0 c .cfa: $rsp 8 + .ra: .cfa -8 + ^
STACK CFI INIT 544e0 c .cfa: $rsp 8 + .ra: .cfa -8 + ^
STACK CFI INIT 544f0 c .cfa: $rsp 8 + .ra: .cfa -8 + ^
STACK CFI INIT 54500 c .cfa: $rsp 8 + .ra: .cfa -8 + ^
STACK CFI INIT 54510 c .cfa: $rsp 8 + .ra: .cfa -8 + ^
STACK CFI INIT 54520 50 .cfa: $rsp 8 + .ra: .cfa -8 + ^
STACK CFI 54524 .cfa: $rsp 32 +
STACK CFI 5456a .cfa: $rsp 8 +
STACK CFI 5456b .cfa: $rsp 32 +
STACK CFI INIT 54570 5e .cfa: $rsp 8 + .ra: .cfa -8 + ^
STACK CFI 54574 .cfa: $rsp 32 +
STACK CFI 545c8 .cfa: $rsp 8 +
STACK CFI 545c9 .cfa: $rsp 32 +
STACK CFI INIT 545d0 30 .cfa: $rsp 8 + .ra: .cfa -8 + ^
STACK CFI 545e1 $rbx: .cfa -16 + ^ .cfa: $rsp 16 +
STACK CFI 545ff $rbx: $rbx .cfa: $rsp 8 +
STACK CFI INIT 55350 cf0 .cfa: $rsp 8 + .ra: .cfa -8 + ^
STACK CFI 55351 $rbp: .cfa -16 + ^ .cfa: $rsp 16 +
STACK CFI 55354 .cfa: $rbp 16 +
STACK CFI 5535c $r12: .cfa -48 + ^ $r13: .cfa -40 + ^ $r14: .cfa -32 + ^ $r15: .cfa -24 + ^
STACK CFI 55367 $rbx: .cfa -56 + ^
STACK CFI 553b5 .cfa: $rsp 8 +
STACK CFI 553b6 .cfa: $rbp 16 +
STACK CFI INIT 56040 cf0 .cfa: $rsp 8 + .ra: .cfa -8 + ^
STACK CFI 56041 $rbp: .cfa -16 + ^ .cfa: $rsp 16 +
STACK CFI 56044 .cfa: $rbp 16 +
STACK CFI 5604c $r12: .cfa -48 + ^ $r13: .cfa -40 + ^ $r14: .cfa -32 + ^ $r15: .cfa -24 + ^
STACK CFI 56057 $rbx: .cfa -56 + ^
STACK CFI 560a5 .cfa: $rsp 8 +
STACK CFI 560a6 .cfa: $rbp 16 +
STACK CFI INIT 56d30 36 .cfa: $rsp 8 + .ra: .cfa -8 + ^
STACK CFI 56d37 $r12: .cfa -16 + ^ .cfa: $rsp 16 +
STACK CFI 56d3b $rbp: .cfa -24 + ^ .cfa: $rsp 24 +
STACK CFI 56d3c $rbx: .cfa -32 + ^ .cfa: $rsp 32 +
STACK CFI 56d61 $rbx: $rbx .cfa: $rsp 24 +
STACK CFI 56d62 $rbp: $rbp .cfa: $rsp 16 +
STACK CFI 56d64 $r12: $r12 .cfa: $rsp 8 +
STACK CFI INIT 54600 375 .cfa: $rsp 8 + .ra: .cfa -8 + ^
STACK CFI 54602 $r15: .cfa -16 + ^ .cfa: $rsp 16 +
STACK CFI 54604 $r14: .cfa -24 + ^ .cfa: $rsp 24 +
STACK CFI 5460d $r13: .cfa -32 + ^ .cfa: $rsp 32 +
STACK CFI 5460f $r12: .cfa -40 + ^ .cfa: $rsp 40 +
STACK CFI 54610 $rbp: .cfa -48 + ^ .cfa: $rsp 48 +
STACK CFI 54611 $rbx: .cfa -56 + ^ .cfa: $rsp 56 +
STACK CFI 5461b .cfa: $rsp 304 +
STACK CFI 5488f .cfa: $rsp 56 +
STACK CFI 54890 .cfa: $rsp 48 +
STACK CFI 54891 .cfa: $rsp 40 +
STACK CFI 54893 .cfa: $rsp 32 +
STACK CFI 54895 .cfa: $rsp 24 +
STACK CFI 54897 .cfa: $rsp 16 +
STACK CFI 54899 .cfa: $rsp 8 +
STACK CFI 548a0 .cfa: $rsp 304 +
STACK CFI INIT 54980 10 .cfa: $rsp 8 + .ra: .cfa -8 + ^
STACK CFI INIT 54990 d0 .cfa: $rsp 8 + .ra: .cfa -8 + ^
STACK CFI 54991 $rbx: .cfa -16 + ^ .cfa: $rsp 16 +
STACK CFI 54995 .cfa: $rsp 32 +
STACK CFI 549d2 .cfa: $rsp 16 +
STACK CFI 549d3 .cfa: $rsp 8 +
STACK CFI 549d8 .cfa: $rsp 32 +
STACK CFI INIT 54a60 554 .cfa: $rsp 8 + .ra: .cfa -8 + ^
STACK CFI 54a62 $r15: .cfa -16 + ^ .cfa: $rsp 16 +
STACK CFI 54a64 $r14: .cfa -24 + ^ .cfa: $rsp 24 +
STACK CFI 54a6b $r13: .cfa -32 + ^ .cfa: $rsp 32 +
STACK CFI 54a6d $r12: .cfa -40 + ^ .cfa: $rsp 40 +
STACK CFI 54a6e $rbp: .cfa -48 + ^ .cfa: $rsp 48 +
STACK CFI 54a6f $rbx: .cfa -56 + ^ .cfa: $rsp 56 +
STACK CFI 54a76 .cfa: $rsp 2400 +
STACK CFI 54efc .cfa: $rsp 56 +
STACK CFI 54efd .cfa: $rsp 48 +
STACK CFI 54efe .cfa: $rsp 40 +
STACK CFI 54f00 .cfa: $rsp 32 +
STACK CFI 54f02 .cfa: $rsp 24 +
STACK CFI 54f04 .cfa: $rsp 16 +
STACK CFI 54f06 .cfa: $rsp 8 +
STACK CFI 54f07 .cfa: $rsp 2400 +
STACK CFI INIT 56d70 1ea .cfa: $rsp 8 + .ra: .cfa -8 + ^
STACK CFI 56d72 $r15: .cfa -16 + ^ .cfa: $rsp 16 +
STACK CFI 56d74 $r14: .cfa -24 + ^ .cfa: $rsp 24 +
STACK CFI 56d76 $r13: .cfa -32 + ^ .cfa: $rsp 32 +
STACK CFI 56d78 $r12: .cfa -40 + ^ .cfa: $rsp 40 +
STACK CFI 56d79 $rbp: .cfa -48 + ^ .cfa: $rsp 48 +
STACK CFI 56d7a $rbx: .cfa -56 + ^ .cfa: $rsp 56 +
STACK CFI 56d84 .cfa: $rsp 64 +
STACK CFI 56ef3 .cfa: $rsp 56 +
STACK CFI 56ef4 .cfa: $rsp 48 +
STACK CFI 56ef5 .cfa: $rsp 40 +
STACK CFI 56ef7 .cfa: $rsp 32 +
STACK CFI 56ef9 .cfa: $rsp 24 +
STACK CFI 56efb .cfa: $rsp 16 +
STACK CFI 56efd .cfa: $rsp 8 +
STACK CFI 56f00 .cfa: $rsp 64 +
STACK CFI INIT 56f60 1d6 .cfa: $rsp 8 + .ra: .cfa -8 + ^
STACK CFI 56f62 $r15: .cfa -16 + ^ .cfa: $rsp 16 +
STACK CFI 56f64 $r14: .cfa -24 + ^ .cfa: $rsp 24 +
STACK CFI 56f69 $r13: .cfa -32 + ^ .cfa: $rsp 32 +
STACK CFI 56f6b $r12: .cfa -40 + ^ .cfa: $rsp 40 +
STACK CFI 56f6f $rbp: .cfa -48 + ^ .cfa: $rsp 48 +
STACK CFI 56f70 $rbx: .cfa -56 + ^ .cfa: $rsp 56 +
STACK CFI 56f76 .cfa: $rsp 128 +
STACK CFI 570c7 .cfa: $rsp 56 +
STACK CFI 570c8 .cfa: $rsp 48 +
STACK CFI 570c9 .cfa: $rsp 40 +
STACK CFI 570cb .cfa: $rsp 32 +
STACK CFI 570cd .cfa: $rsp 24 +
STACK CFI 570cf .cfa: $rsp 16 +
STACK CFI 570d1 .cfa: $rsp 8 +
STACK CFI 570d2 .cfa: $rsp 128 +
STACK CFI INIT 57140 3a4 .cfa: $rsp 8 + .ra: .cfa -8 + ^
STACK CFI 57142 $r15: .cfa -16 + ^ .cfa: $rsp 16 +
STACK CFI 57144 $r14: .cfa -24 + ^ .cfa: $rsp 24 +
STACK CFI 57149 $r13: .cfa -32 + ^ .cfa: $rsp 32 +
STACK CFI 5714b $r12: .cfa -40 + ^ .cfa: $rsp 40 +
STACK CFI 5714f $rbp: .cfa -48 + ^ .cfa: $rsp 48 +
STACK CFI 57150 $rbx: .cfa -56 + ^ .cfa: $rsp 56 +
STACK CFI 57159 .cfa: $rsp 544 +
STACK CFI 57403 .cfa: $rsp 56 +
STACK CFI 57404 .cfa: $rsp 48 +
STACK CFI 57405 .cfa: $rsp 40 +
STACK CFI 57407 .cfa: $rsp 32 +
STACK CFI 57409 .cfa: $rsp 24 +
STACK CFI 5740b .cfa: $rsp 16 +
STACK CFI 5740d .cfa: $rsp 8 +
STACK CFI 57410 .cfa: $rsp 544 +
STACK CFI INIT 574f0 6d .cfa: $rsp 8 + .ra: .cfa -8 + ^
STACK CFI 574f4 .cfa: $rsp 32 +
STACK CFI 5752c .cfa: $rsp 8 +
STACK CFI 57530 .cfa: $rsp 32 +
STACK CFI INIT 19160 201 .cfa: $rsp 8 + .ra: .cfa -8 + ^
STACK CFI 19161 $rbp: .cfa -16 + ^ .cfa: $rsp 16 +
STACK CFI 19162 $rbx: .cfa -24 + ^ .cfa: $rsp 24 +
STACK CFI 1916d .cfa: $rsp 80 +
STACK CFI 19338 .cfa: $rsp 24 +
STACK CFI 19339 .cfa: $rsp 16 +
STACK CFI 1933a .cfa: $rsp 8 +
STACK CFI 1933b .cfa: $rsp 80 +
STACK CFI INIT 57560 f .cfa: $rsp 8 + .ra: .cfa -8 + ^
STACK CFI INIT 57570 1d .cfa: $rsp 8 + .ra: .cfa -8 + ^
STACK CFI INIT 57590 2d .cfa: $rsp 8 + .ra: .cfa -8 + ^
STACK CFI INIT 575c0 f .cfa: $rsp 8 + .ra: .cfa -8 + ^
STACK CFI INIT 575d0 1d .cfa: $rsp 8 + .ra: .cfa -8 + ^
STACK CFI INIT 575f0 2d .cfa: $rsp 8 + .ra: .cfa -8 + ^
STACK CFI INIT 57620 a3 .cfa: $rsp 8 + .ra: .cfa -8 + ^
STACK CFI INIT 576d0 23 .cfa: $rsp 8 + .ra: .cfa -8 + ^
STACK CFI INIT 57700 60 .cfa: $rsp 8 + .ra: .cfa -8 + ^
STACK CFI INIT 57760 2e .cfa: $rsp 8 + .ra: .cfa -8 + ^
STACK CFI INIT 57790 52 .cfa: $rsp 8 + .ra: .cfa -8 + ^
STACK CFI INIT 19370 2e .cfa: $rsp 8 + .ra: .cfa -8 + ^
STACK CFI 1937b .cfa: $rsp 16 +
STACK CFI 19399 .cfa: $rsp 8 +
STACK CFI INIT 58440 2 .cfa: $rsp 8 + .ra: .cfa -8 + ^
STACK CFI INIT 58450 2 .cfa: $rsp 8 + .ra: .cfa -8 + ^
STACK CFI INIT 58460 15 .cfa: $rsp 8 + .ra: .cfa -8 + ^
STACK CFI INIT 58480 d0 .cfa: $rsp 8 + .ra: .cfa -8 + ^
STACK CFI INIT 58550 2 .cfa: $rsp 8 + .ra: .cfa -8 + ^
STACK CFI INIT 58560 1a .cfa: $rsp 8 + .ra: .cfa -8 + ^
STACK CFI INIT 58580 23 .cfa: $rsp 8 + .ra: .cfa -8 + ^
STACK CFI INIT 585b0 2 .cfa: $rsp 8 + .ra: .cfa -8 + ^
STACK CFI INIT 585c0 2 .cfa: $rsp 8 + .ra: .cfa -8 + ^
STACK CFI INIT 585d0 2 .cfa: $rsp 8 + .ra: .cfa -8 + ^
STACK CFI INIT 577f0 2 .cfa: $rsp 8 + .ra: .cfa -8 + ^
STACK CFI INIT 585e0 25 .cfa: $rsp 8 + .ra: .cfa -8 + ^
STACK CFI 585e1 $rbx: .cfa -16 + ^ .cfa: $rsp 16 +
STACK CFI 58604 .cfa: $rsp 8 +
STACK CFI INIT 58610 1a .cfa: $rsp 8 + .ra: .cfa -8 + ^
STACK CFI 58611 $rbx: .cfa -16 + ^ .cfa: $rsp 16 +
STACK CFI 58629 .cfa: $rsp 8 +
STACK CFI INIT 58630 5 .cfa: $rsp 8 + .ra: .cfa -8 + ^
STACK CFI INIT 58640 5 .cfa: $rsp 8 + .ra: .cfa -8 + ^
STACK CFI INIT 58650 5 .cfa: $rsp 8 + .ra: .cfa -8 + ^
STACK CFI INIT 58660 5 .cfa: $rsp 8 + .ra: .cfa -8 + ^
STACK CFI INIT 58670 d .cfa: $rsp 8 + .ra: .cfa -8 + ^
STACK CFI INIT 58680 8 .cfa: $rsp 8 + .ra: .cfa -8 + ^
STACK CFI INIT 58690 5 .cfa: $rsp 8 + .ra: .cfa -8 + ^
STACK CFI INIT 586a0 a .cfa: $rsp 8 + .ra: .cfa -8 + ^
STACK CFI INIT 57800 c2 .cfa: $rsp 8 + .ra: .cfa -8 + ^
STACK CFI 57802 $r12: .cfa -16 + ^ .cfa: $rsp 16 +
STACK CFI 57803 $rbp: .cfa -24 + ^ .cfa: $rsp 24 +
STACK CFI 57807 $rbx: .cfa -32 + ^ .cfa: $rsp 32 +
STACK CFI 5780e .cfa: $rsp 48 +
STACK CFI 5787a .cfa: $rsp 32 +
STACK CFI 5787b .cfa: $rsp 24 +
STACK CFI 5787c .cfa: $rsp 16 +
STACK CFI 5787e .cfa: $rsp 8 +
STACK CFI 57880 .cfa: $rsp 48 +
STACK CFI INIT 578d0 2 .cfa: $rsp 8 + .ra: .cfa -8 + ^
STACK CFI INIT 578e0 1f6 .cfa: $rsp 8 + .ra: .cfa -8 + ^
STACK CFI 578e2 $r15: .cfa -16 + ^ .cfa: $rsp 16 +
STACK CFI 578e4 $r14: .cfa -24 + ^ .cfa: $rsp 24 +
STACK CFI 578eb $r13: .cfa -32 + ^ .cfa: $rsp 32 +
STACK CFI 578ed $r12: .cfa -40 + ^ .cfa: $rsp 40 +
STACK CFI 578ee $rbp: .cfa -48 + ^ .cfa: $rsp 48 +
STACK CFI 578ef $rbx: .cfa -56 + ^ .cfa: $rsp 56 +
STACK CFI 57900 .cfa: $rsp 240 +
STACK CFI 5796f .cfa: $rsp 56 +
STACK CFI 57970 .cfa: $rsp 48 +
STACK CFI 57971 .cfa: $rsp 40 +
STACK CFI 57973 .cfa: $rsp 32 +
STACK CFI 57975 .cfa: $rsp 24 +
STACK CFI 57977 .cfa: $rsp 16 +
STACK CFI 57979 .cfa: $rsp 8 +
STACK CFI 57980 .cfa: $rsp 240 +
STACK CFI INIT 57ae0 165 .cfa: $rsp 8 + .ra: .cfa -8 + ^
STACK CFI 57ae2 $r13: .cfa -16 + ^ .cfa: $rsp 16 +
STACK CFI 57ae4 $r12: .cfa -24 + ^ .cfa: $rsp 24 +
STACK CFI 57ae8 $rbp: .cfa -32 + ^ .cfa: $rsp 32 +
STACK CFI 57ae9 $rbx: .cfa -40 + ^ .cfa: $rsp 40 +
STACK CFI 57aff .cfa: $rsp 224 +
STACK CFI 57b7b .cfa: $rsp 40 +
STACK CFI 57b7c .cfa: $rsp 32 +
STACK CFI 57b7d .cfa: $rsp 24 +
STACK CFI 57b7f .cfa: $rsp 16 +
STACK CFI 57b81 .cfa: $rsp 8 +
STACK CFI 57b88 .cfa: $rsp 224 +
STACK CFI INIT 57c50 ef .cfa: $rsp 8 + .ra: .cfa -8 + ^
STACK CFI 57c60 $r15: .cfa -16 + ^ .cfa: $rsp 16 +
STACK CFI 57c62 $r14: .cfa -24 + ^ .cfa: $rsp 24 +
STACK CFI 57c6b $r13: .cfa -32 + ^ .cfa: $rsp 32 +
STACK CFI 57c6d $r12: .cfa -40 + ^ .cfa: $rsp 40 +
STACK CFI 57c71 $rbp: .cfa -48 + ^ .cfa: $rsp 48 +
STACK CFI 57c72 $rbx: .cfa -56 + ^ .cfa: $rsp 56 +
STACK CFI 57c80 .cfa: $rsp 64 +
STACK CFI 57d29 .cfa: $rsp 56 +
STACK CFI 57d2a $rbx: $rbx .cfa: $rsp 48 +
STACK CFI 57d2b $rbp: $rbp .cfa: $rsp 40 +
STACK CFI 57d2d $r12: $r12 .cfa: $rsp 32 +
STACK CFI 57d2f $r13: $r13 .cfa: $rsp 24 +
STACK CFI 57d31 $r14: $r14 .cfa: $rsp 16 +
STACK CFI 57d33 $r15: $r15 .cfa: $rsp 8 +
STACK CFI INIT 586b0 cf0 .cfa: $rsp 8 + .ra: .cfa -8 + ^
STACK CFI 586b1 $rbp: .cfa -16 + ^ .cfa: $rsp 16 +
STACK CFI 586b4 .cfa: $rbp 16 +
STACK CFI 586bc $r12: .cfa -48 + ^ $r13: .cfa -40 + ^ $r14: .cfa -32 + ^ $r15: .cfa -24 + ^
STACK CFI 586c7 $rbx: .cfa -56 + ^
STACK CFI 58715 .cfa: $rsp 8 +
STACK CFI 58716 .cfa: $rbp 16 +
STACK CFI INIT 57d40 46d .cfa: $rsp 8 + .ra: .cfa -8 + ^
STACK CFI 57d42 $r14: .cfa -16 + ^ .cfa: $rsp 16 +
STACK CFI 57d44 $r13: .cfa -24 + ^ .cfa: $rsp 24 +
STACK CFI 57d49 $r12: .cfa -32 + ^ .cfa: $rsp 32 +
STACK CFI 57d4a $rbp: .cfa -40 + ^ .cfa: $rsp 40 +
STACK CFI 57d4b $rbx: .cfa -48 + ^ .cfa: $rsp 48 +
STACK CFI 57d55 .cfa: $rsp 1344 +
STACK CFI 57e89 .cfa: $rsp 48 +
STACK CFI 57e8a .cfa: $rsp 40 +
STACK CFI 57e8b .cfa: $rsp 32 +
STACK CFI 57e8d .cfa: $rsp 24 +
STACK CFI 57e8f .cfa: $rsp 16 +
STACK CFI 57e91 .cfa: $rsp 8 +
STACK CFI 57e98 .cfa: $rsp 1344 +
STACK CFI INIT 581b0 289 .cfa: $rsp 8 + .ra: .cfa -8 + ^
STACK CFI 581b2 $r15: .cfa -16 + ^ .cfa: $rsp 16 +
STACK CFI 581b4 $r14: .cfa -24 + ^ .cfa: $rsp 24 +
STACK CFI 581bb $r13: .cfa -32 + ^ .cfa: $rsp 32 +
STACK CFI 581bd $r12: .cfa -40 + ^ .cfa: $rsp 40 +
STACK CFI 581c1 $rbp: .cfa -48 + ^ .cfa: $rsp 48 +
STACK CFI 581c2 $rbx: .cfa -56 + ^ .cfa: $rsp 56 +
STACK CFI 581cd .cfa: $rsp 128 +
STACK CFI 582be .cfa: $rsp 56 +
STACK CFI 582bf .cfa: $rsp 48 +
STACK CFI 582c0 .cfa: $rsp 40 +
STACK CFI 582c2 .cfa: $rsp 32 +
STACK CFI 582c4 .cfa: $rsp 24 +
STACK CFI 582c6 .cfa: $rsp 16 +
STACK CFI 582c8 .cfa: $rsp 8 +
STACK CFI 582d0 .cfa: $rsp 128 +
STACK CFI INIT 193a0 fd .cfa: $rsp 8 + .ra: .cfa -8 + ^
STACK CFI 193a1 $rbp: .cfa -16 + ^ .cfa: $rsp 16 +
STACK CFI 193a2 $rbx: .cfa -24 + ^ .cfa: $rsp 24 +
STACK CFI 193b9 .cfa: $rsp 32 +
STACK CFI 19481 .cfa: $rsp 24 +
STACK CFI 19490 .cfa: $rsp 16 +
STACK CFI 19491 .cfa: $rsp 8 +
STACK CFI INIT 593a0 163 .cfa: $rsp 8 + .ra: .cfa -8 + ^
STACK CFI 593a1 $rbx: .cfa -16 + ^ .cfa: $rsp 16 +
STACK CFI 593a8 .cfa: $rsp 80 +
STACK CFI 594e4 .cfa: $rsp 16 +
STACK CFI 594e5 .cfa: $rsp 8 +
STACK CFI 594f0 .cfa: $rsp 80 +
STACK CFI INIT 59510 a9 .cfa: $rsp 8 + .ra: .cfa -8 + ^
STACK CFI 59514 .cfa: $rsp 80 +
STACK CFI 595af .cfa: $rsp 8 +
STACK CFI 595b0 .cfa: $rsp 80 +
STACK CFI INIT 595c0 7c .cfa: $rsp 8 + .ra: .cfa -8 + ^
STACK CFI 595c1 $rbp: .cfa -16 + ^ .cfa: $rsp 16 +
STACK CFI 595c2 $rbx: .cfa -24 + ^ .cfa: $rsp 24 +
STACK CFI 595cb .cfa: $rsp 80 +
STACK CFI 59634 .cfa: $rsp 24 +
STACK CFI 59635 .cfa: $rsp 16 +
STACK CFI 59636 .cfa: $rsp 8 +
STACK CFI 59637 .cfa: $rsp 80 +
STACK CFI INIT 59640 fc .cfa: $rsp 8 + .ra: .cfa -8 + ^
STACK CFI 59642 $r15: .cfa -16 + ^ .cfa: $rsp 16 +
STACK CFI 59644 $r14: .cfa -24 + ^ .cfa: $rsp 24 +
STACK CFI 59646 $r13: .cfa -32 + ^ .cfa: $rsp 32 +
STACK CFI 59648 $r12: .cfa -40 + ^ .cfa: $rsp 40 +
STACK CFI 5964c $rbp: .cfa -48 + ^ .cfa: $rsp 48 +
STACK CFI 5964d $rbx: .cfa -56 + ^ .cfa: $rsp 56 +
STACK CFI 59657 .cfa: $rsp 128 +
STACK CFI 5971f .cfa: $rsp 56 +
STACK CFI 59720 .cfa: $rsp 48 +
STACK CFI 59721 .cfa: $rsp 40 +
STACK CFI 59723 .cfa: $rsp 32 +
STACK CFI 59725 .cfa: $rsp 24 +
STACK CFI 59727 .cfa: $rsp 16 +
STACK CFI 59729 .cfa: $rsp 8 +
STACK CFI 59730 .cfa: $rsp 128 +
STACK CFI INIT 59740 292 .cfa: $rsp 8 + .ra: .cfa -8 + ^
STACK CFI 59742 $r15: .cfa -16 + ^ .cfa: $rsp 16 +
STACK CFI 59744 $r14: .cfa -24 + ^ .cfa: $rsp 24 +
STACK CFI 59749 $r13: .cfa -32 + ^ .cfa: $rsp 32 +
STACK CFI 5974b $r12: .cfa -40 + ^ .cfa: $rsp 40 +
STACK CFI 59753 $rbp: .cfa -48 + ^ .cfa: $rsp 48 +
STACK CFI 59754 $rbx: .cfa -56 + ^ .cfa: $rsp 56 +
STACK CFI 59768 .cfa: $rsp 2192 +
STACK CFI 5983b .cfa: $rsp 56 +
STACK CFI 5983c .cfa: $rsp 48 +
STACK CFI 5983d .cfa: $rsp 40 +
STACK CFI 5983f .cfa: $rsp 32 +
STACK CFI 59841 .cfa: $rsp 24 +
STACK CFI 59843 .cfa: $rsp 16 +
STACK CFI 59845 .cfa: $rsp 8 +
STACK CFI 59850 .cfa: $rsp 2192 +
STACK CFI 598a1 .cfa: $rsp 2200 +
STACK CFI 598ad .cfa: $rsp 2208 +
STACK CFI 598b7 .cfa: $rsp 2216 +
STACK CFI 598c1 .cfa: $rsp 2224 +
STACK CFI 598ce .cfa: $rsp 2192 +
STACK CFI INIT 599e0 50 .cfa: $rsp 8 + .ra: .cfa -8 + ^
STACK CFI 599e1 $rbx: .cfa -16 + ^ .cfa: $rsp 16 +
STACK CFI 599f7 .cfa: $rsp 24 +
STACK CFI 59a01 .cfa: $rsp 32 +
STACK CFI 59a0d .cfa: $rsp 24 +
STACK CFI 59a0e .cfa: $rsp 16 +
STACK CFI 59a0f .cfa: $rsp 8 +
STACK CFI 59a10 .cfa: $rsp 16 +
STACK CFI 59a2f .cfa: $rsp 8 +
STACK CFI INIT 194a0 2e .cfa: $rsp 8 + .ra: .cfa -8 + ^
STACK CFI 194ab .cfa: $rsp 16 +
STACK CFI 194c9 .cfa: $rsp 8 +
STACK CFI INIT 59a30 1e .cfa: $rsp 8 + .ra: .cfa -8 + ^
STACK CFI 59a34 .cfa: $rsp 16 +
STACK CFI 59a4d .cfa: $rsp 8 +
STACK CFI INIT 59a50 34 .cfa: $rsp 8 + .ra: .cfa -8 + ^
STACK CFI 59a51 $rbp: .cfa -16 + ^ .cfa: $rsp 16 +
STACK CFI 59a52 $rbx: .cfa -24 + ^ .cfa: $rsp 24 +
STACK CFI 59a64 .cfa: $rsp 32 +
STACK CFI 59a81 .cfa: $rsp 24 +
STACK CFI 59a82 .cfa: $rsp 16 +
STACK CFI 59a83 .cfa: $rsp 8 +
STACK CFI INIT 59a90 30a .cfa: $rsp 8 + .ra: .cfa -8 + ^
STACK CFI 59a92 $r15: .cfa -16 + ^ .cfa: $rsp 16 +
STACK CFI 59a94 $r14: .cfa -24 + ^ .cfa: $rsp 24 +
STACK CFI 59a96 $r13: .cfa -32 + ^ .cfa: $rsp 32 +
STACK CFI 59a98 $r12: .cfa -40 + ^ .cfa: $rsp 40 +
STACK CFI 59a99 $rbp: .cfa -48 + ^ .cfa: $rsp 48 +
STACK CFI 59a9a $rbx: .cfa -56 + ^ .cfa: $rsp 56 +
STACK CFI 59aa1 .cfa: $rsp 624 +
STACK CFI 59ce5 .cfa: $rsp 56 +
STACK CFI 59ce6 .cfa: $rsp 48 +
STACK CFI 59ce7 .cfa: $rsp 40 +
STACK CFI 59ce9 .cfa: $rsp 32 +
STACK CFI 59ceb .cfa: $rsp 24 +
STACK CFI 59ced .cfa: $rsp 16 +
STACK CFI 59cef .cfa: $rsp 8 +
STACK CFI 59cf0 .cfa: $rsp 624 +
STACK CFI 59d24 .cfa: $rsp 632 +
STACK CFI 59d2a .cfa: $rsp 640 +
STACK CFI 59d54 .cfa: $rsp 632 +
STACK CFI 59d55 .cfa: $rsp 624 +
STACK CFI INIT 59da0 87 .cfa: $rsp 8 + .ra: .cfa -8 + ^
STACK CFI 59da1 $rbp: .cfa -16 + ^ .cfa: $rsp 16 +
STACK CFI 59da2 $rbx: .cfa -24 + ^ .cfa: $rsp 24 +
STACK CFI 59daf .cfa: $rsp 96 +
STACK CFI 59e1f .cfa: $rsp 24 +
STACK CFI 59e20 .cfa: $rsp 16 +
STACK CFI 59e21 .cfa: $rsp 8 +
STACK CFI 59e22 .cfa: $rsp 96 +
STACK CFI INIT 59e30 8a .cfa: $rsp 8 + .ra: .cfa -8 + ^
STACK CFI 59e31 $rbp: .cfa -16 + ^ .cfa: $rsp 16 +
STACK CFI 59e32 $rbx: .cfa -24 + ^ .cfa: $rsp 24 +
STACK CFI 59e3f .cfa: $rsp 96 +
STACK CFI 59eb2 .cfa: $rsp 24 +
STACK CFI 59eb3 .cfa: $rsp 16 +
STACK CFI 59eb4 .cfa: $rsp 8 +
STACK CFI 59eb5 .cfa: $rsp 96 +
STACK CFI INIT 59ec0 1af .cfa: $rsp 8 + .ra: .cfa -8 + ^
STACK CFI 59ec2 $r12: .cfa -16 + ^ .cfa: $rsp 16 +
STACK CFI 59ec3 $rbp: .cfa -24 + ^ .cfa: $rsp 24 +
STACK CFI 59ec4 $rbx: .cfa -32 + ^ .cfa: $rsp 32 +
STACK CFI 59ec8 .cfa: $rsp 128 +
STACK CFI 59f2d .cfa: $rsp 32 +
STACK CFI 59f2e .cfa: $rsp 24 +
STACK CFI 59f2f .cfa: $rsp 16 +
STACK CFI 59f31 .cfa: $rsp 8 +
STACK CFI 59f38 .cfa: $rsp 128 +
STACK CFI INIT 5a070 68 .cfa: $rsp 8 + .ra: .cfa -8 + ^
STACK CFI 5a071 $rbx: .cfa -16 + ^ .cfa: $rsp 16 +
STACK CFI 5a078 .cfa: $rsp 64 +
STACK CFI 5a0d1 .cfa: $rsp 16 +
STACK CFI 5a0d2 .cfa: $rsp 8 +
STACK CFI 5a0d3 .cfa: $rsp 64 +
STACK CFI INIT 5a0e0 52 .cfa: $rsp 8 + .ra: .cfa -8 + ^
STACK CFI 5a0e1 $rbx: .cfa -16 + ^ .cfa: $rsp 16 +
STACK CFI 5a0e8 .cfa: $rsp 48 +
STACK CFI 5a12b .cfa: $rsp 16 +
STACK CFI 5a12c .cfa: $rsp 8 +
STACK CFI 5a12d .cfa: $rsp 48 +
STACK CFI INIT 5a140 b5 .cfa: $rsp 8 + .ra: .cfa -8 + ^
STACK CFI 5a142 $r12: .cfa -16 + ^ .cfa: $rsp 16 +
STACK CFI 5a143 $rbp: .cfa -24 + ^ .cfa: $rsp 24 +
STACK CFI 5a147 $rbx: .cfa -32 + ^ .cfa: $rsp 32 +
STACK CFI 5a14f .cfa: $rsp 112 +
STACK CFI 5a181 .cfa: $rsp 144 +
STACK CFI 5a1d7 .cfa: $rsp 112 +
STACK CFI 5a1eb .cfa: $rsp 32 +
STACK CFI 5a1ec .cfa: $rsp 24 +
STACK CFI 5a1ed .cfa: $rsp 16 +
STACK CFI 5a1ef .cfa: $rsp 8 +
STACK CFI 5a1f0 .cfa: $rsp 112 +
STACK CFI INIT 5a200 cd .cfa: $rsp 8 + .ra: .cfa -8 + ^
STACK CFI 5a202 $r12: .cfa -16 + ^ .cfa: $rsp 16 +
STACK CFI 5a203 $rbp: .cfa -24 + ^ .cfa: $rsp 24 +
STACK CFI 5a208 $rbx: .cfa -32 + ^ .cfa: $rsp 32 +
STACK CFI 5a20f .cfa: $rsp 48 +
STACK CFI 5a29e .cfa: $rsp 32 +
STACK CFI 5a29f .cfa: $rsp 24 +
STACK CFI 5a2a0 .cfa: $rsp 16 +
STACK CFI 5a2a2 .cfa: $rsp 8 +
STACK CFI 5a2a8 .cfa: $rsp 48 +
STACK CFI INIT 5a2d0 7dc .cfa: $rsp 8 + .ra: .cfa -8 + ^
STACK CFI 5a2d2 $r15: .cfa -16 + ^ .cfa: $rsp 16 +
STACK CFI 5a2d4 $r14: .cfa -24 + ^ .cfa: $rsp 24 +
STACK CFI 5a2d6 $r13: .cfa -32 + ^ .cfa: $rsp 32 +
STACK CFI 5a2d8 $r12: .cfa -40 + ^ .cfa: $rsp 40 +
STACK CFI 5a2d9 $rbp: .cfa -48 + ^ .cfa: $rsp 48 +
STACK CFI 5a2da $rbx: .cfa -56 + ^ .cfa: $rsp 56 +
STACK CFI 5a2e1 .cfa: $rsp 304 +
STACK CFI 5a31f .cfa: $rsp 56 +
STACK CFI 5a320 .cfa: $rsp 48 +
STACK CFI 5a321 .cfa: $rsp 40 +
STACK CFI 5a323 .cfa: $rsp 32 +
STACK CFI 5a325 .cfa: $rsp 24 +
STACK CFI 5a327 .cfa: $rsp 16 +
STACK CFI 5a329 .cfa: $rsp 8 +
STACK CFI 5a330 .cfa: $rsp 304 +
STACK CFI 5a382 .cfa: $rsp 336 +
STACK CFI 5a41b .cfa: $rsp 304 +
STACK CFI 5a9d8 .cfa: $rsp 336 +
STACK CFI 5aa28 .cfa: $rsp 304 +
STACK CFI INIT 5aab0 11f .cfa: $rsp 8 + .ra: .cfa -8 + ^
STACK CFI 5aab2 $r14: .cfa -16 + ^ .cfa: $rsp 16 +
STACK CFI 5aab4 $r13: .cfa -24 + ^ .cfa: $rsp 24 +
STACK CFI 5aab6 $r12: .cfa -32 + ^ .cfa: $rsp 32 +
STACK CFI 5aab7 $rbp: .cfa -40 + ^ .cfa: $rsp 40 +
STACK CFI 5aabb $rbx: .cfa -48 + ^ .cfa: $rsp 48 +
STACK CFI 5aac1 .cfa: $rsp 128 +
STACK CFI 5ab60 .cfa: $rsp 48 +
STACK CFI 5ab61 .cfa: $rsp 40 +
STACK CFI 5ab62 .cfa: $rsp 32 +
STACK CFI 5ab64 .cfa: $rsp 24 +
STACK CFI 5ab66 .cfa: $rsp 16 +
STACK CFI 5ab68 .cfa: $rsp 8 +
STACK CFI 5ab70 .cfa: $rsp 128 +
STACK CFI 5ab79 .cfa: $rsp 136 +
STACK CFI 5ab89 .cfa: $rsp 144 +
STACK CFI 5aba4 .cfa: $rsp 136 +
STACK CFI 5aba5 .cfa: $rsp 128 +
STACK CFI INIT 5abd0 84 .cfa: $rsp 8 + .ra: .cfa -8 + ^
STACK CFI 5abd2 $r12: .cfa -16 + ^ .cfa: $rsp 16 +
STACK CFI 5abd3 $rbp: .cfa -24 + ^ .cfa: $rsp 24 +
STACK CFI 5abd6 $rbx: .cfa -32 + ^ .cfa: $rsp 32 +
STACK CFI 5abdd .cfa: $rsp 64 +
STACK CFI 5ac4a .cfa: $rsp 32 +
STACK CFI 5ac4b .cfa: $rsp 24 +
STACK CFI 5ac4c .cfa: $rsp 16 +
STACK CFI 5ac4e .cfa: $rsp 8 +
STACK CFI 5ac4f .cfa: $rsp 64 +
STACK CFI INIT 5ac60 1b2 .cfa: $rsp 8 + .ra: .cfa -8 + ^
STACK CFI 5ac62 $r15: .cfa -16 + ^ .cfa: $rsp 16 +
STACK CFI 5ac64 $r14: .cfa -24 + ^ .cfa: $rsp 24 +
STACK CFI 5ac69 $r13: .cfa -32 + ^ .cfa: $rsp 32 +
STACK CFI 5ac6b $r12: .cfa -40 + ^ .cfa: $rsp 40 +
STACK CFI 5ac6f $rbp: .cfa -48 + ^ .cfa: $rsp 48 +
STACK CFI 5ac70 $rbx: .cfa -56 + ^ .cfa: $rsp 56 +
STACK CFI 5ac7a .cfa: $rsp 176 +
STACK CFI 5ad6e .cfa: $rsp 184 +
STACK CFI 5ad70 .cfa: $rsp 192 +
STACK CFI 5ad72 .cfa: $rsp 200 +
STACK CFI 5ad73 .cfa: $rsp 208 +
STACK CFI 5ad7f .cfa: $rsp 176 +
STACK CFI 5adb4 .cfa: $rsp 56 +
STACK CFI 5adb5 .cfa: $rsp 48 +
STACK CFI 5adb6 .cfa: $rsp 40 +
STACK CFI 5adb8 .cfa: $rsp 32 +
STACK CFI 5adba .cfa: $rsp 24 +
STACK CFI 5adbc .cfa: $rsp 16 +
STACK CFI 5adbe .cfa: $rsp 8 +
STACK CFI 5adc0 .cfa: $rsp 176 +
STACK CFI INIT 5ae20 15d .cfa: $rsp 8 + .ra: .cfa -8 + ^
STACK CFI 5ae22 $r15: .cfa -16 + ^ .cfa: $rsp 16 +
STACK CFI 5ae24 $r14: .cfa -24 + ^ .cfa: $rsp 24 +
STACK CFI 5ae29 $r13: .cfa -32 + ^ .cfa: $rsp 32 +
STACK CFI 5ae2b $r12: .cfa -40 + ^ .cfa: $rsp 40 +
STACK CFI 5ae2f $rbp: .cfa -48 + ^ .cfa: $rsp 48 +
STACK CFI 5ae30 $rbx: .cfa -56 + ^ .cfa: $rsp 56 +
STACK CFI 5ae3a .cfa: $rsp 176 +
STACK CFI 5af6d .cfa: $rsp 56 +
STACK CFI 5af6e .cfa: $rsp 48 +
STACK CFI 5af6f .cfa: $rsp 40 +
STACK CFI 5af71 .cfa: $rsp 32 +
STACK CFI 5af73 .cfa: $rsp 24 +
STACK CFI 5af75 .cfa: $rsp 16 +
STACK CFI 5af77 .cfa: $rsp 8 +
STACK CFI 5af78 .cfa: $rsp 176 +
STACK CFI INIT 5af80 4f .cfa: $rsp 8 + .ra: .cfa -8 + ^
STACK CFI 5af8c $r12: .cfa -16 + ^ .cfa: $rsp 16 +
STACK CFI 5af8d $rbp: .cfa -24 + ^ .cfa: $rsp 24 +
STACK CFI 5af95 $rbx: .cfa -32 + ^ .cfa: $rsp 32 +
STACK CFI 5afca $rbx: $rbx .cfa: $rsp 24 +
STACK CFI 5afcb $rbp: $rbp .cfa: $rsp 16 +
STACK CFI 5afcd $r12: $r12 .cfa: $rsp 8 +
STACK CFI INIT 5afd0 52 .cfa: $rsp 8 + .ra: .cfa -8 + ^
STACK CFI 5afdb $rbp: .cfa -16 + ^ .cfa: $rsp 16 +
STACK CFI 5afdc $rbx: .cfa -24 + ^ .cfa: $rsp 24 +
STACK CFI 5afe9 .cfa: $rsp 32 +
STACK CFI 5b01e .cfa: $rsp 24 +
STACK CFI 5b01f $rbx: $rbx .cfa: $rsp 16 +
STACK CFI 5b020 $rbp: $rbp .cfa: $rsp 8 +
STACK CFI INIT 194d0 ad .cfa: $rsp 8 + .ra: .cfa -8 + ^
STACK CFI 194d2 $r12: .cfa -16 + ^ .cfa: $rsp 16 +
STACK CFI 194da $rbp: .cfa -24 + ^ .cfa: $rsp 24 +
STACK CFI 194db $rbx: .cfa -32 + ^ .cfa: $rsp 32 +
STACK CFI 1952a .cfa: $rsp 24 +
STACK CFI 1952b .cfa: $rsp 16 +
STACK CFI 1952d .cfa: $rsp 8 +
STACK CFI 19542 .cfa: $rsp 32 +
STACK CFI INIT 5b030 c2 .cfa: $rsp 8 + .ra: .cfa -8 + ^
STACK CFI 5b032 $r12: .cfa -16 + ^ .cfa: $rsp 16 +
STACK CFI 5b033 $rbp: .cfa -24 + ^ .cfa: $rsp 24 +
STACK CFI 5b037 $rbx: .cfa -32 + ^ .cfa: $rsp 32 +
STACK CFI 5b03e .cfa: $rsp 48 +
STACK CFI 5b0aa .cfa: $rsp 32 +
STACK CFI 5b0ab .cfa: $rsp 24 +
STACK CFI 5b0ac .cfa: $rsp 16 +
STACK CFI 5b0ae .cfa: $rsp 8 +
STACK CFI 5b0b0 .cfa: $rsp 48 +
STACK CFI INIT 5b100 ac .cfa: $rsp 8 + .ra: .cfa -8 + ^
STACK CFI 5b101 $rbp: .cfa -16 + ^ .cfa: $rsp 16 +
STACK CFI 5b102 $rbx: .cfa -24 + ^ .cfa: $rsp 24 +
STACK CFI 5b10b .cfa: $rsp 32 +
STACK CFI 5b196 .cfa: $rsp 24 +
STACK CFI 5b197 .cfa: $rsp 16 +
STACK CFI 5b198 .cfa: $rsp 8 +
STACK CFI 5b1a0 .cfa: $rsp 32 +
STACK CFI 5b1a4 .cfa: $rsp 24 +
STACK CFI 5b1aa .cfa: $rsp 16 +
STACK CFI 5b1ab .cfa: $rsp 8 +
STACK CFI INIT 5b1b0 14 .cfa: $rsp 8 + .ra: .cfa -8 + ^
STACK CFI INIT 5b1d0 53 .cfa: $rsp 8 + .ra: .cfa -8 + ^
STACK CFI INIT 5b230 aa .cfa: $rsp 8 + .ra: .cfa -8 + ^
STACK CFI 5b231 $rbp: .cfa -16 + ^ .cfa: $rsp 16 +
STACK CFI 5b232 $rbx: .cfa -24 + ^ .cfa: $rsp 24 +
STACK CFI 5b236 .cfa: $rsp 96 +
STACK CFI 5b28c .cfa: $rsp 24 +
STACK CFI 5b28d .cfa: $rsp 16 +
STACK CFI 5b28e .cfa: $rsp 8 +
STACK CFI 5b28f .cfa: $rsp 96 +
STACK CFI INIT 19580 2e .cfa: $rsp 8 + .ra: .cfa -8 + ^
STACK CFI 1958b .cfa: $rsp 16 +
STACK CFI 195a9 .cfa: $rsp 8 +
STACK CFI INIT 5b2e0 b .cfa: $rsp 8 + .ra: .cfa -8 + ^
STACK CFI INIT 5b950 2 .cfa: $rsp 8 + .ra: .cfa -8 + ^
STACK CFI INIT 5b960 2 .cfa: $rsp 8 + .ra: .cfa -8 + ^
STACK CFI INIT 5b970 2 .cfa: $rsp 8 + .ra: .cfa -8 + ^
STACK CFI INIT 5b980 5 .cfa: $rsp 8 + .ra: .cfa -8 + ^
STACK CFI INIT 5b990 5 .cfa: $rsp 8 + .ra: .cfa -8 + ^
STACK CFI INIT 5b9a0 5 .cfa: $rsp 8 + .ra: .cfa -8 + ^
STACK CFI INIT 5b2f0 12 .cfa: $rsp 8 + .ra: .cfa -8 + ^
STACK CFI 5b2f4 .cfa: $rsp 16 +
STACK CFI 5b2fd .cfa: $rsp 8 +
STACK CFI INIT 5b310 c2 .cfa: $rsp 8 + .ra: .cfa -8 + ^
STACK CFI 5b312 $r12: .cfa -16 + ^ .cfa: $rsp 16 +
STACK CFI 5b313 $rbp: .cfa -24 + ^ .cfa: $rsp 24 +
STACK CFI 5b317 $rbx: .cfa -32 + ^ .cfa: $rsp 32 +
STACK CFI 5b31e .cfa: $rsp 48 +
STACK CFI 5b38a .cfa: $rsp 32 +
STACK CFI 5b38b .cfa: $rsp 24 +
STACK CFI 5b38c .cfa: $rsp 16 +
STACK CFI 5b38e .cfa: $rsp 8 +
STACK CFI 5b390 .cfa: $rsp 48 +
STACK CFI INIT 5b9b0 9e .cfa: $rsp 8 + .ra: .cfa -8 + ^
STACK CFI 5ba06 $rbp: .cfa -16 + ^ .cfa: $rsp 16 +
STACK CFI 5ba07 $rbx: .cfa -24 + ^ .cfa: $rsp 24 +
STACK CFI 5ba14 .cfa: $rsp 32 +
STACK CFI 5ba1d .cfa: $rsp 24 +
STACK CFI 5ba24 $rbx: $rbx .cfa: $rsp 16 +
STACK CFI 5ba25 $rbp: $rbp .cfa: $rsp 8 +
STACK CFI INIT 5ba50 9e .cfa: $rsp 8 + .ra: .cfa -8 + ^
STACK CFI 5baa6 $rbp: .cfa -16 + ^ .cfa: $rsp 16 +
STACK CFI 5baa7 $rbx: .cfa -24 + ^ .cfa: $rsp 24 +
STACK CFI 5bab4 .cfa: $rsp 32 +
STACK CFI 5babd .cfa: $rsp 24 +
STACK CFI 5bac4 $rbx: $rbx .cfa: $rsp 16 +
STACK CFI 5bac5 $rbp: $rbp .cfa: $rsp 8 +
STACK CFI INIT 5baf0 8d .cfa: $rsp 8 + .ra: .cfa -8 + ^
STACK CFI 5baf1 $rbp: .cfa -16 + ^ .cfa: $rsp 16 +
STACK CFI 5baf2 $rbx: .cfa -24 + ^ .cfa: $rsp 24 +
STACK CFI 5bb04 .cfa: $rsp 80 +
STACK CFI 5bb58 .cfa: $rsp 24 +
STACK CFI 5bb59 .cfa: $rsp 16 +
STACK CFI 5bb5a .cfa: $rsp 8 +
STACK CFI 5bb5b .cfa: $rsp 80 +
STACK CFI INIT 5bb80 8d .cfa: $rsp 8 + .ra: .cfa -8 + ^
STACK CFI 5bb81 $rbp: .cfa -16 + ^ .cfa: $rsp 16 +
STACK CFI 5bb82 $rbx: .cfa -24 + ^ .cfa: $rsp 24 +
STACK CFI 5bb94 .cfa: $rsp 80 +
STACK CFI 5bbe8 .cfa: $rsp 24 +
STACK CFI 5bbe9 .cfa: $rsp 16 +
STACK CFI 5bbea .cfa: $rsp 8 +
STACK CFI 5bbeb .cfa: $rsp 80 +
STACK CFI INIT 5bc10 108 .cfa: $rsp 8 + .ra: .cfa -8 + ^
STACK CFI 5bc12 $r15: .cfa -16 + ^ .cfa: $rsp 16 +
STACK CFI 5bc14 $r14: .cfa -24 + ^ .cfa: $rsp 24 +
STACK CFI 5bc19 $r13: .cfa -32 + ^ .cfa: $rsp 32 +
STACK CFI 5bc1b $r12: .cfa -40 + ^ .cfa: $rsp 40 +
STACK CFI 5bc1f $rbp: .cfa -48 + ^ .cfa: $rsp 48 +
STACK CFI 5bc20 $rbx: .cfa -56 + ^ .cfa: $rsp 56 +
STACK CFI 5bc31 .cfa: $rsp 144 +
STACK CFI 5bcce .cfa: $rsp 56 +
STACK CFI 5bccf .cfa: $rsp 48 +
STACK CFI 5bcd0 .cfa: $rsp 40 +
STACK CFI 5bcd2 .cfa: $rsp 32 +
STACK CFI 5bcd4 .cfa: $rsp 24 +
STACK CFI 5bcd6 .cfa: $rsp 16 +
STACK CFI 5bcd8 .cfa: $rsp 8 +
STACK CFI 5bcd9 .cfa: $rsp 144 +
STACK CFI INIT 5bd20 fc .cfa: $rsp 8 + .ra: .cfa -8 + ^
STACK CFI 5bd22 $r12: .cfa -16 + ^ .cfa: $rsp 16 +
STACK CFI 5bd23 $rbp: .cfa -24 + ^ .cfa: $rsp 24 +
STACK CFI 5bd2b $rbx: .cfa -32 + ^ .cfa: $rsp 32 +
STACK CFI 5bd39 .cfa: $rsp 112 +
STACK CFI 5bdd8 .cfa: $rsp 32 +
STACK CFI 5bdd9 .cfa: $rsp 24 +
STACK CFI 5bdda .cfa: $rsp 16 +
STACK CFI 5bddc .cfa: $rsp 8 +
STACK CFI 5bddd .cfa: $rsp 112 +
STACK CFI INIT 5be20 fc .cfa: $rsp 8 + .ra: .cfa -8 + ^
STACK CFI 5be22 $r12: .cfa -16 + ^ .cfa: $rsp 16 +
STACK CFI 5be23 $rbp: .cfa -24 + ^ .cfa: $rsp 24 +
STACK CFI 5be2b $rbx: .cfa -32 + ^ .cfa: $rsp 32 +
STACK CFI 5be39 .cfa: $rsp 112 +
STACK CFI 5bed8 .cfa: $rsp 32 +
STACK CFI 5bed9 .cfa: $rsp 24 +
STACK CFI 5beda .cfa: $rsp 16 +
STACK CFI 5bedc .cfa: $rsp 8 +
STACK CFI 5bedd .cfa: $rsp 112 +
STACK CFI INIT 5b3e0 77 .cfa: $rsp 8 + .ra: .cfa -8 + ^
STACK CFI 5b402 .cfa: $rsp 16 +
STACK CFI 5b452 .cfa: $rsp 8 +
STACK CFI INIT 5b460 50 .cfa: $rsp 8 + .ra: .cfa -8 + ^
STACK CFI 5b46b .cfa: $rsp 16 +
STACK CFI 5b4ab .cfa: $rsp 8 +
STACK CFI INIT 5bf20 ec .cfa: $rsp 8 + .ra: .cfa -8 + ^
STACK CFI 5bf21 $rbp: .cfa -16 + ^ .cfa: $rsp 16 +
STACK CFI 5bf2d .cfa: $rbp 16 +
STACK CFI 5bf30 $r12: .cfa -24 + ^ $rbx: .cfa -32 + ^
STACK CFI 5c006 .cfa: $rsp 8 +
STACK CFI 5c007 .cfa: $rbp 16 +
STACK CFI INIT 5c010 48 .cfa: $rsp 8 + .ra: .cfa -8 + ^
STACK CFI 5c017 $r12: .cfa -16 + ^ .cfa: $rsp 16 +
STACK CFI 5c01b $rbp: .cfa -24 + ^ .cfa: $rsp 24 +
STACK CFI 5c01c $rbx: .cfa -32 + ^ .cfa: $rsp 32 +
STACK CFI 5c053 $rbx: $rbx .cfa: $rsp 24 +
STACK CFI 5c054 $rbp: $rbp .cfa: $rsp 16 +
STACK CFI 5c056 $r12: $r12 .cfa: $rsp 8 +
STACK CFI INIT 5c060 d16 .cfa: $rsp 8 + .ra: .cfa -8 + ^
STACK CFI 5c061 $rbp: .cfa -16 + ^ .cfa: $rsp 16 +
STACK CFI 5c064 .cfa: $rbp 16 +
STACK CFI 5c06d $r12: .cfa -48 + ^ $r13: .cfa -40 + ^ $r14: .cfa -32 + ^ $r15: .cfa -24 + ^ $rbx: .cfa -56 + ^
STACK CFI 5c6ad .cfa: $rsp 8 +
STACK CFI 5c6b0 .cfa: $rbp 16 +
STACK CFI INIT 5cd80 3fa .cfa: $rsp 8 + .ra: .cfa -8 + ^
STACK CFI 5cd82 $r15: .cfa -16 + ^ .cfa: $rsp 16 +
STACK CFI 5cd84 $r14: .cfa -24 + ^ .cfa: $rsp 24 +
STACK CFI 5cd86 $r13: .cfa -32 + ^ .cfa: $rsp 32 +
STACK CFI 5cd88 $r12: .cfa -40 + ^ .cfa: $rsp 40 +
STACK CFI 5cd8c $rbp: .cfa -48 + ^ .cfa: $rsp 48 +
STACK CFI 5cd8d $rbx: .cfa -56 + ^ .cfa: $rsp 56 +
STACK CFI 5cd9a .cfa: $rsp 320 +
STACK CFI 5cf8f .cfa: $rsp 56 +
STACK CFI 5cf90 .cfa: $rsp 48 +
STACK CFI 5cf91 .cfa: $rsp 40 +
STACK CFI 5cf93 .cfa: $rsp 32 +
STACK CFI 5cf95 .cfa: $rsp 24 +
STACK CFI 5cf97 .cfa: $rsp 16 +
STACK CFI 5cf99 .cfa: $rsp 8 +
STACK CFI 5cfa0 .cfa: $rsp 320 +
STACK CFI INIT 5b4b0 21 .cfa: $rsp 8 + .ra: .cfa -8 + ^
STACK CFI 5b4c2 .cfa: $rsp 16 +
STACK CFI 5b4d0 .cfa: $rsp 8 +
STACK CFI INIT 5b4e0 4a .cfa: $rsp 8 + .ra: .cfa -8 + ^
STACK CFI 5b500 .cfa: $rsp 16 +
STACK CFI 5b51a .cfa: $rsp 8 +
STACK CFI INIT 5b530 4d .cfa: $rsp 8 + .ra: .cfa -8 + ^
STACK CFI 5b550 .cfa: $rsp 16 +
STACK CFI 5b56a .cfa: $rsp 8 +
STACK CFI INIT 5b580 3c5 .cfa: $rsp 8 + .ra: .cfa -8 + ^
STACK CFI 5b582 $r13: .cfa -16 + ^ .cfa: $rsp 16 +
STACK CFI 5b584 $r12: .cfa -24 + ^ .cfa: $rsp 24 +
STACK CFI 5b585 $rbp: .cfa -32 + ^ .cfa: $rsp 32 +
STACK CFI 5b586 $rbx: .cfa -40 + ^ .cfa: $rsp 40 +
STACK CFI 5b58d .cfa: $rsp 1232 +
STACK CFI 5b726 .cfa: $rsp 40 +
STACK CFI 5b727 .cfa: $rsp 32 +
STACK CFI 5b728 .cfa: $rsp 24 +
STACK CFI 5b72a .cfa: $rsp 16 +
STACK CFI 5b72c .cfa: $rsp 8 +
STACK CFI 5b730 .cfa: $rsp 1232 +
STACK CFI INIT 5d180 2ba9 .cfa: $rsp 8 + .ra: .cfa -8 + ^
STACK CFI 5d181 $rbp: .cfa -16 + ^ .cfa: $rsp 16 +
STACK CFI 5d184 .cfa: $rbp 16 +
STACK CFI 5d194 $r12: .cfa -48 + ^ $r13: .cfa -40 + ^ $r14: .cfa -32 + ^ $r15: .cfa -24 + ^ $rbx: .cfa -56 + ^
STACK CFI 5e809 .cfa: $rsp 8 +
STACK CFI 5e810 .cfa: $rbp 16 +
STACK CFI INIT 5fd30 4ab .cfa: $rsp 8 + .ra: .cfa -8 + ^
STACK CFI 5fd31 $rbp: .cfa -16 + ^ .cfa: $rsp 16 +
STACK CFI 5fd34 .cfa: $rbp 16 +
STACK CFI 5fd3c $r12: .cfa -48 + ^ $r13: .cfa -40 + ^ $r14: .cfa -32 + ^ $r15: .cfa -24 + ^
STACK CFI 5fd4a $rbx: .cfa -56 + ^
STACK CFI 5fe6c .cfa: $rsp 8 +
STACK CFI 5fe70 .cfa: $rbp 16 +
STACK CFI INIT 195b0 101 .cfa: $rsp 8 + .ra: .cfa -8 + ^
STACK CFI 195bb .cfa: $rsp 16 +
STACK CFI 196ac .cfa: $rsp 8 +
STACK CFI INIT 601e0 c2 .cfa: $rsp 8 + .ra: .cfa -8 + ^
STACK CFI 601e2 $r12: .cfa -16 + ^ .cfa: $rsp 16 +
STACK CFI 601e3 $rbp: .cfa -24 + ^ .cfa: $rsp 24 +
STACK CFI 601e7 $rbx: .cfa -32 + ^ .cfa: $rsp 32 +
STACK CFI 601ee .cfa: $rsp 48 +
STACK CFI 6025a .cfa: $rsp 32 +
STACK CFI 6025b .cfa: $rsp 24 +
STACK CFI 6025c .cfa: $rsp 16 +
STACK CFI 6025e .cfa: $rsp 8 +
STACK CFI 60260 .cfa: $rsp 48 +
STACK CFI INIT 602b0 a9 .cfa: $rsp 8 + .ra: .cfa -8 + ^
STACK CFI 602b1 $rbp: .cfa -16 + ^ .cfa: $rsp 16 +
STACK CFI 602b2 $rbx: .cfa -24 + ^ .cfa: $rsp 24 +
STACK CFI 602b9 .cfa: $rsp 64 +
STACK CFI 60351 .cfa: $rsp 24 +
STACK CFI 60352 .cfa: $rsp 16 +
STACK CFI 60353 .cfa: $rsp 8 +
STACK CFI 60354 .cfa: $rsp 64 +
STACK CFI INIT 60360 75 .cfa: $rsp 8 + .ra: .cfa -8 + ^
STACK CFI 60362 $r12: .cfa -16 + ^ .cfa: $rsp 16 +
STACK CFI 60363 $rbp: .cfa -24 + ^ .cfa: $rsp 24 +
STACK CFI 60367 $rbx: .cfa -32 + ^ .cfa: $rsp 32 +
STACK CFI 603b7 .cfa: $rsp 24 +
STACK CFI 603c3 .cfa: $rsp 16 +
STACK CFI 603c5 .cfa: $rsp 8 +
STACK CFI 603d0 .cfa: $rsp 32 +
STACK CFI 603d1 .cfa: $rsp 24 +
STACK CFI 603d2 .cfa: $rsp 16 +
STACK CFI 603d4 .cfa: $rsp 8 +
STACK CFI INIT 63f20 9e .cfa: $rsp 8 + .ra: .cfa -8 + ^
STACK CFI 63f76 $rbp: .cfa -16 + ^ .cfa: $rsp 16 +
STACK CFI 63f77 $rbx: .cfa -24 + ^ .cfa: $rsp 24 +
STACK CFI 63f84 .cfa: $rsp 32 +
STACK CFI 63f8d .cfa: $rsp 24 +
STACK CFI 63f94 $rbx: $rbx .cfa: $rsp 16 +
STACK CFI 63f95 $rbp: $rbp .cfa: $rsp 8 +
STACK CFI INIT 63fc0 8d .cfa: $rsp 8 + .ra: .cfa -8 + ^
STACK CFI 63fc1 $rbp: .cfa -16 + ^ .cfa: $rsp 16 +
STACK CFI 63fc2 $rbx: .cfa -24 + ^ .cfa: $rsp 24 +
STACK CFI 63fd4 .cfa: $rsp 80 +
STACK CFI 64028 .cfa: $rsp 24 +
STACK CFI 64029 .cfa: $rsp 16 +
STACK CFI 6402a .cfa: $rsp 8 +
STACK CFI 6402b .cfa: $rsp 80 +
STACK CFI INIT 64050 4f .cfa: $rsp 8 + .ra: .cfa -8 + ^
STACK CFI 64051 $rbx: .cfa -16 + ^ .cfa: $rsp 16 +
STACK CFI 64058 .cfa: $rsp 48 +
STACK CFI 64098 .cfa: $rsp 16 +
STACK CFI 64099 .cfa: $rsp 8 +
STACK CFI 6409a .cfa: $rsp 48 +
STACK CFI INIT 603e0 12 .cfa: $rsp 8 + .ra: .cfa -8 + ^
STACK CFI 603e1 $rbx: .cfa -16 + ^ .cfa: $rsp 16 +
STACK CFI 603ed .cfa: $rsp 8 +
STACK CFI INIT 60400 3e .cfa: $rsp 8 + .ra: .cfa -8 + ^
STACK CFI 60401 $rbp: .cfa -16 + ^ .cfa: $rsp 16 +
STACK CFI 60402 $rbx: .cfa -24 + ^ .cfa: $rsp 24 +
STACK CFI 60414 .cfa: $rsp 32 +
STACK CFI 6043b .cfa: $rsp 24 +
STACK CFI 6043c .cfa: $rsp 16 +
STACK CFI 6043d .cfa: $rsp 8 +
STACK CFI INIT 60440 248 .cfa: $rsp 8 + .ra: .cfa -8 + ^
STACK CFI 60441 $rbp: .cfa -16 + ^ .cfa: $rsp 16 +
STACK CFI 60446 $rbx: .cfa -24 + ^ .cfa: $rsp 24 +
STACK CFI 60454 .cfa: $rsp 32 +
STACK CFI 6047b .cfa: $rsp 80 +
STACK CFI 604b6 .cfa: $rsp 32 +
STACK CFI 6050d .cfa: $rsp 80 +
STACK CFI 60548 .cfa: $rsp 32 +
STACK CFI 60550 .cfa: $rsp 24 +
STACK CFI 6055b .cfa: $rsp 16 +
STACK CFI 6055c .cfa: $rsp 8 +
STACK CFI 60570 .cfa: $rsp 32 +
STACK CFI 6057b .cfa: $rsp 80 +
STACK CFI 605b6 .cfa: $rsp 24 +
STACK CFI 605c1 .cfa: $rsp 16 +
STACK CFI 605c2 .cfa: $rsp 8 +
STACK CFI 605d0 .cfa: $rsp 32 +
STACK CFI INIT 60690 77 .cfa: $rsp 8 + .ra: .cfa -8 + ^
STACK CFI 60691 $rbp: .cfa -16 + ^ .cfa: $rsp 16 +
STACK CFI 60692 $rbx: .cfa -24 + ^ .cfa: $rsp 24 +
STACK CFI 6069f .cfa: $rsp 32 +
STACK CFI 606e4 .cfa: $rsp 24 +
STACK CFI 606f4 .cfa: $rsp 16 +
STACK CFI 606f5 .cfa: $rsp 8 +
STACK CFI 60700 .cfa: $rsp 32 +
STACK CFI 60704 .cfa: $rsp 24 +
STACK CFI 60705 .cfa: $rsp 16 +
STACK CFI 60706 .cfa: $rsp 8 +
STACK CFI INIT 60710 55 .cfa: $rsp 8 + .ra: .cfa -8 + ^
STACK CFI INIT 640a0 de8 .cfa: $rsp 8 + .ra: .cfa -8 + ^
STACK CFI 640a1 $rbp: .cfa -16 + ^ .cfa: $rsp 16 +
STACK CFI 640a4 .cfa: $rbp 16 +
STACK CFI 640ac $r12: .cfa -48 + ^ $r13: .cfa -40 + ^ $r14: .cfa -32 + ^ $r15: .cfa -24 + ^
STACK CFI 640b4 $rbx: .cfa -56 + ^
STACK CFI 646ff .cfa: $rsp 8 +
STACK CFI 64700 .cfa: $rbp 16 +
STACK CFI INIT 60770 f7 .cfa: $rsp 8 + .ra: .cfa -8 + ^
STACK CFI 60771 $rbp: .cfa -16 + ^ .cfa: $rsp 16 +
STACK CFI 60772 $rbx: .cfa -24 + ^ .cfa: $rsp 24 +
STACK CFI 6077b .cfa: $rsp 80 +
STACK CFI 607e8 .cfa: $rsp 24 +
STACK CFI 607e9 .cfa: $rsp 16 +
STACK CFI 607ea .cfa: $rsp 8 +
STACK CFI 607f0 .cfa: $rsp 80 +
STACK CFI 607f4 .cfa: $rsp 128 +
STACK CFI 6083b .cfa: $rsp 80 +
STACK CFI INIT 64e90 20c .cfa: $rsp 8 + .ra: .cfa -8 + ^
STACK CFI 64e91 $rbp: .cfa -16 + ^ .cfa: $rsp 16 +
STACK CFI 64e94 .cfa: $rbp 16 +
STACK CFI 64e9b $r12: .cfa -40 + ^ $r13: .cfa -32 + ^ $r14: .cfa -24 + ^ $rbx: .cfa -48 + ^
STACK CFI 64fc3 .cfa: $rsp 8 +
STACK CFI 64fc8 .cfa: $rbp 16 +
STACK CFI INIT 650a0 de8 .cfa: $rsp 8 + .ra: .cfa -8 + ^
STACK CFI 650a1 $rbp: .cfa -16 + ^ .cfa: $rsp 16 +
STACK CFI 650a4 .cfa: $rbp 16 +
STACK CFI 650ac $r12: .cfa -48 + ^ $r13: .cfa -40 + ^ $r14: .cfa -32 + ^ $r15: .cfa -24 + ^
STACK CFI 650b4 $rbx: .cfa -56 + ^
STACK CFI 656ff .cfa: $rsp 8 +
STACK CFI 65700 .cfa: $rbp 16 +
STACK CFI INIT 65e90 101 .cfa: $rsp 8 + .ra: .cfa -8 + ^
STACK CFI 65e92 $r14: .cfa -16 + ^ .cfa: $rsp 16 +
STACK CFI 65e94 $r13: .cfa -24 + ^ .cfa: $rsp 24 +
STACK CFI 65e96 $r12: .cfa -32 + ^ .cfa: $rsp 32 +
STACK CFI 65e97 $rbp: .cfa -40 + ^ .cfa: $rsp 40 +
STACK CFI 65e98 $rbx: .cfa -48 + ^ .cfa: $rsp 48 +
STACK CFI 65e9c .cfa: $rsp 128 +
STACK CFI 65ece .cfa: $rsp 48 +
STACK CFI 65ecf .cfa: $rsp 40 +
STACK CFI 65ed0 .cfa: $rsp 32 +
STACK CFI 65ed2 .cfa: $rsp 24 +
STACK CFI 65ed4 .cfa: $rsp 16 +
STACK CFI 65ed6 .cfa: $rsp 8 +
STACK CFI 65ee0 .cfa: $rsp 128 +
STACK CFI INIT 65fa0 5a .cfa: $rsp 8 + .ra: .cfa -8 + ^
STACK CFI 65fa7 $r12: .cfa -16 + ^ .cfa: $rsp 16 +
STACK CFI 65fab $rbp: .cfa -24 + ^ .cfa: $rsp 24 +
STACK CFI 65fac $rbx: .cfa -32 + ^ .cfa: $rsp 32 +
STACK CFI 65ff5 $rbx: $rbx .cfa: $rsp 24 +
STACK CFI 65ff6 $rbp: $rbp .cfa: $rsp 16 +
STACK CFI 65ff8 $r12: $r12 .cfa: $rsp 8 +
STACK CFI INIT 66000 4c4 .cfa: $rsp 8 + .ra: .cfa -8 + ^
STACK CFI 66002 $r15: .cfa -16 + ^ .cfa: $rsp 16 +
STACK CFI 66004 $r14: .cfa -24 + ^ .cfa: $rsp 24 +
STACK CFI 66006 $r13: .cfa -32 + ^ .cfa: $rsp 32 +
STACK CFI 66008 $r12: .cfa -40 + ^ .cfa: $rsp 40 +
STACK CFI 66009 $rbp: .cfa -48 + ^ .cfa: $rsp 48 +
STACK CFI 6600a $rbx: .cfa -56 + ^ .cfa: $rsp 56 +
STACK CFI 66011 .cfa: $rsp 608 +
STACK CFI 6604c .cfa: $rsp 56 +
STACK CFI 6604d .cfa: $rsp 48 +
STACK CFI 6604e .cfa: $rsp 40 +
STACK CFI 66050 .cfa: $rsp 32 +
STACK CFI 66052 .cfa: $rsp 24 +
STACK CFI 66054 .cfa: $rsp 16 +
STACK CFI 66056 .cfa: $rsp 8 +
STACK CFI 66060 .cfa: $rsp 608 +
STACK CFI INIT 664d0 4d0 .cfa: $rsp 8 + .ra: .cfa -8 + ^
STACK CFI 664d2 $r15: .cfa -16 + ^ .cfa: $rsp 16 +
STACK CFI 664d4 $r14: .cfa -24 + ^ .cfa: $rsp 24 +
STACK CFI 664d6 $r13: .cfa -32 + ^ .cfa: $rsp 32 +
STACK CFI 664d8 $r12: .cfa -40 + ^ .cfa: $rsp 40 +
STACK CFI 664d9 $rbp: .cfa -48 + ^ .cfa: $rsp 48 +
STACK CFI 664da $rbx: .cfa -56 + ^ .cfa: $rsp 56 +
STACK CFI 664e1 .cfa: $rsp 624 +
STACK CFI 66520 .cfa: $rsp 56 +
STACK CFI 66521 .cfa: $rsp 48 +
STACK CFI 66522 .cfa: $rsp 40 +
STACK CFI 66524 .cfa: $rsp 32 +
STACK CFI 66526 .cfa: $rsp 24 +
STACK CFI 66528 .cfa: $rsp 16 +
STACK CFI 6652a .cfa: $rsp 8 +
STACK CFI 66530 .cfa: $rsp 624 +
STACK CFI INIT 669a0 4d0 .cfa: $rsp 8 + .ra: .cfa -8 + ^
STACK CFI 669a2 $r15: .cfa -16 + ^ .cfa: $rsp 16 +
STACK CFI 669a4 $r14: .cfa -24 + ^ .cfa: $rsp 24 +
STACK CFI 669a6 $r13: .cfa -32 + ^ .cfa: $rsp 32 +
STACK CFI 669a8 $r12: .cfa -40 + ^ .cfa: $rsp 40 +
STACK CFI 669a9 $rbp: .cfa -48 + ^ .cfa: $rsp 48 +
STACK CFI 669aa $rbx: .cfa -56 + ^ .cfa: $rsp 56 +
STACK CFI 669b1 .cfa: $rsp 624 +
STACK CFI 669f0 .cfa: $rsp 56 +
STACK CFI 669f1 .cfa: $rsp 48 +
STACK CFI 669f2 .cfa: $rsp 40 +
STACK CFI 669f4 .cfa: $rsp 32 +
STACK CFI 669f6 .cfa: $rsp 24 +
STACK CFI 669f8 .cfa: $rsp 16 +
STACK CFI 669fa .cfa: $rsp 8 +
STACK CFI 66a00 .cfa: $rsp 624 +
STACK CFI INIT 66e70 4c4 .cfa: $rsp 8 + .ra: .cfa -8 + ^
STACK CFI 66e72 $r15: .cfa -16 + ^ .cfa: $rsp 16 +
STACK CFI 66e74 $r14: .cfa -24 + ^ .cfa: $rsp 24 +
STACK CFI 66e76 $r13: .cfa -32 + ^ .cfa: $rsp 32 +
STACK CFI 66e78 $r12: .cfa -40 + ^ .cfa: $rsp 40 +
STACK CFI 66e79 $rbp: .cfa -48 + ^ .cfa: $rsp 48 +
STACK CFI 66e7a $rbx: .cfa -56 + ^ .cfa: $rsp 56 +
STACK CFI 66e81 .cfa: $rsp 608 +
STACK CFI 66ebc .cfa: $rsp 56 +
STACK CFI 66ebd .cfa: $rsp 48 +
STACK CFI 66ebe .cfa: $rsp 40 +
STACK CFI 66ec0 .cfa: $rsp 32 +
STACK CFI 66ec2 .cfa: $rsp 24 +
STACK CFI 66ec4 .cfa: $rsp 16 +
STACK CFI 66ec6 .cfa: $rsp 8 +
STACK CFI 66ed0 .cfa: $rsp 608 +
STACK CFI INIT 67340 4f6 .cfa: $rsp 8 + .ra: .cfa -8 + ^
STACK CFI 67342 $r15: .cfa -16 + ^ .cfa: $rsp 16 +
STACK CFI 67344 $r14: .cfa -24 + ^ .cfa: $rsp 24 +
STACK CFI 67346 $r13: .cfa -32 + ^ .cfa: $rsp 32 +
STACK CFI 67348 $r12: .cfa -40 + ^ .cfa: $rsp 40 +
STACK CFI 67349 $rbp: .cfa -48 + ^ .cfa: $rsp 48 +
STACK CFI 6734a $rbx: .cfa -56 + ^ .cfa: $rsp 56 +
STACK CFI 67351 .cfa: $rsp 656 +
STACK CFI 67391 .cfa: $rsp 56 +
STACK CFI 67392 .cfa: $rsp 48 +
STACK CFI 67393 .cfa: $rsp 40 +
STACK CFI 67395 .cfa: $rsp 32 +
STACK CFI 67397 .cfa: $rsp 24 +
STACK CFI 67399 .cfa: $rsp 16 +
STACK CFI 6739b .cfa: $rsp 8 +
STACK CFI 673a0 .cfa: $rsp 656 +
STACK CFI INIT 67840 4d0 .cfa: $rsp 8 + .ra: .cfa -8 + ^
STACK CFI 67842 $r15: .cfa -16 + ^ .cfa: $rsp 16 +
STACK CFI 67844 $r14: .cfa -24 + ^ .cfa: $rsp 24 +
STACK CFI 67846 $r13: .cfa -32 + ^ .cfa: $rsp 32 +
STACK CFI 67848 $r12: .cfa -40 + ^ .cfa: $rsp 40 +
STACK CFI 67849 $rbp: .cfa -48 + ^ .cfa: $rsp 48 +
STACK CFI 6784a $rbx: .cfa -56 + ^ .cfa: $rsp 56 +
STACK CFI 67851 .cfa: $rsp 624 +
STACK CFI 67890 .cfa: $rsp 56 +
STACK CFI 67891 .cfa: $rsp 48 +
STACK CFI 67892 .cfa: $rsp 40 +
STACK CFI 67894 .cfa: $rsp 32 +
STACK CFI 67896 .cfa: $rsp 24 +
STACK CFI 67898 .cfa: $rsp 16 +
STACK CFI 6789a .cfa: $rsp 8 +
STACK CFI 678a0 .cfa: $rsp 624 +
STACK CFI INIT 67d10 fa .cfa: $rsp 8 + .ra: .cfa -8 + ^
STACK CFI 67d12 $r14: .cfa -16 + ^ .cfa: $rsp 16 +
STACK CFI 67d14 $r13: .cfa -24 + ^ .cfa: $rsp 24 +
STACK CFI 67d16 $r12: .cfa -32 + ^ .cfa: $rsp 32 +
STACK CFI 67d17 $rbp: .cfa -40 + ^ .cfa: $rsp 40 +
STACK CFI 67d18 $rbx: .cfa -48 + ^ .cfa: $rsp 48 +
STACK CFI 67d1c .cfa: $rsp 128 +
STACK CFI 67d4e .cfa: $rsp 48 +
STACK CFI 67d4f .cfa: $rsp 40 +
STACK CFI 67d50 .cfa: $rsp 32 +
STACK CFI 67d52 .cfa: $rsp 24 +
STACK CFI 67d54 .cfa: $rsp 16 +
STACK CFI 67d56 .cfa: $rsp 8 +
STACK CFI 67d60 .cfa: $rsp 128 +
STACK CFI INIT 67e10 222 .cfa: $rsp 8 + .ra: .cfa -8 + ^
STACK CFI 67e12 $r15: .cfa -16 + ^ .cfa: $rsp 16 +
STACK CFI 67e14 $r14: .cfa -24 + ^ .cfa: $rsp 24 +
STACK CFI 67e1a $r13: .cfa -32 + ^ .cfa: $rsp 32 +
STACK CFI 67e1c $r12: .cfa -40 + ^ .cfa: $rsp 40 +
STACK CFI 67e1d $rbp: .cfa -48 + ^ .cfa: $rsp 48 +
STACK CFI 67e1e $rbx: .cfa -56 + ^ .cfa: $rsp 56 +
STACK CFI 67e22 .cfa: $rsp 80 +
STACK CFI 67ff1 .cfa: $rsp 56 +
STACK CFI 67ff2 .cfa: $rsp 48 +
STACK CFI 67ff3 .cfa: $rsp 40 +
STACK CFI 67ff5 .cfa: $rsp 32 +
STACK CFI 67ff7 .cfa: $rsp 24 +
STACK CFI 67ff9 .cfa: $rsp 16 +
STACK CFI 67ffb .cfa: $rsp 8 +
STACK CFI 68000 .cfa: $rsp 80 +
STACK CFI INIT 68040 ed .cfa: $rsp 8 + .ra: .cfa -8 + ^
STACK CFI 68042 $r15: .cfa -16 + ^ .cfa: $rsp 16 +
STACK CFI 68044 $r14: .cfa -24 + ^ .cfa: $rsp 24 +
STACK CFI 68046 $r13: .cfa -32 + ^ .cfa: $rsp 32 +
STACK CFI 68048 $r12: .cfa -40 + ^ .cfa: $rsp 40 +
STACK CFI 68049 $rbp: .cfa -48 + ^ .cfa: $rsp 48 +
STACK CFI 6804a $rbx: .cfa -56 + ^ .cfa: $rsp 56 +
STACK CFI 68051 .cfa: $rsp 64 +
STACK CFI 680e0 .cfa: $rsp 56 +
STACK CFI 680e4 .cfa: $rsp 48 +
STACK CFI 680e5 .cfa: $rsp 40 +
STACK CFI 680e7 .cfa: $rsp 32 +
STACK CFI 680e9 .cfa: $rsp 24 +
STACK CFI 680eb .cfa: $rsp 16 +
STACK CFI 680ed .cfa: $rsp 8 +
STACK CFI 680f0 .cfa: $rsp 64 +
STACK CFI INIT 68130 c1a .cfa: $rsp 8 + .ra: .cfa -8 + ^
STACK CFI 68131 $rbp: .cfa -16 + ^ .cfa: $rsp 16 +
STACK CFI 68134 .cfa: $rbp 16 +
STACK CFI 6813c $r12: .cfa -48 + ^ $r13: .cfa -40 + ^ $r14: .cfa -32 + ^ $r15: .cfa -24 + ^
STACK CFI 68144 $rbx: .cfa -56 + ^
STACK CFI 68697 .cfa: $rsp 8 +
STACK CFI 686a0 .cfa: $rbp 16 +
STACK CFI INIT 68d50 20c .cfa: $rsp 8 + .ra: .cfa -8 + ^
STACK CFI 68d51 $rbp: .cfa -16 + ^ .cfa: $rsp 16 +
STACK CFI 68d54 .cfa: $rbp 16 +
STACK CFI 68d5b $r12: .cfa -40 + ^ $r13: .cfa -32 + ^ $r14: .cfa -24 + ^ $rbx: .cfa -48 + ^
STACK CFI 68e7b .cfa: $rsp 8 +
STACK CFI 68e80 .cfa: $rbp 16 +
STACK CFI INIT 68f60 eb .cfa: $rsp 8 + .ra: .cfa -8 + ^
STACK CFI 68f62 $r14: .cfa -16 + ^ .cfa: $rsp 16 +
STACK CFI 68f64 $r13: .cfa -24 + ^ .cfa: $rsp 24 +
STACK CFI 68f66 $r12: .cfa -32 + ^ .cfa: $rsp 32 +
STACK CFI 68f67 $rbp: .cfa -40 + ^ .cfa: $rsp 40 +
STACK CFI 68f68 $rbx: .cfa -48 + ^ .cfa: $rsp 48 +
STACK CFI 68f6c .cfa: $rsp 128 +
STACK CFI 68f9a .cfa: $rsp 48 +
STACK CFI 68f9b .cfa: $rsp 40 +
STACK CFI 68f9c .cfa: $rsp 32 +
STACK CFI 68f9e .cfa: $rsp 24 +
STACK CFI 68fa0 .cfa: $rsp 16 +
STACK CFI 68fa2 .cfa: $rsp 8 +
STACK CFI 68fa8 .cfa: $rsp 128 +
STACK CFI INIT 69050 147 .cfa: $rsp 8 + .ra: .cfa -8 + ^
STACK CFI 69052 $r15: .cfa -16 + ^ .cfa: $rsp 16 +
STACK CFI 69054 $r14: .cfa -24 + ^ .cfa: $rsp 24 +
STACK CFI 69056 $r13: .cfa -32 + ^ .cfa: $rsp 32 +
STACK CFI 69058 $r12: .cfa -40 + ^ .cfa: $rsp 40 +
STACK CFI 69059 $rbp: .cfa -48 + ^ .cfa: $rsp 48 +
STACK CFI 6905a $rbx: .cfa -56 + ^ .cfa: $rsp 56 +
STACK CFI 6905e .cfa: $rsp 80 +
STACK CFI 6910d .cfa: $rsp 56 +
STACK CFI 69113 .cfa: $rsp 48 +
STACK CFI 69114 .cfa: $rsp 40 +
STACK CFI 69116 .cfa: $rsp 32 +
STACK CFI 69118 .cfa: $rsp 24 +
STACK CFI 6911a .cfa: $rsp 16 +
STACK CFI 6911c .cfa: $rsp 8 +
STACK CFI 69120 .cfa: $rsp 80 +
STACK CFI 69139 .cfa: $rsp 56 +
STACK CFI 6913f .cfa: $rsp 48 +
STACK CFI 69140 .cfa: $rsp 40 +
STACK CFI 69142 .cfa: $rsp 32 +
STACK CFI 69144 .cfa: $rsp 24 +
STACK CFI 69146 .cfa: $rsp 16 +
STACK CFI 69148 .cfa: $rsp 8 +
STACK CFI 69149 .cfa: $rsp 80 +
STACK CFI INIT 691a0 2aa .cfa: $rsp 8 + .ra: .cfa -8 + ^
STACK CFI 691a2 $r15: .cfa -16 + ^ .cfa: $rsp 16 +
STACK CFI 691a8 $r14: .cfa -24 + ^ .cfa: $rsp 24 +
STACK CFI 691aa $r13: .cfa -32 + ^ .cfa: $rsp 32 +
STACK CFI 691ac $r12: .cfa -40 + ^ .cfa: $rsp 40 +
STACK CFI 691b0 $rbp: .cfa -48 + ^ .cfa: $rsp 48 +
STACK CFI 691b1 $rbx: .cfa -56 + ^ .cfa: $rsp 56 +
STACK CFI 691b8 .cfa: $rsp 80 +
STACK CFI 6922b .cfa: $rsp 56 +
STACK CFI 6922c .cfa: $rsp 48 +
STACK CFI 6922d .cfa: $rsp 40 +
STACK CFI 6922f .cfa: $rsp 32 +
STACK CFI 69231 .cfa: $rsp 24 +
STACK CFI 69233 .cfa: $rsp 16 +
STACK CFI 69235 .cfa: $rsp 8 +
STACK CFI 69240 .cfa: $rsp 80 +
STACK CFI 692e6 .cfa: $rsp 56 +
STACK CFI 692ea .cfa: $rsp 48 +
STACK CFI 692eb .cfa: $rsp 40 +
STACK CFI 692ed .cfa: $rsp 32 +
STACK CFI 692ef .cfa: $rsp 24 +
STACK CFI 692f1 .cfa: $rsp 16 +
STACK CFI 692f3 .cfa: $rsp 8 +
STACK CFI 692f8 .cfa: $rsp 80 +
STACK CFI 69384 .cfa: $rsp 56 +
STACK CFI 69385 .cfa: $rsp 48 +
STACK CFI 69386 .cfa: $rsp 40 +
STACK CFI 69388 .cfa: $rsp 32 +
STACK CFI 6938a .cfa: $rsp 24 +
STACK CFI 6938c .cfa: $rsp 16 +
STACK CFI 6938e .cfa: $rsp 8 +
STACK CFI 69390 .cfa: $rsp 80 +
STACK CFI 693f4 .cfa: $rsp 56 +
STACK CFI 693fa .cfa: $rsp 48 +
STACK CFI 693fb .cfa: $rsp 40 +
STACK CFI 693fd .cfa: $rsp 32 +
STACK CFI 693ff .cfa: $rsp 24 +
STACK CFI 69401 .cfa: $rsp 16 +
STACK CFI 69403 .cfa: $rsp 8 +
STACK CFI 69408 .cfa: $rsp 80 +
STACK CFI INIT 69450 184 .cfa: $rsp 8 + .ra: .cfa -8 + ^
STACK CFI 69452 $r15: .cfa -16 + ^ .cfa: $rsp 16 +
STACK CFI 69454 $r14: .cfa -24 + ^ .cfa: $rsp 24 +
STACK CFI 69456 $r13: .cfa -32 + ^ .cfa: $rsp 32 +
STACK CFI 69458 $r12: .cfa -40 + ^ .cfa: $rsp 40 +
STACK CFI 6945c $rbp: .cfa -48 + ^ .cfa: $rsp 48 +
STACK CFI 6945d $rbx: .cfa -56 + ^ .cfa: $rsp 56 +
STACK CFI 6946c .cfa: $rsp 80 +
STACK CFI 69503 .cfa: $rsp 56 +
STACK CFI 69507 .cfa: $rsp 48 +
STACK CFI 69508 .cfa: $rsp 40 +
STACK CFI 6950a .cfa: $rsp 32 +
STACK CFI 6950c .cfa: $rsp 24 +
STACK CFI 6950e .cfa: $rsp 16 +
STACK CFI 69510 .cfa: $rsp 8 +
STACK CFI 69518 .cfa: $rsp 80 +
STACK CFI 69540 .cfa: $rsp 56 +
STACK CFI 69544 .cfa: $rsp 48 +
STACK CFI 69545 .cfa: $rsp 40 +
STACK CFI 69547 .cfa: $rsp 32 +
STACK CFI 69549 .cfa: $rsp 24 +
STACK CFI 6954b .cfa: $rsp 16 +
STACK CFI 6954d .cfa: $rsp 8 +
STACK CFI 69550 .cfa: $rsp 80 +
STACK CFI INIT 695e0 157 .cfa: $rsp 8 + .ra: .cfa -8 + ^
STACK CFI 695e2 $r15: .cfa -16 + ^ .cfa: $rsp 16 +
STACK CFI 695e4 $r14: .cfa -24 + ^ .cfa: $rsp 24 +
STACK CFI 695ea $r13: .cfa -32 + ^ .cfa: $rsp 32 +
STACK CFI 695ec $r12: .cfa -40 + ^ .cfa: $rsp 40 +
STACK CFI 695f0 $rbp: .cfa -48 + ^ .cfa: $rsp 48 +
STACK CFI 695f1 $rbx: .cfa -56 + ^ .cfa: $rsp 56 +
STACK CFI 695f8 .cfa: $rsp 112 +
STACK CFI 696ce .cfa: $rsp 56 +
STACK CFI 696cf .cfa: $rsp 48 +
STACK CFI 696d0 .cfa: $rsp 40 +
STACK CFI 696d2 .cfa: $rsp 32 +
STACK CFI 696d4 .cfa: $rsp 24 +
STACK CFI 696d6 .cfa: $rsp 16 +
STACK CFI 696d8 .cfa: $rsp 8 +
STACK CFI 696e0 .cfa: $rsp 112 +
STACK CFI INIT 69740 eb .cfa: $rsp 8 + .ra: .cfa -8 + ^
STACK CFI 69742 $r14: .cfa -16 + ^ .cfa: $rsp 16 +
STACK CFI 69744 $r13: .cfa -24 + ^ .cfa: $rsp 24 +
STACK CFI 69746 $r12: .cfa -32 + ^ .cfa: $rsp 32 +
STACK CFI 69747 $rbp: .cfa -40 + ^ .cfa: $rsp 40 +
STACK CFI 69748 $rbx: .cfa -48 + ^ .cfa: $rsp 48 +
STACK CFI 6974c .cfa: $rsp 128 +
STACK CFI 6977a .cfa: $rsp 48 +
STACK CFI 6977b .cfa: $rsp 40 +
STACK CFI 6977c .cfa: $rsp 32 +
STACK CFI 6977e .cfa: $rsp 24 +
STACK CFI 69780 .cfa: $rsp 16 +
STACK CFI 69782 .cfa: $rsp 8 +
STACK CFI 69788 .cfa: $rsp 128 +
STACK CFI INIT 69830 f8 .cfa: $rsp 8 + .ra: .cfa -8 + ^
STACK CFI 69832 $r14: .cfa -16 + ^ .cfa: $rsp 16 +
STACK CFI 69834 $r13: .cfa -24 + ^ .cfa: $rsp 24 +
STACK CFI 69836 $r12: .cfa -32 + ^ .cfa: $rsp 32 +
STACK CFI 69837 $rbp: .cfa -40 + ^ .cfa: $rsp 40 +
STACK CFI 69838 $rbx: .cfa -48 + ^ .cfa: $rsp 48 +
STACK CFI 6983c .cfa: $rsp 128 +
STACK CFI 6986d .cfa: $rsp 48 +
STACK CFI 6986e .cfa: $rsp 40 +
STACK CFI 6986f .cfa: $rsp 32 +
STACK CFI 69871 .cfa: $rsp 24 +
STACK CFI 69873 .cfa: $rsp 16 +
STACK CFI 69875 .cfa: $rsp 8 +
STACK CFI 69880 .cfa: $rsp 128 +
STACK CFI INIT 69930 eb .cfa: $rsp 8 + .ra: .cfa -8 + ^
STACK CFI 69932 $r14: .cfa -16 + ^ .cfa: $rsp 16 +
STACK CFI 69934 $r13: .cfa -24 + ^ .cfa: $rsp 24 +
STACK CFI 69936 $r12: .cfa -32 + ^ .cfa: $rsp 32 +
STACK CFI 69937 $rbp: .cfa -40 + ^ .cfa: $rsp 40 +
STACK CFI 69938 $rbx: .cfa -48 + ^ .cfa: $rsp 48 +
STACK CFI 6993c .cfa: $rsp 128 +
STACK CFI 6996a .cfa: $rsp 48 +
STACK CFI 6996b .cfa: $rsp 40 +
STACK CFI 6996c .cfa: $rsp 32 +
STACK CFI 6996e .cfa: $rsp 24 +
STACK CFI 69970 .cfa: $rsp 16 +
STACK CFI 69972 .cfa: $rsp 8 +
STACK CFI 69978 .cfa: $rsp 128 +
STACK CFI INIT 60870 276 .cfa: $rsp 8 + .ra: .cfa -8 + ^
STACK CFI 60872 $r15: .cfa -16 + ^ .cfa: $rsp 16 +
STACK CFI 60874 $r14: .cfa -24 + ^ .cfa: $rsp 24 +
STACK CFI 60879 $r13: .cfa -32 + ^ .cfa: $rsp 32 +
STACK CFI 6087b $r12: .cfa -40 + ^ .cfa: $rsp 40 +
STACK CFI 60883 $rbp: .cfa -48 + ^ .cfa: $rsp 48 +
STACK CFI 60884 $rbx: .cfa -56 + ^ .cfa: $rsp 56 +
STACK CFI 60893 .cfa: $rsp 128 +
STACK CFI 60a04 .cfa: $rsp 56 +
STACK CFI 60a05 .cfa: $rsp 48 +
STACK CFI 60a06 .cfa: $rsp 40 +
STACK CFI 60a08 .cfa: $rsp 32 +
STACK CFI 60a0a .cfa: $rsp 24 +
STACK CFI 60a0c .cfa: $rsp 16 +
STACK CFI 60a0e .cfa: $rsp 8 +
STACK CFI 60a10 .cfa: $rsp 128 +
STACK CFI INIT 69a20 c1a .cfa: $rsp 8 + .ra: .cfa -8 + ^
STACK CFI 69a21 $rbp: .cfa -16 + ^ .cfa: $rsp 16 +
STACK CFI 69a24 .cfa: $rbp 16 +
STACK CFI 69a2c $r12: .cfa -48 + ^ $r13: .cfa -40 + ^ $r14: .cfa -32 + ^ $r15: .cfa -24 + ^
STACK CFI 69a34 $rbx: .cfa -56 + ^
STACK CFI 69f87 .cfa: $rsp 8 +
STACK CFI 69f90 .cfa: $rbp 16 +
STACK CFI INIT 6a640 eb .cfa: $rsp 8 + .ra: .cfa -8 + ^
STACK CFI 6a642 $r14: .cfa -16 + ^ .cfa: $rsp 16 +
STACK CFI 6a644 $r13: .cfa -24 + ^ .cfa: $rsp 24 +
STACK CFI 6a646 $r12: .cfa -32 + ^ .cfa: $rsp 32 +
STACK CFI 6a647 $rbp: .cfa -40 + ^ .cfa: $rsp 40 +
STACK CFI 6a648 $rbx: .cfa -48 + ^ .cfa: $rsp 48 +
STACK CFI 6a64c .cfa: $rsp 128 +
STACK CFI 6a67a .cfa: $rsp 48 +
STACK CFI 6a67b .cfa: $rsp 40 +
STACK CFI 6a67c .cfa: $rsp 32 +
STACK CFI 6a67e .cfa: $rsp 24 +
STACK CFI 6a680 .cfa: $rsp 16 +
STACK CFI 6a682 .cfa: $rsp 8 +
STACK CFI 6a688 .cfa: $rsp 128 +
STACK CFI INIT 60af0 16a .cfa: $rsp 8 + .ra: .cfa -8 + ^
STACK CFI 60af2 $r14: .cfa -16 + ^ .cfa: $rsp 16 +
STACK CFI 60af4 $r13: .cfa -24 + ^ .cfa: $rsp 24 +
STACK CFI 60b00 $r12: .cfa -32 + ^ .cfa: $rsp 32 +
STACK CFI 60b01 $rbp: .cfa -40 + ^ .cfa: $rsp 40 +
STACK CFI 60b05 $rbx: .cfa -48 + ^ .cfa: $rsp 48 +
STACK CFI 60bef .cfa: $rsp 40 +
STACK CFI 60bf0 .cfa: $rsp 32 +
STACK CFI 60bf2 .cfa: $rsp 24 +
STACK CFI 60bf4 .cfa: $rsp 16 +
STACK CFI 60bf6 .cfa: $rsp 8 +
STACK CFI 60bfb .cfa: $rsp 48 +
STACK CFI 60bfe .cfa: $rsp 40 +
STACK CFI 60bff .cfa: $rsp 32 +
STACK CFI 60c01 .cfa: $rsp 24 +
STACK CFI 60c03 .cfa: $rsp 16 +
STACK CFI 60c05 .cfa: $rsp 8 +
STACK CFI 60c10 .cfa: $rsp 48 +
STACK CFI INIT 60c60 12 .cfa: $rsp 8 + .ra: .cfa -8 + ^
STACK CFI INIT 60c80 1a .cfa: $rsp 8 + .ra: .cfa -8 + ^
STACK CFI INIT 60ca0 26b .cfa: $rsp 8 + .ra: .cfa -8 + ^
STACK CFI 60ca2 $r12: .cfa -16 + ^ .cfa: $rsp 16 +
STACK CFI 60ca3 $rbp: .cfa -24 + ^ .cfa: $rsp 24 +
STACK CFI 60ca7 $rbx: .cfa -32 + ^ .cfa: $rsp 32 +
STACK CFI 60cb4 .cfa: $rsp 80 +
STACK CFI 60d03 .cfa: $rsp 32 +
STACK CFI 60d04 .cfa: $rsp 24 +
STACK CFI 60d05 .cfa: $rsp 16 +
STACK CFI 60d07 .cfa: $rsp 8 +
STACK CFI 60d10 .cfa: $rsp 80 +
STACK CFI INIT 60f10 c0 .cfa: $rsp 8 + .ra: .cfa -8 + ^
STACK CFI 60f12 $r13: .cfa -16 + ^ .cfa: $rsp 16 +
STACK CFI 60f14 $r12: .cfa -24 + ^ .cfa: $rsp 24 +
STACK CFI 60f18 $rbp: .cfa -32 + ^ .cfa: $rsp 32 +
STACK CFI 60f19 $rbx: .cfa -40 + ^ .cfa: $rsp 40 +
STACK CFI 60f35 .cfa: $rsp 48 +
STACK CFI 60fba .cfa: $rsp 40 +
STACK CFI 60fc6 .cfa: $rsp 32 +
STACK CFI 60fc7 .cfa: $rsp 24 +
STACK CFI 60fc9 .cfa: $rsp 16 +
STACK CFI 60fcb .cfa: $rsp 8 +
STACK CFI INIT 60fd0 219 .cfa: $rsp 8 + .ra: .cfa -8 + ^
STACK CFI 60fd2 $r15: .cfa -16 + ^ .cfa: $rsp 16 +
STACK CFI 60fd4 $r14: .cfa -24 + ^ .cfa: $rsp 24 +
STACK CFI 60fd6 $r13: .cfa -32 + ^ .cfa: $rsp 32 +
STACK CFI 60fd8 $r12: .cfa -40 + ^ .cfa: $rsp 40 +
STACK CFI 60fdc $rbp: .cfa -48 + ^ .cfa: $rsp 48 +
STACK CFI 60fdd $rbx: .cfa -56 + ^ .cfa: $rsp 56 +
STACK CFI 60fe7 .cfa: $rsp 896 +
STACK CFI 610e3 .cfa: $rsp 56 +
STACK CFI 610e4 .cfa: $rsp 48 +
STACK CFI 610e5 .cfa: $rsp 40 +
STACK CFI 610e7 .cfa: $rsp 32 +
STACK CFI 610e9 .cfa: $rsp 24 +
STACK CFI 610eb .cfa: $rsp 16 +
STACK CFI 610ed .cfa: $rsp 8 +
STACK CFI 610f0 .cfa: $rsp 896 +
STACK CFI INIT 611f0 1784 .cfa: $rsp 8 + .ra: .cfa -8 + ^
STACK CFI 611f1 $rbp: .cfa -16 + ^ .cfa: $rsp 16 +
STACK CFI 611f4 .cfa: $rbp 16 +
STACK CFI 611fd $r12: .cfa -48 + ^ $r13: .cfa -40 + ^ $r14: .cfa -32 + ^ $r15: .cfa -24 + ^ $rbx: .cfa -56 + ^
STACK CFI 614fb .cfa: $rsp 8 +
STACK CFI 614fc .cfa: $rbp 16 +
STACK CFI INIT 62980 231 .cfa: $rsp 8 + .ra: .cfa -8 + ^
STACK CFI 62982 $r14: .cfa -16 + ^ .cfa: $rsp 16 +
STACK CFI 62984 $r13: .cfa -24 + ^ .cfa: $rsp 24 +
STACK CFI 6298d $r12: .cfa -32 + ^ .cfa: $rsp 32 +
STACK CFI 6298e $rbp: .cfa -40 + ^ .cfa: $rsp 40 +
STACK CFI 62992 $rbx: .cfa -48 + ^ .cfa: $rsp 48 +
STACK CFI 629b3 .cfa: $rsp 33152 +
STACK CFI 62ba3 .cfa: $rsp 48 +
STACK CFI 62ba4 .cfa: $rsp 40 +
STACK CFI 62ba5 .cfa: $rsp 32 +
STACK CFI 62ba7 .cfa: $rsp 24 +
STACK CFI 62ba9 .cfa: $rsp 16 +
STACK CFI 62bab .cfa: $rsp 8 +
STACK CFI 62bac .cfa: $rsp 33152 +
STACK CFI INIT 62bc0 3a .cfa: $rsp 8 + .ra: .cfa -8 + ^
STACK CFI 62bc6 $rbx: .cfa -16 + ^ .cfa: $rsp 16 +
STACK CFI 62bec $rbx: $rbx .cfa: $rsp 8 +
STACK CFI INIT 62c00 274 .cfa: $rsp 8 + .ra: .cfa -8 + ^
STACK CFI 62c02 $r13: .cfa -16 + ^ .cfa: $rsp 16 +
STACK CFI 62c04 $r12: .cfa -24 + ^ .cfa: $rsp 24 +
STACK CFI 62c05 $rbp: .cfa -32 + ^ .cfa: $rsp 32 +
STACK CFI 62c06 $rbx: .cfa -40 + ^ .cfa: $rsp 40 +
STACK CFI 62c13 .cfa: $rsp 64 +
STACK CFI 62d18 .cfa: $rsp 40 +
STACK CFI 62d19 .cfa: $rsp 32 +
STACK CFI 62d1a .cfa: $rsp 24 +
STACK CFI 62d1c .cfa: $rsp 16 +
STACK CFI 62d1e .cfa: $rsp 8 +
STACK CFI 62d20 .cfa: $rsp 64 +
STACK CFI INIT 6a730 f8 .cfa: $rsp 8 + .ra: .cfa -8 + ^
STACK CFI 6a732 $r14: .cfa -16 + ^ .cfa: $rsp 16 +
STACK CFI 6a734 $r13: .cfa -24 + ^ .cfa: $rsp 24 +
STACK CFI 6a736 $r12: .cfa -32 + ^ .cfa: $rsp 32 +
STACK CFI 6a737 $rbp: .cfa -40 + ^ .cfa: $rsp 40 +
STACK CFI 6a738 $rbx: .cfa -48 + ^ .cfa: $rsp 48 +
STACK CFI 6a73c .cfa: $rsp 128 +
STACK CFI 6a76d .cfa: $rsp 48 +
STACK CFI 6a76e .cfa: $rsp 40 +
STACK CFI 6a76f .cfa: $rsp 32 +
STACK CFI 6a771 .cfa: $rsp 24 +
STACK CFI 6a773 .cfa: $rsp 16 +
STACK CFI 6a775 .cfa: $rsp 8 +
STACK CFI 6a780 .cfa: $rsp 128 +
STACK CFI INIT 6a830 c4a .cfa: $rsp 8 + .ra: .cfa -8 + ^
STACK CFI 6a831 $rbp: .cfa -16 + ^ .cfa: $rsp 16 +
STACK CFI 6a834 .cfa: $rbp 16 +
STACK CFI 6a83c $r12: .cfa -48 + ^ $r13: .cfa -40 + ^ $r14: .cfa -32 + ^ $r15: .cfa -24 + ^
STACK CFI 6a847 $rbx: .cfa -56 + ^
STACK CFI 6adc1 .cfa: $rsp 8 +
STACK CFI 6adc8 .cfa: $rbp 16 +
STACK CFI INIT 6b480 fa .cfa: $rsp 8 + .ra: .cfa -8 + ^
STACK CFI 6b482 $r14: .cfa -16 + ^ .cfa: $rsp 16 +
STACK CFI 6b484 $r13: .cfa -24 + ^ .cfa: $rsp 24 +
STACK CFI 6b486 $r12: .cfa -32 + ^ .cfa: $rsp 32 +
STACK CFI 6b487 $rbp: .cfa -40 + ^ .cfa: $rsp 40 +
STACK CFI 6b488 $rbx: .cfa -48 + ^ .cfa: $rsp 48 +
STACK CFI 6b48c .cfa: $rsp 128 +
STACK CFI 6b4be .cfa: $rsp 48 +
STACK CFI 6b4bf .cfa: $rsp 40 +
STACK CFI 6b4c0 .cfa: $rsp 32 +
STACK CFI 6b4c2 .cfa: $rsp 24 +
STACK CFI 6b4c4 .cfa: $rsp 16 +
STACK CFI 6b4c6 .cfa: $rsp 8 +
STACK CFI 6b4d0 .cfa: $rsp 128 +
STACK CFI INIT 62e80 88 .cfa: $rsp 8 + .ra: .cfa -8 + ^
STACK CFI 62e81 $rbx: .cfa -16 + ^ .cfa: $rsp 16 +
STACK CFI 62e88 .cfa: $rsp 32 +
STACK CFI 62f01 .cfa: $rsp 16 +
STACK CFI 62f02 .cfa: $rsp 8 +
STACK CFI 62f03 .cfa: $rsp 32 +
STACK CFI INIT 6b580 fb .cfa: $rsp 8 + .ra: .cfa -8 + ^
STACK CFI 6b582 $r14: .cfa -16 + ^ .cfa: $rsp 16 +
STACK CFI 6b584 $r13: .cfa -24 + ^ .cfa: $rsp 24 +
STACK CFI 6b586 $r12: .cfa -32 + ^ .cfa: $rsp 32 +
STACK CFI 6b587 $rbp: .cfa -40 + ^ .cfa: $rsp 40 +
STACK CFI 6b588 $rbx: .cfa -48 + ^ .cfa: $rsp 48 +
STACK CFI 6b58c .cfa: $rsp 128 +
STACK CFI 6b5bd .cfa: $rsp 48 +
STACK CFI 6b5be .cfa: $rsp 40 +
STACK CFI 6b5bf .cfa: $rsp 32 +
STACK CFI 6b5c1 .cfa: $rsp 24 +
STACK CFI 6b5c3 .cfa: $rsp 16 +
STACK CFI 6b5c5 .cfa: $rsp 8 +
STACK CFI 6b5d0 .cfa: $rsp 128 +
STACK CFI INIT 62f10 16b .cfa: $rsp 8 + .ra: .cfa -8 + ^
STACK CFI 62f12 $r13: .cfa -16 + ^ .cfa: $rsp 16 +
STACK CFI 62f14 $r12: .cfa -24 + ^ .cfa: $rsp 24 +
STACK CFI 62f15 $rbp: .cfa -32 + ^ .cfa: $rsp 32 +
STACK CFI 62f16 $rbx: .cfa -40 + ^ .cfa: $rsp 40 +
STACK CFI 62f23 .cfa: $rsp 64 +
STACK CFI 62f78 .cfa: $rsp 40 +
STACK CFI 62f79 .cfa: $rsp 32 +
STACK CFI 62f7a .cfa: $rsp 24 +
STACK CFI 62f7c .cfa: $rsp 16 +
STACK CFI 62f7e .cfa: $rsp 8 +
STACK CFI 62f80 .cfa: $rsp 64 +
STACK CFI INIT 6b680 c4a .cfa: $rsp 8 + .ra: .cfa -8 + ^
STACK CFI 6b681 $rbp: .cfa -16 + ^ .cfa: $rsp 16 +
STACK CFI 6b684 .cfa: $rbp 16 +
STACK CFI 6b68c $r12: .cfa -48 + ^ $r13: .cfa -40 + ^ $r14: .cfa -32 + ^ $r15: .cfa -24 + ^
STACK CFI 6b697 $rbx: .cfa -56 + ^
STACK CFI 6bc11 .cfa: $rsp 8 +
STACK CFI 6bc18 .cfa: $rbp 16 +
STACK CFI INIT 6c2d0 fb .cfa: $rsp 8 + .ra: .cfa -8 + ^
STACK CFI 6c2d2 $r14: .cfa -16 + ^ .cfa: $rsp 16 +
STACK CFI 6c2d4 $r13: .cfa -24 + ^ .cfa: $rsp 24 +
STACK CFI 6c2d6 $r12: .cfa -32 + ^ .cfa: $rsp 32 +
STACK CFI 6c2d7 $rbp: .cfa -40 + ^ .cfa: $rsp 40 +
STACK CFI 6c2d8 $rbx: .cfa -48 + ^ .cfa: $rsp 48 +
STACK CFI 6c2dc .cfa: $rsp 128 +
STACK CFI 6c30d .cfa: $rsp 48 +
STACK CFI 6c30e .cfa: $rsp 40 +
STACK CFI 6c30f .cfa: $rsp 32 +
STACK CFI 6c311 .cfa: $rsp 24 +
STACK CFI 6c313 .cfa: $rsp 16 +
STACK CFI 6c315 .cfa: $rsp 8 +
STACK CFI 6c320 .cfa: $rsp 128 +
STACK CFI INIT 63080 1fb .cfa: $rsp 8 + .ra: .cfa -8 + ^
STACK CFI 63081 $rbp: .cfa -16 + ^ .cfa: $rsp 16 +
STACK CFI 63082 $rbx: .cfa -24 + ^ .cfa: $rsp 24 +
STACK CFI 6308f .cfa: $rsp 48 +
STACK CFI 63128 .cfa: $rsp 24 +
STACK CFI 63129 .cfa: $rsp 16 +
STACK CFI 6312a .cfa: $rsp 8 +
STACK CFI 63130 .cfa: $rsp 48 +
STACK CFI INIT 6c3d0 fb .cfa: $rsp 8 + .ra: .cfa -8 + ^
STACK CFI 6c3d2 $r14: .cfa -16 + ^ .cfa: $rsp 16 +
STACK CFI 6c3d4 $r13: .cfa -24 + ^ .cfa: $rsp 24 +
STACK CFI 6c3d6 $r12: .cfa -32 + ^ .cfa: $rsp 32 +
STACK CFI 6c3d7 $rbp: .cfa -40 + ^ .cfa: $rsp 40 +
STACK CFI 6c3d8 $rbx: .cfa -48 + ^ .cfa: $rsp 48 +
STACK CFI 6c3dc .cfa: $rsp 128 +
STACK CFI 6c40d .cfa: $rsp 48 +
STACK CFI 6c40e .cfa: $rsp 40 +
STACK CFI 6c40f .cfa: $rsp 32 +
STACK CFI 6c411 .cfa: $rsp 24 +
STACK CFI 6c413 .cfa: $rsp 16 +
STACK CFI 6c415 .cfa: $rsp 8 +
STACK CFI 6c420 .cfa: $rsp 128 +
STACK CFI INIT 63280 c96 .cfa: $rsp 8 + .ra: .cfa -8 + ^
STACK CFI 63282 $r15: .cfa -16 + ^ .cfa: $rsp 16 +
STACK CFI 63284 $r14: .cfa -24 + ^ .cfa: $rsp 24 +
STACK CFI 63286 $r13: .cfa -32 + ^ .cfa: $rsp 32 +
STACK CFI 63288 $r12: .cfa -40 + ^ .cfa: $rsp 40 +
STACK CFI 63289 $rbp: .cfa -48 + ^ .cfa: $rsp 48 +
STACK CFI 6328a $rbx: .cfa -56 + ^ .cfa: $rsp 56 +
STACK CFI 63291 .cfa: $rsp 1296 +
STACK CFI 635de .cfa: $rsp 56 +
STACK CFI 635df .cfa: $rsp 48 +
STACK CFI 635e0 .cfa: $rsp 40 +
STACK CFI 635e2 .cfa: $rsp 32 +
STACK CFI 635e4 .cfa: $rsp 24 +
STACK CFI 635e6 .cfa: $rsp 16 +
STACK CFI 635e8 .cfa: $rsp 8 +
STACK CFI 635e9 .cfa: $rsp 1296 +
STACK CFI INIT 196c0 e0 .cfa: $rsp 8 + .ra: .cfa -8 + ^
STACK CFI 196c1 $rbp: .cfa -16 + ^ .cfa: $rsp 16 +
STACK CFI 196c2 $rbx: .cfa -24 + ^ .cfa: $rsp 24 +
STACK CFI 196cd .cfa: $rsp 80 +
STACK CFI 1977b .cfa: $rsp 24 +
STACK CFI 1977c .cfa: $rsp 16 +
STACK CFI 1977d .cfa: $rsp 8 +
STACK CFI 1977e .cfa: $rsp 80 +
STACK CFI INIT 6c4d0 c2 .cfa: $rsp 8 + .ra: .cfa -8 + ^
STACK CFI 6c4d2 $r12: .cfa -16 + ^ .cfa: $rsp 16 +
STACK CFI 6c4d3 $rbp: .cfa -24 + ^ .cfa: $rsp 24 +
STACK CFI 6c4d7 $rbx: .cfa -32 + ^ .cfa: $rsp 32 +
STACK CFI 6c4de .cfa: $rsp 48 +
STACK CFI 6c54a .cfa: $rsp 32 +
STACK CFI 6c54b .cfa: $rsp 24 +
STACK CFI 6c54c .cfa: $rsp 16 +
STACK CFI 6c54e .cfa: $rsp 8 +
STACK CFI 6c550 .cfa: $rsp 48 +
STACK CFI INIT 6d740 9e .cfa: $rsp 8 + .ra: .cfa -8 + ^
STACK CFI 6d796 $rbp: .cfa -16 + ^ .cfa: $rsp 16 +
STACK CFI 6d797 $rbx: .cfa -24 + ^ .cfa: $rsp 24 +
STACK CFI 6d7a4 .cfa: $rsp 32 +
STACK CFI 6d7ad .cfa: $rsp 24 +
STACK CFI 6d7b4 $rbx: $rbx .cfa: $rsp 16 +
STACK CFI 6d7b5 $rbp: $rbp .cfa: $rsp 8 +
STACK CFI INIT 6d7e0 9e .cfa: $rsp 8 + .ra: .cfa -8 + ^
STACK CFI 6d836 $rbp: .cfa -16 + ^ .cfa: $rsp 16 +
STACK CFI 6d837 $rbx: .cfa -24 + ^ .cfa: $rsp 24 +
STACK CFI 6d844 .cfa: $rsp 32 +
STACK CFI 6d84d .cfa: $rsp 24 +
STACK CFI 6d854 $rbx: $rbx .cfa: $rsp 16 +
STACK CFI 6d855 $rbp: $rbp .cfa: $rsp 8 +
STACK CFI INIT 6d880 8d .cfa: $rsp 8 + .ra: .cfa -8 + ^
STACK CFI 6d881 $rbp: .cfa -16 + ^ .cfa: $rsp 16 +
STACK CFI 6d882 $rbx: .cfa -24 + ^ .cfa: $rsp 24 +
STACK CFI 6d894 .cfa: $rsp 80 +
STACK CFI 6d8e8 .cfa: $rsp 24 +
STACK CFI 6d8e9 .cfa: $rsp 16 +
STACK CFI 6d8ea .cfa: $rsp 8 +
STACK CFI 6d8eb .cfa: $rsp 80 +
STACK CFI INIT 6d910 8d .cfa: $rsp 8 + .ra: .cfa -8 + ^
STACK CFI 6d911 $rbp: .cfa -16 + ^ .cfa: $rsp 16 +
STACK CFI 6d912 $rbx: .cfa -24 + ^ .cfa: $rsp 24 +
STACK CFI 6d924 .cfa: $rsp 80 +
STACK CFI 6d978 .cfa: $rsp 24 +
STACK CFI 6d979 .cfa: $rsp 16 +
STACK CFI 6d97a .cfa: $rsp 8 +
STACK CFI 6d97b .cfa: $rsp 80 +
STACK CFI INIT 6c5a0 209 .cfa: $rsp 8 + .ra: .cfa -8 + ^
STACK CFI 6c5a2 $r15: .cfa -16 + ^ .cfa: $rsp 16 +
STACK CFI 6c5a4 $r14: .cfa -24 + ^ .cfa: $rsp 24 +
STACK CFI 6c5ad $r13: .cfa -32 + ^ .cfa: $rsp 32 +
STACK CFI 6c5af $r12: .cfa -40 + ^ .cfa: $rsp 40 +
STACK CFI 6c5b0 $rbp: .cfa -48 + ^ .cfa: $rsp 48 +
STACK CFI 6c5b1 $rbx: .cfa -56 + ^ .cfa: $rsp 56 +
STACK CFI 6c5b8 .cfa: $rsp 1136 +
STACK CFI 6c743 .cfa: $rsp 56 +
STACK CFI 6c744 .cfa: $rsp 48 +
STACK CFI 6c745 .cfa: $rsp 40 +
STACK CFI 6c747 .cfa: $rsp 32 +
STACK CFI 6c749 .cfa: $rsp 24 +
STACK CFI 6c74b .cfa: $rsp 16 +
STACK CFI 6c74d .cfa: $rsp 8 +
STACK CFI 6c750 .cfa: $rsp 1136 +
STACK CFI INIT 6c7b0 8b .cfa: $rsp 8 + .ra: .cfa -8 + ^
STACK CFI 6c7be $rbp: .cfa -16 + ^ .cfa: $rsp 16 +
STACK CFI 6c7bf $rbx: .cfa -24 + ^ .cfa: $rsp 24 +
STACK CFI 6c7cf .cfa: $rsp 32 +
STACK CFI 6c837 .cfa: $rsp 24 +
STACK CFI 6c838 $rbx: $rbx .cfa: $rsp 16 +
STACK CFI 6c839 $rbp: $rbp .cfa: $rsp 8 +
STACK CFI INIT 6c840 5b .cfa: $rsp 8 + .ra: .cfa -8 + ^
STACK CFI 6c841 $rbx: .cfa -16 + ^ .cfa: $rsp 16 +
STACK CFI 6c872 .cfa: $rsp 8 +
STACK CFI 6c878 .cfa: $rsp 16 +
STACK CFI 6c88c .cfa: $rsp 8 +
STACK CFI INIT 6c8a0 8a .cfa: $rsp 8 + .ra: .cfa -8 + ^
STACK CFI 6c8a8 $rbx: .cfa -16 + ^ .cfa: $rsp 16 +
STACK CFI 6c903 .cfa: $rsp 8 +
STACK CFI 6c908 .cfa: $rsp 16 +
STACK CFI INIT 6c930 f7 .cfa: $rsp 8 + .ra: .cfa -8 + ^
STACK CFI 6c939 $r12: .cfa -16 + ^ .cfa: $rsp 16 +
STACK CFI 6c93a $rbp: .cfa -24 + ^ .cfa: $rsp 24 +
STACK CFI 6c93b $rbx: .cfa -32 + ^ .cfa: $rsp 32 +
STACK CFI 6ca08 .cfa: $rsp 24 +
STACK CFI 6ca09 .cfa: $rsp 16 +
STACK CFI 6ca0b .cfa: $rsp 8 +
STACK CFI 6ca0c .cfa: $rsp 32 +
STACK CFI INIT 6ca30 47 .cfa: $rsp 8 + .ra: .cfa -8 + ^
STACK CFI 6ca31 $rbp: .cfa -16 + ^ .cfa: $rsp 16 +
STACK CFI 6ca32 $rbx: .cfa -24 + ^ .cfa: $rsp 24 +
STACK CFI 6ca44 .cfa: $rsp 32 +
STACK CFI 6ca62 .cfa: $rsp 24 +
STACK CFI 6ca6f .cfa: $rsp 16 +
STACK CFI 6ca70 .cfa: $rsp 8 +
STACK CFI INIT 6ca80 40c .cfa: $rsp 8 + .ra: .cfa -8 + ^
STACK CFI 6ca84 .cfa: $rsp 16 +
STACK CFI 6ce8b .cfa: $rsp 8 +
STACK CFI INIT 6ce90 b3 .cfa: $rsp 8 + .ra: .cfa -8 + ^
STACK CFI 6ce99 $r14: .cfa -16 + ^ .cfa: $rsp 16 +
STACK CFI 6cea1 $r13: .cfa -24 + ^ .cfa: $rsp 24 +
STACK CFI 6cea3 $r12: .cfa -32 + ^ .cfa: $rsp 32 +
STACK CFI 6cea7 $rbp: .cfa -40 + ^ .cfa: $rsp 40 +
STACK CFI 6cea8 $rbx: .cfa -48 + ^ .cfa: $rsp 48 +
STACK CFI 6cf3b .cfa: $rsp 40 +
STACK CFI 6cf3c .cfa: $rsp 32 +
STACK CFI 6cf3e .cfa: $rsp 24 +
STACK CFI 6cf40 .cfa: $rsp 16 +
STACK CFI 6cf42 .cfa: $rsp 8 +
STACK CFI INIT 6d9a0 cc0 .cfa: $rsp 8 + .ra: .cfa -8 + ^
STACK CFI 6d9a1 $rbp: .cfa -16 + ^ .cfa: $rsp 16 +
STACK CFI 6d9a4 .cfa: $rbp 16 +
STACK CFI 6d9ad $r12: .cfa -48 + ^ $r13: .cfa -40 + ^ $r14: .cfa -32 + ^ $r15: .cfa -24 + ^ $rbx: .cfa -56 + ^
STACK CFI 6da05 .cfa: $rsp 8 +
STACK CFI 6da06 .cfa: $rbp 16 +
STACK CFI INIT 6e660 cc0 .cfa: $rsp 8 + .ra: .cfa -8 + ^
STACK CFI 6e661 $rbp: .cfa -16 + ^ .cfa: $rsp 16 +
STACK CFI 6e664 .cfa: $rbp 16 +
STACK CFI 6e66d $r12: .cfa -48 + ^ $r13: .cfa -40 + ^ $r14: .cfa -32 + ^ $r15: .cfa -24 + ^ $rbx: .cfa -56 + ^
STACK CFI 6e6c5 .cfa: $rsp 8 +
STACK CFI 6e6c6 .cfa: $rbp 16 +
STACK CFI INIT 6f320 cc0 .cfa: $rsp 8 + .ra: .cfa -8 + ^
STACK CFI 6f321 $rbp: .cfa -16 + ^ .cfa: $rsp 16 +
STACK CFI 6f324 .cfa: $rbp 16 +
STACK CFI 6f32d $r12: .cfa -48 + ^ $r13: .cfa -40 + ^ $r14: .cfa -32 + ^ $r15: .cfa -24 + ^ $rbx: .cfa -56 + ^
STACK CFI 6f385 .cfa: $rsp 8 +
STACK CFI 6f386 .cfa: $rbp 16 +
STACK CFI INIT 6cf50 12b .cfa: $rsp 8 + .ra: .cfa -8 + ^
STACK CFI 6cf69 $rbx: .cfa -16 + ^ .cfa: $rsp 16 +
STACK CFI 6d07a $rbx: $rbx .cfa: $rsp 8 +
STACK CFI INIT 6d080 8d .cfa: $rsp 8 + .ra: .cfa -8 + ^
STACK CFI 6d082 $r12: .cfa -16 + ^ .cfa: $rsp 16 +
STACK CFI 6d083 $rbp: .cfa -24 + ^ .cfa: $rsp 24 +
STACK CFI 6d084 $rbx: .cfa -32 + ^ .cfa: $rsp 32 +
STACK CFI 6d088 .cfa: $rsp 48 +
STACK CFI 6d0f2 .cfa: $rsp 32 +
STACK CFI 6d0f3 .cfa: $rsp 24 +
STACK CFI 6d0f4 .cfa: $rsp 16 +
STACK CFI 6d0f6 .cfa: $rsp 8 +
STACK CFI 6d0f7 .cfa: $rsp 48 +
STACK CFI INIT 6d110 40c .cfa: $rsp 8 + .ra: .cfa -8 + ^
STACK CFI 6d112 $r14: .cfa -16 + ^ .cfa: $rsp 16 +
STACK CFI 6d114 $r13: .cfa -24 + ^ .cfa: $rsp 24 +
STACK CFI 6d119 $r12: .cfa -32 + ^ .cfa: $rsp 32 +
STACK CFI 6d11a $rbp: .cfa -40 + ^ .cfa: $rsp 40 +
STACK CFI 6d11e $rbx: .cfa -48 + ^ .cfa: $rsp 48 +
STACK CFI 6d13a .cfa: $rsp 1088 +
STACK CFI 6d497 .cfa: $rsp 48 +
STACK CFI 6d498 .cfa: $rsp 40 +
STACK CFI 6d499 .cfa: $rsp 32 +
STACK CFI 6d49b .cfa: $rsp 24 +
STACK CFI 6d49d .cfa: $rsp 16 +
STACK CFI 6d49f .cfa: $rsp 8 +
STACK CFI 6d4a0 .cfa: $rsp 1088 +
STACK CFI INIT 6d520 74 .cfa: $rsp 8 + .ra: .cfa -8 + ^
STACK CFI 6d524 .cfa: $rsp 32 +
STACK CFI 6d55c .cfa: $rsp 8 +
STACK CFI 6d560 .cfa: $rsp 32 +
STACK CFI 6d567 .cfa: $rsp 8 +
STACK CFI 6d568 .cfa: $rsp 32 +
STACK CFI INIT 6d5a0 9e .cfa: $rsp 8 + .ra: .cfa -8 + ^
STACK CFI 6d5a1 $rbx: .cfa -16 + ^ .cfa: $rsp 16 +
STACK CFI 6d5a5 .cfa: $rsp 32 +
STACK CFI 6d626 .cfa: $rsp 16 +
STACK CFI 6d627 .cfa: $rsp 8 +
STACK CFI 6d628 .cfa: $rsp 32 +
STACK CFI INIT 6d640 72 .cfa: $rsp 8 + .ra: .cfa -8 + ^
STACK CFI 6d644 .cfa: $rsp 32 +
STACK CFI 6d685 .cfa: $rsp 8 +
STACK CFI 6d686 .cfa: $rsp 32 +
STACK CFI INIT 6d6c0 75 .cfa: $rsp 8 + .ra: .cfa -8 + ^
STACK CFI 6d6c4 .cfa: $rsp 32 +
STACK CFI 6d708 .cfa: $rsp 8 +
STACK CFI 6d709 .cfa: $rsp 32 +
STACK CFI INIT 197a0 2e .cfa: $rsp 8 + .ra: .cfa -8 + ^
STACK CFI 197ab .cfa: $rsp 16 +
STACK CFI 197c9 .cfa: $rsp 8 +
STACK CFI INIT 75f90 3a .cfa: $rsp 8 + .ra: .cfa -8 + ^
STACK CFI 75f98 $rbx: .cfa -16 + ^ .cfa: $rsp 16 +
STACK CFI 75fbe .cfa: $rsp 8 +
STACK CFI 75fc8 .cfa: $rsp 16 +
STACK CFI 75fc9 .cfa: $rsp 8 +
STACK CFI INIT 75fd0 3b .cfa: $rsp 8 + .ra: .cfa -8 + ^
STACK CFI 75fd6 $rbp: .cfa -16 + ^ .cfa: $rsp 16 +
STACK CFI 75fd7 $rbx: .cfa -24 + ^ .cfa: $rsp 24 +
STACK CFI 75fe5 .cfa: $rsp 32 +
STACK CFI 76007 .cfa: $rsp 24 +
STACK CFI 76008 $rbx: $rbx .cfa: $rsp 16 +
STACK CFI 76009 $rbp: $rbp .cfa: $rsp 8 +
STACK CFI INIT 76010 12 .cfa: $rsp 8 + .ra: .cfa -8 + ^
STACK CFI INIT 6ffe0 c2 .cfa: $rsp 8 + .ra: .cfa -8 + ^
STACK CFI 6ffe2 $r12: .cfa -16 + ^ .cfa: $rsp 16 +
STACK CFI 6ffe3 $rbp: .cfa -24 + ^ .cfa: $rsp 24 +
STACK CFI 6ffe7 $rbx: .cfa -32 + ^ .cfa: $rsp 32 +
STACK CFI 6ffee .cfa: $rsp 48 +
STACK CFI 7005a .cfa: $rsp 32 +
STACK CFI 7005b .cfa: $rsp 24 +
STACK CFI 7005c .cfa: $rsp 16 +
STACK CFI 7005e .cfa: $rsp 8 +
STACK CFI 70060 .cfa: $rsp 48 +
STACK CFI INIT 700b0 3c .cfa: $rsp 8 + .ra: .cfa -8 + ^
STACK CFI 700b1 $rbp: .cfa -16 + ^ .cfa: $rsp 16 +
STACK CFI 700b2 $rbx: .cfa -24 + ^ .cfa: $rsp 24 +
STACK CFI 700c7 .cfa: $rsp 32 +
STACK CFI 700df .cfa: $rsp 24 +
STACK CFI 700e6 .cfa: $rsp 16 +
STACK CFI 700e7 .cfa: $rsp 8 +
STACK CFI INIT 76030 3b .cfa: $rsp 8 + .ra: .cfa -8 + ^
STACK CFI 76038 $rbx: .cfa -16 + ^ .cfa: $rsp 16 +
STACK CFI 76066 .cfa: $rsp 8 +
STACK CFI INIT 76070 52 .cfa: $rsp 8 + .ra: .cfa -8 + ^
STACK CFI 76078 $rbx: .cfa -16 + ^ .cfa: $rsp 16 +
STACK CFI 760ba .cfa: $rsp 8 +
STACK CFI 760c0 .cfa: $rsp 16 +
STACK CFI 760c1 .cfa: $rsp 8 +
STACK CFI INIT 760d0 57 .cfa: $rsp 8 + .ra: .cfa -8 + ^
STACK CFI 760d8 $rbx: .cfa -16 + ^ .cfa: $rsp 16 +
STACK CFI 76122 .cfa: $rsp 8 +
STACK CFI INIT 76130 57 .cfa: $rsp 8 + .ra: .cfa -8 + ^
STACK CFI 76138 $rbx: .cfa -16 + ^ .cfa: $rsp 16 +
STACK CFI 76182 .cfa: $rsp 8 +
STACK CFI INIT 76190 52 .cfa: $rsp 8 + .ra: .cfa -8 + ^
STACK CFI 76198 $rbx: .cfa -16 + ^ .cfa: $rsp 16 +
STACK CFI 761da .cfa: $rsp 8 +
STACK CFI 761e0 .cfa: $rsp 16 +
STACK CFI 761e1 .cfa: $rsp 8 +
STACK CFI INIT 761f0 34b .cfa: $rsp 8 + .ra: .cfa -8 + ^
STACK CFI 761f2 $r14: .cfa -16 + ^ .cfa: $rsp 16 +
STACK CFI 761f4 $r13: .cfa -24 + ^ .cfa: $rsp 24 +
STACK CFI 761f6 $r12: .cfa -32 + ^ .cfa: $rsp 32 +
STACK CFI 761f7 $rbp: .cfa -40 + ^ .cfa: $rsp 40 +
STACK CFI 761f8 $rbx: .cfa -48 + ^ .cfa: $rsp 48 +
STACK CFI 761ff .cfa: $rsp 80 +
STACK CFI 76528 .cfa: $rsp 48 +
STACK CFI 76529 .cfa: $rsp 40 +
