MODULE Linux x86 7E47162858B99D725C1ADBFEF87E5FB40 main.nexe
FUNC c0 80 0 Beacon::
FUNC 140 2a0 0 Beacon::
FUNC 3e0 c0 0 Beacon::NewArea(beaconType_t, float const*, team_e)
FUNC 4a0 160 0 Beacon::MoveTowardsRoom(float*)
FUNC 600 160 0 Beacon::Propagate(gentity_s*)
FUNC 760 220 0 Beacon::FindSimilar(float const*, beaconType_t, int, int, int, float, int, int)
FUNC 980 c0 0 Beacon::PropagateAll()
FUNC a40 40 0 Beacon::UpdateTags(gentity_s*)
FUNC a80 e0 0 Beacon::DetachTags(gentity_s*)
FUNC b60 a0 0 Beacon::DeleteTags(gentity_s*)
FUNC c00 520 0 Beacon::TagTrace(float const*, float const*, int, int, team_e, bool)
FUNC 1120 480 0 Beacon::Tag(gentity_s*, team_e, bool)
FUNC 15a0 20 0 Beacon::Think(gentity_s*)
FUNC 15c0 160 0 Beacon::UpdateTagLocation(gentity_s*, gentity_s*)
FUNC 1720 20 0 Beacon::TagTrace_EntCmp(void const*, void const*)
FUNC 1740 20 0 std::__1::map<BaseClustering::baseClusteringLayer_e, Clustering::EntityClustering, std::__1::less<BaseClustering::baseClusteringLayer_e>, std::__1::allocator<std::__1::pair<BaseClustering::baseClusteringLayer_e const, Clustering::EntityClustering> > >::~map()
FUNC 1760 20 0 std::__1::map<BaseClustering::baseClusteringLayer_e, std::__1::unordered_set<gentity_s*, std::__1::hash<gentity_s*>, std::__1::equal_to<gentity_s*>, std::__1::allocator<gentity_s*> >, std::__1::less<BaseClustering::baseClusteringLayer_e>, std::__1::allocator<std::__1::pair<BaseClustering::baseClusteringLayer_e const, std::__1::unordered_set<gentity_s*, std::__1::hash<gentity_s*>, std::__1::equal_to<gentity_s*>, std::__1::allocator<gentity_s*> > > > >::~map()
FUNC 1780 20 0 Clustering::EntityClustering::edgeVisPVS(gentity_s*, gentity_s*)
FUNC 17a0 380 0 Clustering::EntityClustering::EntityClustering(float, std::__1::function<bool (gentity_s*, gentity_s*)>)
FUNC 1b20 200 0 Clustering::EuclideanClustering<gentity_s*, 3>::~EuclideanClustering()
FUNC 1d20 200 0 std::__1::map<BaseClustering::baseClusteringLayer_e, Clustering::EntityClustering, std::__1::less<BaseClustering::baseClusteringLayer_e>, std::__1::allocator<std::__1::pair<BaseClustering::baseClusteringLayer_e const, Clustering::EntityClustering> > >::operator[](BaseClustering::baseClusteringLayer_e const&)
FUNC 1f20 80 0 BaseClustering::Remove(gentity_s*)
FUNC 1fa0 380 0 Clustering::EuclideanClustering<gentity_s*, 3>::Remove(gentity_s* const&)
FUNC 2360 340 0 void std::__1::__tree_remove<std::__1::__tree_node_base<void*>*>(std::__1::__tree_node_base<void*>*, std::__1::__tree_node_base<void*>*)
FUNC 26a0 140 0 void std::__1::__tree_balance_after_insert<std::__1::__tree_node_base<void*>*>(std::__1::__tree_node_base<void*>*, std::__1::__tree_node_base<void*>*)
FUNC 27e0 200 0 Clustering::EuclideanClustering<gentity_s*, 3>::EuclideanClustering(Clustering::EuclideanClustering<gentity_s*, 3>&&)
FUNC 29e0 20 0 std::__1::__function::__base<bool (gentity_s*, gentity_s*)>::~__base()
FUNC 2a00 20 0 std::__1::__function::__func<bool (*)(gentity_s*, gentity_s*), std::__1::allocator<bool (*)(gentity_s*, gentity_s*)>, bool (gentity_s*, gentity_s*)>::~__func()
FUNC 2a20 60 0 std::__1::__function::__func<bool (*)(gentity_s*, gentity_s*), std::__1::allocator<bool (*)(gentity_s*, gentity_s*)>, bool (gentity_s*, gentity_s*)>::__clone() const
FUNC 2a80 20 0 std::__1::__function::__func<bool (*)(gentity_s*, gentity_s*), std::__1::allocator<bool (*)(gentity_s*, gentity_s*)>, bool (gentity_s*, gentity_s*)>::__clone(std::__1::__function::__base<bool (gentity_s*, gentity_s*)>*) const
FUNC 2aa0 20 0 std::__1::__function::__func<bool (*)(gentity_s*, gentity_s*), std::__1::allocator<bool (*)(gentity_s*, gentity_s*)>, bool (gentity_s*, gentity_s*)>::destroy()
FUNC 2ac0 20 0 std::__1::__function::__func<bool (*)(gentity_s*, gentity_s*), std::__1::allocator<bool (*)(gentity_s*, gentity_s*)>, bool (gentity_s*, gentity_s*)>::destroy_deallocate()
FUNC 2ae0 60 0 std::__1::__function::__func<bool (*)(gentity_s*, gentity_s*), std::__1::allocator<bool (*)(gentity_s*, gentity_s*)>, bool (gentity_s*, gentity_s*)>::operator()(gentity_s*&&, gentity_s*&&)
FUNC 2b40 20 0 std::__1::__function::__func<bool (*)(gentity_s*, gentity_s*), std::__1::allocator<bool (*)(gentity_s*, gentity_s*)>, bool (gentity_s*, gentity_s*)>::target(std::type_info const&) const
FUNC 2b60 20 0 std::__1::__function::__func<bool (*)(gentity_s*, gentity_s*), std::__1::allocator<bool (*)(gentity_s*, gentity_s*)>, bool (gentity_s*, gentity_s*)>::target_type() const
FUNC 2b80 440 0 std::__1::__hash_table<gentity_s*, std::__1::hash<gentity_s*>, std::__1::equal_to<gentity_s*>, std::__1::allocator<gentity_s*> >::__insert_unique(gentity_s* const&)
FUNC 2fc0 1e0 0 std::__1::__hash_table<gentity_s*, std::__1::hash<gentity_s*>, std::__1::equal_to<gentity_s*>, std::__1::allocator<gentity_s*> >::__rehash(unsigned int)
FUNC 31a0 260 0 Clustering::EuclideanCluster<gentity_s*, 3>::UpdateMetadata()
FUNC 3400 1800 0 Clustering::EuclideanClustering<gentity_s*, 3>::GenerateClusters()
FUNC 4c00 500 0 DisjointSets<gentity_s*>::MakeSetFast(gentity_s* const&)
FUNC 5100 2e0 0 DisjointSets<gentity_s*>::Link(gentity_s* const&, gentity_s* const&)
FUNC 53e0 180 0 std::__1::unordered_map<gentity_s*, Math::Vector<3u, float>, std::__1::hash<gentity_s*>, std::__1::equal_to<gentity_s*>, std::__1::allocator<std::__1::pair<gentity_s* const, Math::Vector<3u, float> > > >::operator[](gentity_s* const&)
FUNC 5560 380 0 void std::__1::vector<Clustering::EuclideanCluster<gentity_s*, 3>, std::__1::allocator<Clustering::EuclideanCluster<gentity_s*, 3> > >::__push_back_slow_path<Clustering::EuclideanCluster<gentity_s*, 3> const&>(Clustering::EuclideanCluster<gentity_s*, 3> const&)
FUNC 58e0 280 0 std::__1::unordered_map<gentity_s*, Math::Vector<3u, float>, std::__1::hash<gentity_s*>, std::__1::equal_to<gentity_s*>, std::__1::allocator<std::__1::pair<gentity_s* const, Math::Vector<3u, float> > > >::unordered_map(std::__1::unordered_map<gentity_s*, Math::Vector<3u, float>, std::__1::hash<gentity_s*>, std::__1::equal_to<gentity_s*>, std::__1::allocator<std::__1::pair<gentity_s* const, Math::Vector<3u, float> > > > const&)
FUNC 5b60 140 0 std::__1::__hash_table<std::__1::__hash_value_type<gentity_s*, Math::Vector<3u, float> >, std::__1::__unordered_map_hasher<gentity_s*, std::__1::__hash_value_type<gentity_s*, Math::Vector<3u, float> >, std::__1::hash<gentity_s*>, true>, std::__1::__unordered_map_equal<gentity_s*, std::__1::__hash_value_type<gentity_s*, Math::Vector<3u, float> >, std::__1::equal_to<gentity_s*>, true>, std::__1::allocator<std::__1::__hash_value_type<gentity_s*, Math::Vector<3u, float> > > >::rehash(unsigned int)
FUNC 5ca0 200 0 std::__1::__hash_table<std::__1::__hash_value_type<gentity_s*, Math::Vector<3u, float> >, std::__1::__unordered_map_hasher<gentity_s*, std::__1::__hash_value_type<gentity_s*, Math::Vector<3u, float> >, std::__1::hash<gentity_s*>, true>, std::__1::__unordered_map_equal<gentity_s*, std::__1::__hash_value_type<gentity_s*, Math::Vector<3u, float> >, std::__1::equal_to<gentity_s*>, true>, std::__1::allocator<std::__1::__hash_value_type<gentity_s*, Math::Vector<3u, float> > > >::__node_insert_unique(std::__1::__hash_node<std::__1::__hash_value_type<gentity_s*, Math::Vector<3u, float> >, void*>*)
FUNC 5ea0 1e0 0 std::__1::__hash_table<std::__1::__hash_value_type<gentity_s*, Math::Vector<3u, float> >, std::__1::__unordered_map_hasher<gentity_s*, std::__1::__hash_value_type<gentity_s*, Math::Vector<3u, float> >, std::__1::hash<gentity_s*>, true>, std::__1::__unordered_map_equal<gentity_s*, std::__1::__hash_value_type<gentity_s*, Math::Vector<3u, float> >, std::__1::equal_to<gentity_s*>, true>, std::__1::allocator<std::__1::__hash_value_type<gentity_s*, Math::Vector<3u, float> > > >::__rehash(unsigned int)
FUNC 6080 120 0 std::__1::pair<std::__1::__hash_iterator<std::__1::__hash_node<std::__1::__hash_value_type<gentity_s*, Math::Vector<3u, float> >, void*>*>, bool> std::__1::__hash_table<std::__1::__hash_value_type<gentity_s*, Math::Vector<3u, float> >, std::__1::__unordered_map_hasher<gentity_s*, std::__1::__hash_value_type<gentity_s*, Math::Vector<3u, float> >, std::__1::hash<gentity_s*>, true>, std::__1::__unordered_map_equal<gentity_s*, std::__1::__hash_value_type<gentity_s*, Math::Vector<3u, float> >, std::__1::equal_to<gentity_s*>, true>, std::__1::allocator<std::__1::__hash_value_type<gentity_s*, Math::Vector<3u, float> > > >::__insert_unique<std::__1::pair<gentity_s*, Math::Vector<3u, float> > >(std::__1::pair<gentity_s*, Math::Vector<3u, float> >&&)
FUNC 61a0 240 0 std::__1::unordered_map<gentity_s*, std::__1::unordered_set<gentity_s*, std::__1::hash<gentity_s*>, std::__1::equal_to<gentity_s*>, std::__1::allocator<gentity_s*> >, std::__1::hash<gentity_s*>, std::__1::equal_to<gentity_s*>, std::__1::allocator<std::__1::pair<gentity_s* const, std::__1::unordered_set<gentity_s*, std::__1::hash<gentity_s*>, std::__1::equal_to<gentity_s*>, std::__1::allocator<gentity_s*> > > > >::at(gentity_s* const&)
FUNC 63e0 120 0 std::__1::unique_ptr<std::__1::__hash_node<std::__1::__hash_value_type<gentity_s*, std::__1::unordered_set<gentity_s*, std::__1::hash<gentity_s*>, std::__1::equal_to<gentity_s*>, std::__1::allocator<gentity_s*> > >, void*>, std::__1::__hash_node_destructor<std::__1::allocator<std::__1::__hash_node<std::__1::__hash_value_type<gentity_s*, std::__1::unordered_set<gentity_s*, std::__1::hash<gentity_s*>, std::__1::equal_to<gentity_s*>, std::__1::allocator<gentity_s*> > >, void*> > > > std::__1::__hash_table<std::__1::__hash_value_type<gentity_s*, std::__1::unordered_set<gentity_s*, std::__1::hash<gentity_s*>, std::__1::equal_to<gentity_s*>, std::__1::allocator<gentity_s*> > >, std::__1::__unordered_map_hasher<gentity_s*, std::__1::__hash_value_type<gentity_s*, std::__1::unordered_set<gentity_s*, std::__1::hash<gentity_s*>, std::__1::equal_to<gentity_s*>, std::__1::allocator<gentity_s*> > >, std::__1::hash<gentity_s*>, true>, std::__1::__unordered_map_equal<gentity_s*, std::__1::__hash_value_type<gentity_s*, std::__1::unordered_set<gentity_s*, std::__1::hash<gentity_s*>, std::__1::equal_to<gentity_s*>, std::__1::allocator<gentity_s*> > >, std::__1::equal_to<gentity_s*>, true>, std::__1::allocator<std::__1::__hash_value_type<gentity_s*, std::__1::unordered_set<gentity_s*, std::__1::hash<gentity_s*>, std::__1::equal_to<gentity_s*>, std::__1::allocator<gentity_s*> > > > >::__construct_node<std::__1::pair<gentity_s*, std::__1::unordered_set<gentity_s*, std::__1::hash<gentity_s*>, std::__1::equal_to<gentity_s*>, std::__1::allocator<gentity_s*> > > >(std::__1::pair<gentity_s*, std::__1::unordered_set<gentity_s*, std::__1::hash<gentity_s*>, std::__1::equal_to<gentity_s*>, std::__1::allocator<gentity_s*> > >&&)
FUNC 6500 2e0 0 std::__1::__hash_table<std::__1::__hash_value_type<gentity_s*, std::__1::unordered_set<gentity_s*, std::__1::hash<gentity_s*>, std::__1::equal_to<gentity_s*>, std::__1::allocator<gentity_s*> > >, std::__1::__unordered_map_hasher<gentity_s*, std::__1::__hash_value_type<gentity_s*, std::__1::unordered_set<gentity_s*, std::__1::hash<gentity_s*>, std::__1::equal_to<gentity_s*>, std::__1::allocator<gentity_s*> > >, std::__1::hash<gentity_s*>, true>, std::__1::__unordered_map_equal<gentity_s*, std::__1::__hash_value_type<gentity_s*, std::__1::unordered_set<gentity_s*, std::__1::hash<gentity_s*>, std::__1::equal_to<gentity_s*>, std::__1::allocator<gentity_s*> > >, std::__1::equal_to<gentity_s*>, true>, std::__1::allocator<std::__1::__hash_value_type<gentity_s*, std::__1::unordered_set<gentity_s*, std::__1::hash<gentity_s*>, std::__1::equal_to<gentity_s*>, std::__1::allocator<gentity_s*> > > > >::__node_insert_unique(std::__1::__hash_node<std::__1::__hash_value_type<gentity_s*, std::__1::unordered_set<gentity_s*, std::__1::hash<gentity_s*>, std::__1::equal_to<gentity_s*>, std::__1::allocator<gentity_s*> > >, void*>*)
FUNC 67e0 1e0 0 std::__1::__hash_table<std::__1::__hash_value_type<gentity_s*, std::__1::unordered_set<gentity_s*, std::__1::hash<gentity_s*>, std::__1::equal_to<gentity_s*>, std::__1::allocator<gentity_s*> > >, std::__1::__unordered_map_hasher<gentity_s*, std::__1::__hash_value_type<gentity_s*, std::__1::unordered_set<gentity_s*, std::__1::hash<gentity_s*>, std::__1::equal_to<gentity_s*>, std::__1::allocator<gentity_s*> > >, std::__1::hash<gentity_s*>, true>, std::__1::__unordered_map_equal<gentity_s*, std::__1::__hash_value_type<gentity_s*, std::__1::unordered_set<gentity_s*, std::__1::hash<gentity_s*>, std::__1::equal_to<gentity_s*>, std::__1::allocator<gentity_s*> > >, std::__1::equal_to<gentity_s*>, true>, std::__1::allocator<std::__1::__hash_value_type<gentity_s*, std::__1::unordered_set<gentity_s*, std::__1::hash<gentity_s*>, std::__1::equal_to<gentity_s*>, std::__1::allocator<gentity_s*> > > > >::__rehash(unsigned int)
FUNC 69c0 80 0 std::__1::__tree<std::__1::__value_type<float, std::__1::pair<gentity_s*, gentity_s*> >, std::__1::__map_value_compare<float, std::__1::__value_type<float, std::__1::pair<gentity_s*, gentity_s*> >, std::__1::less<float>, true>, std::__1::allocator<std::__1::__value_type<float, std::__1::pair<gentity_s*, gentity_s*> > > >::destroy(std::__1::__tree_node<std::__1::__value_type<float, std::__1::pair<gentity_s*, gentity_s*> >, void*>*)
FUNC 6a40 240 0 Clustering::EuclideanClustering<gentity_s*, 3>::Update(gentity_s* const&, Math::Vector<3u, float> const&)
FUNC 6c80 100 0 std::__1::__tree<std::__1::__value_type<BaseClustering::baseClusteringLayer_e, std::__1::unordered_set<gentity_s*, std::__1::hash<gentity_s*>, std::__1::equal_to<gentity_s*>, std::__1::allocator<gentity_s*> > >, std::__1::__map_value_compare<BaseClustering::baseClusteringLayer_e, std::__1::__value_type<BaseClustering::baseClusteringLayer_e, std::__1::unordered_set<gentity_s*, std::__1::hash<gentity_s*>, std::__1::equal_to<gentity_s*>, std::__1::allocator<gentity_s*> > >, std::__1::less<BaseClustering::baseClusteringLayer_e>, true>, std::__1::allocator<std::__1::__value_type<BaseClustering::baseClusteringLayer_e, std::__1::unordered_set<gentity_s*, std::__1::hash<gentity_s*>, std::__1::equal_to<gentity_s*>, std::__1::allocator<gentity_s*> > > > >::destroy(std::__1::__tree_node<std::__1::__value_type<BaseClustering::baseClusteringLayer_e, std::__1::unordered_set<gentity_s*, std::__1::hash<gentity_s*>, std::__1::equal_to<gentity_s*>, std::__1::allocator<gentity_s*> > >, void*>*)
FUNC 6d80 a0 0 std::__1::__tree<std::__1::__value_type<BaseClustering::baseClusteringLayer_e, Clustering::EntityClustering>, std::__1::__map_value_compare<BaseClustering::baseClusteringLayer_e, std::__1::__value_type<BaseClustering::baseClusteringLayer_e, Clustering::EntityClustering>, std::__1::less<BaseClustering::baseClusteringLayer_e>, true>, std::__1::allocator<std::__1::__value_type<BaseClustering::baseClusteringLayer_e, Clustering::EntityClustering> > >::destroy(std::__1::__tree_node<std::__1::__value_type<BaseClustering::baseClusteringLayer_e, Clustering::EntityClustering>, void*>*)
FUNC 6e20 980 0 BaseClustering::PostChangeHook(BaseClustering::baseClusteringLayer_e)
FUNC 77a0 a0 0 Entities::
FUNC 7840 a0 0 Entities::
FUNC 78e0 100 0 Entities::Kill(gentity_s*, gentity_s*, meansOfDeath_t)
FUNC 79e0 1c0 0 Entities::AntiHumanRadiusDamage(Entity&, float, float, meansOfDeath_t)
FUNC 7ba0 280 0 PushBot(gentity_s*, gentity_s*)
FUNC 7e20 340 0 G_TouchTriggers(gentity_s*)
FUNC 8160 360 0 ClientInactivityTimer(gentity_s*, bool)
FUNC 84c0 140 0 G_UnlaggedOff()
FUNC 8600 3e0 0 G_UnlaggedOn(gentity_s*, float*, float)
FUNC 89e0 3c00 0 ClientThink_real(gentity_s*)
FUNC c5e0 a0 0 ClientThink(int)
FUNC c680 760 0 ClientEndFrame(gentity_s*)
FUNC cde0 180 0 void Log::Logger::Debug<char const*>(Str::BasicStringRef<char>, char const*&&)
FUNC cf60 4c0 0 std::__1::basic_string<char, std::__1::char_traits<char>, std::__1::allocator<char> > tinyformat::format<char const*>(char const*, char const* const&)
FUNC d420 c0 0 std::__1::basic_ostringstream<char, std::__1::char_traits<char>, std::__1::allocator<char> >::~basic_ostringstream()
FUNC d4e0 e0 0 virtual thunk to std::__1::basic_ostringstream<char, std::__1::char_traits<char>, std::__1::allocator<char> >::~basic_ostringstream()
FUNC d5c0 c0 0 <name omitted>
FUNC d680 100 0 virtual thunk to std::__1::basic_ostringstream<char, std::__1::char_traits<char>, std::__1::allocator<char> >::~basic_ostringstream()
FUNC d780 a0 0 std::__1::basic_stringbuf<char, std::__1::char_traits<char>, std::__1::allocator<char> >::~basic_stringbuf()
FUNC d820 a0 0 std::__1::basic_stringbuf<char, std::__1::char_traits<char>, std::__1::allocator<char> >::~basic_stringbuf()
FUNC d8c0 160 0 std::__1::basic_stringbuf<char, std::__1::char_traits<char>, std::__1::allocator<char> >::seekoff(long long, std::__1::ios_base::seekdir, unsigned int)
FUNC da20 80 0 std::__1::basic_stringbuf<char, std::__1::char_traits<char>, std::__1::allocator<char> >::seekpos(std::__1::fpos<_mbstate_t>, unsigned int)
FUNC daa0 40 0 std::__1::basic_stringbuf<char, std::__1::char_traits<char>, std::__1::allocator<char> >::underflow()
FUNC dae0 80 0 std::__1::basic_stringbuf<char, std::__1::char_traits<char>, std::__1::allocator<char> >::pbackfail(int)
FUNC db60 1e0 0 std::__1::basic_stringbuf<char, std::__1::char_traits<char>, std::__1::allocator<char> >::overflow(int)
FUNC dd40 180 0 std::__1::basic_stringbuf<char, std::__1::char_traits<char>, std::__1::allocator<char> >::str() const
FUNC dec0 180 0 void tinyformat::detail::FormatArg::formatImpl<char const*>(std::__1::basic_ostream<char, std::__1::char_traits<char> >&, char const*, char const*, int, void const*)
FUNC e040 80 0 int tinyformat::detail::FormatArg::toIntImpl<char const*>(void const*)
FUNC e0c0 420 0 std::__1::basic_ostream<char, std::__1::char_traits<char> >& std::__1::__put_character_sequence<char, std::__1::char_traits<char> >(std::__1::basic_ostream<char, std::__1::char_traits<char> >&, char const*, unsigned int)
FUNC e4e0 200 0 std::__1::ostreambuf_iterator<char, std::__1::char_traits<char> > std::__1::__pad_and_output<char, std::__1::char_traits<char> >(std::__1::ostreambuf_iterator<char, std::__1::char_traits<char> >, char const*, char const*, char const*, std::__1::ios_base&, char)
FUNC e6e0 1c60 0 tinyformat::detail::formatImpl(std::__1::basic_ostream<char, std::__1::char_traits<char> >&, char const*, tinyformat::detail::FormatArg const*, int)
FUNC 10340 100 0 std::__1::basic_stringbuf<char, std::__1::char_traits<char>, std::__1::allocator<char> >::str(std::__1::basic_string<char, std::__1::char_traits<char>, std::__1::allocator<char> > const&)
FUNC 10440 220 0 G_admin_cmdlist(gentity_s*)
FUNC 10660 2a0 0 G_admin_permission(gentity_s*, char const*)
FUNC 10900 3c0 0 G_admin_name_check(gentity_s*, char const*, char*, int)
FUNC 10cc0 f20 0 G_admin_writeconfig()
FUNC 11be0 140 0 G_admin_authlog(gentity_s*)
FUNC 11d20 200 0 G_admin_duration(int, char*, int, char*, int)
FUNC 11f20 920 0 G_admin_cmd_check(gentity_s*)
FUNC 12840 80 0 G_admin_print(gentity_s*, Str::BasicStringRef<char>)
FUNC 128c0 14c0 0 G_admin_readconfig(gentity_s*)
FUNC 13d80 160 0 G_admin_cleanup()
FUNC 13ee0 5c0 0 G_admin_time(gentity_s*)
FUNC 144a0 840 0 G_admin_setlevel(gentity_s*)
FUNC 14ce0 680 0 G_admin_kick(gentity_s*)
FUNC 15360 f00 0 G_admin_ban(gentity_s*)
FUNC 16260 440 0 G_NamelogFromString(gentity_s*, char*)
FUNC 166a0 6e0 0 G_admin_unban(gentity_s*)
FUNC 16d80 d60 0 G_admin_adjustban(gentity_s*)
FUNC 17ae0 6c0 0 G_admin_putteam(gentity_s*)
FUNC 181a0 ac0 0 G_admin_speclock(gentity_s*)
FUNC 18c60 600 0 G_admin_specunlock(gentity_s*)
FUNC 19260 680 0 G_admin_changemap(gentity_s*)
FUNC 198e0 940 0 G_admin_warn(gentity_s*)
FUNC 1a220 7a0 0 G_admin_mute(gentity_s*)
FUNC 1a9c0 7a0 0 G_admin_denybuild(gentity_s*)
FUNC 1b160 280 0 G_admin_listadmins(gentity_s*)
FUNC 1b3e0 360 0 G_admin_listinactive(gentity_s*)
FUNC 1b740 320 0 G_admin_listlayouts(gentity_s*)
FUNC 1ba60 180 0 G_admin_buffer_end(gentity_s*)
FUNC 1bbe0 280 0 G_admin_listgeoip(gentity_s*)
FUNC 1be60 8e0 0 G_admin_listplayers(gentity_s*)
FUNC 1c740 2e0 0 G_admin_showbans(gentity_s*)
FUNC 1ca20 1100 0 G_admin_adminhelp(gentity_s*)
FUNC 1db20 1e0 0 G_admin_admintest(gentity_s*)
FUNC 1dd00 1a0 0 G_admin_allready(gentity_s*)
FUNC 1dea0 3e0 0 G_admin_endvote(gentity_s*)
FUNC 1e280 1e0 0 G_admin_spec999(gentity_s*)
FUNC 1e460 940 0 G_admin_rename(gentity_s*)
FUNC 1eda0 a80 0 G_admin_restart(gentity_s*)
FUNC 1f820 2a0 0 G_admin_nextmap(gentity_s*)
FUNC 1fac0 2e0 0 G_admin_namelog(gentity_s*)
FUNC 1fda0 440 0 G_admin_lock(gentity_s*)
FUNC 201e0 840 0 G_admin_flaglist(gentity_s*)
FUNC 20a20 1080 0 G_admin_flag(gentity_s*)
FUNC 21aa0 6c0 0 G_admin_builder(gentity_s*)
FUNC 22160 2c0 0 G_admin_pause(gentity_s*)
FUNC 22420 da0 0 G_admin_buildlog(gentity_s*)
FUNC 231c0 920 0 G_admin_revert(gentity_s*)
FUNC 23ae0 300 0 G_admin_l0(gentity_s*)
FUNC 23de0 360 0 G_admin_l1(gentity_s*)
FUNC 24140 1e0 0 G_admin_register(gentity_s*)
FUNC 24320 1a0 0 G_admin_unregister(gentity_s*)
FUNC 244c0 80 0 G_admin_print_plural(gentity_s*, Str::BasicStringRef<char>, int)
FUNC 24540 1e60 0 G_admin_bot(gentity_s*)
FUNC 263a0 540 0 void Log::Logger::Warn<char (&) [1024], char const*>(Str::BasicStringRef<char>, char (&) [1024], char const*&&)
FUNC 268e0 c0 0 void tinyformat::detail::FormatArg::formatImpl<char [1024]>(std::__1::basic_ostream<char, std::__1::char_traits<char> >&, char const*, char const*, int, void const*)
FUNC 269a0 80 0 int tinyformat::detail::FormatArg::toIntImpl<char [1024]>(void const*)
FUNC 26a20 180 0 void Log::Logger::Warn<char (&) [256]>(Str::BasicStringRef<char>, char (&) [256])
FUNC 26ba0 4c0 0 std::__1::basic_string<char, std::__1::char_traits<char>, std::__1::allocator<char> > tinyformat::format<char [256]>(char const*, char const (&) [256])
FUNC 27060 c0 0 void tinyformat::detail::FormatArg::formatImpl<char [256]>(std::__1::basic_ostream<char, std::__1::char_traits<char> >&, char const*, char const*, int, void const*)
FUNC 27120 80 0 int tinyformat::detail::FormatArg::toIntImpl<char [256]>(void const*)
FUNC 271a0 180 0 void Log::Logger::Warn<>(Str::BasicStringRef<char>)
FUNC 27320 200 0 std::__1::vector<team_e, std::__1::allocator<team_e> >::assign<const team_e *>
FUNC 27520 140 0 <name omitted>
FUNC 27660 340 0 admin_default_levels()
FUNC 279a0 160 0 admin_readconfig_string(char const**, char*, unsigned int)
FUNC 27b00 1a0 0 llsort(llist**, int (*)(void const*, void const*))
FUNC 27ca0 c0 0 G_admin_notIntermission(gentity_s*)
FUNC 27d60 860 0 admin_find_admin(gentity_s*, char*, char const*, gentity_s**, g_admin_admin**)
FUNC 285c0 340 0 admin_create_ban(gentity_s*, char*, char*, addr_t*, int, char const*)
FUNC 28900 200 0 namelog_matchname(void*, void const*)
FUNC 28b00 360 0 namelog_out(void*, char*)
FUNC 28e60 4c0 0 admin_search(gentity_s*, char const*, char const*, bool (*)(void*, void const*), int (*)(void*, char*), void const*, void const*, char const*, int, int, int)
FUNC 29320 1c0 0 G_admin_reflag_warnings()
FUNC 294e0 380 0 admin_create_ban_entry(gentity_s*, char*, char*, addr_t*, int, char const*)
FUNC 29860 a0 0 admin_match(void*, void const*)
FUNC 29900 f20 0 admin_out(void*, char*)
FUNC 2a820 40 0 admin_match_inactive(void*, void const*)
FUNC 2a860 180 0 G_admin_buffer_print_raw(gentity_s*, Str::BasicStringRef<char>, bool)
FUNC 2a9e0 60 0 ban_matchip(void*, void const*)
FUNC 2aa40 80 0 ban_matchname(void*, void const*)
FUNC 2aac0 620 0 ban_out(void*, char*)
FUNC 2b0e0 1c0 0 namelog_matchip(void*, void const*)
FUNC 2b2a0 40 0 G_admin_flag_sort(void const*, void const*)
FUNC 2b2e0 40 0 G_admin_maprestarted(gentity_s*)
FUNC 2b320 1760 0 VM::VMInit()
FUNC 2ca80 9ea0 0 VM::VMHandleSyscall(unsigned int, Util::Reader)
FUNC 36920 c0 0 Util::Reader::~Reader()
FUNC 369e0 c0 0 trap_UnlinkEntity(gentity_s*)
FUNC 36aa0 a0 0 trap_Trace(trace_t*, float const*, float const*, float const*, float const*, int, int, int)
FUNC 36b40 20 0 <name omitted>
FUNC 36b60 1a0 0 trap_SetBrushModel(gentity_s*, char const*)
FUNC 36d00 880 0 trap_AdjustAreaPortalState(gentity_s*, bool)
FUNC 37580 2e0 0 std::__1::vector<char, std::__1::allocator<char> >::insert<const char *>
FUNC 37860 520 0 void tinyformat::detail::FormatArg::formatImpl<IPC::Message<IPC::Id<(unsigned short)0, (unsigned short)2>, int, bool>::{unnamed type#1}>(std::__1::basic_ostream<char, IPC::Message<IPC::Id<(unsigned short)0, (unsigned short)2>, int, bool>::{unnamed type#1}::char_traits<char> >&, char const*, char const, int, void const*)
FUNC 37d80 20 0 int tinyformat::detail::FormatArg::toIntImpl<IPC::Message<IPC::Id<(unsigned short)0, (unsigned short)2>, int, bool>::{unnamed type#1}>(void const*)
FUNC 37da0 100 0 Util::SerializeTraits<std::__1::basic_string<char, std::__1::char_traits<char>, std::__1::allocator<char> >, void>::Read(Util::Reader&)
FUNC 37ea0 c0 0 void Util::Writer::WriteArgs<bool, std::__1::basic_string<char, std::__1::char_traits<char>, std::__1::allocator<char> >, bool, std::__1::basic_string<char, std::__1::char_traits<char>, std::__1::allocator<char> > >(Util::TypeList<bool, std::__1::basic_string<char, std::__1::char_traits<char>, std::__1::allocator<char> > >, bool&&, std::__1::basic_string<char, std::__1::char_traits<char>, std::__1::allocator<char> >&&)
FUNC 37f60 e0 0 G_BotClearNames()
FUNC 38040 1c0 0 G_BotAddNames(team_e, int, int)
FUNC 38200 380 0 G_BotSetDefaults(int, team_e, int, char const*)
FUNC 38580 460 0 G_BotAdd(char const*, team_e, int, char const*, bool)
FUNC 389e0 240 0 G_BotDel(int)
FUNC 38c20 440 0 G_BotThink(gentity_s*)
FUNC 39060 540 0 G_BotSpectatorThink(gentity_s*)
FUNC 395a0 1c0 0 G_BotFill(bool)
FUNC 39760 640 0 void Log::Logger::Warn<char (&) [128]>(Str::BasicStringRef<char>, char (&) [128])
FUNC 39da0 c0 0 void tinyformat::detail::FormatArg::formatImpl<char [128]>(std::__1::basic_ostream<char, std::__1::char_traits<char> >&, char const*, char const*, int, void const*)
FUNC 39e60 80 0 int tinyformat::detail::FormatArg::toIntImpl<char [128]>(void const*)
FUNC 39ee0 180 0 void Log::Logger::Warn<char const*&>(Str::BasicStringRef<char>, char const*&)
FUNC 3a060 180 0 G_BotListTeamNames(gentity_s*, char const*, team_e, char const*)
FUNC 3a1e0 100 0 <name omitted>
FUNC 3a2e0 60 0 BotSelectorNode(gentity_s*, AIGenericNode_s*)
FUNC 3a340 300 0 BotEvaluateNode(gentity_s*, AIGenericNode_s*)
FUNC 3a640 c0 0 BotSequenceNode(gentity_s*, AIGenericNode_s*)
FUNC 3a700 60 0 BotConcurrentNode(gentity_s*, AIGenericNode_s*)
FUNC 3a760 80 0 BotDecoratorTimer(gentity_s*, AIGenericNode_s*)
FUNC 3a7e0 60 0 BotDecoratorReturn(gentity_s*, AIGenericNode_s*)
FUNC 3a840 c60 0 EvalConditionExpression(gentity_s*, AIExpType_t*)
FUNC 3b4a0 60 0 BotConditionNode(gentity_s*, AIGenericNode_s*)
FUNC 3b500 20 0 BotBehaviorNode(gentity_s*, AIGenericNode_s*)
FUNC 3b520 e0 0 BotActionFireWeapon(gentity_s*, AIGenericNode_s*)
FUNC 3b600 60 0 BotActionActivateUpgrade(gentity_s*, AIGenericNode_s*)
FUNC 3b660 60 0 BotActionDeactivateUpgrade(gentity_s*, AIGenericNode_s*)
FUNC 3b6c0 140 0 BotActionAimAtGoal(gentity_s*, AIGenericNode_s*)
FUNC 3b800 40 0 BotActionMoveToGoal(gentity_s*, AIGenericNode_s*)
FUNC 3b840 80 0 BotActionMoveInDir(gentity_s*, AIGenericNode_s*)
FUNC 3b8c0 40 0 BotActionStrafeDodge(gentity_s*, AIGenericNode_s*)
FUNC 3b900 80 0 BotActionAlternateStrafe(gentity_s*, AIGenericNode_s*)
FUNC 3b980 c0 0 BotActionClassDodge(gentity_s*, AIGenericNode_s*)
FUNC 3ba40 140 0 BotActionChangeGoal(gentity_s*, AIGenericNode_s*)
FUNC 3bb80 80 0 BotActionEvolveTo(gentity_s*, AIGenericNode_s*)
FUNC 3bc00 e0 0 BotActionSay(gentity_s*, AIGenericNode_s*)
FUNC 3bce0 700 0 BotActionFight(gentity_s*, AIGenericNode_s*)
FUNC 3c3e0 1c0 0 BotActionFlee(gentity_s*, AIGenericNode_s*)
FUNC 3c5a0 f20 0 BotActionRoamInRadius(gentity_s*, AIGenericNode_s*)
FUNC 3d4c0 cc0 0 BotActionRoam(gentity_s*, AIGenericNode_s*)
FUNC 3e180 4a0 0 BotActionMoveTo(gentity_s*, AIGenericNode_s*)
FUNC 3e620 220 0 BotActionRush(gentity_s*, AIGenericNode_s*)
FUNC 3e840 300 0 BotActionHeal(gentity_s*, AIGenericNode_s*)
FUNC 3eb40 40 0 BotActionSuicide(gentity_s*, AIGenericNode_s*)
FUNC 3eb80 60 0 BotActionJump(gentity_s*, AIGenericNode_s*)
FUNC 3ebe0 60 0 BotActionResetStuckTime(gentity_s*, AIGenericNode_s*)
FUNC 3ec40 260 0 BotActionEvolve(gentity_s*, AIGenericNode_s*)
FUNC 3eea0 2a0 0 BotActionRepair(gentity_s*, AIGenericNode_s*)
FUNC 3f140 11c0 0 BotActionBuy(gentity_s*, AIGenericNode_s*)
FUNC 40300 180 0 void Log::Logger::Warn<int>(Str::BasicStringRef<char>, int&&)
FUNC 40480 4c0 0 std::__1::basic_string<char, std::__1::char_traits<char>, std::__1::allocator<char> > tinyformat::format<int>(char const*, int const&)
FUNC 40940 520 0 void tinyformat::detail::FormatArg::formatImpl<int>(std::__1::basic_ostream<char, std::__1::char_traits<char> >&, char const*, char const*, int, void const*)
FUNC 40e60 20 0 int tinyformat::detail::FormatArg::toIntImpl<int>(void const*)
FUNC 40e80 c0 0 GoalInRange(gentity_s*, float)
FUNC 40f40 a0 0 DistanceToGoal(gentity_s*)
FUNC 40fe0 80 0 DistanceToGoalSquared(gentity_s*)
FUNC 41060 d00 0 BotPathIsWalkable(gentity_s*, botTarget_t)
FUNC 41d60 e0 0 BotStrafeDodge(gentity_s*)
FUNC 41e40 60 0 BotMoveInDir(gentity_s*, unsigned int)
FUNC 41ea0 80 0 BotStandStill(gentity_s*)
FUNC 41f20 c60 0 BotMoveToGoal(gentity_s*)
FUNC 42b80 c40 0 FindRouteToTarget(gentity_s*, botTarget_t, bool)
FUNC 437c0 4e0 0 std::__1::basic_string<char, std::__1::char_traits<char>, std::__1::allocator<char> > tinyformat::format<char const*, char const*>(char const*, char const* const&, char const* const&)
FUNC 43ca0 180 0 void Log::Logger::Notice<>(Str::BasicStringRef<char>)
FUNC 43e20 d20 0 ReadNode(pc_token_list_s**)
FUNC 44b40 300 0 ReadNodeList(pc_token_list_s**)
FUNC 44e40 1e0 0 FreeNode(AIGenericNode_s*)
FUNC 45020 1ee0 0 ReadBehaviorTree(char const*, AITreeList_t*)
FUNC 46f00 e0 0 FreeTreeList(AITreeList_t*)
FUNC 46fe0 e0 0 FreeExpression(AIExpType_t*)
FUNC 470c0 80 0 FreeOp(AIOp_t*)
FUNC 47140 180 0 void Log::Logger::Warn<char (&) [64]>(Str::BasicStringRef<char>, char (&) [64])
FUNC 472c0 4c0 0 std::__1::basic_string<char, std::__1::char_traits<char>, std::__1::allocator<char> > tinyformat::format<char [64]>(char const*, char const (&) [64])
FUNC 47780 c0 0 void tinyformat::detail::FormatArg::formatImpl<char [64]>(std::__1::basic_ostream<char, std::__1::char_traits<char> >&, char const*, char const*, int, void const*)
FUNC 47840 80 0 int tinyformat::detail::FormatArg::toIntImpl<char [64]>(void const*)
FUNC 478c0 4e0 0 std::__1::basic_string<char, std::__1::char_traits<char>, std::__1::allocator<char> > tinyformat::format<int, char*>(char const*, int const&, char* const&)
FUNC 47da0 180 0 void tinyformat::detail::FormatArg::formatImpl<char*>(std::__1::basic_ostream<char, std::__1::char_traits<char> >&, char const*, char const*, int, void const*)
FUNC 47f20 80 0 int tinyformat::detail::FormatArg::toIntImpl<char*>(void const*)
FUNC 47fa0 180 0 void Log::Logger::Warn<char*&, int&>(Str::BasicStringRef<char>, char*&, int&)
FUNC 48120 4e0 0 std::__1::basic_string<char, std::__1::char_traits<char>, std::__1::allocator<char> > tinyformat::format<char*, int>(char const*, char* const&, int const&)
FUNC 48600 180 0 void Log::Logger::Warn<int&>(Str::BasicStringRef<char>, int&)
FUNC 48780 540 0 void Log::Logger::Warn<char const*, int&>(Str::BasicStringRef<char>, char const*&&, int&)
FUNC 48cc0 580 0 void Log::Logger::Warn<char const*&, char* const&, int const&>(Str::BasicStringRef<char>, char const*&, char* const&, int const&)
FUNC 49240 a40 0 ReadConditionExpression(pc_token_list_s**, AIOpType_t)
FUNC 49c80 340 0 parseFunctionParameters(pc_token_list_s**, int*, int, int)
FUNC 49fc0 40 0 currentWeapon(gentity_s*, AIValue_t const*)
FUNC 4a000 60 0 teamateHasWeapon(gentity_s*, AIValue_t const*)
FUNC 4a060 40 0 botTeam(gentity_s*, AIValue_t const*)
FUNC 4a0a0 40 0 stuckTime(gentity_s*, AIValue_t const*)
FUNC 4a0e0 40 0 botSkill(gentity_s*, AIValue_t const*)
FUNC 4a120 80 0 randomChance(gentity_s*, AIValue_t const*)
FUNC 4a1a0 a0 0 percentHealth(gentity_s*, AIValue_t const*)
FUNC 4a240 c0 0 percentAmmo(gentity_s*, AIValue_t const*)
FUNC 4a300 140 0 isVisible(gentity_s*, AIValue_t const*)
FUNC 4a440 100 0 inAttackRange(gentity_s*, AIValue_t const*)
FUNC 4a540 40 0 humanMomentum(gentity_s*, AIValue_t const*)
FUNC 4a580 40 0 healScore(gentity_s*, AIValue_t const*)
FUNC 4a5c0 80 0 haveWeapon(gentity_s*, AIValue_t const*)
FUNC 4a640 80 0 haveUpgrade(gentity_s*, AIValue_t const*)
FUNC 4a6c0 60 0 goalType(gentity_s*, AIValue_t const*)
FUNC 4a720 60 0 goalTeam(gentity_s*, AIValue_t const*)
FUNC 4a780 e0 0 goalDead(gentity_s*, AIValue_t const*)
FUNC 4a860 60 0 goalBuildingType(gentity_s*, AIValue_t const*)
FUNC 4a8c0 80 0 distanceTo(gentity_s*, AIValue_t const*)
FUNC 4a940 140 0 directPathTo(gentity_s*, AIValue_t const*)
FUNC 4aa80 c0 0 cvarInt(gentity_s*, AIValue_t const*)
FUNC 4ab40 c0 0 cvarFloat(gentity_s*, AIValue_t const*)
FUNC 4ac00 40 0 botClass(gentity_s*, AIValue_t const*)
FUNC 4ac40 a0 0 botCanEvolveTo(gentity_s*, AIValue_t const*)
FUNC 4ace0 40 0 buildingIsDamaged(gentity_s*, AIValue_t const*)
FUNC 4ad20 40 0 baseRushScore(gentity_s*, AIValue_t const*)
FUNC 4ad60 40 0 alienMomentum(gentity_s*, AIValue_t const*)
FUNC 4ada0 40 0 alertedToEnemy(gentity_s*, AIValue_t const*)
FUNC 4ade0 1c0 0 BotGetBaseRushScore(gentity_s*)
FUNC 4afa0 e0 0 BotGetHealScore(gentity_s*)
FUNC 4b080 2a0 0 BotFindClosestBuildings(gentity_s*)
FUNC 4b320 1a0 0 BotFindDamagedFriendlyStructure(gentity_s*)
FUNC 4b4c0 1c0 0 BotTargetIsVisible(gentity_s*, botTarget_t, int)
FUNC 4b680 100 0 <name omitted>
FUNC 4b780 460 0 BotTargetToRouteTarget(gentity_s*, botTarget_t, botRouteTarget_t*)
FUNC 4bbe0 120 0 BotChangeGoalEntity(gentity_s*, gentity_s*)
FUNC 4bd00 a00 0 BotTargetInAttackRange(gentity_s*, botTarget_t)
FUNC 4c700 280 0 BotGetIdealAimLocation(gentity_s*, botTarget_t, float*)
FUNC 4c980 380 0 BotAimAtEnemy(gentity_s*)
FUNC 4cd00 1c0 0 BotAimAtLocation(gentity_s*, float*)
FUNC 4cec0 200 0 BotSlowAim(gentity_s*, float*, float)
FUNC 4d0c0 140 0 PlayersBehindBotInSpawnQueue(gentity_s*)
FUNC 4d200 160 0 BotTeamateHasWeapon(gentity_s*, int)
FUNC 4d360 140 0 BotClassMovement(gentity_s*, bool)
FUNC 4d4a0 2a0 0 CalcAimPitch(gentity_s*, botTarget_t, float)
FUNC 4d740 600 0 BotFireWeaponAI(gentity_s*)
FUNC 4dd40 400 0 BotEvolveToClass(gentity_s*, class_t)
FUNC 4e140 180 0 BotSellWeapons(gentity_s*)
FUNC 4e2c0 e0 0 BotPain(gentity_s*, gentity_s*, int)
FUNC 4e3a0 860 0 BotSearchForEnemy(gentity_s*)
FUNC 4ec00 c0 0 BotCalculateStuckTime(gentity_s*)
FUNC 4ecc0 c0 0 <name omitted>
FUNC 4ed80 c0 0 <name omitted>
FUNC 4ee40 120 0 G_MainBuildable(team_e)
FUNC 4ef60 160 0 G_ActiveMainBuildable(team_e)
FUNC 4f0c0 400 0 ABarricade_Shrink(gentity_s*, bool)
FUNC 4f4c0 40 0 ABarricade_Think(gentity_s*)
FUNC 4f500 80 0 ABarricade_Touch(gentity_s*, gentity_s*, trace_t*)
FUNC 4f580 120 0 ABooster_Think(gentity_s*)
FUNC 4f6a0 a0 0 ABooster_Touch(gentity_s*, gentity_s*, trace_t*)
FUNC 4f740 200 0 ATrapper_CheckTarget(gentity_s*, gentity_s*, int)
FUNC 4f940 4e0 0 ATrapper_Think(gentity_s*)
FUNC 4fe20 c0 0 HArmoury_Use(gentity_s*, gentity_s*, gentity_s*)
FUNC 4fee0 4e0 0 HMedistat_Think(gentity_s*)
FUNC 503c0 e0 0 G_BuildableInRange(float*, float, buildable_t)
FUNC 504a0 240 0 G_Deconstruct(gentity_s*, gentity_s*, meansOfDeath_t)
FUNC 506e0 1560 0 G_CanBuild(gentity_s*, buildable_t, int, float*, float*, int*)
FUNC 51c40 260 0 G_LayoutList(char const*, char*, int)
FUNC 51ea0 80 0 G_BaseSelfDestruct(team_e)
FUNC 51f20 1a0 0 G_BuildLogAuto(gentity_s*, gentity_s*, buildFate_t)
FUNC 520c0 400 0 G_BuildLogRevertThink(gentity_s*)
FUNC 524c0 180 0 void Log::Logger::Warn<char (&) [1024]>(Str::BasicStringRef<char>, char (&) [1024])
FUNC 52640 4c0 0 std::__1::basic_string<char, std::__1::char_traits<char>, std::__1::allocator<char> > tinyformat::format<char [1024]>(char const*, char const (&) [1024])
FUNC 52b00 180 0 void Log::Logger::Warn<char*&>(Str::BasicStringRef<char>, char*&)
FUNC 52c80 4c0 0 std::__1::basic_string<char, std::__1::char_traits<char>, std::__1::allocator<char> > tinyformat::format<char*>(char const*, char* const&)
FUNC 53140 6a0 0 void Log::Logger::Warn<int&, int&, char const*&>(Str::BasicStringRef<char>, int&, int&, char const*&)
FUNC 537e0 900 0 void std::__1::__sort<bool (*&)(Entity*, Entity*), Entity**>(Entity**, Entity**, bool (*&)(Entity*, Entity*))
FUNC 540e0 200 0 unsigned int std::__1::__sort4<bool (*&)(Entity*, Entity*), Entity**>(Entity**, Entity**, Entity**, Entity**, bool (*&)(Entity*, Entity*))
FUNC 542e0 160 0 unsigned int std::__1::__sort5<bool (*&)(Entity*, Entity*), Entity**>(Entity**, Entity**, Entity**, Entity**, Entity**, bool (*&)(Entity*, Entity*))
FUNC 54440 3e0 0 bool std::__1::__insertion_sort_incomplete<bool (*&)(Entity*, Entity*), Entity**>(Entity**, Entity**, bool (*&)(Entity*, Entity*))
FUNC 54820 160 0 void std::__1::vector<Entity*, std::__1::allocator<Entity*> >::__push_back_slow_path<Entity*>(Entity*&&)
FUNC 54980 420 0 std::__1::basic_string<char, std::__1::char_traits<char>, std::__1::allocator<char> > tinyformat::format<char const*, char*>(char const*, char const* const&, char* const&)
FUNC 54da0 1c0 0 CompareBuildablesForPowerSaving(Entity*, Entity*)
FUNC 54f60 e0 0 BuildablesIntersect(buildable_t, float*, buildable_t, float*)
FUNC 55040 3c0 0 CompareBuildablesForRemoval(void const*, void const*)
FUNC 55400 47a0 0 SpawnBuildable(gentity_s*, buildable_t, float const*, float const*, float const*, int)
FUNC 59ba0 40 0 SpawnBuildableThink(gentity_s*)
FUNC 59be0 520 0 FinishSpawningBuildable(gentity_s*, bool)
FUNC 5a100 c0 0 Log::Logger::~Logger()
FUNC 5a1c0 200 0 LeechEntity::~LeechEntity()
FUNC 5a3c0 5a0 0 G_RGSPredictEfficiencyDelta(float*, team_e)
FUNC 5a960 180 0 void Log::Logger::Debug<float&>(Str::BasicStringRef<char>, float&)
FUNC 5aae0 100 0 G_UpdateBuildPointBudgets()
FUNC 5abe0 80 0 G_FreeBudget(team_e, int, int)
FUNC 5ac60 a0 0 G_BuildableDeconValue(gentity_s*)
FUNC 5ad00 4e0 0 std::__1::basic_string<char, std::__1::char_traits<char>, std::__1::allocator<char> > tinyformat::format<float, float>(char const*, float const&, float const&)
FUNC 5b1e0 520 0 void tinyformat::detail::FormatArg::formatImpl<float>(std::__1::basic_ostream<char, std::__1::char_traits<char> >&, char const*, char const*, int, void const*)
FUNC 5b700 20 0 int tinyformat::detail::FormatArg::toIntImpl<float>(void const*)
FUNC 5b720 540 0 std::__1::basic_string<char, std::__1::char_traits<char>, std::__1::allocator<char> > tinyformat::format<float, float, float>(char const*, float const&, float const&, float const&)
FUNC 5bc60 4c0 0 std::__1::basic_string<char, std::__1::char_traits<char>, std::__1::allocator<char> > tinyformat::format<float>(char const*, float const&)
FUNC 5c120 1c0 0 ThinkingComponent::~ThinkingComponent()
FUNC 5c2e0 40 0 LeechEntity::~LeechEntity()
FUNC 5c320 e0 0 unsigned int std::__1::__tree<DeferredFreeingComponent*, std::__1::less<DeferredFreeingComponent*>, std::__1::allocator<DeferredFreeingComponent*> >::__erase_unique<DeferredFreeingComponent*>(DeferredFreeingComponent* const&)
FUNC 5c400 e0 0 unsigned int std::__1::__tree<TeamComponent*, std::__1::less<TeamComponent*>, std::__1::allocator<TeamComponent*> >::__erase_unique<TeamComponent*>(TeamComponent* const&)
FUNC 5c4e0 e0 0 unsigned int std::__1::__tree<IgnitableComponent*, std::__1::less<IgnitableComponent*>, std::__1::allocator<IgnitableComponent*> >::__erase_unique<IgnitableComponent*>(IgnitableComponent* const&)
FUNC 5c5c0 e0 0 unsigned int std::__1::__tree<HealthComponent*, std::__1::less<HealthComponent*>, std::__1::allocator<HealthComponent*> >::__erase_unique<HealthComponent*>(HealthComponent* const&)
FUNC 5c6a0 e0 0 unsigned int std::__1::__tree<BuildableComponent*, std::__1::less<BuildableComponent*>, std::__1::allocator<BuildableComponent*> >::__erase_unique<BuildableComponent*>(BuildableComponent* const&)
FUNC 5c780 e0 0 unsigned int std::__1::__tree<AlienBuildableComponent*, std::__1::less<AlienBuildableComponent*>, std::__1::allocator<AlienBuildableComponent*> >::__erase_unique<AlienBuildableComponent*>(AlienBuildableComponent* const&)
FUNC 5c860 e0 0 unsigned int std::__1::__tree<MiningComponent*, std::__1::less<MiningComponent*>, std::__1::allocator<MiningComponent*> >::__erase_unique<MiningComponent*>(MiningComponent* const&)
FUNC 5c940 80 0 <name omitted>
FUNC 5c9c0 80 0 G_AddCreditToClient(gclient_s*, short, bool)
FUNC 5ca40 e0 0 <name omitted>
FUNC 5cb20 e0 0 <name omitted>
FUNC 5cc00 440 0 respawn(gentity_s*)
FUNC 5d040 36a0 0 ClientSpawn(gentity_s*, gentity_s*, float const*, float const*)
FUNC 606e0 e0 0 <name omitted>
FUNC 607c0 17a0 0 ClientUserinfoChanged(int, bool)
FUNC 61f60 d20 0 ClientConnect(int, bool)
FUNC 62c80 240 0 ClientDisconnect(int)
FUNC 62ec0 300 0 ClientBotConnect(int, bool, team_e)
FUNC 631c0 660 0 ClientBegin(int)
FUNC 63820 220 0 G_SelectSpawnBuildable(float*, buildable_t)
FUNC 63a40 a0 0 BodySink(gentity_s*)
FUNC 63ae0 200 0 G_UnnamedClientName(gclient_s*)
FUNC 63ce0 400 0 G_SanitiseString(char const*, char*, int)
FUNC 640e0 340 0 G_ClientNumberFromString(char const*, char*, int)
FUNC 64420 200 0 G_ClientNumbersFromString(char const*, int*, int)
FUNC 64620 2a0 0 ScoreboardMessage(gentity_s*)
FUNC 648c0 100 0 <name omitted>
FUNC 649c0 140 0 ConcatArgsPrintable(int)
FUNC 64b00 6e0 0 Cmd_Give_f(gentity_s*)
FUNC 651e0 80 0 Cmd_God_f(gentity_s*)
FUNC 65260 80 0 Cmd_Notarget_f(gentity_s*)
FUNC 652e0 e0 0 Cmd_Noclip_f(gentity_s*)
FUNC 653c0 c0 0 Cmd_Kill_f(gentity_s*)
FUNC 65480 7a0 0 Cmd_Team_f(gentity_s*)
FUNC 65c20 300 0 G_Say(gentity_s*, saymode_t, char const*)
FUNC 65f20 ba0 0 Cmd_VSay_f(gentity_s*)
FUNC 66ac0 a0 0 Cmd_Where_f(gentity_s*)
FUNC 66b60 27c0 0 Cmd_CallVote_f(gentity_s*)
FUNC 69320 240 0 Cmd_Vote_f(gentity_s*)
FUNC 69560 3e0 0 Cmd_SetViewpos_f(gentity_s*)
FUNC 69940 2e0 0 G_RoomForClassChange(gentity_s*, class_t, float*)
FUNC 69c20 a00 0 Cmd_Class_f(gentity_s*)
FUNC 6a620 540 0 Cmd_Deconstruct_f(gentity_s*)
FUNC 6ab60 1c0 0 Cmd_Ignite_f(gentity_s*)
FUNC 6ad20 460 0 Cmd_ActivateItem_f(gentity_s*)
FUNC 6b180 140 0 Cmd_DeActivateItem_f(gentity_s*)
FUNC 6b2c0 1e0 0 Cmd_ToggleItem_f(gentity_s*)
FUNC 6b4a0 120 0 Cmd_Sell_f(gentity_s*)
FUNC 6b5c0 1c0 0 Cmd_Buy_f(gentity_s*)
FUNC 6b780 4c0 0 Cmd_Build_f(gentity_s*)
FUNC 6bc40 60 0 Cmd_Reload_f(gentity_s*)
FUNC 6bca0 1a0 0 G_FollowNewClient(gentity_s*, int)
FUNC 6be40 380 0 G_StopFollowing(gentity_s*)
FUNC 6c1c0 280 0 G_FollowLockView(gentity_s*)
FUNC 6c440 240 0 Cmd_Follow_f(gentity_s*)
FUNC 6c680 80 0 Cmd_FollowCycle_f(gentity_s*)
FUNC 6c700 1020 0 Cmd_ListMaps_f(gentity_s*)
FUNC 6d720 180 0 G_MapLog_Result(char)
FUNC 6d8a0 2a0 0 Cmd_MapLog_f(gentity_s*)
FUNC 6db40 260 0 Cmd_Damage_f(gentity_s*)
FUNC 6dda0 4a0 0 Cmd_Beacon_f(gentity_s*)
FUNC 6e240 120 0 G_FloodLimited(gentity_s*)
FUNC 6e360 400 0 ClientCommand(int)
FUNC 6e760 960 0 Cmd_PrivateMessage_f(gentity_s*)
FUNC 6f0c0 1c0 0 Cmd_AdminMessage_f(gentity_s*)
FUNC 6f280 280 0 G_SayTo(gentity_s*, gentity_s*, saymode_t, char const*)
FUNC 6f500 4e0 0 Cmd_Sell_internal(gentity_s*, char const*)
FUNC 6f9e0 9e0 0 Cmd_Buy_internal(gentity_s*, char const*, bool, bool)
FUNC 703c0 620 0 void std::__1::__sort<Cmd_ListMaps_f(gentity_s*)::$_1&, char const**>(char const**, char const**, Cmd_ListMaps_f(gentity_s*)::$_1&)
FUNC 709e0 240 0 bool std::__1::__insertion_sort_incomplete<Cmd_ListMaps_f(gentity_s*)::$_1&, char const**>(char const**, char const**, Cmd_ListMaps_f(gentity_s*)::$_1&)
FUNC 70c20 160 0 unsigned int std::__1::__sort5<Cmd_ListMaps_f(gentity_s*)::$_1&, char const**>(char const**, char const**, char const**, char const**, char const**, Cmd_ListMaps_f(gentity_s*)::$_1&)
FUNC 70d80 e0 0 unsigned int std::__1::__sort4<Cmd_ListMaps_f(gentity_s*)::$_1&, char const**>(char const**, char const**, char const**, char const**, Cmd_ListMaps_f(gentity_s*)::$_1&)
FUNC 70e60 100 0 unsigned int std::__1::__sort3<Cmd_ListMaps_f(gentity_s*)::$_1&, char const**>(char const**, char const**, char const**, Cmd_ListMaps_f(gentity_s*)::$_1&)
FUNC 70f60 380 0 Cmd_SayAreaTeam_f(gentity_s*)
FUNC 712e0 360 0 Cmd_SayArea_f(gentity_s*)
FUNC 71640 140 0 Cmd_Pubkey_Identify_f(gentity_s*)
FUNC 71780 1e0 0 Cmd_Me_f(gentity_s*)
FUNC 71960 660 0 Cmd_Ignore_f(gentity_s*)
FUNC 71fc0 2c0 0 Cmd_Say_f(gentity_s*)
FUNC 72280 1a0 0 Cmd_Sell_upgradeItem(gentity_s*, upgrade_t)
FUNC 72420 1c0 0 Cmd_Sell_weapons(gentity_s*)
FUNC 725e0 120 0 Cmd_Sell_upgrades(gentity_s*)
FUNC 72700 140 0 G_CM_inPVS(float const*, float const*)
FUNC 72840 e0 0 G_CM_inPVSIgnorePortals(float const*, float const*)
FUNC 72920 160 0 G_CM_EntityContact(float const*, float const*, gentity_s const*, traceType_t)
FUNC 72a80 160 0 G_CM_CreateworldSector(int, float*, float*)
FUNC 72be0 6e0 0 G_CM_LinkEntity(gentity_s*)
FUNC 732c0 180 0 G_CM_AreaEntities_r(worldSector_s*, areaParms_t*)
FUNC 73440 7c0 0 G_CM_Trace(trace_t*, float const*, float const*, float const*, float const*, int, int, int, traceType_t)
FUNC 73c00 3a0 0 G_CM_PointContents(float const*, int)
FUNC 73fa0 4e0 0 std::__1::basic_string<char, std::__1::char_traits<char>, std::__1::allocator<char> > tinyformat::format<int, int>(char const*, int const&, int const&)
FUNC 74480 400 0 G_RewardAttackers(gentity_s*)
FUNC 74880 940 0 G_PlayerDie(gentity_s*, gentity_s*, gentity_s*, int)
FUNC 751c0 380 0 G_CanDamage(gentity_s*, float*)
FUNC 75540 4a0 0 G_RadiusDamage(float*, gentity_s*, float, float, gentity_s*, int, int, team_e)
FUNC 759e0 3e0 0 G_NewEntity()
FUNC 75dc0 1c0 0 G_FreeEntity(gentity_s*)
FUNC 75f80 a0 0 <name omitted>
FUNC 76020 160 0 G_NewTempEntity(float const*, int)
FUNC 76180 120 0 G_PrintEntityNameList(gentity_s*)
FUNC 762a0 c0 0 G_IterateEntities(gentity_s*, char const*, bool, unsigned int, char const*)
FUNC 76360 c0 0 G_IterateEntitiesOfClass(gentity_s*, char const*)
FUNC 76420 1a0 0 G_IterateEntitiesWithinRadius(gentity_s*, float*, float)
FUNC 765c0 300 0 G_PickRandomEntity(char const*, unsigned int, char const*)
FUNC 768c0 a0 0 G_GetCallActionTypeFor(char const*)
FUNC 76960 c0 0 G_ResolveEntityKeyword(gentity_s*, char*)
FUNC 76a20 140 0 G_IterateTargets(gentity_s*, int*, gentity_s*)
FUNC 76b60 100 0 G_IterateCallEndpoints(gentity_s*, int*, gentity_s*)
FUNC 76c60 1e0 0 G_PickRandomTargetFor(gentity_s*)
FUNC 76e40 140 0 G_FireEntityRandomly(gentity_s*, gentity_s*)
FUNC 76f80 b40 0 G_CallEntity(gentity_s*, gentityCall_t*)
FUNC 77ac0 e0 0 G_EventFireEntity(gentity_s*, gentity_s*, gentityCallEvent_t)
FUNC 77ba0 a0 0 G_IsVisible(gentity_s*, gentity_s*, int)
FUNC 77c40 e0 0 G_SetMovedir(float*, float*)
FUNC 77d20 4e0 0 std::__1::basic_string<char, std::__1::char_traits<char>, std::__1::allocator<char> > tinyformat::format<char*, char const*>(char const*, char* const&, char const* const&)
FUNC 78200 5a0 0 std::__1::basic_string<char, std::__1::char_traits<char>, std::__1::allocator<char> > tinyformat::format<char const*, char const*, char const*, char const*, char const*>(char const*, char const* const&, char const* const&, char const* const&, char const* const&, char const* const&)
FUNC 787a0 180 0 void Log::Logger::Warn<char const*>(Str::BasicStringRef<char>, char const*&&)
FUNC 78920 540 0 std::__1::basic_string<char, std::__1::char_traits<char>, std::__1::allocator<char> > tinyformat::format<char const*, char const*, char const*>(char const*, char const* const&, char const* const&, char const* const&)
FUNC 78e60 180 0 void Log::Logger::Notice<char (&) [1024]>(Str::BasicStringRef<char>, char (&) [1024])
FUNC 78fe0 4e0 0 std::__1::basic_string<char, std::__1::char_traits<char>, std::__1::allocator<char> > tinyformat::format<int, char const*>(char const*, int const&, char const* const&)
FUNC 794c0 260 0 Cvar::Cvar<bool>::Cvar(std::__1::basic_string<char, std::__1::char_traits<char>, std::__1::allocator<char> >, std::__1::basic_string<char, std::__1::char_traits<char>, std::__1::allocator<char> >, int, bool)
FUNC 79720 a0 0 <name omitted>
FUNC 797c0 a0 0 G_FindCvar(char const*)
FUNC 79860 3a0 0 G_MapConfigs(char const*)
FUNC 79c00 cde0 0 G_InitGame(int, int, bool)
FUNC 86c40 120 0 G_CheckPmoveParamChanges()
FUNC 86d60 60 0 SortRanks(void const*, void const*)
FUNC 86dc0 140 0 G_RemoveFromSpawnQueue(spawnQueue_s*, int)
FUNC 86f00 280 0 G_SpawnClients(team_e)
FUNC 87180 360 0 CalculateRanks()
FUNC 874e0 a40 0 CheckExitRules()
FUNC 87f20 4a0 0 FindIntermissionPoint()
FUNC 883c0 2e0 0 ExitLevel()
FUNC 886a0 200 0 G_AdminMessage(gentity_s*, char const*)
FUNC 888a0 140 0 LogExit(char const*)
FUNC 889e0 160 0 G_Vote(gentity_s*, team_e, bool)
FUNC 88b40 120 0 G_ResetVote(team_e)
FUNC 88c60 e0 0 G_ExecuteVote(team_e)
FUNC 88d40 360 0 G_CheckVote(team_e)
FUNC 890a0 e0 0 G_RunThink(gentity_s*)
FUNC 89180 120 0 G_PrepareEntityNetCode()
FUNC 892a0 180 0 void Log::Logger::Notice<int&>(Str::BasicStringRef<char>, int&)
FUNC 89420 540 0 std::__1::basic_string<char, std::__1::char_traits<char>, std::__1::allocator<char> > tinyformat::format<int, int, int>(char const*, int const&, int const&, int const&)
FUNC 89960 c0 0 void tinyformat::detail::FormatArg::formatImpl<char [12]>(std::__1::basic_ostream<char, std::__1::char_traits<char> >&, char const*, char const*, int, void const*)
FUNC 89a20 80 0 int tinyformat::detail::FormatArg::toIntImpl<char [12]>(void const*)
FUNC 89aa0 c0 0 void tinyformat::detail::FormatArg::formatImpl<char [5]>(std::__1::basic_ostream<char, std::__1::char_traits<char> >&, char const*, char const*, int, void const*)
FUNC 89b60 80 0 int tinyformat::detail::FormatArg::toIntImpl<char [5]>(void const*)
FUNC 89be0 a0 0 Cvar::Cvar<bool>::~Cvar()
FUNC 89c80 220 0 Cvar::Cvar<bool>::OnValueChanged(Str::BasicStringRef<char>)
FUNC 89ea0 20 0 Cvar::Cvar<bool>::Validate(bool const&)
FUNC 89ec0 20 0 Cvar::Cvar<bool>::GetAdditionalDescription()
FUNC 89ee0 180 0 Cvar::Cvar<bool>::GetDescription()
FUNC 8a060 4e0 0 std::__1::basic_string<char, std::__1::char_traits<char>, std::__1::allocator<char> > tinyformat::format<Str::BasicStringRef<char>, std::__1::basic_string<char, std::__1::char_traits<char>, std::__1::allocator<char> > >(char const*, Str::BasicStringRef<char> const&, std::__1::basic_string<char, std::__1::char_traits<char>, std::__1::allocator<char> > const&)
FUNC 8a540 500 0 void tinyformat::detail::FormatArg::formatImpl<std::__1::basic_string<char, std::__1::char_traits<char>, std::__1::allocator<char> > >(std::__1::basic_ostream<char, std::__1::char_traits<char> >&, char const*, char const*, int, void const*)
FUNC 8aa40 80 0 int tinyformat::detail::FormatArg::toIntImpl<std::__1::basic_string<char, std::__1::char_traits<char>, std::__1::allocator<char> > >(void const*)
FUNC 8aac0 500 0 void tinyformat::detail::FormatArg::formatImpl<Str::BasicStringRef<char> >(std::__1::basic_ostream<char, std::__1::char_traits<char> >&, char const*, char const*, int, void const*)
FUNC 8afc0 80 0 int tinyformat::detail::FormatArg::toIntImpl<Str::BasicStringRef<char> >(void const*)
FUNC 8b040 460 0 std::__1::basic_string<char, std::__1::char_traits<char>, std::__1::allocator<char> > tinyformat::format<std::__1::basic_string<char, std::__1::char_traits<char>, std::__1::allocator<char> >, std::__1::basic_string<char, std::__1::char_traits<char>, std::__1::allocator<char> >, std::__1::basic_string<char, std::__1::char_traits<char>, std::__1::allocator<char> > >(char const*, std::__1::basic_string<char, std::__1::char_traits<char>, std::__1::allocator<char> > const&, std::__1::basic_string<char, std::__1::char_traits<char>, std::__1::allocator<char> > const&, std::__1::basic_string<char, std::__1::char_traits<char>, std::__1::allocator<char> > const&)
FUNC 8b4a0 80 0 Cvar::CvarProxy::~CvarProxy()
FUNC 8b520 80 0 Cvar::CvarProxy::~CvarProxy()
FUNC 8b5a0 180 0 <name omitted>
FUNC 8b720 20 0 cvarCompare(void const*, void const*)
FUNC 8b740 700 0 G_LogGameplayStats(int)
FUNC 8be40 840 0 G_PrintCurrentRotation(gentity_s*)
FUNC 8c680 1c0 0 G_StartMapRotation(char const*, bool, bool, bool, int)
FUNC 8c840 b20 0 G_AdvanceMapRotation(int)
FUNC 8d360 60 0 G_StopMapRotation()
FUNC 8d3c0 60 0 G_FreeNode(rotationNode_s*)
FUNC 8d420 540 0 void Log::Logger::Warn<char (&) [64], char*>(Str::BasicStringRef<char>, char (&) [64], char*&&)
FUNC 8d960 180 0 void Log::Logger::Warn<char*>(Str::BasicStringRef<char>, char*&&)
FUNC 8dae0 580 0 void Log::Logger::Notice<int&, char const (&) [1], char const*>(Str::BasicStringRef<char>, int&, char const (&) [1], char const*&&)
FUNC 8e060 c0 0 void tinyformat::detail::FormatArg::formatImpl<char [1]>(std::__1::basic_ostream<char, std::__1::char_traits<char> >&, char const*, char const*, int, void const*)
FUNC 8e120 80 0 int tinyformat::detail::FormatArg::toIntImpl<char [1]>(void const*)
FUNC 8e1a0 180 0 void Log::Logger::Notice<char (&) [64]>(Str::BasicStringRef<char>, char (&) [64])
FUNC 8e320 180 0 void Log::Logger::Warn<char const*&, char const*>(Str::BasicStringRef<char>, char const*&, char const*&&)
FUNC 8e4a0 1e0 0 G_RotationNode_ToString(rotationNode_s const*)
FUNC 8e680 140 0 G_EvaluateMapCondition(condition_s**)
FUNC 8e7c0 260 0 G_SetCurrentNodeByIndex(int, int)
FUNC 8ea20 4e0 0 G_ParseNode(rotationNode_s**, char*, char const**, bool)
FUNC 8ef00 2c0 0 G_ExplodeMissile(gentity_s*)
FUNC 8f1c0 f40 0 G_RunMissile(gentity_s*)
FUNC 90100 2a0 0 G_SpawnMissile(missile_t, gentity_s*, float*, float*, gentity_s*, void (*)(gentity_s*), int)
FUNC 903a0 300 0 G_SpawnFire(float*, float*, gentity_s*)
FUNC 906a0 20 0 std::__1::bad_function_call::~bad_function_call()
FUNC 906c0 240 0 std::__1::function<int (gentity_s*, trace_t*, gentity_s*)>::swap(std::__1::function<int (gentity_s*, trace_t*, gentity_s*)>&)
FUNC 90900 20 0 std::__1::__function::__base<int (gentity_s*, trace_t*, gentity_s*)>::~__base()
FUNC 90920 20 0 std::__1::__function::__func<int (*)(gentity_s*, trace_t*, gentity_s*), std::__1::allocator<int (*)(gentity_s*, trace_t*, gentity_s*)>, int (gentity_s*, trace_t*, gentity_s*)>::~__func()
FUNC 90940 60 0 std::__1::__function::__func<int (*)(gentity_s*, trace_t*, gentity_s*), std::__1::allocator<int (*)(gentity_s*, trace_t*, gentity_s*)>, int (gentity_s*, trace_t*, gentity_s*)>::__clone() const
FUNC 909a0 20 0 std::__1::__function::__func<int (*)(gentity_s*, trace_t*, gentity_s*), std::__1::allocator<int (*)(gentity_s*, trace_t*, gentity_s*)>, int (gentity_s*, trace_t*, gentity_s*)>::__clone(std::__1::__function::__base<int (gentity_s*, trace_t*, gentity_s*)>*) const
FUNC 909c0 20 0 std::__1::__function::__func<int (*)(gentity_s*, trace_t*, gentity_s*), std::__1::allocator<int (*)(gentity_s*, trace_t*, gentity_s*)>, int (gentity_s*, trace_t*, gentity_s*)>::destroy()
FUNC 909e0 20 0 std::__1::__function::__func<int (*)(gentity_s*, trace_t*, gentity_s*), std::__1::allocator<int (*)(gentity_s*, trace_t*, gentity_s*)>, int (gentity_s*, trace_t*, gentity_s*)>::destroy_deallocate()
FUNC 90a00 60 0 std::__1::__function::__func<int (*)(gentity_s*, trace_t*, gentity_s*), std::__1::allocator<int (*)(gentity_s*, trace_t*, gentity_s*)>, int (gentity_s*, trace_t*, gentity_s*)>::operator()(gentity_s*&&, trace_t*&&, gentity_s*&&)
FUNC 90a60 20 0 std::__1::__function::__func<int (*)(gentity_s*, trace_t*, gentity_s*), std::__1::allocator<int (*)(gentity_s*, trace_t*, gentity_s*)>, int (gentity_s*, trace_t*, gentity_s*)>::target(std::type_info const&) const
FUNC 90a80 20 0 std::__1::__function::__func<int (*)(gentity_s*, trace_t*, gentity_s*), std::__1::allocator<int (*)(gentity_s*, trace_t*, gentity_s*)>, int (gentity_s*, trace_t*, gentity_s*)>::target_type() const
FUNC 90aa0 260 0 BounceMissile(gentity_s*, trace_t*)
FUNC 90d00 60 0 ImpactGrenade(gentity_s*, trace_t*, gentity_s*)
FUNC 90d60 280 0 ImpactFlamer(gentity_s*, trace_t*, gentity_s*)
FUNC 90fe0 80 0 ImpactFirebombSub(gentity_s*, trace_t*, gentity_s*)
FUNC 91060 e0 0 ImpactLockblock(gentity_s*, trace_t*, gentity_s*)
FUNC 91140 100 0 ImpactSlowblob(gentity_s*, trace_t*, gentity_s*)
FUNC 91240 c0 0 ImpactHive(gentity_s*, trace_t*, gentity_s*)
FUNC 91300 20 0 DefaultImpactFunc(gentity_s*, trace_t*, gentity_s*)
FUNC 91320 100 0 NotifyLegacyStageSensors(team_e, float)
FUNC 91420 a0 0 G_AddMomentumEnd()
FUNC 914c0 5c0 0 std::__1::basic_string<char, std::__1::char_traits<char>, std::__1::allocator<char> > tinyformat::format<char const*, float, float, float, float, float>(char const*, char const* const&, float const&, float const&, float const&, float const&, float const&)
FUNC 91a80 5a0 0 std::__1::basic_string<char, std::__1::char_traits<char>, std::__1::allocator<char> > tinyformat::format<float, char const*, char const*, char const*, char const*>(char const*, float const&, char const* const&, char const* const&, char const* const&, char const* const&)
FUNC 92020 4a0 0 AddMomentum(momentum_t, team_e, float, gentity_s*, bool)
FUNC 924c0 440 0 MomentumMod(momentum_t)
FUNC 92900 2c0 0 G_namelog_connect(gclient_s*)
FUNC 92bc0 660 0 G_Physics(gentity_s*, int)
FUNC 93220 1c0 0 G_ReadSessionData(gclient_s*)
FUNC 933e0 e0 0 G_InitSessionData(gclient_s*, char const*)
FUNC 934c0 c0 0 G_WriteSessionData()
FUNC 93580 1a0 0 G_WriteClientSessionData(int)
FUNC 93720 80 0 G_SpawnString(char const*, char const*, char**)
FUNC 937a0 e0 0 G_SpawnBoolean(char const*, bool)
FUNC 93880 a0 0 G_SpawnFloat(char const*, char const*, float*)
FUNC 93920 c0 0 G_SpawnInt(char const*, char const*, int*)
FUNC 939e0 c0 0 G_SpawnVector(char const*, char const*, float*)
FUNC 93aa0 c0 0 G_WarnAboutDeprecatedEntityField(gentity_s*, char const*, char const*, int)
FUNC 93b60 2a0 0 G_ParseSpawnVars()
FUNC 93e00 6a0 0 void Log::Logger::Warn<int&, char const*&, char const*&>(Str::BasicStringRef<char>, int&, char const*&, char const*&)
FUNC 944a0 520 0 void tinyformat::detail::FormatArg::formatImpl<fieldType_t>(std::__1::basic_ostream<char, std::__1::char_traits<char> >&, char const*, char const*, int, void const*)
FUNC 949c0 20 0 int tinyformat::detail::FormatArg::toIntImpl<fieldType_t>(void const*)
FUNC 949e0 20 0 env_afx_toggle(gentity_s*, gentity_s*, gentity_s*)
FUNC 94a00 120 0 env_afx_push_touch(gentity_s*, gentity_s*, trace_t*)
FUNC 94b20 120 0 SP_env_afx_push(gentity_s*)
FUNC 94c40 80 0 env_afx_teleporter_touch(gentity_s*, gentity_s*, trace_t*)
FUNC 94cc0 20 0 env_afx_teleporter_act(gentity_s*, gentity_s*, gentity_s*)
FUNC 94ce0 120 0 SP_env_afx_teleport(gentity_s*)
FUNC 94e00 e0 0 env_afx_hurt_touch(gentity_s*, gentity_s*, trace_t*)
FUNC 94ee0 120 0 SP_env_afx_hurt(gentity_s*)
FUNC 95000 60 0 env_afx_gravity_reset(gentity_s*)
FUNC 95060 40 0 env_afx_gravity_touch(gentity_s*, gentity_s*, trace_t*)
FUNC 950a0 e0 0 SP_env_afx_gravity(gentity_s*)
FUNC 95180 c0 0 env_afx_heal_touch(gentity_s*, gentity_s*, trace_t*)
FUNC 95240 120 0 SP_env_afx_heal(gentity_s*)
FUNC 95360 160 0 env_afx_ammo_touch(gentity_s*, gentity_s*, trace_t*)
FUNC 954c0 120 0 SP_env_afx_ammo(gentity_s*)
FUNC 955e0 1a0 0 target_relay_act(gentity_s*, gentity_s*, gentity_s*)
FUNC 95780 20 0 ctrl_relay_reset(gentity_s*)
FUNC 957a0 140 0 ctrl_relay_act(gentity_s*, gentity_s*, gentity_s*)
FUNC 958e0 e0 0 SP_ctrl_relay(gentity_s*)
FUNC 959c0 80 0 ctrl_limited_act(gentity_s*, gentity_s*, gentity_s*)
FUNC 95a40 60 0 ctrl_limited_reset(gentity_s*)
FUNC 95aa0 20 0 SP_ctrl_limited(gentity_s*)
FUNC 95ac0 e0 0 target_speaker_act(gentity_s*, gentity_s*, gentity_s*)
FUNC 95ba0 140 0 SP_sfx_speaker(gentity_s*)
FUNC 95ce0 1e0 0 fx_rumble_think(gentity_s*)
FUNC 95ec0 40 0 fx_rumble_act(gentity_s*, gentity_s*, gentity_s*)
FUNC 95f00 c0 0 SP_fx_rumble(gentity_s*)
FUNC 95fc0 60 0 game_score_act(gentity_s*, gentity_s*, gentity_s*)
FUNC 96020 80 0 SP_game_score(gentity_s*)
FUNC 960a0 40 0 game_end_act(gentity_s*, gentity_s*, gentity_s*)
FUNC 960e0 80 0 SP_game_end(gentity_s*)
FUNC 96160 60 0 game_funds_act(gentity_s*, gentity_s*, gentity_s*)
FUNC 961c0 60 0 game_funds_reset(gentity_s*)
FUNC 96220 20 0 SP_game_funds(gentity_s*)
FUNC 96240 20 0 game_kill_act(gentity_s*, gentity_s*, gentity_s*)
FUNC 96260 20 0 SP_game_kill(gentity_s*)
FUNC 96280 2a0 0 target_print_act(gentity_s*, gentity_s*, gentity_s*)
FUNC 96520 20 0 SP_target_print(gentity_s*)
FUNC 96540 60 0 target_push_act(gentity_s*, gentity_s*, gentity_s*)
FUNC 965a0 100 0 SP_target_push(gentity_s*)
FUNC 966a0 60 0 target_teleporter_act(gentity_s*, gentity_s*, gentity_s*)
FUNC 96700 40 0 SP_target_teleporter(gentity_s*)
FUNC 96740 80 0 target_hurt_act(gentity_s*, gentity_s*, gentity_s*)
FUNC 967c0 80 0 SP_target_hurt(gentity_s*)
FUNC 96840 20 0 <name omitted>
FUNC 96860 60 0 gfx_particle_system_act(gentity_s*, gentity_s*, gentity_s*)
FUNC 968c0 140 0 SP_gfx_particle_system(gentity_s*)
FUNC 96a00 20 0 gfx_light_flare_toggle(gentity_s*, gentity_s*, gentity_s*)
FUNC 96a20 7a0 0 SP_gfx_light_flare(gentity_s*)
FUNC 971c0 1a0 0 gfx_portal_locateCamera(gentity_s*)
FUNC 97360 e0 0 SP_gfx_portal_surface(gentity_s*)
FUNC 97440 c0 0 SP_gfx_portal_camera(gentity_s*)
FUNC 97500 60 0 gfx_animated_model_act(gentity_s*, gentity_s*, gentity_s*)
FUNC 97560 c0 0 SP_gfx_animated_model(gentity_s*)
FUNC 97620 c0 0 gfx_shader_mod_act(gentity_s*, gentity_s*, gentity_s*)
FUNC 976e0 c0 0 gfx_shader_mod_reset(gentity_s*)
FUNC 977a0 20 0 SP_gfx_shader_mod(gentity_s*)
FUNC 977c0 5e0 0 G_TryPushingEntity(gentity_s*, gentity_s*, float*, float*)
FUNC 97da0 a40 0 G_MoverGroup(gentity_s*)
FUNC 987e0 560 0 <name omitted>
FUNC 98d40 a0 0 ReturnToPos1orApos1(gentity_s*)
FUNC 98de0 b20 0 BinaryMover_act(gentity_s*, gentity_s*, gentity_s*)
FUNC 99900 80 0 Think_ClosedModelDoor(gentity_s*)
FUNC 99980 2a0 0 Think_CloseModelDoor(gentity_s*)
FUNC 99c20 e0 0 Think_OpenModelDoor(gentity_s*)
FUNC 99d00 320 0 BinaryMover_reached(gentity_s*)
FUNC 9a020 180 0 reset_moverspeed(gentity_s*, float)
FUNC 9a1a0 200 0 InitMover(gentity_s*)
FUNC 9a3a0 e0 0 func_door_block(gentity_s*, gentity_s*)
FUNC 9a480 c0 0 door_trigger_touch(gentity_s*, gentity_s*, trace_t*)
FUNC 9a540 60 0 <name omitted>
FUNC 9a5a0 260 0 Think_SpawnNewDoorTrigger(gentity_s*)
FUNC 9a800 a0 0 func_door_reset(gentity_s*)
FUNC 9a8a0 a0 0 func_door_use(gentity_s*, gentity_s*, gentity_s*)
FUNC 9a940 3c0 0 SP_func_door(gentity_s*)
FUNC 9ad00 160 0 func_door_rotating_reset(gentity_s*)
FUNC 9ae60 860 0 SP_func_door_rotating(gentity_s*)
FUNC 9b6c0 e0 0 func_door_model_reset(gentity_s*)
FUNC 9b7a0 4c0 0 SP_func_door_model(gentity_s*)
FUNC 9bc60 80 0 Touch_Plat(gentity_s*, gentity_s*, trace_t*)
FUNC 9bce0 60 0 Touch_PlatCenterTrigger(gentity_s*, gentity_s*, trace_t*)
FUNC 9bd40 480 0 SP_func_plat(gentity_s*)
FUNC 9c1c0 60 0 Touch_Button(gentity_s*, gentity_s*, trace_t*)
FUNC 9c220 20 0 func_button_use(gentity_s*, gentity_s*, gentity_s*)
FUNC 9c240 60 0 func_button_reset(gentity_s*)
FUNC 9c2a0 240 0 SP_func_button(gentity_s*)
FUNC 9c4e0 20 0 Think_BeginMoving(gentity_s*)
FUNC 9c500 380 0 func_train_reached(gentity_s*)
FUNC 9c880 200 0 func_train_act(gentity_s*, gentity_s*, gentity_s*)
FUNC 9ca80 280 0 Think_SetupTrainTargets(gentity_s*)
FUNC 9cd00 220 0 func_train_blocked(gentity_s*, gentity_s*)
FUNC 9cf20 120 0 SP_func_train(gentity_s*)
FUNC 9d040 2a0 0 SP_func_static(gentity_s*)
FUNC 9d2e0 a0 0 SP_func_dynamic(gentity_s*)
FUNC 9d380 180 0 SP_func_rotating(gentity_s*)
FUNC 9d500 20 0 func_bobbing_reset(gentity_s*)
FUNC 9d520 180 0 SP_func_bobbing(gentity_s*)
FUNC 9d6a0 1c0 0 SP_func_pendulum(gentity_s*)
FUNC 9d860 80 0 func_spawn_act(gentity_s*, gentity_s*, gentity_s*)
FUNC 9d8e0 20 0 func_spawn_reset(gentity_s*)
FUNC 9d900 e0 0 SP_func_spawn(gentity_s*)
FUNC 9d9e0 80 0 <name omitted>
FUNC 9da60 60 0 <name omitted>
FUNC 9dac0 140 0 func_destructable_act(gentity_s*, gentity_s*, gentity_s*)
FUNC 9dc00 160 0 SP_func_destructable(gentity_s*)
FUNC 9dd60 100 0 SP_ConstantLightField(gentity_s*)
FUNC 9de60 60 0 SP_pos_player_spawn(gentity_s*)
FUNC 9dec0 80 0 SP_pos_target(gentity_s*)
FUNC 9df40 180 0 SP_pos_location(gentity_s*)
FUNC 9e0c0 20 0 sensor_act(gentity_s*, gentity_s*, gentity_s*)
FUNC 9e0e0 40 0 sensor_reset(gentity_s*)
FUNC 9e120 1e0 0 trigger_compat_propagation_act(gentity_s*, gentity_s*, gentity_s*)
FUNC 9e300 20 0 sensor_checkWaitForReactivation_think(gentity_s*)
FUNC 9e320 160 0 trigger_multiple_act(gentity_s*, gentity_s*, gentity_s*)
FUNC 9e480 40 0 trigger_multiple_touch(gentity_s*, gentity_s*, trace_t*)
FUNC 9e4c0 a0 0 trigger_multiple_compat_reset(gentity_s*)
FUNC 9e560 20 0 SP_sensor_start(gentity_s*)
FUNC 9e580 e0 0 <name omitted>
FUNC 9e660 100 0 sensor_timer_act(gentity_s*, gentity_s*, gentity_s*)
FUNC 9e760 a0 0 SP_sensor_timer(gentity_s*)
FUNC 9e800 260 0 G_notify_sensor_stage(team_e, int, int)
FUNC 9ea60 40 0 SP_sensor_stage(gentity_s*)
FUNC 9eaa0 200 0 G_notify_sensor_end(team_e)
FUNC 9eca0 40 0 SP_sensor_end(gentity_s*)
FUNC 9ece0 1a0 0 sensor_buildable_touch(gentity_s*, gentity_s*, trace_t*)
FUNC 9ee80 e0 0 SP_sensor_buildable(gentity_s*)
FUNC 9ef60 280 0 sensor_player_touch(gentity_s*, gentity_s*, trace_t*)
FUNC 9f1e0 140 0 SP_sensor_player(gentity_s*)
FUNC 9f320 160 0 sensor_support_think(gentity_s*)
FUNC 9f480 40 0 sensor_support_reset(gentity_s*)
FUNC 9f4c0 20 0 SP_sensor_support(gentity_s*)
FUNC 9f4e0 80 0 sensor_power_think(gentity_s*)
FUNC 9f560 20 0 SP_sensor_power(gentity_s*)
FUNC 9f580 80 0 sensor_creep_think(gentity_s*)
FUNC 9f600 20 0 SP_sensor_creep(gentity_s*)
FUNC 9f620 4c0 0 std::__1::basic_string<char, std::__1::char_traits<char>, std::__1::allocator<char> > tinyformat::format<team_e>(char const*, team_e const&)
FUNC 9fae0 520 0 void tinyformat::detail::FormatArg::formatImpl<team_e>(std::__1::basic_ostream<char, std::__1::char_traits<char> >&, char const*, char const*, int, void const*)
FUNC a0000 20 0 int tinyformat::detail::FormatArg::toIntImpl<team_e>(void const*)
FUNC a0020 540 0 std::__1::basic_string<char, std::__1::char_traits<char>, std::__1::allocator<char> > tinyformat::format<team_e, int, int>(char const*, team_e const&, int const&, int const&)
FUNC a0560 180 0 void Log::Logger::Debug<>(Str::BasicStringRef<char>)
FUNC a06e0 40 0 think_fireDelayed(gentity_s*)
FUNC a0720 40 0 think_fireOnActDelayed(gentity_s*)
FUNC a0760 1a0 0 think_aimAtTarget(gentity_s*)
FUNC a0900 360 0 G_ResetTimeField(variatingTime_s*, variatingTime_s, variatingTime_s, variatingTime_s)
FUNC a0c60 20 0 SP_Nothing(gentity_s*)
FUNC a0c80 20 0 SP_RemoveSelf(gentity_s*)
FUNC a0ca0 e0 0 SP_ConditionFields(gentity_s*)
FUNC a0d80 c0 0 SP_WaitFields(gentity_s*, float, float)
FUNC a0e40 460 0 Svcmd_EntityFire_f()
FUNC a12a0 1a80 0 Svcmd_EntityShow_f()
FUNC a2d20 1e0 0 Svcmd_EntityList_f()
FUNC a2f00 180 0 void Log::Logger::Notice<char*&>(Str::BasicStringRef<char>, char*&)
FUNC a3080 180 0 void Log::Logger::Notice<char const*>(Str::BasicStringRef<char>, char const*&&)
FUNC a3200 180 0 void Log::Logger::Notice<char const*&>(Str::BasicStringRef<char>, char const*&)
FUNC a3380 180 0 void Log::Logger::Notice<char*>(Str::BasicStringRef<char>, char*&&)
FUNC a3500 c0 0 void tinyformat::detail::FormatArg::formatImpl<char [2]>(std::__1::basic_ostream<char, std::__1::char_traits<char> >&, char const*, char const*, int, void const*)
FUNC a35c0 80 0 int tinyformat::detail::FormatArg::toIntImpl<char [2]>(void const*)
FUNC a3640 c0 0 void tinyformat::detail::FormatArg::formatImpl<char [8192]>(std::__1::basic_ostream<char, std::__1::char_traits<char> >&, char const*, char const*, int, void const*)
FUNC a3700 80 0 int tinyformat::detail::FormatArg::toIntImpl<char [8192]>(void const*)
FUNC a3780 5e0 0 void Log::Logger::Notice<int&, char const*, char const*&, char const*, char const*>(Str::BasicStringRef<char>, int&, char const*&&, char const*&, char const*&&, char const*&&)
FUNC a3d60 6e0 0 Svcmd_TeamMessage_f()
FUNC a4440 440 0 Svcmd_PrintQueue_f()
FUNC a4880 1c0 0 Svcmd_Pr_f()
FUNC a4a40 100 0 Svcmd_MapRotation_f()
FUNC a4b40 40 0 Svcmd_MapLogWrapper()
FUNC a4b80 6a0 0 Svcmd_LayoutSave_f()
FUNC a5220 100 0 Svcmd_LayoutLoad_f()
FUNC a5320 1e0 0 Svcmd_ForceTeam_f()
FUNC a5500 c0 0 Svcmd_Evacuation_f()
FUNC a55c0 280 0 Svcmd_EjectClient_f()
FUNC a5840 920 0 Svcmd_DumpUser_f()
FUNC a6160 100 0 Svcmd_CenterPrint_f()
FUNC a6260 80 0 Svcmd_TeamWin_f()
FUNC a62e0 20 0 Svcmd_G_AdvanceMapRotation_f()
FUNC a6300 160 0 Svcmd_AdmitDefeat_f()
FUNC a6460 1a0 0 Svcmd_MessageWrapper()
FUNC a6600 c0 0 G_TeamCommand(team_e, char const*)
FUNC a66c0 200 0 G_UpdateTeamConfigStrings()
FUNC a68c0 340 0 G_LeaveTeam(gentity_s*)
FUNC a6c00 260 0 G_ChangeTeam(gentity_s*, team_e)
FUNC a6e60 400 0 TeamplayInfoMessage(gentity_s*)
FUNC a7260 100 0 G_SetShaderRemap(char const*, char const*, float)
FUNC a7360 120 0 BuildShaderStateConfig()
FUNC a7480 260 0 G_TeleportPlayer(gentity_s*, float*, float*, float)
FUNC a76e0 140 0 G_KillBox(gentity_s*)
FUNC a7820 1c0 0 G_KillBrushModel(gentity_s*, gentity_s*)
FUNC a79e0 e0 0 G_AddEvent(gentity_s*, int, int)
FUNC a7ac0 100 0 G_BroadcastEvent(int, int, team_e)
FUNC a7bc0 80 0 G_TeamToClientmask(team_e, int*, int*)
FUNC a7c40 5c0 0 G_AddressParse(char const*, addr_t*)
FUNC a8200 c0 0 G_AddressCompare(addr_t const*, addr_t const*)
FUNC a82c0 c0 0 <name omitted>
FUNC a8380 c0 0 G_LineOfSight(gentity_s const*, gentity_s const*)
FUNC a8440 c0 0 G_LineOfFire(gentity_s const*, gentity_s const*)
FUNC a8500 f60 0 G_FindConfigstringIndex(char const*, int, int, bool)
FUNC a9460 80 0 G_ForceWeaponChange(gentity_s*, weapon_t)
FUNC a94e0 60 0 G_GiveMaxAmmo(gentity_s*)
FUNC a9540 140 0 G_RefillAmmo(gentity_s*, bool)
FUNC a9680 220 0 G_FindAmmo(gentity_s*)
FUNC a98a0 1e0 0 G_FindFuel(gentity_s*)
FUNC a9a80 e0 0 <name omitted>
FUNC a9b60 2a0 0 G_CheckCkitRepair(gentity_s*)
FUNC a9e00 380 0 G_CheckVenomAttack(gentity_s*)
FUNC aa180 140 0 G_CalcMuzzlePoint(gentity_s*, float*, float*, float*, float*)
FUNC aa2c0 e0 0 G_ClearPlayerZapEffects(gentity_s*)
FUNC aa3a0 380 0 G_CheckPounceAttack(gentity_s*)
FUNC aa720 320 0 G_ChargeAttack(gentity_s*, gentity_s*)
FUNC aaa40 240 0 G_ImpactAttack(gentity_s*, gentity_s*)
FUNC aac80 1c0 0 G_WeightAttack(gentity_s*, gentity_s*)
FUNC aae40 1ee0 0 G_FireWeapon(gentity_s*, weapon_t, weaponMode_t)
FUNC acd20 2a0 0 G_FireUpgrade(gentity_s*, upgrade_t)
FUNC acfc0 400 0 FirebombMissileThink(gentity_s*)
FUNC ad3c0 3a0 0 G_WideTrace(trace_t*, gentity_s*, float, float, float, gentity_s**)
FUNC ad760 280 0 SendMeleeHitEvent(gentity_s*, gentity_s*, trace_t*)
FUNC ad9e0 180 0 FireMelee(gentity_s*, float, float, float, int, meansOfDeath_t)
FUNC adb60 500 0 FireBullet(gentity_s*, float, float, int)
FUNC ae060 1a0 0 SendRangedHitEvent(gentity_s*, gentity_s*, trace_t*)
FUNC ae200 1e0 0 FireLcannonHelper(gentity_s*, float*, float*, int, int, int)
FUNC ae3e0 3c0 0 HiveMissileThink(gentity_s*)
FUNC ae7a0 3c0 0 RocketThink(gentity_s*)
FUNC aeb60 660 0 FireBuild(gentity_s*, dynMenu_t)
FUNC af1c0 80 0 <name omitted>
FUNC af240 200 0 AcidTubeComponent::AcidTubeComponent(Entity&, AlienBuildableComponent&)
FUNC af440 20 0 std::__1::__function::__base<void (int)>::~__base()
FUNC af460 e0 0 unsigned int std::__1::__tree<AcidTubeComponent*, std::__1::less<AcidTubeComponent*>, std::__1::allocator<AcidTubeComponent*> >::__erase_unique<AcidTubeComponent*>(AcidTubeComponent* const&)
FUNC af540 20 0 std::__1::__function::__func<AcidTubeComponent::AcidTubeComponent(Entity&, AlienBuildableComponent&)::$_0, std::__1::allocator<AcidTubeComponent::AcidTubeComponent(Entity&, AlienBuildableComponent&)::$_0>, void (int)>::target_type() const
FUNC af560 20 0 std::__1::__function::__func<AcidTubeComponent::AcidTubeComponent(Entity&, AlienBuildableComponent&)::$_0, std::__1::allocator<AcidTubeComponent::AcidTubeComponent(Entity&, AlienBuildableComponent&)::$_0>, void (int)>::target(std::type_info const&) const
FUNC af580 100 0 std::__1::__function::__func<AcidTubeComponent::AcidTubeComponent(Entity&, AlienBuildableComponent&)::$_0, std::__1::allocator<AcidTubeComponent::AcidTubeComponent(Entity&, AlienBuildableComponent&)::$_0>, void (int)>::operator()(int&&)
FUNC af680 20 0 std::__1::__function::__func<AcidTubeComponent::AcidTubeComponent(Entity&, AlienBuildableComponent&)::$_0, std::__1::allocator<AcidTubeComponent::AcidTubeComponent(Entity&, AlienBuildableComponent&)::$_0>, void (int)>::destroy_deallocate()
FUNC af6a0 20 0 std::__1::__function::__func<AcidTubeComponent::AcidTubeComponent(Entity&, AlienBuildableComponent&)::$_0, std::__1::allocator<AcidTubeComponent::AcidTubeComponent(Entity&, AlienBuildableComponent&)::$_0>, void (int)>::destroy()
FUNC af6c0 20 0 std::__1::__function::__func<AcidTubeComponent::AcidTubeComponent(Entity&, AlienBuildableComponent&)::$_0, std::__1::allocator<AcidTubeComponent::AcidTubeComponent(Entity&, AlienBuildableComponent&)::$_0>, void (int)>::__clone(std::__1::__function::__base<void (int)>*) const
FUNC af6e0 60 0 std::__1::__function::__func<AcidTubeComponent::AcidTubeComponent(Entity&, AlienBuildableComponent&)::$_0, std::__1::allocator<AcidTubeComponent::AcidTubeComponent(Entity&, AlienBuildableComponent&)::$_0>, void (int)>::__clone() const
FUNC af740 20 0 std::__1::__function::__func<AcidTubeComponent::AcidTubeComponent(Entity&, AlienBuildableComponent&)::$_0, std::__1::allocator<AcidTubeComponent::AcidTubeComponent(Entity&, AlienBuildableComponent&)::$_0>, void (int)>::~__func()
FUNC af760 200 0 AlienBuildableComponent::AlienBuildableComponent(Entity&, BuildableComponent&, TeamComponent&, IgnitableComponent&)
FUNC af960 60 0 AlienBuildableComponent::HandleDamage(float, gentity_s*, Util::optional<Math::Vector<3u, float> >, Util::optional<Math::Vector<3u, float> >, int, meansOfDeath_t)
FUNC af9c0 3a0 0 AlienBuildableComponent::HandleDie(gentity_s*, meansOfDeath_t)
FUNC afd60 80 0 <name omitted>
FUNC afde0 20 0 std::__1::__function::__func<AlienBuildableComponent::CreepRecede(int)::$_4, std::__1::allocator<AlienBuildableComponent::CreepRecede(int)::$_4>, void (int)>::target_type() const
FUNC afe00 20 0 std::__1::__function::__func<AlienBuildableComponent::CreepRecede(int)::$_4, std::__1::allocator<AlienBuildableComponent::CreepRecede(int)::$_4>, void (int)>::target(std::type_info const&) const
FUNC afe20 a0 0 std::__1::__function::__func<AlienBuildableComponent::CreepRecede(int)::$_4, std::__1::allocator<AlienBuildableComponent::CreepRecede(int)::$_4>, void (int)>::operator()(int&&)
FUNC afec0 20 0 std::__1::__function::__func<AlienBuildableComponent::CreepRecede(int)::$_4, std::__1::allocator<AlienBuildableComponent::CreepRecede(int)::$_4>, void (int)>::destroy_deallocate()
FUNC afee0 20 0 std::__1::__function::__func<AlienBuildableComponent::CreepRecede(int)::$_4, std::__1::allocator<AlienBuildableComponent::CreepRecede(int)::$_4>, void (int)>::destroy()
FUNC aff00 20 0 std::__1::__function::__func<AlienBuildableComponent::CreepRecede(int)::$_4, std::__1::allocator<AlienBuildableComponent::CreepRecede(int)::$_4>, void (int)>::__clone(std::__1::__function::__base<void (int)>*) const
FUNC aff20 60 0 std::__1::__function::__func<AlienBuildableComponent::CreepRecede(int)::$_4, std::__1::allocator<AlienBuildableComponent::CreepRecede(int)::$_4>, void (int)>::__clone() const
FUNC aff80 20 0 std::__1::__function::__func<AlienBuildableComponent::CreepRecede(int)::$_4, std::__1::allocator<AlienBuildableComponent::CreepRecede(int)::$_4>, void (int)>::~__func()
FUNC affa0 20 0 std::__1::__function::__func<AlienBuildableComponent::Blast(int)::$_3, std::__1::allocator<AlienBuildableComponent::Blast(int)::$_3>, void (int)>::target_type() const
FUNC affc0 20 0 std::__1::__function::__func<AlienBuildableComponent::Blast(int)::$_3, std::__1::allocator<AlienBuildableComponent::Blast(int)::$_3>, void (int)>::target(std::type_info const&) const
FUNC affe0 200 0 std::__1::__function::__func<AlienBuildableComponent::Blast(int)::$_3, std::__1::allocator<AlienBuildableComponent::Blast(int)::$_3>, void (int)>::operator()(int&&)
FUNC b01e0 20 0 std::__1::__function::__func<AlienBuildableComponent::Blast(int)::$_3, std::__1::allocator<AlienBuildableComponent::Blast(int)::$_3>, void (int)>::destroy_deallocate()
FUNC b0200 20 0 std::__1::__function::__func<AlienBuildableComponent::Blast(int)::$_3, std::__1::allocator<AlienBuildableComponent::Blast(int)::$_3>, void (int)>::destroy()
FUNC b0220 20 0 std::__1::__function::__func<AlienBuildableComponent::Blast(int)::$_3, std::__1::allocator<AlienBuildableComponent::Blast(int)::$_3>, void (int)>::__clone(std::__1::__function::__base<void (int)>*) const
FUNC b0240 60 0 std::__1::__function::__func<AlienBuildableComponent::Blast(int)::$_3, std::__1::allocator<AlienBuildableComponent::Blast(int)::$_3>, void (int)>::__clone() const
FUNC b02a0 20 0 std::__1::__function::__func<AlienBuildableComponent::Blast(int)::$_3, std::__1::allocator<AlienBuildableComponent::Blast(int)::$_3>, void (int)>::~__func()
FUNC b02c0 20 0 std::__1::__function::__func<AlienBuildableComponent::HandleDie(gentity_s*, meansOfDeath_t)::$_2, std::__1::allocator<AlienBuildableComponent::HandleDie(gentity_s*, meansOfDeath_t)::$_2>, void (int)>::target_type() const
FUNC b02e0 20 0 std::__1::__function::__func<AlienBuildableComponent::HandleDie(gentity_s*, meansOfDeath_t)::$_2, std::__1::allocator<AlienBuildableComponent::HandleDie(gentity_s*, meansOfDeath_t)::$_2>, void (int)>::target(std::type_info const&) const
FUNC b0300 200 0 std::__1::__function::__func<AlienBuildableComponent::HandleDie(gentity_s*, meansOfDeath_t)::$_2, std::__1::allocator<AlienBuildableComponent::HandleDie(gentity_s*, meansOfDeath_t)::$_2>, void (int)>::operator()(int&&)
FUNC b0500 20 0 std::__1::__function::__func<AlienBuildableComponent::HandleDie(gentity_s*, meansOfDeath_t)::$_2, std::__1::allocator<AlienBuildableComponent::HandleDie(gentity_s*, meansOfDeath_t)::$_2>, void (int)>::destroy_deallocate()
FUNC b0520 20 0 std::__1::__function::__func<AlienBuildableComponent::HandleDie(gentity_s*, meansOfDeath_t)::$_2, std::__1::allocator<AlienBuildableComponent::HandleDie(gentity_s*, meansOfDeath_t)::$_2>, void (int)>::destroy()
FUNC b0540 20 0 std::__1::__function::__func<AlienBuildableComponent::HandleDie(gentity_s*, meansOfDeath_t)::$_2, std::__1::allocator<AlienBuildableComponent::HandleDie(gentity_s*, meansOfDeath_t)::$_2>, void (int)>::__clone(std::__1::__function::__base<void (int)>*) const
FUNC b0560 60 0 std::__1::__function::__func<AlienBuildableComponent::HandleDie(gentity_s*, meansOfDeath_t)::$_2, std::__1::allocator<AlienBuildableComponent::HandleDie(gentity_s*, meansOfDeath_t)::$_2>, void (int)>::__clone() const
FUNC b05c0 20 0 std::__1::__function::__func<AlienBuildableComponent::HandleDie(gentity_s*, meansOfDeath_t)::$_2, std::__1::allocator<AlienBuildableComponent::HandleDie(gentity_s*, meansOfDeath_t)::$_2>, void (int)>::~__func()
FUNC b05e0 20 0 std::__1::__function::__func<AlienBuildableComponent::AlienBuildableComponent(Entity&, BuildableComponent&, TeamComponent&, IgnitableComponent&)::$_0, std::__1::allocator<AlienBuildableComponent::AlienBuildableComponent(Entity&, BuildableComponent&, TeamComponent&, IgnitableComponent&)::$_0>, void (int)>::target_type() const
FUNC b0600 20 0 std::__1::__function::__func<AlienBuildableComponent::AlienBuildableComponent(Entity&, BuildableComponent&, TeamComponent&, IgnitableComponent&)::$_0, std::__1::allocator<AlienBuildableComponent::AlienBuildableComponent(Entity&, BuildableComponent&, TeamComponent&, IgnitableComponent&)::$_0>, void (int)>::target(std::type_info const&) const
FUNC b0620 160 0 std::__1::__function::__func<AlienBuildableComponent::AlienBuildableComponent(Entity&, BuildableComponent&, TeamComponent&, IgnitableComponent&)::$_0, std::__1::allocator<AlienBuildableComponent::AlienBuildableComponent(Entity&, BuildableComponent&, TeamComponent&, IgnitableComponent&)::$_0>, void (int)>::operator()(int&&)
FUNC b0780 20 0 std::__1::__function::__func<AlienBuildableComponent::AlienBuildableComponent(Entity&, BuildableComponent&, TeamComponent&, IgnitableComponent&)::$_0, std::__1::allocator<AlienBuildableComponent::AlienBuildableComponent(Entity&, BuildableComponent&, TeamComponent&, IgnitableComponent&)::$_0>, void (int)>::destroy_deallocate()
FUNC b07a0 20 0 std::__1::__function::__func<AlienBuildableComponent::AlienBuildableComponent(Entity&, BuildableComponent&, TeamComponent&, IgnitableComponent&)::$_0, std::__1::allocator<AlienBuildableComponent::AlienBuildableComponent(Entity&, BuildableComponent&, TeamComponent&, IgnitableComponent&)::$_0>, void (int)>::destroy()
FUNC b07c0 20 0 std::__1::__function::__func<AlienBuildableComponent::AlienBuildableComponent(Entity&, BuildableComponent&, TeamComponent&, IgnitableComponent&)::$_0, std::__1::allocator<AlienBuildableComponent::AlienBuildableComponent(Entity&, BuildableComponent&, TeamComponent&, IgnitableComponent&)::$_0>, void (int)>::__clone(std::__1::__function::__base<void (int)>*) const
FUNC b07e0 60 0 std::__1::__function::__func<AlienBuildableComponent::AlienBuildableComponent(Entity&, BuildableComponent&, TeamComponent&, IgnitableComponent&)::$_0, std::__1::allocator<AlienBuildableComponent::AlienBuildableComponent(Entity&, BuildableComponent&, TeamComponent&, IgnitableComponent&)::$_0>, void (int)>::__clone() const
FUNC b0840 20 0 std::__1::__function::__func<AlienBuildableComponent::AlienBuildableComponent(Entity&, BuildableComponent&, TeamComponent&, IgnitableComponent&)::$_0, std::__1::allocator<AlienBuildableComponent::AlienBuildableComponent(Entity&, BuildableComponent&, TeamComponent&, IgnitableComponent&)::$_0>, void (int)>::~__func()
FUNC b0860 160 0 AlienClassComponentBase::AlienClassComponentBase(Entity&, ClientComponent&, TeamComponent&, ArmorComponent&, KnockbackComponent&, HealthComponent&)
FUNC b09c0 120 0 ArmorComponentBase::ArmorComponentBase(Entity&)
FUNC b0ae0 180 0 void Log::Logger::Debug<float&, float&>(Str::BasicStringRef<char>, float&, float&)
FUNC b0c60 d40 0 ArmorComponent::HandleApplyDamageModifier(float&, Util::optional<Math::Vector<3u, float> >, Util::optional<Math::Vector<3u, float> >, int, meansOfDeath_t)
FUNC b19a0 60 0 Util::bad_optional_access::~bad_optional_access()
FUNC b1a00 c0 0 void tinyformat::detail::FormatArg::formatImpl<char [32]>(std::__1::basic_ostream<char, std::__1::char_traits<char> >&, char const*, char const*, int, void const*)
FUNC b1ac0 80 0 int tinyformat::detail::FormatArg::toIntImpl<char [32]>(void const*)
FUNC b1b40 80 0 <name omitted>
FUNC b1bc0 120 0 ArmouryComponentBase::ArmouryComponentBase(Entity&, HumanBuildableComponent&)
FUNC b1ce0 120 0 BarricadeComponentBase::BarricadeComponentBase(Entity&, AlienBuildableComponent&)
FUNC b1e00 120 0 BoosterComponentBase::BoosterComponentBase(Entity&, AlienBuildableComponent&)
FUNC b1f20 240 0 BuildableComponent::BuildableComponent(Entity&, HealthComponent&, ThinkingComponent&, TeamComponent&)
FUNC b2160 c0 0 BuildableComponent::HandlePrepareNetCode()
FUNC b2220 660 0 BuildableComponent::HandleDie(gentity_s*, meansOfDeath_t)
FUNC b2880 120 0 BuildableComponent::SetPowerState(bool)
FUNC b29a0 20 0 std::__1::__function::__func<BuildableComponent::BuildableComponent(Entity&, HealthComponent&, ThinkingComponent&, TeamComponent&)::$_0, std::__1::allocator<BuildableComponent::BuildableComponent(Entity&, HealthComponent&, ThinkingComponent&, TeamComponent&)::$_0>, void (int)>::target_type() const
FUNC b29c0 20 0 std::__1::__function::__func<BuildableComponent::BuildableComponent(Entity&, HealthComponent&, ThinkingComponent&, TeamComponent&)::$_0, std::__1::allocator<BuildableComponent::BuildableComponent(Entity&, HealthComponent&, ThinkingComponent&, TeamComponent&)::$_0>, void (int)>::target(std::type_info const&) const
FUNC b29e0 600 0 std::__1::__function::__func<BuildableComponent::BuildableComponent(Entity&, HealthComponent&, ThinkingComponent&, TeamComponent&)::$_0, std::__1::allocator<BuildableComponent::BuildableComponent(Entity&, HealthComponent&, ThinkingComponent&, TeamComponent&)::$_0>, void (int)>::operator()(int&&)
FUNC b2fe0 20 0 std::__1::__function::__func<BuildableComponent::BuildableComponent(Entity&, HealthComponent&, ThinkingComponent&, TeamComponent&)::$_0, std::__1::allocator<BuildableComponent::BuildableComponent(Entity&, HealthComponent&, ThinkingComponent&, TeamComponent&)::$_0>, void (int)>::destroy_deallocate()
FUNC b3000 20 0 std::__1::__function::__func<BuildableComponent::BuildableComponent(Entity&, HealthComponent&, ThinkingComponent&, TeamComponent&)::$_0, std::__1::allocator<BuildableComponent::BuildableComponent(Entity&, HealthComponent&, ThinkingComponent&, TeamComponent&)::$_0>, void (int)>::destroy()
FUNC b3020 20 0 std::__1::__function::__func<BuildableComponent::BuildableComponent(Entity&, HealthComponent&, ThinkingComponent&, TeamComponent&)::$_0, std::__1::allocator<BuildableComponent::BuildableComponent(Entity&, HealthComponent&, ThinkingComponent&, TeamComponent&)::$_0>, void (int)>::__clone(std::__1::__function::__base<void (int)>*) const
FUNC b3040 60 0 std::__1::__function::__func<BuildableComponent::BuildableComponent(Entity&, HealthComponent&, ThinkingComponent&, TeamComponent&)::$_0, std::__1::allocator<BuildableComponent::BuildableComponent(Entity&, HealthComponent&, ThinkingComponent&, TeamComponent&)::$_0>, void (int)>::__clone() const
FUNC b30a0 20 0 std::__1::__function::__func<BuildableComponent::BuildableComponent(Entity&, HealthComponent&, ThinkingComponent&, TeamComponent&)::$_0, std::__1::allocator<BuildableComponent::BuildableComponent(Entity&, HealthComponent&, ThinkingComponent&, TeamComponent&)::$_0>, void (int)>::~__func()
FUNC b30c0 140 0 ClientComponentBase::ClientComponentBase(Entity&, gclient_s*, TeamComponent&)
FUNC b3200 120 0 DeferredFreeingComponentBase::DeferredFreeingComponentBase(Entity&)
FUNC b3320 140 0 DrillComponentBase::DrillComponentBase(Entity&, HumanBuildableComponent&, MiningComponent&)
FUNC b3460 140 0 EggComponentBase::EggComponentBase(Entity&, AlienBuildableComponent&, SpawnerComponent&)
FUNC b35a0 480 0 EggComponent::CheckSpawnPoint(int, Math::Vector<3u, float>, Math::Vector<3u, float>, Entity*&, Math::Vector<3u, float>&)
FUNC b3a20 120 0 HealthComponentBase::HealthComponentBase(Entity&, float)
FUNC b3b40 c0 0 HealthComponent::HandlePrepareNetCode()
FUNC b3c00 200 0 HealthComponent::HandleHeal(float, gentity_s*)
FUNC b3e00 580 0 HealthComponent::ScaleDamageAccounts(float)
FUNC b4380 ac0 0 HealthComponent::HandleDamage(float, gentity_s*, Util::optional<Math::Vector<3u, float> >, Util::optional<Math::Vector<3u, float> >, int, meansOfDeath_t)
FUNC b4e40 180 0 void Log::Logger::Notice<float&, float&, float>(Str::BasicStringRef<char>, float&, float&, float&&)
FUNC b4fc0 180 0 void Log::Logger::Notice<float&>(Str::BasicStringRef<char>, float&)
FUNC b5140 4c0 0 std::__1::basic_string<char, std::__1::char_traits<char>, std::__1::allocator<char> > tinyformat::format<unsigned int>(char const*, unsigned int const&)
FUNC b5600 520 0 void tinyformat::detail::FormatArg::formatImpl<unsigned int>(std::__1::basic_ostream<char, std::__1::char_traits<char> >&, char const*, char const*, int, void const*)
FUNC b5b20 20 0 int tinyformat::detail::FormatArg::toIntImpl<unsigned int>(void const*)
FUNC b5b40 4e0 0 std::__1::basic_string<char, std::__1::char_traits<char>, std::__1::allocator<char> > tinyformat::format<unsigned int, float>(char const*, unsigned int const&, float const&)
FUNC b6020 80 0 <name omitted>
FUNC b60a0 200 0 HiveComponent::HiveComponent(Entity&, AlienBuildableComponent&)
FUNC b62a0 e0 0 unsigned int std::__1::__tree<HiveComponent*, std::__1::less<HiveComponent*>, std::__1::allocator<HiveComponent*> >::__erase_unique<HiveComponent*>(HiveComponent* const&)
FUNC b6380 20 0 std::__1::__function::__func<HiveComponent::HiveComponent(Entity&, AlienBuildableComponent&)::$_0, std::__1::allocator<HiveComponent::HiveComponent(Entity&, AlienBuildableComponent&)::$_0>, void (int)>::target_type() const
FUNC b63a0 20 0 std::__1::__function::__func<HiveComponent::HiveComponent(Entity&, AlienBuildableComponent&)::$_0, std::__1::allocator<HiveComponent::HiveComponent(Entity&, AlienBuildableComponent&)::$_0>, void (int)>::target(std::type_info const&) const
FUNC b63c0 460 0 std::__1::__function::__func<HiveComponent::HiveComponent(Entity&, AlienBuildableComponent&)::$_0, std::__1::allocator<HiveComponent::HiveComponent(Entity&, AlienBuildableComponent&)::$_0>, void (int)>::operator()(int&&)
FUNC b6820 20 0 std::__1::__function::__func<HiveComponent::HiveComponent(Entity&, AlienBuildableComponent&)::$_0, std::__1::allocator<HiveComponent::HiveComponent(Entity&, AlienBuildableComponent&)::$_0>, void (int)>::destroy_deallocate()
FUNC b6840 20 0 std::__1::__function::__func<HiveComponent::HiveComponent(Entity&, AlienBuildableComponent&)::$_0, std::__1::allocator<HiveComponent::HiveComponent(Entity&, AlienBuildableComponent&)::$_0>, void (int)>::destroy()
FUNC b6860 20 0 std::__1::__function::__func<HiveComponent::HiveComponent(Entity&, AlienBuildableComponent&)::$_0, std::__1::allocator<HiveComponent::HiveComponent(Entity&, AlienBuildableComponent&)::$_0>, void (int)>::__clone(std::__1::__function::__base<void (int)>*) const
FUNC b6880 60 0 std::__1::__function::__func<HiveComponent::HiveComponent(Entity&, AlienBuildableComponent&)::$_0, std::__1::allocator<HiveComponent::HiveComponent(Entity&, AlienBuildableComponent&)::$_0>, void (int)>::__clone() const
FUNC b68e0 20 0 std::__1::__function::__func<HiveComponent::HiveComponent(Entity&, AlienBuildableComponent&)::$_0, std::__1::allocator<HiveComponent::HiveComponent(Entity&, AlienBuildableComponent&)::$_0>, void (int)>::~__func()
FUNC b6900 140 0 HumanBuildableComponentBase::HumanBuildableComponentBase(Entity&, BuildableComponent&, TeamComponent&)
FUNC b6a40 2e0 0 HumanBuildableComponent::HandleDie(gentity_s*, meansOfDeath_t)
FUNC b6d20 2c0 0 HumanBuildableComponent::Blast(int)
FUNC b6fe0 80 0 <name omitted>
FUNC b7060 20 0 std::__1::__function::__func<HumanBuildableComponent::HandleDie(gentity_s*, meansOfDeath_t)::$_1, std::__1::allocator<HumanBuildableComponent::HandleDie(gentity_s*, meansOfDeath_t)::$_1>, void (int)>::target_type() const
FUNC b7080 20 0 std::__1::__function::__func<HumanBuildableComponent::HandleDie(gentity_s*, meansOfDeath_t)::$_1, std::__1::allocator<HumanBuildableComponent::HandleDie(gentity_s*, meansOfDeath_t)::$_1>, void (int)>::target(std::type_info const&) const
FUNC b70a0 20 0 std::__1::__function::__func<HumanBuildableComponent::HandleDie(gentity_s*, meansOfDeath_t)::$_1, std::__1::allocator<HumanBuildableComponent::HandleDie(gentity_s*, meansOfDeath_t)::$_1>, void (int)>::operator()(int&&)
FUNC b70c0 20 0 std::__1::__function::__func<HumanBuildableComponent::HandleDie(gentity_s*, meansOfDeath_t)::$_1, std::__1::allocator<HumanBuildableComponent::HandleDie(gentity_s*, meansOfDeath_t)::$_1>, void (int)>::destroy_deallocate()
FUNC b70e0 20 0 std::__1::__function::__func<HumanBuildableComponent::HandleDie(gentity_s*, meansOfDeath_t)::$_1, std::__1::allocator<HumanBuildableComponent::HandleDie(gentity_s*, meansOfDeath_t)::$_1>, void (int)>::destroy()
FUNC b7100 20 0 std::__1::__function::__func<HumanBuildableComponent::HandleDie(gentity_s*, meansOfDeath_t)::$_1, std::__1::allocator<HumanBuildableComponent::HandleDie(gentity_s*, meansOfDeath_t)::$_1>, void (int)>::__clone(std::__1::__function::__base<void (int)>*) const
FUNC b7120 60 0 std::__1::__function::__func<HumanBuildableComponent::HandleDie(gentity_s*, meansOfDeath_t)::$_1, std::__1::allocator<HumanBuildableComponent::HandleDie(gentity_s*, meansOfDeath_t)::$_1>, void (int)>::__clone() const
FUNC b7180 20 0 std::__1::__function::__func<HumanBuildableComponent::HandleDie(gentity_s*, meansOfDeath_t)::$_1, std::__1::allocator<HumanBuildableComponent::HandleDie(gentity_s*, meansOfDeath_t)::$_1>, void (int)>::~__func()
FUNC b71a0 20 0 std::__1::__function::__func<HumanBuildableComponent::HandleDie(gentity_s*, meansOfDeath_t)::$_0, std::__1::allocator<HumanBuildableComponent::HandleDie(gentity_s*, meansOfDeath_t)::$_0>, void (int)>::target_type() const
FUNC b71c0 20 0 std::__1::__function::__func<HumanBuildableComponent::HandleDie(gentity_s*, meansOfDeath_t)::$_0, std::__1::allocator<HumanBuildableComponent::HandleDie(gentity_s*, meansOfDeath_t)::$_0>, void (int)>::target(std::type_info const&) const
FUNC b71e0 20 0 std::__1::__function::__func<HumanBuildableComponent::HandleDie(gentity_s*, meansOfDeath_t)::$_0, std::__1::allocator<HumanBuildableComponent::HandleDie(gentity_s*, meansOfDeath_t)::$_0>, void (int)>::operator()(int&&)
FUNC b7200 20 0 std::__1::__function::__func<HumanBuildableComponent::HandleDie(gentity_s*, meansOfDeath_t)::$_0, std::__1::allocator<HumanBuildableComponent::HandleDie(gentity_s*, meansOfDeath_t)::$_0>, void (int)>::destroy_deallocate()
FUNC b7220 20 0 std::__1::__function::__func<HumanBuildableComponent::HandleDie(gentity_s*, meansOfDeath_t)::$_0, std::__1::allocator<HumanBuildableComponent::HandleDie(gentity_s*, meansOfDeath_t)::$_0>, void (int)>::destroy()
FUNC b7240 20 0 std::__1::__function::__func<HumanBuildableComponent::HandleDie(gentity_s*, meansOfDeath_t)::$_0, std::__1::allocator<HumanBuildableComponent::HandleDie(gentity_s*, meansOfDeath_t)::$_0>, void (int)>::__clone(std::__1::__function::__base<void (int)>*) const
FUNC b7260 60 0 std::__1::__function::__func<HumanBuildableComponent::HandleDie(gentity_s*, meansOfDeath_t)::$_0, std::__1::allocator<HumanBuildableComponent::HandleDie(gentity_s*, meansOfDeath_t)::$_0>, void (int)>::__clone() const
FUNC b72c0 20 0 std::__1::__function::__func<HumanBuildableComponent::HandleDie(gentity_s*, meansOfDeath_t)::$_0, std::__1::allocator<HumanBuildableComponent::HandleDie(gentity_s*, meansOfDeath_t)::$_0>, void (int)>::~__func()
FUNC b72e0 160 0 HumanClassComponentBase::HumanClassComponentBase(Entity&, ClientComponent&, TeamComponent&, ArmorComponent&, KnockbackComponent&, HealthComponent&)
FUNC b7440 440 0 IgnitableComponent::IgnitableComponent(Entity&, bool, ThinkingComponent&)
FUNC b7880 680 0 IgnitableComponent::HandleIgnite(gentity_s*)
FUNC b7f00 a0 0 IgnitableComponent::HandleExtinguish(int)
FUNC b7fa0 180 0 void Log::Logger::Debug<float&, float const&>(Str::BasicStringRef<char>, float&, float const&)
FUNC b8120 180 0 void Log::Logger::Notice<float, float>(Str::BasicStringRef<char>, float&&, float&&)
FUNC b82a0 180 0 void Log::Logger::Debug<float, float>(Str::BasicStringRef<char>, float&&, float&&)
FUNC b8420 180 0 void Log::Logger::Notice<float>(Str::BasicStringRef<char>, float&&)
FUNC b85a0 80 0 <name omitted>
FUNC b8620 20 0 std::__1::__function::__func<IgnitableComponent::IgnitableComponent(Entity&, bool, ThinkingComponent&)::$_3, std::__1::allocator<IgnitableComponent::IgnitableComponent(Entity&, bool, ThinkingComponent&)::$_3>, void (int)>::target_type() const
FUNC b8640 20 0 std::__1::__function::__func<IgnitableComponent::IgnitableComponent(Entity&, bool, ThinkingComponent&)::$_3, std::__1::allocator<IgnitableComponent::IgnitableComponent(Entity&, bool, ThinkingComponent&)::$_3>, void (int)>::target(std::type_info const&) const
FUNC b8660 260 0 std::__1::__function::__func<IgnitableComponent::IgnitableComponent(Entity&, bool, ThinkingComponent&)::$_3, std::__1::allocator<IgnitableComponent::IgnitableComponent(Entity&, bool, ThinkingComponent&)::$_3>, void (int)>::operator()(int&&)
FUNC b88c0 20 0 std::__1::__function::__func<IgnitableComponent::IgnitableComponent(Entity&, bool, ThinkingComponent&)::$_3, std::__1::allocator<IgnitableComponent::IgnitableComponent(Entity&, bool, ThinkingComponent&)::$_3>, void (int)>::destroy_deallocate()
FUNC b88e0 20 0 std::__1::__function::__func<IgnitableComponent::IgnitableComponent(Entity&, bool, ThinkingComponent&)::$_3, std::__1::allocator<IgnitableComponent::IgnitableComponent(Entity&, bool, ThinkingComponent&)::$_3>, void (int)>::destroy()
FUNC b8900 20 0 std::__1::__function::__func<IgnitableComponent::IgnitableComponent(Entity&, bool, ThinkingComponent&)::$_3, std::__1::allocator<IgnitableComponent::IgnitableComponent(Entity&, bool, ThinkingComponent&)::$_3>, void (int)>::__clone(std::__1::__function::__base<void (int)>*) const
FUNC b8920 60 0 std::__1::__function::__func<IgnitableComponent::IgnitableComponent(Entity&, bool, ThinkingComponent&)::$_3, std::__1::allocator<IgnitableComponent::IgnitableComponent(Entity&, bool, ThinkingComponent&)::$_3>, void (int)>::__clone() const
FUNC b8980 20 0 std::__1::__function::__func<IgnitableComponent::IgnitableComponent(Entity&, bool, ThinkingComponent&)::$_3, std::__1::allocator<IgnitableComponent::IgnitableComponent(Entity&, bool, ThinkingComponent&)::$_3>, void (int)>::~__func()
FUNC b89a0 20 0 std::__1::__function::__func<IgnitableComponent::IgnitableComponent(Entity&, bool, ThinkingComponent&)::$_2, std::__1::allocator<IgnitableComponent::IgnitableComponent(Entity&, bool, ThinkingComponent&)::$_2>, void (int)>::target_type() const
FUNC b89c0 20 0 std::__1::__function::__func<IgnitableComponent::IgnitableComponent(Entity&, bool, ThinkingComponent&)::$_2, std::__1::allocator<IgnitableComponent::IgnitableComponent(Entity&, bool, ThinkingComponent&)::$_2>, void (int)>::target(std::type_info const&) const
FUNC b89e0 360 0 std::__1::__function::__func<IgnitableComponent::IgnitableComponent(Entity&, bool, ThinkingComponent&)::$_2, std::__1::allocator<IgnitableComponent::IgnitableComponent(Entity&, bool, ThinkingComponent&)::$_2>, void (int)>::operator()(int&&)
FUNC b8d40 20 0 std::__1::__function::__func<IgnitableComponent::IgnitableComponent(Entity&, bool, ThinkingComponent&)::$_2, std::__1::allocator<IgnitableComponent::IgnitableComponent(Entity&, bool, ThinkingComponent&)::$_2>, void (int)>::destroy_deallocate()
FUNC b8d60 20 0 std::__1::__function::__func<IgnitableComponent::IgnitableComponent(Entity&, bool, ThinkingComponent&)::$_2, std::__1::allocator<IgnitableComponent::IgnitableComponent(Entity&, bool, ThinkingComponent&)::$_2>, void (int)>::destroy()
FUNC b8d80 20 0 std::__1::__function::__func<IgnitableComponent::IgnitableComponent(Entity&, bool, ThinkingComponent&)::$_2, std::__1::allocator<IgnitableComponent::IgnitableComponent(Entity&, bool, ThinkingComponent&)::$_2>, void (int)>::__clone(std::__1::__function::__base<void (int)>*) const
FUNC b8da0 60 0 std::__1::__function::__func<IgnitableComponent::IgnitableComponent(Entity&, bool, ThinkingComponent&)::$_2, std::__1::allocator<IgnitableComponent::IgnitableComponent(Entity&, bool, ThinkingComponent&)::$_2>, void (int)>::__clone() const
FUNC b8e00 20 0 std::__1::__function::__func<IgnitableComponent::IgnitableComponent(Entity&, bool, ThinkingComponent&)::$_2, std::__1::allocator<IgnitableComponent::IgnitableComponent(Entity&, bool, ThinkingComponent&)::$_2>, void (int)>::~__func()
FUNC b8e20 20 0 std::__1::__function::__func<IgnitableComponent::IgnitableComponent(Entity&, bool, ThinkingComponent&)::$_1, std::__1::allocator<IgnitableComponent::IgnitableComponent(Entity&, bool, ThinkingComponent&)::$_1>, void (int)>::target_type() const
FUNC b8e40 20 0 std::__1::__function::__func<IgnitableComponent::IgnitableComponent(Entity&, bool, ThinkingComponent&)::$_1, std::__1::allocator<IgnitableComponent::IgnitableComponent(Entity&, bool, ThinkingComponent&)::$_1>, void (int)>::target(std::type_info const&) const
FUNC b8e60 400 0 std::__1::__function::__func<IgnitableComponent::IgnitableComponent(Entity&, bool, ThinkingComponent&)::$_1, std::__1::allocator<IgnitableComponent::IgnitableComponent(Entity&, bool, ThinkingComponent&)::$_1>, void (int)>::operator()(int&&)
FUNC b9260 20 0 std::__1::__function::__func<IgnitableComponent::IgnitableComponent(Entity&, bool, ThinkingComponent&)::$_1, std::__1::allocator<IgnitableComponent::IgnitableComponent(Entity&, bool, ThinkingComponent&)::$_1>, void (int)>::destroy_deallocate()
FUNC b9280 20 0 std::__1::__function::__func<IgnitableComponent::IgnitableComponent(Entity&, bool, ThinkingComponent&)::$_1, std::__1::allocator<IgnitableComponent::IgnitableComponent(Entity&, bool, ThinkingComponent&)::$_1>, void (int)>::destroy()
FUNC b92a0 20 0 std::__1::__function::__func<IgnitableComponent::IgnitableComponent(Entity&, bool, ThinkingComponent&)::$_1, std::__1::allocator<IgnitableComponent::IgnitableComponent(Entity&, bool, ThinkingComponent&)::$_1>, void (int)>::__clone(std::__1::__function::__base<void (int)>*) const
FUNC b92c0 60 0 std::__1::__function::__func<IgnitableComponent::IgnitableComponent(Entity&, bool, ThinkingComponent&)::$_1, std::__1::allocator<IgnitableComponent::IgnitableComponent(Entity&, bool, ThinkingComponent&)::$_1>, void (int)>::__clone() const
FUNC b9320 20 0 std::__1::__function::__func<IgnitableComponent::IgnitableComponent(Entity&, bool, ThinkingComponent&)::$_1, std::__1::allocator<IgnitableComponent::IgnitableComponent(Entity&, bool, ThinkingComponent&)::$_1>, void (int)>::~__func()
FUNC b9340 20 0 std::__1::__function::__func<IgnitableComponent::IgnitableComponent(Entity&, bool, ThinkingComponent&)::$_0, std::__1::allocator<IgnitableComponent::IgnitableComponent(Entity&, bool, ThinkingComponent&)::$_0>, void (int)>::target_type() const
FUNC b9360 20 0 std::__1::__function::__func<IgnitableComponent::IgnitableComponent(Entity&, bool, ThinkingComponent&)::$_0, std::__1::allocator<IgnitableComponent::IgnitableComponent(Entity&, bool, ThinkingComponent&)::$_0>, void (int)>::target(std::type_info const&) const
FUNC b9380 c0 0 std::__1::__function::__func<IgnitableComponent::IgnitableComponent(Entity&, bool, ThinkingComponent&)::$_0, std::__1::allocator<IgnitableComponent::IgnitableComponent(Entity&, bool, ThinkingComponent&)::$_0>, void (int)>::operator()(int&&)
FUNC b9440 20 0 std::__1::__function::__func<IgnitableComponent::IgnitableComponent(Entity&, bool, ThinkingComponent&)::$_0, std::__1::allocator<IgnitableComponent::IgnitableComponent(Entity&, bool, ThinkingComponent&)::$_0>, void (int)>::destroy_deallocate()
FUNC b9460 20 0 std::__1::__function::__func<IgnitableComponent::IgnitableComponent(Entity&, bool, ThinkingComponent&)::$_0, std::__1::allocator<IgnitableComponent::IgnitableComponent(Entity&, bool, ThinkingComponent&)::$_0>, void (int)>::destroy()
FUNC b9480 20 0 std::__1::__function::__func<IgnitableComponent::IgnitableComponent(Entity&, bool, ThinkingComponent&)::$_0, std::__1::allocator<IgnitableComponent::IgnitableComponent(Entity&, bool, ThinkingComponent&)::$_0>, void (int)>::__clone(std::__1::__function::__base<void (int)>*) const
FUNC b94a0 60 0 std::__1::__function::__func<IgnitableComponent::IgnitableComponent(Entity&, bool, ThinkingComponent&)::$_0, std::__1::allocator<IgnitableComponent::IgnitableComponent(Entity&, bool, ThinkingComponent&)::$_0>, void (int)>::__clone() const
FUNC b9500 20 0 std::__1::__function::__func<IgnitableComponent::IgnitableComponent(Entity&, bool, ThinkingComponent&)::$_0, std::__1::allocator<IgnitableComponent::IgnitableComponent(Entity&, bool, ThinkingComponent&)::$_0>, void (int)>::~__func()
FUNC b9520 120 0 KnockbackComponentBase::KnockbackComponentBase(Entity&)
FUNC b9640 920 0 KnockbackComponent::HandleDamage(float, gentity_s*, Util::optional<Math::Vector<3u, float> >, Util::optional<Math::Vector<3u, float> >, int, meansOfDeath_t)
FUNC b9f60 80 0 <name omitted>
FUNC b9fe0 140 0 LeechComponentBase::LeechComponentBase(Entity&, AlienBuildableComponent&, MiningComponent&)
FUNC ba120 120 0 MainBuildableComponentBase::MainBuildableComponentBase(Entity&, BuildableComponent&)
FUNC ba240 100 0 MainBuildableComponent::HandleDamage(float, gentity_s*, Util::optional<Math::Vector<3u, float> >, Util::optional<Math::Vector<3u, float> >, int, meansOfDeath_t)
FUNC ba340 80 0 MainBuildableComponent::HandleDie(gentity_s*, meansOfDeath_t)
FUNC ba3c0 120 0 MedipadComponentBase::MedipadComponentBase(Entity&, HumanBuildableComponent&)
FUNC ba4e0 240 0 MGTurretComponent::MGTurretComponent(Entity&, HumanBuildableComponent&, TurretComponent&)
FUNC ba720 20 0 std::__1::__function::__base<bool (Entity&, Entity&)>::~__base()
FUNC ba740 e0 0 unsigned int std::__1::__tree<MGTurretComponent*, std::__1::less<MGTurretComponent*>, std::__1::allocator<MGTurretComponent*> >::__erase_unique<MGTurretComponent*>(MGTurretComponent* const&)
FUNC ba820 20 0 std::__1::__function::__func<MGTurretComponent::Think(int)::$_1, std::__1::allocator<MGTurretComponent::Think(int)::$_1>, bool (Entity&, Entity&)>::target_type() const
FUNC ba840 20 0 std::__1::__function::__func<MGTurretComponent::Think(int)::$_1, std::__1::allocator<MGTurretComponent::Think(int)::$_1>, bool (Entity&, Entity&)>::target(std::type_info const&) const
FUNC ba860 280 0 std::__1::__function::__func<MGTurretComponent::Think(int)::$_1, std::__1::allocator<MGTurretComponent::Think(int)::$_1>, bool (Entity&, Entity&)>::operator()(Entity&, Entity&)
FUNC baae0 20 0 std::__1::__function::__func<MGTurretComponent::Think(int)::$_1, std::__1::allocator<MGTurretComponent::Think(int)::$_1>, bool (Entity&, Entity&)>::destroy_deallocate()
FUNC bab00 20 0 std::__1::__function::__func<MGTurretComponent::Think(int)::$_1, std::__1::allocator<MGTurretComponent::Think(int)::$_1>, bool (Entity&, Entity&)>::destroy()
FUNC bab20 20 0 std::__1::__function::__func<MGTurretComponent::Think(int)::$_1, std::__1::allocator<MGTurretComponent::Think(int)::$_1>, bool (Entity&, Entity&)>::__clone(std::__1::__function::__base<bool (Entity&, Entity&)>*) const
FUNC bab40 60 0 std::__1::__function::__func<MGTurretComponent::Think(int)::$_1, std::__1::allocator<MGTurretComponent::Think(int)::$_1>, bool (Entity&, Entity&)>::__clone() const
FUNC baba0 20 0 std::__1::__function::__func<MGTurretComponent::Think(int)::$_1, std::__1::allocator<MGTurretComponent::Think(int)::$_1>, bool (Entity&, Entity&)>::~__func()
FUNC babc0 20 0 std::__1::__function::__func<MGTurretComponent::MGTurretComponent(Entity&, HumanBuildableComponent&, TurretComponent&)::$_0, std::__1::allocator<MGTurretComponent::MGTurretComponent(Entity&, HumanBuildableComponent&, TurretComponent&)::$_0>, void (int)>::target_type() const
FUNC babe0 20 0 std::__1::__function::__func<MGTurretComponent::MGTurretComponent(Entity&, HumanBuildableComponent&, TurretComponent&)::$_0, std::__1::allocator<MGTurretComponent::MGTurretComponent(Entity&, HumanBuildableComponent&, TurretComponent&)::$_0>, void (int)>::target(std::type_info const&) const
FUNC bac00 3a0 0 std::__1::__function::__func<MGTurretComponent::MGTurretComponent(Entity&, HumanBuildableComponent&, TurretComponent&)::$_0, std::__1::allocator<MGTurretComponent::MGTurretComponent(Entity&, HumanBuildableComponent&, TurretComponent&)::$_0>, void (int)>::operator()(int&&)
FUNC bafa0 20 0 std::__1::__function::__func<MGTurretComponent::MGTurretComponent(Entity&, HumanBuildableComponent&, TurretComponent&)::$_0, std::__1::allocator<MGTurretComponent::MGTurretComponent(Entity&, HumanBuildableComponent&, TurretComponent&)::$_0>, void (int)>::destroy_deallocate()
FUNC bafc0 20 0 std::__1::__function::__func<MGTurretComponent::MGTurretComponent(Entity&, HumanBuildableComponent&, TurretComponent&)::$_0, std::__1::allocator<MGTurretComponent::MGTurretComponent(Entity&, HumanBuildableComponent&, TurretComponent&)::$_0>, void (int)>::destroy()
FUNC bafe0 20 0 std::__1::__function::__func<MGTurretComponent::MGTurretComponent(Entity&, HumanBuildableComponent&, TurretComponent&)::$_0, std::__1::allocator<MGTurretComponent::MGTurretComponent(Entity&, HumanBuildableComponent&, TurretComponent&)::$_0>, void (int)>::__clone(std::__1::__function::__base<void (int)>*) const
FUNC bb000 60 0 std::__1::__function::__func<MGTurretComponent::MGTurretComponent(Entity&, HumanBuildableComponent&, TurretComponent&)::$_0, std::__1::allocator<MGTurretComponent::MGTurretComponent(Entity&, HumanBuildableComponent&, TurretComponent&)::$_0>, void (int)>::__clone() const
FUNC bb060 20 0 std::__1::__function::__func<MGTurretComponent::MGTurretComponent(Entity&, HumanBuildableComponent&, TurretComponent&)::$_0, std::__1::allocator<MGTurretComponent::MGTurretComponent(Entity&, HumanBuildableComponent&, TurretComponent&)::$_0>, void (int)>::~__func()
FUNC bb080 160 0 MiningComponent::MiningComponent(Entity&, bool, ThinkingComponent&)
FUNC bb1e0 1e0 0 MiningComponent::CalculateEfficiency()
FUNC bb3c0 120 0 MiningComponent::InformNeighbors()
FUNC bb4e0 220 0 OvermindComponent::OvermindComponent(Entity&, AlienBuildableComponent&, MainBuildableComponent&)
FUNC bb700 e0 0 unsigned int std::__1::__tree<OvermindComponent*, std::__1::less<OvermindComponent*>, std::__1::allocator<OvermindComponent*> >::__erase_unique<OvermindComponent*>(OvermindComponent* const&)
FUNC bb7e0 20 0 std::__1::__function::__func<OvermindComponent::OvermindComponent(Entity&, AlienBuildableComponent&, MainBuildableComponent&)::$_0, std::__1::allocator<OvermindComponent::OvermindComponent(Entity&, AlienBuildableComponent&, MainBuildableComponent&)::$_0>, void (int)>::target_type() const
FUNC bb800 20 0 std::__1::__function::__func<OvermindComponent::OvermindComponent(Entity&, AlienBuildableComponent&, MainBuildableComponent&)::$_0, std::__1::allocator<OvermindComponent::OvermindComponent(Entity&, AlienBuildableComponent&, MainBuildableComponent&)::$_0>, void (int)>::target(std::type_info const&) const
FUNC bb820 4e0 0 std::__1::__function::__func<OvermindComponent::OvermindComponent(Entity&, AlienBuildableComponent&, MainBuildableComponent&)::$_0, std::__1::allocator<OvermindComponent::OvermindComponent(Entity&, AlienBuildableComponent&, MainBuildableComponent&)::$_0>, void (int)>::operator()(int&&)
FUNC bbd00 20 0 std::__1::__function::__func<OvermindComponent::OvermindComponent(Entity&, AlienBuildableComponent&, MainBuildableComponent&)::$_0, std::__1::allocator<OvermindComponent::OvermindComponent(Entity&, AlienBuildableComponent&, MainBuildableComponent&)::$_0>, void (int)>::destroy_deallocate()
FUNC bbd20 20 0 std::__1::__function::__func<OvermindComponent::OvermindComponent(Entity&, AlienBuildableComponent&, MainBuildableComponent&)::$_0, std::__1::allocator<OvermindComponent::OvermindComponent(Entity&, AlienBuildableComponent&, MainBuildableComponent&)::$_0>, void (int)>::destroy()
FUNC bbd40 20 0 std::__1::__function::__func<OvermindComponent::OvermindComponent(Entity&, AlienBuildableComponent&, MainBuildableComponent&)::$_0, std::__1::allocator<OvermindComponent::OvermindComponent(Entity&, AlienBuildableComponent&, MainBuildableComponent&)::$_0>, void (int)>::__clone(std::__1::__function::__base<void (int)>*) const
FUNC bbd60 60 0 std::__1::__function::__func<OvermindComponent::OvermindComponent(Entity&, AlienBuildableComponent&, MainBuildableComponent&)::$_0, std::__1::allocator<OvermindComponent::OvermindComponent(Entity&, AlienBuildableComponent&, MainBuildableComponent&)::$_0>, void (int)>::__clone() const
FUNC bbdc0 20 0 std::__1::__function::__func<OvermindComponent::OvermindComponent(Entity&, AlienBuildableComponent&, MainBuildableComponent&)::$_0, std::__1::allocator<OvermindComponent::OvermindComponent(Entity&, AlienBuildableComponent&, MainBuildableComponent&)::$_0>, void (int)>::~__func()
FUNC bbde0 220 0 ReactorComponent::ReactorComponent(Entity&, HumanBuildableComponent&, MainBuildableComponent&)
FUNC bc000 e0 0 unsigned int std::__1::__tree<ReactorComponent*, std::__1::less<ReactorComponent*>, std::__1::allocator<ReactorComponent*> >::__erase_unique<ReactorComponent*>(ReactorComponent* const&)
FUNC bc0e0 20 0 std::__1::__function::__func<ReactorComponent::ReactorComponent(Entity&, HumanBuildableComponent&, MainBuildableComponent&)::$_0, std::__1::allocator<ReactorComponent::ReactorComponent(Entity&, HumanBuildableComponent&, MainBuildableComponent&)::$_0>, void (int)>::target_type() const
FUNC bc100 20 0 std::__1::__function::__func<ReactorComponent::ReactorComponent(Entity&, HumanBuildableComponent&, MainBuildableComponent&)::$_0, std::__1::allocator<ReactorComponent::ReactorComponent(Entity&, HumanBuildableComponent&, MainBuildableComponent&)::$_0>, void (int)>::target(std::type_info const&) const
FUNC bc120 200 0 std::__1::__function::__func<ReactorComponent::ReactorComponent(Entity&, HumanBuildableComponent&, MainBuildableComponent&)::$_0, std::__1::allocator<ReactorComponent::ReactorComponent(Entity&, HumanBuildableComponent&, MainBuildableComponent&)::$_0>, void (int)>::operator()(int&&)
FUNC bc320 20 0 std::__1::__function::__func<ReactorComponent::ReactorComponent(Entity&, HumanBuildableComponent&, MainBuildableComponent&)::$_0, std::__1::allocator<ReactorComponent::ReactorComponent(Entity&, HumanBuildableComponent&, MainBuildableComponent&)::$_0>, void (int)>::destroy_deallocate()
FUNC bc340 20 0 std::__1::__function::__func<ReactorComponent::ReactorComponent(Entity&, HumanBuildableComponent&, MainBuildableComponent&)::$_0, std::__1::allocator<ReactorComponent::ReactorComponent(Entity&, HumanBuildableComponent&, MainBuildableComponent&)::$_0>, void (int)>::destroy()
FUNC bc360 20 0 std::__1::__function::__func<ReactorComponent::ReactorComponent(Entity&, HumanBuildableComponent&, MainBuildableComponent&)::$_0, std::__1::allocator<ReactorComponent::ReactorComponent(Entity&, HumanBuildableComponent&, MainBuildableComponent&)::$_0>, void (int)>::__clone(std::__1::__function::__base<void (int)>*) const
FUNC bc380 60 0 std::__1::__function::__func<ReactorComponent::ReactorComponent(Entity&, HumanBuildableComponent&, MainBuildableComponent&)::$_0, std::__1::allocator<ReactorComponent::ReactorComponent(Entity&, HumanBuildableComponent&, MainBuildableComponent&)::$_0>, void (int)>::__clone() const
FUNC bc3e0 20 0 std::__1::__function::__func<ReactorComponent::ReactorComponent(Entity&, HumanBuildableComponent&, MainBuildableComponent&)::$_0, std::__1::allocator<ReactorComponent::ReactorComponent(Entity&, HumanBuildableComponent&, MainBuildableComponent&)::$_0>, void (int)>::~__func()
FUNC bc400 240 0 RocketpodComponent::RocketpodComponent(Entity&, HumanBuildableComponent&, TurretComponent&)
FUNC bc640 120 0 <name omitted>
FUNC bc760 e0 0 unsigned int std::__1::__tree<RocketpodComponent*, std::__1::less<RocketpodComponent*>, std::__1::allocator<RocketpodComponent*> >::__erase_unique<RocketpodComponent*>(RocketpodComponent* const&)
FUNC bc840 20 0 std::__1::__function::__func<RocketpodComponent::Think(int)::$_1, std::__1::allocator<RocketpodComponent::Think(int)::$_1>, bool (Entity&, Entity&)>::target_type() const
FUNC bc860 20 0 std::__1::__function::__func<RocketpodComponent::Think(int)::$_1, std::__1::allocator<RocketpodComponent::Think(int)::$_1>, bool (Entity&, Entity&)>::target(std::type_info const&) const
FUNC bc880 5c0 0 std::__1::__function::__func<RocketpodComponent::Think(int)::$_1, std::__1::allocator<RocketpodComponent::Think(int)::$_1>, bool (Entity&, Entity&)>::operator()(Entity&, Entity&)
FUNC bce40 20 0 std::__1::__function::__func<RocketpodComponent::Think(int)::$_1, std::__1::allocator<RocketpodComponent::Think(int)::$_1>, bool (Entity&, Entity&)>::destroy_deallocate()
FUNC bce60 20 0 std::__1::__function::__func<RocketpodComponent::Think(int)::$_1, std::__1::allocator<RocketpodComponent::Think(int)::$_1>, bool (Entity&, Entity&)>::destroy()
FUNC bce80 20 0 std::__1::__function::__func<RocketpodComponent::Think(int)::$_1, std::__1::allocator<RocketpodComponent::Think(int)::$_1>, bool (Entity&, Entity&)>::__clone(std::__1::__function::__base<bool (Entity&, Entity&)>*) const
FUNC bcea0 60 0 std::__1::__function::__func<RocketpodComponent::Think(int)::$_1, std::__1::allocator<RocketpodComponent::Think(int)::$_1>, bool (Entity&, Entity&)>::__clone() const
FUNC bcf00 20 0 std::__1::__function::__func<RocketpodComponent::Think(int)::$_1, std::__1::allocator<RocketpodComponent::Think(int)::$_1>, bool (Entity&, Entity&)>::~__func()
FUNC bcf20 20 0 std::__1::__function::__func<RocketpodComponent::RocketpodComponent(Entity&, HumanBuildableComponent&, TurretComponent&)::$_0, std::__1::allocator<RocketpodComponent::RocketpodComponent(Entity&, HumanBuildableComponent&, TurretComponent&)::$_0>, void (int)>::target_type() const
FUNC bcf40 20 0 std::__1::__function::__func<RocketpodComponent::RocketpodComponent(Entity&, HumanBuildableComponent&, TurretComponent&)::$_0, std::__1::allocator<RocketpodComponent::RocketpodComponent(Entity&, HumanBuildableComponent&, TurretComponent&)::$_0>, void (int)>::target(std::type_info const&) const
FUNC bcf60 9a0 0 std::__1::__function::__func<RocketpodComponent::RocketpodComponent(Entity&, HumanBuildableComponent&, TurretComponent&)::$_0, std::__1::allocator<RocketpodComponent::RocketpodComponent(Entity&, HumanBuildableComponent&, TurretComponent&)::$_0>, void (int)>::operator()(int&&)
FUNC bd900 20 0 std::__1::__function::__func<RocketpodComponent::RocketpodComponent(Entity&, HumanBuildableComponent&, TurretComponent&)::$_0, std::__1::allocator<RocketpodComponent::RocketpodComponent(Entity&, HumanBuildableComponent&, TurretComponent&)::$_0>, void (int)>::destroy_deallocate()
FUNC bd920 20 0 std::__1::__function::__func<RocketpodComponent::RocketpodComponent(Entity&, HumanBuildableComponent&, TurretComponent&)::$_0, std::__1::allocator<RocketpodComponent::RocketpodComponent(Entity&, HumanBuildableComponent&, TurretComponent&)::$_0>, void (int)>::destroy()
FUNC bd940 20 0 std::__1::__function::__func<RocketpodComponent::RocketpodComponent(Entity&, HumanBuildableComponent&, TurretComponent&)::$_0, std::__1::allocator<RocketpodComponent::RocketpodComponent(Entity&, HumanBuildableComponent&, TurretComponent&)::$_0>, void (int)>::__clone(std::__1::__function::__base<void (int)>*) const
FUNC bd960 60 0 std::__1::__function::__func<RocketpodComponent::RocketpodComponent(Entity&, HumanBuildableComponent&, TurretComponent&)::$_0, std::__1::allocator<RocketpodComponent::RocketpodComponent(Entity&, HumanBuildableComponent&, TurretComponent&)::$_0>, void (int)>::__clone() const
FUNC bd9c0 20 0 std::__1::__function::__func<RocketpodComponent::RocketpodComponent(Entity&, HumanBuildableComponent&, TurretComponent&)::$_0, std::__1::allocator<RocketpodComponent::RocketpodComponent(Entity&, HumanBuildableComponent&, TurretComponent&)::$_0>, void (int)>::~__func()
FUNC bd9e0 240 0 SpawnerComponent::SpawnerComponent(Entity&, TeamComponent&, ThinkingComponent&)
FUNC bdc20 100 0 SpawnerComponent::~SpawnerComponent()
FUNC bdd20 80 0 SpawnerComponent::HandleDie(gentity_s*, meansOfDeath_t)
FUNC bdda0 540 0 SpawnerComponent::WarnBlocker(Entity&, bool)
FUNC be2e0 e0 0 unsigned int std::__1::__tree<SpawnerComponent*, std::__1::less<SpawnerComponent*>, std::__1::allocator<SpawnerComponent*> >::__erase_unique<SpawnerComponent*>(SpawnerComponent* const&)
FUNC be3c0 80 0 <name omitted>
FUNC be440 20 0 std::__1::__function::__func<SpawnerComponent::SpawnerComponent(Entity&, TeamComponent&, ThinkingComponent&)::$_0, std::__1::allocator<SpawnerComponent::SpawnerComponent(Entity&, TeamComponent&, ThinkingComponent&)::$_0>, void (int)>::target_type() const
FUNC be460 20 0 std::__1::__function::__func<SpawnerComponent::SpawnerComponent(Entity&, TeamComponent&, ThinkingComponent&)::$_0, std::__1::allocator<SpawnerComponent::SpawnerComponent(Entity&, TeamComponent&, ThinkingComponent&)::$_0>, void (int)>::target(std::type_info const&) const
FUNC be480 300 0 std::__1::__function::__func<SpawnerComponent::SpawnerComponent(Entity&, TeamComponent&, ThinkingComponent&)::$_0, std::__1::allocator<SpawnerComponent::SpawnerComponent(Entity&, TeamComponent&, ThinkingComponent&)::$_0>, void (int)>::operator()(int&&)
FUNC be780 20 0 std::__1::__function::__func<SpawnerComponent::SpawnerComponent(Entity&, TeamComponent&, ThinkingComponent&)::$_0, std::__1::allocator<SpawnerComponent::SpawnerComponent(Entity&, TeamComponent&, ThinkingComponent&)::$_0>, void (int)>::destroy_deallocate()
FUNC be7a0 20 0 std::__1::__function::__func<SpawnerComponent::SpawnerComponent(Entity&, TeamComponent&, ThinkingComponent&)::$_0, std::__1::allocator<SpawnerComponent::SpawnerComponent(Entity&, TeamComponent&, ThinkingComponent&)::$_0>, void (int)>::destroy()
FUNC be7c0 20 0 std::__1::__function::__func<SpawnerComponent::SpawnerComponent(Entity&, TeamComponent&, ThinkingComponent&)::$_0, std::__1::allocator<SpawnerComponent::SpawnerComponent(Entity&, TeamComponent&, ThinkingComponent&)::$_0>, void (int)>::__clone(std::__1::__function::__base<void (int)>*) const
FUNC be7e0 60 0 std::__1::__function::__func<SpawnerComponent::SpawnerComponent(Entity&, TeamComponent&, ThinkingComponent&)::$_0, std::__1::allocator<SpawnerComponent::SpawnerComponent(Entity&, TeamComponent&, ThinkingComponent&)::$_0>, void (int)>::__clone() const
FUNC be840 20 0 std::__1::__function::__func<SpawnerComponent::SpawnerComponent(Entity&, TeamComponent&, ThinkingComponent&)::$_0, std::__1::allocator<SpawnerComponent::SpawnerComponent(Entity&, TeamComponent&, ThinkingComponent&)::$_0>, void (int)>::~__func()
FUNC be860 120 0 SpectatorComponentBase::SpectatorComponentBase(Entity&, ClientComponent&)
FUNC be980 200 0 SpikerComponent::SpikerComponent(Entity&, AlienBuildableComponent&)
FUNC beb80 140 0 SpikerComponent::RegisterSlowThinker()
FUNC becc0 180 0 void Log::Logger::Verbose<int&>(Str::BasicStringRef<char>, int&)
FUNC bee40 f00 0 SpikerComponent::Fire()
FUNC bfd40 1560 0 SpikerComponent::Think(int)
FUNC c12a0 520 0 void tinyformat::detail::FormatArg::formatImpl<double>(std::__1::basic_ostream<char, std::__1::char_traits<char> >&, char const*, char const*, int, void const*)
FUNC c17c0 20 0 int tinyformat::detail::FormatArg::toIntImpl<double>(void const*)
FUNC c17e0 c0 0 void tinyformat::detail::FormatArg::formatImpl<char [6]>(std::__1::basic_ostream<char, std::__1::char_traits<char> >&, char const*, char const*, int, void const*)
FUNC c18a0 80 0 int tinyformat::detail::FormatArg::toIntImpl<char [6]>(void const*)
FUNC c1920 e0 0 unsigned int std::__1::__tree<SpikerComponent*, std::__1::less<SpikerComponent*>, std::__1::allocator<SpikerComponent*> >::__erase_unique<SpikerComponent*>(SpikerComponent* const&)
FUNC c1a00 80 0 <name omitted>
FUNC c1a80 20 0 std::__1::__function::__func<SpikerComponent::RegisterSlowThinker()::$_2, std::__1::allocator<SpikerComponent::RegisterSlowThinker()::$_2>, void (int)>::target_type() const
FUNC c1aa0 20 0 std::__1::__function::__func<SpikerComponent::RegisterSlowThinker()::$_2, std::__1::allocator<SpikerComponent::RegisterSlowThinker()::$_2>, void (int)>::target(std::type_info const&) const
FUNC c1ac0 20 0 std::__1::__function::__func<SpikerComponent::RegisterSlowThinker()::$_2, std::__1::allocator<SpikerComponent::RegisterSlowThinker()::$_2>, void (int)>::operator()(int&&)
FUNC c1ae0 20 0 std::__1::__function::__func<SpikerComponent::RegisterSlowThinker()::$_2, std::__1::allocator<SpikerComponent::RegisterSlowThinker()::$_2>, void (int)>::destroy_deallocate()
FUNC c1b00 20 0 std::__1::__function::__func<SpikerComponent::RegisterSlowThinker()::$_2, std::__1::allocator<SpikerComponent::RegisterSlowThinker()::$_2>, void (int)>::destroy()
FUNC c1b20 20 0 std::__1::__function::__func<SpikerComponent::RegisterSlowThinker()::$_2, std::__1::allocator<SpikerComponent::RegisterSlowThinker()::$_2>, void (int)>::__clone(std::__1::__function::__base<void (int)>*) const
FUNC c1b40 60 0 std::__1::__function::__func<SpikerComponent::RegisterSlowThinker()::$_2, std::__1::allocator<SpikerComponent::RegisterSlowThinker()::$_2>, void (int)>::__clone() const
FUNC c1ba0 20 0 std::__1::__function::__func<SpikerComponent::RegisterSlowThinker()::$_2, std::__1::allocator<SpikerComponent::RegisterSlowThinker()::$_2>, void (int)>::~__func()
FUNC c1bc0 20 0 std::__1::__function::__func<SpikerComponent::RegisterFastThinker()::$_1, std::__1::allocator<SpikerComponent::RegisterFastThinker()::$_1>, void (int)>::target_type() const
FUNC c1be0 20 0 std::__1::__function::__func<SpikerComponent::RegisterFastThinker()::$_1, std::__1::allocator<SpikerComponent::RegisterFastThinker()::$_1>, void (int)>::target(std::type_info const&) const
FUNC c1c00 20 0 std::__1::__function::__func<SpikerComponent::RegisterFastThinker()::$_1, std::__1::allocator<SpikerComponent::RegisterFastThinker()::$_1>, void (int)>::operator()(int&&)
FUNC c1c20 20 0 std::__1::__function::__func<SpikerComponent::RegisterFastThinker()::$_1, std::__1::allocator<SpikerComponent::RegisterFastThinker()::$_1>, void (int)>::destroy_deallocate()
FUNC c1c40 20 0 std::__1::__function::__func<SpikerComponent::RegisterFastThinker()::$_1, std::__1::allocator<SpikerComponent::RegisterFastThinker()::$_1>, void (int)>::destroy()
FUNC c1c60 20 0 std::__1::__function::__func<SpikerComponent::RegisterFastThinker()::$_1, std::__1::allocator<SpikerComponent::RegisterFastThinker()::$_1>, void (int)>::__clone(std::__1::__function::__base<void (int)>*) const
FUNC c1c80 60 0 std::__1::__function::__func<SpikerComponent::RegisterFastThinker()::$_1, std::__1::allocator<SpikerComponent::RegisterFastThinker()::$_1>, void (int)>::__clone() const
FUNC c1ce0 20 0 std::__1::__function::__func<SpikerComponent::RegisterFastThinker()::$_1, std::__1::allocator<SpikerComponent::RegisterFastThinker()::$_1>, void (int)>::~__func()
FUNC c1d00 120 0 TeamComponentBase::TeamComponentBase(Entity&, team_e)
FUNC c1e20 140 0 TelenodeComponentBase::TelenodeComponentBase(Entity&, HumanBuildableComponent&, SpawnerComponent&)
FUNC c1f60 120 0 ThinkingComponentBase::ThinkingComponentBase(Entity&, DeferredFreeingComponent&)
FUNC c2080 bc0 0 ThinkingComponent::Think()
FUNC c2c40 180 0 void Log::Logger::Debug<int&, int&>(Str::BasicStringRef<char>, int&, int&)
FUNC c2dc0 680 0 ThinkingComponent::RegisterThinker(std::__1::function<void (int)>, ThinkingComponent::thinkScheduler_t, int)
FUNC c3440 80 0 <name omitted>
FUNC c34c0 120 0 TrapperComponentBase::TrapperComponentBase(Entity&, AlienBuildableComponent&)
FUNC c35e0 440 0 TurretComponent::TurretComponent(Entity&)
FUNC c3a20 c0 0 TurretComponent::~TurretComponent()
FUNC c3ae0 180 0 void Log::Logger::Verbose<>(Str::BasicStringRef<char>)
FUNC c3c60 340 0 TurretComponent::TargetValid(Entity&, bool)
FUNC c3fa0 1a0 0 TurretComponent::FindEntityTarget(std::__1::function<bool (Entity&, Entity&)>)
FUNC c4140 ec0 0 TurretComponent::MoveHeadToTarget(int)
FUNC c5000 140 0 TurretComponent::TrackEntityTarget()
FUNC c5140 180 0 void Log::Logger::Debug<Math::Vector<3u, float>&>(Str::BasicStringRef<char>, Math::Vector<3u, float>&)
FUNC c52c0 180 0 void Log::Logger::Verbose<Math::Vector<3u, float>&>(Str::BasicStringRef<char>, Math::Vector<3u, float>&)
FUNC c5440 240 0 TurretComponent::ResetPitch()
FUNC c5680 240 0 TurretComponent::LowerPitch()
FUNC c58c0 360 0 TurretComponent::TargetCanBeHit()
FUNC c5c20 4c0 0 std::__1::basic_string<char, std::__1::char_traits<char>, std::__1::allocator<char> > tinyformat::format<Math::Vector<3u, float> >(char const*, Math::Vector<3u, float> const&)
FUNC c60e0 700 0 void tinyformat::detail::FormatArg::formatImpl<Math::Vector<3u, float> >(std::__1::basic_ostream<char, std::__1::char_traits<char> >&, char const*, char const*, int, void const*)
FUNC c67e0 80 0 int tinyformat::detail::FormatArg::toIntImpl<Math::Vector<3u, float> >(void const*)
FUNC c6860 520 0 void tinyformat::detail::FormatArg::formatImpl<bool>(std::__1::basic_ostream<char, std::__1::char_traits<char> >&, char const*, char const*, int, void const*)
FUNC c6d80 20 0 int tinyformat::detail::FormatArg::toIntImpl<bool>(void const*)
FUNC c6da0 e0 0 unsigned int std::__1::__tree<TurretComponent*, std::__1::less<TurretComponent*>, std::__1::allocator<TurretComponent*> >::__erase_unique<TurretComponent*>(TurretComponent* const&)
FUNC c6e80 80 0 <name omitted>
FUNC c6f00 1e0 0 BG_ClassByName(char const*)
FUNC c70e0 200 0 BG_ClassModelConfigByName(char const*)
FUNC c72e0 140 0 BG_ClassBoundingBox(int, float*, float*, float*, float*, float*)
FUNC c7420 e0 0 BG_ClassCanEvolveFromTo(int, int, int)
FUNC c7500 1e0 0 BG_ClassDisabled(int)
FUNC c76e0 140 0 BG_UpgradeByName(char const*)
FUNC c7820 8560 0 BG_InitAllConfigs()
FUNC cfd80 280 0 BG_EvaluateTrajectory(trajectory_t const*, int, float*)
FUNC d0000 1e0 0 BG_EvaluateTrajectoryDelta(trajectory_t const*, int, float*)
FUNC d01e0 400 0 BG_PlayerStateToEntityState(playerState_t*, entityState_t*, bool)
FUNC d05e0 400 0 BG_PlayerStateToEntityStateExtraPolate(playerState_t*, entityState_t*, int, bool)
FUNC d09e0 240 0 BG_SlotsForInventory(int*)
FUNC d0c20 a0 0 BG_GetClientViewOrigin(playerState_t const*, float*)
FUNC d0cc0 120 0 BG_GetValueOfPlayer(playerState_t*)
FUNC d0de0 3a0 0 BG_PackEntityNumbers(entityState_t*, int const*, unsigned int)
FUNC d1180 1c0 0 BG_ParseCSVEquipmentList(char const*, weapon_t*, int, upgrade_t*, int)
FUNC d1340 140 0 BG_ParseCSVClassList(char const*, class_t*, int)
FUNC d1480 180 0 BG_ParseCSVBuildableList(char const*, buildable_t*, int)
FUNC d1600 120 0 BG_UpgradeDisabled(int)
FUNC d1720 a0 0 BG_PrimaryWeapon(int*)
FUNC d17c0 a0 0 BG_PlayableTeamFromString(char const*)
FUNC d1860 4e0 0 std::__1::basic_string<char, std::__1::char_traits<char>, std::__1::allocator<char> > tinyformat::format<int, unsigned int>(char const*, int const&, unsigned int const&)
FUNC d1d40 160 0 BG_ReadWholeFile(char const*, char*, int)
FUNC d1ea0 100 0 BG_ParseConfigVar(configVar_t*, char const**, char const*)
FUNC d1fa0 820 0 BG_ParseUpgradeAttributeFile(char const*, upgradeAttributes_t*)
FUNC d27c0 180 0 void Log::Logger::Warn<char const*&, char const*&>(Str::BasicStringRef<char>, char const*&, char const*&)
FUNC d2940 280 0 ParseSlotList(char const**)
FUNC d2bc0 960 0 PM_UpdateViewAngles(playerState_t*, usercmd_t const*)
FUNC d3520 28a0 0 Pmove(pmove_s*)
FUNC d5dc0 520 0 void Log::Logger::Notice<std::__1::basic_string<char, std::__1::char_traits<char>, std::__1::allocator<char> > >(Str::BasicStringRef<char>, std::__1::basic_string<char, std::__1::char_traits<char>, std::__1::allocator<char> >&&)
FUNC d62e0 580 0 void Log::Logger::Notice<std::__1::basic_string<char, std::__1::char_traits<char>, std::__1::allocator<char> >, double, char const*>(Str::BasicStringRef<char>, std::__1::basic_string<char, std::__1::char_traits<char>, std::__1::allocator<char> >&&, double&&, char const*&&)
FUNC d6860 4c0 0 std::__1::basic_string<char, std::__1::char_traits<char>, std::__1::allocator<char> > tinyformat::format<double>(char const*, double const&)
FUNC d6d20 640 0 std::__1::basic_string<char, std::__1::char_traits<char>, std::__1::allocator<char> > tinyformat::format<double, float, float, float, double, float, float, float>(char const*, double const&, float const&, float const&, float const&, double const&, float const&, float const&, float const&)
FUNC d7360 1e0 0 PM_CheckDuck()
FUNC d7540 200 0 PM_GhostMove(bool)
FUNC d7740 14a0 0 PM_Weapon()
FUNC d8be0 180 0 PM_SetWaterLevel()
FUNC d8d60 2700 0 PM_GroundTrace()
FUNC db460 500 0 PM_WaterMove()
FUNC db960 1a0 0 PM_Friction()
FUNC dbb00 340 0 PM_CmdScale(usercmd_t*, bool)
FUNC dbe40 300 0 PM_CheckJump()
FUNC dc140 1200 0 PM_CheckPounce()
FUNC dd340 13a0 0 PM_AirMove()
FUNC de6e0 540 0 PM_LandJetpack(bool)
FUNC dec20 e0 0 PM_PlayJumpingAnimation()
FUNC ded00 240 0 PM_GroundTraceMissed()
FUNC def40 3c0 0 PM_CorrectAllSolid(trace_t*)
FUNC df300 e0 0 PM_FinishWeaponChange()
FUNC df3e0 100 0 PM_BeginWeaponChange(int)
FUNC df4e0 a80 0 PM_SlideMove(bool)
FUNC dff60 280 0 PM_StepEvent(float const*, float const*, float const*)
FUNC e01e0 8c0 0 PM_StepSlideMove(bool, bool)
FUNC e0aa0 360 0 G_UpdateUnlockables()
FUNC e0e00 80 0 BG_WeaponUnlocked(int)
FUNC e0e80 80 0 BG_UpgradeUnlocked(int)
FUNC e0f00 60 0 BG_ClassUnlocked(int)
FUNC e0f60 540 0 std::__1::basic_string<char, std::__1::char_traits<char>, std::__1::allocator<char> > tinyformat::format<char [16], int, int>(char const*, char const (&) [16], int const&, int const&)
FUNC e14a0 c0 0 void tinyformat::detail::FormatArg::formatImpl<char [16]>(std::__1::basic_ostream<char, std::__1::char_traits<char> >&, char const*, char const*, int, void const*)
FUNC e1560 80 0 int tinyformat::detail::FormatArg::toIntImpl<char [16]>(void const*)
FUNC e15e0 4c0 0 std::__1::basic_string<char, std::__1::char_traits<char>, std::__1::allocator<char> > tinyformat::format<char [16]>(char const*, char const (&) [16])
FUNC e1aa0 80 0 BG_VoiceParseError(int, char const*)
FUNC e1b20 20 0 std::__1::set<DeferredFreeingComponent*, std::__1::less<DeferredFreeingComponent*>, std::__1::allocator<DeferredFreeingComponent*> >::~set()
FUNC e1b40 20 0 std::__1::set<ThinkingComponent*, std::__1::less<ThinkingComponent*>, std::__1::allocator<ThinkingComponent*> >::~set()
FUNC e1b60 20 0 std::__1::set<TeamComponent*, std::__1::less<TeamComponent*>, std::__1::allocator<TeamComponent*> >::~set()
FUNC e1b80 20 0 std::__1::set<IgnitableComponent*, std::__1::less<IgnitableComponent*>, std::__1::allocator<IgnitableComponent*> >::~set()
FUNC e1ba0 20 0 std::__1::set<HealthComponent*, std::__1::less<HealthComponent*>, std::__1::allocator<HealthComponent*> >::~set()
FUNC e1bc0 20 0 std::__1::set<ClientComponent*, std::__1::less<ClientComponent*>, std::__1::allocator<ClientComponent*> >::~set()
FUNC e1be0 20 0 std::__1::set<ArmorComponent*, std::__1::less<ArmorComponent*>, std::__1::allocator<ArmorComponent*> >::~set()
FUNC e1c00 20 0 std::__1::set<KnockbackComponent*, std::__1::less<KnockbackComponent*>, std::__1::allocator<KnockbackComponent*> >::~set()
FUNC e1c20 20 0 std::__1::set<SpectatorComponent*, std::__1::less<SpectatorComponent*>, std::__1::allocator<SpectatorComponent*> >::~set()
FUNC e1c40 20 0 std::__1::set<AlienClassComponent*, std::__1::less<AlienClassComponent*>, std::__1::allocator<AlienClassComponent*> >::~set()
FUNC e1c60 20 0 std::__1::set<HumanClassComponent*, std::__1::less<HumanClassComponent*>, std::__1::allocator<HumanClassComponent*> >::~set()
FUNC e1c80 20 0 std::__1::set<BuildableComponent*, std::__1::less<BuildableComponent*>, std::__1::allocator<BuildableComponent*> >::~set()
FUNC e1ca0 20 0 std::__1::set<AlienBuildableComponent*, std::__1::less<AlienBuildableComponent*>, std::__1::allocator<AlienBuildableComponent*> >::~set()
FUNC e1cc0 20 0 std::__1::set<HumanBuildableComponent*, std::__1::less<HumanBuildableComponent*>, std::__1::allocator<HumanBuildableComponent*> >::~set()
FUNC e1ce0 20 0 std::__1::set<MainBuildableComponent*, std::__1::less<MainBuildableComponent*>, std::__1::allocator<MainBuildableComponent*> >::~set()
FUNC e1d00 20 0 std::__1::set<SpawnerComponent*, std::__1::less<SpawnerComponent*>, std::__1::allocator<SpawnerComponent*> >::~set()
FUNC e1d20 20 0 std::__1::set<TurretComponent*, std::__1::less<TurretComponent*>, std::__1::allocator<TurretComponent*> >::~set()
FUNC e1d40 20 0 std::__1::set<MiningComponent*, std::__1::less<MiningComponent*>, std::__1::allocator<MiningComponent*> >::~set()
FUNC e1d60 20 0 std::__1::set<AcidTubeComponent*, std::__1::less<AcidTubeComponent*>, std::__1::allocator<AcidTubeComponent*> >::~set()
FUNC e1d80 20 0 std::__1::set<BarricadeComponent*, std::__1::less<BarricadeComponent*>, std::__1::allocator<BarricadeComponent*> >::~set()
FUNC e1da0 20 0 std::__1::set<BoosterComponent*, std::__1::less<BoosterComponent*>, std::__1::allocator<BoosterComponent*> >::~set()
FUNC e1dc0 20 0 std::__1::set<EggComponent*, std::__1::less<EggComponent*>, std::__1::allocator<EggComponent*> >::~set()
FUNC e1de0 20 0 std::__1::set<HiveComponent*, std::__1::less<HiveComponent*>, std::__1::allocator<HiveComponent*> >::~set()
FUNC e1e00 20 0 std::__1::set<LeechComponent*, std::__1::less<LeechComponent*>, std::__1::allocator<LeechComponent*> >::~set()
FUNC e1e20 20 0 std::__1::set<OvermindComponent*, std::__1::less<OvermindComponent*>, std::__1::allocator<OvermindComponent*> >::~set()
FUNC e1e40 20 0 std::__1::set<SpikerComponent*, std::__1::less<SpikerComponent*>, std::__1::allocator<SpikerComponent*> >::~set()
FUNC e1e60 20 0 std::__1::set<TrapperComponent*, std::__1::less<TrapperComponent*>, std::__1::allocator<TrapperComponent*> >::~set()
FUNC e1e80 20 0 std::__1::set<ArmouryComponent*, std::__1::less<ArmouryComponent*>, std::__1::allocator<ArmouryComponent*> >::~set()
FUNC e1ea0 20 0 std::__1::set<DrillComponent*, std::__1::less<DrillComponent*>, std::__1::allocator<DrillComponent*> >::~set()
FUNC e1ec0 20 0 std::__1::set<MedipadComponent*, std::__1::less<MedipadComponent*>, std::__1::allocator<MedipadComponent*> >::~set()
FUNC e1ee0 20 0 std::__1::set<MGTurretComponent*, std::__1::less<MGTurretComponent*>, std::__1::allocator<MGTurretComponent*> >::~set()
FUNC e1f00 20 0 std::__1::set<ReactorComponent*, std::__1::less<ReactorComponent*>, std::__1::allocator<ReactorComponent*> >::~set()
FUNC e1f20 20 0 std::__1::set<RocketpodComponent*, std::__1::less<RocketpodComponent*>, std::__1::allocator<RocketpodComponent*> >::~set()
FUNC e1f40 20 0 std::__1::set<TelenodeComponent*, std::__1::less<TelenodeComponent*>, std::__1::allocator<TelenodeComponent*> >::~set()
FUNC e1f60 c0 0 h_Spectator_PrepareNetCode(Entity*, void const*)
FUNC e2020 20 0 h_Dretch_Heal(Entity*, void const*)
FUNC e2040 140 0 h_Dretch_Damage(Entity*, void const*)
FUNC e2180 80 0 h_Dretch_ApplyDamageModifier(Entity*, void const*)
FUNC e2200 20 0 h_Dretch_PrepareNetCode(Entity*, void const*)
FUNC e2220 20 0 h_Mantis_Heal(Entity*, void const*)
FUNC e2240 140 0 h_Mantis_Damage(Entity*, void const*)
FUNC e2380 80 0 h_Mantis_ApplyDamageModifier(Entity*, void const*)
FUNC e2400 20 0 h_Mantis_PrepareNetCode(Entity*, void const*)
FUNC e2420 20 0 h_Marauder_Heal(Entity*, void const*)
FUNC e2440 140 0 h_Marauder_Damage(Entity*, void const*)
FUNC e2580 80 0 h_Marauder_ApplyDamageModifier(Entity*, void const*)
FUNC e2600 20 0 h_Marauder_PrepareNetCode(Entity*, void const*)
FUNC e2620 20 0 h_AdvMarauder_Heal(Entity*, void const*)
FUNC e2640 140 0 h_AdvMarauder_Damage(Entity*, void const*)
FUNC e2780 80 0 h_AdvMarauder_ApplyDamageModifier(Entity*, void const*)
FUNC e2800 20 0 h_AdvMarauder_PrepareNetCode(Entity*, void const*)
FUNC e2820 20 0 h_Dragoon_Heal(Entity*, void const*)
FUNC e2840 140 0 h_Dragoon_Damage(Entity*, void const*)
FUNC e2980 80 0 h_Dragoon_ApplyDamageModifier(Entity*, void const*)
FUNC e2a00 20 0 h_Dragoon_PrepareNetCode(Entity*, void const*)
FUNC e2a20 20 0 h_AdvDragoon_Heal(Entity*, void const*)
FUNC e2a40 140 0 h_AdvDragoon_Damage(Entity*, void const*)
FUNC e2b80 80 0 h_AdvDragoon_ApplyDamageModifier(Entity*, void const*)
FUNC e2c00 20 0 h_AdvDragoon_PrepareNetCode(Entity*, void const*)
FUNC e2c20 20 0 h_Tyrant_Heal(Entity*, void const*)
FUNC e2c40 140 0 h_Tyrant_Damage(Entity*, void const*)
FUNC e2d80 80 0 h_Tyrant_ApplyDamageModifier(Entity*, void const*)
FUNC e2e00 20 0 h_Tyrant_PrepareNetCode(Entity*, void const*)
FUNC e2e20 20 0 h_Granger_Heal(Entity*, void const*)
FUNC e2e40 140 0 h_Granger_Damage(Entity*, void const*)
FUNC e2f80 80 0 h_Granger_ApplyDamageModifier(Entity*, void const*)
FUNC e3000 20 0 h_Granger_PrepareNetCode(Entity*, void const*)
FUNC e3020 20 0 h_AdvGranger_Heal(Entity*, void const*)
FUNC e3040 140 0 h_AdvGranger_Damage(Entity*, void const*)
FUNC e3180 80 0 h_AdvGranger_ApplyDamageModifier(Entity*, void const*)
FUNC e3200 20 0 h_AdvGranger_PrepareNetCode(Entity*, void const*)
FUNC e3220 20 0 h_NakedHuman_Heal(Entity*, void const*)
FUNC e3240 140 0 h_NakedHuman_Damage(Entity*, void const*)
FUNC e3380 80 0 h_NakedHuman_ApplyDamageModifier(Entity*, void const*)
FUNC e3400 20 0 h_NakedHuman_PrepareNetCode(Entity*, void const*)
FUNC e3420 20 0 h_LightHuman_Heal(Entity*, void const*)
FUNC e3440 140 0 h_LightHuman_Damage(Entity*, void const*)
FUNC e3580 80 0 h_LightHuman_ApplyDamageModifier(Entity*, void const*)
FUNC e3600 20 0 h_LightHuman_PrepareNetCode(Entity*, void const*)
FUNC e3620 20 0 h_MediumHuman_Heal(Entity*, void const*)
FUNC e3640 140 0 h_MediumHuman_Damage(Entity*, void const*)
FUNC e3780 80 0 h_MediumHuman_ApplyDamageModifier(Entity*, void const*)
FUNC e3800 20 0 h_MediumHuman_PrepareNetCode(Entity*, void const*)
FUNC e3820 20 0 h_HeavyHuman_Heal(Entity*, void const*)
FUNC e3840 140 0 h_HeavyHuman_Damage(Entity*, void const*)
FUNC e3980 80 0 h_HeavyHuman_ApplyDamageModifier(Entity*, void const*)
FUNC e3a00 20 0 h_HeavyHuman_PrepareNetCode(Entity*, void const*)
FUNC e3a20 20 0 h_AcidTube_Ignite(Entity*, void const*)
FUNC e3a40 c0 0 h_AcidTube_Damage(Entity*, void const*)
FUNC e3b00 20 0 h_AcidTube_FreeAt(Entity*, void const*)
FUNC e3b20 60 0 h_AcidTube_PrepareNetCode(Entity*, void const*)
FUNC e3b80 20 0 h_AcidTube_Heal(Entity*, void const*)
FUNC e3ba0 20 0 h_AcidTube_Extinguish(Entity*, void const*)
FUNC e3bc0 40 0 h_AcidTube_Die(Entity*, void const*)
FUNC e3c00 20 0 h_Barricade_Ignite(Entity*, void const*)
FUNC e3c20 120 0 h_Barricade_Damage(Entity*, void const*)
FUNC e3d40 20 0 h_Barricade_FreeAt(Entity*, void const*)
FUNC e3d60 60 0 h_Barricade_PrepareNetCode(Entity*, void const*)
FUNC e3dc0 20 0 h_Barricade_Heal(Entity*, void const*)
FUNC e3de0 20 0 h_Barricade_Extinguish(Entity*, void const*)
FUNC e3e00 120 0 h_Barricade_Die(Entity*, void const*)
FUNC e3f20 20 0 h_Booster_Ignite(Entity*, void const*)
FUNC e3f40 c0 0 h_Booster_Damage(Entity*, void const*)
FUNC e4000 20 0 h_Booster_FreeAt(Entity*, void const*)
FUNC e4020 60 0 h_Booster_PrepareNetCode(Entity*, void const*)
FUNC e4080 20 0 h_Booster_Heal(Entity*, void const*)
FUNC e40a0 20 0 h_Booster_Extinguish(Entity*, void const*)
FUNC e40c0 40 0 h_Booster_Die(Entity*, void const*)
FUNC e4100 20 0 h_Egg_Ignite(Entity*, void const*)
FUNC e4120 c0 0 h_Egg_Damage(Entity*, void const*)
FUNC e41e0 20 0 h_Egg_FreeAt(Entity*, void const*)
FUNC e4200 60 0 h_Egg_PrepareNetCode(Entity*, void const*)
FUNC e4260 a0 0 h_Egg_CheckSpawnPoint(Entity*, void const*)
FUNC e4300 20 0 h_Egg_Heal(Entity*, void const*)
FUNC e4320 20 0 h_Egg_Extinguish(Entity*, void const*)
FUNC e4340 60 0 h_Egg_Die(Entity*, void const*)
FUNC e43a0 20 0 h_Hive_Ignite(Entity*, void const*)
FUNC e43c0 320 0 h_Hive_Damage(Entity*, void const*)
FUNC e46e0 20 0 h_Hive_FreeAt(Entity*, void const*)
FUNC e4700 60 0 h_Hive_PrepareNetCode(Entity*, void const*)
FUNC e4760 20 0 h_Hive_Heal(Entity*, void const*)
FUNC e4780 20 0 h_Hive_Extinguish(Entity*, void const*)
FUNC e47a0 40 0 h_Hive_Die(Entity*, void const*)
FUNC e47e0 20 0 h_Leech_Ignite(Entity*, void const*)
FUNC e4800 60 0 h_Leech_FinishConstruction(Entity*, void const*)
FUNC e4860 c0 0 h_Leech_Damage(Entity*, void const*)
FUNC e4920 20 0 h_Leech_FreeAt(Entity*, void const*)
FUNC e4940 a0 0 h_Leech_PrepareNetCode(Entity*, void const*)
FUNC e49e0 20 0 h_Leech_Heal(Entity*, void const*)
FUNC e4a00 20 0 h_Leech_Extinguish(Entity*, void const*)
FUNC e4a20 a0 0 h_Leech_Die(Entity*, void const*)
FUNC e4ac0 500 0 LeechEntity::LeechEntity(LeechEntity::Params)
FUNC e4fc0 20 0 h_Overmind_Ignite(Entity*, void const*)
FUNC e4fe0 40 0 h_Overmind_FinishConstruction(Entity*, void const*)
FUNC e5020 140 0 h_Overmind_Damage(Entity*, void const*)
FUNC e5160 20 0 h_Overmind_FreeAt(Entity*, void const*)
FUNC e5180 a0 0 h_Overmind_PrepareNetCode(Entity*, void const*)
FUNC e5220 20 0 h_Overmind_Heal(Entity*, void const*)
FUNC e5240 20 0 h_Overmind_Extinguish(Entity*, void const*)
FUNC e5260 60 0 h_Overmind_Die(Entity*, void const*)
FUNC e52c0 20 0 h_Spiker_Ignite(Entity*, void const*)
FUNC e52e0 180 0 h_Spiker_Damage(Entity*, void const*)
FUNC e5460 20 0 h_Spiker_FreeAt(Entity*, void const*)
FUNC e5480 60 0 h_Spiker_PrepareNetCode(Entity*, void const*)
FUNC e54e0 20 0 h_Spiker_Heal(Entity*, void const*)
FUNC e5500 20 0 h_Spiker_Extinguish(Entity*, void const*)
FUNC e5520 40 0 h_Spiker_Die(Entity*, void const*)
FUNC e5560 20 0 h_Trapper_Ignite(Entity*, void const*)
FUNC e5580 c0 0 h_Trapper_Damage(Entity*, void const*)
FUNC e5640 20 0 h_Trapper_FreeAt(Entity*, void const*)
FUNC e5660 60 0 h_Trapper_PrepareNetCode(Entity*, void const*)
FUNC e56c0 20 0 h_Trapper_Heal(Entity*, void const*)
FUNC e56e0 20 0 h_Trapper_Extinguish(Entity*, void const*)
FUNC e5700 40 0 h_Trapper_Die(Entity*, void const*)
FUNC e5740 20 0 h_Armoury_FreeAt(Entity*, void const*)
FUNC e5760 20 0 h_Armoury_Heal(Entity*, void const*)
FUNC e5780 a0 0 h_Armoury_Damage(Entity*, void const*)
FUNC e5820 40 0 h_Armoury_PrepareNetCode(Entity*, void const*)
FUNC e5860 40 0 h_Armoury_Die(Entity*, void const*)
FUNC e58a0 20 0 h_Drill_FreeAt(Entity*, void const*)
FUNC e58c0 60 0 h_Drill_FinishConstruction(Entity*, void const*)
FUNC e5920 20 0 h_Drill_Heal(Entity*, void const*)
FUNC e5940 a0 0 h_Drill_Damage(Entity*, void const*)
FUNC e59e0 80 0 h_Drill_PrepareNetCode(Entity*, void const*)
FUNC e5a60 a0 0 h_Drill_Die(Entity*, void const*)
FUNC e5b00 20 0 h_Medipad_FreeAt(Entity*, void const*)
FUNC e5b20 20 0 h_Medipad_Heal(Entity*, void const*)
FUNC e5b40 a0 0 h_Medipad_Damage(Entity*, void const*)
FUNC e5be0 40 0 h_Medipad_PrepareNetCode(Entity*, void const*)
FUNC e5c20 80 0 h_Medipad_Die(Entity*, void const*)
FUNC e5ca0 a0 0 h_MGTurret_Damage(Entity*, void const*)
FUNC e5d40 60 0 h_MGTurret_PowerDown(Entity*, void const*)
FUNC e5da0 20 0 h_MGTurret_FreeAt(Entity*, void const*)
FUNC e5dc0 e0 0 h_MGTurret_PrepareNetCode(Entity*, void const*)
FUNC e5ea0 20 0 h_MGTurret_PowerUp(Entity*, void const*)
FUNC e5ec0 20 0 h_MGTurret_Heal(Entity*, void const*)
FUNC e5ee0 60 0 h_MGTurret_Die(Entity*, void const*)
FUNC e5f40 20 0 h_Reactor_FreeAt(Entity*, void const*)
FUNC e5f60 20 0 h_Reactor_FinishConstruction(Entity*, void const*)
FUNC e5f80 20 0 h_Reactor_Heal(Entity*, void const*)
FUNC e5fa0 120 0 h_Reactor_Damage(Entity*, void const*)
FUNC e60c0 40 0 h_Reactor_PrepareNetCode(Entity*, void const*)
FUNC e6100 60 0 h_Reactor_Die(Entity*, void const*)
FUNC e6160 a0 0 h_Rocketpod_Damage(Entity*, void const*)
FUNC e6200 a0 0 h_Rocketpod_PowerDown(Entity*, void const*)
FUNC e62a0 20 0 h_Rocketpod_FreeAt(Entity*, void const*)
FUNC e62c0 100 0 h_Rocketpod_PrepareNetCode(Entity*, void const*)
FUNC e63c0 80 0 h_Rocketpod_PowerUp(Entity*, void const*)
FUNC e6440 20 0 h_Rocketpod_Heal(Entity*, void const*)
FUNC e6460 c0 0 h_Rocketpod_Die(Entity*, void const*)
FUNC e6520 20 0 h_Telenode_FreeAt(Entity*, void const*)
FUNC e6540 2c0 0 h_Telenode_CheckSpawnPoint(Entity*, void const*)
FUNC e6800 20 0 h_Telenode_Heal(Entity*, void const*)
FUNC e6820 a0 0 h_Telenode_Damage(Entity*, void const*)
FUNC e68c0 40 0 h_Telenode_PrepareNetCode(Entity*, void const*)
FUNC e6900 60 0 h_Telenode_Die(Entity*, void const*)
FUNC e6960 20 0 h_Fire_Ignite(Entity*, void const*)
FUNC e6980 20 0 h_Fire_Extinguish(Entity*, void const*)
FUNC e69a0 40 0 h_Fire_PrepareNetCode(Entity*, void const*)
FUNC e69e0 20 0 h_Fire_FreeAt(Entity*, void const*)
FUNC e6a00 1e0 0 FireEntity::FireEntity(FireEntity::Params)
FUNC e6be0 20 0 Entity::~Entity()
FUNC e6c00 20 0 EmptyEntity::~EmptyEntity()
FUNC e6c20 60 0 <name omitted>
FUNC e6c80 60 0 ClientEntity::~ClientEntity()
FUNC e6ce0 80 0 <name omitted>
FUNC e6d60 80 0 SpectatorEntity::~SpectatorEntity()
FUNC e6de0 e0 0 <name omitted>
FUNC e6ec0 e0 0 DretchEntity::~DretchEntity()
FUNC e6fa0 e0 0 <name omitted>
FUNC e7080 e0 0 MantisEntity::~MantisEntity()
FUNC e7160 e0 0 <name omitted>
FUNC e7240 e0 0 MarauderEntity::~MarauderEntity()
FUNC e7320 e0 0 <name omitted>
FUNC e7400 e0 0 AdvMarauderEntity::~AdvMarauderEntity()
FUNC e74e0 e0 0 <name omitted>
FUNC e75c0 e0 0 DragoonEntity::~DragoonEntity()
FUNC e76a0 e0 0 <name omitted>
FUNC e7780 e0 0 AdvDragoonEntity::~AdvDragoonEntity()
FUNC e7860 e0 0 <name omitted>
FUNC e7940 e0 0 TyrantEntity::~TyrantEntity()
FUNC e7a20 e0 0 <name omitted>
FUNC e7b00 e0 0 GrangerEntity::~GrangerEntity()
FUNC e7be0 e0 0 <name omitted>
FUNC e7cc0 e0 0 AdvGrangerEntity::~AdvGrangerEntity()
FUNC e7da0 e0 0 <name omitted>
FUNC e7e80 e0 0 NakedHumanEntity::~NakedHumanEntity()
FUNC e7f60 e0 0 <name omitted>
FUNC e8040 e0 0 LightHumanEntity::~LightHumanEntity()
FUNC e8120 e0 0 <name omitted>
FUNC e8200 e0 0 MediumHumanEntity::~MediumHumanEntity()
FUNC e82e0 e0 0 <name omitted>
FUNC e83c0 e0 0 HeavyHumanEntity::~HeavyHumanEntity()
FUNC e84a0 120 0 AcidTubeEntity::~AcidTubeEntity()
FUNC e85c0 40 0 AcidTubeEntity::~AcidTubeEntity()
FUNC e8600 1e0 0 BarricadeEntity::~BarricadeEntity()
FUNC e87e0 40 0 BarricadeEntity::~BarricadeEntity()
FUNC e8820 1e0 0 BoosterEntity::~BoosterEntity()
FUNC e8a00 40 0 BoosterEntity::~BoosterEntity()
FUNC e8a40 200 0 EggEntity::~EggEntity()
FUNC e8c40 40 0 EggEntity::~EggEntity()
FUNC e8c80 120 0 HiveEntity::~HiveEntity()
FUNC e8da0 40 0 HiveEntity::~HiveEntity()
FUNC e8de0 140 0 OvermindEntity::~OvermindEntity()
FUNC e8f20 40 0 OvermindEntity::~OvermindEntity()
FUNC e8f60 120 0 SpikerEntity::~SpikerEntity()
FUNC e9080 40 0 SpikerEntity::~SpikerEntity()
FUNC e90c0 1e0 0 TrapperEntity::~TrapperEntity()
FUNC e92a0 40 0 TrapperEntity::~TrapperEntity()
FUNC e92e0 100 0 <name omitted>
FUNC e93e0 100 0 ArmouryEntity::~ArmouryEntity()
FUNC e94e0 1e0 0 DrillEntity::~DrillEntity()
FUNC e96c0 40 0 DrillEntity::~DrillEntity()
FUNC e9700 100 0 <name omitted>
FUNC e9800 100 0 MedipadEntity::~MedipadEntity()
FUNC e9900 120 0 MGTurretEntity::~MGTurretEntity()
FUNC e9a20 40 0 MGTurretEntity::~MGTurretEntity()
FUNC e9a60 120 0 ReactorEntity::~ReactorEntity()
FUNC e9b80 40 0 ReactorEntity::~ReactorEntity()
FUNC e9bc0 120 0 RocketpodEntity::~RocketpodEntity()
FUNC e9ce0 40 0 RocketpodEntity::~RocketpodEntity()
FUNC e9d20 1e0 0 TelenodeEntity::~TelenodeEntity()
FUNC e9f00 40 0 TelenodeEntity::~TelenodeEntity()
FUNC e9f40 80 0 <name omitted>
FUNC e9fc0 80 0 FireEntity::~FireEntity()
FUNC ea040 e0 0 unsigned int std::__1::__tree<MedipadComponent*, std::__1::less<MedipadComponent*>, std::__1::allocator<MedipadComponent*> >::__erase_unique<MedipadComponent*>(MedipadComponent* const&)
FUNC ea120 e0 0 unsigned int std::__1::__tree<ArmouryComponent*, std::__1::less<ArmouryComponent*>, std::__1::allocator<ArmouryComponent*> >::__erase_unique<ArmouryComponent*>(ArmouryComponent* const&)
FUNC ea200 e0 0 unsigned int std::__1::__tree<HumanClassComponent*, std::__1::less<HumanClassComponent*>, std::__1::allocator<HumanClassComponent*> >::__erase_unique<HumanClassComponent*>(HumanClassComponent* const&)
FUNC ea2e0 e0 0 unsigned int std::__1::__tree<AlienClassComponent*, std::__1::less<AlienClassComponent*>, std::__1::allocator<AlienClassComponent*> >::__erase_unique<AlienClassComponent*>(AlienClassComponent* const&)
FUNC ea3c0 e0 0 unsigned int std::__1::__tree<SpectatorComponent*, std::__1::less<SpectatorComponent*>, std::__1::allocator<SpectatorComponent*> >::__erase_unique<SpectatorComponent*>(SpectatorComponent* const&)
FUNC ea4a0 e0 0 unsigned int std::__1::__tree<HumanBuildableComponent*, std::__1::less<HumanBuildableComponent*>, std::__1::allocator<HumanBuildableComponent*> >::__erase_unique<HumanBuildableComponent*>(HumanBuildableComponent* const&)
FUNC ea580 e0 0 unsigned int std::__1::__tree<MainBuildableComponent*, std::__1::less<MainBuildableComponent*>, std::__1::allocator<MainBuildableComponent*> >::__erase_unique<MainBuildableComponent*>(MainBuildableComponent* const&)
FUNC ea660 e0 0 unsigned int std::__1::__tree<ArmorComponent*, std::__1::less<ArmorComponent*>, std::__1::allocator<ArmorComponent*> >::__erase_unique<ArmorComponent*>(ArmorComponent* const&)
FUNC ea740 e0 0 unsigned int std::__1::__tree<KnockbackComponent*, std::__1::less<KnockbackComponent*>, std::__1::allocator<KnockbackComponent*> >::__erase_unique<KnockbackComponent*>(KnockbackComponent* const&)
FUNC ea820 e0 0 unsigned int std::__1::__tree<ClientComponent*, std::__1::less<ClientComponent*>, std::__1::allocator<ClientComponent*> >::__erase_unique<ClientComponent*>(ClientComponent* const&)
FUNC ea900 80 0 std::__1::__tree<TelenodeComponent*, std::__1::less<TelenodeComponent*>, std::__1::allocator<TelenodeComponent*> >::destroy(std::__1::__tree_node<TelenodeComponent*, void*>*)
FUNC ea980 80 0 std::__1::__tree<RocketpodComponent*, std::__1::less<RocketpodComponent*>, std::__1::allocator<RocketpodComponent*> >::destroy(std::__1::__tree_node<RocketpodComponent*, void*>*)
FUNC eaa00 80 0 std::__1::__tree<ReactorComponent*, std::__1::less<ReactorComponent*>, std::__1::allocator<ReactorComponent*> >::destroy(std::__1::__tree_node<ReactorComponent*, void*>*)
FUNC eaa80 80 0 std::__1::__tree<MGTurretComponent*, std::__1::less<MGTurretComponent*>, std::__1::allocator<MGTurretComponent*> >::destroy(std::__1::__tree_node<MGTurretComponent*, void*>*)
FUNC eab00 80 0 std::__1::__tree<MedipadComponent*, std::__1::less<MedipadComponent*>, std::__1::allocator<MedipadComponent*> >::destroy(std::__1::__tree_node<MedipadComponent*, void*>*)
FUNC eab80 80 0 std::__1::__tree<DrillComponent*, std::__1::less<DrillComponent*>, std::__1::allocator<DrillComponent*> >::destroy(std::__1::__tree_node<DrillComponent*, void*>*)
FUNC eac00 80 0 std::__1::__tree<ArmouryComponent*, std::__1::less<ArmouryComponent*>, std::__1::allocator<ArmouryComponent*> >::destroy(std::__1::__tree_node<ArmouryComponent*, void*>*)
FUNC eac80 80 0 std::__1::__tree<TrapperComponent*, std::__1::less<TrapperComponent*>, std::__1::allocator<TrapperComponent*> >::destroy(std::__1::__tree_node<TrapperComponent*, void*>*)
FUNC ead00 80 0 std::__1::__tree<SpikerComponent*, std::__1::less<SpikerComponent*>, std::__1::allocator<SpikerComponent*> >::destroy(std::__1::__tree_node<SpikerComponent*, void*>*)
FUNC ead80 80 0 std::__1::__tree<OvermindComponent*, std::__1::less<OvermindComponent*>, std::__1::allocator<OvermindComponent*> >::destroy(std::__1::__tree_node<OvermindComponent*, void*>*)
FUNC eae00 80 0 std::__1::__tree<LeechComponent*, std::__1::less<LeechComponent*>, std::__1::allocator<LeechComponent*> >::destroy(std::__1::__tree_node<LeechComponent*, void*>*)
FUNC eae80 80 0 std::__1::__tree<HiveComponent*, std::__1::less<HiveComponent*>, std::__1::allocator<HiveComponent*> >::destroy(std::__1::__tree_node<HiveComponent*, void*>*)
FUNC eaf00 80 0 std::__1::__tree<EggComponent*, std::__1::less<EggComponent*>, std::__1::allocator<EggComponent*> >::destroy(std::__1::__tree_node<EggComponent*, void*>*)
FUNC eaf80 80 0 std::__1::__tree<BoosterComponent*, std::__1::less<BoosterComponent*>, std::__1::allocator<BoosterComponent*> >::destroy(std::__1::__tree_node<BoosterComponent*, void*>*)
FUNC eb000 80 0 std::__1::__tree<BarricadeComponent*, std::__1::less<BarricadeComponent*>, std::__1::allocator<BarricadeComponent*> >::destroy(std::__1::__tree_node<BarricadeComponent*, void*>*)
FUNC eb080 80 0 std::__1::__tree<AcidTubeComponent*, std::__1::less<AcidTubeComponent*>, std::__1::allocator<AcidTubeComponent*> >::destroy(std::__1::__tree_node<AcidTubeComponent*, void*>*)
FUNC eb100 80 0 std::__1::__tree<MiningComponent*, std::__1::less<MiningComponent*>, std::__1::allocator<MiningComponent*> >::destroy(std::__1::__tree_node<MiningComponent*, void*>*)
FUNC eb180 80 0 std::__1::__tree<TurretComponent*, std::__1::less<TurretComponent*>, std::__1::allocator<TurretComponent*> >::destroy(std::__1::__tree_node<TurretComponent*, void*>*)
FUNC eb200 80 0 std::__1::__tree<SpawnerComponent*, std::__1::less<SpawnerComponent*>, std::__1::allocator<SpawnerComponent*> >::destroy(std::__1::__tree_node<SpawnerComponent*, void*>*)
FUNC eb280 80 0 std::__1::__tree<MainBuildableComponent*, std::__1::less<MainBuildableComponent*>, std::__1::allocator<MainBuildableComponent*> >::destroy(std::__1::__tree_node<MainBuildableComponent*, void*>*)
FUNC eb300 80 0 std::__1::__tree<HumanBuildableComponent*, std::__1::less<HumanBuildableComponent*>, std::__1::allocator<HumanBuildableComponent*> >::destroy(std::__1::__tree_node<HumanBuildableComponent*, void*>*)
FUNC eb380 80 0 std::__1::__tree<AlienBuildableComponent*, std::__1::less<AlienBuildableComponent*>, std::__1::allocator<AlienBuildableComponent*> >::destroy(std::__1::__tree_node<AlienBuildableComponent*, void*>*)
FUNC eb400 80 0 std::__1::__tree<BuildableComponent*, std::__1::less<BuildableComponent*>, std::__1::allocator<BuildableComponent*> >::destroy(std::__1::__tree_node<BuildableComponent*, void*>*)
FUNC eb480 80 0 std::__1::__tree<HumanClassComponent*, std::__1::less<HumanClassComponent*>, std::__1::allocator<HumanClassComponent*> >::destroy(std::__1::__tree_node<HumanClassComponent*, void*>*)
FUNC eb500 80 0 std::__1::__tree<AlienClassComponent*, std::__1::less<AlienClassComponent*>, std::__1::allocator<AlienClassComponent*> >::destroy(std::__1::__tree_node<AlienClassComponent*, void*>*)
FUNC eb580 80 0 std::__1::__tree<SpectatorComponent*, std::__1::less<SpectatorComponent*>, std::__1::allocator<SpectatorComponent*> >::destroy(std::__1::__tree_node<SpectatorComponent*, void*>*)
FUNC eb600 80 0 std::__1::__tree<KnockbackComponent*, std::__1::less<KnockbackComponent*>, std::__1::allocator<KnockbackComponent*> >::destroy(std::__1::__tree_node<KnockbackComponent*, void*>*)
FUNC eb680 80 0 std::__1::__tree<ArmorComponent*, std::__1::less<ArmorComponent*>, std::__1::allocator<ArmorComponent*> >::destroy(std::__1::__tree_node<ArmorComponent*, void*>*)
FUNC eb700 80 0 std::__1::__tree<ClientComponent*, std::__1::less<ClientComponent*>, std::__1::allocator<ClientComponent*> >::destroy(std::__1::__tree_node<ClientComponent*, void*>*)
FUNC eb780 80 0 std::__1::__tree<HealthComponent*, std::__1::less<HealthComponent*>, std::__1::allocator<HealthComponent*> >::destroy(std::__1::__tree_node<HealthComponent*, void*>*)
FUNC eb800 80 0 std::__1::__tree<IgnitableComponent*, std::__1::less<IgnitableComponent*>, std::__1::allocator<IgnitableComponent*> >::destroy(std::__1::__tree_node<IgnitableComponent*, void*>*)
FUNC eb880 80 0 std::__1::__tree<TeamComponent*, std::__1::less<TeamComponent*>, std::__1::allocator<TeamComponent*> >::destroy(std::__1::__tree_node<TeamComponent*, void*>*)
FUNC eb900 80 0 std::__1::__tree<ThinkingComponent*, std::__1::less<ThinkingComponent*>, std::__1::allocator<ThinkingComponent*> >::destroy(std::__1::__tree_node<ThinkingComponent*, void*>*)
FUNC eb980 80 0 std::__1::__tree<DeferredFreeingComponent*, std::__1::less<DeferredFreeingComponent*>, std::__1::allocator<DeferredFreeingComponent*> >::destroy(std::__1::__tree_node<DeferredFreeingComponent*, void*>*)
FUNC eba00 8c0 0 <name omitted>
FUNC ec2c0 c0 0 IPC::SharedMemory::~SharedMemory()
FUNC ec380 1360 0 trap_LocateGameData(int, int, playerState_t*, int)
FUNC ed6e0 ca0 0 trap_SendServerCommand(int, char const*)
FUNC ee380 7c0 0 trap_GetUserinfo(int, char*, int)
FUNC eeb40 d60 0 trap_GetEntityToken(char*, int)
FUNC ef8a0 840 0 trap_RSA_GenerateMessage(char const*, char*, char*)
FUNC f00e0 7c0 0 trap_GetPlayerPubkey(int, char*, int)
FUNC f08a0 100 0 trap_QuoteString(char const*, char*, int)
FUNC f09a0 820 0 trap_BotGetServerCommand(int, char*, int)
FUNC f11c0 7e0 0 trap_BotRemoveObstacle(int)
FUNC f19a0 240 0 void IPC::detail::SendMsg<void (&)(unsigned int, Util::Reader), IPC::Id<(unsigned short)0, (unsigned short)34>>(IPC::Channel&, void (&)(unsigned int, Util::Reader), IPC::Message<IPC::Id<(unsigned short)0, (unsigned short)34>>)
FUNC f1be0 4c0 0 std::__1::basic_string<char, IPC::Message<IPC::Id<(unsigned short)0, (unsigned short)34>>::{unnamed type#1}::char_traits<char>, IPC::Message<IPC::Id<(unsigned short)0, (unsigned short)34>>::{unnamed type#1}::allocator<char> > tinyformat::format<IPC::Message<IPC::Id<(unsigned short)0, (unsigned short)34>>::{unnamed type#1}>(char const*, IPC::Message<IPC::Id<(unsigned short)0, (unsigned short)34>>::{unnamed type#1} const&)
FUNC f20a0 520 0 void tinyformat::detail::FormatArg::formatImpl<IPC::Message<IPC::Id<(unsigned short)0, (unsigned short)34>>::{unnamed type#1}>(std::__1::basic_ostream<char, IPC::Message<IPC::Id<(unsigned short)0, (unsigned short)34>>::{unnamed type#1}::char_traits<char> >&, char const*, char const, int, void const*)
FUNC f25c0 20 0 int tinyformat::detail::FormatArg::toIntImpl<IPC::Message<IPC::Id<(unsigned short)0, (unsigned short)34>>::{unnamed type#1}>(void const*)
FUNC f25e0 520 0 void tinyformat::detail::FormatArg::formatImpl<IPC::Message<IPC::Id<(unsigned short)0, (unsigned short)33>, int>::{unnamed type#1}>(std::__1::basic_ostream<char, IPC::Message<IPC::Id<(unsigned short)0, (unsigned short)33>, int>::{unnamed type#1}::char_traits<char> >&, char const*, char const, int, void const*)
FUNC f2b00 20 0 int tinyformat::detail::FormatArg::toIntImpl<IPC::Message<IPC::Id<(unsigned short)0, (unsigned short)33>, int>::{unnamed type#1}>(void const*)
FUNC f2b20 600 0 void IPC::detail::SendMsg<void (&)(unsigned int, Util::Reader), IPC::Message<IPC::Id<(unsigned short)0, (unsigned short)32>, std::__1::array<float, 3u>, std::__1::array<float, 3u> >, IPC::Reply<int>, std::__1::array<float, 3u>&, std::__1::array<float, 3u>&, int&>(IPC::Channel&, void (&)(unsigned int, Util::Reader), IPC::SyncMessage<IPC::Message<IPC::Id<(unsigned short)0, (unsigned short)32>, std::__1::array<float, 3u>, std::__1::array<float, 3u> >, IPC::Reply<int> >, std::__1::array<float, 3u>&, std::__1::array<float, 3u>&, int&)
FUNC f3120 160 0 IPC::Channel::RecvReplyMsg()
FUNC f3280 4c0 0 std::__1::basic_string<char, std::__1::char_traits<char>, std::__1::allocator<char> > tinyformat::format<IPC::SyncMessage<IPC::Message<IPC::Id<(unsigned short)0, (unsigned short)32>, std::__1::array<float, 3u>, std::__1::array<float, 3u> >, IPC::Reply<int> >::{unnamed type#1}>(char const*, IPC::SyncMessage<IPC::Message<IPC::Id<(unsigned short)0, (unsigned short)32>, std::__1::array<float, 3u>, std::__1::array<float, 3u> >, IPC::Reply<int> >::{unnamed type#1} const&)
FUNC f3740 520 0 void tinyformat::detail::FormatArg::formatImpl<IPC::SyncMessage<IPC::Message<IPC::Id<(unsigned short)0, (unsigned short)32>, std::__1::array<float, 3u>, std::__1::array<float, 3u> >, IPC::Reply<int> >::{unnamed type#1}>(std::__1::basic_ostream<char, std::__1::char_traits<char> >&, char const*, char const, int, void const*)
FUNC f3c60 20 0 int tinyformat::detail::FormatArg::toIntImpl<IPC::SyncMessage<IPC::Message<IPC::Id<(unsigned short)0, (unsigned short)32>, std::__1::array<float, 3u>, std::__1::array<float, 3u> >, IPC::Reply<int> >::{unnamed type#1}>(void const*)
FUNC f3c80 520 0 void tinyformat::detail::FormatArg::formatImpl<IPC::SyncMessage<IPC::Message<IPC::Id<(unsigned short)0, (unsigned short)29>, int, std::__1::array<float, 3u>, float>, IPC::Reply<int, std::__1::array<float, 3u> > >::{unnamed type#1}>(std::__1::basic_ostream<char, std::__1::char_traits<char> >&, char const*, char const, int, void const*)
FUNC f41a0 20 0 int tinyformat::detail::FormatArg::toIntImpl<IPC::SyncMessage<IPC::Message<IPC::Id<(unsigned short)0, (unsigned short)29>, int, std::__1::array<float, 3u>, float>, IPC::Reply<int, std::__1::array<float, 3u> > >::{unnamed type#1}>(void const*)
FUNC f41c0 520 0 void tinyformat::detail::FormatArg::formatImpl<IPC::SyncMessage<IPC::Message<IPC::Id<(unsigned short)0, (unsigned short)28>, int>, IPC::Reply<std::__1::array<float, 3u> > >::{unnamed type#1}>(std::__1::basic_ostream<char, std::__1::char_traits<char> >&, char const*, char const, int, void const*)
FUNC f46e0 20 0 int tinyformat::detail::FormatArg::toIntImpl<IPC::SyncMessage<IPC::Message<IPC::Id<(unsigned short)0, (unsigned short)28>, int>, IPC::Reply<std::__1::array<float, 3u> > >::{unnamed type#1}>(void const*)
FUNC f4700 520 0 void tinyformat::detail::FormatArg::formatImpl<IPC::SyncMessage<IPC::Message<IPC::Id<(unsigned short)0, (unsigned short)27>, int, std::__1::array<float, 3u>, std::__1::array<float, 3u> >, IPC::Reply<int, botTrace_t> >::{unnamed type#1}>(std::__1::basic_ostream<char, std::__1::char_traits<char> >&, char const*, char const, int, void const*)
FUNC f4c20 20 0 int tinyformat::detail::FormatArg::toIntImpl<IPC::SyncMessage<IPC::Message<IPC::Id<(unsigned short)0, (unsigned short)27>, int, std::__1::array<float, 3u>, std::__1::array<float, 3u> >, IPC::Reply<int, botTrace_t> >::{unnamed type#1}>(void const*)
FUNC f4c40 640 0 void IPC::detail::SendMsg<void (&)(unsigned int, Util::Reader), IPC::Message<IPC::Id<(unsigned short)0, (unsigned short)26>, int, botRouteTarget_t>, IPC::Reply<botNavCmd_t>, int&, botRouteTarget_t const&, botNavCmd_t&>(IPC::Channel&, void (&)(unsigned int, Util::Reader), IPC::SyncMessage<IPC::Message<IPC::Id<(unsigned short)0, (unsigned short)26>, int, botRouteTarget_t>, IPC::Reply<botNavCmd_t> >, int&, botRouteTarget_t const&, botNavCmd_t&)
FUNC f5280 4c0 0 std::__1::basic_string<char, IPC::SyncMessage<IPC::Message<IPC::Id<(unsigned short)0, (unsigned short)26>, int, botRouteTarget_t>, IPC::Reply<botNavCmd_t> >::{unnamed type#1}::char_traits<char>, IPC::SyncMessage<IPC::Message<IPC::Id<(unsigned short)0, (unsigned short)26>, int, botRouteTarget_t>, IPC::Reply<botNavCmd_t> >::{unnamed type#1}::allocator<char> > tinyformat::format<IPC::SyncMessage<IPC::Message<IPC::Id<(unsigned short)0, (unsigned short)26>, int, botRouteTarget_t>, IPC::Reply<botNavCmd_t> >::{unnamed type#1}>(char const*, IPC::SyncMessage<IPC::Message<IPC::Id<(unsigned short)0, (unsigned short)26>, int, botRouteTarget_t>, IPC::Reply<botNavCmd_t> >::{unnamed type#1} const&)
FUNC f5740 520 0 void tinyformat::detail::FormatArg::formatImpl<IPC::SyncMessage<IPC::Message<IPC::Id<(unsigned short)0, (unsigned short)26>, int, botRouteTarget_t>, IPC::Reply<botNavCmd_t> >::{unnamed type#1}>(std::__1::basic_ostream<char, IPC::SyncMessage<IPC::Message<IPC::Id<(unsigned short)0, (unsigned short)26>, int, botRouteTarget_t>, IPC::Reply<botNavCmd_t> >::{unnamed type#1}::char_traits<char> >&, char const*, char const, int, void const*)
FUNC f5c60 20 0 int tinyformat::detail::FormatArg::toIntImpl<IPC::SyncMessage<IPC::Message<IPC::Id<(unsigned short)0, (unsigned short)26>, int, botRouteTarget_t>, IPC::Reply<botNavCmd_t> >::{unnamed type#1}>(void const*)
FUNC f5c80 520 0 void tinyformat::detail::FormatArg::formatImpl<IPC::SyncMessage<IPC::Message<IPC::Id<(unsigned short)0, (unsigned short)25>, int, botRouteTarget_t, bool>, IPC::Reply<int> >::{unnamed type#1}>(std::__1::basic_ostream<char, IPC::SyncMessage<IPC::Message<IPC::Id<(unsigned short)0, (unsigned short)25>, int, botRouteTarget_t, bool>, IPC::Reply<int> >::{unnamed type#1}::char_traits<char> >&, char const*, char const, int, void const*)
FUNC f61a0 20 0 int tinyformat::detail::FormatArg::toIntImpl<IPC::SyncMessage<IPC::Message<IPC::Id<(unsigned short)0, (unsigned short)25>, int, botRouteTarget_t, bool>, IPC::Reply<int> >::{unnamed type#1}>(void const*)
FUNC f61c0 2c0 0 void IPC::detail::SendMsg<void (&)(unsigned int, Util::Reader), IPC::Id<(unsigned short)0, (unsigned short)24>, int, int, int&, int&>(IPC::Channel&, void (&)(unsigned int, Util::Reader), IPC::Message<IPC::Id<(unsigned short)0, (unsigned short)24>, int, int>, int&, int&)
FUNC f6480 4c0 0 std::__1::basic_string<char, IPC::Message<IPC::Id<(unsigned short)0, (unsigned short)24>, int, int>::{unnamed type#1}::char_traits<char>, IPC::Message<IPC::Id<(unsigned short)0, (unsigned short)24>, int, int>::{unnamed type#1}::allocator<char> > tinyformat::format<IPC::Message<IPC::Id<(unsigned short)0, (unsigned short)24>, int, int>::{unnamed type#1}>(char const*, IPC::Message<IPC::Id<(unsigned short)0, (unsigned short)24>, int, int>::{unnamed type#1} const&)
FUNC f6940 520 0 void tinyformat::detail::FormatArg::formatImpl<IPC::Message<IPC::Id<(unsigned short)0, (unsigned short)24>, int, int>::{unnamed type#1}>(std::__1::basic_ostream<char, IPC::Message<IPC::Id<(unsigned short)0, (unsigned short)24>, int, int>::{unnamed type#1}::char_traits<char> >&, char const*, char const, int, void const*)
FUNC f6e60 20 0 int tinyformat::detail::FormatArg::toIntImpl<IPC::Message<IPC::Id<(unsigned short)0, (unsigned short)24>, int, int>::{unnamed type#1}>(void const*)
FUNC f6e80 240 0 void IPC::detail::SendMsg<void (&)(unsigned int, Util::Reader), IPC::Id<(unsigned short)0, (unsigned short)23>>(IPC::Channel&, void (&)(unsigned int, Util::Reader), IPC::Message<IPC::Id<(unsigned short)0, (unsigned short)23>>)
FUNC f70c0 4c0 0 std::__1::basic_string<char, IPC::Message<IPC::Id<(unsigned short)0, (unsigned short)23>>::{unnamed type#1}::char_traits<char>, IPC::Message<IPC::Id<(unsigned short)0, (unsigned short)23>>::{unnamed type#1}::allocator<char> > tinyformat::format<IPC::Message<IPC::Id<(unsigned short)0, (unsigned short)23>>::{unnamed type#1}>(char const*, IPC::Message<IPC::Id<(unsigned short)0, (unsigned short)23>>::{unnamed type#1} const&)
FUNC f7580 520 0 void tinyformat::detail::FormatArg::formatImpl<IPC::Message<IPC::Id<(unsigned short)0, (unsigned short)23>>::{unnamed type#1}>(std::__1::basic_ostream<char, IPC::Message<IPC::Id<(unsigned short)0, (unsigned short)23>>::{unnamed type#1}::char_traits<char> >&, char const*, char const, int, void const*)
FUNC f7aa0 20 0 int tinyformat::detail::FormatArg::toIntImpl<IPC::Message<IPC::Id<(unsigned short)0, (unsigned short)23>>::{unnamed type#1}>(void const*)
FUNC f7ac0 520 0 void tinyformat::detail::FormatArg::formatImpl<IPC::SyncMessage<IPC::Message<IPC::Id<(unsigned short)0, (unsigned short)22>, botClass_t>, IPC::Reply<int, int> >::{unnamed type#1}>(std::__1::basic_ostream<char, IPC::SyncMessage<IPC::Message<IPC::Id<(unsigned short)0, (unsigned short)22>, botClass_t>, IPC::Reply<int, int> >::{unnamed type#1}::char_traits<char> >&, char const*, char const, int, void const*)
FUNC f7fe0 20 0 int tinyformat::detail::FormatArg::toIntImpl<IPC::SyncMessage<IPC::Message<IPC::Id<(unsigned short)0, (unsigned short)22>, botClass_t>, IPC::Reply<int, int> >::{unnamed type#1}>(void const*)
FUNC f8000 4a0 0 void Sys::Drop<IPC::SyncMessage<IPC::Message<IPC::Id<(unsigned short)0, (unsigned short)21>, int, int>, IPC::Reply<int, std::__1::basic_string<char, std::__1::char_traits<char>, std::__1::allocator<char> > > >::{unnamed type#1}>(Str::BasicStringRef<char>, IPC::SyncMessage<IPC::Message<IPC::Id<(unsigned short)0, (unsigned short)21>, int, int>, IPC::Reply<int, std::__1::basic_string<char, std::__1::char_traits<char>, std::__1::allocator<char> > > >::{unnamed type#1}&&)
FUNC f84a0 520 0 void tinyformat::detail::FormatArg::formatImpl<IPC::SyncMessage<IPC::Message<IPC::Id<(unsigned short)0, (unsigned short)21>, int, int>, IPC::Reply<int, std::__1::basic_string<char, std::__1::char_traits<char>, std::__1::allocator<char> > > >::{unnamed type#1}>(std::__1::basic_ostream<char, std::__1::char_traits<char> >&, char const*, char const, int, void const*)
FUNC f89c0 20 0 int tinyformat::detail::FormatArg::toIntImpl<IPC::SyncMessage<IPC::Message<IPC::Id<(unsigned short)0, (unsigned short)21>, int, int>, IPC::Reply<int, std::__1::basic_string<char, std::__1::char_traits<char>, std::__1::allocator<char> > > >::{unnamed type#1}>(void const*)
FUNC f89e0 580 0 void IPC::detail::SendMsg<void (&)(unsigned int, Util::Reader), IPC::Message<IPC::Id<(unsigned short)0, (unsigned short)19>>, IPC::Reply<int>, int&>(IPC::Channel&, void (&)(unsigned int, Util::Reader), IPC::SyncMessage<IPC::Message<IPC::Id<(unsigned short)0, (unsigned short)19>>, IPC::Reply<int> >, int&)
FUNC f8f60 4c0 0 std::__1::basic_string<char, IPC::SyncMessage<IPC::Message<IPC::Id<(unsigned short)0, (unsigned short)19>>, IPC::Reply<int> >::{unnamed type#1}::char_traits<char>, IPC::SyncMessage<IPC::Message<IPC::Id<(unsigned short)0, (unsigned short)19>>, IPC::Reply<int> >::{unnamed type#1}::allocator<char> > tinyformat::format<IPC::SyncMessage<IPC::Message<IPC::Id<(unsigned short)0, (unsigned short)19>>, IPC::Reply<int> >::{unnamed type#1}>(char const*, IPC::SyncMessage<IPC::Message<IPC::Id<(unsigned short)0, (unsigned short)19>>, IPC::Reply<int> >::{unnamed type#1} const&)
FUNC f9420 520 0 void tinyformat::detail::FormatArg::formatImpl<IPC::SyncMessage<IPC::Message<IPC::Id<(unsigned short)0, (unsigned short)19>>, IPC::Reply<int> >::{unnamed type#1}>(std::__1::basic_ostream<char, IPC::SyncMessage<IPC::Message<IPC::Id<(unsigned short)0, (unsigned short)19>>, IPC::Reply<int> >::{unnamed type#1}::char_traits<char> >&, char const*, char const, int, void const*)
FUNC f9940 20 0 int tinyformat::detail::FormatArg::toIntImpl<IPC::SyncMessage<IPC::Message<IPC::Id<(unsigned short)0, (unsigned short)19>>, IPC::Reply<int> >::{unnamed type#1}>(void const*)
FUNC f9960 520 0 void tinyformat::detail::FormatArg::formatImpl<IPC::SyncMessage<IPC::Message<IPC::Id<(unsigned short)0, (unsigned short)18>, int, std::__1::basic_string<char, std::__1::char_traits<char>, std::__1::allocator<char> >, qtime_t>, IPC::Reply<std::__1::basic_string<char, std::__1::char_traits<char>, std::__1::allocator<char> > > >::{unnamed type#1}>(std::__1::basic_ostream<char, std::__1::char_traits<char> >&, char const*, char const, int, void const*)
FUNC f9e80 20 0 int tinyformat::detail::FormatArg::toIntImpl<IPC::SyncMessage<IPC::Message<IPC::Id<(unsigned short)0, (unsigned short)18>, int, std::__1::basic_string<char, std::__1::char_traits<char>, std::__1::allocator<char> >, qtime_t>, IPC::Reply<std::__1::basic_string<char, std::__1::char_traits<char>, std::__1::allocator<char> > > >::{unnamed type#1}>(void const*)
FUNC f9ea0 4a0 0 void Sys::Drop<IPC::SyncMessage<IPC::Message<IPC::Id<(unsigned short)0, (unsigned short)17>, int, int>, IPC::Reply<std::__1::basic_string<char, std::__1::char_traits<char>, std::__1::allocator<char> > > >::{unnamed type#1}>(Str::BasicStringRef<char>, IPC::SyncMessage<IPC::Message<IPC::Id<(unsigned short)0, (unsigned short)17>, int, int>, IPC::Reply<std::__1::basic_string<char, std::__1::char_traits<char>, std::__1::allocator<char> > > >::{unnamed type#1}&&)
FUNC fa340 520 0 void tinyformat::detail::FormatArg::formatImpl<IPC::SyncMessage<IPC::Message<IPC::Id<(unsigned short)0, (unsigned short)17>, int, int>, IPC::Reply<std::__1::basic_string<char, std::__1::char_traits<char>, std::__1::allocator<char> > > >::{unnamed type#1}>(std::__1::basic_ostream<char, std::__1::char_traits<char> >&, char const*, char const, int, void const*)
FUNC fa860 20 0 int tinyformat::detail::FormatArg::toIntImpl<IPC::SyncMessage<IPC::Message<IPC::Id<(unsigned short)0, (unsigned short)17>, int, int>, IPC::Reply<std::__1::basic_string<char, std::__1::char_traits<char>, std::__1::allocator<char> > > >::{unnamed type#1}>(void const*)
FUNC fa880 760 0 void IPC::detail::SendMsg<void (&)(unsigned int, Util::Reader), IPC::Message<IPC::Id<(unsigned short)0, (unsigned short)16>, int, std::__1::vector<char, std::__1::allocator<char> >, int>, IPC::Reply<std::__1::basic_string<char, std::__1::char_traits<char>, std::__1::allocator<char> > >, int&, std::__1::vector<char, std::__1::allocator<char> >&, int&, std::__1::basic_string<char, std::__1::char_traits<char>, std::__1::allocator<char> >&>(IPC::Channel&, void (&)(unsigned int, Util::Reader), IPC::SyncMessage<IPC::Message<IPC::Id<(unsigned short)0, (unsigned short)16>, int, std::__1::vector<char, std::__1::allocator<char> >, int>, IPC::Reply<std::__1::basic_string<char, std::__1::char_traits<char>, std::__1::allocator<char> > > >, int&, std::__1::vector<char, std::__1::allocator<char> >&, int&, std::__1::basic_string<char, std::__1::char_traits<char>, std::__1::allocator<char> >&)
FUNC fafe0 4c0 0 std::__1::basic_string<char, std::__1::char_traits<char>, std::__1::allocator<char> > tinyformat::format<IPC::SyncMessage<IPC::Message<IPC::Id<(unsigned short)0, (unsigned short)16>, int, std::__1::vector<char, std::__1::allocator<char> >, int>, IPC::Reply<std::__1::basic_string<char, std::__1::char_traits<char>, std::__1::allocator<char> > > >::{unnamed type#1}>(char const*, IPC::SyncMessage<IPC::Message<IPC::Id<(unsigned short)0, (unsigned short)16>, int, std::__1::vector<char, std::__1::allocator<char> >, int>, IPC::Reply<std::__1::basic_string<char, std::__1::char_traits<char>, std::__1::allocator<char> > > >::{unnamed type#1} const&)
FUNC fb4a0 520 0 void tinyformat::detail::FormatArg::formatImpl<IPC::SyncMessage<IPC::Message<IPC::Id<(unsigned short)0, (unsigned short)16>, int, std::__1::vector<char, std::__1::allocator<char> >, int>, IPC::Reply<std::__1::basic_string<char, std::__1::char_traits<char>, std::__1::allocator<char> > > >::{unnamed type#1}>(std::__1::basic_ostream<char, std::__1::char_traits<char> >&, char const*, char const, int, void const*)
FUNC fb9c0 20 0 int tinyformat::detail::FormatArg::toIntImpl<IPC::SyncMessage<IPC::Message<IPC::Id<(unsigned short)0, (unsigned short)16>, int, std::__1::vector<char, std::__1::allocator<char> >, int>, IPC::Reply<std::__1::basic_string<char, std::__1::char_traits<char>, std::__1::allocator<char> > > >::{unnamed type#1}>(void const*)
FUNC fb9e0 4a0 0 void Sys::Drop<IPC::SyncMessage<IPC::Message<IPC::Id<(unsigned short)0, (unsigned short)15>, std::__1::basic_string<char, std::__1::char_traits<char>, std::__1::allocator<char> > >, IPC::Reply<int, std::__1::basic_string<char, std::__1::char_traits<char>, std::__1::allocator<char> >, std::__1::basic_string<char, std::__1::char_traits<char>, std::__1::allocator<char> > > >::{unnamed type#1}>(Str::BasicStringRef<char>, IPC::SyncMessage<IPC::Message<IPC::Id<(unsigned short)0, (unsigned short)15>, std::__1::basic_string<char, std::__1::char_traits<char>, std::__1::allocator<char> > >, IPC::Reply<int, std::__1::basic_string<char, std::__1::char_traits<char>, std::__1::allocator<char> >, std::__1::basic_string<char, std::__1::char_traits<char>, std::__1::allocator<char> > > >::{unnamed type#1}&&)
FUNC fbe80 160 0 void Util::Reader::FillTuple<2u, std::__1::basic_string<char, std::__1::char_traits<char>, std::__1::allocator<char> >, std::__1::basic_string<char, std::__1::char_traits<char>, std::__1::allocator<char> >, std::__1::tuple<char const*&, int&, std::__1::basic_string<char, std::__1::char_traits<char>, std::__1::allocator<char> >&, std::__1::basic_string<char, std::__1::char_traits<char>, std::__1::allocator<char> >&> >(Util::TypeList<std::__1::basic_string<char, std::__1::char_traits<char>, std::__1::allocator<char> >, std::__1::basic_string<char, std::__1::char_traits<char>, std::__1::allocator<char> > >, std::__1::tuple<char const*&, int&, std::__1::basic_string<char, std::__1::char_traits<char>, std::__1::allocator<char> >&, std::__1::basic_string<char, std::__1::char_traits<char>, std::__1::allocator<char> >&>&)
FUNC fbfe0 520 0 void tinyformat::detail::FormatArg::formatImpl<IPC::SyncMessage<IPC::Message<IPC::Id<(unsigned short)0, (unsigned short)15>, std::__1::basic_string<char, std::__1::char_traits<char>, std::__1::allocator<char> > >, IPC::Reply<int, std::__1::basic_string<char, std::__1::char_traits<char>, std::__1::allocator<char> >, std::__1::basic_string<char, std::__1::char_traits<char>, std::__1::allocator<char> > > >::{unnamed type#1}>(std::__1::basic_ostream<char, std::__1::char_traits<char> >&, char const*, char const, int, void const*)
FUNC fc500 20 0 int tinyformat::detail::FormatArg::toIntImpl<IPC::SyncMessage<IPC::Message<IPC::Id<(unsigned short)0, (unsigned short)15>, std::__1::basic_string<char, std::__1::char_traits<char>, std::__1::allocator<char> > >, IPC::Reply<int, std::__1::basic_string<char, std::__1::char_traits<char>, std::__1::allocator<char> >, std::__1::basic_string<char, std::__1::char_traits<char>, std::__1::allocator<char> > > >::{unnamed type#1}>(void const*)
FUNC fc520 520 0 void tinyformat::detail::FormatArg::formatImpl<IPC::SyncMessage<IPC::Message<IPC::Id<(unsigned short)0, (unsigned short)12>>, IPC::Reply<bool, std::__1::basic_string<char, std::__1::char_traits<char>, std::__1::allocator<char> > > >::{unnamed type#1}>(std::__1::basic_ostream<char, std::__1::char_traits<char> >&, char const*, char const, int, void const*)
FUNC fca40 20 0 int tinyformat::detail::FormatArg::toIntImpl<IPC::SyncMessage<IPC::Message<IPC::Id<(unsigned short)0, (unsigned short)12>>, IPC::Reply<bool, std::__1::basic_string<char, std::__1::char_traits<char>, std::__1::allocator<char> > > >::{unnamed type#1}>(void const*)
FUNC fca60 5e0 0 void IPC::detail::SendMsg<void (&)(unsigned int, Util::Reader), IPC::Message<IPC::Id<(unsigned short)0, (unsigned short)11>, int>, IPC::Reply<usercmd_t>, int&, usercmd_t&>(IPC::Channel&, void (&)(unsigned int, Util::Reader), IPC::SyncMessage<IPC::Message<IPC::Id<(unsigned short)0, (unsigned short)11>, int>, IPC::Reply<usercmd_t> >, int&, usercmd_t&)
FUNC fd040 4c0 0 std::__1::basic_string<char, IPC::SyncMessage<IPC::Message<IPC::Id<(unsigned short)0, (unsigned short)11>, int>, IPC::Reply<usercmd_t> >::{unnamed type#1}::char_traits<char>, IPC::SyncMessage<IPC::Message<IPC::Id<(unsigned short)0, (unsigned short)11>, int>, IPC::Reply<usercmd_t> >::{unnamed type#1}::allocator<char> > tinyformat::format<IPC::SyncMessage<IPC::Message<IPC::Id<(unsigned short)0, (unsigned short)11>, int>, IPC::Reply<usercmd_t> >::{unnamed type#1}>(char const*, IPC::SyncMessage<IPC::Message<IPC::Id<(unsigned short)0, (unsigned short)11>, int>, IPC::Reply<usercmd_t> >::{unnamed type#1} const&)
FUNC fd500 520 0 void tinyformat::detail::FormatArg::formatImpl<IPC::SyncMessage<IPC::Message<IPC::Id<(unsigned short)0, (unsigned short)11>, int>, IPC::Reply<usercmd_t> >::{unnamed type#1}>(std::__1::basic_ostream<char, IPC::SyncMessage<IPC::Message<IPC::Id<(unsigned short)0, (unsigned short)11>, int>, IPC::Reply<usercmd_t> >::{unnamed type#1}::char_traits<char> >&, char const*, char const, int, void const*)
FUNC fda20 20 0 int tinyformat::detail::FormatArg::toIntImpl<IPC::SyncMessage<IPC::Message<IPC::Id<(unsigned short)0, (unsigned short)11>, int>, IPC::Reply<usercmd_t> >::{unnamed type#1}>(void const*)
FUNC fda40 520 0 void tinyformat::detail::FormatArg::formatImpl<IPC::SyncMessage<IPC::Message<IPC::Id<(unsigned short)0, (unsigned short)10>, int>, IPC::Reply<std::__1::basic_string<char, std::__1::char_traits<char>, std::__1::allocator<char> > > >::{unnamed type#1}>(std::__1::basic_ostream<char, std::__1::char_traits<char> >&, char const*, char const, int, void const*)
FUNC fdf60 20 0 int tinyformat::detail::FormatArg::toIntImpl<IPC::SyncMessage<IPC::Message<IPC::Id<(unsigned short)0, (unsigned short)10>, int>, IPC::Reply<std::__1::basic_string<char, std::__1::char_traits<char>, std::__1::allocator<char> > > >::{unnamed type#1}>(void const*)
FUNC fdf80 4a0 0 void Sys::Drop<IPC::SyncMessage<IPC::Message<IPC::Id<(unsigned short)0, (unsigned short)9>, int, int>, IPC::Reply<std::__1::basic_string<char, std::__1::char_traits<char>, std::__1::allocator<char> > > >::{unnamed type#1}>(Str::BasicStringRef<char>, IPC::SyncMessage<IPC::Message<IPC::Id<(unsigned short)0, (unsigned short)9>, int, int>, IPC::Reply<std::__1::basic_string<char, std::__1::char_traits<char>, std::__1::allocator<char> > > >::{unnamed type#1}&&)
FUNC fe420 520 0 void tinyformat::detail::FormatArg::formatImpl<IPC::SyncMessage<IPC::Message<IPC::Id<(unsigned short)0, (unsigned short)9>, int, int>, IPC::Reply<std::__1::basic_string<char, std::__1::char_traits<char>, std::__1::allocator<char> > > >::{unnamed type#1}>(std::__1::basic_ostream<char, std::__1::char_traits<char> >&, char const*, char const, int, void const*)
FUNC fe940 20 0 int tinyformat::detail::FormatArg::toIntImpl<IPC::SyncMessage<IPC::Message<IPC::Id<(unsigned short)0, (unsigned short)9>, int, int>, IPC::Reply<std::__1::basic_string<char, std::__1::char_traits<char>, std::__1::allocator<char> > > >::{unnamed type#1}>(void const*)
FUNC fe960 320 0 void IPC::detail::SendMsg<void (&)(unsigned int, Util::Reader), IPC::Id<(unsigned short)0, (unsigned short)8>, int, std::__1::basic_string<char, std::__1::char_traits<char>, std::__1::allocator<char> >, int&, char const*&>(IPC::Channel&, void (&)(unsigned int, Util::Reader), IPC::Message<IPC::Id<(unsigned short)0, (unsigned short)8>, int, std::__1::basic_string<char, std::__1::char_traits<char>, std::__1::allocator<char> > >, int&, char const*&)
FUNC fec80 4c0 0 std::__1::basic_string<char, std::__1::char_traits<char>, std::__1::allocator<char> > tinyformat::format<IPC::Message<IPC::Id<(unsigned short)0, (unsigned short)8>, int, std::__1::basic_string<char, std::__1::char_traits<char>, std::__1::allocator<char> > >::{unnamed type#1}>(char const*, IPC::Message<IPC::Id<(unsigned short)0, (unsigned short)8>, int, std::__1::basic_string<char, std::__1::char_traits<char>, std::__1::allocator<char> > >::{unnamed type#1} const&)
FUNC ff140 520 0 void tinyformat::detail::FormatArg::formatImpl<IPC::Message<IPC::Id<(unsigned short)0, (unsigned short)8>, int, std::__1::basic_string<char, std::__1::char_traits<char>, std::__1::allocator<char> > >::{unnamed type#1}>(std::__1::basic_ostream<char, std::__1::char_traits<char> >&, char const*, char const, int, void const*)
FUNC ff660 20 0 int tinyformat::detail::FormatArg::toIntImpl<IPC::Message<IPC::Id<(unsigned short)0, (unsigned short)8>, int, std::__1::basic_string<char, std::__1::char_traits<char>, std::__1::allocator<char> > >::{unnamed type#1}>(void const*)
FUNC ff680 240 0 void IPC::detail::SendMsg<void (&)(unsigned int, Util::Reader), IPC::Id<(unsigned short)0, (unsigned short)7>>(IPC::Channel&, void (&)(unsigned int, Util::Reader), IPC::Message<IPC::Id<(unsigned short)0, (unsigned short)7>>)
FUNC ff8c0 4c0 0 std::__1::basic_string<char, IPC::Message<IPC::Id<(unsigned short)0, (unsigned short)7>>::{unnamed type#1}::char_traits<char>, IPC::Message<IPC::Id<(unsigned short)0, (unsigned short)7>>::{unnamed type#1}::allocator<char> > tinyformat::format<IPC::Message<IPC::Id<(unsigned short)0, (unsigned short)7>>::{unnamed type#1}>(char const*, IPC::Message<IPC::Id<(unsigned short)0, (unsigned short)7>>::{unnamed type#1} const&)
FUNC ffd80 520 0 void tinyformat::detail::FormatArg::formatImpl<IPC::Message<IPC::Id<(unsigned short)0, (unsigned short)7>>::{unnamed type#1}>(std::__1::basic_ostream<char, IPC::Message<IPC::Id<(unsigned short)0, (unsigned short)7>>::{unnamed type#1}::char_traits<char> >&, char const*, char const, int, void const*)
FUNC 1002a0 20 0 int tinyformat::detail::FormatArg::toIntImpl<IPC::Message<IPC::Id<(unsigned short)0, (unsigned short)7>>::{unnamed type#1}>(void const*)
FUNC 1002c0 520 0 void tinyformat::detail::FormatArg::formatImpl<IPC::SyncMessage<IPC::Message<IPC::Id<(unsigned short)0, (unsigned short)6>, int, int>, IPC::Reply<std::__1::basic_string<char, std::__1::char_traits<char>, std::__1::allocator<char> > > >::{unnamed type#1}>(std::__1::basic_ostream<char, std::__1::char_traits<char> >&, char const*, char const, int, void const*)
FUNC 1007e0 20 0 int tinyformat::detail::FormatArg::toIntImpl<IPC::SyncMessage<IPC::Message<IPC::Id<(unsigned short)0, (unsigned short)6>, int, int>, IPC::Reply<std::__1::basic_string<char, std::__1::char_traits<char>, std::__1::allocator<char> > > >::{unnamed type#1}>(void const*)
FUNC 100800 8e0 0 void IPC::detail::SendMsg<void (&)(unsigned int, Util::Reader), IPC::Id<(unsigned short)0, (unsigned short)5>, int, std::__1::basic_string<char, std::__1::char_traits<char>, std::__1::allocator<char> >, int&, char const*&>(IPC::Channel&, void (&)(unsigned int, Util::Reader), IPC::Message<IPC::Id<(unsigned short)0, (unsigned short)5>, int, std::__1::basic_string<char, std::__1::char_traits<char>, std::__1::allocator<char> > >, int&, char const*&)
FUNC 1010e0 520 0 void tinyformat::detail::FormatArg::formatImpl<IPC::Message<IPC::Id<(unsigned short)0, (unsigned short)5>, int, std::__1::basic_string<char, std::__1::char_traits<char>, std::__1::allocator<char> > >::{unnamed type#1}>(std::__1::basic_ostream<char, std::__1::char_traits<char> >&, char const*, char const, int, void const*)
FUNC 101600 20 0 int tinyformat::detail::FormatArg::toIntImpl<IPC::Message<IPC::Id<(unsigned short)0, (unsigned short)5>, int, std::__1::basic_string<char, std::__1::char_traits<char>, std::__1::allocator<char> > >::{unnamed type#1}>(void const*)
FUNC 101620 520 0 void tinyformat::detail::FormatArg::formatImpl<IPC::SyncMessage<IPC::Message<IPC::Id<(unsigned short)0, (unsigned short)4>, int, std::__1::basic_string<char, std::__1::char_traits<char>, std::__1::allocator<char> > >, IPC::Reply<> >::{unnamed type#1}>(std::__1::basic_ostream<char, std::__1::char_traits<char> >&, char const*, char const, int, void const*)
FUNC 101b40 20 0 int tinyformat::detail::FormatArg::toIntImpl<IPC::SyncMessage<IPC::Message<IPC::Id<(unsigned short)0, (unsigned short)4>, int, std::__1::basic_string<char, std::__1::char_traits<char>, std::__1::allocator<char> > >, IPC::Reply<> >::{unnamed type#1}>(void const*)
FUNC 101b60 640 0 void IPC::detail::SendMsg<void (&)(unsigned int, Util::Reader), IPC::Message<IPC::Id<(unsigned short)0, (unsigned short)3>, int, std::__1::basic_string<char, std::__1::char_traits<char>, std::__1::allocator<char> > >, IPC::Reply<>, int&, char const*&>(IPC::Channel&, void (&)(unsigned int, Util::Reader), IPC::SyncMessage<IPC::Message<IPC::Id<(unsigned short)0, (unsigned short)3>, int, std::__1::basic_string<char, std::__1::char_traits<char>, std::__1::allocator<char> > >, IPC::Reply<> >, int&, char const*&)
FUNC 1021a0 4c0 0 std::__1::basic_string<char, std::__1::char_traits<char>, std::__1::allocator<char> > tinyformat::format<IPC::SyncMessage<IPC::Message<IPC::Id<(unsigned short)0, (unsigned short)3>, int, std::__1::basic_string<char, std::__1::char_traits<char>, std::__1::allocator<char> > >, IPC::Reply<> >::{unnamed type#1}>(char const*, IPC::SyncMessage<IPC::Message<IPC::Id<(unsigned short)0, (unsigned short)3>, int, std::__1::basic_string<char, std::__1::char_traits<char>, std::__1::allocator<char> > >, IPC::Reply<> >::{unnamed type#1} const&)
FUNC 102660 520 0 void tinyformat::detail::FormatArg::formatImpl<IPC::SyncMessage<IPC::Message<IPC::Id<(unsigned short)0, (unsigned short)3>, int, std::__1::basic_string<char, std::__1::char_traits<char>, std::__1::allocator<char> > >, IPC::Reply<> >::{unnamed type#1}>(std::__1::basic_ostream<char, std::__1::char_traits<char> >&, char const*, char const, int, void const*)
FUNC 102b80 20 0 int tinyformat::detail::FormatArg::toIntImpl<IPC::SyncMessage<IPC::Message<IPC::Id<(unsigned short)0, (unsigned short)3>, int, std::__1::basic_string<char, std::__1::char_traits<char>, std::__1::allocator<char> > >, IPC::Reply<> >::{unnamed type#1}>(void const*)
FUNC 102ba0 520 0 void tinyformat::detail::FormatArg::formatImpl<IPC::Message<IPC::Id<(unsigned short)0, (unsigned short)1>, int, int, int>::{unnamed type#1}>(std::__1::basic_ostream<char, IPC::Message<IPC::Id<(unsigned short)0, (unsigned short)1>, int, int, int>::{unnamed type#1}::char_traits<char> >&, char const*, char const, int, void const*)
FUNC 1030c0 20 0 int tinyformat::detail::FormatArg::toIntImpl<IPC::Message<IPC::Id<(unsigned short)0, (unsigned short)1>, int, int, int>::{unnamed type#1}>(void const*)
FUNC 1030e0 520 0 void tinyformat::detail::FormatArg::formatImpl<IPC::Message<IPC::Id<(unsigned short)0, (unsigned short)0>, IPC::SharedMemory, int, int, int>::{unnamed type#1}>(std::__1::basic_ostream<char, IPC::Message<IPC::Id<(unsigned short)0, (unsigned short)0>, IPC::SharedMemory, int, int, int>::{unnamed type#1}::char_traits<char> >&, char const*, char const, int, void const*)
FUNC 103600 20 0 int tinyformat::detail::FormatArg::toIntImpl<IPC::Message<IPC::Id<(unsigned short)0, (unsigned short)0>, IPC::SharedMemory, int, int, int>::{unnamed type#1}>(void const*)
FUNC 103620 120 0 std::__1::basic_string<char, std::__1::char_traits<char>, std::__1::allocator<char> > std::__1::operator+<char, std::__1::char_traits<char>, std::__1::allocator<char> >(char const*, std::__1::basic_string<char, std::__1::char_traits<char>, std::__1::allocator<char> > const&)
FUNC 103740 120 0 std::__1::basic_string<char, std::__1::char_traits<char>, std::__1::allocator<char> > std::__1::operator+<char, std::__1::char_traits<char>, std::__1::allocator<char> >(std::__1::basic_string<char, std::__1::char_traits<char>, std::__1::allocator<char> > const&, char const*)
FUNC 103860 e0 0 <name omitted>
FUNC 103940 540 0 Cmd::AddCommand(std::__1::basic_string<char, std::__1::char_traits<char>, std::__1::allocator<char> > const&, Cmd::CmdBase const&, std::__1::basic_string<char, std::__1::char_traits<char>, std::__1::allocator<char> >)
FUNC 103e80 a80 0 Cmd::ExecuteSyscall(Util::Reader&, IPC::Channel&)
FUNC 104900 11a0 0 Cmd::CompleteSyscall(Util::Reader&, IPC::Channel&)
FUNC 105aa0 a0 0 void Sys::Drop<int&>(Str::BasicStringRef<char>, int&)
FUNC 105b40 60 0 std::__1::__vector_base<Cmd::Args const*, std::__1::allocator<Cmd::Args const*> >::~__vector_base()
FUNC 105ba0 a0 0 std::__1::__vector_base<std::__1::pair<std::__1::basic_string<char, std::__1::char_traits<char>, std::__1::allocator<char> >, std::__1::basic_string<char, std::__1::char_traits<char>, std::__1::allocator<char> > >, std::__1::allocator<std::__1::pair<std::__1::basic_string<char, std::__1::char_traits<char>, std::__1::allocator<char> >, std::__1::basic_string<char, std::__1::char_traits<char>, std::__1::allocator<char> > > > >::~__vector_base()
FUNC 105c40 20 0 Cmd::CmdBase::~CmdBase()
FUNC 105c60 200 0 trap_AddCommand(char const*)
FUNC 105e60 b40 0 trap_RemoveCommand(char const*)
FUNC 1069a0 60 0 trap_Argv(int, char*, int)
FUNC 106a00 a0 0 Cmd::Args::~Args()
FUNC 106aa0 100 0 <name omitted>
FUNC 106ba0 1020 0 Cvar::CallOnValueChangedSyscall(Util::Reader&, IPC::Channel&)
FUNC 107bc0 60 0 std::__1::__vector_base<VMCvarProxy*, std::__1::allocator<VMCvarProxy*> >::~__vector_base()
FUNC 107c20 4a0 0 trap_Cvar_Register(vmCvar_t*, char const*, char const*, int)
FUNC 1080c0 dc0 0 trap_Cvar_Set(char const*, char const*)
FUNC 108e80 1a0 0 trap_Cvar_VariableStringBuffer(char const*, char*, int)
FUNC 109020 8a0 0 Log::Dispatch(Log::Event, int)
FUNC 1098c0 d60 0 trap_FS_Read(void*, int, int)
FUNC 10a620 d20 0 trap_FS_Write(void const*, int, int)
FUNC 10b340 f60 0 trap_FS_GetFileList(char const*, char const*, char*, int)
FUNC 10c2a0 740 0 trap_Parse_SourceFileAndLine(int, char*, int*)
FUNC 10c9e0 4a0 0 void Sys::Drop<IPC::SyncMessage<IPC::Message<IPC::Id<(unsigned short)1, (unsigned short)19>, int>, IPC::Reply<int, std::__1::basic_string<char, std::__1::char_traits<char>, std::__1::allocator<char> >, int> >::{unnamed type#1}>(Str::BasicStringRef<char>, IPC::SyncMessage<IPC::Message<IPC::Id<(unsigned short)1, (unsigned short)19>, int>, IPC::Reply<int, std::__1::basic_string<char, std::__1::char_traits<char>, std::__1::allocator<char> >, int> >::{unnamed type#1}&&)
FUNC 10ce80 100 0 void Util::Reader::FillTuple<2u, std::__1::basic_string<char, std::__1::char_traits<char>, std::__1::allocator<char> >, int, std::__1::tuple<int&, int&, std::__1::basic_string<char, std::__1::char_traits<char>, std::__1::allocator<char> >&, int&> >(Util::TypeList<std::__1::basic_string<char, std::__1::char_traits<char>, std::__1::allocator<char> >, int>, std::__1::tuple<int&, int&, std::__1::basic_string<char, std::__1::char_traits<char>, std::__1::allocator<char> >&, int&>&)
FUNC 10cf80 520 0 void tinyformat::detail::FormatArg::formatImpl<IPC::SyncMessage<IPC::Message<IPC::Id<(unsigned short)1, (unsigned short)19>, int>, IPC::Reply<int, std::__1::basic_string<char, std::__1::char_traits<char>, std::__1::allocator<char> >, int> >::{unnamed type#1}>(std::__1::basic_ostream<char, std::__1::char_traits<char> >&, char const*, char const, int, void const*)
FUNC 10d4a0 20 0 int tinyformat::detail::FormatArg::toIntImpl<IPC::SyncMessage<IPC::Message<IPC::Id<(unsigned short)1, (unsigned short)19>, int>, IPC::Reply<int, std::__1::basic_string<char, std::__1::char_traits<char>, std::__1::allocator<char> >, int> >::{unnamed type#1}>(void const*)
FUNC 10d4c0 660 0 void IPC::detail::SendMsg<void (&)(unsigned int, Util::Reader), IPC::Message<IPC::Id<(unsigned short)1, (unsigned short)18>, int>, IPC::Reply<bool, pc_token_t>, int&, bool&, pc_token_t&>(IPC::Channel&, void (&)(unsigned int, Util::Reader), IPC::SyncMessage<IPC::Message<IPC::Id<(unsigned short)1, (unsigned short)18>, int>, IPC::Reply<bool, pc_token_t> >, int&, bool&, pc_token_t&)
FUNC 10db20 4c0 0 std::__1::basic_string<char, IPC::SyncMessage<IPC::Message<IPC::Id<(unsigned short)1, (unsigned short)18>, int>, IPC::Reply<bool, pc_token_t> >::{unnamed type#1}::char_traits<char>, IPC::SyncMessage<IPC::Message<IPC::Id<(unsigned short)1, (unsigned short)18>, int>, IPC::Reply<bool, pc_token_t> >::{unnamed type#1}::allocator<char> > tinyformat::format<IPC::SyncMessage<IPC::Message<IPC::Id<(unsigned short)1, (unsigned short)18>, int>, IPC::Reply<bool, pc_token_t> >::{unnamed type#1}>(char const*, IPC::SyncMessage<IPC::Message<IPC::Id<(unsigned short)1, (unsigned short)18>, int>, IPC::Reply<bool, pc_token_t> >::{unnamed type#1} const&)
FUNC 10dfe0 520 0 void tinyformat::detail::FormatArg::formatImpl<IPC::SyncMessage<IPC::Message<IPC::Id<(unsigned short)1, (unsigned short)18>, int>, IPC::Reply<bool, pc_token_t> >::{unnamed type#1}>(std::__1::basic_ostream<char, IPC::SyncMessage<IPC::Message<IPC::Id<(unsigned short)1, (unsigned short)18>, int>, IPC::Reply<bool, pc_token_t> >::{unnamed type#1}::char_traits<char> >&, char const*, char const, int, void const*)
FUNC 10e500 20 0 int tinyformat::detail::FormatArg::toIntImpl<IPC::SyncMessage<IPC::Message<IPC::Id<(unsigned short)1, (unsigned short)18>, int>, IPC::Reply<bool, pc_token_t> >::{unnamed type#1}>(void const*)
FUNC 10e520 5c0 0 void IPC::detail::SendMsg<void (&)(unsigned int, Util::Reader), IPC::Message<IPC::Id<(unsigned short)1, (unsigned short)17>, int>, IPC::Reply<int>, int&, int&>(IPC::Channel&, void (&)(unsigned int, Util::Reader), IPC::SyncMessage<IPC::Message<IPC::Id<(unsigned short)1, (unsigned short)17>, int>, IPC::Reply<int> >, int&, int&)
FUNC 10eae0 4c0 0 std::__1::basic_string<char, IPC::SyncMessage<IPC::Message<IPC::Id<(unsigned short)1, (unsigned short)17>, int>, IPC::Reply<int> >::{unnamed type#1}::char_traits<char>, IPC::SyncMessage<IPC::Message<IPC::Id<(unsigned short)1, (unsigned short)17>, int>, IPC::Reply<int> >::{unnamed type#1}::allocator<char> > tinyformat::format<IPC::SyncMessage<IPC::Message<IPC::Id<(unsigned short)1, (unsigned short)17>, int>, IPC::Reply<int> >::{unnamed type#1}>(char const*, IPC::SyncMessage<IPC::Message<IPC::Id<(unsigned short)1, (unsigned short)17>, int>, IPC::Reply<int> >::{unnamed type#1} const&)
FUNC 10efa0 520 0 void tinyformat::detail::FormatArg::formatImpl<IPC::SyncMessage<IPC::Message<IPC::Id<(unsigned short)1, (unsigned short)17>, int>, IPC::Reply<int> >::{unnamed type#1}>(std::__1::basic_ostream<char, IPC::SyncMessage<IPC::Message<IPC::Id<(unsigned short)1, (unsigned short)17>, int>, IPC::Reply<int> >::{unnamed type#1}::char_traits<char> >&, char const*, char const, int, void const*)
FUNC 10f4c0 20 0 int tinyformat::detail::FormatArg::toIntImpl<IPC::SyncMessage<IPC::Message<IPC::Id<(unsigned short)1, (unsigned short)17>, int>, IPC::Reply<int> >::{unnamed type#1}>(void const*)
FUNC 10f4e0 640 0 void IPC::detail::SendMsg<void (&)(unsigned int, Util::Reader), IPC::Message<IPC::Id<(unsigned short)1, (unsigned short)16>, std::__1::basic_string<char, std::__1::char_traits<char>, std::__1::allocator<char> > >, IPC::Reply<int>, char const*&, int&>(IPC::Channel&, void (&)(unsigned int, Util::Reader), IPC::SyncMessage<IPC::Message<IPC::Id<(unsigned short)1, (unsigned short)16>, std::__1::basic_string<char, std::__1::char_traits<char>, std::__1::allocator<char> > >, IPC::Reply<int> >, char const*&, int&)
FUNC 10fb20 4c0 0 std::__1::basic_string<char, std::__1::char_traits<char>, std::__1::allocator<char> > tinyformat::format<IPC::SyncMessage<IPC::Message<IPC::Id<(unsigned short)1, (unsigned short)16>, std::__1::basic_string<char, std::__1::char_traits<char>, std::__1::allocator<char> > >, IPC::Reply<int> >::{unnamed type#1}>(char const*, IPC::SyncMessage<IPC::Message<IPC::Id<(unsigned short)1, (unsigned short)16>, std::__1::basic_string<char, std::__1::char_traits<char>, std::__1::allocator<char> > >, IPC::Reply<int> >::{unnamed type#1} const&)
FUNC 10ffe0 520 0 void tinyformat::detail::FormatArg::formatImpl<IPC::SyncMessage<IPC::Message<IPC::Id<(unsigned short)1, (unsigned short)16>, std::__1::basic_string<char, std::__1::char_traits<char>, std::__1::allocator<char> > >, IPC::Reply<int> >::{unnamed type#1}>(std::__1::basic_ostream<char, std::__1::char_traits<char> >&, char const*, char const, int, void const*)
FUNC 110500 20 0 int tinyformat::detail::FormatArg::toIntImpl<IPC::SyncMessage<IPC::Message<IPC::Id<(unsigned short)1, (unsigned short)16>, std::__1::basic_string<char, std::__1::char_traits<char>, std::__1::allocator<char> > >, IPC::Reply<int> >::{unnamed type#1}>(void const*)
FUNC 110520 640 0 void IPC::detail::SendMsg<void (&)(unsigned int, Util::Reader), IPC::Message<IPC::Id<(unsigned short)1, (unsigned short)15>, std::__1::basic_string<char, std::__1::char_traits<char>, std::__1::allocator<char> > >, IPC::Reply<int>, char const*&, int&>(IPC::Channel&, void (&)(unsigned int, Util::Reader), IPC::SyncMessage<IPC::Message<IPC::Id<(unsigned short)1, (unsigned short)15>, std::__1::basic_string<char, std::__1::char_traits<char>, std::__1::allocator<char> > >, IPC::Reply<int> >, char const*&, int&)
FUNC 110b60 4c0 0 std::__1::basic_string<char, std::__1::char_traits<char>, std::__1::allocator<char> > tinyformat::format<IPC::SyncMessage<IPC::Message<IPC::Id<(unsigned short)1, (unsigned short)15>, std::__1::basic_string<char, std::__1::char_traits<char>, std::__1::allocator<char> > >, IPC::Reply<int> >::{unnamed type#1}>(char const*, IPC::SyncMessage<IPC::Message<IPC::Id<(unsigned short)1, (unsigned short)15>, std::__1::basic_string<char, std::__1::char_traits<char>, std::__1::allocator<char> > >, IPC::Reply<int> >::{unnamed type#1} const&)
FUNC 111020 520 0 void tinyformat::detail::FormatArg::formatImpl<IPC::SyncMessage<IPC::Message<IPC::Id<(unsigned short)1, (unsigned short)15>, std::__1::basic_string<char, std::__1::char_traits<char>, std::__1::allocator<char> > >, IPC::Reply<int> >::{unnamed type#1}>(std::__1::basic_ostream<char, std::__1::char_traits<char> >&, char const*, char const, int, void const*)
FUNC 111540 20 0 int tinyformat::detail::FormatArg::toIntImpl<IPC::SyncMessage<IPC::Message<IPC::Id<(unsigned short)1, (unsigned short)15>, std::__1::basic_string<char, std::__1::char_traits<char>, std::__1::allocator<char> > >, IPC::Reply<int> >::{unnamed type#1}>(void const*)
FUNC 111560 c20 0 void IPC::detail::SendMsg<void (&)(unsigned int, Util::Reader), IPC::Message<IPC::Id<(unsigned short)1, (unsigned short)12>, std::__1::basic_string<char, std::__1::char_traits<char>, std::__1::allocator<char> > >, IPC::Reply<bool>, char const*&, bool&>(IPC::Channel&, void (&)(unsigned int, Util::Reader), IPC::SyncMessage<IPC::Message<IPC::Id<(unsigned short)1, (unsigned short)12>, std::__1::basic_string<char, std::__1::char_traits<char>, std::__1::allocator<char> > >, IPC::Reply<bool> >, char const*&, bool&)
FUNC 112180 520 0 void tinyformat::detail::FormatArg::formatImpl<IPC::SyncMessage<IPC::Message<IPC::Id<(unsigned short)1, (unsigned short)12>, std::__1::basic_string<char, std::__1::char_traits<char>, std::__1::allocator<char> > >, IPC::Reply<bool> >::{unnamed type#1}>(std::__1::basic_ostream<char, std::__1::char_traits<char> >&, char const*, char const, int, void const*)
FUNC 1126a0 20 0 int tinyformat::detail::FormatArg::toIntImpl<IPC::SyncMessage<IPC::Message<IPC::Id<(unsigned short)1, (unsigned short)12>, std::__1::basic_string<char, std::__1::char_traits<char>, std::__1::allocator<char> > >, IPC::Reply<bool> >::{unnamed type#1}>(void const*)
FUNC 1126c0 520 0 void tinyformat::detail::FormatArg::formatImpl<IPC::SyncMessage<IPC::Message<IPC::Id<(unsigned short)1, (unsigned short)10>, std::__1::basic_string<char, std::__1::char_traits<char>, std::__1::allocator<char> >, std::__1::basic_string<char, std::__1::char_traits<char>, std::__1::allocator<char> >, int>, IPC::Reply<int, std::__1::basic_string<char, std::__1::char_traits<char>, std::__1::allocator<char> > > >::{unnamed type#1}>(std::__1::basic_ostream<char, std::__1::char_traits<char> >&, char const*, char const, int, void const*)
FUNC 112be0 20 0 int tinyformat::detail::FormatArg::toIntImpl<IPC::SyncMessage<IPC::Message<IPC::Id<(unsigned short)1, (unsigned short)10>, std::__1::basic_string<char, std::__1::char_traits<char>, std::__1::allocator<char> >, std::__1::basic_string<char, std::__1::char_traits<char>, std::__1::allocator<char> >, int>, IPC::Reply<int, std::__1::basic_string<char, std::__1::char_traits<char>, std::__1::allocator<char> > > >::{unnamed type#1}>(void const*)
FUNC 112c00 7c0 0 void IPC::detail::SendMsg<void (&)(unsigned int, Util::Reader), IPC::Id<(unsigned short)1, (unsigned short)9>, int, int&>(IPC::Channel&, void (&)(unsigned int, Util::Reader), IPC::Message<IPC::Id<(unsigned short)1, (unsigned short)9>, int>, int&)
FUNC 1133c0 520 0 void tinyformat::detail::FormatArg::formatImpl<IPC::Message<IPC::Id<(unsigned short)1, (unsigned short)9>, int>::{unnamed type#1}>(std::__1::basic_ostream<char, IPC::Message<IPC::Id<(unsigned short)1, (unsigned short)9>, int>::{unnamed type#1}::char_traits<char> >&, char const*, char const, int, void const*)
FUNC 1138e0 20 0 int tinyformat::detail::FormatArg::toIntImpl<IPC::Message<IPC::Id<(unsigned short)1, (unsigned short)9>, int>::{unnamed type#1}>(void const*)
FUNC 113900 520 0 void tinyformat::detail::FormatArg::formatImpl<IPC::SyncMessage<IPC::Message<IPC::Id<(unsigned short)1, (unsigned short)4>, int, std::__1::basic_string<char, std::__1::char_traits<char>, std::__1::allocator<char> > >, IPC::Reply<int> >::{unnamed type#1}>(std::__1::basic_ostream<char, std::__1::char_traits<char> >&, char const*, char const, int, void const*)
FUNC 113e20 20 0 int tinyformat::detail::FormatArg::toIntImpl<IPC::SyncMessage<IPC::Message<IPC::Id<(unsigned short)1, (unsigned short)4>, int, std::__1::basic_string<char, std::__1::char_traits<char>, std::__1::allocator<char> > >, IPC::Reply<int> >::{unnamed type#1}>(void const*)
FUNC 113e40 520 0 void tinyformat::detail::FormatArg::formatImpl<IPC::SyncMessage<IPC::Message<IPC::Id<(unsigned short)1, (unsigned short)3>, int, int>, IPC::Reply<std::__1::basic_string<char, std::__1::char_traits<char>, std::__1::allocator<char> >, int> >::{unnamed type#1}>(std::__1::basic_ostream<char, std::__1::char_traits<char> >&, char const*, char const, int, void const*)
FUNC 114360 20 0 int tinyformat::detail::FormatArg::toIntImpl<IPC::SyncMessage<IPC::Message<IPC::Id<(unsigned short)1, (unsigned short)3>, int, int>, IPC::Reply<std::__1::basic_string<char, std::__1::char_traits<char>, std::__1::allocator<char> >, int> >::{unnamed type#1}>(void const*)
FUNC 114380 d00 0 void IPC::detail::SendMsg<void (&)(unsigned int, Util::Reader), IPC::Message<IPC::Id<(unsigned short)1, (unsigned short)2>, std::__1::basic_string<char, std::__1::char_traits<char>, std::__1::allocator<char> >, bool, int>, IPC::Reply<int, int>, char const*&, bool, int, int&, int&>(IPC::Channel&, void (&)(unsigned int, Util::Reader), IPC::SyncMessage<IPC::Message<IPC::Id<(unsigned short)1, (unsigned short)2>, std::__1::basic_string<char, std::__1::char_traits<char>, std::__1::allocator<char> >, bool, int>, IPC::Reply<int, int> >, char const*&, bool&&, int&&, int&, int&)
FUNC 115080 520 0 void tinyformat::detail::FormatArg::formatImpl<IPC::SyncMessage<IPC::Message<IPC::Id<(unsigned short)1, (unsigned short)2>, std::__1::basic_string<char, std::__1::char_traits<char>, std::__1::allocator<char> >, bool, int>, IPC::Reply<int, int> >::{unnamed type#1}>(std::__1::basic_ostream<char, std::__1::char_traits<char> >&, char const*, char const, int, void const*)
FUNC 1155a0 20 0 int tinyformat::detail::FormatArg::toIntImpl<IPC::SyncMessage<IPC::Message<IPC::Id<(unsigned short)1, (unsigned short)2>, std::__1::basic_string<char, std::__1::char_traits<char>, std::__1::allocator<char> >, bool, int>, IPC::Reply<int, int> >::{unnamed type#1}>(void const*)
FUNC 1155c0 820 0 void IPC::detail::SendMsg<void (&)(unsigned int, Util::Reader), IPC::Id<(unsigned short)1, (unsigned short)1>, std::__1::basic_string<char, std::__1::char_traits<char>, std::__1::allocator<char> >, char const*&>(IPC::Channel&, void (&)(unsigned int, Util::Reader), IPC::Message<IPC::Id<(unsigned short)1, (unsigned short)1>, std::__1::basic_string<char, std::__1::char_traits<char>, std::__1::allocator<char> > >, char const*&)
FUNC 115de0 520 0 void tinyformat::detail::FormatArg::formatImpl<IPC::Message<IPC::Id<(unsigned short)1, (unsigned short)1>, std::__1::basic_string<char, std::__1::char_traits<char>, std::__1::allocator<char> > >::{unnamed type#1}>(std::__1::basic_ostream<char, std::__1::char_traits<char> >&, char const*, char const, int, void const*)
FUNC 116300 20 0 int tinyformat::detail::FormatArg::toIntImpl<IPC::Message<IPC::Id<(unsigned short)1, (unsigned short)1>, std::__1::basic_string<char, std::__1::char_traits<char>, std::__1::allocator<char> > >::{unnamed type#1}>(void const*)
FUNC 116320 520 0 void tinyformat::detail::FormatArg::formatImpl<IPC::SyncMessage<IPC::Message<IPC::Id<(unsigned short)2, (unsigned short)1>, std::__1::vector<unsigned char, std::__1::allocator<unsigned char> > >, IPC::Reply<> >::{unnamed type#1}>(std::__1::basic_ostream<char, std::__1::char_traits<char> >&, char const*, char const, int, void const*)
FUNC 116840 20 0 int tinyformat::detail::FormatArg::toIntImpl<IPC::SyncMessage<IPC::Message<IPC::Id<(unsigned short)2, (unsigned short)1>, std::__1::vector<unsigned char, std::__1::allocator<unsigned char> > >, IPC::Reply<> >::{unnamed type#1}>(void const*)
FUNC 116860 520 0 void tinyformat::detail::FormatArg::formatImpl<IPC::Message<IPC::Id<(unsigned short)5, (unsigned short)0>, std::__1::basic_string<char, std::__1::char_traits<char>, std::__1::allocator<char> >, int>::{unnamed type#1}>(std::__1::basic_ostream<char, std::__1::char_traits<char> >&, char const*, char const, int, void const*)
FUNC 116d80 20 0 int tinyformat::detail::FormatArg::toIntImpl<IPC::Message<IPC::Id<(unsigned short)5, (unsigned short)0>, std::__1::basic_string<char, std::__1::char_traits<char>, std::__1::allocator<char> >, int>::{unnamed type#1}>(void const*)
FUNC 116da0 180 0 std::__1::__hash_iterator<std::__1::__hash_node<std::__1::__hash_value_type<std::__1::basic_string<char, std::__1::char_traits<char>, std::__1::allocator<char> >, Cvar::CvarRecord>, void*>*> std::__1::__hash_table<std::__1::__hash_value_type<std::__1::basic_string<char, std::__1::char_traits<char>, std::__1::allocator<char> >, Cvar::CvarRecord>, std::__1::__unordered_map_hasher<std::__1::basic_string<char, std::__1::char_traits<char>, std::__1::allocator<char> >, std::__1::__hash_value_type<std::__1::basic_string<char, std::__1::char_traits<char>, std::__1::allocator<char> >, Cvar::CvarRecord>, std::__1::hash<std::__1::basic_string<char, std::__1::char_traits<char>, std::__1::allocator<char> > >, true>, std::__1::__unordered_map_equal<std::__1::basic_string<char, std::__1::char_traits<char>, std::__1::allocator<char> >, std::__1::__hash_value_type<std::__1::basic_string<char, std::__1::char_traits<char>, std::__1::allocator<char> >, Cvar::CvarRecord>, std::__1::equal_to<std::__1::basic_string<char, std::__1::char_traits<char>, std::__1::allocator<char> > >, true>, std::__1::allocator<std::__1::__hash_value_type<std::__1::basic_string<char, std::__1::char_traits<char>, std::__1::allocator<char> >, Cvar::CvarRecord> > >::find<std::__1::basic_string<char, std::__1::char_traits<char>, std::__1::allocator<char> > >(std::__1::basic_string<char, std::__1::char_traits<char>, std::__1::allocator<char> > const&)
FUNC 116f20 c0 0 <name omitted>
FUNC 116fe0 140 0 std::__1::__hash_table<std::__1::__hash_value_type<std::__1::basic_string<char, std::__1::char_traits<char>, std::__1::allocator<char> >, Cvar::CvarRecord>, std::__1::__unordered_map_hasher<std::__1::basic_string<char, std::__1::char_traits<char>, std::__1::allocator<char> >, std::__1::__hash_value_type<std::__1::basic_string<char, std::__1::char_traits<char>, std::__1::allocator<char> >, Cvar::CvarRecord>, std::__1::hash<std::__1::basic_string<char, std::__1::char_traits<char>, std::__1::allocator<char> > >, true>, std::__1::__unordered_map_equal<std::__1::basic_string<char, std::__1::char_traits<char>, std::__1::allocator<char> >, std::__1::__hash_value_type<std::__1::basic_string<char, std::__1::char_traits<char>, std::__1::allocator<char> >, Cvar::CvarRecord>, std::__1::equal_to<std::__1::basic_string<char, std::__1::char_traits<char>, std::__1::allocator<char> > >, true>, std::__1::allocator<std::__1::__hash_value_type<std::__1::basic_string<char, std::__1::char_traits<char>, std::__1::allocator<char> >, Cvar::CvarRecord> > >::rehash(unsigned int)
FUNC 117120 380 0 std::__1::pair<std::__1::__hash_iterator<std::__1::__hash_node<std::__1::__hash_value_type<std::__1::basic_string<char, std::__1::char_traits<char>, std::__1::allocator<char> >, Cvar::CvarRecord>, void*>*>, bool> std::__1::__hash_table<std::__1::__hash_value_type<std::__1::basic_string<char, std::__1::char_traits<char>, std::__1::allocator<char> >, Cvar::CvarRecord>, std::__1::__unordered_map_hasher<std::__1::basic_string<char, std::__1::char_traits<char>, std::__1::allocator<char> >, std::__1::__hash_value_type<std::__1::basic_string<char, std::__1::char_traits<char>, std::__1::allocator<char> >, Cvar::CvarRecord>, std::__1::hash<std::__1::basic_string<char, std::__1::char_traits<char>, std::__1::allocator<char> > >, true>, std::__1::__unordered_map_equal<std::__1::basic_string<char, std::__1::char_traits<char>, std::__1::allocator<char> >, std::__1::__hash_value_type<std::__1::basic_string<char, std::__1::char_traits<char>, std::__1::allocator<char> >, Cvar::CvarRecord>, std::__1::equal_to<std::__1::basic_string<char, std::__1::char_traits<char>, std::__1::allocator<char> > >, true>, std::__1::allocator<std::__1::__hash_value_type<std::__1::basic_string<char, std::__1::char_traits<char>, std::__1::allocator<char> >, Cvar::CvarRecord> > >::__insert_unique<std::__1::pair<std::__1::basic_string<char, std::__1::char_traits<char>, std::__1::allocator<char> > const, Cvar::CvarRecord> const&>(std::__1::pair<std::__1::basic_string<char, std::__1::char_traits<char>, std::__1::allocator<char> > const, Cvar::CvarRecord> const&)
FUNC 1174a0 2c0 0 std::__1::__hash_table<std::__1::__hash_value_type<std::__1::basic_string<char, std::__1::char_traits<char>, std::__1::allocator<char> >, Cvar::CvarRecord>, std::__1::__unordered_map_hasher<std::__1::basic_string<char, std::__1::char_traits<char>, std::__1::allocator<char> >, std::__1::__hash_value_type<std::__1::basic_string<char, std::__1::char_traits<char>, std::__1::allocator<char> >, Cvar::CvarRecord>, std::__1::hash<std::__1::basic_string<char, std::__1::char_traits<char>, std::__1::allocator<char> > >, true>, std::__1::__unordered_map_equal<std::__1::basic_string<char, std::__1::char_traits<char>, std::__1::allocator<char> >, std::__1::__hash_value_type<std::__1::basic_string<char, std::__1::char_traits<char>, std::__1::allocator<char> >, Cvar::CvarRecord>, std::__1::equal_to<std::__1::basic_string<char, std::__1::char_traits<char>, std::__1::allocator<char> > >, true>, std::__1::allocator<std::__1::__hash_value_type<std::__1::basic_string<char, std::__1::char_traits<char>, std::__1::allocator<char> >, Cvar::CvarRecord> > >::__node_insert_unique(std::__1::__hash_node<std::__1::__hash_value_type<std::__1::basic_string<char, std::__1::char_traits<char>, std::__1::allocator<char> >, Cvar::CvarRecord>, void*>*)
FUNC 117760 300 0 std::__1::__hash_table<std::__1::__hash_value_type<std::__1::basic_string<char, std::__1::char_traits<char>, std::__1::allocator<char> >, Cvar::CvarRecord>, std::__1::__unordered_map_hasher<std::__1::basic_string<char, std::__1::char_traits<char>, std::__1::allocator<char> >, std::__1::__hash_value_type<std::__1::basic_string<char, std::__1::char_traits<char>, std::__1::allocator<char> >, Cvar::CvarRecord>, std::__1::hash<std::__1::basic_string<char, std::__1::char_traits<char>, std::__1::allocator<char> > >, true>, std::__1::__unordered_map_equal<std::__1::basic_string<char, std::__1::char_traits<char>, std::__1::allocator<char> >, std::__1::__hash_value_type<std::__1::basic_string<char, std::__1::char_traits<char>, std::__1::allocator<char> >, Cvar::CvarRecord>, std::__1::equal_to<std::__1::basic_string<char, std::__1::char_traits<char>, std::__1::allocator<char> > >, true>, std::__1::allocator<std::__1::__hash_value_type<std::__1::basic_string<char, std::__1::char_traits<char>, std::__1::allocator<char> >, Cvar::CvarRecord> > >::__rehash(unsigned int)
FUNC 117a60 520 0 void tinyformat::detail::FormatArg::formatImpl<IPC::SyncMessage<IPC::Message<IPC::Id<(unsigned short)4, (unsigned short)2>, std::__1::basic_string<char, std::__1::char_traits<char>, std::__1::allocator<char> >, std::__1::basic_string<char, std::__1::char_traits<char>, std::__1::allocator<char> > >, IPC::Reply<> >::{unnamed type#1}>(std::__1::basic_ostream<char, std::__1::char_traits<char> >&, char const*, char const, int, void const*)
FUNC 117f80 20 0 int tinyformat::detail::FormatArg::toIntImpl<IPC::SyncMessage<IPC::Message<IPC::Id<(unsigned short)4, (unsigned short)2>, std::__1::basic_string<char, std::__1::char_traits<char>, std::__1::allocator<char> >, std::__1::basic_string<char, std::__1::char_traits<char>, std::__1::allocator<char> > >, IPC::Reply<> >::{unnamed type#1}>(void const*)
FUNC 117fa0 cc0 0 void IPC::detail::SendMsg<void (&)(unsigned int, Util::Reader), IPC::Message<IPC::Id<(unsigned short)4, (unsigned short)1>, std::__1::basic_string<char, std::__1::char_traits<char>, std::__1::allocator<char> > >, IPC::Reply<std::__1::basic_string<char, std::__1::char_traits<char>, std::__1::allocator<char> > >, std::__1::basic_string<char, std::__1::char_traits<char>, std::__1::allocator<char> > const&, std::__1::basic_string<char, std::__1::char_traits<char>, std::__1::allocator<char> >&>(IPC::Channel&, void (&)(unsigned int, Util::Reader), IPC::SyncMessage<IPC::Message<IPC::Id<(unsigned short)4, (unsigned short)1>, std::__1::basic_string<char, std::__1::char_traits<char>, std::__1::allocator<char> > >, IPC::Reply<std::__1::basic_string<char, std::__1::char_traits<char>, std::__1::allocator<char> > > >, std::__1::basic_string<char, std::__1::char_traits<char>, std::__1::allocator<char> > const&, std::__1::basic_string<char, std::__1::char_traits<char>, std::__1::allocator<char> >&)
FUNC 118c60 520 0 void tinyformat::detail::FormatArg::formatImpl<IPC::SyncMessage<IPC::Message<IPC::Id<(unsigned short)4, (unsigned short)1>, std::__1::basic_string<char, std::__1::char_traits<char>, std::__1::allocator<char> > >, IPC::Reply<std::__1::basic_string<char, std::__1::char_traits<char>, std::__1::allocator<char> > > >::{unnamed type#1}>(std::__1::basic_ostream<char, std::__1::char_traits<char> >&, char const*, char const, int, void const*)
FUNC 119180 20 0 int tinyformat::detail::FormatArg::toIntImpl<IPC::SyncMessage<IPC::Message<IPC::Id<(unsigned short)4, (unsigned short)1>, std::__1::basic_string<char, std::__1::char_traits<char>, std::__1::allocator<char> > >, IPC::Reply<std::__1::basic_string<char, std::__1::char_traits<char>, std::__1::allocator<char> > > >::{unnamed type#1}>(void const*)
FUNC 1191a0 d80 0 void IPC::detail::SendMsg<void (&)(unsigned int, Util::Reader), IPC::Message<IPC::Id<(unsigned short)4, (unsigned short)0>, std::__1::basic_string<char, std::__1::char_traits<char>, std::__1::allocator<char> >, std::__1::basic_string<char, std::__1::char_traits<char>, std::__1::allocator<char> >, int, std::__1::basic_string<char, std::__1::char_traits<char>, std::__1::allocator<char> > >, IPC::Reply<>, std::__1::basic_string<char, std::__1::char_traits<char>, std::__1::allocator<char> > const&, std::__1::basic_string<char, std::__1::char_traits<char>, std::__1::allocator<char> >&, int&, std::__1::basic_string<char, std::__1::char_traits<char>, std::__1::allocator<char> >&>(IPC::Channel&, void (&)(unsigned int, Util::Reader), IPC::SyncMessage<IPC::Message<IPC::Id<(unsigned short)4, (unsigned short)0>, std::__1::basic_string<char, std::__1::char_traits<char>, std::__1::allocator<char> >, std::__1::basic_string<char, std::__1::char_traits<char>, std::__1::allocator<char> >, int, std::__1::basic_string<char, std::__1::char_traits<char>, std::__1::allocator<char> > >, IPC::Reply<> >, std::__1::basic_string<char, std::__1::char_traits<char>, std::__1::allocator<char> > const&, std::__1::basic_string<char, std::__1::char_traits<char>, std::__1::allocator<char> >&, int&, std::__1::basic_string<char, std::__1::char_traits<char>, std::__1::allocator<char> >&)
FUNC 119f20 520 0 void tinyformat::detail::FormatArg::formatImpl<IPC::SyncMessage<IPC::Message<IPC::Id<(unsigned short)4, (unsigned short)0>, std::__1::basic_string<char, std::__1::char_traits<char>, std::__1::allocator<char> >, std::__1::basic_string<char, std::__1::char_traits<char>, std::__1::allocator<char> >, int, std::__1::basic_string<char, std::__1::char_traits<char>, std::__1::allocator<char> > >, IPC::Reply<> >::{unnamed type#1}>(std::__1::basic_ostream<char, std::__1::char_traits<char> >&, char const*, char const, int, void const*)
FUNC 11a440 20 0 int tinyformat::detail::FormatArg::toIntImpl<IPC::SyncMessage<IPC::Message<IPC::Id<(unsigned short)4, (unsigned short)0>, std::__1::basic_string<char, std::__1::char_traits<char>, std::__1::allocator<char> >, std::__1::basic_string<char, std::__1::char_traits<char>, std::__1::allocator<char> >, int, std::__1::basic_string<char, std::__1::char_traits<char>, std::__1::allocator<char> > >, IPC::Reply<> >::{unnamed type#1}>(void const*)
FUNC 11a460 140 0 void std::__1::vector<Cmd::Args const*, std::__1::allocator<Cmd::Args const*> >::__push_back_slow_path<Cmd::Args const*>(Cmd::Args const*&&)
FUNC 11a5a0 340 0 std::__1::unordered_map<std::__1::basic_string<char, std::__1::char_traits<char>, std::__1::allocator<char> >, Cmd::CommandRecord, Str::IHash, Str::IEqual, std::__1::allocator<std::__1::pair<std::__1::basic_string<char, std::__1::char_traits<char>, std::__1::allocator<char> > const, Cmd::CommandRecord> > >::unordered_map(std::__1::unordered_map<std::__1::basic_string<char, std::__1::char_traits<char>, std::__1::allocator<char> >, Cmd::CommandRecord, Str::IHash, Str::IEqual, std::__1::allocator<std::__1::pair<std::__1::basic_string<char, std::__1::char_traits<char>, std::__1::allocator<char> > const, Cmd::CommandRecord> > > const&)
FUNC 11a8e0 1a0 0 std::__1::__hash_iterator<std::__1::__hash_node<std::__1::__hash_value_type<std::__1::basic_string<char, std::__1::char_traits<char>, std::__1::allocator<char> >, Cmd::CommandRecord>, void*>*> std::__1::__hash_table<std::__1::__hash_value_type<std::__1::basic_string<char, std::__1::char_traits<char>, std::__1::allocator<char> >, Cmd::CommandRecord>, std::__1::__unordered_map_hasher<std::__1::basic_string<char, std::__1::char_traits<char>, std::__1::allocator<char> >, std::__1::__hash_value_type<std::__1::basic_string<char, std::__1::char_traits<char>, std::__1::allocator<char> >, Cmd::CommandRecord>, Str::IHash, true>, std::__1::__unordered_map_equal<std::__1::basic_string<char, std::__1::char_traits<char>, std::__1::allocator<char> >, std::__1::__hash_value_type<std::__1::basic_string<char, std::__1::char_traits<char>, std::__1::allocator<char> >, Cmd::CommandRecord>, Str::IEqual, true>, std::__1::allocator<std::__1::__hash_value_type<std::__1::basic_string<char, std::__1::char_traits<char>, std::__1::allocator<char> >, Cmd::CommandRecord> > >::find<std::__1::basic_string<char, std::__1::char_traits<char>, std::__1::allocator<char> > >(std::__1::basic_string<char, std::__1::char_traits<char>, std::__1::allocator<char> > const&)
FUNC 11aa80 240 0 Str::IHash::operator()(Str::BasicStringRef<char>) const
FUNC 11acc0 140 0 std::__1::__hash_table<std::__1::__hash_value_type<std::__1::basic_string<char, std::__1::char_traits<char>, std::__1::allocator<char> >, Cmd::CommandRecord>, std::__1::__unordered_map_hasher<std::__1::basic_string<char, std::__1::char_traits<char>, std::__1::allocator<char> >, std::__1::__hash_value_type<std::__1::basic_string<char, std::__1::char_traits<char>, std::__1::allocator<char> >, Cmd::CommandRecord>, Str::IHash, true>, std::__1::__unordered_map_equal<std::__1::basic_string<char, std::__1::char_traits<char>, std::__1::allocator<char> >, std::__1::__hash_value_type<std::__1::basic_string<char, std::__1::char_traits<char>, std::__1::allocator<char> >, Cmd::CommandRecord>, Str::IEqual, true>, std::__1::allocator<std::__1::__hash_value_type<std::__1::basic_string<char, std::__1::char_traits<char>, std::__1::allocator<char> >, Cmd::CommandRecord> > >::rehash(unsigned int)
FUNC 11ae00 280 0 std::__1::unique_ptr<std::__1::__hash_node<std::__1::__hash_value_type<std::__1::basic_string<char, std::__1::char_traits<char>, std::__1::allocator<char> >, Cmd::CommandRecord>, void*>, std::__1::__hash_node_destructor<std::__1::allocator<std::__1::__hash_node<std::__1::__hash_value_type<std::__1::basic_string<char, std::__1::char_traits<char>, std::__1::allocator<char> >, Cmd::CommandRecord>, void*> > > > std::__1::__hash_table<std::__1::__hash_value_type<std::__1::basic_string<char, std::__1::char_traits<char>, std::__1::allocator<char> >, Cmd::CommandRecord>, std::__1::__unordered_map_hasher<std::__1::basic_string<char, std::__1::char_traits<char>, std::__1::allocator<char> >, std::__1::__hash_value_type<std::__1::basic_string<char, std::__1::char_traits<char>, std::__1::allocator<char> >, Cmd::CommandRecord>, Str::IHash, true>, std::__1::__unordered_map_equal<std::__1::basic_string<char, std::__1::char_traits<char>, std::__1::allocator<char> >, std::__1::__hash_value_type<std::__1::basic_string<char, std::__1::char_traits<char>, std::__1::allocator<char> >, Cmd::CommandRecord>, Str::IEqual, true>, std::__1::allocator<std::__1::__hash_value_type<std::__1::basic_string<char, std::__1::char_traits<char>, std::__1::allocator<char> >, Cmd::CommandRecord> > >::__construct_node<std::__1::pair<std::__1::basic_string<char, std::__1::char_traits<char>, std::__1::allocator<char> > const, Cmd::CommandRecord> const&>(std::__1::pair<std::__1::basic_string<char, std::__1::char_traits<char>, std::__1::allocator<char> > const, Cmd::CommandRecord> const&)
FUNC 11b080 320 0 std::__1::__hash_table<std::__1::__hash_value_type<std::__1::basic_string<char, std::__1::char_traits<char>, std::__1::allocator<char> >, Cmd::CommandRecord>, std::__1::__unordered_map_hasher<std::__1::basic_string<char, std::__1::char_traits<char>, std::__1::allocator<char> >, std::__1::__hash_value_type<std::__1::basic_string<char, std::__1::char_traits<char>, std::__1::allocator<char> >, Cmd::CommandRecord>, Str::IHash, true>, std::__1::__unordered_map_equal<std::__1::basic_string<char, std::__1::char_traits<char>, std::__1::allocator<char> >, std::__1::__hash_value_type<std::__1::basic_string<char, std::__1::char_traits<char>, std::__1::allocator<char> >, Cmd::CommandRecord>, Str::IEqual, true>, std::__1::allocator<std::__1::__hash_value_type<std::__1::basic_string<char, std::__1::char_traits<char>, std::__1::allocator<char> >, Cmd::CommandRecord> > >::__node_insert_unique(std::__1::__hash_node<std::__1::__hash_value_type<std::__1::basic_string<char, std::__1::char_traits<char>, std::__1::allocator<char> >, Cmd::CommandRecord>, void*>*)
FUNC 11b3a0 320 0 std::__1::__hash_table<std::__1::__hash_value_type<std::__1::basic_string<char, std::__1::char_traits<char>, std::__1::allocator<char> >, Cmd::CommandRecord>, std::__1::__unordered_map_hasher<std::__1::basic_string<char, std::__1::char_traits<char>, std::__1::allocator<char> >, std::__1::__hash_value_type<std::__1::basic_string<char, std::__1::char_traits<char>, std::__1::allocator<char> >, Cmd::CommandRecord>, Str::IHash, true>, std::__1::__unordered_map_equal<std::__1::basic_string<char, std::__1::char_traits<char>, std::__1::allocator<char> >, std::__1::__hash_value_type<std::__1::basic_string<char, std::__1::char_traits<char>, std::__1::allocator<char> >, Cmd::CommandRecord>, Str::IEqual, true>, std::__1::allocator<std::__1::__hash_value_type<std::__1::basic_string<char, std::__1::char_traits<char>, std::__1::allocator<char> >, Cmd::CommandRecord> > >::__rehash(unsigned int)
FUNC 11b6c0 520 0 void tinyformat::detail::FormatArg::formatImpl<IPC::Message<IPC::Id<(unsigned short)3, (unsigned short)1>, std::__1::basic_string<char, std::__1::char_traits<char>, std::__1::allocator<char> > >::{unnamed type#1}>(std::__1::basic_ostream<char, std::__1::char_traits<char> >&, char const*, char const, int, void const*)
FUNC 11bbe0 20 0 int tinyformat::detail::FormatArg::toIntImpl<IPC::Message<IPC::Id<(unsigned short)3, (unsigned short)1>, std::__1::basic_string<char, std::__1::char_traits<char>, std::__1::allocator<char> > >::{unnamed type#1}>(void const*)
FUNC 11bc00 140 0 VMCvarProxy::Update(vmCvar_t*)
FUNC 11bd40 a0 0 <name omitted>
FUNC 11bde0 a0 0 VMCvarProxy::~VMCvarProxy()
FUNC 11be80 100 0 VMCvarProxy::OnValueChanged(Str::BasicStringRef<char>)
FUNC 11bf80 20 0 TrapProxyCommand::~TrapProxyCommand()
FUNC 11bfa0 180 0 TrapProxyCommand::Run(Cmd::Args const&) const
FUNC 11c120 740 0 TrapProxyCommand::Complete(int, Cmd::Args const&, Str::BasicStringRef<char>) const
FUNC 11c860 920 0 void IPC::detail::SendMsg<void (&)(unsigned int, Util::Reader), IPC::Id<(unsigned short)3, (unsigned short)0>, std::__1::basic_string<char, std::__1::char_traits<char>, std::__1::allocator<char> >, std::__1::basic_string<char, std::__1::char_traits<char>, std::__1::allocator<char> >, std::__1::basic_string<char, std::__1::char_traits<char>, std::__1::allocator<char> >&, std::__1::basic_string<char, std::__1::char_traits<char>, std::__1::allocator<char> >&>(IPC::Channel&, void (&)(unsigned int, Util::Reader), IPC::Message<IPC::Id<(unsigned short)3, (unsigned short)0>, std::__1::basic_string<char, std::__1::char_traits<char>, std::__1::allocator<char> >, std::__1::basic_string<char, std::__1::char_traits<char>, std::__1::allocator<char> > >, std::__1::basic_string<char, std::__1::char_traits<char>, std::__1::allocator<char> >&, std::__1::basic_string<char, std::__1::char_traits<char>, std::__1::allocator<char> >&)
FUNC 11d180 520 0 void tinyformat::detail::FormatArg::formatImpl<IPC::Message<IPC::Id<(unsigned short)3, (unsigned short)0>, std::__1::basic_string<char, std::__1::char_traits<char>, std::__1::allocator<char> >, std::__1::basic_string<char, std::__1::char_traits<char>, std::__1::allocator<char> > >::{unnamed type#1}>(std::__1::basic_ostream<char, std::__1::char_traits<char> >&, char const*, char const, int, void const*)
FUNC 11d6a0 20 0 int tinyformat::detail::FormatArg::toIntImpl<IPC::Message<IPC::Id<(unsigned short)3, (unsigned short)0>, std::__1::basic_string<char, std::__1::char_traits<char>, std::__1::allocator<char> >, std::__1::basic_string<char, std::__1::char_traits<char>, std::__1::allocator<char> > >::{unnamed type#1}>(void const*)
FUNC 11d6c0 100 0 <name omitted>
FUNC 11d7c0 580 0 Sys::Error(Str::BasicStringRef<char>)
FUNC 11dd40 da0 0 main
FUNC 11eae0 a0 0 Color::StrlenNocolor(char const*)
FUNC 11eb80 120 0 Color::StripColors(char const*, char*, unsigned int)
FUNC 11eca0 3e0 0 Color::detail::ToString(Color::BasicColor<unsigned char, Color::ColorComponentTraits<unsigned char> > const&)
FUNC 11f080 560 0 Color::TokenIterator::NextToken(char const*)
FUNC 11f5e0 440 0 Cmd::Escape(Str::BasicStringRef<char>)
FUNC 11fa20 7a0 0 Cmd::Args::Args(Str::BasicStringRef<char>)
FUNC 1201c0 1a0 0 Cmd::Args::ConcatArgs(int, int) const
FUNC 120360 9e0 0 Cvar::CvarProxy::Register(std::__1::basic_string<char, std::__1::char_traits<char>, std::__1::allocator<char> >)
FUNC 120d40 2c0 0 Cvar::ParseCvarValue(Str::BasicStringRef<char>, bool&)
FUNC 121000 a0 0 std::__1::__vector_base<std::__1::basic_string<char, std::__1::char_traits<char>, std::__1::allocator<char> >, std::__1::allocator<std::__1::basic_string<char, std::__1::char_traits<char>, std::__1::allocator<char> > > >::~__vector_base()
FUNC 1210a0 c0 0 std::__1::__vector_base<FS::PakInfo, std::__1::allocator<FS::PakInfo> >::~__vector_base()
FUNC 121160 e0 0 std::__1::__vector_base<FS::LoadedPakInfo, std::__1::allocator<FS::LoadedPakInfo> >::~__vector_base()
FUNC 121240 80 0 FS::PakPath::LoadedPakGuard::~LoadedPakGuard()
FUNC 1212c0 c0 0 std::__1::unordered_map<std::__1::basic_string<char, std::__1::char_traits<char>, std::__1::allocator<char> >, std::__1::pair<unsigned int, long long>, std::__1::hash<std::__1::basic_string<char, std::__1::char_traits<char>, std::__1::allocator<char> > >, std::__1::equal_to<std::__1::basic_string<char, std::__1::char_traits<char>, std::__1::allocator<char> > >, std::__1::allocator<std::__1::pair<std::__1::basic_string<char, std::__1::char_traits<char>, std::__1::allocator<char> > const, std::__1::pair<unsigned int, long long> > > >::~unordered_map()
FUNC 121380 5e20 0 FS::PakPath::ReadFile(Str::BasicStringRef<char>, std::__1::error_code&)
FUNC 1271a0 120 0 FS::File::~File()
FUNC 1272c0 300 0 std::__1::__hash_table<std::__1::__hash_value_type<std::__1::basic_string<char, std::__1::char_traits<char>, std::__1::allocator<char> >, std::__1::pair<unsigned int, long long> >, std::__1::__unordered_map_hasher<std::__1::basic_string<char, std::__1::char_traits<char>, std::__1::allocator<char> >, std::__1::__hash_value_type<std::__1::basic_string<char, std::__1::char_traits<char>, std::__1::allocator<char> >, std::__1::pair<unsigned int, long long> >, std::__1::hash<std::__1::basic_string<char, std::__1::char_traits<char>, std::__1::allocator<char> > >, true>, std::__1::__unordered_map_equal<std::__1::basic_string<char, std::__1::char_traits<char>, std::__1::allocator<char> >, std::__1::__hash_value_type<std::__1::basic_string<char, std::__1::char_traits<char>, std::__1::allocator<char> >, std::__1::pair<unsigned int, long long> >, std::__1::equal_to<std::__1::basic_string<char, std::__1::char_traits<char>, std::__1::allocator<char> > >, true>, std::__1::allocator<std::__1::__hash_value_type<std::__1::basic_string<char, std::__1::char_traits<char>, std::__1::allocator<char> >, std::__1::pair<unsigned int, long long> > > >::__rehash(unsigned int)
FUNC 1275c0 220 0 FS::PakInfo::operator=(FS::PakInfo&&)
FUNC 1277e0 520 0 void tinyformat::detail::FormatArg::formatImpl<IPC::SyncMessage<IPC::Message<IPC::Id<(unsigned short)6, (unsigned short)0>>, IPC::Reply<std::__1::basic_string<char, std::__1::char_traits<char>, std::__1::allocator<char> >, std::__1::basic_string<char, std::__1::char_traits<char>, std::__1::allocator<char> >, std::__1::vector<FS::PakInfo, std::__1::allocator<FS::PakInfo> >, std::__1::vector<FS::LoadedPakInfo, std::__1::allocator<FS::LoadedPakInfo> >, std::__1::unordered_map<std::__1::basic_string<char, std::__1::char_traits<char>, std::__1::allocator<char> >, std::__1::pair<unsigned int, long long>, std::__1::hash<std::__1::basic_string<char, std::__1::char_traits<char>, std::__1::allocator<char> > >, std::__1::equal_to<std::__1::basic_string<char, std::__1::char_traits<char>, std::__1::allocator<char> > >, std::__1::allocator<std::__1::pair<std::__1::basic_string<char, std::__1::char_traits<char>, std::__1::allocator<char> > const, std::__1::pair<unsigned int, long long> > > > > >::{unnamed type#1}>(std::__1::basic_ostream<char, std::__1::char_traits<char> >&, char const*, char const, int, void const*)
FUNC 127d00 20 0 int tinyformat::detail::FormatArg::toIntImpl<IPC::SyncMessage<IPC::Message<IPC::Id<(unsigned short)6, (unsigned short)0>>, IPC::Reply<std::__1::basic_string<char, std::__1::char_traits<char>, std::__1::allocator<char> >, std::__1::basic_string<char, std::__1::char_traits<char>, std::__1::allocator<char> >, std::__1::vector<FS::PakInfo, std::__1::allocator<FS::PakInfo> >, std::__1::vector<FS::LoadedPakInfo, std::__1::allocator<FS::LoadedPakInfo> >, std::__1::unordered_map<std::__1::basic_string<char, std::__1::char_traits<char>, std::__1::allocator<char> >, std::__1::pair<unsigned int, long long>, std::__1::hash<std::__1::basic_string<char, std::__1::char_traits<char>, std::__1::allocator<char> > >, std::__1::equal_to<std::__1::basic_string<char, std::__1::char_traits<char>, std::__1::allocator<char> > >, std::__1::allocator<std::__1::pair<std::__1::basic_string<char, std::__1::char_traits<char>, std::__1::allocator<char> > const, std::__1::pair<unsigned int, long long> > > > > >::{unnamed type#1}>(void const*)
FUNC 127d20 520 0 void tinyformat::detail::FormatArg::formatImpl<IPC::SyncMessage<IPC::Message<IPC::Id<(unsigned short)6, (unsigned short)8>, unsigned int, std::__1::basic_string<char, std::__1::char_traits<char>, std::__1::allocator<char> > >, IPC::Reply<Util::optional<IPC::OwnedFileHandle> > >::{unnamed type#1}>(std::__1::basic_ostream<char, std::__1::char_traits<char> >&, char const*, char const, int, void const*)
FUNC 128240 20 0 int tinyformat::detail::FormatArg::toIntImpl<IPC::SyncMessage<IPC::Message<IPC::Id<(unsigned short)6, (unsigned short)8>, unsigned int, std::__1::basic_string<char, std::__1::char_traits<char>, std::__1::allocator<char> > >, IPC::Reply<Util::optional<IPC::OwnedFileHandle> > >::{unnamed type#1}>(void const*)
FUNC 128260 20 0 FS::minizip_category_impl::~minizip_category_impl()
FUNC 128280 20 0 FS::minizip_category_impl::name() const
FUNC 1282a0 180 0 FS::minizip_category_impl::message(int) const
FUNC 128420 20 0 FS::filesystem_category_impl::~filesystem_category_impl()
FUNC 128440 20 0 FS::filesystem_category_impl::name() const
FUNC 128460 100 0 FS::filesystem_category_impl::message(int) const
FUNC 128560 3c0 0 <name omitted>
FUNC 128920 140 0 FS::SetErrorCodeSystem(std::__1::error_code&)
FUNC 128a60 180 0 FS::SetErrorCodeFilesystem(std::__1::error_code&, FS::filesystem_error)
FUNC 128be0 1a0 0 FS::SetErrorCodeZlib(std::__1::error_code&, int)
FUNC 128d80 40 0 FS::(anonymous namespace)::ZipArchive::Open(int, std::__1::error_code&)::{lambda(void*, void*)#3}::__invoke(void*, void*)
FUNC 128dc0 40 0 FS::(anonymous namespace)::ZipArchive::Open(int, std::__1::error_code&)::{lambda(void*, void*)#2}::__invoke(void*, void*)
FUNC 128e00 80 0 FS::(anonymous namespace)::ZipArchive::Open(int, std::__1::error_code&)::{lambda(void*, void*, unsigned long long, int)#1}::__invoke(void*, void*, unsigned long long, int)
FUNC 128e80 20 0 FS::(anonymous namespace)::ZipArchive::Open(int, std::__1::error_code&)::{lambda(void*, void*)#1}::__invoke(void*, void*)
FUNC 128ea0 1e0 0 FS::(anonymous namespace)::ZipArchive::Open(int, std::__1::error_code&)::{lambda(void*, void*, void*, unsigned long)#1}::__invoke(void*, void*, void*, unsigned long)
FUNC 129080 20 0 FS::(anonymous namespace)::ZipArchive::Open(int, std::__1::error_code&)::{lambda(void*, void const*, int)#1}::__invoke(void*, void const*, int)
FUNC 1290a0 1c0 0 IPC::Socket::SendMsg(Util::Writer const&) const
FUNC 129260 a0 0 void Sys::Drop<char (&) [256]>(Str::BasicStringRef<char>, char (&) [256])
FUNC 129300 780 0 IPC::Socket::RecvMsg() const
FUNC 129a80 520 0 void tinyformat::detail::FormatArg::formatImpl<IPC::SyncMessage<IPC::Message<IPC::Id<(unsigned short)2, (unsigned short)0>, unsigned int>, IPC::Reply<IPC::SharedMemory> >::{unnamed type#1}>(std::__1::basic_ostream<char, IPC::SyncMessage<IPC::Message<IPC::Id<(unsigned short)2, (unsigned short)0>, unsigned int>, IPC::Reply<IPC::SharedMemory> >::{unnamed type#1}::char_traits<char> >&, char const*, char const, int, void const*)
FUNC 129fa0 20 0 int tinyformat::detail::FormatArg::toIntImpl<IPC::SyncMessage<IPC::Message<IPC::Id<(unsigned short)2, (unsigned short)0>, unsigned int>, IPC::Reply<IPC::SharedMemory> >::{unnamed type#1}>(void const*)
FUNC 129fc0 a0 0 std::__1::unordered_map<Str::BasicStringRef<char>, keyNum_t, Str::IHash, Str::IEqual, std::__1::allocator<std::__1::pair<Str::BasicStringRef<char> const, keyNum_t> > >::~unordered_map()
FUNC 12a060 a0 0 std::__1::unordered_map<char, Str::BasicStringRef<char>, std::__1::hash<char>, std::__1::equal_to<char>, std::__1::allocator<std::__1::pair<char const, Str::BasicStringRef<char> > > >::~unordered_map()
FUNC 12a100 200 0 std::__1::__hash_table<std::__1::__hash_value_type<char, Str::BasicStringRef<char> >, std::__1::__unordered_map_hasher<char, std::__1::__hash_value_type<char, Str::BasicStringRef<char> >, std::__1::hash<char>, true>, std::__1::__unordered_map_equal<char, std::__1::__hash_value_type<char, Str::BasicStringRef<char> >, std::__1::equal_to<char>, true>, std::__1::allocator<std::__1::__hash_value_type<char, Str::BasicStringRef<char> > > >::__rehash(unsigned int)
FUNC 12a300 2a0 0 std::__1::__hash_table<std::__1::__hash_value_type<Str::BasicStringRef<char>, keyNum_t>, std::__1::__unordered_map_hasher<Str::BasicStringRef<char>, std::__1::__hash_value_type<Str::BasicStringRef<char>, keyNum_t>, Str::IHash, true>, std::__1::__unordered_map_equal<Str::BasicStringRef<char>, std::__1::__hash_value_type<Str::BasicStringRef<char>, keyNum_t>, Str::IEqual, true>, std::__1::allocator<std::__1::__hash_value_type<Str::BasicStringRef<char>, keyNum_t> > >::__rehash(unsigned int)
FUNC 12a5a0 28a0 0 <name omitted>
FUNC 12ce40 7e0 0 Log::Logger::Logger(Str::BasicStringRef<char>, std::__1::basic_string<char, std::__1::char_traits<char>, std::__1::allocator<char> >, Log::Level)
FUNC 12d620 160 0 Log::Logger::Prefix(std::__1::basic_string<char, std::__1::char_traits<char>, std::__1::allocator<char> >) const
FUNC 12d780 e80 0 Log::Logger::Dispatch(std::__1::basic_string<char, std::__1::char_traits<char>, std::__1::allocator<char> >, Log::Level, Str::BasicStringRef<char>)
FUNC 12e600 480 0 Log::DispatchByLevel(std::__1::basic_string<char, std::__1::char_traits<char>, std::__1::allocator<char> >, Log::Level)
FUNC 12ea80 a0 0 void Sys::Error<Str::BasicStringRef<char>&, std::__1::basic_string<char, std::__1::char_traits<char>, std::__1::allocator<char> >&>(Str::BasicStringRef<char>, Str::BasicStringRef<char>&, std::__1::basic_string<char, std::__1::char_traits<char>, std::__1::allocator<char> >&)
FUNC 12eb20 20 0 std::__1::__shared_ptr_pointer<Cvar::Cvar<Log::Level>*, std::__1::default_delete<Cvar::Cvar<Log::Level> >, std::__1::allocator<Cvar::Cvar<Log::Level> > >::~__shared_ptr_pointer()
FUNC 12eb40 40 0 std::__1::__shared_ptr_pointer<Cvar::Cvar<Log::Level>*, std::__1::default_delete<Cvar::Cvar<Log::Level> >, std::__1::allocator<Cvar::Cvar<Log::Level> > >::__on_zero_shared()
FUNC 12eb80 20 0 std::__1::__shared_ptr_pointer<Cvar::Cvar<Log::Level>*, std::__1::default_delete<Cvar::Cvar<Log::Level> >, std::__1::allocator<Cvar::Cvar<Log::Level> > >::__get_deleter(std::type_info const&) const
FUNC 12eba0 20 0 std::__1::__shared_ptr_pointer<Cvar::Cvar<Log::Level>*, std::__1::default_delete<Cvar::Cvar<Log::Level> >, std::__1::allocator<Cvar::Cvar<Log::Level> > >::__on_zero_shared_weak()
FUNC 12ebc0 a0 0 <name omitted>
FUNC 12ec60 a0 0 Cvar::Cvar<Log::Level>::~Cvar()
FUNC 12ed00 340 0 Cvar::Cvar<Log::Level>::OnValueChanged(Str::BasicStringRef<char>)
FUNC 12f040 20 0 Cvar::Cvar<Log::Level>::Validate(Log::Level const&)
FUNC 12f060 20 0 Cvar::Cvar<Log::Level>::GetAdditionalDescription()
FUNC 12f080 180 0 Cvar::Cvar<Log::Level>::GetDescription()
FUNC 12f200 80 0 <name omitted>
FUNC 12f280 c0 0 Log::(anonymous namespace)::LogSpamSuppressor::~LogSpamSuppressor()
FUNC 12f340 1e0 0 int Log::GetCvarOrDie<int>(Str::BasicStringRef<char>)
FUNC 12f520 100 0 Str::ParseInt(int&, Str::BasicStringRef<char>)
FUNC 12f620 1e0 0 Sys::Drop(Str::BasicStringRef<char>)
FUNC 12f800 20 0 Sys::OSExit(int)
FUNC 12f920 60 0 Sys::DropErr::~DropErr()
FUNC 12f980 b40 0 Sys::CrashHandler(void const*, unsigned int)
FUNC 1304c0 60 0 std::__1::__vector_base<void*, std::__1::allocator<void*> >::~__vector_base()
FUNC 130520 a0 0 <name omitted>
FUNC 1305c0 69e0 0 CM_LoadMap(Str::BasicStringRef<char>)
FUNC 136fa0 80 0 <name omitted>
FUNC 137020 a0 0 void Sys::Drop<int&, int&>(Str::BasicStringRef<char>, int&, int&)
FUNC 1370c0 540 0 CM_TempBoxModel(float const*, float const*, int)
FUNC 137600 c0 0 <name omitted>
FUNC 1376c0 140 0 void std::__1::vector<void*, std::__1::allocator<void*> >::__push_back_slow_path<void* const&>(void* const&)
FUNC 137800 200 0 <name omitted>
FUNC 137a00 4e0 0 void tinyformat::detail::FormatArg::formatImpl<void*>(std::__1::basic_ostream<char, std::__1::char_traits<char> >&, char const*, char const*, int, void const*)
FUNC 137ee0 80 0 int tinyformat::detail::FormatArg::toIntImpl<void*>(void const*)
FUNC 137f60 480 0 CM_SubdivideGridColumns(cGrid_t*)
FUNC 1383e0 180 0 CM_RemoveDegenerateColumns(cGrid_t*)
FUNC 138560 3a0 0 CM_EdgePlaneNum(cGrid_t*, int (*) [129][2], int, int, int)
FUNC 138900 200 0 CM_SetBorderInward(cFacet_t*, cGrid_t*, int, int, int)
FUNC 138b00 180 0 CM_PlaneEqual(cPlane_t*, float*, bool*)
FUNC 138c80 1e0 0 CM_FindPlane2(float*, bool*)
FUNC 138e60 380 0 CM_FindPlane(float const*, float const*, float const*)
FUNC 1391e0 80 0 CM_PointOnPlaneSide(float*, int)
FUNC 139260 280 0 CM_ValidateFacet(cFacet_t*)
FUNC 1394e0 ca0 0 CM_AddFacetBevels(cFacet_t*)
FUNC 13a180 40 0 <name omitted>
FUNC 13a1c0 c0 0 WindingBounds(winding_t*, float*, float*)
FUNC 13a280 480 0 BaseWindingForPlane(float*, float)
FUNC 13a700 4e0 0 ChopWindingInPlace(winding_t**, float*, float, float)
FUNC 13abe0 a0 0 CM_PointLeafnum(float const*)
FUNC 13ac80 60 0 CM_StoreLeafs(leafList_t*, int)
FUNC 13ace0 1e0 0 CM_BoxLeafnums_r(leafList_t*, int)
FUNC 13aec0 2c0 0 CM_PointContents(float const*, int)
FUNC 13b180 a0 0 CM_FloodArea_r(int, int)
FUNC 13b220 120 0 CM_BoundsIntersect(float const*, float const*, float const*, float const*)
FUNC 13b340 160 0 <name omitted>
FUNC 13b4a0 220 0 CM_DistanceFromLineSquared(float*, float*, float*, float*)
FUNC 13b6c0 4c0 0 CM_TestInLeaf(traceWork_t*, cLeaf_t*)
FUNC 13bb80 ca0 0 CM_TraceThroughSurfaceCollide(traceWork_t*, cSurfaceCollide_t const*)
FUNC 13c820 c0 0 CM_TraceThroughSurface(traceWork_t*, cSurface_t*)
FUNC 13c8e0 880 0 CM_TraceThroughBrush(traceWork_t*, cbrush_t*)
FUNC 13d160 9e0 0 CM_TraceThroughLeaf(traceWork_t*, cLeaf_t*)
FUNC 13db40 480 0 CM_TraceThroughSphere(traceWork_t*, float*, float, float*, float*)
FUNC 13dfc0 720 0 CM_TransformedBoxTrace(trace_t*, float const*, float const*, float const*, float const*, int, int, int, float const*, float const*, traceType_t)
FUNC 13e6e0 160 0 <name omitted>
FUNC 13e840 3c0 0 CM_PositionTestInSurfaceCollide(traceWork_t*, cSurfaceCollide_t const*)
FUNC 13ec00 1a80 0 CM_Trace(trace_t*, float const*, float const*, float*, float*, int, float const*, int, int, traceType_t, sphere_t*)
FUNC 140680 3a0 0 CM_TraceThroughTree(traceWork_t*, int, float, float, float*, float*)
FUNC 140a20 4e0 0 void tinyformat::detail::FormatArg::formatImpl<int*>(std::__1::basic_ostream<char, std::__1::char_traits<char> >&, char const*, char const*, int, void const*)
FUNC 140f00 80 0 int tinyformat::detail::FormatArg::toIntImpl<int*>(void const*)
FUNC 140f80 4e0 0 void tinyformat::detail::FormatArg::formatImpl<float (*) [3]>(std::__1::basic_ostream<char, std::__1::char_traits<char> >&, char const*, char const*, int, void const*)
FUNC 141460 80 0 int tinyformat::detail::FormatArg::toIntImpl<float (*) [3]>(void const*)
FUNC 1414e0 80 0 DirToByte(float*)
FUNC 141560 e0 0 VectorNormalize(float*)
FUNC 141640 c0 0 VectorNormalize2(float const*, float*)
FUNC 141700 180 0 RotatePointAroundVector(float*, float const*, float const*, float)
FUNC 141880 180 0 PerpendicularVector(float*, float const*)
FUNC 141a00 180 0 vectoangles(float const*, float*)
FUNC 141b80 220 0 AngleVectors(float const*, float*, float*, float*)
FUNC 141da0 80 0 AddPointToBounds(float const*, float*, float*)
FUNC 141e20 480 0 QuatFromAngles(float*, float, float, float)
FUNC 1422a0 600 0 QuatToAngles(float const*, float*)
FUNC 1428a0 c0 0 Q_strncpyz(char*, char const*, int)
FUNC 142b60 40 0 Com_EntityTypeName(entityType_t)
FUNC 142ba0 260 0 COM_ParseExt(char const**, bool)
FUNC 142f00 480 0 COM_ParseExt2(char const**, bool)
FUNC 143380 340 0 Info_SetValueForKey(char*, char const*, char const*, bool)
FUNC 1436c0 a0 0 <name omitted>
FUNC 143760 c0 0 Q_strnicmp(char const*, char const*, int)
FUNC 143820 100 0 Q_strcat(char*, int, char const*)
FUNC 143920 320 0 Com_Filter(char const*, char const*, int)
FUNC 143d60 2a0 0 Info_ValueForKey(char const*, char const*)
FUNC 144000 240 0 Info_RemoveKey(char*, char const*, bool)
FUNC 144240 2a0 0 Com_GMTime(qtime_t*)
FUNC 1444e0 540 0 std::__1::basic_string<char, std::__1::char_traits<char>, std::__1::allocator<char> > tinyformat::format<char*, char const*, char const*>(char const*, char* const&, char const* const&, char const* const&)
FUNC 144a20 6c0 0 void Log::Logger::Warn<char (&) [1024], int&, char (&) [4096]>(Str::BasicStringRef<char>, char (&) [1024], int&, char (&) [4096])
FUNC 1450e0 c0 0 void tinyformat::detail::FormatArg::formatImpl<char [4096]>(std::__1::basic_ostream<char, std::__1::char_traits<char> >&, char const*, char const*, int, void const*)
FUNC 1451a0 80 0 int tinyformat::detail::FormatArg::toIntImpl<char [4096]>(void const*)
FUNC 145220 3c0 0 Q_UTF8_CodePoint(char const*)
FUNC 1455e0 a0 0 Q_Unicode_IsAlphaOrIdeo(int)
FUNC 145680 e0 0 NaClGetLastErrorString
FUNC 145760 10c0 0 CrashHandler
FUNC 146820 e0 0 unzClose
FUNC 146900 16a0 0 unzOpenInternal
FUNC 147fa0 11a0 0 unz64local_GetCurrentFileInfoInternal
FUNC 149140 1c0 0 unz64local_getLong
FUNC 149300 440 0 unz64local_getLong64
FUNC 149740 40 0 fread_file_func
FUNC 149780 40 0 fwrite_file_func
FUNC 1497c0 40 0 fclose_file_func
FUNC 149800 20 0 ferror_file_func
FUNC 149820 260 0 fopen64_file_func
FUNC 149a80 40 0 ftell64_file_func
FUNC 149ac0 60 0 fseek64_file_func
FUNC 149b20 300 0 crc32
FUNC 149e20 80 0 inflateEnd
FUNC 149ea0 7a0 0 inflate_table
FUNC 14a640 40 0 zcalloc
FUNC 14a680 40 0 zcfree
FUNC 14a6c0 340 0 adler32
FUNC 14aa00 a0 0 std::logic_error::logic_error(char const*)
FUNC 14aaa0 a0 0 <name omitted>
FUNC 14ab40 8e0 0 std::__1::__next_prime(unsigned int)
FUNC 14b420 20 0 std::__1::locale::facet::~facet()
FUNC 14b440 60 0 std::__1::collate<char>::do_compare(char const*, char const*, char const*, char const*) const
FUNC 14b4a0 40 0 std::__1::collate<char>::do_transform(char const*, char const*) const
FUNC 14b4e0 40 0 std::__1::collate<char>::do_hash(char const*, char const*) const
FUNC 14b520 60 0 std::__1::collate<wchar_t>::do_compare(wchar_t const*, wchar_t const*, wchar_t const*, wchar_t const*) const
FUNC 14b580 40 0 std::__1::collate<wchar_t>::do_transform(wchar_t const*, wchar_t const*) const
FUNC 14b5c0 40 0 std::__1::collate<wchar_t>::do_hash(wchar_t const*, wchar_t const*) const
FUNC 14b600 540 0 std::__1::num_get<char, std::__1::istreambuf_iterator<char, std::__1::char_traits<char> > >::do_get(std::__1::istreambuf_iterator<char, std::__1::char_traits<char> >, std::__1::istreambuf_iterator<char, std::__1::char_traits<char> >, std::__1::ios_base&, unsigned int&, bool&) const
FUNC 14bb40 6a0 0 std::__1::basic_string<char, std::__1::char_traits<char>, std::__1::allocator<char> > const* std::__1::__scan_keyword<std::__1::istreambuf_iterator<char, std::__1::char_traits<char> >, std::__1::basic_string<char, std::__1::char_traits<char>, std::__1::allocator<char> > const*, std::__1::ctype<char> >(std::__1::istreambuf_iterator<char, std::__1::char_traits<char> >&, std::__1::istreambuf_iterator<char, std::__1::char_traits<char> >, std::__1::basic_string<char, std::__1::char_traits<char>, std::__1::allocator<char> > const*, std::__1::basic_string<char, std::__1::char_traits<char>, std::__1::allocator<char> > const*, std::__1::ctype<char> const&, unsigned int&, bool)
FUNC 14c1e0 6a0 0 std::__1::num_get<char, std::__1::istreambuf_iterator<char, std::__1::char_traits<char> > >::do_get(std::__1::istreambuf_iterator<char, std::__1::char_traits<char> >, std::__1::istreambuf_iterator<char, std::__1::char_traits<char> >, std::__1::ios_base&, unsigned int&, long&) const
FUNC 14c880 6a0 0 std::__1::num_get<char, std::__1::istreambuf_iterator<char, std::__1::char_traits<char> > >::do_get(std::__1::istreambuf_iterator<char, std::__1::char_traits<char> >, std::__1::istreambuf_iterator<char, std::__1::char_traits<char> >, std::__1::ios_base&, unsigned int&, long long&) const
FUNC 14cf20 6a0 0 std::__1::num_get<char, std::__1::istreambuf_iterator<char, std::__1::char_traits<char> > >::do_get(std::__1::istreambuf_iterator<char, std::__1::char_traits<char> >, std::__1::istreambuf_iterator<char, std::__1::char_traits<char> >, std::__1::ios_base&, unsigned int&, unsigned short&) const
FUNC 14d5c0 6a0 0 std::__1::num_get<char, std::__1::istreambuf_iterator<char, std::__1::char_traits<char> > >::do_get(std::__1::istreambuf_iterator<char, std::__1::char_traits<char> >, std::__1::istreambuf_iterator<char, std::__1::char_traits<char> >, std::__1::ios_base&, unsigned int&, unsigned int&) const
FUNC 14dc60 6a0 0 std::__1::num_get<char, std::__1::istreambuf_iterator<char, std::__1::char_traits<char> > >::do_get(std::__1::istreambuf_iterator<char, std::__1::char_traits<char> >, std::__1::istreambuf_iterator<char, std::__1::char_traits<char> >, std::__1::ios_base&, unsigned int&, unsigned long&) const
FUNC 14e300 6a0 0 std::__1::num_get<char, std::__1::istreambuf_iterator<char, std::__1::char_traits<char> > >::do_get(std::__1::istreambuf_iterator<char, std::__1::char_traits<char> >, std::__1::istreambuf_iterator<char, std::__1::char_traits<char> >, std::__1::ios_base&, unsigned int&, unsigned long long&) const
FUNC 14e9a0 6a0 0 std::__1::num_get<char, std::__1::istreambuf_iterator<char, std::__1::char_traits<char> > >::do_get(std::__1::istreambuf_iterator<char, std::__1::char_traits<char> >, std::__1::istreambuf_iterator<char, std::__1::char_traits<char> >, std::__1::ios_base&, unsigned int&, float&) const
FUNC 14f040 6a0 0 std::__1::num_get<char, std::__1::istreambuf_iterator<char, std::__1::char_traits<char> > >::do_get(std::__1::istreambuf_iterator<char, std::__1::char_traits<char> >, std::__1::istreambuf_iterator<char, std::__1::char_traits<char> >, std::__1::ios_base&, unsigned int&, double&) const
FUNC 14f6e0 6a0 0 std::__1::num_get<char, std::__1::istreambuf_iterator<char, std::__1::char_traits<char> > >::do_get(std::__1::istreambuf_iterator<char, std::__1::char_traits<char> >, std::__1::istreambuf_iterator<char, std::__1::char_traits<char> >, std::__1::ios_base&, unsigned int&, long double&) const
FUNC 14fd80 7e0 0 std::__1::num_get<char, std::__1::istreambuf_iterator<char, std::__1::char_traits<char> > >::do_get(std::__1::istreambuf_iterator<char, std::__1::char_traits<char> >, std::__1::istreambuf_iterator<char, std::__1::char_traits<char> >, std::__1::ios_base&, unsigned int&, void*&) const
FUNC 150560 2e0 0 std::__1::__num_get<char>::__stage2_int_loop(char, int, char*, char*&, unsigned int&, char, std::__1::basic_string<char, std::__1::char_traits<char>, std::__1::allocator<char> > const&, unsigned int*, unsigned int*&, char*)
FUNC 150900 540 0 std::__1::num_get<wchar_t, std::__1::istreambuf_iterator<wchar_t, std::__1::char_traits<wchar_t> > >::do_get(std::__1::istreambuf_iterator<wchar_t, std::__1::char_traits<wchar_t> >, std::__1::istreambuf_iterator<wchar_t, std::__1::char_traits<wchar_t> >, std::__1::ios_base&, unsigned int&, bool&) const
FUNC 150e40 6e0 0 std::__1::basic_string<wchar_t, std::__1::char_traits<wchar_t>, std::__1::allocator<wchar_t> > const* std::__1::__scan_keyword<std::__1::istreambuf_iterator<wchar_t, std::__1::char_traits<wchar_t> >, std::__1::basic_string<wchar_t, std::__1::char_traits<wchar_t>, std::__1::allocator<wchar_t> > const*, std::__1::ctype<wchar_t> >(std::__1::istreambuf_iterator<wchar_t, std::__1::char_traits<wchar_t> >&, std::__1::istreambuf_iterator<wchar_t, std::__1::char_traits<wchar_t> >, std::__1::basic_string<wchar_t, std::__1::char_traits<wchar_t>, std::__1::allocator<wchar_t> > const*, std::__1::basic_string<wchar_t, std::__1::char_traits<wchar_t>, std::__1::allocator<wchar_t> > const*, std::__1::ctype<wchar_t> const&, unsigned int&, bool)
FUNC 151520 6e0 0 std::__1::num_get<wchar_t, std::__1::istreambuf_iterator<wchar_t, std::__1::char_traits<wchar_t> > >::do_get(std::__1::istreambuf_iterator<wchar_t, std::__1::char_traits<wchar_t> >, std::__1::istreambuf_iterator<wchar_t, std::__1::char_traits<wchar_t> >, std::__1::ios_base&, unsigned int&, long&) const
FUNC 151c00 6e0 0 std::__1::num_get<wchar_t, std::__1::istreambuf_iterator<wchar_t, std::__1::char_traits<wchar_t> > >::do_get(std::__1::istreambuf_iterator<wchar_t, std::__1::char_traits<wchar_t> >, std::__1::istreambuf_iterator<wchar_t, std::__1::char_traits<wchar_t> >, std::__1::ios_base&, unsigned int&, long long&) const
FUNC 1522e0 6e0 0 std::__1::num_get<wchar_t, std::__1::istreambuf_iterator<wchar_t, std::__1::char_traits<wchar_t> > >::do_get(std::__1::istreambuf_iterator<wchar_t, std::__1::char_traits<wchar_t> >, std::__1::istreambuf_iterator<wchar_t, std::__1::char_traits<wchar_t> >, std::__1::ios_base&, unsigned int&, unsigned short&) const
FUNC 1529c0 6e0 0 std::__1::num_get<wchar_t, std::__1::istreambuf_iterator<wchar_t, std::__1::char_traits<wchar_t> > >::do_get(std::__1::istreambuf_iterator<wchar_t, std::__1::char_traits<wchar_t> >, std::__1::istreambuf_iterator<wchar_t, std::__1::char_traits<wchar_t> >, std::__1::ios_base&, unsigned int&, unsigned int&) const
FUNC 1530a0 6e0 0 std::__1::num_get<wchar_t, std::__1::istreambuf_iterator<wchar_t, std::__1::char_traits<wchar_t> > >::do_get(std::__1::istreambuf_iterator<wchar_t, std::__1::char_traits<wchar_t> >, std::__1::istreambuf_iterator<wchar_t, std::__1::char_traits<wchar_t> >, std::__1::ios_base&, unsigned int&, unsigned long&) const
FUNC 153780 6e0 0 std::__1::num_get<wchar_t, std::__1::istreambuf_iterator<wchar_t, std::__1::char_traits<wchar_t> > >::do_get(std::__1::istreambuf_iterator<wchar_t, std::__1::char_traits<wchar_t> >, std::__1::istreambuf_iterator<wchar_t, std::__1::char_traits<wchar_t> >, std::__1::ios_base&, unsigned int&, unsigned long long&) const
FUNC 153e60 6c0 0 std::__1::num_get<wchar_t, std::__1::istreambuf_iterator<wchar_t, std::__1::char_traits<wchar_t> > >::do_get(std::__1::istreambuf_iterator<wchar_t, std::__1::char_traits<wchar_t> >, std::__1::istreambuf_iterator<wchar_t, std::__1::char_traits<wchar_t> >, std::__1::ios_base&, unsigned int&, float&) const
FUNC 154520 6c0 0 std::__1::num_get<wchar_t, std::__1::istreambuf_iterator<wchar_t, std::__1::char_traits<wchar_t> > >::do_get(std::__1::istreambuf_iterator<wchar_t, std::__1::char_traits<wchar_t> >, std::__1::istreambuf_iterator<wchar_t, std::__1::char_traits<wchar_t> >, std::__1::ios_base&, unsigned int&, double&) const
FUNC 154be0 6c0 0 std::__1::num_get<wchar_t, std::__1::istreambuf_iterator<wchar_t, std::__1::char_traits<wchar_t> > >::do_get(std::__1::istreambuf_iterator<wchar_t, std::__1::char_traits<wchar_t> >, std::__1::istreambuf_iterator<wchar_t, std::__1::char_traits<wchar_t> >, std::__1::ios_base&, unsigned int&, long double&) const
FUNC 1552a0 840 0 std::__1::num_get<wchar_t, std::__1::istreambuf_iterator<wchar_t, std::__1::char_traits<wchar_t> > >::do_get(std::__1::istreambuf_iterator<wchar_t, std::__1::char_traits<wchar_t> >, std::__1::istreambuf_iterator<wchar_t, std::__1::char_traits<wchar_t> >, std::__1::ios_base&, unsigned int&, void*&) const
FUNC 155ae0 280 0 std::__1::__num_get<wchar_t>::__stage2_int_loop(wchar_t, int, char*, char*&, unsigned int&, wchar_t, std::__1::basic_string<char, std::__1::char_traits<char>, std::__1::allocator<char> > const&, unsigned int*, unsigned int*&, wchar_t*)
FUNC 155d60 240 0 std::__1::__num_get<char>::__stage2_int_prep(std::__1::ios_base&, char*, char&)
FUNC 155fa0 280 0 std::__1::__num_get<char>::__stage2_float_prep(std::__1::ios_base&, char*, char&, char&)
FUNC 156220 220 0 std::__1::__num_get<char>::__stage2_float_loop(char, bool&, char&, char*, char*&, char, char, std::__1::basic_string<char, std::__1::char_traits<char>, std::__1::allocator<char> > const&, unsigned int*, unsigned int*&, unsigned int&, char*)
FUNC 156440 240 0 std::__1::__num_get<wchar_t>::__stage2_int_prep(std::__1::ios_base&, wchar_t*, wchar_t&)
FUNC 156680 280 0 std::__1::__num_get<wchar_t>::__stage2_float_prep(std::__1::ios_base&, wchar_t*, wchar_t&, wchar_t&)
FUNC 156900 200 0 std::__1::__num_get<wchar_t>::__stage2_float_loop(wchar_t, bool&, char&, char*, char*&, wchar_t, wchar_t, std::__1::basic_string<char, std::__1::char_traits<char>, std::__1::allocator<char> > const&, unsigned int*, unsigned int*&, unsigned int&, wchar_t*)
FUNC 156b00 300 0 std::__1::num_put<char, std::__1::ostreambuf_iterator<char, std::__1::char_traits<char> > >::do_put(std::__1::ostreambuf_iterator<char, std::__1::char_traits<char> >, std::__1::ios_base&, char, bool) const
FUNC 156e00 280 0 std::__1::num_put<char, std::__1::ostreambuf_iterator<char, std::__1::char_traits<char> > >::do_put(std::__1::ostreambuf_iterator<char, std::__1::char_traits<char> >, std::__1::ios_base&, char, long) const
FUNC 157080 80 0 std::__1::__num_put_base::__format_int(char*, char const*, bool, unsigned int)
FUNC 157160 4c0 0 std::__1::__num_put<char>::__widen_and_group_int(char*, char*, char*, char*, char*&, char*&, std::__1::locale const&)
FUNC 157620 280 0 std::__1::num_put<char, std::__1::ostreambuf_iterator<char, std::__1::char_traits<char> > >::do_put(std::__1::ostreambuf_iterator<char, std::__1::char_traits<char> >, std::__1::ios_base&, char, long long) const
FUNC 1578a0 280 0 std::__1::num_put<char, std::__1::ostreambuf_iterator<char, std::__1::char_traits<char> > >::do_put(std::__1::ostreambuf_iterator<char, std::__1::char_traits<char> >, std::__1::ios_base&, char, unsigned long) const
FUNC 157b20 280 0 std::__1::num_put<char, std::__1::ostreambuf_iterator<char, std::__1::char_traits<char> > >::do_put(std::__1::ostreambuf_iterator<char, std::__1::char_traits<char> >, std::__1::ios_base&, char, unsigned long long) const
FUNC 157da0 5c0 0 std::__1::num_put<char, std::__1::ostreambuf_iterator<char, std::__1::char_traits<char> > >::do_put(std::__1::ostreambuf_iterator<char, std::__1::char_traits<char> >, std::__1::ios_base&, char, double) const
FUNC 158360 c0 0 std::__1::__num_put_base::__format_float(char*, char const*, unsigned int)
FUNC 1584e0 660 0 std::__1::__num_put<char>::__widen_and_group_float(char*, char*, char*, char*, char*&, char*&, std::__1::locale const&)
FUNC 158b40 5a0 0 std::__1::num_put<char, std::__1::ostreambuf_iterator<char, std::__1::char_traits<char> > >::do_put(std::__1::ostreambuf_iterator<char, std::__1::char_traits<char> >, std::__1::ios_base&, char, long double) const
FUNC 1590e0 2a0 0 std::__1::num_put<char, std::__1::ostreambuf_iterator<char, std::__1::char_traits<char> > >::do_put(std::__1::ostreambuf_iterator<char, std::__1::char_traits<char> >, std::__1::ios_base&, char, void const*) const
FUNC 159380 300 0 std::__1::num_put<wchar_t, std::__1::ostreambuf_iterator<wchar_t, std::__1::char_traits<wchar_t> > >::do_put(std::__1::ostreambuf_iterator<wchar_t, std::__1::char_traits<wchar_t> >, std::__1::ios_base&, wchar_t, bool) const
FUNC 159680 2a0 0 std::__1::num_put<wchar_t, std::__1::ostreambuf_iterator<wchar_t, std::__1::char_traits<wchar_t> > >::do_put(std::__1::ostreambuf_iterator<wchar_t, std::__1::char_traits<wchar_t> >, std::__1::ios_base&, wchar_t, long) const
FUNC 159920 4c0 0 std::__1::__num_put<wchar_t>::__widen_and_group_int(char*, char*, char*, wchar_t*, wchar_t*&, wchar_t*&, std::__1::locale const&)
FUNC 159de0 240 0 std::__1::ostreambuf_iterator<wchar_t, std::__1::char_traits<wchar_t> > std::__1::__pad_and_output<wchar_t, std::__1::char_traits<wchar_t> >(std::__1::ostreambuf_iterator<wchar_t, std::__1::char_traits<wchar_t> >, wchar_t const*, wchar_t const*, wchar_t const*, std::__1::ios_base&, wchar_t)
FUNC 15a020 2a0 0 std::__1::num_put<wchar_t, std::__1::ostreambuf_iterator<wchar_t, std::__1::char_traits<wchar_t> > >::do_put(std::__1::ostreambuf_iterator<wchar_t, std::__1::char_traits<wchar_t> >, std::__1::ios_base&, wchar_t, long long) const
FUNC 15a2c0 2a0 0 std::__1::num_put<wchar_t, std::__1::ostreambuf_iterator<wchar_t, std::__1::char_traits<wchar_t> > >::do_put(std::__1::ostreambuf_iterator<wchar_t, std::__1::char_traits<wchar_t> >, std::__1::ios_base&, wchar_t, unsigned long) const
FUNC 15a560 2a0 0 std::__1::num_put<wchar_t, std::__1::ostreambuf_iterator<wchar_t, std::__1::char_traits<wchar_t> > >::do_put(std::__1::ostreambuf_iterator<wchar_t, std::__1::char_traits<wchar_t> >, std::__1::ios_base&, wchar_t, unsigned long long) const
FUNC 15a800 5a0 0 std::__1::num_put<wchar_t, std::__1::ostreambuf_iterator<wchar_t, std::__1::char_traits<wchar_t> > >::do_put(std::__1::ostreambuf_iterator<wchar_t, std::__1::char_traits<wchar_t> >, std::__1::ios_base&, wchar_t, double) const
FUNC 15ada0 680 0 std::__1::__num_put<wchar_t>::__widen_and_group_float(char*, char*, char*, wchar_t*, wchar_t*&, wchar_t*&, std::__1::locale const&)
FUNC 15b420 5c0 0 std::__1::num_put<wchar_t, std::__1::ostreambuf_iterator<wchar_t, std::__1::char_traits<wchar_t> > >::do_put(std::__1::ostreambuf_iterator<wchar_t, std::__1::char_traits<wchar_t> >, std::__1::ios_base&, wchar_t, long double) const
FUNC 15b9e0 2e0 0 std::__1::num_put<wchar_t, std::__1::ostreambuf_iterator<wchar_t, std::__1::char_traits<wchar_t> > >::do_put(std::__1::ostreambuf_iterator<wchar_t, std::__1::char_traits<wchar_t> >, std::__1::ios_base&, wchar_t, void const*) const
FUNC 15bcc0 760 0 std::__1::time_get<char, std::__1::istreambuf_iterator<char, std::__1::char_traits<char> > >::get(std::__1::istreambuf_iterator<char, std::__1::char_traits<char> >, std::__1::istreambuf_iterator<char, std::__1::char_traits<char> >, std::__1::ios_base&, unsigned int&, tm*, char const*, char const*) const
FUNC 15c420 20 0 std::__1::time_get<char, std::__1::istreambuf_iterator<char, std::__1::char_traits<char> > >::do_date_order() const
FUNC 15c440 80 0 std::__1::time_get<char, std::__1::istreambuf_iterator<char, std::__1::char_traits<char> > >::do_get_time(std::__1::istreambuf_iterator<char, std::__1::char_traits<char> >, std::__1::istreambuf_iterator<char, std::__1::char_traits<char> >, std::__1::ios_base&, unsigned int&, tm*) const
FUNC 15c4c0 c0 0 std::__1::time_get<char, std::__1::istreambuf_iterator<char, std::__1::char_traits<char> > >::do_get_date(std::__1::istreambuf_iterator<char, std::__1::char_traits<char> >, std::__1::istreambuf_iterator<char, std::__1::char_traits<char> >, std::__1::ios_base&, unsigned int&, tm*) const
FUNC 15c580 1e0 0 std::__1::time_get<char, std::__1::istreambuf_iterator<char, std::__1::char_traits<char> > >::do_get_weekday(std::__1::istreambuf_iterator<char, std::__1::char_traits<char> >, std::__1::istreambuf_iterator<char, std::__1::char_traits<char> >, std::__1::ios_base&, unsigned int&, tm*) const
FUNC 15c760 1e0 0 std::__1::time_get<char, std::__1::istreambuf_iterator<char, std::__1::char_traits<char> > >::do_get_monthname(std::__1::istreambuf_iterator<char, std::__1::char_traits<char> >, std::__1::istreambuf_iterator<char, std::__1::char_traits<char> >, std::__1::ios_base&, unsigned int&, tm*) const
FUNC 15c940 180 0 std::__1::time_get<char, std::__1::istreambuf_iterator<char, std::__1::char_traits<char> > >::do_get_year(std::__1::istreambuf_iterator<char, std::__1::char_traits<char> >, std::__1::istreambuf_iterator<char, std::__1::char_traits<char> >, std::__1::ios_base&, unsigned int&, tm*) const
FUNC 15cac0 80 0 std::__1::time_get<char, std::__1::istreambuf_iterator<char, std::__1::char_traits<char> > >::__get_year(int&, std::__1::istreambuf_iterator<char, std::__1::char_traits<char> >&, std::__1::istreambuf_iterator<char, std::__1::char_traits<char> >, unsigned int&, std::__1::ctype<char> const&) const
FUNC 15cb40 1100 0 std::__1::time_get<char, std::__1::istreambuf_iterator<char, std::__1::char_traits<char> > >::do_get(std::__1::istreambuf_iterator<char, std::__1::char_traits<char> >, std::__1::istreambuf_iterator<char, std::__1::char_traits<char> >, std::__1::ios_base&, unsigned int&, tm*, char, char) const
FUNC 15dc40 3a0 0 int std::__1::__get_up_to_n_digits<char, std::__1::istreambuf_iterator<char, std::__1::char_traits<char> > >(std::__1::istreambuf_iterator<char, std::__1::char_traits<char> >&, std::__1::istreambuf_iterator<char, std::__1::char_traits<char> >, unsigned int&, std::__1::ctype<char> const&, int)
FUNC 15dfe0 7c0 0 std::__1::time_get<wchar_t, std::__1::istreambuf_iterator<wchar_t, std::__1::char_traits<wchar_t> > >::get(std::__1::istreambuf_iterator<wchar_t, std::__1::char_traits<wchar_t> >, std::__1::istreambuf_iterator<wchar_t, std::__1::char_traits<wchar_t> >, std::__1::ios_base&, unsigned int&, tm*, wchar_t const*, wchar_t const*) const
FUNC 15e7a0 20 0 std::__1::time_get<wchar_t, std::__1::istreambuf_iterator<wchar_t, std::__1::char_traits<wchar_t> > >::do_date_order() const
FUNC 15e7c0 80 0 std::__1::time_get<wchar_t, std::__1::istreambuf_iterator<wchar_t, std::__1::char_traits<wchar_t> > >::do_get_time(std::__1::istreambuf_iterator<wchar_t, std::__1::char_traits<wchar_t> >, std::__1::istreambuf_iterator<wchar_t, std::__1::char_traits<wchar_t> >, std::__1::ios_base&, unsigned int&, tm*) const
FUNC 15e840 c0 0 std::__1::time_get<wchar_t, std::__1::istreambuf_iterator<wchar_t, std::__1::char_traits<wchar_t> > >::do_get_date(std::__1::istreambuf_iterator<wchar_t, std::__1::char_traits<wchar_t> >, std::__1::istreambuf_iterator<wchar_t, std::__1::char_traits<wchar_t> >, std::__1::ios_base&, unsigned int&, tm*) const
FUNC 15e900 1e0 0 std::__1::time_get<wchar_t, std::__1::istreambuf_iterator<wchar_t, std::__1::char_traits<wchar_t> > >::do_get_weekday(std::__1::istreambuf_iterator<wchar_t, std::__1::char_traits<wchar_t> >, std::__1::istreambuf_iterator<wchar_t, std::__1::char_traits<wchar_t> >, std::__1::ios_base&, unsigned int&, tm*) const
FUNC 15eae0 1e0 0 std::__1::time_get<wchar_t, std::__1::istreambuf_iterator<wchar_t, std::__1::char_traits<wchar_t> > >::do_get_monthname(std::__1::istreambuf_iterator<wchar_t, std::__1::char_traits<wchar_t> >, std::__1::istreambuf_iterator<wchar_t, std::__1::char_traits<wchar_t> >, std::__1::ios_base&, unsigned int&, tm*) const
FUNC 15ecc0 180 0 std::__1::time_get<wchar_t, std::__1::istreambuf_iterator<wchar_t, std::__1::char_traits<wchar_t> > >::do_get_year(std::__1::istreambuf_iterator<wchar_t, std::__1::char_traits<wchar_t> >, std::__1::istreambuf_iterator<wchar_t, std::__1::char_traits<wchar_t> >, std::__1::ios_base&, unsigned int&, tm*) const
FUNC 15ee40 80 0 std::__1::time_get<wchar_t, std::__1::istreambuf_iterator<wchar_t, std::__1::char_traits<wchar_t> > >::__get_year(int&, std::__1::istreambuf_iterator<wchar_t, std::__1::char_traits<wchar_t> >&, std::__1::istreambuf_iterator<wchar_t, std::__1::char_traits<wchar_t> >, unsigned int&, std::__1::ctype<wchar_t> const&) const
FUNC 15eec0 1020 0 std::__1::time_get<wchar_t, std::__1::istreambuf_iterator<wchar_t, std::__1::char_traits<wchar_t> > >::do_get(std::__1::istreambuf_iterator<wchar_t, std::__1::char_traits<wchar_t> >, std::__1::istreambuf_iterator<wchar_t, std::__1::char_traits<wchar_t> >, std::__1::ios_base&, unsigned int&, tm*, char, char) const
FUNC 15fee0 400 0 int std::__1::__get_up_to_n_digits<wchar_t, std::__1::istreambuf_iterator<wchar_t, std::__1::char_traits<wchar_t> > >(std::__1::istreambuf_iterator<wchar_t, std::__1::char_traits<wchar_t> >&, std::__1::istreambuf_iterator<wchar_t, std::__1::char_traits<wchar_t> >, unsigned int&, std::__1::ctype<wchar_t> const&, int)
FUNC 1602e0 120 0 std::__1::time_put<char, std::__1::ostreambuf_iterator<char, std::__1::char_traits<char> > >::do_put(std::__1::ostreambuf_iterator<char, std::__1::char_traits<char> >, std::__1::ios_base&, char, tm const*, char, char) const
FUNC 160400 180 0 std::__1::time_put<wchar_t, std::__1::ostreambuf_iterator<wchar_t, std::__1::char_traits<wchar_t> > >::do_put(std::__1::ostreambuf_iterator<wchar_t, std::__1::char_traits<wchar_t> >, std::__1::ios_base&, wchar_t, tm const*, char, char) const
FUNC 160580 20 0 std::__1::moneypunct<char, false>::do_decimal_point() const
FUNC 1605a0 20 0 std::__1::moneypunct<char, false>::do_thousands_sep() const
FUNC 1605c0 20 0 std::__1::moneypunct<char, false>::do_grouping() const
FUNC 1605e0 20 0 std::__1::moneypunct<char, false>::do_curr_symbol() const
FUNC 160600 20 0 std::__1::moneypunct<char, false>::do_positive_sign() const
FUNC 160620 20 0 std::__1::moneypunct<char, false>::do_negative_sign() const
FUNC 160640 20 0 std::__1::moneypunct<char, false>::do_frac_digits() const
FUNC 160660 20 0 std::__1::moneypunct<char, false>::do_pos_format() const
FUNC 160680 20 0 std::__1::moneypunct<char, false>::do_neg_format() const
FUNC 1606a0 20 0 std::__1::moneypunct<char, true>::do_decimal_point() const
FUNC 1606c0 20 0 std::__1::moneypunct<char, true>::do_thousands_sep() const
FUNC 1606e0 20 0 std::__1::moneypunct<char, true>::do_grouping() const
FUNC 160700 20 0 std::__1::moneypunct<char, true>::do_curr_symbol() const
FUNC 160720 20 0 std::__1::moneypunct<char, true>::do_positive_sign() const
FUNC 160740 20 0 std::__1::moneypunct<char, true>::do_negative_sign() const
FUNC 160760 20 0 std::__1::moneypunct<char, true>::do_frac_digits() const
FUNC 160780 20 0 std::__1::moneypunct<char, true>::do_pos_format() const
FUNC 1607a0 20 0 std::__1::moneypunct<char, true>::do_neg_format() const
FUNC 1607c0 20 0 std::__1::moneypunct<wchar_t, false>::do_decimal_point() const
FUNC 1607e0 20 0 std::__1::moneypunct<wchar_t, false>::do_thousands_sep() const
FUNC 160800 20 0 std::__1::moneypunct<wchar_t, false>::do_grouping() const
FUNC 160820 20 0 std::__1::moneypunct<wchar_t, false>::do_curr_symbol() const
FUNC 160840 20 0 std::__1::moneypunct<wchar_t, false>::do_positive_sign() const
FUNC 160860 40 0 std::__1::moneypunct<wchar_t, false>::do_negative_sign() const
FUNC 1608a0 20 0 std::__1::moneypunct<wchar_t, false>::do_frac_digits() const
FUNC 1608c0 20 0 std::__1::moneypunct<wchar_t, false>::do_pos_format() const
FUNC 1608e0 20 0 std::__1::moneypunct<wchar_t, false>::do_neg_format() const
FUNC 160900 20 0 std::__1::moneypunct<wchar_t, true>::do_decimal_point() const
FUNC 160920 20 0 std::__1::moneypunct<wchar_t, true>::do_thousands_sep() const
FUNC 160940 20 0 std::__1::moneypunct<wchar_t, true>::do_grouping() const
FUNC 160960 20 0 std::__1::moneypunct<wchar_t, true>::do_curr_symbol() const
FUNC 160980 20 0 std::__1::moneypunct<wchar_t, true>::do_positive_sign() const
FUNC 1609a0 40 0 std::__1::moneypunct<wchar_t, true>::do_negative_sign() const
FUNC 1609e0 20 0 std::__1::moneypunct<wchar_t, true>::do_frac_digits() const
FUNC 160a00 20 0 std::__1::moneypunct<wchar_t, true>::do_pos_format() const
FUNC 160a20 20 0 std::__1::moneypunct<wchar_t, true>::do_neg_format() const
FUNC 160a40 700 0 std::__1::money_get<char, std::__1::istreambuf_iterator<char, std::__1::char_traits<char> > >::do_get(std::__1::istreambuf_iterator<char, std::__1::char_traits<char> >, std::__1::istreambuf_iterator<char, std::__1::char_traits<char> >, bool, std::__1::ios_base&, unsigned int&, long double&) const
FUNC 161140 20 0 std::__1::__do_nothing(void*)
FUNC 161160 25e0 0 std::__1::money_get<char, std::__1::istreambuf_iterator<char, std::__1::char_traits<char> > >::__do_get(std::__1::istreambuf_iterator<char, std::__1::char_traits<char> >&, std::__1::istreambuf_iterator<char, std::__1::char_traits<char> >, bool, std::__1::locale const&, unsigned int, unsigned int&, bool&, std::__1::ctype<char> const&, std::__1::unique_ptr<char, void (*)(void*)>&, char*&, char*)
FUNC 163740 100 0 std::__1::__throw_runtime_error(char const*)
FUNC 163840 540 0 std::__1::money_get<char, std::__1::istreambuf_iterator<char, std::__1::char_traits<char> > >::do_get(std::__1::istreambuf_iterator<char, std::__1::char_traits<char> >, std::__1::istreambuf_iterator<char, std::__1::char_traits<char> >, bool, std::__1::ios_base&, unsigned int&, std::__1::basic_string<char, std::__1::char_traits<char>, std::__1::allocator<char> >&) const
FUNC 163d80 140 0 void std::__1::__double_or_nothing<char>(std::__1::unique_ptr<char, void (*)(void*)>&, char*&, char*&)
FUNC 163ec0 140 0 void std::__1::__double_or_nothing<unsigned int>(std::__1::unique_ptr<unsigned int, void (*)(void*)>&, unsigned int*&, unsigned int*&)
FUNC 164000 100 0 std::__1::__check_grouping(std::__1::basic_string<char, std::__1::char_traits<char>, std::__1::allocator<char> > const&, unsigned int*, unsigned int*, unsigned int&)
FUNC 164100 6c0 0 std::__1::money_get<wchar_t, std::__1::istreambuf_iterator<wchar_t, std::__1::char_traits<wchar_t> > >::do_get(std::__1::istreambuf_iterator<wchar_t, std::__1::char_traits<wchar_t> >, std::__1::istreambuf_iterator<wchar_t, std::__1::char_traits<wchar_t> >, bool, std::__1::ios_base&, unsigned int&, long double&) const
FUNC 1647c0 2660 0 std::__1::money_get<wchar_t, std::__1::istreambuf_iterator<wchar_t, std::__1::char_traits<wchar_t> > >::__do_get(std::__1::istreambuf_iterator<wchar_t, std::__1::char_traits<wchar_t> >&, std::__1::istreambuf_iterator<wchar_t, std::__1::char_traits<wchar_t> >, bool, std::__1::locale const&, unsigned int, unsigned int&, bool&, std::__1::ctype<wchar_t> const&, std::__1::unique_ptr<wchar_t, void (*)(void*)>&, wchar_t*&, wchar_t*)
FUNC 166e20 560 0 std::__1::money_get<wchar_t, std::__1::istreambuf_iterator<wchar_t, std::__1::char_traits<wchar_t> > >::do_get(std::__1::istreambuf_iterator<wchar_t, std::__1::char_traits<wchar_t> >, std::__1::istreambuf_iterator<wchar_t, std::__1::char_traits<wchar_t> >, bool, std::__1::ios_base&, unsigned int&, std::__1::basic_string<wchar_t, std::__1::char_traits<wchar_t>, std::__1::allocator<wchar_t> >&) const
FUNC 167380 140 0 void std::__1::__double_or_nothing<wchar_t>(std::__1::unique_ptr<wchar_t, void (*)(void*)>&, wchar_t*&, wchar_t*&)
FUNC 1674c0 960 0 std::__1::money_put<char, std::__1::ostreambuf_iterator<char, std::__1::char_traits<char> > >::do_put(std::__1::ostreambuf_iterator<char, std::__1::char_traits<char> >, bool, std::__1::ios_base&, char, long double) const
FUNC 167e20 820 0 std::__1::__money_put<char>::__gather_info(bool, bool, std::__1::locale const&, std::__1::money_base::pattern&, char&, char&, std::__1::basic_string<char, std::__1::char_traits<char>, std::__1::allocator<char> >&, std::__1::basic_string<char, std::__1::char_traits<char>, std::__1::allocator<char> >&, std::__1::basic_string<char, std::__1::char_traits<char>, std::__1::allocator<char> >&, int&)
FUNC 168640 5e0 0 std::__1::__money_put<char>::__format(char*, char*&, char*&, unsigned int, char const*, char const*, std::__1::ctype<char> const&, bool, std::__1::money_base::pattern const&, char, char, std::__1::basic_string<char, std::__1::char_traits<char>, std::__1::allocator<char> > const&, std::__1::basic_string<char, std::__1::char_traits<char>, std::__1::allocator<char> > const&, std::__1::basic_string<char, std::__1::char_traits<char>, std::__1::allocator<char> > const&, int)
FUNC 168c20 740 0 std::__1::money_put<char, std::__1::ostreambuf_iterator<char, std::__1::char_traits<char> > >::do_put(std::__1::ostreambuf_iterator<char, std::__1::char_traits<char> >, bool, std::__1::ios_base&, char, std::__1::basic_string<char, std::__1::char_traits<char>, std::__1::allocator<char> > const&) const
FUNC 169360 960 0 std::__1::money_put<wchar_t, std::__1::ostreambuf_iterator<wchar_t, std::__1::char_traits<wchar_t> > >::do_put(std::__1::ostreambuf_iterator<wchar_t, std::__1::char_traits<wchar_t> >, bool, std::__1::ios_base&, wchar_t, long double) const
FUNC 169cc0 8a0 0 std::__1::__money_put<wchar_t>::__gather_info(bool, bool, std::__1::locale const&, std::__1::money_base::pattern&, wchar_t&, wchar_t&, std::__1::basic_string<char, std::__1::char_traits<char>, std::__1::allocator<char> >&, std::__1::basic_string<wchar_t, std::__1::char_traits<wchar_t>, std::__1::allocator<wchar_t> >&, std::__1::basic_string<wchar_t, std::__1::char_traits<wchar_t>, std::__1::allocator<wchar_t> >&, int&)
FUNC 16a560 5a0 0 std::__1::__money_put<wchar_t>::__format(wchar_t*, wchar_t*&, wchar_t*&, unsigned int, wchar_t const*, wchar_t const*, std::__1::ctype<wchar_t> const&, bool, std::__1::money_base::pattern const&, wchar_t, wchar_t, std::__1::basic_string<char, std::__1::char_traits<char>, std::__1::allocator<char> > const&, std::__1::basic_string<wchar_t, std::__1::char_traits<wchar_t>, std::__1::allocator<wchar_t> > const&, std::__1::basic_string<wchar_t, std::__1::char_traits<wchar_t>, std::__1::allocator<wchar_t> > const&, int)
FUNC 16ab00 740 0 std::__1::money_put<wchar_t, std::__1::ostreambuf_iterator<wchar_t, std::__1::char_traits<wchar_t> > >::do_put(std::__1::ostreambuf_iterator<wchar_t, std::__1::char_traits<wchar_t> >, bool, std::__1::ios_base&, wchar_t, std::__1::basic_string<wchar_t, std::__1::char_traits<wchar_t>, std::__1::allocator<wchar_t> > const&) const
FUNC 16b240 20 0 std::__1::messages<char>::do_open(std::__1::basic_string<char, std::__1::char_traits<char>, std::__1::allocator<char> > const&, std::__1::locale const&) const
FUNC 16b260 40 0 std::__1::messages<char>::do_get(int, int, int, std::__1::basic_string<char, std::__1::char_traits<char>, std::__1::allocator<char> > const&) const
FUNC 16b2a0 20 0 std::__1::messages<char>::do_close(int) const
FUNC 16b2c0 20 0 std::__1::messages<wchar_t>::do_open(std::__1::basic_string<char, std::__1::char_traits<char>, std::__1::allocator<char> > const&, std::__1::locale const&) const
FUNC 16b2e0 40 0 std::__1::messages<wchar_t>::do_get(int, int, int, std::__1::basic_string<wchar_t, std::__1::char_traits<wchar_t>, std::__1::allocator<wchar_t> > const&) const
FUNC 16b320 20 0 std::__1::messages<wchar_t>::do_close(int) const
FUNC 16b340 100 0 std::__1::__vector_base_common<true>::__throw_length_error() const
FUNC 16b440 d00 0 std::__1::locale::__imp::__imp(unsigned int)
FUNC 16c140 e0 0 std::__1::vector<std::__1::locale::facet*, std::__1::__sso_allocator<std::__1::locale::facet*, 28u> >::vector(unsigned int)
FUNC 16c220 60 0 std::__1::__vector_base<std::__1::locale::facet*, std::__1::__sso_allocator<std::__1::locale::facet*, 28u> >::~__vector_base()
FUNC 16c280 e0 0 std::__1::locale::classic()
FUNC 16c360 360 0 std::__1::locale::__imp::install(std::__1::locale::facet*, long)
FUNC 16c6c0 c0 0 std::__1::locale::__imp::~__imp()
FUNC 16c780 40 0 std::__1::locale::__imp::~__imp()
FUNC 16c7c0 60 0 std::__1::locale::__imp::use_facet(long) const
FUNC 16c820 e0 0 std::__1::locale::__global()
FUNC 16c900 140 0 std::__1::locale::id::__get()
FUNC 16ca40 20 0 std::__1::locale::facet::~facet()
FUNC 16ca60 20 0 std::__1::locale::facet::__on_zero_shared()
FUNC 16ca80 20 0 std::__1::locale::id::__init()
FUNC 16caa0 20 0 std::__1::ctype<wchar_t>::~ctype()
FUNC 16cac0 40 0 std::__1::ctype<wchar_t>::do_is(char, wchar_t) const
FUNC 16cb00 60 0 std::__1::ctype<wchar_t>::do_is(wchar_t const*, wchar_t const*, char*) const
FUNC 16cb60 40 0 std::__1::ctype<wchar_t>::do_scan_is(char, wchar_t const*, wchar_t const*) const
FUNC 16cba0 40 0 std::__1::ctype<wchar_t>::do_scan_not(char, wchar_t const*, wchar_t const*) const
FUNC 16cbe0 80 0 std::__1::ctype<wchar_t>::do_toupper(wchar_t) const
FUNC 16cc60 c0 0 std::__1::ctype<wchar_t>::do_toupper(wchar_t*, wchar_t const*) const
FUNC 16cd20 60 0 std::__1::ctype<wchar_t>::do_tolower(wchar_t) const
FUNC 16cd80 c0 0 std::__1::ctype<wchar_t>::do_tolower(wchar_t*, wchar_t const*) const
FUNC 16ce40 20 0 std::__1::ctype<wchar_t>::do_widen(char) const
FUNC 16ce60 40 0 std::__1::ctype<wchar_t>::do_widen(char const*, char const*, wchar_t*) const
FUNC 16cea0 20 0 std::__1::ctype<wchar_t>::do_narrow(wchar_t, char) const
FUNC 16cec0 60 0 std::__1::ctype<wchar_t>::do_narrow(wchar_t const*, wchar_t const*, char, char*) const
FUNC 16cf20 60 0 <name omitted>
FUNC 16cf80 60 0 std::__1::ctype<char>::~ctype()
FUNC 16cfe0 60 0 std::__1::ctype<char>::do_toupper(char) const
FUNC 16d040 a0 0 std::__1::ctype<char>::do_toupper(char*, char const*) const
FUNC 16d0e0 60 0 std::__1::ctype<char>::do_tolower(char) const
FUNC 16d140 a0 0 std::__1::ctype<char>::do_tolower(char*, char const*) const
FUNC 16d1e0 20 0 std::__1::ctype<char>::do_widen(char) const
FUNC 16d200 40 0 std::__1::ctype<char>::do_widen(char const*, char const*, char*) const
FUNC 16d240 20 0 std::__1::ctype<char>::do_narrow(char, char) const
FUNC 16d260 40 0 std::__1::ctype<char>::do_narrow(char const*, char const*, char, char*) const
FUNC 16d2a0 20 0 std::__1::codecvt<char, char, _mbstate_t>::~codecvt()
FUNC 16d2c0 40 0 std::__1::codecvt<char, char, _mbstate_t>::do_out(_mbstate_t&, char const*, char const*, char const*&, char*, char*, char*&) const
FUNC 16d300 40 0 std::__1::codecvt<char, char, _mbstate_t>::do_in(_mbstate_t&, char const*, char const*, char const*&, char*, char*, char*&) const
FUNC 16d340 20 0 std::__1::codecvt<char, char, _mbstate_t>::do_unshift(_mbstate_t&, char*, char*, char*&) const
FUNC 16d360 20 0 std::__1::codecvt<char, char, _mbstate_t>::do_encoding() const
FUNC 16d380 20 0 std::__1::codecvt<char, char, _mbstate_t>::do_always_noconv() const
FUNC 16d3a0 20 0 std::__1::codecvt<char, char, _mbstate_t>::do_length(_mbstate_t&, char const*, char const*, unsigned int) const
FUNC 16d3c0 20 0 std::__1::codecvt<char, char, _mbstate_t>::do_max_length() const
FUNC 16d3e0 80 0 std::__1::codecvt<wchar_t, char, _mbstate_t>::codecvt(unsigned int)
FUNC 16d460 60 0 std::__1::codecvt<wchar_t, char, _mbstate_t>::~codecvt()
FUNC 16d4c0 1e0 0 std::__1::codecvt<wchar_t, char, _mbstate_t>::do_out(_mbstate_t&, wchar_t const*, wchar_t const*, wchar_t const*&, char*, char*, char*&) const
FUNC 16d6a0 1e0 0 std::__1::codecvt<wchar_t, char, _mbstate_t>::do_in(_mbstate_t&, char const*, char const*, char const*&, wchar_t*, wchar_t*, wchar_t*&) const
FUNC 16d880 20 0 std::__1::codecvt<wchar_t, char, _mbstate_t>::do_unshift(_mbstate_t&, char*, char*, char*&) const
FUNC 16d8a0 20 0 std::__1::codecvt<wchar_t, char, _mbstate_t>::do_encoding() const
FUNC 16d8c0 20 0 std::__1::codecvt<wchar_t, char, _mbstate_t>::do_always_noconv() const
FUNC 16d8e0 60 0 std::__1::codecvt<wchar_t, char, _mbstate_t>::do_length(_mbstate_t&, char const*, char const*, unsigned int) const
FUNC 16d940 20 0 std::__1::codecvt<wchar_t, char, _mbstate_t>::do_max_length() const
FUNC 16d960 20 0 std::__1::codecvt<char16_t, char, _mbstate_t>::~codecvt()
FUNC 16d980 260 0 std::__1::codecvt<char16_t, char, _mbstate_t>::do_out(_mbstate_t&, char16_t const*, char16_t const*, char16_t const*&, char*, char*, char*&) const
FUNC 16dbe0 2a0 0 std::__1::codecvt<char16_t, char, _mbstate_t>::do_in(_mbstate_t&, char const*, char const*, char const*&, char16_t*, char16_t*, char16_t*&) const
FUNC 16de80 20 0 std::__1::codecvt<char16_t, char, _mbstate_t>::do_unshift(_mbstate_t&, char*, char*, char*&) const
FUNC 16dea0 20 0 std::__1::codecvt<char16_t, char, _mbstate_t>::do_encoding() const
FUNC 16dec0 20 0 std::__1::codecvt<char16_t, char, _mbstate_t>::do_always_noconv() const
FUNC 16dee0 200 0 std::__1::codecvt<char16_t, char, _mbstate_t>::do_length(_mbstate_t&, char const*, char const*, unsigned int) const
FUNC 16e0e0 20 0 std::__1::codecvt<char16_t, char, _mbstate_t>::do_max_length() const
FUNC 16e100 20 0 std::__1::codecvt<char32_t, char, _mbstate_t>::~codecvt()
FUNC 16e120 180 0 std::__1::codecvt<char32_t, char, _mbstate_t>::do_out(_mbstate_t&, char32_t const*, char32_t const*, char32_t const*&, char*, char*, char*&) const
FUNC 16e2a0 260 0 std::__1::codecvt<char32_t, char, _mbstate_t>::do_in(_mbstate_t&, char const*, char const*, char const*&, char32_t*, char32_t*, char32_t*&) const
FUNC 16e500 20 0 std::__1::codecvt<char32_t, char, _mbstate_t>::do_unshift(_mbstate_t&, char*, char*, char*&) const
FUNC 16e520 20 0 std::__1::codecvt<char32_t, char, _mbstate_t>::do_encoding() const
FUNC 16e540 20 0 std::__1::codecvt<char32_t, char, _mbstate_t>::do_always_noconv() const
FUNC 16e560 200 0 std::__1::codecvt<char32_t, char, _mbstate_t>::do_length(_mbstate_t&, char const*, char const*, unsigned int) const
FUNC 16e760 20 0 std::__1::codecvt<char32_t, char, _mbstate_t>::do_max_length() const
FUNC 16e780 60 0 <name omitted>
FUNC 16e7e0 60 0 std::__1::numpunct<char>::~numpunct()
FUNC 16e840 60 0 <name omitted>
FUNC 16e8a0 60 0 std::__1::numpunct<wchar_t>::~numpunct()
FUNC 16e900 20 0 std::__1::numpunct<char>::do_decimal_point() const
FUNC 16e920 20 0 std::__1::numpunct<wchar_t>::do_decimal_point() const
FUNC 16e940 20 0 std::__1::numpunct<char>::do_thousands_sep() const
FUNC 16e960 20 0 std::__1::numpunct<wchar_t>::do_thousands_sep() const
FUNC 16e980 40 0 std::__1::numpunct<char>::do_grouping() const
FUNC 16e9c0 40 0 std::__1::numpunct<wchar_t>::do_grouping() const
FUNC 16ea00 20 0 std::__1::numpunct<char>::do_truename() const
FUNC 16ea20 40 0 std::__1::numpunct<wchar_t>::do_truename() const
FUNC 16ea60 20 0 std::__1::numpunct<char>::do_falsename() const
FUNC 16ea80 40 0 std::__1::numpunct<wchar_t>::do_falsename() const
FUNC 16eac0 820 0 std::__1::__time_get_c_storage<char>::__weeks() const
FUNC 16f2e0 2e0 0 std::__1::__time_get_c_storage<wchar_t>::__weeks() const
FUNC 16f5c0 d20 0 std::__1::__time_get_c_storage<char>::__months() const
FUNC 1702e0 420 0 std::__1::__time_get_c_storage<wchar_t>::__months() const
FUNC 170700 220 0 std::__1::__time_get_c_storage<char>::__am_pm() const
FUNC 170920 160 0 std::__1::__time_get_c_storage<wchar_t>::__am_pm() const
FUNC 170a80 c0 0 std::__1::__time_get_c_storage<char>::__x() const
FUNC 170b40 100 0 std::__1::__time_get_c_storage<wchar_t>::__x() const
FUNC 170c40 c0 0 std::__1::__time_get_c_storage<char>::__X() const
FUNC 170d00 100 0 std::__1::__time_get_c_storage<wchar_t>::__X() const
FUNC 170e00 100 0 std::__1::__time_get_c_storage<char>::__c() const
FUNC 170f00 100 0 std::__1::__time_get_c_storage<wchar_t>::__c() const
FUNC 171000 100 0 std::__1::__time_get_c_storage<char>::__r() const
FUNC 171100 100 0 std::__1::__time_get_c_storage<wchar_t>::__r() const
FUNC 171200 40 0 std::__1::codecvt<wchar_t, char, _mbstate_t>::~codecvt()
FUNC 171240 e0 0 long double std::__1::__num_get_float<long double>(char const*, char const*, unsigned int&)
FUNC 171320 e0 0 double std::__1::__num_get_float<double>(char const*, char const*, unsigned int&)
FUNC 171400 100 0 float std::__1::__num_get_float<float>(char const*, char const*, unsigned int&)
FUNC 171500 120 0 unsigned long long std::__1::__num_get_unsigned_integral<unsigned long long>(char const*, char const*, unsigned int&, int)
FUNC 171620 100 0 unsigned long std::__1::__num_get_unsigned_integral<unsigned long>(char const*, char const*, unsigned int&, int)
FUNC 171720 100 0 unsigned int std::__1::__num_get_unsigned_integral<unsigned int>(char const*, char const*, unsigned int&, int)
FUNC 171820 120 0 unsigned short std::__1::__num_get_unsigned_integral<unsigned short>(char const*, char const*, unsigned int&, int)
FUNC 171940 140 0 long long std::__1::__num_get_signed_integral<long long>(char const*, char const*, unsigned int&, int)
FUNC 171a80 160 0 long std::__1::__num_get_signed_integral<long>(char const*, char const*, unsigned int&, int)
FUNC 171be0 e0 0 std::__1::basic_string<wchar_t, std::__1::char_traits<wchar_t>, std::__1::allocator<wchar_t> >::__init<const wchar_t *>
FUNC 171cc0 c0 0 std::__1::basic_string<char, std::__1::char_traits<char>, std::__1::allocator<char> >::__init<const char *>
FUNC 171d80 80 0 std::__1::vector<std::__1::locale::facet*, std::__1::__sso_allocator<std::__1::locale::facet*, 28u> >::allocate(unsigned int)
FUNC 171e00 200 0 __cxx_global_array_dtor108
FUNC 172000 200 0 __cxx_global_array_dtor93
FUNC 172200 340 0 __cxx_global_array_dtor69
FUNC 172540 340 0 __cxx_global_array_dtor45
FUNC 172880 340 0 __cxx_global_array_dtor42
FUNC 172bc0 340 0 __cxx_global_array_dtor
FUNC 172f00 20 0 std::__1::__shared_count::~__shared_count()
FUNC 172f20 20 0 std::__1::error_category::default_error_condition(int) const
FUNC 172f40 80 0 std::__1::error_category::equivalent(int, std::__1::error_condition const&) const
FUNC 172fc0 40 0 std::__1::error_category::equivalent(std::__1::error_code const&, int) const
FUNC 173000 20 0 std::__1::__generic_error_category::name() const
FUNC 173020 80 0 std::__1::__generic_error_category::message(int) const
FUNC 1730a0 60 0 std::__1::generic_category()
FUNC 173100 20 0 std::__1::__system_error_category::name() const
FUNC 173120 80 0 std::__1::__system_error_category::message(int) const
FUNC 1731a0 40 0 std::__1::__system_error_category::default_error_condition(int) const
FUNC 1731e0 60 0 std::__1::system_category()
FUNC 173240 1a0 0 std::__1::system_error::__init(std::__1::error_code const&, std::__1::basic_string<char, std::__1::char_traits<char>, std::__1::allocator<char> >)
FUNC 1733e0 240 0 std::__1::system_error::system_error(std::__1::error_code, char const*)
FUNC 173620 1e0 0 std::__1::system_error::system_error(std::__1::error_code)
FUNC 173800 60 0 <name omitted>
FUNC 173860 60 0 std::__1::system_error::~system_error()
FUNC 1738c0 100 0 std::__1::__throw_system_error(int, char const*)
FUNC 1739c0 20 0 std::__1::error_category::~error_category()
FUNC 1739e0 20 0 std::__1::__generic_error_category::~__generic_error_category()
FUNC 173a00 20 0 std::__1::__system_error_category::~__system_error_category()
FUNC 173a20 140 0 std::__1::chrono::steady_clock::now()
FUNC 173b60 180 0 std::__1::ios_base::clear(unsigned int)
FUNC 173ce0 160 0 std::__1::ios_base::~ios_base()
FUNC 173e40 100 0 std::__1::ios_base::init(void*)
FUNC 173f40 20 0 std::__1::basic_streambuf<char, std::__1::char_traits<char> >::imbue(std::__1::locale const&)
FUNC 173f60 20 0 std::__1::basic_streambuf<char, std::__1::char_traits<char> >::setbuf(char*, int)
FUNC 173f80 40 0 std::__1::basic_streambuf<char, std::__1::char_traits<char> >::seekoff(long long, std::__1::ios_base::seekdir, unsigned int)
FUNC 173fc0 40 0 std::__1::basic_streambuf<char, std::__1::char_traits<char> >::seekpos(std::__1::fpos<_mbstate_t>, unsigned int)
FUNC 174000 20 0 std::__1::basic_streambuf<char, std::__1::char_traits<char> >::sync()
FUNC 174020 20 0 std::__1::basic_streambuf<char, std::__1::char_traits<char> >::showmanyc()
FUNC 174040 80 0 std::__1::basic_streambuf<char, std::__1::char_traits<char> >::xsgetn(char*, int)
FUNC 1740c0 20 0 std::__1::basic_streambuf<char, std::__1::char_traits<char> >::underflow()
FUNC 1740e0 60 0 std::__1::basic_streambuf<char, std::__1::char_traits<char> >::uflow()
FUNC 174140 20 0 std::__1::basic_streambuf<char, std::__1::char_traits<char> >::pbackfail(int)
FUNC 174160 80 0 std::__1::basic_streambuf<char, std::__1::char_traits<char> >::xsputn(char const*, int)
FUNC 1741e0 20 0 std::__1::basic_streambuf<char, std::__1::char_traits<char> >::overflow(int)
FUNC 174200 240 0 std::__1::basic_ostream<char, std::__1::char_traits<char> >::flush()
FUNC 174440 40 0 <name omitted>
FUNC 174480 40 0 virtual thunk to std::__1::basic_ostream<char, std::__1::char_traits<char> >::~basic_ostream()
FUNC 1744c0 40 0 <name omitted>
FUNC 174500 60 0 virtual thunk to std::__1::basic_ostream<char, std::__1::char_traits<char> >::~basic_ostream()
FUNC 174560 4a0 0 std::__1::basic_ostream<char, std::__1::char_traits<char> >::operator<<(bool)
FUNC 174a00 4c0 0 std::__1::basic_ostream<char, std::__1::char_traits<char> >::operator<<(int)
FUNC 174ec0 4c0 0 std::__1::basic_ostream<char, std::__1::char_traits<char> >::operator<<(unsigned int)
FUNC 175380 4c0 0 std::__1::basic_ostream<char, std::__1::char_traits<char> >::operator<<(float)
FUNC 175840 4a0 0 std::__1::basic_ostream<char, std::__1::char_traits<char> >::operator<<(double)
FUNC 175ce0 4c0 0 std::__1::basic_ostream<char, std::__1::char_traits<char> >::operator<<(void const*)
FUNC 1761a0 240 0 std::__1::basic_ostream<char, std::__1::char_traits<char> >::write(char const*, int)
FUNC 1763e0 20 0 std::__1::__iostream_category::name() const
FUNC 176400 a0 0 std::__1::__iostream_category::message(int) const
FUNC 1764a0 60 0 <name omitted>
FUNC 176500 60 0 std::__1::ios_base::failure::~failure()
FUNC 176560 40 0 std::__1::ios_base::~ios_base()
FUNC 1765a0 20 0 std::__1::__iostream_category::~__iostream_category()
FUNC 1765c0 1a0 0 std::__1::__basic_string_common<true>::__throw_length_error() const
FUNC 176760 1a0 0 std::__1::__basic_string_common<true>::__throw_out_of_range() const
FUNC 176900 c0 0 std::__1::basic_string<char, std::__1::char_traits<char>, std::__1::allocator<char> >::__init(char const*, unsigned int)
FUNC 1769c0 c0 0 std::__1::basic_string<char, std::__1::char_traits<char>, std::__1::allocator<char> >::__init(unsigned int, char)
FUNC 176a80 c0 0 std::__1::basic_string<char, std::__1::char_traits<char>, std::__1::allocator<char> >::assign(char const*, unsigned int)
FUNC 176b40 120 0 std::__1::basic_string<char, std::__1::char_traits<char>, std::__1::allocator<char> >::resize(unsigned int, char)
FUNC 176c60 240 0 std::__1::basic_string<char, std::__1::char_traits<char>, std::__1::allocator<char> >::reserve(unsigned int)
FUNC 176ea0 80 0 std::__1::basic_string<char, std::__1::char_traits<char>, std::__1::allocator<char> >::push_back(char)
FUNC 176f20 100 0 std::__1::basic_string<char, std::__1::char_traits<char>, std::__1::allocator<char> >::append(char const*, unsigned int)
FUNC 177020 1e0 0 std::__1::basic_string<char, std::__1::char_traits<char>, std::__1::allocator<char> >::__grow_by_and_replace(unsigned int, unsigned int, unsigned int, unsigned int, unsigned int, unsigned int, char const*)
FUNC 177200 120 0 std::__1::basic_string<char, std::__1::char_traits<char>, std::__1::allocator<char> >::__grow_by(unsigned int, unsigned int, unsigned int, unsigned int, unsigned int, unsigned int)
FUNC 177320 a0 0 std::__1::basic_string<char, std::__1::char_traits<char>, std::__1::allocator<char> >::erase(unsigned int, unsigned int)
FUNC 1773c0 a0 0 std::__1::basic_string<char, std::__1::char_traits<char>, std::__1::allocator<char> >::compare(unsigned int, unsigned int, char const*, unsigned int) const
FUNC 177460 80 0 std::__1::basic_string<char, std::__1::char_traits<char>, std::__1::allocator<char> >::compare(char const*) const
FUNC 1774e0 c0 0 std::__1::basic_string<char, std::__1::char_traits<char>, std::__1::allocator<char> >::__init(char const*, unsigned int, unsigned int)
FUNC 1775a0 c0 0 std::__1::basic_string<wchar_t, std::__1::char_traits<wchar_t>, std::__1::allocator<wchar_t> >::__init(wchar_t const*, unsigned int)
FUNC 177660 c0 0 std::__1::basic_string<wchar_t, std::__1::char_traits<wchar_t>, std::__1::allocator<wchar_t> >::__init(unsigned int, wchar_t)
FUNC 177720 1a0 0 std::__1::basic_string<wchar_t, std::__1::char_traits<wchar_t>, std::__1::allocator<wchar_t> >::assign(wchar_t const*)
FUNC 1778c0 220 0 std::__1::basic_string<wchar_t, std::__1::char_traits<wchar_t>, std::__1::allocator<wchar_t> >::reserve(unsigned int)
FUNC 177ae0 80 0 std::__1::basic_string<wchar_t, std::__1::char_traits<wchar_t>, std::__1::allocator<wchar_t> >::push_back(wchar_t)
FUNC 177b60 160 0 std::__1::basic_string<wchar_t, std::__1::char_traits<wchar_t>, std::__1::allocator<wchar_t> >::__grow_by(unsigned int, unsigned int, unsigned int, unsigned int, unsigned int, unsigned int)
FUNC 177cc0 60 0 std::logic_error::~logic_error()
FUNC 177d20 60 0 std::logic_error::~logic_error()
FUNC 177d80 20 0 std::logic_error::what() const
FUNC 177da0 60 0 std::runtime_error::~runtime_error()
FUNC 177e00 60 0 std::runtime_error::~runtime_error()
FUNC 177e60 20 0 std::runtime_error::what() const
FUNC 177e80 60 0 std::length_error::~length_error()
FUNC 177ee0 60 0 std::out_of_range::~out_of_range()
FUNC 177f40 60 0 std::overflow_error::~overflow_error()
FUNC 177fa0 a0 0 std::__terminate(void (*)())
FUNC 178040 60 0 std::terminate()
FUNC 1780a0 20 0 __cxa_pure_virtual
FUNC 1780c0 180 0 __cxa_allocate_exception
FUNC 178240 c0 0 __cxa_throw
FUNC 178300 a0 0 __cxa_begin_catch
FUNC 1783a0 e0 0 __cxa_end_catch
FUNC 178480 e0 0 __cxa_decrement_exception_refcount
FUNC 178560 c0 0 __cxa_rethrow
FUNC 178620 120 0 __cxxabiv1::do_free(void*)
FUNC 178740 40 0 __cxxabiv1::exception_cleanup_func(_Unwind_Reason_Code, _Unwind_Exception*)
FUNC 178780 20 0 __cxxabiv1::__shim_type_info::~__shim_type_info()
FUNC 1787a0 20 0 __cxxabiv1::__shim_type_info::noop1() const
FUNC 1787c0 20 0 __cxxabiv1::__shim_type_info::noop2() const
FUNC 1787e0 20 0 __cxxabiv1::__fundamental_type_info::~__fundamental_type_info()
FUNC 178800 20 0 __cxxabiv1::__function_type_info::~__function_type_info()
FUNC 178820 20 0 __cxxabiv1::__class_type_info::~__class_type_info()
FUNC 178840 20 0 __cxxabiv1::__si_class_type_info::~__si_class_type_info()
FUNC 178860 20 0 __cxxabiv1::__vmi_class_type_info::~__vmi_class_type_info()
FUNC 178880 20 0 __cxxabiv1::__pointer_type_info::~__pointer_type_info()
FUNC 1788a0 20 0 __cxxabiv1::__fundamental_type_info::can_catch(__cxxabiv1::__shim_type_info const*, void*&) const
FUNC 1788c0 20 0 __cxxabiv1::__function_type_info::can_catch(__cxxabiv1::__shim_type_info const*, void*&) const
FUNC 1788e0 100 0 __cxxabiv1::__class_type_info::can_catch(__cxxabiv1::__shim_type_info const*, void*&) const
FUNC 1789e0 60 0 __cxxabiv1::__class_type_info::has_unambiguous_public_base(__cxxabiv1::__dynamic_cast_info*, void*, int) const
FUNC 178a40 80 0 __cxxabiv1::__si_class_type_info::has_unambiguous_public_base(__cxxabiv1::__dynamic_cast_info*, void*, int) const
FUNC 178ac0 180 0 __cxxabiv1::__vmi_class_type_info::has_unambiguous_public_base(__cxxabiv1::__dynamic_cast_info*, void*, int) const
FUNC 178c40 1a0 0 __cxxabiv1::__pointer_type_info::can_catch(__cxxabiv1::__shim_type_info const*, void*&) const
FUNC 178de0 180 0 __dynamic_cast
FUNC 178f60 80 0 __cxxabiv1::__class_type_info::process_static_type_above_dst(__cxxabiv1::__dynamic_cast_info*, void const*, void const*, int) const
FUNC 178fe0 420 0 __cxxabiv1::__vmi_class_type_info::search_below_dst(__cxxabiv1::__dynamic_cast_info*, void const*, int, bool) const
FUNC 179400 140 0 __cxxabiv1::__si_class_type_info::search_below_dst(__cxxabiv1::__dynamic_cast_info*, void const*, int, bool) const
FUNC 179540 80 0 __cxxabiv1::__class_type_info::search_below_dst(__cxxabiv1::__dynamic_cast_info*, void const*, int, bool) const
FUNC 1795c0 1c0 0 __cxxabiv1::__vmi_class_type_info::search_above_dst(__cxxabiv1::__dynamic_cast_info*, void const*, void const*, int, bool) const
FUNC 179780 a0 0 __cxxabiv1::__si_class_type_info::search_above_dst(__cxxabiv1::__dynamic_cast_info*, void const*, void const*, int, bool) const
FUNC 179820 60 0 __cxxabiv1::__class_type_info::search_above_dst(__cxxabiv1::__dynamic_cast_info*, void const*, void const*, int, bool) const
FUNC 179880 20 0 default_unexpected_handler()
FUNC 1798a0 160 0 default_terminate_handler()
FUNC 179a00 20 0 std::bad_cast::~bad_cast()
FUNC 179a20 20 0 std::bad_cast::~bad_cast()
FUNC 179a40 20 0 std::bad_cast::what() const
FUNC 179a60 220 0 __gxx_personality_v0
FUNC 179c80 4e0 0 __cxa_call_unexpected
FUNC 17a160 7a0 0 __cxxabiv1::scan_eh_tab(__cxxabiv1::(anonymous namespace)::scan_results&, int, bool, _Unwind_Exception*, _Unwind_Context*)
FUNC 17a900 60 0 __cxxabiv1::call_terminate(bool, _Unwind_Exception*)
FUNC 17a960 1c0 0 __cxxabiv1::readEncodedPointer(unsigned char const**, unsigned char)
FUNC 17ab20 100 0 __cxxabiv1::exception_spec_can_catch(long long, unsigned char const*, unsigned char, __cxxabiv1::__shim_type_info const*, void*, _Unwind_Exception*)
FUNC 17ac20 e0 0 __cxxabiv1::get_shim_type_info(unsigned long long, unsigned char const*, unsigned char, bool, _Unwind_Exception*)
FUNC 17ad00 120 0 __cxa_guard_acquire
FUNC 17ae20 c0 0 __cxa_guard_release
FUNC 17aee0 c0 0 __cxa_guard_abort
FUNC 17afa0 20 0 std::exception::~exception()
FUNC 17afc0 20 0 std::exception::what() const
FUNC 17afe0 20 0 std::bad_exception::~bad_exception()
FUNC 17b000 20 0 std::bad_exception::what() const
FUNC 17b0a0 20 0 std::bad_alloc::~bad_alloc()
FUNC 17b0c0 20 0 std::bad_alloc::~bad_alloc()
FUNC 17b0e0 20 0 std::bad_alloc::what() const
FUNC 17b100 160 0 cos
FUNC 17b260 200 0 atanf
FUNC 17b460 c0 0 ceilf
FUNC 17b520 140 0 cosf
FUNC 17b660 c0 0 floorf
FUNC 17b720 80 0 roundf
FUNC 17b7a0 180 0 sinf
FUNC 17b920 180 0 sin
FUNC 17baa0 420 0 acos
FUNC 17bec0 200 0 atan2
FUNC 17c0c0 260 0 expf
FUNC 17c320 bc0 0 powf
FUNC 17cee0 a0 0 sqrtf
FUNC 17cf80 a0 0 sqrt
FUNC 17d020 9a0 0 __ieee754_rem_pio2f
FUNC 17d9c0 e0 0 __ieee754_sqrtf
FUNC 17daa0 b60 0 __ieee754_rem_pio2
FUNC 17e600 200 0 __ieee754_sqrt
FUNC 17e800 120 0 __kernel_cos
FUNC 17e920 120 0 __kernel_cosf
FUNC 17ea40 c0 0 __kernel_sinf
FUNC 17eb00 e0 0 __kernel_sin
FUNC 17ebe0 240 0 atan
FUNC 17ee20 a0 0 __fpclassifyd
FUNC 17eec0 100 0 scalbnf
FUNC 17efc0 1a0 0 scalbn
FUNC 17f160 120 0 pthread_mutex_lock
FUNC 17f280 e0 0 pthread_mutex_unlock
FUNC 17f360 80 0 pthread_cond_wait
FUNC 17f420 60 0 abort
FUNC 17f480 740 0 _start
FUNC 17fbc0 1d20 0 malloc
FUNC 1818e0 c00 0 free
FUNC 1824e0 620 0 realloc
FUNC 182b00 4c0 0 release_unused_segments
FUNC 182fc0 8a0 0 dispose_chunk
FUNC 183860 80 0 __libnacl_mandatory_irt_query
FUNC 1838e0 80 0 __libnacl_fatal
FUNC 183a60 180 0 get_tls_info
FUNC 183c00 80 0 __assert_func
FUNC 183c80 1c0 0 exit
FUNC 183e40 1c0 0 _fclose_r
FUNC 184000 220 0 __sflush_r
FUNC 184220 c0 0 _fflush_r
FUNC 1842e0 200 0 __sfp
FUNC 1844e0 320 0 __sinit
FUNC 184800 20 0 _cleanup_r
FUNC 184820 60 0 __libc_fini_array
FUNC 1848e0 160 0 fputc
FUNC 184a40 2e0 0 fread
FUNC 184d20 640 0 _fseeko_r
FUNC 185360 1a0 0 ftello
FUNC 185500 120 0 _fwalk_reent
FUNC 185620 160 0 fwrite
FUNC 185780 a0 0 _jp2uc
FUNC 185820 260 0 __jp2uc
FUNC 185a80 280 0 __smakebuf_r
FUNC 185d00 100 0 _mbsnrtowcs_r
FUNC 185e00 a0 0 memchr
FUNC 185ea0 60 0 memcmp
FUNC 185f00 e0 0 perror
FUNC 185fe0 1a0 0 pread
FUNC 186180 ac0 0 qsort
FUNC 186c40 300 0 __srefill_r
FUNC 1870c0 a0 0 __sread
FUNC 187160 20 0 __seofread
FUNC 187180 100 0 __swrite
FUNC 187280 e0 0 __sseek
FUNC 187360 60 0 __sclose
FUNC 1873c0 140 0 strchr
FUNC 187500 80 0 strcmp
FUNC 187580 80 0 strcpy
FUNC 187600 b00 0 _strerror_r
FUNC 188100 1580 0 strftime
FUNC 189680 100 0 iso_year_adjust
FUNC 189780 60 0 strlen
FUNC 1897e0 a0 0 strncmp
FUNC 189880 c0 0 strncpy
FUNC 189940 800 0 strstr
FUNC 18a140 200 0 critical_factorization
FUNC 18a340 2ea0 0 _strtod_r
FUNC 18d1e0 280 0 _strtoll_r
FUNC 18d460 180 0 _strtol_r
FUNC 18d5e0 260 0 _strtoull_r
FUNC 18d840 1a0 0 _strtoul_r
FUNC 18d9e0 3160 0 _svfprintf_r
FUNC 190b40 1ca0 0 __ssvfscanf_r
FUNC 1927e0 1180 0 towupper
FUNC 193960 200 0 __sprint_r
FUNC 193b60 1880 0 _vfiprintf_r
FUNC 1953e0 160 0 __sbprintf
FUNC 195540 3400 0 _vfprintf_r
FUNC 198940 180 0 __sbprintf
FUNC 198ac0 c0 0 vsnprintf
FUNC 198b80 e0 0 __swbuf_r
FUNC 198c60 120 0 _wcsnrtombs_r
FUNC 198d80 160 0 __swsetup_r
FUNC 198ee0 140 0 __register_exitproc
FUNC 199020 1560 0 _dtoa_r
FUNC 19a580 280 0 quorem
FUNC 19a800 100 0 fputs
FUNC 19a900 520 0 __sfvwrite_r
FUNC 19ae20 140 0 rshift
FUNC 19af60 120 0 _Balloc
FUNC 19b080 100 0 __multadd
FUNC 19b180 60 0 __hi0bits
FUNC 19b1e0 a0 0 __lo0bits
FUNC 19b280 220 0 __multiply
FUNC 19b4a0 120 0 __pow5mult
FUNC 19b5c0 180 0 __lshift
FUNC 19b740 200 0 __mdiff
FUNC 19b940 120 0 __b2d
FUNC 19ba60 140 0 __d2b
FUNC 19bba0 a0 0 frexp
FUNC 19d4e0 220 0 __ssprint_r
FUNC 19d700 160 0 _sungetc_r
FUNC 19d860 80 0 __ssrefill_r
FUNC 19da60 20 0 std::__1::collate<char>::~collate()
FUNC 19da80 20 0 std::__1::collate<char>::~collate()
FUNC 19daa0 20 0 std::__1::collate<wchar_t>::~collate()
FUNC 19dac0 20 0 std::__1::collate<wchar_t>::~collate()
FUNC 19dae0 20 0 std::__1::num_get<char, std::__1::istreambuf_iterator<char, std::__1::char_traits<char> > >::~num_get()
FUNC 19db00 20 0 std::__1::num_get<char, std::__1::istreambuf_iterator<char, std::__1::char_traits<char> > >::~num_get()
FUNC 19db20 20 0 std::__1::num_get<wchar_t, std::__1::istreambuf_iterator<wchar_t, std::__1::char_traits<wchar_t> > >::~num_get()
FUNC 19db40 20 0 std::__1::num_get<wchar_t, std::__1::istreambuf_iterator<wchar_t, std::__1::char_traits<wchar_t> > >::~num_get()
FUNC 19db60 20 0 std::__1::num_put<char, std::__1::ostreambuf_iterator<char, std::__1::char_traits<char> > >::~num_put()
FUNC 19db80 20 0 std::__1::num_put<char, std::__1::ostreambuf_iterator<char, std::__1::char_traits<char> > >::~num_put()
FUNC 19dba0 20 0 std::__1::num_put<wchar_t, std::__1::ostreambuf_iterator<wchar_t, std::__1::char_traits<wchar_t> > >::~num_put()
FUNC 19dbc0 20 0 std::__1::num_put<wchar_t, std::__1::ostreambuf_iterator<wchar_t, std::__1::char_traits<wchar_t> > >::~num_put()
FUNC 19dbe0 20 0 std::__1::time_get<char, std::__1::istreambuf_iterator<char, std::__1::char_traits<char> > >::~time_get()
FUNC 19dc00 20 0 std::__1::time_get<char, std::__1::istreambuf_iterator<char, std::__1::char_traits<char> > >::~time_get()
FUNC 19dc20 20 0 std::__1::time_get<wchar_t, std::__1::istreambuf_iterator<wchar_t, std::__1::char_traits<wchar_t> > >::~time_get()
FUNC 19dc40 20 0 std::__1::time_get<wchar_t, std::__1::istreambuf_iterator<wchar_t, std::__1::char_traits<wchar_t> > >::~time_get()
FUNC 19dc60 40 0 <name omitted>
FUNC 19dca0 60 0 std::__1::time_put<char, std::__1::ostreambuf_iterator<char, std::__1::char_traits<char> > >::~time_put()
FUNC 19dd00 40 0 <name omitted>
FUNC 19dd40 60 0 std::__1::time_put<wchar_t, std::__1::ostreambuf_iterator<wchar_t, std::__1::char_traits<wchar_t> > >::~time_put()
FUNC 19dda0 20 0 std::__1::moneypunct<char, false>::~moneypunct()
FUNC 19ddc0 20 0 std::__1::moneypunct<char, false>::~moneypunct()
FUNC 19dde0 20 0 std::__1::moneypunct<char, true>::~moneypunct()
FUNC 19de00 20 0 std::__1::moneypunct<char, true>::~moneypunct()
FUNC 19de20 20 0 std::__1::moneypunct<wchar_t, false>::~moneypunct()
FUNC 19de40 20 0 std::__1::moneypunct<wchar_t, false>::~moneypunct()
FUNC 19de60 20 0 std::__1::moneypunct<wchar_t, true>::~moneypunct()
FUNC 19de80 20 0 std::__1::moneypunct<wchar_t, true>::~moneypunct()
FUNC 19dea0 20 0 std::__1::money_get<char, std::__1::istreambuf_iterator<char, std::__1::char_traits<char> > >::~money_get()
FUNC 19dec0 20 0 std::__1::money_get<char, std::__1::istreambuf_iterator<char, std::__1::char_traits<char> > >::~money_get()
FUNC 19dee0 20 0 std::__1::money_get<wchar_t, std::__1::istreambuf_iterator<wchar_t, std::__1::char_traits<wchar_t> > >::~money_get()
FUNC 19df00 20 0 std::__1::money_get<wchar_t, std::__1::istreambuf_iterator<wchar_t, std::__1::char_traits<wchar_t> > >::~money_get()
FUNC 19df20 20 0 std::__1::money_put<char, std::__1::ostreambuf_iterator<char, std::__1::char_traits<char> > >::~money_put()
FUNC 19df40 20 0 std::__1::money_put<char, std::__1::ostreambuf_iterator<char, std::__1::char_traits<char> > >::~money_put()
FUNC 19df60 20 0 std::__1::money_put<wchar_t, std::__1::ostreambuf_iterator<wchar_t, std::__1::char_traits<wchar_t> > >::~money_put()
FUNC 19df80 20 0 std::__1::money_put<wchar_t, std::__1::ostreambuf_iterator<wchar_t, std::__1::char_traits<wchar_t> > >::~money_put()
FUNC 19dfa0 20 0 std::__1::messages<char>::~messages()
FUNC 19dfc0 20 0 std::__1::messages<char>::~messages()
FUNC 19dfe0 20 0 std::__1::messages<wchar_t>::~messages()
FUNC 19e000 20 0 std::__1::messages<wchar_t>::~messages()
FUNC 19e020 60 0 std::__1::basic_streambuf<char, std::__1::char_traits<char> >::~basic_streambuf()
FUNC 19e080 60 0 std::__1::basic_streambuf<char, std::__1::char_traits<char> >::~basic_streambuf()
FUNC 19e0e0 60 0 std::__1::basic_ostream<char, std::__1::char_traits<char> >::sentry::sentry(std::__1::basic_ostream<char, std::__1::char_traits<char> >&)
FUNC 19e140 160 0 std::__1::basic_ostream<char, std::__1::char_traits<char> >::sentry::~sentry()
FUNC 19e2a0 60 0 std::__1::basic_string<char, std::__1::char_traits<char>, std::__1::allocator<char> >::~basic_string()
FUNC 19e300 60 0 std::__1::basic_string<wchar_t, std::__1::char_traits<wchar_t>, std::__1::allocator<wchar_t> >::~basic_string()
FUNC 1ab3a0 72 0 read_sleb128
FUNC 1ab420 10 0 _Unwind_GetCFA
FUNC 1ab440 10 0 _Unwind_GetIP
FUNC 1ab460 1b 0 _Unwind_GetIPInfo
FUNC 1ab480 13 0 _Unwind_SetIP
FUNC 1ab4a0 10 0 _Unwind_GetLanguageSpecificData
FUNC 1ab4c0 10 0 _Unwind_GetRegionStart
FUNC 1ab4e0 10 0 _Unwind_GetDataRelBase
FUNC 1ab500 10 0 _Unwind_GetTextRelBase
FUNC 1ab520 a 0 _Unwind_DebugHook
FUNC 1ab540 29 0 _Unwind_DeleteException
FUNC 1ab580 ad 0 _Unwind_SetGR
FUNC 1ab640 c4 0 _Unwind_GetGR
FUNC 1ab720 33 0 _Unwind_FindEnclosingFunction
FUNC 1ab760 d52 0 execute_cfa_program
FUNC 1ac4c0 8b 0 _Unwind_PNaClSetResult1
FUNC 1ac560 6b 0 _Unwind_PNaClSetResult0
FUNC 1ac5e0 24e 0 uw_install_context_1
FUNC 1ac840 d08 0 execute_stack_op
FUNC 1ad560 59d 0 uw_update_context_1
FUNC 1adb00 109 0 uw_update_context
FUNC 1adc20 abb 0 uw_frame_state_for
FUNC 1ae6e0 1bb 0 uw_init_context_1
FUNC 1ae8a0 105 0 _Unwind_Backtrace
FUNC 1ae9c0 20a 0 _Unwind_ForcedUnwind_Phase2
FUNC 1aebe0 105 0 _Unwind_ForcedUnwind
FUNC 1aed00 160 0 _Unwind_RaiseException_Phase2
FUNC 1aee60 165 0 _Unwind_Resume
FUNC 1aefe0 191 0 __frame_state_for
FUNC 1af180 225 0 _Unwind_RaiseException
FUNC 1af3c0 125 0 _Unwind_Resume_or_Rethrow
FUNC 1af500 67 0 __register_frame_info_bases
FUNC 1af580 67 0 __register_frame_info
FUNC 1af600 4a 0 __register_frame_info_table_bases
FUNC 1af660 4a 0 __register_frame_info_table
FUNC 1af6c0 148 0 frame_downheap
FUNC 1af820 10d 0 frame_heapsort
FUNC 1af940 eb 0 size_of_encoded_value
FUNC 1afa40 e0 0 base_from_object
FUNC 1afb20 1f0 0 read_encoded_value_with_base
FUNC 1afd20 22e 0 get_cie_encoding
FUNC 1aff60 237 0 classify_object_over_fdes
FUNC 1b01a0 7f 0 fde_single_encoding_compare
FUNC 1b0220 e0 0 fde_mixed_encoding_compare
FUNC 1b0300 1f1 0 linear_search_fdes
FUNC 1b0500 65 0 __register_frame_table
FUNC 1b0580 a7 0 __register_frame
FUNC 1b0640 1ed 0 add_fdes
FUNC 1b0840 2b 0 fde_unencoded_compare
FUNC 1b0880 b60 0 search_object
FUNC 1b13e0 231 0 _Unwind_Find_FDE
FUNC 1b1620 1c0 0 __deregister_frame_info_bases
FUNC 1b17e0 e 0 __deregister_frame_info
FUNC 1b1800 4b 0 __deregister_frame
STACK CFI INIT 17a0 380 .cfa: $esp 4 + .ra: .cfa -4 + ^
STACK CFI 17a1 .cfa: $esp 8 +
STACK CFI 17a2 .cfa: $esp 12 +
STACK CFI 17a3 .cfa: $esp 16 +
STACK CFI 17a4 .cfa: $esp 20 +
STACK CFI 17a7 $ebp: .cfa -8 + ^ $ebx: .cfa -12 + ^ $edi: .cfa -16 + ^ $esi: .cfa -20 + ^ .cfa: $esp 64 +
STACK CFI INIT 1d20 200 .cfa: $esp 4 + .ra: .cfa -4 + ^
STACK CFI 1d21 .cfa: $esp 8 +
STACK CFI 1d22 .cfa: $esp 12 +
STACK CFI 1d23 .cfa: $esp 16 +
STACK CFI 1d24 .cfa: $esp 20 +
STACK CFI 1d27 $ebp: .cfa -8 + ^ $ebx: .cfa -12 + ^ $edi: .cfa -16 + ^ $esi: .cfa -20 + ^ .cfa: $esp 64 +
STACK CFI INIT 27e0 200 .cfa: $esp 4 + .ra: .cfa -4 + ^
STACK CFI 27e1 .cfa: $esp 8 +
STACK CFI 27e2 .cfa: $esp 12 +
STACK CFI 27e3 .cfa: $esp 16 +
STACK CFI 27e4 .cfa: $esp 20 +
STACK CFI 27e7 $ebp: .cfa -8 + ^ $ebx: .cfa -12 + ^ $edi: .cfa -16 + ^ $esi: .cfa -20 + ^ .cfa: $esp 32 +
STACK CFI INIT 2b80 440 .cfa: $esp 4 + .ra: .cfa -4 + ^
STACK CFI 2b81 .cfa: $esp 8 +
STACK CFI 2b82 .cfa: $esp 12 +
STACK CFI 2b83 .cfa: $esp 16 +
STACK CFI 2b84 .cfa: $esp 20 +
STACK CFI 2b87 $ebp: .cfa -8 + ^ $ebx: .cfa -12 + ^ $edi: .cfa -16 + ^ $esi: .cfa -20 + ^ .cfa: $esp 80 +
STACK CFI INIT 3400 1800 .cfa: $esp 4 + .ra: .cfa -4 + ^
STACK CFI 3401 .cfa: $esp 8 +
STACK CFI 3402 .cfa: $esp 12 +
STACK CFI 3403 .cfa: $esp 16 +
STACK CFI 3404 .cfa: $esp 20 +
STACK CFI 340a $ebp: .cfa -8 + ^ $ebx: .cfa -12 + ^ $edi: .cfa -16 + ^ $esi: .cfa -20 + ^ .cfa: $esp 352 +
STACK CFI INIT 4c00 500 .cfa: $esp 4 + .ra: .cfa -4 + ^
STACK CFI 4c01 .cfa: $esp 8 +
STACK CFI 4c02 .cfa: $esp 12 +
STACK CFI 4c03 .cfa: $esp 16 +
STACK CFI 4c04 .cfa: $esp 20 +
STACK CFI 4c07 $ebp: .cfa -8 + ^ $ebx: .cfa -12 + ^ $edi: .cfa -16 + ^ $esi: .cfa -20 + ^ .cfa: $esp 112 +
STACK CFI INIT 53e0 180 .cfa: $esp 4 + .ra: .cfa -4 + ^
STACK CFI 53e1 .cfa: $esp 8 +
STACK CFI 53e2 .cfa: $esp 12 +
STACK CFI 53e3 .cfa: $esp 16 +
STACK CFI 53e4 .cfa: $esp 20 +
STACK CFI 53e7 $ebp: .cfa -8 + ^ $ebx: .cfa -12 + ^ $edi: .cfa -16 + ^ $esi: .cfa -20 + ^ .cfa: $esp 48 +
STACK CFI INIT 5560 380 .cfa: $esp 4 + .ra: .cfa -4 + ^
STACK CFI 5561 .cfa: $esp 8 +
STACK CFI 5562 .cfa: $esp 12 +
STACK CFI 5563 .cfa: $esp 16 +
STACK CFI 5564 .cfa: $esp 20 +
STACK CFI 5567 $ebp: .cfa -8 + ^ $ebx: .cfa -12 + ^ $edi: .cfa -16 + ^ $esi: .cfa -20 + ^ .cfa: $esp 64 +
STACK CFI INIT 58e0 280 .cfa: $esp 4 + .ra: .cfa -4 + ^
STACK CFI 58e1 .cfa: $esp 8 +
STACK CFI 58e2 .cfa: $esp 12 +
STACK CFI 58e3 .cfa: $esp 16 +
STACK CFI 58e4 .cfa: $esp 20 +
STACK CFI 58e7 $ebp: .cfa -8 + ^ $ebx: .cfa -12 + ^ $edi: .cfa -16 + ^ $esi: .cfa -20 + ^ .cfa: $esp 48 +
STACK CFI INIT 6080 120 .cfa: $esp 4 + .ra: .cfa -4 + ^
STACK CFI 6081 .cfa: $esp 8 +
STACK CFI 6082 .cfa: $esp 12 +
STACK CFI 6083 .cfa: $esp 16 +
STACK CFI 6086 $ebx: .cfa -8 + ^ $edi: .cfa -12 + ^ $esi: .cfa -16 + ^ .cfa: $esp 32 +
STACK CFI INIT 61a0 240 .cfa: $esp 4 + .ra: .cfa -4 + ^
STACK CFI 61a1 .cfa: $esp 8 +
STACK CFI 61a2 .cfa: $esp 12 +
STACK CFI 61a3 .cfa: $esp 16 +
STACK CFI 61a4 .cfa: $esp 20 +
STACK CFI 61a7 $ebp: .cfa -8 + ^ $ebx: .cfa -12 + ^ $edi: .cfa -16 + ^ $esi: .cfa -20 + ^ .cfa: $esp 48 +
STACK CFI INIT 6e20 980 .cfa: $esp 4 + .ra: .cfa -4 + ^
STACK CFI 6e21 .cfa: $esp 8 +
STACK CFI 6e22 .cfa: $esp 12 +
STACK CFI 6e23 .cfa: $esp 16 +
STACK CFI 6e24 .cfa: $esp 20 +
STACK CFI 6e2a $ebp: .cfa -8 + ^ $ebx: .cfa -12 + ^ $edi: .cfa -16 + ^ $esi: .cfa -20 + ^ .cfa: $esp 192 +
STACK CFI INIT 89e0 3c00 .cfa: $esp 4 + .ra: .cfa -4 + ^
STACK CFI 89e1 .cfa: $esp 8 +
STACK CFI 89e2 .cfa: $esp 12 +
STACK CFI 89e3 .cfa: $esp 16 +
STACK CFI 89e4 .cfa: $esp 20 +
STACK CFI 89ea $ebp: .cfa -8 + ^ $ebx: .cfa -12 + ^ $edi: .cfa -16 + ^ $esi: .cfa -20 + ^ .cfa: $esp 976 +
STACK CFI INIT c680 760 .cfa: $esp 4 + .ra: .cfa -4 + ^
STACK CFI c681 .cfa: $esp 8 +
STACK CFI c682 .cfa: $esp 12 +
STACK CFI c683 .cfa: $esp 16 +
STACK CFI c684 .cfa: $esp 20 +
STACK CFI c68a $ebp: .cfa -8 + ^ $ebx: .cfa -12 + ^ $edi: .cfa -16 + ^ $esi: .cfa -20 + ^ .cfa: $esp 192 +
STACK CFI INIT cde0 180 .cfa: $esp 4 + .ra: .cfa -4 + ^
STACK CFI cde1 .cfa: $esp 8 +
STACK CFI cde2 .cfa: $esp 12 +
STACK CFI cde3 .cfa: $esp 16 +
STACK CFI cde6 $ebx: .cfa -8 + ^ $edi: .cfa -12 + ^ $esi: .cfa -16 + ^ .cfa: $esp 64 +
STACK CFI INIT cf60 4c0 .cfa: $esp 4 + .ra: .cfa -4 + ^
STACK CFI cf61 .cfa: $esp 8 +
STACK CFI cf62 .cfa: $esp 12 +
STACK CFI cf63 .cfa: $esp 16 +
STACK CFI cf64 .cfa: $esp 20 +
STACK CFI cf6a $ebp: .cfa -8 + ^ $ebx: .cfa -12 + ^ $edi: .cfa -16 + ^ $esi: .cfa -20 + ^ .cfa: $esp 208 +
STACK CFI INIT db60 1e0 .cfa: $esp 4 + .ra: .cfa -4 + ^
STACK CFI db61 .cfa: $esp 8 +
STACK CFI db62 .cfa: $esp 12 +
STACK CFI db63 .cfa: $esp 16 +
STACK CFI db64 .cfa: $esp 20 +
STACK CFI db67 $ebp: .cfa -8 + ^ $ebx: .cfa -12 + ^ $edi: .cfa -16 + ^ $esi: .cfa -20 + ^ .cfa: $esp 48 +
STACK CFI INIT e0c0 420 .cfa: $esp 4 + .ra: .cfa -4 + ^
STACK CFI e0c1 .cfa: $esp 8 +
STACK CFI e0c2 .cfa: $esp 12 +
STACK CFI e0c3 .cfa: $esp 16 +
STACK CFI e0c4 .cfa: $esp 20 +
STACK CFI e0c7 $ebp: .cfa -8 + ^ $ebx: .cfa -12 + ^ $edi: .cfa -16 + ^ $esi: .cfa -20 + ^ .cfa: $esp 80 +
STACK CFI INIT e4e0 200 .cfa: $esp 4 + .ra: .cfa -4 + ^
STACK CFI e4e1 .cfa: $esp 8 +
STACK CFI e4e2 .cfa: $esp 12 +
STACK CFI e4e3 .cfa: $esp 16 +
STACK CFI e4e4 .cfa: $esp 20 +
STACK CFI e4e7 $ebp: .cfa -8 + ^ $ebx: .cfa -12 + ^ $edi: .cfa -16 + ^ $esi: .cfa -20 + ^ .cfa: $esp 48 +
STACK CFI INIT e6e0 1c60 .cfa: $esp 4 + .ra: .cfa -4 + ^
STACK CFI e6e1 .cfa: $esp 8 +
STACK CFI e6e2 .cfa: $esp 12 +
STACK CFI e6e3 .cfa: $esp 16 +
STACK CFI e6e4 .cfa: $esp 20 +
STACK CFI e6ea $ebp: .cfa -8 + ^ $ebx: .cfa -12 + ^ $edi: .cfa -16 + ^ $esi: .cfa -20 + ^ .cfa: $esp 400 +
STACK CFI INIT 1ba60 180 .cfa: $esp 4 + .ra: .cfa -4 + ^
STACK CFI 1ba61 .cfa: $esp 8 +
STACK CFI 1ba64 $esi: .cfa -8 + ^ .cfa: $esp 48 +
STACK CFI INIT 1be60 8e0 .cfa: $esp 4 + .ra: .cfa -4 + ^
STACK CFI 1be61 .cfa: $esp 8 +
STACK CFI 1be62 .cfa: $esp 12 +
STACK CFI 1be63 .cfa: $esp 16 +
STACK CFI 1be64 .cfa: $esp 20 +
STACK CFI 1be6a $ebp: .cfa -8 + ^ $ebx: .cfa -12 + ^ $edi: .cfa -16 + ^ $esi: .cfa -20 + ^ .cfa: $esp 624 +
STACK CFI INIT 1ca20 1100 .cfa: $esp 4 + .ra: .cfa -4 + ^
STACK CFI 1ca21 .cfa: $esp 8 +
STACK CFI 1ca22 .cfa: $esp 12 +
STACK CFI 1ca23 .cfa: $esp 16 +
STACK CFI 1ca24 .cfa: $esp 20 +
STACK CFI 1ca2a $ebp: .cfa -8 + ^ $ebx: .cfa -12 + ^ $edi: .cfa -16 + ^ $esi: .cfa -20 + ^ .cfa: $esp 464 +
STACK CFI INIT 201e0 840 .cfa: $esp 4 + .ra: .cfa -4 + ^
STACK CFI 201e1 .cfa: $esp 8 +
STACK CFI 201e2 .cfa: $esp 12 +
STACK CFI 201e3 .cfa: $esp 16 +
STACK CFI 201e4 .cfa: $esp 20 +
STACK CFI 201ea $ebp: .cfa -8 + ^ $ebx: .cfa -12 + ^ $edi: .cfa -16 + ^ $esi: .cfa -20 + ^ .cfa: $esp 208 +
STACK CFI INIT 24540 1e60 .cfa: $esp 4 + .ra: .cfa -4 + ^
STACK CFI 24541 .cfa: $esp 8 +
STACK CFI 24542 .cfa: $esp 12 +
STACK CFI 24543 .cfa: $esp 16 +
STACK CFI 24544 .cfa: $esp 20 +
STACK CFI 2454a $ebp: .cfa -8 + ^ $ebx: .cfa -12 + ^ $edi: .cfa -16 + ^ $esi: .cfa -20 + ^ .cfa: $esp 1424 +
STACK CFI INIT 263a0 540 .cfa: $esp 4 + .ra: .cfa -4 + ^
STACK CFI 263a1 .cfa: $esp 8 +
STACK CFI 263a2 .cfa: $esp 12 +
STACK CFI 263a3 .cfa: $esp 16 +
STACK CFI 263a4 .cfa: $esp 20 +
STACK CFI 263aa $ebp: .cfa -8 + ^ $ebx: .cfa -12 + ^ $edi: .cfa -16 + ^ $esi: .cfa -20 + ^ .cfa: $esp 256 +
STACK CFI INIT 26a20 180 .cfa: $esp 4 + .ra: .cfa -4 + ^
STACK CFI 26a21 .cfa: $esp 8 +
STACK CFI 26a22 .cfa: $esp 12 +
STACK CFI 26a23 .cfa: $esp 16 +
STACK CFI 26a26 $ebx: .cfa -8 + ^ $edi: .cfa -12 + ^ $esi: .cfa -16 + ^ .cfa: $esp 64 +
STACK CFI INIT 26ba0 4c0 .cfa: $esp 4 + .ra: .cfa -4 + ^
STACK CFI 26ba1 .cfa: $esp 8 +
STACK CFI 26ba2 .cfa: $esp 12 +
STACK CFI 26ba3 .cfa: $esp 16 +
STACK CFI 26ba4 .cfa: $esp 20 +
STACK CFI 26baa $ebp: .cfa -8 + ^ $ebx: .cfa -12 + ^ $edi: .cfa -16 + ^ $esi: .cfa -20 + ^ .cfa: $esp 208 +
STACK CFI INIT 271a0 180 .cfa: $esp 4 + .ra: .cfa -4 + ^
STACK CFI 271a1 .cfa: $esp 8 +
STACK CFI 271a2 .cfa: $esp 12 +
STACK CFI 271a3 .cfa: $esp 16 +
STACK CFI 271a4 .cfa: $esp 20 +
STACK CFI 271a7 $ebp: .cfa -8 + ^ $ebx: .cfa -12 + ^ $edi: .cfa -16 + ^ $esi: .cfa -20 + ^ .cfa: $esp 64 +
STACK CFI INIT 29900 f20 .cfa: $esp 4 + .ra: .cfa -4 + ^
STACK CFI 29901 .cfa: $esp 8 +
STACK CFI 29902 .cfa: $esp 12 +
STACK CFI 29903 .cfa: $esp 16 +
STACK CFI 29904 .cfa: $esp 20 +
STACK CFI 2990a $ebp: .cfa -8 + ^ $ebx: .cfa -12 + ^ $edi: .cfa -16 + ^ $esi: .cfa -20 + ^ .cfa: $esp 560 +
STACK CFI INIT 2a860 180 .cfa: $esp 4 + .ra: .cfa -4 + ^
STACK CFI 2a861 .cfa: $esp 8 +
STACK CFI 2a862 .cfa: $esp 12 +
STACK CFI 2a863 .cfa: $esp 16 +
STACK CFI 2a866 $ebx: .cfa -8 + ^ $edi: .cfa -12 + ^ $esi: .cfa -16 + ^ .cfa: $esp 48 +
STACK CFI INIT 2aac0 620 .cfa: $esp 4 + .ra: .cfa -4 + ^
STACK CFI 2aac1 .cfa: $esp 8 +
STACK CFI 2aac2 .cfa: $esp 12 +
STACK CFI 2aac3 .cfa: $esp 16 +
STACK CFI 2aac4 .cfa: $esp 20 +
STACK CFI 2aaca $ebp: .cfa -8 + ^ $ebx: .cfa -12 + ^ $edi: .cfa -16 + ^ $esi: .cfa -20 + ^ .cfa: $esp 240 +
STACK CFI INIT 2b320 1760 .cfa: $esp 4 + .ra: .cfa -4 + ^
STACK CFI 2b321 .cfa: $esp 8 +
STACK CFI 2b322 .cfa: $esp 12 +
STACK CFI 2b323 .cfa: $esp 16 +
STACK CFI 2b324 .cfa: $esp 20 +
STACK CFI 2b32a $ebp: .cfa -8 + ^ $ebx: .cfa -12 + ^ $edi: .cfa -16 + ^ $esi: .cfa -20 + ^ .cfa: $esp 1056 +
STACK CFI INIT 2ca80 9ea0 .cfa: $esp 4 + .ra: .cfa -4 + ^
STACK CFI 2ca81 .cfa: $esp 8 +
STACK CFI 2ca82 .cfa: $esp 12 +
STACK CFI 2ca83 .cfa: $esp 16 +
STACK CFI 2ca84 .cfa: $esp 20 +
STACK CFI 2ca8a $ebp: .cfa -8 + ^ $ebx: .cfa -12 + ^ $edi: .cfa -16 + ^ $esi: .cfa -20 + ^ .cfa: $esp 2208 +
STACK CFI INIT 36d00 880 .cfa: $esp 4 + .ra: .cfa -4 + ^
STACK CFI 36d01 .cfa: $esp 8 +
STACK CFI 36d02 .cfa: $esp 12 +
STACK CFI 36d03 .cfa: $esp 16 +
STACK CFI 36d09 $ebx: .cfa -8 + ^ $edi: .cfa -12 + ^ $esi: .cfa -16 + ^ .cfa: $esp 304 +
STACK CFI INIT 37860 520 .cfa: $esp 4 + .ra: .cfa -4 + ^
STACK CFI 37861 .cfa: $esp 8 +
STACK CFI 37862 .cfa: $esp 12 +
STACK CFI 37863 .cfa: $esp 16 +
STACK CFI 37864 .cfa: $esp 20 +
STACK CFI 3786a $ebp: .cfa -8 + ^ $ebx: .cfa -12 + ^ $edi: .cfa -16 + ^ $esi: .cfa -20 + ^ .cfa: $esp 192 +
STACK CFI INIT 39760 640 .cfa: $esp 4 + .ra: .cfa -4 + ^
STACK CFI 39761 .cfa: $esp 8 +
STACK CFI 39762 .cfa: $esp 12 +
STACK CFI 39763 .cfa: $esp 16 +
STACK CFI 39764 .cfa: $esp 20 +
STACK CFI 3976a $ebp: .cfa -8 + ^ $ebx: .cfa -12 + ^ $edi: .cfa -16 + ^ $esi: .cfa -20 + ^ .cfa: $esp 240 +
STACK CFI INIT 39ee0 180 .cfa: $esp 4 + .ra: .cfa -4 + ^
STACK CFI 39ee1 .cfa: $esp 8 +
STACK CFI 39ee2 .cfa: $esp 12 +
STACK CFI 39ee3 .cfa: $esp 16 +
STACK CFI 39ee6 $ebx: .cfa -8 + ^ $edi: .cfa -12 + ^ $esi: .cfa -16 + ^ .cfa: $esp 64 +
STACK CFI INIT 3c5a0 f20 .cfa: $esp 4 + .ra: .cfa -4 + ^
STACK CFI 3c5a1 .cfa: $esp 8 +
STACK CFI 3c5a2 .cfa: $esp 12 +
STACK CFI 3c5a3 .cfa: $esp 16 +
STACK CFI 3c5a4 .cfa: $esp 20 +
STACK CFI 3c5aa $ebp: .cfa -8 + ^ $ebx: .cfa -12 + ^ $edi: .cfa -16 + ^ $esi: .cfa -20 + ^ .cfa: $esp 432 +
STACK CFI INIT 3d4c0 cc0 .cfa: $esp 4 + .ra: .cfa -4 + ^
STACK CFI 3d4c1 .cfa: $esp 8 +
STACK CFI 3d4c2 .cfa: $esp 12 +
STACK CFI 3d4c3 .cfa: $esp 16 +
STACK CFI 3d4c4 .cfa: $esp 20 +
STACK CFI 3d4ca $ebp: .cfa -8 + ^ $ebx: .cfa -12 + ^ $edi: .cfa -16 + ^ $esi: .cfa -20 + ^ .cfa: $esp 416 +
STACK CFI INIT 40300 180 .cfa: $esp 4 + .ra: .cfa -4 + ^
STACK CFI 40301 .cfa: $esp 8 +
STACK CFI 40302 .cfa: $esp 12 +
STACK CFI 40303 .cfa: $esp 16 +
STACK CFI 40306 $ebx: .cfa -8 + ^ $edi: .cfa -12 + ^ $esi: .cfa -16 + ^ .cfa: $esp 64 +
STACK CFI INIT 40480 4c0 .cfa: $esp 4 + .ra: .cfa -4 + ^
STACK CFI 40481 .cfa: $esp 8 +
STACK CFI 40482 .cfa: $esp 12 +
STACK CFI 40483 .cfa: $esp 16 +
STACK CFI 40484 .cfa: $esp 20 +
STACK CFI 4048a $ebp: .cfa -8 + ^ $ebx: .cfa -12 + ^ $edi: .cfa -16 + ^ $esi: .cfa -20 + ^ .cfa: $esp 208 +
STACK CFI INIT 40940 520 .cfa: $esp 4 + .ra: .cfa -4 + ^
STACK CFI 40941 .cfa: $esp 8 +
STACK CFI 40942 .cfa: $esp 12 +
STACK CFI 40943 .cfa: $esp 16 +
STACK CFI 40944 .cfa: $esp 20 +
STACK CFI 4094a $ebp: .cfa -8 + ^ $ebx: .cfa -12 + ^ $edi: .cfa -16 + ^ $esi: .cfa -20 + ^ .cfa: $esp 192 +
STACK CFI INIT 41060 d00 .cfa: $esp 4 + .ra: .cfa -4 + ^
STACK CFI 41061 .cfa: $esp 8 +
STACK CFI 41062 .cfa: $esp 12 +
STACK CFI 41063 .cfa: $esp 16 +
STACK CFI 41064 .cfa: $esp 20 +
STACK CFI 4106a $ebp: .cfa -8 + ^ $ebx: .cfa -12 + ^ $edi: .cfa -16 + ^ $esi: .cfa -20 + ^ .cfa: $esp 448 +
STACK CFI INIT 42b80 c40 .cfa: $esp 4 + .ra: .cfa -4 + ^
STACK CFI 42b81 .cfa: $esp 8 +
STACK CFI 42b82 .cfa: $esp 12 +
STACK CFI 42b83 .cfa: $esp 16 +
STACK CFI 42b84 .cfa: $esp 20 +
STACK CFI 42b8a $ebp: .cfa -8 + ^ $ebx: .cfa -12 + ^ $edi: .cfa -16 + ^ $esi: .cfa -20 + ^ .cfa: $esp 480 +
STACK CFI INIT 437c0 4e0 .cfa: $esp 4 + .ra: .cfa -4 + ^
STACK CFI 437c1 .cfa: $esp 8 +
STACK CFI 437c2 .cfa: $esp 12 +
STACK CFI 437c3 .cfa: $esp 16 +
STACK CFI 437c4 .cfa: $esp 20 +
STACK CFI 437ca $ebp: .cfa -8 + ^ $ebx: .cfa -12 + ^ $edi: .cfa -16 + ^ $esi: .cfa -20 + ^ .cfa: $esp 224 +
STACK CFI INIT 43ca0 180 .cfa: $esp 4 + .ra: .cfa -4 + ^
STACK CFI 43ca1 .cfa: $esp 8 +
STACK CFI 43ca2 .cfa: $esp 12 +
STACK CFI 43ca3 .cfa: $esp 16 +
STACK CFI 43ca4 .cfa: $esp 20 +
STACK CFI 43ca7 $ebp: .cfa -8 + ^ $ebx: .cfa -12 + ^ $edi: .cfa -16 + ^ $esi: .cfa -20 + ^ .cfa: $esp 64 +
STACK CFI INIT 43e20 d20 .cfa: $esp 4 + .ra: .cfa -4 + ^
STACK CFI 43e21 .cfa: $esp 8 +
STACK CFI 43e22 .cfa: $esp 12 +
STACK CFI 43e23 .cfa: $esp 16 +
STACK CFI 43e24 .cfa: $esp 20 +
STACK CFI 43e2a $ebp: .cfa -8 + ^ $ebx: .cfa -12 + ^ $edi: .cfa -16 + ^ $esi: .cfa -20 + ^ .cfa: $esp 352 +
STACK CFI INIT 47140 180 .cfa: $esp 4 + .ra: .cfa -4 + ^
STACK CFI 47141 .cfa: $esp 8 +
STACK CFI 47142 .cfa: $esp 12 +
STACK CFI 47143 .cfa: $esp 16 +
STACK CFI 47146 $ebx: .cfa -8 + ^ $edi: .cfa -12 + ^ $esi: .cfa -16 + ^ .cfa: $esp 64 +
STACK CFI INIT 472c0 4c0 .cfa: $esp 4 + .ra: .cfa -4 + ^
STACK CFI 472c1 .cfa: $esp 8 +
STACK CFI 472c2 .cfa: $esp 12 +
STACK CFI 472c3 .cfa: $esp 16 +
STACK CFI 472c4 .cfa: $esp 20 +
STACK CFI 472ca $ebp: .cfa -8 + ^ $ebx: .cfa -12 + ^ $edi: .cfa -16 + ^ $esi: .cfa -20 + ^ .cfa: $esp 208 +
STACK CFI INIT 478c0 4e0 .cfa: $esp 4 + .ra: .cfa -4 + ^
STACK CFI 478c1 .cfa: $esp 8 +
STACK CFI 478c2 .cfa: $esp 12 +
STACK CFI 478c3 .cfa: $esp 16 +
STACK CFI 478c4 .cfa: $esp 20 +
STACK CFI 478ca $ebp: .cfa -8 + ^ $ebx: .cfa -12 + ^ $edi: .cfa -16 + ^ $esi: .cfa -20 + ^ .cfa: $esp 224 +
STACK CFI INIT 47fa0 180 .cfa: $esp 4 + .ra: .cfa -4 + ^
STACK CFI 47fa1 .cfa: $esp 8 +
STACK CFI 47fa2 .cfa: $esp 12 +
STACK CFI 47fa3 .cfa: $esp 16 +
STACK CFI 47fa6 $ebx: .cfa -8 + ^ $edi: .cfa -12 + ^ $esi: .cfa -16 + ^ .cfa: $esp 64 +
STACK CFI INIT 48120 4e0 .cfa: $esp 4 + .ra: .cfa -4 + ^
STACK CFI 48121 .cfa: $esp 8 +
STACK CFI 48122 .cfa: $esp 12 +
STACK CFI 48123 .cfa: $esp 16 +
STACK CFI 48124 .cfa: $esp 20 +
STACK CFI 4812a $ebp: .cfa -8 + ^ $ebx: .cfa -12 + ^ $edi: .cfa -16 + ^ $esi: .cfa -20 + ^ .cfa: $esp 224 +
STACK CFI INIT 48600 180 .cfa: $esp 4 + .ra: .cfa -4 + ^
STACK CFI 48601 .cfa: $esp 8 +
STACK CFI 48602 .cfa: $esp 12 +
STACK CFI 48603 .cfa: $esp 16 +
STACK CFI 48606 $ebx: .cfa -8 + ^ $edi: .cfa -12 + ^ $esi: .cfa -16 + ^ .cfa: $esp 64 +
STACK CFI INIT 48780 540 .cfa: $esp 4 + .ra: .cfa -4 + ^
STACK CFI 48781 .cfa: $esp 8 +
STACK CFI 48782 .cfa: $esp 12 +
STACK CFI 48783 .cfa: $esp 16 +
STACK CFI 48784 .cfa: $esp 20 +
STACK CFI 4878a $ebp: .cfa -8 + ^ $ebx: .cfa -12 + ^ $edi: .cfa -16 + ^ $esi: .cfa -20 + ^ .cfa: $esp 256 +
STACK CFI INIT 48cc0 580 .cfa: $esp 4 + .ra: .cfa -4 + ^
STACK CFI 48cc1 .cfa: $esp 8 +
STACK CFI 48cc2 .cfa: $esp 12 +
STACK CFI 48cc3 .cfa: $esp 16 +
STACK CFI 48cc4 .cfa: $esp 20 +
STACK CFI 48cca $ebp: .cfa -8 + ^ $ebx: .cfa -12 + ^ $edi: .cfa -16 + ^ $esi: .cfa -20 + ^ .cfa: $esp 272 +
STACK CFI INIT 524c0 180 .cfa: $esp 4 + .ra: .cfa -4 + ^
STACK CFI 524c1 .cfa: $esp 8 +
STACK CFI 524c2 .cfa: $esp 12 +
STACK CFI 524c3 .cfa: $esp 16 +
STACK CFI 524c6 $ebx: .cfa -8 + ^ $edi: .cfa -12 + ^ $esi: .cfa -16 + ^ .cfa: $esp 64 +
STACK CFI INIT 52640 4c0 .cfa: $esp 4 + .ra: .cfa -4 + ^
STACK CFI 52641 .cfa: $esp 8 +
STACK CFI 52642 .cfa: $esp 12 +
STACK CFI 52643 .cfa: $esp 16 +
STACK CFI 52644 .cfa: $esp 20 +
STACK CFI 5264a $ebp: .cfa -8 + ^ $ebx: .cfa -12 + ^ $edi: .cfa -16 + ^ $esi: .cfa -20 + ^ .cfa: $esp 208 +
STACK CFI INIT 52b00 180 .cfa: $esp 4 + .ra: .cfa -4 + ^
STACK CFI 52b01 .cfa: $esp 8 +
STACK CFI 52b02 .cfa: $esp 12 +
STACK CFI 52b03 .cfa: $esp 16 +
STACK CFI 52b06 $ebx: .cfa -8 + ^ $edi: .cfa -12 + ^ $esi: .cfa -16 + ^ .cfa: $esp 64 +
STACK CFI INIT 52c80 4c0 .cfa: $esp 4 + .ra: .cfa -4 + ^
STACK CFI 52c81 .cfa: $esp 8 +
STACK CFI 52c82 .cfa: $esp 12 +
STACK CFI 52c83 .cfa: $esp 16 +
STACK CFI 52c84 .cfa: $esp 20 +
STACK CFI 52c8a $ebp: .cfa -8 + ^ $ebx: .cfa -12 + ^ $edi: .cfa -16 + ^ $esi: .cfa -20 + ^ .cfa: $esp 208 +
STACK CFI INIT 53140 6a0 .cfa: $esp 4 + .ra: .cfa -4 + ^
STACK CFI 53141 .cfa: $esp 8 +
STACK CFI 53142 .cfa: $esp 12 +
STACK CFI 53143 .cfa: $esp 16 +
STACK CFI 53144 .cfa: $esp 20 +
STACK CFI 5314a $ebp: .cfa -8 + ^ $ebx: .cfa -12 + ^ $edi: .cfa -16 + ^ $esi: .cfa -20 + ^ .cfa: $esp 272 +
STACK CFI INIT 54980 420 .cfa: $esp 4 + .ra: .cfa -4 + ^
STACK CFI 54981 .cfa: $esp 8 +
STACK CFI 54982 .cfa: $esp 12 +
STACK CFI 54983 .cfa: $esp 16 +
STACK CFI 54984 .cfa: $esp 20 +
STACK CFI 5498a $ebp: .cfa -8 + ^ $ebx: .cfa -12 + ^ $edi: .cfa -16 + ^ $esi: .cfa -20 + ^ .cfa: $esp 224 +
STACK CFI INIT 55400 47a0 .cfa: $esp 4 + .ra: .cfa -4 + ^
STACK CFI 55401 .cfa: $esp 8 +
STACK CFI 55402 .cfa: $esp 12 +
STACK CFI 55403 .cfa: $esp 16 +
STACK CFI 55404 .cfa: $esp 20 +
STACK CFI 5540a $ebp: .cfa -8 + ^ $ebx: .cfa -12 + ^ $edi: .cfa -16 + ^ $esi: .cfa -20 + ^ .cfa: $esp 2304 +
STACK CFI INIT 59be0 520 .cfa: $esp 4 + .ra: .cfa -4 + ^
STACK CFI 59be1 .cfa: $esp 8 +
STACK CFI 59be2 .cfa: $esp 12 +
STACK CFI 59be3 .cfa: $esp 16 +
STACK CFI 59be4 .cfa: $esp 20 +
STACK CFI 59bea $ebp: .cfa -8 + ^ $ebx: .cfa -12 + ^ $edi: .cfa -16 + ^ $esi: .cfa -20 + ^ .cfa: $esp 176 +
STACK CFI INIT 5a3c0 5a0 .cfa: $esp 4 + .ra: .cfa -4 + ^
STACK CFI 5a3c1 .cfa: $esp 8 +
STACK CFI 5a3c2 .cfa: $esp 12 +
STACK CFI 5a3c3 .cfa: $esp 16 +
STACK CFI 5a3c4 .cfa: $esp 20 +
STACK CFI 5a3ca $ebp: .cfa -8 + ^ $ebx: .cfa -12 + ^ $edi: .cfa -16 + ^ $esi: .cfa -20 + ^ .cfa: $esp 2800 +
STACK CFI INIT 5a960 180 .cfa: $esp 4 + .ra: .cfa -4 + ^
STACK CFI 5a961 .cfa: $esp 8 +
STACK CFI 5a962 .cfa: $esp 12 +
STACK CFI 5a963 .cfa: $esp 16 +
STACK CFI 5a966 $ebx: .cfa -8 + ^ $edi: .cfa -12 + ^ $esi: .cfa -16 + ^ .cfa: $esp 64 +
STACK CFI INIT 5ad00 4e0 .cfa: $esp 4 + .ra: .cfa -4 + ^
STACK CFI 5ad01 .cfa: $esp 8 +
STACK CFI 5ad02 .cfa: $esp 12 +
STACK CFI 5ad03 .cfa: $esp 16 +
STACK CFI 5ad04 .cfa: $esp 20 +
STACK CFI 5ad0a $ebp: .cfa -8 + ^ $ebx: .cfa -12 + ^ $edi: .cfa -16 + ^ $esi: .cfa -20 + ^ .cfa: $esp 224 +
STACK CFI INIT 5b1e0 520 .cfa: $esp 4 + .ra: .cfa -4 + ^
STACK CFI 5b1e1 .cfa: $esp 8 +
STACK CFI 5b1e2 .cfa: $esp 12 +
STACK CFI 5b1e3 .cfa: $esp 16 +
STACK CFI 5b1e4 .cfa: $esp 20 +
STACK CFI 5b1ea $ebp: .cfa -8 + ^ $ebx: .cfa -12 + ^ $edi: .cfa -16 + ^ $esi: .cfa -20 + ^ .cfa: $esp 192 +
STACK CFI INIT 5b720 540 .cfa: $esp 4 + .ra: .cfa -4 + ^
STACK CFI 5b721 .cfa: $esp 8 +
STACK CFI 5b722 .cfa: $esp 12 +
STACK CFI 5b723 .cfa: $esp 16 +
STACK CFI 5b724 .cfa: $esp 20 +
STACK CFI 5b72a $ebp: .cfa -8 + ^ $ebx: .cfa -12 + ^ $edi: .cfa -16 + ^ $esi: .cfa -20 + ^ .cfa: $esp 240 +
STACK CFI INIT 5bc60 4c0 .cfa: $esp 4 + .ra: .cfa -4 + ^
STACK CFI 5bc61 .cfa: $esp 8 +
STACK CFI 5bc62 .cfa: $esp 12 +
STACK CFI 5bc63 .cfa: $esp 16 +
STACK CFI 5bc64 .cfa: $esp 20 +
STACK CFI 5bc6a $ebp: .cfa -8 + ^ $ebx: .cfa -12 + ^ $edi: .cfa -16 + ^ $esi: .cfa -20 + ^ .cfa: $esp 208 +
STACK CFI INIT 5d040 36a0 .cfa: $esp 4 + .ra: .cfa -4 + ^
STACK CFI 5d041 .cfa: $esp 8 +
STACK CFI 5d042 .cfa: $esp 12 +
STACK CFI 5d043 .cfa: $esp 16 +
STACK CFI 5d044 .cfa: $esp 20 +
STACK CFI 5d04a $ebp: .cfa -8 + ^ $ebx: .cfa -12 + ^ $edi: .cfa -16 + ^ $esi: .cfa -20 + ^ .cfa: $esp 1856 +
STACK CFI INIT 607c0 17a0 .cfa: $esp 4 + .ra: .cfa -4 + ^
STACK CFI 607c1 .cfa: $esp 8 +
STACK CFI 607c2 .cfa: $esp 12 +
STACK CFI 607c3 .cfa: $esp 16 +
STACK CFI 607c4 .cfa: $esp 20 +
STACK CFI 607ca $ebp: .cfa -8 + ^ $ebx: .cfa -12 + ^ $edi: .cfa -16 + ^ $esi: .cfa -20 + ^ .cfa: $esp 2928 +
STACK CFI INIT 61f60 d20 .cfa: $esp 4 + .ra: .cfa -4 + ^
STACK CFI 61f61 .cfa: $esp 8 +
STACK CFI 61f62 .cfa: $esp 12 +
STACK CFI 61f63 .cfa: $esp 16 +
STACK CFI 61f64 .cfa: $esp 20 +
STACK CFI 61f6a $ebp: .cfa -8 + ^ $ebx: .cfa -12 + ^ $edi: .cfa -16 + ^ $esi: .cfa -20 + ^ .cfa: $esp 3776 +
STACK CFI INIT 631c0 660 .cfa: $esp 4 + .ra: .cfa -4 + ^
STACK CFI 631c1 .cfa: $esp 8 +
STACK CFI 631c2 .cfa: $esp 12 +
STACK CFI 631c3 .cfa: $esp 16 +
STACK CFI 631c4 .cfa: $esp 20 +
STACK CFI 631ca $ebp: .cfa -8 + ^ $ebx: .cfa -12 + ^ $edi: .cfa -16 + ^ $esi: .cfa -20 + ^ .cfa: $esp 1152 +
STACK CFI INIT 6c700 1020 .cfa: $esp 4 + .ra: .cfa -4 + ^
STACK CFI 6c701 .cfa: $esp 8 +
STACK CFI 6c702 .cfa: $esp 12 +
STACK CFI 6c703 .cfa: $esp 16 +
STACK CFI 6c704 .cfa: $esp 20 +
STACK CFI 6c70a $ebp: .cfa -8 + ^ $ebx: .cfa -12 + ^ $edi: .cfa -16 + ^ $esi: .cfa -20 + ^ .cfa: $esp 1280 +
STACK CFI INIT 6e760 960 .cfa: $esp 4 + .ra: .cfa -4 + ^
STACK CFI 6e761 .cfa: $esp 8 +
STACK CFI 6e762 .cfa: $esp 12 +
STACK CFI 6e763 .cfa: $esp 16 +
STACK CFI 6e764 .cfa: $esp 20 +
STACK CFI 6e76a $ebp: .cfa -8 + ^ $ebx: .cfa -12 + ^ $edi: .cfa -16 + ^ $esi: .cfa -20 + ^ .cfa: $esp 2592 +
STACK CFI INIT 73fa0 4e0 .cfa: $esp 4 + .ra: .cfa -4 + ^
STACK CFI 73fa1 .cfa: $esp 8 +
STACK CFI 73fa2 .cfa: $esp 12 +
STACK CFI 73fa3 .cfa: $esp 16 +
STACK CFI 73fa4 .cfa: $esp 20 +
STACK CFI 73faa $ebp: .cfa -8 + ^ $ebx: .cfa -12 + ^ $edi: .cfa -16 + ^ $esi: .cfa -20 + ^ .cfa: $esp 224 +
STACK CFI INIT 759e0 3e0 .cfa: $esp 4 + .ra: .cfa -4 + ^
STACK CFI 759e1 .cfa: $esp 8 +
STACK CFI 759e2 .cfa: $esp 12 +
STACK CFI 759e3 .cfa: $esp 16 +
STACK CFI 759e4 .cfa: $esp 20 +
STACK CFI 759e7 $ebp: .cfa -8 + ^ $ebx: .cfa -12 + ^ $edi: .cfa -16 + ^ $esi: .cfa -20 + ^ .cfa: $esp 80 +
STACK CFI INIT 765c0 300 .cfa: $esp 4 + .ra: .cfa -4 + ^
STACK CFI 765c1 .cfa: $esp 8 +
STACK CFI 765c2 .cfa: $esp 12 +
STACK CFI 765c3 .cfa: $esp 16 +
STACK CFI 765c9 $ebx: .cfa -8 + ^ $edi: .cfa -12 + ^ $esi: .cfa -16 + ^ .cfa: $esp 3904 +
STACK CFI INIT 76f80 b40 .cfa: $esp 4 + .ra: .cfa -4 + ^
STACK CFI 76f81 .cfa: $esp 8 +
STACK CFI 76f82 .cfa: $esp 12 +
STACK CFI 76f83 .cfa: $esp 16 +
STACK CFI 76f84 .cfa: $esp 20 +
STACK CFI 76f8a $ebp: .cfa -8 + ^ $ebx: .cfa -12 + ^ $edi: .cfa -16 + ^ $esi: .cfa -20 + ^ .cfa: $esp 256 +
STACK CFI INIT 77d20 4e0 .cfa: $esp 4 + .ra: .cfa -4 + ^
STACK CFI 77d21 .cfa: $esp 8 +
STACK CFI 77d22 .cfa: $esp 12 +
STACK CFI 77d23 .cfa: $esp 16 +
STACK CFI 77d24 .cfa: $esp 20 +
STACK CFI 77d2a $ebp: .cfa -8 + ^ $ebx: .cfa -12 + ^ $edi: .cfa -16 + ^ $esi: .cfa -20 + ^ .cfa: $esp 224 +
STACK CFI INIT 78200 5a0 .cfa: $esp 4 + .ra: .cfa -4 + ^
STACK CFI 78201 .cfa: $esp 8 +
STACK CFI 78202 .cfa: $esp 12 +
STACK CFI 78203 .cfa: $esp 16 +
STACK CFI 78204 .cfa: $esp 20 +
STACK CFI 7820a $ebp: .cfa -8 + ^ $ebx: .cfa -12 + ^ $edi: .cfa -16 + ^ $esi: .cfa -20 + ^ .cfa: $esp 256 +
STACK CFI INIT 787a0 180 .cfa: $esp 4 + .ra: .cfa -4 + ^
STACK CFI 787a1 .cfa: $esp 8 +
STACK CFI 787a2 .cfa: $esp 12 +
STACK CFI 787a3 .cfa: $esp 16 +
STACK CFI 787a6 $ebx: .cfa -8 + ^ $edi: .cfa -12 + ^ $esi: .cfa -16 + ^ .cfa: $esp 64 +
STACK CFI INIT 78920 540 .cfa: $esp 4 + .ra: .cfa -4 + ^
STACK CFI 78921 .cfa: $esp 8 +
STACK CFI 78922 .cfa: $esp 12 +
STACK CFI 78923 .cfa: $esp 16 +
STACK CFI 78924 .cfa: $esp 20 +
STACK CFI 7892a $ebp: .cfa -8 + ^ $ebx: .cfa -12 + ^ $edi: .cfa -16 + ^ $esi: .cfa -20 + ^ .cfa: $esp 240 +
STACK CFI INIT 78e60 180 .cfa: $esp 4 + .ra: .cfa -4 + ^
STACK CFI 78e61 .cfa: $esp 8 +
STACK CFI 78e62 .cfa: $esp 12 +
STACK CFI 78e63 .cfa: $esp 16 +
STACK CFI 78e66 $ebx: .cfa -8 + ^ $edi: .cfa -12 + ^ $esi: .cfa -16 + ^ .cfa: $esp 64 +
STACK CFI INIT 78fe0 4e0 .cfa: $esp 4 + .ra: .cfa -4 + ^
STACK CFI 78fe1 .cfa: $esp 8 +
STACK CFI 78fe2 .cfa: $esp 12 +
STACK CFI 78fe3 .cfa: $esp 16 +
STACK CFI 78fe4 .cfa: $esp 20 +
STACK CFI 78fea $ebp: .cfa -8 + ^ $ebx: .cfa -12 + ^ $edi: .cfa -16 + ^ $esi: .cfa -20 + ^ .cfa: $esp 224 +
STACK CFI INIT 794c0 260 .cfa: $esp 4 + .ra: .cfa -4 + ^
STACK CFI 794c1 .cfa: $esp 8 +
STACK CFI 794c2 .cfa: $esp 12 +
STACK CFI 794c3 .cfa: $esp 16 +
STACK CFI 794c6 $ebx: .cfa -8 + ^ $edi: .cfa -12 + ^ $esi: .cfa -16 + ^ .cfa: $esp 64 +
STACK CFI INIT 79860 3a0 .cfa: $esp 4 + .ra: .cfa -4 + ^
STACK CFI 79861 .cfa: $esp 8 +
STACK CFI 79862 .cfa: $esp 12 +
STACK CFI 79863 .cfa: $esp 16 +
STACK CFI 79866 $ebx: .cfa -8 + ^ $edi: .cfa -12 + ^ $esi: .cfa -16 + ^ .cfa: $esp 80 +
STACK CFI INIT 79c00 cde0 .cfa: $esp 4 + .ra: .cfa -4 + ^
STACK CFI 79c01 .cfa: $esp 8 +
STACK CFI 79c02 .cfa: $esp 12 +
STACK CFI 79c03 .cfa: $esp 16 +
STACK CFI 79c04 .cfa: $esp 20 +
STACK CFI 79c0a $ebp: .cfa -8 + ^ $ebx: .cfa -12 + ^ $edi: .cfa -16 + ^ $esi: .cfa -20 + ^ .cfa: $esp 40976 +
STACK CFI INIT 892a0 180 .cfa: $esp 4 + .ra: .cfa -4 + ^
STACK CFI 892a1 .cfa: $esp 8 +
STACK CFI 892a2 .cfa: $esp 12 +
STACK CFI 892a3 .cfa: $esp 16 +
STACK CFI 892a6 $ebx: .cfa -8 + ^ $edi: .cfa -12 + ^ $esi: .cfa -16 + ^ .cfa: $esp 64 +
STACK CFI INIT 89420 540 .cfa: $esp 4 + .ra: .cfa -4 + ^
STACK CFI 89421 .cfa: $esp 8 +
STACK CFI 89422 .cfa: $esp 12 +
STACK CFI 89423 .cfa: $esp 16 +
STACK CFI 89424 .cfa: $esp 20 +
STACK CFI 8942a $ebp: .cfa -8 + ^ $ebx: .cfa -12 + ^ $edi: .cfa -16 + ^ $esi: .cfa -20 + ^ .cfa: $esp 240 +
STACK CFI INIT 89c80 220 .cfa: $esp 4 + .ra: .cfa -4 + ^
STACK CFI 89c81 .cfa: $esp 8 +
STACK CFI 89c82 .cfa: $esp 12 +
STACK CFI 89c83 .cfa: $esp 16 +
STACK CFI 89c84 .cfa: $esp 20 +
STACK CFI 89c87 $ebp: .cfa -8 + ^ $ebx: .cfa -12 + ^ $edi: .cfa -16 + ^ $esi: .cfa -20 + ^ .cfa: $esp 80 +
STACK CFI INIT 89ee0 180 .cfa: $esp 4 + .ra: .cfa -4 + ^
STACK CFI 89ee1 .cfa: $esp 8 +
STACK CFI 89ee2 .cfa: $esp 12 +
STACK CFI 89ee3 .cfa: $esp 16 +
STACK CFI 89ee6 $ebx: .cfa -8 + ^ $edi: .cfa -12 + ^ $esi: .cfa -16 + ^ .cfa: $esp 64 +
STACK CFI INIT 8a060 4e0 .cfa: $esp 4 + .ra: .cfa -4 + ^
STACK CFI 8a061 .cfa: $esp 8 +
STACK CFI 8a062 .cfa: $esp 12 +
STACK CFI 8a063 .cfa: $esp 16 +
STACK CFI 8a064 .cfa: $esp 20 +
STACK CFI 8a06a $ebp: .cfa -8 + ^ $ebx: .cfa -12 + ^ $edi: .cfa -16 + ^ $esi: .cfa -20 + ^ .cfa: $esp 224 +
STACK CFI INIT 8a540 500 .cfa: $esp 4 + .ra: .cfa -4 + ^
STACK CFI 8a541 .cfa: $esp 8 +
STACK CFI 8a542 .cfa: $esp 12 +
STACK CFI 8a543 .cfa: $esp 16 +
STACK CFI 8a544 .cfa: $esp 20 +
STACK CFI 8a54a $ebp: .cfa -8 + ^ $ebx: .cfa -12 + ^ $edi: .cfa -16 + ^ $esi: .cfa -20 + ^ .cfa: $esp 192 +
STACK CFI INIT 8aac0 500 .cfa: $esp 4 + .ra: .cfa -4 + ^
STACK CFI 8aac1 .cfa: $esp 8 +
STACK CFI 8aac2 .cfa: $esp 12 +
STACK CFI 8aac3 .cfa: $esp 16 +
STACK CFI 8aac4 .cfa: $esp 20 +
STACK CFI 8aaca $ebp: .cfa -8 + ^ $ebx: .cfa -12 + ^ $edi: .cfa -16 + ^ $esi: .cfa -20 + ^ .cfa: $esp 192 +
STACK CFI INIT 8b040 460 .cfa: $esp 4 + .ra: .cfa -4 + ^
STACK CFI 8b041 .cfa: $esp 8 +
STACK CFI 8b042 .cfa: $esp 12 +
STACK CFI 8b043 .cfa: $esp 16 +
STACK CFI 8b044 .cfa: $esp 20 +
STACK CFI 8b04a $ebp: .cfa -8 + ^ $ebx: .cfa -12 + ^ $edi: .cfa -16 + ^ $esi: .cfa -20 + ^ .cfa: $esp 240 +
STACK CFI INIT 8b5a0 180 .cfa: $esp 4 + .ra: .cfa -4 + ^
STACK CFI 8b5a1 .cfa: $esp 8 +
STACK CFI 8b5a4 $esi: .cfa -8 + ^ .cfa: $esp 48 +
STACK CFI INIT 8d420 540 .cfa: $esp 4 + .ra: .cfa -4 + ^
STACK CFI 8d421 .cfa: $esp 8 +
STACK CFI 8d422 .cfa: $esp 12 +
STACK CFI 8d423 .cfa: $esp 16 +
STACK CFI 8d424 .cfa: $esp 20 +
STACK CFI 8d42a $ebp: .cfa -8 + ^ $ebx: .cfa -12 + ^ $edi: .cfa -16 + ^ $esi: .cfa -20 + ^ .cfa: $esp 256 +
STACK CFI INIT 8d960 180 .cfa: $esp 4 + .ra: .cfa -4 + ^
STACK CFI 8d961 .cfa: $esp 8 +
STACK CFI 8d962 .cfa: $esp 12 +
STACK CFI 8d963 .cfa: $esp 16 +
STACK CFI 8d966 $ebx: .cfa -8 + ^ $edi: .cfa -12 + ^ $esi: .cfa -16 + ^ .cfa: $esp 64 +
STACK CFI INIT 8dae0 580 .cfa: $esp 4 + .ra: .cfa -4 + ^
STACK CFI 8dae1 .cfa: $esp 8 +
STACK CFI 8dae2 .cfa: $esp 12 +
STACK CFI 8dae3 .cfa: $esp 16 +
STACK CFI 8dae4 .cfa: $esp 20 +
STACK CFI 8daea $ebp: .cfa -8 + ^ $ebx: .cfa -12 + ^ $edi: .cfa -16 + ^ $esi: .cfa -20 + ^ .cfa: $esp 272 +
STACK CFI INIT 8e1a0 180 .cfa: $esp 4 + .ra: .cfa -4 + ^
STACK CFI 8e1a1 .cfa: $esp 8 +
STACK CFI 8e1a2 .cfa: $esp 12 +
STACK CFI 8e1a3 .cfa: $esp 16 +
STACK CFI 8e1a6 $ebx: .cfa -8 + ^ $edi: .cfa -12 + ^ $esi: .cfa -16 + ^ .cfa: $esp 64 +
STACK CFI INIT 8e320 180 .cfa: $esp 4 + .ra: .cfa -4 + ^
STACK CFI 8e321 .cfa: $esp 8 +
STACK CFI 8e322 .cfa: $esp 12 +
STACK CFI 8e323 .cfa: $esp 16 +
STACK CFI 8e326 $ebx: .cfa -8 + ^ $edi: .cfa -12 + ^ $esi: .cfa -16 + ^ .cfa: $esp 64 +
STACK CFI INIT 8f1c0 f40 .cfa: $esp 4 + .ra: .cfa -4 + ^
STACK CFI 8f1c1 .cfa: $esp 8 +
STACK CFI 8f1c2 .cfa: $esp 12 +
STACK CFI 8f1c3 .cfa: $esp 16 +
STACK CFI 8f1c4 .cfa: $esp 20 +
STACK CFI 8f1ca $ebp: .cfa -8 + ^ $ebx: .cfa -12 + ^ $edi: .cfa -16 + ^ $esi: .cfa -20 + ^ .cfa: $esp 320 +
STACK CFI INIT 903a0 300 .cfa: $esp 4 + .ra: .cfa -4 + ^
STACK CFI 903a1 .cfa: $esp 8 +
STACK CFI 903a2 .cfa: $esp 12 +
STACK CFI 903a3 .cfa: $esp 16 +
STACK CFI 903a4 .cfa: $esp 20 +
STACK CFI 903a7 $ebp: .cfa -8 + ^ $ebx: .cfa -12 + ^ $edi: .cfa -16 + ^ $esi: .cfa -20 + ^ .cfa: $esp 128 +
STACK CFI INIT 906c0 240 .cfa: $esp 4 + .ra: .cfa -4 + ^
STACK CFI 906c1 .cfa: $esp 8 +
STACK CFI 906c2 .cfa: $esp 12 +
STACK CFI 906c3 .cfa: $esp 16 +
STACK CFI 906c4 .cfa: $esp 20 +
STACK CFI 906c7 $ebp: .cfa -8 + ^ $ebx: .cfa -12 + ^ $edi: .cfa -16 + ^ $esi: .cfa -20 + ^ .cfa: $esp 48 +
STACK CFI INIT 914c0 5c0 .cfa: $esp 4 + .ra: .cfa -4 + ^
STACK CFI 914c1 .cfa: $esp 8 +
STACK CFI 914c2 .cfa: $esp 12 +
STACK CFI 914c3 .cfa: $esp 16 +
STACK CFI 914c4 .cfa: $esp 20 +
STACK CFI 914ca $ebp: .cfa -8 + ^ $ebx: .cfa -12 + ^ $edi: .cfa -16 + ^ $esi: .cfa -20 + ^ .cfa: $esp 272 +
STACK CFI INIT 91a80 5a0 .cfa: $esp 4 + .ra: .cfa -4 + ^
STACK CFI 91a81 .cfa: $esp 8 +
STACK CFI 91a82 .cfa: $esp 12 +
STACK CFI 91a83 .cfa: $esp 16 +
STACK CFI 91a84 .cfa: $esp 20 +
STACK CFI 91a8a $ebp: .cfa -8 + ^ $ebx: .cfa -12 + ^ $edi: .cfa -16 + ^ $esi: .cfa -20 + ^ .cfa: $esp 256 +
STACK CFI INIT 92020 4a0 .cfa: $esp 4 + .ra: .cfa -4 + ^
STACK CFI 92021 .cfa: $esp 8 +
STACK CFI 92022 .cfa: $esp 12 +
STACK CFI 92023 .cfa: $esp 16 +
STACK CFI 92024 .cfa: $esp 20 +
STACK CFI 92027 $ebp: .cfa -8 + ^ $ebx: .cfa -12 + ^ $edi: .cfa -16 + ^ $esi: .cfa -20 + ^ .cfa: $esp 112 +
STACK CFI INIT 924c0 440 .cfa: $esp 4 + .ra: .cfa -4 + ^
STACK CFI 924c1 .cfa: $esp 8 +
STACK CFI 924c4 $esi: .cfa -8 + ^ .cfa: $esp 96 +
STACK CFI INIT 93e00 6a0 .cfa: $esp 4 + .ra: .cfa -4 + ^
STACK CFI 93e01 .cfa: $esp 8 +
STACK CFI 93e02 .cfa: $esp 12 +
STACK CFI 93e03 .cfa: $esp 16 +
STACK CFI 93e04 .cfa: $esp 20 +
STACK CFI 93e0a $ebp: .cfa -8 + ^ $ebx: .cfa -12 + ^ $edi: .cfa -16 + ^ $esi: .cfa -20 + ^ .cfa: $esp 272 +
STACK CFI INIT 944a0 520 .cfa: $esp 4 + .ra: .cfa -4 + ^
STACK CFI 944a1 .cfa: $esp 8 +
STACK CFI 944a2 .cfa: $esp 12 +
STACK CFI 944a3 .cfa: $esp 16 +
STACK CFI 944a4 .cfa: $esp 20 +
STACK CFI 944aa $ebp: .cfa -8 + ^ $ebx: .cfa -12 + ^ $edi: .cfa -16 + ^ $esi: .cfa -20 + ^ .cfa: $esp 192 +
STACK CFI INIT 9ae60 860 .cfa: $esp 4 + .ra: .cfa -4 + ^
STACK CFI 9ae61 .cfa: $esp 8 +
STACK CFI 9ae62 .cfa: $esp 12 +
STACK CFI 9ae63 .cfa: $esp 16 +
STACK CFI 9ae64 .cfa: $esp 20 +
STACK CFI 9ae67 $ebp: .cfa -8 + ^ $ebx: .cfa -12 + ^ $edi: .cfa -16 + ^ $esi: .cfa -20 + ^ .cfa: $esp 96 +
STACK CFI INIT 9e120 1e0 .cfa: $esp 4 + .ra: .cfa -4 + ^
STACK CFI 9e121 .cfa: $esp 8 +
STACK CFI 9e122 .cfa: $esp 12 +
STACK CFI 9e125 $edi: .cfa -8 + ^ $esi: .cfa -12 + ^ .cfa: $esp 64 +
STACK CFI INIT 9e800 260 .cfa: $esp 4 + .ra: .cfa -4 + ^
STACK CFI 9e801 .cfa: $esp 8 +
STACK CFI 9e802 .cfa: $esp 12 +
STACK CFI 9e805 $edi: .cfa -8 + ^ $esi: .cfa -12 + ^ .cfa: $esp 64 +
STACK CFI INIT 9eaa0 200 .cfa: $esp 4 + .ra: .cfa -4 + ^
STACK CFI 9eaa1 .cfa: $esp 8 +
STACK CFI 9eaa4 $esi: .cfa -8 + ^ .cfa: $esp 64 +
STACK CFI INIT 9f620 4c0 .cfa: $esp 4 + .ra: .cfa -4 + ^
STACK CFI 9f621 .cfa: $esp 8 +
STACK CFI 9f622 .cfa: $esp 12 +
STACK CFI 9f623 .cfa: $esp 16 +
STACK CFI 9f624 .cfa: $esp 20 +
STACK CFI 9f62a $ebp: .cfa -8 + ^ $ebx: .cfa -12 + ^ $edi: .cfa -16 + ^ $esi: .cfa -20 + ^ .cfa: $esp 208 +
STACK CFI INIT 9fae0 520 .cfa: $esp 4 + .ra: .cfa -4 + ^
STACK CFI 9fae1 .cfa: $esp 8 +
STACK CFI 9fae2 .cfa: $esp 12 +
STACK CFI 9fae3 .cfa: $esp 16 +
STACK CFI 9fae4 .cfa: $esp 20 +
STACK CFI 9faea $ebp: .cfa -8 + ^ $ebx: .cfa -12 + ^ $edi: .cfa -16 + ^ $esi: .cfa -20 + ^ .cfa: $esp 192 +
STACK CFI INIT a0020 540 .cfa: $esp 4 + .ra: .cfa -4 + ^
STACK CFI a0021 .cfa: $esp 8 +
STACK CFI a0022 .cfa: $esp 12 +
STACK CFI a0023 .cfa: $esp 16 +
STACK CFI a0024 .cfa: $esp 20 +
STACK CFI a002a $ebp: .cfa -8 + ^ $ebx: .cfa -12 + ^ $edi: .cfa -16 + ^ $esi: .cfa -20 + ^ .cfa: $esp 240 +
STACK CFI INIT a0560 180 .cfa: $esp 4 + .ra: .cfa -4 + ^
STACK CFI a0561 .cfa: $esp 8 +
STACK CFI a0562 .cfa: $esp 12 +
STACK CFI a0563 .cfa: $esp 16 +
STACK CFI a0564 .cfa: $esp 20 +
STACK CFI a0567 $ebp: .cfa -8 + ^ $ebx: .cfa -12 + ^ $edi: .cfa -16 + ^ $esi: .cfa -20 + ^ .cfa: $esp 64 +
STACK CFI INIT a0900 360 .cfa: $esp 4 + .ra: .cfa -4 + ^
STACK CFI a0901 .cfa: $esp 8 +
STACK CFI a0904 $esi: .cfa -8 + ^ .cfa: $esp 96 +
STACK CFI INIT a0e40 460 .cfa: $esp 4 + .ra: .cfa -4 + ^
STACK CFI a0e41 .cfa: $esp 8 +
STACK CFI a0e42 .cfa: $esp 12 +
STACK CFI a0e43 .cfa: $esp 16 +
STACK CFI a0e44 .cfa: $esp 20 +
STACK CFI a0e4a $ebp: .cfa -8 + ^ $ebx: .cfa -12 + ^ $edi: .cfa -16 + ^ $esi: .cfa -20 + ^ .cfa: $esp 1136 +
STACK CFI INIT a12a0 1a80 .cfa: $esp 4 + .ra: .cfa -4 + ^
STACK CFI a12a1 .cfa: $esp 8 +
STACK CFI a12a2 .cfa: $esp 12 +
STACK CFI a12a3 .cfa: $esp 16 +
STACK CFI a12a4 .cfa: $esp 20 +
STACK CFI a12aa $ebp: .cfa -8 + ^ $ebx: .cfa -12 + ^ $edi: .cfa -16 + ^ $esi: .cfa -20 + ^ .cfa: $esp 768 +
STACK CFI INIT a2f00 180 .cfa: $esp 4 + .ra: .cfa -4 + ^
STACK CFI a2f01 .cfa: $esp 8 +
STACK CFI a2f02 .cfa: $esp 12 +
STACK CFI a2f03 .cfa: $esp 16 +
STACK CFI a2f06 $ebx: .cfa -8 + ^ $edi: .cfa -12 + ^ $esi: .cfa -16 + ^ .cfa: $esp 64 +
STACK CFI INIT a3080 180 .cfa: $esp 4 + .ra: .cfa -4 + ^
STACK CFI a3081 .cfa: $esp 8 +
STACK CFI a3082 .cfa: $esp 12 +
STACK CFI a3083 .cfa: $esp 16 +
STACK CFI a3086 $ebx: .cfa -8 + ^ $edi: .cfa -12 + ^ $esi: .cfa -16 + ^ .cfa: $esp 64 +
STACK CFI INIT a3200 180 .cfa: $esp 4 + .ra: .cfa -4 + ^
STACK CFI a3201 .cfa: $esp 8 +
STACK CFI a3202 .cfa: $esp 12 +
STACK CFI a3203 .cfa: $esp 16 +
STACK CFI a3206 $ebx: .cfa -8 + ^ $edi: .cfa -12 + ^ $esi: .cfa -16 + ^ .cfa: $esp 64 +
STACK CFI INIT a3380 180 .cfa: $esp 4 + .ra: .cfa -4 + ^
STACK CFI a3381 .cfa: $esp 8 +
STACK CFI a3382 .cfa: $esp 12 +
STACK CFI a3383 .cfa: $esp 16 +
STACK CFI a3386 $ebx: .cfa -8 + ^ $edi: .cfa -12 + ^ $esi: .cfa -16 + ^ .cfa: $esp 64 +
STACK CFI INIT a3780 5e0 .cfa: $esp 4 + .ra: .cfa -4 + ^
STACK CFI a3781 .cfa: $esp 8 +
STACK CFI a3782 .cfa: $esp 12 +
STACK CFI a3783 .cfa: $esp 16 +
STACK CFI a3784 .cfa: $esp 20 +
STACK CFI a378a $ebp: .cfa -8 + ^ $ebx: .cfa -12 + ^ $edi: .cfa -16 + ^ $esi: .cfa -20 + ^ .cfa: $esp 288 +
STACK CFI INIT a3d60 6e0 .cfa: $esp 4 + .ra: .cfa -4 + ^
STACK CFI a3d61 .cfa: $esp 8 +
STACK CFI a3d62 .cfa: $esp 12 +
STACK CFI a3d63 .cfa: $esp 16 +
STACK CFI a3d69 $ebx: .cfa -8 + ^ $edi: .cfa -12 + ^ $esi: .cfa -16 + ^ .cfa: $esp 256 +
STACK CFI INIT a4440 440 .cfa: $esp 4 + .ra: .cfa -4 + ^
STACK CFI a4441 .cfa: $esp 8 +
STACK CFI a4442 .cfa: $esp 12 +
STACK CFI a4443 .cfa: $esp 16 +
STACK CFI a4444 .cfa: $esp 20 +
STACK CFI a444a $ebp: .cfa -8 + ^ $ebx: .cfa -12 + ^ $edi: .cfa -16 + ^ $esi: .cfa -20 + ^ .cfa: $esp 1088 +
STACK CFI INIT a4b80 6a0 .cfa: $esp 4 + .ra: .cfa -4 + ^
STACK CFI a4b81 .cfa: $esp 8 +
STACK CFI a4b82 .cfa: $esp 12 +
STACK CFI a4b83 .cfa: $esp 16 +
STACK CFI a4b84 .cfa: $esp 20 +
STACK CFI a4b8a $ebp: .cfa -8 + ^ $ebx: .cfa -12 + ^ $edi: .cfa -16 + ^ $esi: .cfa -20 + ^ .cfa: $esp 672 +
STACK CFI INIT a5840 920 .cfa: $esp 4 + .ra: .cfa -4 + ^
STACK CFI a5841 .cfa: $esp 8 +
STACK CFI a5842 .cfa: $esp 12 +
STACK CFI a5843 .cfa: $esp 16 +
STACK CFI a5844 .cfa: $esp 20 +
STACK CFI a584a $ebp: .cfa -8 + ^ $ebx: .cfa -12 + ^ $edi: .cfa -16 + ^ $esi: .cfa -20 + ^ .cfa: $esp 19712 +
STACK CFI INIT a8500 f60 .cfa: $esp 4 + .ra: .cfa -4 + ^
STACK CFI a8501 .cfa: $esp 8 +
STACK CFI a8502 .cfa: $esp 12 +
STACK CFI a8503 .cfa: $esp 16 +
STACK CFI a8504 .cfa: $esp 20 +
STACK CFI a850a $ebp: .cfa -8 + ^ $ebx: .cfa -12 + ^ $edi: .cfa -16 + ^ $esi: .cfa -20 + ^ .cfa: $esp 1504 +
STACK CFI INIT aae40 1ee0 .cfa: $esp 4 + .ra: .cfa -4 + ^
STACK CFI aae41 .cfa: $esp 8 +
STACK CFI aae42 .cfa: $esp 12 +
STACK CFI aae43 .cfa: $esp 16 +
STACK CFI aae44 .cfa: $esp 20 +
STACK CFI aae4a $ebp: .cfa -8 + ^ $ebx: .cfa -12 + ^ $edi: .cfa -16 + ^ $esi: .cfa -20 + ^ .cfa: $esp 4512 +
STACK CFI INIT af240 200 .cfa: $esp 4 + .ra: .cfa -4 + ^
STACK CFI af241 .cfa: $esp 8 +
STACK CFI af242 .cfa: $esp 12 +
STACK CFI af243 .cfa: $esp 16 +
STACK CFI af246 $ebx: .cfa -8 + ^ $edi: .cfa -12 + ^ $esi: .cfa -16 + ^ .cfa: $esp 64 +
STACK CFI INIT af760 200 .cfa: $esp 4 + .ra: .cfa -4 + ^
STACK CFI af761 .cfa: $esp 8 +
STACK CFI af762 .cfa: $esp 12 +
STACK CFI af763 .cfa: $esp 16 +
STACK CFI af766 $ebx: .cfa -8 + ^ $edi: .cfa -12 + ^ $esi: .cfa -16 + ^ .cfa: $esp 64 +
STACK CFI INIT af9c0 3a0 .cfa: $esp 4 + .ra: .cfa -4 + ^
STACK CFI af9c1 .cfa: $esp 8 +
STACK CFI af9c2 .cfa: $esp 12 +
STACK CFI af9c3 .cfa: $esp 16 +
STACK CFI af9c4 .cfa: $esp 20 +
STACK CFI af9c7 $ebp: .cfa -8 + ^ $ebx: .cfa -12 + ^ $edi: .cfa -16 + ^ $esi: .cfa -20 + ^ .cfa: $esp 96 +
STACK CFI INIT affe0 200 .cfa: $esp 4 + .ra: .cfa -4 + ^
STACK CFI affe1 .cfa: $esp 8 +
STACK CFI affe2 .cfa: $esp 12 +
STACK CFI affe5 $edi: .cfa -8 + ^ $esi: .cfa -12 + ^ .cfa: $esp 48 +
STACK CFI INIT b0300 200 .cfa: $esp 4 + .ra: .cfa -4 + ^
STACK CFI b0301 .cfa: $esp 8 +
STACK CFI b0302 .cfa: $esp 12 +
STACK CFI b0305 $edi: .cfa -8 + ^ $esi: .cfa -12 + ^ .cfa: $esp 48 +
STACK CFI INIT b0ae0 180 .cfa: $esp 4 + .ra: .cfa -4 + ^
STACK CFI b0ae1 .cfa: $esp 8 +
STACK CFI b0ae2 .cfa: $esp 12 +
STACK CFI b0ae3 .cfa: $esp 16 +
STACK CFI b0ae6 $ebx: .cfa -8 + ^ $edi: .cfa -12 + ^ $esi: .cfa -16 + ^ .cfa: $esp 64 +
STACK CFI INIT b0c60 d40 .cfa: $esp 4 + .ra: .cfa -4 + ^
STACK CFI b0c61 .cfa: $esp 8 +
STACK CFI b0c62 .cfa: $esp 12 +
STACK CFI b0c63 .cfa: $esp 16 +
STACK CFI b0c64 .cfa: $esp 20 +
STACK CFI b0c6a $ebp: .cfa -8 + ^ $ebx: .cfa -12 + ^ $edi: .cfa -16 + ^ $esi: .cfa -20 + ^ .cfa: $esp 368 +
STACK CFI INIT b1f20 240 .cfa: $esp 4 + .ra: .cfa -4 + ^
STACK CFI b1f21 .cfa: $esp 8 +
STACK CFI b1f22 .cfa: $esp 12 +
STACK CFI b1f23 .cfa: $esp 16 +
STACK CFI b1f26 $ebx: .cfa -8 + ^ $edi: .cfa -12 + ^ $esi: .cfa -16 + ^ .cfa: $esp 64 +
STACK CFI INIT b3c00 200 .cfa: $esp 4 + .ra: .cfa -4 + ^
STACK CFI b3c01 .cfa: $esp 8 +
STACK CFI b3c02 .cfa: $esp 12 +
STACK CFI b3c05 $edi: .cfa -8 + ^ $esi: .cfa -12 + ^ .cfa: $esp 64 +
STACK CFI INIT b3e00 580 .cfa: $esp 4 + .ra: .cfa -4 + ^
STACK CFI b3e01 .cfa: $esp 8 +
STACK CFI b3e02 .cfa: $esp 12 +
STACK CFI b3e03 .cfa: $esp 16 +
STACK CFI b3e04 .cfa: $esp 20 +
STACK CFI b3e07 $ebp: .cfa -8 + ^ $ebx: .cfa -12 + ^ $edi: .cfa -16 + ^ $esi: .cfa -20 + ^ .cfa: $esp 128 +
STACK CFI INIT b4380 ac0 .cfa: $esp 4 + .ra: .cfa -4 + ^
STACK CFI b4381 .cfa: $esp 8 +
STACK CFI b4382 .cfa: $esp 12 +
STACK CFI b4383 .cfa: $esp 16 +
STACK CFI b4384 .cfa: $esp 20 +
STACK CFI b438a $ebp: .cfa -8 + ^ $ebx: .cfa -12 + ^ $edi: .cfa -16 + ^ $esi: .cfa -20 + ^ .cfa: $esp 160 +
STACK CFI INIT b4e40 180 .cfa: $esp 4 + .ra: .cfa -4 + ^
STACK CFI b4e41 .cfa: $esp 8 +
STACK CFI b4e42 .cfa: $esp 12 +
STACK CFI b4e43 .cfa: $esp 16 +
STACK CFI b4e46 $ebx: .cfa -8 + ^ $edi: .cfa -12 + ^ $esi: .cfa -16 + ^ .cfa: $esp 64 +
STACK CFI INIT b4fc0 180 .cfa: $esp 4 + .ra: .cfa -4 + ^
STACK CFI b4fc1 .cfa: $esp 8 +
STACK CFI b4fc2 .cfa: $esp 12 +
STACK CFI b4fc3 .cfa: $esp 16 +
STACK CFI b4fc6 $ebx: .cfa -8 + ^ $edi: .cfa -12 + ^ $esi: .cfa -16 + ^ .cfa: $esp 64 +
STACK CFI INIT b5140 4c0 .cfa: $esp 4 + .ra: .cfa -4 + ^
STACK CFI b5141 .cfa: $esp 8 +
STACK CFI b5142 .cfa: $esp 12 +
STACK CFI b5143 .cfa: $esp 16 +
STACK CFI b5144 .cfa: $esp 20 +
STACK CFI b514a $ebp: .cfa -8 + ^ $ebx: .cfa -12 + ^ $edi: .cfa -16 + ^ $esi: .cfa -20 + ^ .cfa: $esp 208 +
STACK CFI INIT b5600 520 .cfa: $esp 4 + .ra: .cfa -4 + ^
STACK CFI b5601 .cfa: $esp 8 +
STACK CFI b5602 .cfa: $esp 12 +
STACK CFI b5603 .cfa: $esp 16 +
STACK CFI b5604 .cfa: $esp 20 +
STACK CFI b560a $ebp: .cfa -8 + ^ $ebx: .cfa -12 + ^ $edi: .cfa -16 + ^ $esi: .cfa -20 + ^ .cfa: $esp 192 +
STACK CFI INIT b5b40 4e0 .cfa: $esp 4 + .ra: .cfa -4 + ^
STACK CFI b5b41 .cfa: $esp 8 +
STACK CFI b5b42 .cfa: $esp 12 +
STACK CFI b5b43 .cfa: $esp 16 +
STACK CFI b5b44 .cfa: $esp 20 +
STACK CFI b5b4a $ebp: .cfa -8 + ^ $ebx: .cfa -12 + ^ $edi: .cfa -16 + ^ $esi: .cfa -20 + ^ .cfa: $esp 224 +
STACK CFI INIT b60a0 200 .cfa: $esp 4 + .ra: .cfa -4 + ^
STACK CFI b60a1 .cfa: $esp 8 +
STACK CFI b60a2 .cfa: $esp 12 +
STACK CFI b60a3 .cfa: $esp 16 +
STACK CFI b60a6 $ebx: .cfa -8 + ^ $edi: .cfa -12 + ^ $esi: .cfa -16 + ^ .cfa: $esp 64 +
STACK CFI INIT b6a40 2e0 .cfa: $esp 4 + .ra: .cfa -4 + ^
STACK CFI b6a41 .cfa: $esp 8 +
STACK CFI b6a42 .cfa: $esp 12 +
STACK CFI b6a43 .cfa: $esp 16 +
STACK CFI b6a44 .cfa: $esp 20 +
STACK CFI b6a47 $ebp: .cfa -8 + ^ $ebx: .cfa -12 + ^ $edi: .cfa -16 + ^ $esi: .cfa -20 + ^ .cfa: $esp 80 +
STACK CFI INIT b7440 440 .cfa: $esp 4 + .ra: .cfa -4 + ^
STACK CFI b7441 .cfa: $esp 8 +
STACK CFI b7442 .cfa: $esp 12 +
STACK CFI b7443 .cfa: $esp 16 +
STACK CFI b7446 $ebx: .cfa -8 + ^ $edi: .cfa -12 + ^ $esi: .cfa -16 + ^ .cfa: $esp 128 +
STACK CFI INIT b7fa0 180 .cfa: $esp 4 + .ra: .cfa -4 + ^
STACK CFI b7fa1 .cfa: $esp 8 +
STACK CFI b7fa2 .cfa: $esp 12 +
STACK CFI b7fa3 .cfa: $esp 16 +
STACK CFI b7fa6 $ebx: .cfa -8 + ^ $edi: .cfa -12 + ^ $esi: .cfa -16 + ^ .cfa: $esp 64 +
STACK CFI INIT b8120 180 .cfa: $esp 4 + .ra: .cfa -4 + ^
STACK CFI b8121 .cfa: $esp 8 +
STACK CFI b8122 .cfa: $esp 12 +
STACK CFI b8123 .cfa: $esp 16 +
STACK CFI b8126 $ebx: .cfa -8 + ^ $edi: .cfa -12 + ^ $esi: .cfa -16 + ^ .cfa: $esp 64 +
STACK CFI INIT b82a0 180 .cfa: $esp 4 + .ra: .cfa -4 + ^
STACK CFI b82a1 .cfa: $esp 8 +
STACK CFI b82a2 .cfa: $esp 12 +
STACK CFI b82a3 .cfa: $esp 16 +
STACK CFI b82a6 $ebx: .cfa -8 + ^ $edi: .cfa -12 + ^ $esi: .cfa -16 + ^ .cfa: $esp 64 +
STACK CFI INIT b8420 180 .cfa: $esp 4 + .ra: .cfa -4 + ^
STACK CFI b8421 .cfa: $esp 8 +
STACK CFI b8422 .cfa: $esp 12 +
STACK CFI b8423 .cfa: $esp 16 +
STACK CFI b8426 $ebx: .cfa -8 + ^ $edi: .cfa -12 + ^ $esi: .cfa -16 + ^ .cfa: $esp 64 +
STACK CFI INIT b9640 920 .cfa: $esp 4 + .ra: .cfa -4 + ^
STACK CFI b9641 .cfa: $esp 8 +
STACK CFI b9642 .cfa: $esp 12 +
STACK CFI b9643 .cfa: $esp 16 +
STACK CFI b9649 $ebx: .cfa -8 + ^ $edi: .cfa -12 + ^ $esi: .cfa -16 + ^ .cfa: $esp 304 +
STACK CFI INIT ba4e0 240 .cfa: $esp 4 + .ra: .cfa -4 + ^
STACK CFI ba4e1 .cfa: $esp 8 +
STACK CFI ba4e2 .cfa: $esp 12 +
STACK CFI ba4e3 .cfa: $esp 16 +
STACK CFI ba4e6 $ebx: .cfa -8 + ^ $edi: .cfa -12 + ^ $esi: .cfa -16 + ^ .cfa: $esp 64 +
STACK CFI INIT bac00 3a0 .cfa: $esp 4 + .ra: .cfa -4 + ^
STACK CFI bac01 .cfa: $esp 8 +
STACK CFI bac02 .cfa: $esp 12 +
STACK CFI bac03 .cfa: $esp 16 +
STACK CFI bac06 $ebx: .cfa -8 + ^ $edi: .cfa -12 + ^ $esi: .cfa -16 + ^ .cfa: $esp 48 +
STACK CFI INIT bb4e0 220 .cfa: $esp 4 + .ra: .cfa -4 + ^
STACK CFI bb4e1 .cfa: $esp 8 +
STACK CFI bb4e2 .cfa: $esp 12 +
STACK CFI bb4e3 .cfa: $esp 16 +
STACK CFI bb4e6 $ebx: .cfa -8 + ^ $edi: .cfa -12 + ^ $esi: .cfa -16 + ^ .cfa: $esp 64 +
STACK CFI INIT bbde0 220 .cfa: $esp 4 + .ra: .cfa -4 + ^
STACK CFI bbde1 .cfa: $esp 8 +
STACK CFI bbde2 .cfa: $esp 12 +
STACK CFI bbde3 .cfa: $esp 16 +
STACK CFI bbde6 $ebx: .cfa -8 + ^ $edi: .cfa -12 + ^ $esi: .cfa -16 + ^ .cfa: $esp 64 +
STACK CFI INIT bc400 240 .cfa: $esp 4 + .ra: .cfa -4 + ^
STACK CFI bc401 .cfa: $esp 8 +
STACK CFI bc402 .cfa: $esp 12 +
STACK CFI bc403 .cfa: $esp 16 +
STACK CFI bc406 $ebx: .cfa -8 + ^ $edi: .cfa -12 + ^ $esi: .cfa -16 + ^ .cfa: $esp 64 +
STACK CFI INIT bcf60 9a0 .cfa: $esp 4 + .ra: .cfa -4 + ^
STACK CFI bcf61 .cfa: $esp 8 +
STACK CFI bcf62 .cfa: $esp 12 +
STACK CFI bcf63 .cfa: $esp 16 +
STACK CFI bcf64 .cfa: $esp 20 +
STACK CFI bcf6a $ebp: .cfa -8 + ^ $ebx: .cfa -12 + ^ $edi: .cfa -16 + ^ $esi: .cfa -20 + ^ .cfa: $esp 240 +
STACK CFI INIT bd9e0 240 .cfa: $esp 4 + .ra: .cfa -4 + ^
STACK CFI bd9e1 .cfa: $esp 8 +
STACK CFI bd9e2 .cfa: $esp 12 +
STACK CFI bd9e3 .cfa: $esp 16 +
STACK CFI bd9e6 $ebx: .cfa -8 + ^ $edi: .cfa -12 + ^ $esi: .cfa -16 + ^ .cfa: $esp 64 +
STACK CFI INIT bdc20 100 .cfa: $esp 4 + .ra: .cfa -4 + ^
STACK CFI bdc21 .cfa: $esp 8 +
STACK CFI bdc22 .cfa: $esp 12 +
STACK CFI bdc23 $edi: .cfa -8 + ^ $esi: .cfa -12 + ^ .cfa: $esp 16 +
STACK CFI INIT bdda0 540 .cfa: $esp 4 + .ra: .cfa -4 + ^
STACK CFI bdda1 .cfa: $esp 8 +
STACK CFI bdda2 .cfa: $esp 12 +
STACK CFI bdda3 .cfa: $esp 16 +
STACK CFI bdda6 $ebx: .cfa -8 + ^ $edi: .cfa -12 + ^ $esi: .cfa -16 + ^ .cfa: $esp 80 +
STACK CFI INIT be980 200 .cfa: $esp 4 + .ra: .cfa -4 + ^
STACK CFI be981 .cfa: $esp 8 +
STACK CFI be982 .cfa: $esp 12 +
STACK CFI be985 $edi: .cfa -8 + ^ $esi: .cfa -12 + ^ .cfa: $esp 32 +
STACK CFI INIT beb80 140 .cfa: $esp 4 + .ra: .cfa -4 + ^
STACK CFI beb81 .cfa: $esp 8 +
STACK CFI beb82 .cfa: $esp 12 +
STACK CFI beb85 $edi: .cfa -8 + ^ $esi: .cfa -12 + ^ .cfa: $esp 48 +
STACK CFI INIT becc0 180 .cfa: $esp 4 + .ra: .cfa -4 + ^
STACK CFI becc1 .cfa: $esp 8 +
STACK CFI becc2 .cfa: $esp 12 +
STACK CFI becc3 .cfa: $esp 16 +
STACK CFI becc6 $ebx: .cfa -8 + ^ $edi: .cfa -12 + ^ $esi: .cfa -16 + ^ .cfa: $esp 64 +
STACK CFI INIT bee40 f00 .cfa: $esp 4 + .ra: .cfa -4 + ^
STACK CFI bee41 .cfa: $esp 8 +
STACK CFI bee42 .cfa: $esp 12 +
STACK CFI bee43 .cfa: $esp 16 +
STACK CFI bee44 .cfa: $esp 20 +
STACK CFI bee4a $ebp: .cfa -8 + ^ $ebx: .cfa -12 + ^ $edi: .cfa -16 + ^ $esi: .cfa -20 + ^ .cfa: $esp 592 +
STACK CFI INIT bfd40 1560 .cfa: $esp 4 + .ra: .cfa -4 + ^
STACK CFI bfd41 .cfa: $esp 8 +
STACK CFI bfd42 .cfa: $esp 12 +
STACK CFI bfd43 .cfa: $esp 16 +
STACK CFI bfd44 .cfa: $esp 20 +
STACK CFI bfd4a $ebp: .cfa -8 + ^ $ebx: .cfa -12 + ^ $edi: .cfa -16 + ^ $esi: .cfa -20 + ^ .cfa: $esp 608 +
STACK CFI INIT c12a0 520 .cfa: $esp 4 + .ra: .cfa -4 + ^
STACK CFI c12a1 .cfa: $esp 8 +
STACK CFI c12a2 .cfa: $esp 12 +
STACK CFI c12a3 .cfa: $esp 16 +
STACK CFI c12a4 .cfa: $esp 20 +
STACK CFI c12aa $ebp: .cfa -8 + ^ $ebx: .cfa -12 + ^ $edi: .cfa -16 + ^ $esi: .cfa -20 + ^ .cfa: $esp 192 +
STACK CFI INIT c2080 bc0 .cfa: $esp 4 + .ra: .cfa -4 + ^
STACK CFI c2081 .cfa: $esp 8 +
STACK CFI c2082 .cfa: $esp 12 +
STACK CFI c2083 .cfa: $esp 16 +
STACK CFI c2084 .cfa: $esp 20 +
STACK CFI c2087 $ebp: .cfa -8 + ^ $ebx: .cfa -12 + ^ $edi: .cfa -16 + ^ $esi: .cfa -20 + ^ .cfa: $esp 128 +
STACK CFI INIT c2c40 180 .cfa: $esp 4 + .ra: .cfa -4 + ^
STACK CFI c2c41 .cfa: $esp 8 +
STACK CFI c2c42 .cfa: $esp 12 +
STACK CFI c2c43 .cfa: $esp 16 +
STACK CFI c2c46 $ebx: .cfa -8 + ^ $edi: .cfa -12 + ^ $esi: .cfa -16 + ^ .cfa: $esp 64 +
STACK CFI INIT c2dc0 680 .cfa: $esp 4 + .ra: .cfa -4 + ^
STACK CFI c2dc1 .cfa: $esp 8 +
STACK CFI c2dc2 .cfa: $esp 12 +
STACK CFI c2dc3 .cfa: $esp 16 +
STACK CFI c2dc4 .cfa: $esp 20 +
STACK CFI c2dc7 $ebp: .cfa -8 + ^ $ebx: .cfa -12 + ^ $edi: .cfa -16 + ^ $esi: .cfa -20 + ^ .cfa: $esp 112 +
STACK CFI INIT c35e0 440 .cfa: $esp 4 + .ra: .cfa -4 + ^
STACK CFI c35e1 .cfa: $esp 8 +
STACK CFI c35e2 .cfa: $esp 12 +
STACK CFI c35e8 $edi: .cfa -8 + ^ $esi: .cfa -12 + ^ .cfa: $esp 160 +
STACK CFI INIT c3a20 c0 .cfa: $esp 4 + .ra: .cfa -4 + ^
STACK CFI c3a21 .cfa: $esp 8 +
STACK CFI c3a22 .cfa: $esp 12 +
STACK CFI c3a23 $edi: .cfa -8 + ^ $esi: .cfa -12 + ^ .cfa: $esp 16 +
STACK CFI INIT c3ae0 180 .cfa: $esp 4 + .ra: .cfa -4 + ^
STACK CFI c3ae1 .cfa: $esp 8 +
STACK CFI c3ae2 .cfa: $esp 12 +
STACK CFI c3ae3 .cfa: $esp 16 +
STACK CFI c3ae6 $ebx: .cfa -8 + ^ $edi: .cfa -12 + ^ $esi: .cfa -16 + ^ .cfa: $esp 64 +
STACK CFI INIT c3c60 340 .cfa: $esp 4 + .ra: .cfa -4 + ^
STACK CFI c3c61 .cfa: $esp 8 +
STACK CFI c3c62 .cfa: $esp 12 +
STACK CFI c3c63 .cfa: $esp 16 +
STACK CFI c3c64 .cfa: $esp 20 +
STACK CFI c3c67 $ebp: .cfa -8 + ^ $ebx: .cfa -12 + ^ $edi: .cfa -16 + ^ $esi: .cfa -20 + ^ .cfa: $esp 80 +
STACK CFI INIT c4140 ec0 .cfa: $esp 4 + .ra: .cfa -4 + ^
STACK CFI c4141 .cfa: $esp 8 +
STACK CFI c4142 .cfa: $esp 12 +
STACK CFI c4143 .cfa: $esp 16 +
STACK CFI c4144 .cfa: $esp 20 +
STACK CFI c414a $ebp: .cfa -8 + ^ $ebx: .cfa -12 + ^ $edi: .cfa -16 + ^ $esi: .cfa -20 + ^ .cfa: $esp 448 +
STACK CFI INIT c5140 180 .cfa: $esp 4 + .ra: .cfa -4 + ^
STACK CFI c5141 .cfa: $esp 8 +
STACK CFI c5142 .cfa: $esp 12 +
STACK CFI c5143 .cfa: $esp 16 +
STACK CFI c5146 $ebx: .cfa -8 + ^ $edi: .cfa -12 + ^ $esi: .cfa -16 + ^ .cfa: $esp 64 +
STACK CFI INIT c52c0 180 .cfa: $esp 4 + .ra: .cfa -4 + ^
STACK CFI c52c1 .cfa: $esp 8 +
STACK CFI c52c2 .cfa: $esp 12 +
STACK CFI c52c3 .cfa: $esp 16 +
STACK CFI c52c6 $ebx: .cfa -8 + ^ $edi: .cfa -12 + ^ $esi: .cfa -16 + ^ .cfa: $esp 64 +
STACK CFI INIT c5c20 4c0 .cfa: $esp 4 + .ra: .cfa -4 + ^
STACK CFI c5c21 .cfa: $esp 8 +
STACK CFI c5c22 .cfa: $esp 12 +
STACK CFI c5c23 .cfa: $esp 16 +
STACK CFI c5c24 .cfa: $esp 20 +
STACK CFI c5c2a $ebp: .cfa -8 + ^ $ebx: .cfa -12 + ^ $edi: .cfa -16 + ^ $esi: .cfa -20 + ^ .cfa: $esp 208 +
STACK CFI INIT c60e0 700 .cfa: $esp 4 + .ra: .cfa -4 + ^
STACK CFI c60e1 .cfa: $esp 8 +
STACK CFI c60e2 .cfa: $esp 12 +
STACK CFI c60e3 .cfa: $esp 16 +
STACK CFI c60e4 .cfa: $esp 20 +
STACK CFI c60ea $ebp: .cfa -8 + ^ $ebx: .cfa -12 + ^ $edi: .cfa -16 + ^ $esi: .cfa -20 + ^ .cfa: $esp 208 +
STACK CFI INIT c6860 520 .cfa: $esp 4 + .ra: .cfa -4 + ^
STACK CFI c6861 .cfa: $esp 8 +
STACK CFI c6862 .cfa: $esp 12 +
STACK CFI c6863 .cfa: $esp 16 +
STACK CFI c6864 .cfa: $esp 20 +
STACK CFI c686a $ebp: .cfa -8 + ^ $ebx: .cfa -12 + ^ $edi: .cfa -16 + ^ $esi: .cfa -20 + ^ .cfa: $esp 192 +
STACK CFI INIT d09e0 240 .cfa: $esp 4 + .ra: .cfa -4 + ^
STACK CFI d09e1 .cfa: $esp 8 +
STACK CFI d09e2 .cfa: $esp 12 +
STACK CFI d09e3 .cfa: $esp 16 +
STACK CFI d09e4 .cfa: $esp 20 +
STACK CFI d09e7 $ebp: .cfa -8 + ^ $ebx: .cfa -12 + ^ $edi: .cfa -16 + ^ $esi: .cfa -20 + ^ .cfa: $esp 80 +
STACK CFI INIT d0de0 3a0 .cfa: $esp 4 + .ra: .cfa -4 + ^
STACK CFI d0de1 .cfa: $esp 8 +
STACK CFI d0de2 .cfa: $esp 12 +
STACK CFI d0de3 .cfa: $esp 16 +
STACK CFI d0de4 .cfa: $esp 20 +
STACK CFI d0de7 $ebp: .cfa -8 + ^ $ebx: .cfa -12 + ^ $edi: .cfa -16 + ^ $esi: .cfa -20 + ^ .cfa: $esp 96 +
STACK CFI INIT d1860 4e0 .cfa: $esp 4 + .ra: .cfa -4 + ^
STACK CFI d1861 .cfa: $esp 8 +
STACK CFI d1862 .cfa: $esp 12 +
STACK CFI d1863 .cfa: $esp 16 +
STACK CFI d1864 .cfa: $esp 20 +
STACK CFI d186a $ebp: .cfa -8 + ^ $ebx: .cfa -12 + ^ $edi: .cfa -16 + ^ $esi: .cfa -20 + ^ .cfa: $esp 224 +
STACK CFI INIT d27c0 180 .cfa: $esp 4 + .ra: .cfa -4 + ^
STACK CFI d27c1 .cfa: $esp 8 +
STACK CFI d27c2 .cfa: $esp 12 +
STACK CFI d27c3 .cfa: $esp 16 +
STACK CFI d27c6 $ebx: .cfa -8 + ^ $edi: .cfa -12 + ^ $esi: .cfa -16 + ^ .cfa: $esp 64 +
STACK CFI INIT d5dc0 520 .cfa: $esp 4 + .ra: .cfa -4 + ^
STACK CFI d5dc1 .cfa: $esp 8 +
STACK CFI d5dc2 .cfa: $esp 12 +
STACK CFI d5dc3 .cfa: $esp 16 +
STACK CFI d5dc4 .cfa: $esp 20 +
STACK CFI d5dca $ebp: .cfa -8 + ^ $ebx: .cfa -12 + ^ $edi: .cfa -16 + ^ $esi: .cfa -20 + ^ .cfa: $esp 240 +
STACK CFI INIT d62e0 580 .cfa: $esp 4 + .ra: .cfa -4 + ^
STACK CFI d62e1 .cfa: $esp 8 +
STACK CFI d62e2 .cfa: $esp 12 +
STACK CFI d62e3 .cfa: $esp 16 +
STACK CFI d62e4 .cfa: $esp 20 +
STACK CFI d62ea $ebp: .cfa -8 + ^ $ebx: .cfa -12 + ^ $edi: .cfa -16 + ^ $esi: .cfa -20 + ^ .cfa: $esp 272 +
STACK CFI INIT d6860 4c0 .cfa: $esp 4 + .ra: .cfa -4 + ^
STACK CFI d6861 .cfa: $esp 8 +
STACK CFI d6862 .cfa: $esp 12 +
STACK CFI d6863 .cfa: $esp 16 +
STACK CFI d6864 .cfa: $esp 20 +
STACK CFI d686a $ebp: .cfa -8 + ^ $ebx: .cfa -12 + ^ $edi: .cfa -16 + ^ $esi: .cfa -20 + ^ .cfa: $esp 208 +
STACK CFI INIT d6d20 640 .cfa: $esp 4 + .ra: .cfa -4 + ^
STACK CFI d6d21 .cfa: $esp 8 +
STACK CFI d6d22 .cfa: $esp 12 +
STACK CFI d6d23 .cfa: $esp 16 +
STACK CFI d6d24 .cfa: $esp 20 +
STACK CFI d6d2a $ebp: .cfa -8 + ^ $ebx: .cfa -12 + ^ $edi: .cfa -16 + ^ $esi: .cfa -20 + ^ .cfa: $esp 304 +
STACK CFI INIT dc140 1200 .cfa: $esp 4 + .ra: .cfa -4 + ^
STACK CFI dc141 .cfa: $esp 8 +
STACK CFI dc142 .cfa: $esp 12 +
STACK CFI dc143 .cfa: $esp 16 +
STACK CFI dc144 .cfa: $esp 20 +
STACK CFI dc14a $ebp: .cfa -8 + ^ $ebx: .cfa -12 + ^ $edi: .cfa -16 + ^ $esi: .cfa -20 + ^ .cfa: $esp 288 +
STACK CFI INIT dd340 13a0 .cfa: $esp 4 + .ra: .cfa -4 + ^
STACK CFI dd341 .cfa: $esp 8 +
STACK CFI dd342 .cfa: $esp 12 +
STACK CFI dd343 .cfa: $esp 16 +
STACK CFI dd349 $ebx: .cfa -8 + ^ $edi: .cfa -12 + ^ $esi: .cfa -16 + ^ .cfa: $esp 256 +
STACK CFI INIT de6e0 540 .cfa: $esp 4 + .ra: .cfa -4 + ^
STACK CFI de6e1 .cfa: $esp 8 +
STACK CFI de6e2 .cfa: $esp 12 +
STACK CFI de6e3 .cfa: $esp 16 +
STACK CFI de6e9 $ebx: .cfa -8 + ^ $edi: .cfa -12 + ^ $esi: .cfa -16 + ^ .cfa: $esp 144 +
STACK CFI INIT e0f60 540 .cfa: $esp 4 + .ra: .cfa -4 + ^
STACK CFI e0f61 .cfa: $esp 8 +
STACK CFI e0f62 .cfa: $esp 12 +
STACK CFI e0f63 .cfa: $esp 16 +
STACK CFI e0f64 .cfa: $esp 20 +
STACK CFI e0f6a $ebp: .cfa -8 + ^ $ebx: .cfa -12 + ^ $edi: .cfa -16 + ^ $esi: .cfa -20 + ^ .cfa: $esp 240 +
STACK CFI INIT e15e0 4c0 .cfa: $esp 4 + .ra: .cfa -4 + ^
STACK CFI e15e1 .cfa: $esp 8 +
STACK CFI e15e2 .cfa: $esp 12 +
STACK CFI e15e3 .cfa: $esp 16 +
STACK CFI e15e4 .cfa: $esp 20 +
STACK CFI e15ea $ebp: .cfa -8 + ^ $ebx: .cfa -12 + ^ $edi: .cfa -16 + ^ $esi: .cfa -20 + ^ .cfa: $esp 208 +
STACK CFI INIT e2040 140 .cfa: $esp 4 + .ra: .cfa -4 + ^
STACK CFI e2041 .cfa: $esp 8 +
STACK CFI e2042 .cfa: $esp 12 +
STACK CFI e2043 .cfa: $esp 16 +
STACK CFI e2044 .cfa: $esp 20 +
STACK CFI e2047 $ebp: .cfa -8 + ^ $ebx: .cfa -12 + ^ $edi: .cfa -16 + ^ $esi: .cfa -20 + ^ .cfa: $esp 96 +
STACK CFI INIT e2240 140 .cfa: $esp 4 + .ra: .cfa -4 + ^
STACK CFI e2241 .cfa: $esp 8 +
STACK CFI e2242 .cfa: $esp 12 +
STACK CFI e2243 .cfa: $esp 16 +
STACK CFI e2244 .cfa: $esp 20 +
STACK CFI e2247 $ebp: .cfa -8 + ^ $ebx: .cfa -12 + ^ $edi: .cfa -16 + ^ $esi: .cfa -20 + ^ .cfa: $esp 96 +
STACK CFI INIT e2440 140 .cfa: $esp 4 + .ra: .cfa -4 + ^
STACK CFI e2441 .cfa: $esp 8 +
STACK CFI e2442 .cfa: $esp 12 +
STACK CFI e2443 .cfa: $esp 16 +
STACK CFI e2444 .cfa: $esp 20 +
STACK CFI e2447 $ebp: .cfa -8 + ^ $ebx: .cfa -12 + ^ $edi: .cfa -16 + ^ $esi: .cfa -20 + ^ .cfa: $esp 96 +
STACK CFI INIT e2640 140 .cfa: $esp 4 + .ra: .cfa -4 + ^
STACK CFI e2641 .cfa: $esp 8 +
STACK CFI e2642 .cfa: $esp 12 +
STACK CFI e2643 .cfa: $esp 16 +
STACK CFI e2644 .cfa: $esp 20 +
STACK CFI e2647 $ebp: .cfa -8 + ^ $ebx: .cfa -12 + ^ $edi: .cfa -16 + ^ $esi: .cfa -20 + ^ .cfa: $esp 96 +
STACK CFI INIT e2840 140 .cfa: $esp 4 + .ra: .cfa -4 + ^
STACK CFI e2841 .cfa: $esp 8 +
STACK CFI e2842 .cfa: $esp 12 +
STACK CFI e2843 .cfa: $esp 16 +
STACK CFI e2844 .cfa: $esp 20 +
STACK CFI e2847 $ebp: .cfa -8 + ^ $ebx: .cfa -12 + ^ $edi: .cfa -16 + ^ $esi: .cfa -20 + ^ .cfa: $esp 96 +
STACK CFI INIT e2a40 140 .cfa: $esp 4 + .ra: .cfa -4 + ^
STACK CFI e2a41 .cfa: $esp 8 +
STACK CFI e2a42 .cfa: $esp 12 +
STACK CFI e2a43 .cfa: $esp 16 +
STACK CFI e2a44 .cfa: $esp 20 +
STACK CFI e2a47 $ebp: .cfa -8 + ^ $ebx: .cfa -12 + ^ $edi: .cfa -16 + ^ $esi: .cfa -20 + ^ .cfa: $esp 96 +
STACK CFI INIT e2c40 140 .cfa: $esp 4 + .ra: .cfa -4 + ^
STACK CFI e2c41 .cfa: $esp 8 +
STACK CFI e2c42 .cfa: $esp 12 +
STACK CFI e2c43 .cfa: $esp 16 +
STACK CFI e2c44 .cfa: $esp 20 +
STACK CFI e2c47 $ebp: .cfa -8 + ^ $ebx: .cfa -12 + ^ $edi: .cfa -16 + ^ $esi: .cfa -20 + ^ .cfa: $esp 96 +
STACK CFI INIT e2e40 140 .cfa: $esp 4 + .ra: .cfa -4 + ^
STACK CFI e2e41 .cfa: $esp 8 +
STACK CFI e2e42 .cfa: $esp 12 +
STACK CFI e2e43 .cfa: $esp 16 +
STACK CFI e2e44 .cfa: $esp 20 +
STACK CFI e2e47 $ebp: .cfa -8 + ^ $ebx: .cfa -12 + ^ $edi: .cfa -16 + ^ $esi: .cfa -20 + ^ .cfa: $esp 96 +
STACK CFI INIT e3040 140 .cfa: $esp 4 + .ra: .cfa -4 + ^
STACK CFI e3041 .cfa: $esp 8 +
STACK CFI e3042 .cfa: $esp 12 +
STACK CFI e3043 .cfa: $esp 16 +
STACK CFI e3044 .cfa: $esp 20 +
STACK CFI e3047 $ebp: .cfa -8 + ^ $ebx: .cfa -12 + ^ $edi: .cfa -16 + ^ $esi: .cfa -20 + ^ .cfa: $esp 96 +
STACK CFI INIT e3240 140 .cfa: $esp 4 + .ra: .cfa -4 + ^
STACK CFI e3241 .cfa: $esp 8 +
STACK CFI e3242 .cfa: $esp 12 +
STACK CFI e3243 .cfa: $esp 16 +
STACK CFI e3244 .cfa: $esp 20 +
STACK CFI e3247 $ebp: .cfa -8 + ^ $ebx: .cfa -12 + ^ $edi: .cfa -16 + ^ $esi: .cfa -20 + ^ .cfa: $esp 96 +
STACK CFI INIT e3440 140 .cfa: $esp 4 + .ra: .cfa -4 + ^
STACK CFI e3441 .cfa: $esp 8 +
STACK CFI e3442 .cfa: $esp 12 +
STACK CFI e3443 .cfa: $esp 16 +
STACK CFI e3444 .cfa: $esp 20 +
STACK CFI e3447 $ebp: .cfa -8 + ^ $ebx: .cfa -12 + ^ $edi: .cfa -16 + ^ $esi: .cfa -20 + ^ .cfa: $esp 96 +
STACK CFI INIT e3640 140 .cfa: $esp 4 + .ra: .cfa -4 + ^
STACK CFI e3641 .cfa: $esp 8 +
STACK CFI e3642 .cfa: $esp 12 +
STACK CFI e3643 .cfa: $esp 16 +
STACK CFI e3644 .cfa: $esp 20 +
STACK CFI e3647 $ebp: .cfa -8 + ^ $ebx: .cfa -12 + ^ $edi: .cfa -16 + ^ $esi: .cfa -20 + ^ .cfa: $esp 96 +
STACK CFI INIT e3840 140 .cfa: $esp 4 + .ra: .cfa -4 + ^
STACK CFI e3841 .cfa: $esp 8 +
STACK CFI e3842 .cfa: $esp 12 +
STACK CFI e3843 .cfa: $esp 16 +
STACK CFI e3844 .cfa: $esp 20 +
STACK CFI e3847 $ebp: .cfa -8 + ^ $ebx: .cfa -12 + ^ $edi: .cfa -16 + ^ $esi: .cfa -20 + ^ .cfa: $esp 96 +
STACK CFI INIT e43c0 320 .cfa: $esp 4 + .ra: .cfa -4 + ^
STACK CFI e43c1 .cfa: $esp 8 +
STACK CFI e43c2 .cfa: $esp 12 +
STACK CFI e43c3 .cfa: $esp 16 +
STACK CFI e43c6 $ebx: .cfa -8 + ^ $edi: .cfa -12 + ^ $esi: .cfa -16 + ^ .cfa: $esp 96 +
STACK CFI INIT e4ac0 500 .cfa: $esp 4 + .ra: .cfa -4 + ^
STACK CFI e4ac1 .cfa: $esp 8 +
STACK CFI e4ac2 .cfa: $esp 12 +
STACK CFI e4ac3 .cfa: $esp 16 +
STACK CFI e4ac4 .cfa: $esp 20 +
STACK CFI e4ac7 $ebp: .cfa -8 + ^ $ebx: .cfa -12 + ^ $edi: .cfa -16 + ^ $esi: .cfa -20 + ^ .cfa: $esp 64 +
STACK CFI INIT e5020 140 .cfa: $esp 4 + .ra: .cfa -4 + ^
STACK CFI e5021 .cfa: $esp 8 +
STACK CFI e5022 .cfa: $esp 12 +
STACK CFI e5023 .cfa: $esp 16 +
STACK CFI e5026 $ebx: .cfa -8 + ^ $edi: .cfa -12 + ^ $esi: .cfa -16 + ^ .cfa: $esp 64 +
STACK CFI INIT e52e0 180 .cfa: $esp 4 + .ra: .cfa -4 + ^
STACK CFI e52e1 .cfa: $esp 8 +
STACK CFI e52e2 .cfa: $esp 12 +
STACK CFI e52e5 $edi: .cfa -8 + ^ $esi: .cfa -12 + ^ .cfa: $esp 64 +
STACK CFI INIT e5fa0 120 .cfa: $esp 4 + .ra: .cfa -4 + ^
STACK CFI e5fa1 .cfa: $esp 8 +
STACK CFI e5fa2 .cfa: $esp 12 +
STACK CFI e5fa3 .cfa: $esp 16 +
STACK CFI e5fa6 $ebx: .cfa -8 + ^ $edi: .cfa -12 + ^ $esi: .cfa -16 + ^ .cfa: $esp 64 +
STACK CFI INIT e6a00 1e0 .cfa: $esp 4 + .ra: .cfa -4 + ^
STACK CFI e6a01 .cfa: $esp 8 +
STACK CFI e6a02 .cfa: $esp 12 +
STACK CFI e6a03 .cfa: $esp 16 +
STACK CFI e6a06 $ebx: .cfa -8 + ^ $edi: .cfa -12 + ^ $esi: .cfa -16 + ^ .cfa: $esp 32 +
STACK CFI INIT ec380 1360 .cfa: $esp 4 + .ra: .cfa -4 + ^
STACK CFI ec381 .cfa: $esp 8 +
STACK CFI ec382 .cfa: $esp 12 +
STACK CFI ec383 .cfa: $esp 16 +
STACK CFI ec384 .cfa: $esp 20 +
STACK CFI ec38a $ebp: .cfa -8 + ^ $ebx: .cfa -12 + ^ $edi: .cfa -16 + ^ $esi: .cfa -20 + ^ .cfa: $esp 576 +
STACK CFI INIT ed6e0 ca0 .cfa: $esp 4 + .ra: .cfa -4 + ^
STACK CFI ed6e1 .cfa: $esp 8 +
STACK CFI ed6e2 .cfa: $esp 12 +
STACK CFI ed6e3 .cfa: $esp 16 +
STACK CFI ed6e4 .cfa: $esp 20 +
STACK CFI ed6ea $ebp: .cfa -8 + ^ $ebx: .cfa -12 + ^ $edi: .cfa -16 + ^ $esi: .cfa -20 + ^ .cfa: $esp 416 +
STACK CFI INIT ee380 7c0 .cfa: $esp 4 + .ra: .cfa -4 + ^
STACK CFI ee381 .cfa: $esp 8 +
STACK CFI ee382 .cfa: $esp 12 +
STACK CFI ee383 .cfa: $esp 16 +
STACK CFI ee384 .cfa: $esp 20 +
STACK CFI ee38a $ebp: .cfa -8 + ^ $ebx: .cfa -12 + ^ $edi: .cfa -16 + ^ $esi: .cfa -20 + ^ .cfa: $esp 272 +
STACK CFI INIT eeb40 d60 .cfa: $esp 4 + .ra: .cfa -4 + ^
STACK CFI eeb41 .cfa: $esp 8 +
STACK CFI eeb42 .cfa: $esp 12 +
STACK CFI eeb43 .cfa: $esp 16 +
STACK CFI eeb44 .cfa: $esp 20 +
STACK CFI eeb4a $ebp: .cfa -8 + ^ $ebx: .cfa -12 + ^ $edi: .cfa -16 + ^ $esi: .cfa -20 + ^ .cfa: $esp 432 +
STACK CFI INIT ef8a0 840 .cfa: $esp 4 + .ra: .cfa -4 + ^
STACK CFI ef8a1 .cfa: $esp 8 +
STACK CFI ef8a2 .cfa: $esp 12 +
STACK CFI ef8a3 .cfa: $esp 16 +
STACK CFI ef8a4 .cfa: $esp 20 +
STACK CFI ef8aa $ebp: .cfa -8 + ^ $ebx: .cfa -12 + ^ $edi: .cfa -16 + ^ $esi: .cfa -20 + ^ .cfa: $esp 272 +
STACK CFI INIT f00e0 7c0 .cfa: $esp 4 + .ra: .cfa -4 + ^
STACK CFI f00e1 .cfa: $esp 8 +
STACK CFI f00e2 .cfa: $esp 12 +
STACK CFI f00e3 .cfa: $esp 16 +
STACK CFI f00e4 .cfa: $esp 20 +
STACK CFI f00ea $ebp: .cfa -8 + ^ $ebx: .cfa -12 + ^ $edi: .cfa -16 + ^ $esi: .cfa -20 + ^ .cfa: $esp 272 +
STACK CFI INIT f08a0 100 .cfa: $esp 4 + .ra: .cfa -4 + ^
STACK CFI f08a1 .cfa: $esp 8 +
STACK CFI f08a2 .cfa: $esp 12 +
STACK CFI f08a5 $edi: .cfa -8 + ^ $esi: .cfa -12 + ^ .cfa: $esp 32 +
STACK CFI INIT f09a0 820 .cfa: $esp 4 + .ra: .cfa -4 + ^
STACK CFI f09a1 .cfa: $esp 8 +
STACK CFI f09a2 .cfa: $esp 12 +
STACK CFI f09a3 .cfa: $esp 16 +
STACK CFI f09a4 .cfa: $esp 20 +
STACK CFI f09aa $ebp: .cfa -8 + ^ $ebx: .cfa -12 + ^ $edi: .cfa -16 + ^ $esi: .cfa -20 + ^ .cfa: $esp 272 +
STACK CFI INIT f11c0 7e0 .cfa: $esp 4 + .ra: .cfa -4 + ^
STACK CFI f11c1 .cfa: $esp 8 +
STACK CFI f11c2 .cfa: $esp 12 +
STACK CFI f11c8 $edi: .cfa -8 + ^ $esi: .cfa -12 + ^ .cfa: $esp 272 +
STACK CFI INIT f19a0 240 .cfa: $esp 4 + .ra: .cfa -4 + ^
STACK CFI f19a1 .cfa: $esp 8 +
STACK CFI f19a4 $esi: .cfa -8 + ^ .cfa: $esp 80 +
STACK CFI INIT f1be0 4c0 .cfa: $esp 4 + .ra: .cfa -4 + ^
STACK CFI f1be1 .cfa: $esp 8 +
STACK CFI f1be2 .cfa: $esp 12 +
STACK CFI f1be3 .cfa: $esp 16 +
STACK CFI f1be4 .cfa: $esp 20 +
STACK CFI f1bea $ebp: .cfa -8 + ^ $ebx: .cfa -12 + ^ $edi: .cfa -16 + ^ $esi: .cfa -20 + ^ .cfa: $esp 208 +
STACK CFI INIT f20a0 520 .cfa: $esp 4 + .ra: .cfa -4 + ^
STACK CFI f20a1 .cfa: $esp 8 +
STACK CFI f20a2 .cfa: $esp 12 +
STACK CFI f20a3 .cfa: $esp 16 +
STACK CFI f20a4 .cfa: $esp 20 +
STACK CFI f20aa $ebp: .cfa -8 + ^ $ebx: .cfa -12 + ^ $edi: .cfa -16 + ^ $esi: .cfa -20 + ^ .cfa: $esp 192 +
STACK CFI INIT f25e0 520 .cfa: $esp 4 + .ra: .cfa -4 + ^
STACK CFI f25e1 .cfa: $esp 8 +
STACK CFI f25e2 .cfa: $esp 12 +
STACK CFI f25e3 .cfa: $esp 16 +
STACK CFI f25e4 .cfa: $esp 20 +
STACK CFI f25ea $ebp: .cfa -8 + ^ $ebx: .cfa -12 + ^ $edi: .cfa -16 + ^ $esi: .cfa -20 + ^ .cfa: $esp 192 +
STACK CFI INIT f2b20 600 .cfa: $esp 4 + .ra: .cfa -4 + ^
STACK CFI f2b21 .cfa: $esp 8 +
STACK CFI f2b22 .cfa: $esp 12 +
STACK CFI f2b23 .cfa: $esp 16 +
STACK CFI f2b24 .cfa: $esp 20 +
STACK CFI f2b2a $ebp: .cfa -8 + ^ $ebx: .cfa -12 + ^ $edi: .cfa -16 + ^ $esi: .cfa -20 + ^ .cfa: $esp 240 +
STACK CFI INIT f3120 160 .cfa: $esp 4 + .ra: .cfa -4 + ^
STACK CFI f3121 .cfa: $esp 8 +
STACK CFI f3122 .cfa: $esp 12 +
STACK CFI f3123 .cfa: $esp 16 +
STACK CFI f3126 $ebx: .cfa -8 + ^ $edi: .cfa -12 + ^ $esi: .cfa -16 + ^ .cfa: $esp 64 +
STACK CFI INIT f3280 4c0 .cfa: $esp 4 + .ra: .cfa -4 + ^
STACK CFI f3281 .cfa: $esp 8 +
STACK CFI f3282 .cfa: $esp 12 +
STACK CFI f3283 .cfa: $esp 16 +
STACK CFI f3284 .cfa: $esp 20 +
STACK CFI f328a $ebp: .cfa -8 + ^ $ebx: .cfa -12 + ^ $edi: .cfa -16 + ^ $esi: .cfa -20 + ^ .cfa: $esp 208 +
STACK CFI INIT f3740 520 .cfa: $esp 4 + .ra: .cfa -4 + ^
STACK CFI f3741 .cfa: $esp 8 +
STACK CFI f3742 .cfa: $esp 12 +
STACK CFI f3743 .cfa: $esp 16 +
STACK CFI f3744 .cfa: $esp 20 +
STACK CFI f374a $ebp: .cfa -8 + ^ $ebx: .cfa -12 + ^ $edi: .cfa -16 + ^ $esi: .cfa -20 + ^ .cfa: $esp 192 +
STACK CFI INIT f3c80 520 .cfa: $esp 4 + .ra: .cfa -4 + ^
STACK CFI f3c81 .cfa: $esp 8 +
STACK CFI f3c82 .cfa: $esp 12 +
STACK CFI f3c83 .cfa: $esp 16 +
STACK CFI f3c84 .cfa: $esp 20 +
STACK CFI f3c8a $ebp: .cfa -8 + ^ $ebx: .cfa -12 + ^ $edi: .cfa -16 + ^ $esi: .cfa -20 + ^ .cfa: $esp 192 +
STACK CFI INIT f41c0 520 .cfa: $esp 4 + .ra: .cfa -4 + ^
STACK CFI f41c1 .cfa: $esp 8 +
STACK CFI f41c2 .cfa: $esp 12 +
STACK CFI f41c3 .cfa: $esp 16 +
STACK CFI f41c4 .cfa: $esp 20 +
STACK CFI f41ca $ebp: .cfa -8 + ^ $ebx: .cfa -12 + ^ $edi: .cfa -16 + ^ $esi: .cfa -20 + ^ .cfa: $esp 192 +
STACK CFI INIT f4700 520 .cfa: $esp 4 + .ra: .cfa -4 + ^
STACK CFI f4701 .cfa: $esp 8 +
STACK CFI f4702 .cfa: $esp 12 +
STACK CFI f4703 .cfa: $esp 16 +
STACK CFI f4704 .cfa: $esp 20 +
STACK CFI f470a $ebp: .cfa -8 + ^ $ebx: .cfa -12 + ^ $edi: .cfa -16 + ^ $esi: .cfa -20 + ^ .cfa: $esp 192 +
STACK CFI INIT f4c40 640 .cfa: $esp 4 + .ra: .cfa -4 + ^
STACK CFI f4c41 .cfa: $esp 8 +
STACK CFI f4c42 .cfa: $esp 12 +
STACK CFI f4c43 .cfa: $esp 16 +
STACK CFI f4c44 .cfa: $esp 20 +
STACK CFI f4c4a $ebp: .cfa -8 + ^ $ebx: .cfa -12 + ^ $edi: .cfa -16 + ^ $esi: .cfa -20 + ^ .cfa: $esp 240 +
STACK CFI INIT f5280 4c0 .cfa: $esp 4 + .ra: .cfa -4 + ^
STACK CFI f5281 .cfa: $esp 8 +
STACK CFI f5282 .cfa: $esp 12 +
STACK CFI f5283 .cfa: $esp 16 +
STACK CFI f5284 .cfa: $esp 20 +
STACK CFI f528a $ebp: .cfa -8 + ^ $ebx: .cfa -12 + ^ $edi: .cfa -16 + ^ $esi: .cfa -20 + ^ .cfa: $esp 208 +
STACK CFI INIT f5740 520 .cfa: $esp 4 + .ra: .cfa -4 + ^
STACK CFI f5741 .cfa: $esp 8 +
STACK CFI f5742 .cfa: $esp 12 +
STACK CFI f5743 .cfa: $esp 16 +
STACK CFI f5744 .cfa: $esp 20 +
STACK CFI f574a $ebp: .cfa -8 + ^ $ebx: .cfa -12 + ^ $edi: .cfa -16 + ^ $esi: .cfa -20 + ^ .cfa: $esp 192 +
STACK CFI INIT f5c80 520 .cfa: $esp 4 + .ra: .cfa -4 + ^
STACK CFI f5c81 .cfa: $esp 8 +
STACK CFI f5c82 .cfa: $esp 12 +
STACK CFI f5c83 .cfa: $esp 16 +
STACK CFI f5c84 .cfa: $esp 20 +
STACK CFI f5c8a $ebp: .cfa -8 + ^ $ebx: .cfa -12 + ^ $edi: .cfa -16 + ^ $esi: .cfa -20 + ^ .cfa: $esp 192 +
STACK CFI INIT f61c0 2c0 .cfa: $esp 4 + .ra: .cfa -4 + ^
STACK CFI f61c1 .cfa: $esp 8 +
STACK CFI f61c2 .cfa: $esp 12 +
STACK CFI f61c5 $edi: .cfa -8 + ^ $esi: .cfa -12 + ^ .cfa: $esp 96 +
STACK CFI INIT f6480 4c0 .cfa: $esp 4 + .ra: .cfa -4 + ^
STACK CFI f6481 .cfa: $esp 8 +
STACK CFI f6482 .cfa: $esp 12 +
STACK CFI f6483 .cfa: $esp 16 +
STACK CFI f6484 .cfa: $esp 20 +
STACK CFI f648a $ebp: .cfa -8 + ^ $ebx: .cfa -12 + ^ $edi: .cfa -16 + ^ $esi: .cfa -20 + ^ .cfa: $esp 208 +
STACK CFI INIT f6940 520 .cfa: $esp 4 + .ra: .cfa -4 + ^
STACK CFI f6941 .cfa: $esp 8 +
STACK CFI f6942 .cfa: $esp 12 +
STACK CFI f6943 .cfa: $esp 16 +
STACK CFI f6944 .cfa: $esp 20 +
STACK CFI f694a $ebp: .cfa -8 + ^ $ebx: .cfa -12 + ^ $edi: .cfa -16 + ^ $esi: .cfa -20 + ^ .cfa: $esp 192 +
STACK CFI INIT f6e80 240 .cfa: $esp 4 + .ra: .cfa -4 + ^
STACK CFI f6e81 .cfa: $esp 8 +
STACK CFI f6e84 $esi: .cfa -8 + ^ .cfa: $esp 80 +
STACK CFI INIT f70c0 4c0 .cfa: $esp 4 + .ra: .cfa -4 + ^
STACK CFI f70c1 .cfa: $esp 8 +
STACK CFI f70c2 .cfa: $esp 12 +
STACK CFI f70c3 .cfa: $esp 16 +
STACK CFI f70c4 .cfa: $esp 20 +
STACK CFI f70ca $ebp: .cfa -8 + ^ $ebx: .cfa -12 + ^ $edi: .cfa -16 + ^ $esi: .cfa -20 + ^ .cfa: $esp 208 +
STACK CFI INIT f7580 520 .cfa: $esp 4 + .ra: .cfa -4 + ^
STACK CFI f7581 .cfa: $esp 8 +
STACK CFI f7582 .cfa: $esp 12 +
STACK CFI f7583 .cfa: $esp 16 +
STACK CFI f7584 .cfa: $esp 20 +
STACK CFI f758a $ebp: .cfa -8 + ^ $ebx: .cfa -12 + ^ $edi: .cfa -16 + ^ $esi: .cfa -20 + ^ .cfa: $esp 192 +
STACK CFI INIT f7ac0 520 .cfa: $esp 4 + .ra: .cfa -4 + ^
STACK CFI f7ac1 .cfa: $esp 8 +
STACK CFI f7ac2 .cfa: $esp 12 +
STACK CFI f7ac3 .cfa: $esp 16 +
STACK CFI f7ac4 .cfa: $esp 20 +
STACK CFI f7aca $ebp: .cfa -8 + ^ $ebx: .cfa -12 + ^ $edi: .cfa -16 + ^ $esi: .cfa -20 + ^ .cfa: $esp 192 +
STACK CFI INIT f8000 4a0 .cfa: $esp 4 + .ra: .cfa -4 + ^
STACK CFI f8001 .cfa: $esp 8 +
STACK CFI f8002 .cfa: $esp 12 +
STACK CFI f8003 .cfa: $esp 16 +
STACK CFI f8004 .cfa: $esp 20 +
STACK CFI f800a $ebp: .cfa -8 + ^ $ebx: .cfa -12 + ^ $edi: .cfa -16 + ^ $esi: .cfa -20 + ^ .cfa: $esp 224 +
STACK CFI INIT f84a0 520 .cfa: $esp 4 + .ra: .cfa -4 + ^
STACK CFI f84a1 .cfa: $esp 8 +
STACK CFI f84a2 .cfa: $esp 12 +
STACK CFI f84a3 .cfa: $esp 16 +
STACK CFI f84a4 .cfa: $esp 20 +
STACK CFI f84aa $ebp: .cfa -8 + ^ $ebx: .cfa -12 + ^ $edi: .cfa -16 + ^ $esi: .cfa -20 + ^ .cfa: $esp 192 +
STACK CFI INIT f89e0 580 .cfa: $esp 4 + .ra: .cfa -4 + ^
STACK CFI f89e1 .cfa: $esp 8 +
STACK CFI f89e2 .cfa: $esp 12 +
STACK CFI f89e3 .cfa: $esp 16 +
STACK CFI f89e4 .cfa: $esp 20 +
STACK CFI f89ea $ebp: .cfa -8 + ^ $ebx: .cfa -12 + ^ $edi: .cfa -16 + ^ $esi: .cfa -20 + ^ .cfa: $esp 224 +
STACK CFI INIT f8f60 4c0 .cfa: $esp 4 + .ra: .cfa -4 + ^
STACK CFI f8f61 .cfa: $esp 8 +
STACK CFI f8f62 .cfa: $esp 12 +
STACK CFI f8f63 .cfa: $esp 16 +
STACK CFI f8f64 .cfa: $esp 20 +
STACK CFI f8f6a $ebp: .cfa -8 + ^ $ebx: .cfa -12 + ^ $edi: .cfa -16 + ^ $esi: .cfa -20 + ^ .cfa: $esp 208 +
STACK CFI INIT f9420 520 .cfa: $esp 4 + .ra: .cfa -4 + ^
STACK CFI f9421 .cfa: $esp 8 +
STACK CFI f9422 .cfa: $esp 12 +
STACK CFI f9423 .cfa: $esp 16 +
STACK CFI f9424 .cfa: $esp 20 +
STACK CFI f942a $ebp: .cfa -8 + ^ $ebx: .cfa -12 + ^ $edi: .cfa -16 + ^ $esi: .cfa -20 + ^ .cfa: $esp 192 +
STACK CFI INIT f9960 520 .cfa: $esp 4 + .ra: .cfa -4 + ^
STACK CFI f9961 .cfa: $esp 8 +
STACK CFI f9962 .cfa: $esp 12 +
STACK CFI f9963 .cfa: $esp 16 +
STACK CFI f9964 .cfa: $esp 20 +
STACK CFI f996a $ebp: .cfa -8 + ^ $ebx: .cfa -12 + ^ $edi: .cfa -16 + ^ $esi: .cfa -20 + ^ .cfa: $esp 192 +
STACK CFI INIT f9ea0 4a0 .cfa: $esp 4 + .ra: .cfa -4 + ^
STACK CFI f9ea1 .cfa: $esp 8 +
STACK CFI f9ea2 .cfa: $esp 12 +
STACK CFI f9ea3 .cfa: $esp 16 +
STACK CFI f9ea4 .cfa: $esp 20 +
STACK CFI f9eaa $ebp: .cfa -8 + ^ $ebx: .cfa -12 + ^ $edi: .cfa -16 + ^ $esi: .cfa -20 + ^ .cfa: $esp 224 +
STACK CFI INIT fa340 520 .cfa: $esp 4 + .ra: .cfa -4 + ^
STACK CFI fa341 .cfa: $esp 8 +
STACK CFI fa342 .cfa: $esp 12 +
STACK CFI fa343 .cfa: $esp 16 +
STACK CFI fa344 .cfa: $esp 20 +
STACK CFI fa34a $ebp: .cfa -8 + ^ $ebx: .cfa -12 + ^ $edi: .cfa -16 + ^ $esi: .cfa -20 + ^ .cfa: $esp 192 +
STACK CFI INIT fa880 760 .cfa: $esp 4 + .ra: .cfa -4 + ^
STACK CFI fa881 .cfa: $esp 8 +
STACK CFI fa882 .cfa: $esp 12 +
STACK CFI fa883 .cfa: $esp 16 +
STACK CFI fa884 .cfa: $esp 20 +
STACK CFI fa88a $ebp: .cfa -8 + ^ $ebx: .cfa -12 + ^ $edi: .cfa -16 + ^ $esi: .cfa -20 + ^ .cfa: $esp 272 +
STACK CFI INIT fafe0 4c0 .cfa: $esp 4 + .ra: .cfa -4 + ^
STACK CFI fafe1 .cfa: $esp 8 +
STACK CFI fafe2 .cfa: $esp 12 +
STACK CFI fafe3 .cfa: $esp 16 +
STACK CFI fafe4 .cfa: $esp 20 +
STACK CFI fafea $ebp: .cfa -8 + ^ $ebx: .cfa -12 + ^ $edi: .cfa -16 + ^ $esi: .cfa -20 + ^ .cfa: $esp 208 +
STACK CFI INIT fb4a0 520 .cfa: $esp 4 + .ra: .cfa -4 + ^
STACK CFI fb4a1 .cfa: $esp 8 +
STACK CFI fb4a2 .cfa: $esp 12 +
STACK CFI fb4a3 .cfa: $esp 16 +
STACK CFI fb4a4 .cfa: $esp 20 +
STACK CFI fb4aa $ebp: .cfa -8 + ^ $ebx: .cfa -12 + ^ $edi: .cfa -16 + ^ $esi: .cfa -20 + ^ .cfa: $esp 192 +
STACK CFI INIT fb9e0 4a0 .cfa: $esp 4 + .ra: .cfa -4 + ^
STACK CFI fb9e1 .cfa: $esp 8 +
STACK CFI fb9e2 .cfa: $esp 12 +
STACK CFI fb9e3 .cfa: $esp 16 +
STACK CFI fb9e4 .cfa: $esp 20 +
STACK CFI fb9ea $ebp: .cfa -8 + ^ $ebx: .cfa -12 + ^ $edi: .cfa -16 + ^ $esi: .cfa -20 + ^ .cfa: $esp 224 +
STACK CFI INIT fbe80 160 .cfa: $esp 4 + .ra: .cfa -4 + ^
STACK CFI fbe81 .cfa: $esp 8 +
STACK CFI fbe82 .cfa: $esp 12 +
STACK CFI fbe83 .cfa: $esp 16 +
STACK CFI fbe86 $ebx: .cfa -8 + ^ $edi: .cfa -12 + ^ $esi: .cfa -16 + ^ .cfa: $esp 48 +
STACK CFI INIT fbfe0 520 .cfa: $esp 4 + .ra: .cfa -4 + ^
STACK CFI fbfe1 .cfa: $esp 8 +
STACK CFI fbfe2 .cfa: $esp 12 +
STACK CFI fbfe3 .cfa: $esp 16 +
STACK CFI fbfe4 .cfa: $esp 20 +
STACK CFI fbfea $ebp: .cfa -8 + ^ $ebx: .cfa -12 + ^ $edi: .cfa -16 + ^ $esi: .cfa -20 + ^ .cfa: $esp 192 +
STACK CFI INIT fc520 520 .cfa: $esp 4 + .ra: .cfa -4 + ^
STACK CFI fc521 .cfa: $esp 8 +
STACK CFI fc522 .cfa: $esp 12 +
STACK CFI fc523 .cfa: $esp 16 +
STACK CFI fc524 .cfa: $esp 20 +
STACK CFI fc52a $ebp: .cfa -8 + ^ $ebx: .cfa -12 + ^ $edi: .cfa -16 + ^ $esi: .cfa -20 + ^ .cfa: $esp 192 +
STACK CFI INIT fca60 5e0 .cfa: $esp 4 + .ra: .cfa -4 + ^
STACK CFI fca61 .cfa: $esp 8 +
STACK CFI fca62 .cfa: $esp 12 +
STACK CFI fca63 .cfa: $esp 16 +
STACK CFI fca64 .cfa: $esp 20 +
STACK CFI fca6a $ebp: .cfa -8 + ^ $ebx: .cfa -12 + ^ $edi: .cfa -16 + ^ $esi: .cfa -20 + ^ .cfa: $esp 224 +
STACK CFI INIT fd040 4c0 .cfa: $esp 4 + .ra: .cfa -4 + ^
STACK CFI fd041 .cfa: $esp 8 +
STACK CFI fd042 .cfa: $esp 12 +
STACK CFI fd043 .cfa: $esp 16 +
STACK CFI fd044 .cfa: $esp 20 +
STACK CFI fd04a $ebp: .cfa -8 + ^ $ebx: .cfa -12 + ^ $edi: .cfa -16 + ^ $esi: .cfa -20 + ^ .cfa: $esp 208 +
STACK CFI INIT fd500 520 .cfa: $esp 4 + .ra: .cfa -4 + ^
STACK CFI fd501 .cfa: $esp 8 +
STACK CFI fd502 .cfa: $esp 12 +
STACK CFI fd503 .cfa: $esp 16 +
STACK CFI fd504 .cfa: $esp 20 +
STACK CFI fd50a $ebp: .cfa -8 + ^ $ebx: .cfa -12 + ^ $edi: .cfa -16 + ^ $esi: .cfa -20 + ^ .cfa: $esp 192 +
STACK CFI INIT fda40 520 .cfa: $esp 4 + .ra: .cfa -4 + ^
STACK CFI fda41 .cfa: $esp 8 +
STACK CFI fda42 .cfa: $esp 12 +
STACK CFI fda43 .cfa: $esp 16 +
STACK CFI fda44 .cfa: $esp 20 +
STACK CFI fda4a $ebp: .cfa -8 + ^ $ebx: .cfa -12 + ^ $edi: .cfa -16 + ^ $esi: .cfa -20 + ^ .cfa: $esp 192 +
STACK CFI INIT fdf80 4a0 .cfa: $esp 4 + .ra: .cfa -4 + ^
STACK CFI fdf81 .cfa: $esp 8 +
STACK CFI fdf82 .cfa: $esp 12 +
STACK CFI fdf83 .cfa: $esp 16 +
STACK CFI fdf84 .cfa: $esp 20 +
STACK CFI fdf8a $ebp: .cfa -8 + ^ $ebx: .cfa -12 + ^ $edi: .cfa -16 + ^ $esi: .cfa -20 + ^ .cfa: $esp 224 +
STACK CFI INIT fe420 520 .cfa: $esp 4 + .ra: .cfa -4 + ^
STACK CFI fe421 .cfa: $esp 8 +
STACK CFI fe422 .cfa: $esp 12 +
STACK CFI fe423 .cfa: $esp 16 +
STACK CFI fe424 .cfa: $esp 20 +
STACK CFI fe42a $ebp: .cfa -8 + ^ $ebx: .cfa -12 + ^ $edi: .cfa -16 + ^ $esi: .cfa -20 + ^ .cfa: $esp 192 +
STACK CFI INIT fe960 320 .cfa: $esp 4 + .ra: .cfa -4 + ^
STACK CFI fe961 .cfa: $esp 8 +
STACK CFI fe962 .cfa: $esp 12 +
STACK CFI fe965 $edi: .cfa -8 + ^ $esi: .cfa -12 + ^ .cfa: $esp 112 +
STACK CFI INIT fec80 4c0 .cfa: $esp 4 + .ra: .cfa -4 + ^
STACK CFI fec81 .cfa: $esp 8 +
STACK CFI fec82 .cfa: $esp 12 +
STACK CFI fec83 .cfa: $esp 16 +
STACK CFI fec84 .cfa: $esp 20 +
STACK CFI fec8a $ebp: .cfa -8 + ^ $ebx: .cfa -12 + ^ $edi: .cfa -16 + ^ $esi: .cfa -20 + ^ .cfa: $esp 208 +
STACK CFI INIT ff140 520 .cfa: $esp 4 + .ra: .cfa -4 + ^
STACK CFI ff141 .cfa: $esp 8 +
STACK CFI ff142 .cfa: $esp 12 +
STACK CFI ff143 .cfa: $esp 16 +
STACK CFI ff144 .cfa: $esp 20 +
STACK CFI ff14a $ebp: .cfa -8 + ^ $ebx: .cfa -12 + ^ $edi: .cfa -16 + ^ $esi: .cfa -20 + ^ .cfa: $esp 192 +
STACK CFI INIT ff680 240 .cfa: $esp 4 + .ra: .cfa -4 + ^
STACK CFI ff681 .cfa: $esp 8 +
STACK CFI ff684 $esi: .cfa -8 + ^ .cfa: $esp 80 +
STACK CFI INIT ff8c0 4c0 .cfa: $esp 4 + .ra: .cfa -4 + ^
STACK CFI ff8c1 .cfa: $esp 8 +
STACK CFI ff8c2 .cfa: $esp 12 +
STACK CFI ff8c3 .cfa: $esp 16 +
STACK CFI ff8c4 .cfa: $esp 20 +
STACK CFI ff8ca $ebp: .cfa -8 + ^ $ebx: .cfa -12 + ^ $edi: .cfa -16 + ^ $esi: .cfa -20 + ^ .cfa: $esp 208 +
STACK CFI INIT ffd80 520 .cfa: $esp 4 + .ra: .cfa -4 + ^
STACK CFI ffd81 .cfa: $esp 8 +
STACK CFI ffd82 .cfa: $esp 12 +
STACK CFI ffd83 .cfa: $esp 16 +
STACK CFI ffd84 .cfa: $esp 20 +
STACK CFI ffd8a $ebp: .cfa -8 + ^ $ebx: .cfa -12 + ^ $edi: .cfa -16 + ^ $esi: .cfa -20 + ^ .cfa: $esp 192 +
STACK CFI INIT 1002c0 520 .cfa: $esp 4 + .ra: .cfa -4 + ^
STACK CFI 1002c1 .cfa: $esp 8 +
STACK CFI 1002c2 .cfa: $esp 12 +
STACK CFI 1002c3 .cfa: $esp 16 +
STACK CFI 1002c4 .cfa: $esp 20 +
STACK CFI 1002ca $ebp: .cfa -8 + ^ $ebx: .cfa -12 + ^ $edi: .cfa -16 + ^ $esi: .cfa -20 + ^ .cfa: $esp 192 +
STACK CFI INIT 100800 8e0 .cfa: $esp 4 + .ra: .cfa -4 + ^
STACK CFI 100801 .cfa: $esp 8 +
STACK CFI 100802 .cfa: $esp 12 +
STACK CFI 100808 $edi: .cfa -8 + ^ $esi: .cfa -12 + ^ .cfa: $esp 288 +
STACK CFI INIT 1010e0 520 .cfa: $esp 4 + .ra: .cfa -4 + ^
STACK CFI 1010e1 .cfa: $esp 8 +
STACK CFI 1010e2 .cfa: $esp 12 +
STACK CFI 1010e3 .cfa: $esp 16 +
STACK CFI 1010e4 .cfa: $esp 20 +
STACK CFI 1010ea $ebp: .cfa -8 + ^ $ebx: .cfa -12 + ^ $edi: .cfa -16 + ^ $esi: .cfa -20 + ^ .cfa: $esp 192 +
STACK CFI INIT 101620 520 .cfa: $esp 4 + .ra: .cfa -4 + ^
STACK CFI 101621 .cfa: $esp 8 +
STACK CFI 101622 .cfa: $esp 12 +
STACK CFI 101623 .cfa: $esp 16 +
STACK CFI 101624 .cfa: $esp 20 +
STACK CFI 10162a $ebp: .cfa -8 + ^ $ebx: .cfa -12 + ^ $edi: .cfa -16 + ^ $esi: .cfa -20 + ^ .cfa: $esp 192 +
STACK CFI INIT 101b60 640 .cfa: $esp 4 + .ra: .cfa -4 + ^
STACK CFI 101b61 .cfa: $esp 8 +
STACK CFI 101b62 .cfa: $esp 12 +
STACK CFI 101b63 .cfa: $esp 16 +
STACK CFI 101b64 .cfa: $esp 20 +
STACK CFI 101b6a $ebp: .cfa -8 + ^ $ebx: .cfa -12 + ^ $edi: .cfa -16 + ^ $esi: .cfa -20 + ^ .cfa: $esp 240 +
STACK CFI INIT 1021a0 4c0 .cfa: $esp 4 + .ra: .cfa -4 + ^
STACK CFI 1021a1 .cfa: $esp 8 +
STACK CFI 1021a2 .cfa: $esp 12 +
STACK CFI 1021a3 .cfa: $esp 16 +
STACK CFI 1021a4 .cfa: $esp 20 +
STACK CFI 1021aa $ebp: .cfa -8 + ^ $ebx: .cfa -12 + ^ $edi: .cfa -16 + ^ $esi: .cfa -20 + ^ .cfa: $esp 208 +
STACK CFI INIT 102660 520 .cfa: $esp 4 + .ra: .cfa -4 + ^
STACK CFI 102661 .cfa: $esp 8 +
STACK CFI 102662 .cfa: $esp 12 +
STACK CFI 102663 .cfa: $esp 16 +
STACK CFI 102664 .cfa: $esp 20 +
STACK CFI 10266a $ebp: .cfa -8 + ^ $ebx: .cfa -12 + ^ $edi: .cfa -16 + ^ $esi: .cfa -20 + ^ .cfa: $esp 192 +
STACK CFI INIT 102ba0 520 .cfa: $esp 4 + .ra: .cfa -4 + ^
STACK CFI 102ba1 .cfa: $esp 8 +
STACK CFI 102ba2 .cfa: $esp 12 +
STACK CFI 102ba3 .cfa: $esp 16 +
STACK CFI 102ba4 .cfa: $esp 20 +
STACK CFI 102baa $ebp: .cfa -8 + ^ $ebx: .cfa -12 + ^ $edi: .cfa -16 + ^ $esi: .cfa -20 + ^ .cfa: $esp 192 +
STACK CFI INIT 1030e0 520 .cfa: $esp 4 + .ra: .cfa -4 + ^
STACK CFI 1030e1 .cfa: $esp 8 +
STACK CFI 1030e2 .cfa: $esp 12 +
STACK CFI 1030e3 .cfa: $esp 16 +
STACK CFI 1030e4 .cfa: $esp 20 +
STACK CFI 1030ea $ebp: .cfa -8 + ^ $ebx: .cfa -12 + ^ $edi: .cfa -16 + ^ $esi: .cfa -20 + ^ .cfa: $esp 192 +
STACK CFI INIT 103620 120 .cfa: $esp 4 + .ra: .cfa -4 + ^
STACK CFI 103621 .cfa: $esp 8 +
STACK CFI 103622 .cfa: $esp 12 +
STACK CFI 103623 .cfa: $esp 16 +
STACK CFI 103624 .cfa: $esp 20 +
STACK CFI 103627 $ebp: .cfa -8 + ^ $ebx: .cfa -12 + ^ $edi: .cfa -16 + ^ $esi: .cfa -20 + ^ .cfa: $esp 32 +
STACK CFI INIT 103740 120 .cfa: $esp 4 + .ra: .cfa -4 + ^
STACK CFI 103741 .cfa: $esp 8 +
STACK CFI 103742 .cfa: $esp 12 +
STACK CFI 103743 .cfa: $esp 16 +
STACK CFI 103744 .cfa: $esp 20 +
STACK CFI 103747 $ebp: .cfa -8 + ^ $ebx: .cfa -12 + ^ $edi: .cfa -16 + ^ $esi: .cfa -20 + ^ .cfa: $esp 32 +
STACK CFI INIT 103940 540 .cfa: $esp 4 + .ra: .cfa -4 + ^
STACK CFI 103941 .cfa: $esp 8 +
STACK CFI 103942 .cfa: $esp 12 +
STACK CFI 103943 .cfa: $esp 16 +
STACK CFI 103944 .cfa: $esp 20 +
STACK CFI 103947 $ebp: .cfa -8 + ^ $ebx: .cfa -12 + ^ $edi: .cfa -16 + ^ $esi: .cfa -20 + ^ .cfa: $esp 96 +
STACK CFI INIT 103e80 a80 .cfa: $esp 4 + .ra: .cfa -4 + ^
STACK CFI 103e81 .cfa: $esp 8 +
STACK CFI 103e82 .cfa: $esp 12 +
STACK CFI 103e83 .cfa: $esp 16 +
STACK CFI 103e84 .cfa: $esp 20 +
STACK CFI 103e8a $ebp: .cfa -8 + ^ $ebx: .cfa -12 + ^ $edi: .cfa -16 + ^ $esi: .cfa -20 + ^ .cfa: $esp 240 +
STACK CFI INIT 104900 11a0 .cfa: $esp 4 + .ra: .cfa -4 + ^
STACK CFI 104901 .cfa: $esp 8 +
STACK CFI 104902 .cfa: $esp 12 +
STACK CFI 104903 .cfa: $esp 16 +
STACK CFI 104904 .cfa: $esp 20 +
STACK CFI 10490a $ebp: .cfa -8 + ^ $ebx: .cfa -12 + ^ $edi: .cfa -16 + ^ $esi: .cfa -20 + ^ .cfa: $esp 400 +
STACK CFI INIT 105aa0 a0 .cfa: $esp 4 + .ra: .cfa -4 + ^
STACK CFI 105aa1 .cfa: $esp 8 +
STACK CFI 105aa4 $esi: .cfa -8 + ^ .cfa: $esp 32 +
STACK CFI INIT 105c60 200 .cfa: $esp 4 + .ra: .cfa -4 + ^
STACK CFI 105c61 .cfa: $esp 8 +
STACK CFI 105c64 $esi: .cfa -8 + ^ .cfa: $esp 48 +
STACK CFI INIT 105e60 b40 .cfa: $esp 4 + .ra: .cfa -4 + ^
STACK CFI 105e61 .cfa: $esp 8 +
STACK CFI 105e62 .cfa: $esp 12 +
STACK CFI 105e63 .cfa: $esp 16 +
STACK CFI 105e64 .cfa: $esp 20 +
STACK CFI 105e6a $ebp: .cfa -8 + ^ $ebx: .cfa -12 + ^ $edi: .cfa -16 + ^ $esi: .cfa -20 + ^ .cfa: $esp 320 +
STACK CFI INIT 106ba0 1020 .cfa: $esp 4 + .ra: .cfa -4 + ^
STACK CFI 106ba1 .cfa: $esp 8 +
STACK CFI 106ba2 .cfa: $esp 12 +
STACK CFI 106ba3 .cfa: $esp 16 +
STACK CFI 106ba4 .cfa: $esp 20 +
STACK CFI 106baa $ebp: .cfa -8 + ^ $ebx: .cfa -12 + ^ $edi: .cfa -16 + ^ $esi: .cfa -20 + ^ .cfa: $esp 352 +
STACK CFI INIT 107c20 4a0 .cfa: $esp 4 + .ra: .cfa -4 + ^
STACK CFI 107c21 .cfa: $esp 8 +
STACK CFI 107c22 .cfa: $esp 12 +
STACK CFI 107c23 .cfa: $esp 16 +
STACK CFI 107c24 .cfa: $esp 20 +
STACK CFI 107c27 $ebp: .cfa -8 + ^ $ebx: .cfa -12 + ^ $edi: .cfa -16 + ^ $esi: .cfa -20 + ^ .cfa: $esp 96 +
STACK CFI INIT 1080c0 dc0 .cfa: $esp 4 + .ra: .cfa -4 + ^
STACK CFI 1080c1 .cfa: $esp 8 +
STACK CFI 1080c2 .cfa: $esp 12 +
STACK CFI 1080c3 .cfa: $esp 16 +
STACK CFI 1080c4 .cfa: $esp 20 +
STACK CFI 1080ca $ebp: .cfa -8 + ^ $ebx: .cfa -12 + ^ $edi: .cfa -16 + ^ $esi: .cfa -20 + ^ .cfa: $esp 464 +
STACK CFI INIT 108e80 1a0 .cfa: $esp 4 + .ra: .cfa -4 + ^
STACK CFI 108e81 .cfa: $esp 8 +
STACK CFI 108e82 .cfa: $esp 12 +
STACK CFI 108e83 .cfa: $esp 16 +
STACK CFI 108e86 $ebx: .cfa -8 + ^ $edi: .cfa -12 + ^ $esi: .cfa -16 + ^ .cfa: $esp 64 +
STACK CFI INIT 109020 8a0 .cfa: $esp 4 + .ra: .cfa -4 + ^
STACK CFI 109021 .cfa: $esp 8 +
STACK CFI 109022 .cfa: $esp 12 +
STACK CFI 109023 .cfa: $esp 16 +
STACK CFI 109029 $ebx: .cfa -8 + ^ $edi: .cfa -12 + ^ $esi: .cfa -16 + ^ .cfa: $esp 288 +
STACK CFI INIT 1098c0 d60 .cfa: $esp 4 + .ra: .cfa -4 + ^
STACK CFI 1098c1 .cfa: $esp 8 +
STACK CFI 1098c2 .cfa: $esp 12 +
STACK CFI 1098c3 .cfa: $esp 16 +
STACK CFI 1098c4 .cfa: $esp 20 +
STACK CFI 1098ca $ebp: .cfa -8 + ^ $ebx: .cfa -12 + ^ $edi: .cfa -16 + ^ $esi: .cfa -20 + ^ .cfa: $esp 464 +
STACK CFI INIT 10a620 d20 .cfa: $esp 4 + .ra: .cfa -4 + ^
STACK CFI 10a621 .cfa: $esp 8 +
STACK CFI 10a622 .cfa: $esp 12 +
STACK CFI 10a623 .cfa: $esp 16 +
STACK CFI 10a624 .cfa: $esp 20 +
STACK CFI 10a62a $ebp: .cfa -8 + ^ $ebx: .cfa -12 + ^ $edi: .cfa -16 + ^ $esi: .cfa -20 + ^ .cfa: $esp 432 +
STACK CFI INIT 10b340 f60 .cfa: $esp 4 + .ra: .cfa -4 + ^
STACK CFI 10b341 .cfa: $esp 8 +
STACK CFI 10b342 .cfa: $esp 12 +
STACK CFI 10b343 .cfa: $esp 16 +
STACK CFI 10b344 .cfa: $esp 20 +
STACK CFI 10b34a $ebp: .cfa -8 + ^ $ebx: .cfa -12 + ^ $edi: .cfa -16 + ^ $esi: .cfa -20 + ^ .cfa: $esp 464 +
STACK CFI INIT 10c2a0 740 .cfa: $esp 4 + .ra: .cfa -4 + ^
STACK CFI 10c2a1 .cfa: $esp 8 +
STACK CFI 10c2a2 .cfa: $esp 12 +
STACK CFI 10c2a3 .cfa: $esp 16 +
STACK CFI 10c2a4 .cfa: $esp 20 +
STACK CFI 10c2aa $ebp: .cfa -8 + ^ $ebx: .cfa -12 + ^ $edi: .cfa -16 + ^ $esi: .cfa -20 + ^ .cfa: $esp 256 +
STACK CFI INIT 10c9e0 4a0 .cfa: $esp 4 + .ra: .cfa -4 + ^
STACK CFI 10c9e1 .cfa: $esp 8 +
STACK CFI 10c9e2 .cfa: $esp 12 +
STACK CFI 10c9e3 .cfa: $esp 16 +
STACK CFI 10c9e4 .cfa: $esp 20 +
STACK CFI 10c9ea $ebp: .cfa -8 + ^ $ebx: .cfa -12 + ^ $edi: .cfa -16 + ^ $esi: .cfa -20 + ^ .cfa: $esp 224 +
STACK CFI INIT 10ce80 100 .cfa: $esp 4 + .ra: .cfa -4 + ^
STACK CFI 10ce81 .cfa: $esp 8 +
STACK CFI 10ce82 .cfa: $esp 12 +
STACK CFI 10ce83 .cfa: $esp 16 +
STACK CFI 10ce86 $ebx: .cfa -8 + ^ $edi: .cfa -12 + ^ $esi: .cfa -16 + ^ .cfa: $esp 32 +
STACK CFI INIT 10cf80 520 .cfa: $esp 4 + .ra: .cfa -4 + ^
STACK CFI 10cf81 .cfa: $esp 8 +
STACK CFI 10cf82 .cfa: $esp 12 +
STACK CFI 10cf83 .cfa: $esp 16 +
STACK CFI 10cf84 .cfa: $esp 20 +
STACK CFI 10cf8a $ebp: .cfa -8 + ^ $ebx: .cfa -12 + ^ $edi: .cfa -16 + ^ $esi: .cfa -20 + ^ .cfa: $esp 192 +
STACK CFI INIT 10d4c0 660 .cfa: $esp 4 + .ra: .cfa -4 + ^
STACK CFI 10d4c1 .cfa: $esp 8 +
STACK CFI 10d4c2 .cfa: $esp 12 +
STACK CFI 10d4c3 .cfa: $esp 16 +
STACK CFI 10d4c4 .cfa: $esp 20 +
STACK CFI 10d4ca $ebp: .cfa -8 + ^ $ebx: .cfa -12 + ^ $edi: .cfa -16 + ^ $esi: .cfa -20 + ^ .cfa: $esp 224 +
STACK CFI INIT 10db20 4c0 .cfa: $esp 4 + .ra: .cfa -4 + ^
STACK CFI 10db21 .cfa: $esp 8 +
STACK CFI 10db22 .cfa: $esp 12 +
STACK CFI 10db23 .cfa: $esp 16 +
STACK CFI 10db24 .cfa: $esp 20 +
STACK CFI 10db2a $ebp: .cfa -8 + ^ $ebx: .cfa -12 + ^ $edi: .cfa -16 + ^ $esi: .cfa -20 + ^ .cfa: $esp 208 +
STACK CFI INIT 10dfe0 520 .cfa: $esp 4 + .ra: .cfa -4 + ^
STACK CFI 10dfe1 .cfa: $esp 8 +
STACK CFI 10dfe2 .cfa: $esp 12 +
STACK CFI 10dfe3 .cfa: $esp 16 +
STACK CFI 10dfe4 .cfa: $esp 20 +
STACK CFI 10dfea $ebp: .cfa -8 + ^ $ebx: .cfa -12 + ^ $edi: .cfa -16 + ^ $esi: .cfa -20 + ^ .cfa: $esp 192 +
STACK CFI INIT 10e520 5c0 .cfa: $esp 4 + .ra: .cfa -4 + ^
STACK CFI 10e521 .cfa: $esp 8 +
STACK CFI 10e522 .cfa: $esp 12 +
STACK CFI 10e523 .cfa: $esp 16 +
STACK CFI 10e524 .cfa: $esp 20 +
STACK CFI 10e52a $ebp: .cfa -8 + ^ $ebx: .cfa -12 + ^ $edi: .cfa -16 + ^ $esi: .cfa -20 + ^ .cfa: $esp 224 +
STACK CFI INIT 10eae0 4c0 .cfa: $esp 4 + .ra: .cfa -4 + ^
STACK CFI 10eae1 .cfa: $esp 8 +
STACK CFI 10eae2 .cfa: $esp 12 +
STACK CFI 10eae3 .cfa: $esp 16 +
STACK CFI 10eae4 .cfa: $esp 20 +
STACK CFI 10eaea $ebp: .cfa -8 + ^ $ebx: .cfa -12 + ^ $edi: .cfa -16 + ^ $esi: .cfa -20 + ^ .cfa: $esp 208 +
STACK CFI INIT 10efa0 520 .cfa: $esp 4 + .ra: .cfa -4 + ^
STACK CFI 10efa1 .cfa: $esp 8 +
STACK CFI 10efa2 .cfa: $esp 12 +
STACK CFI 10efa3 .cfa: $esp 16 +
STACK CFI 10efa4 .cfa: $esp 20 +
STACK CFI 10efaa $ebp: .cfa -8 + ^ $ebx: .cfa -12 + ^ $edi: .cfa -16 + ^ $esi: .cfa -20 + ^ .cfa: $esp 192 +
STACK CFI INIT 10f4e0 640 .cfa: $esp 4 + .ra: .cfa -4 + ^
STACK CFI 10f4e1 .cfa: $esp 8 +
STACK CFI 10f4e2 .cfa: $esp 12 +
STACK CFI 10f4e3 .cfa: $esp 16 +
STACK CFI 10f4e4 .cfa: $esp 20 +
STACK CFI 10f4ea $ebp: .cfa -8 + ^ $ebx: .cfa -12 + ^ $edi: .cfa -16 + ^ $esi: .cfa -20 + ^ .cfa: $esp 240 +
STACK CFI INIT 10fb20 4c0 .cfa: $esp 4 + .ra: .cfa -4 + ^
STACK CFI 10fb21 .cfa: $esp 8 +
STACK CFI 10fb22 .cfa: $esp 12 +
STACK CFI 10fb23 .cfa: $esp 16 +
STACK CFI 10fb24 .cfa: $esp 20 +
STACK CFI 10fb2a $ebp: .cfa -8 + ^ $ebx: .cfa -12 + ^ $edi: .cfa -16 + ^ $esi: .cfa -20 + ^ .cfa: $esp 208 +
STACK CFI INIT 10ffe0 520 .cfa: $esp 4 + .ra: .cfa -4 + ^
STACK CFI 10ffe1 .cfa: $esp 8 +
STACK CFI 10ffe2 .cfa: $esp 12 +
STACK CFI 10ffe3 .cfa: $esp 16 +
STACK CFI 10ffe4 .cfa: $esp 20 +
STACK CFI 10ffea $ebp: .cfa -8 + ^ $ebx: .cfa -12 + ^ $edi: .cfa -16 + ^ $esi: .cfa -20 + ^ .cfa: $esp 192 +
STACK CFI INIT 110520 640 .cfa: $esp 4 + .ra: .cfa -4 + ^
STACK CFI 110521 .cfa: $esp 8 +
STACK CFI 110522 .cfa: $esp 12 +
STACK CFI 110523 .cfa: $esp 16 +
STACK CFI 110524 .cfa: $esp 20 +
STACK CFI 11052a $ebp: .cfa -8 + ^ $ebx: .cfa -12 + ^ $edi: .cfa -16 + ^ $esi: .cfa -20 + ^ .cfa: $esp 240 +
STACK CFI INIT 110b60 4c0 .cfa: $esp 4 + .ra: .cfa -4 + ^
STACK CFI 110b61 .cfa: $esp 8 +
STACK CFI 110b62 .cfa: $esp 12 +
STACK CFI 110b63 .cfa: $esp 16 +
STACK CFI 110b64 .cfa: $esp 20 +
STACK CFI 110b6a $ebp: .cfa -8 + ^ $ebx: .cfa -12 + ^ $edi: .cfa -16 + ^ $esi: .cfa -20 + ^ .cfa: $esp 208 +
STACK CFI INIT 111020 520 .cfa: $esp 4 + .ra: .cfa -4 + ^
STACK CFI 111021 .cfa: $esp 8 +
STACK CFI 111022 .cfa: $esp 12 +
STACK CFI 111023 .cfa: $esp 16 +
STACK CFI 111024 .cfa: $esp 20 +
STACK CFI 11102a $ebp: .cfa -8 + ^ $ebx: .cfa -12 + ^ $edi: .cfa -16 + ^ $esi: .cfa -20 + ^ .cfa: $esp 192 +
STACK CFI INIT 111560 c20 .cfa: $esp 4 + .ra: .cfa -4 + ^
STACK CFI 111561 .cfa: $esp 8 +
STACK CFI 111562 .cfa: $esp 12 +
STACK CFI 111563 .cfa: $esp 16 +
STACK CFI 111564 .cfa: $esp 20 +
STACK CFI 11156a $ebp: .cfa -8 + ^ $ebx: .cfa -12 + ^ $edi: .cfa -16 + ^ $esi: .cfa -20 + ^ .cfa: $esp 416 +
STACK CFI INIT 112180 520 .cfa: $esp 4 + .ra: .cfa -4 + ^
STACK CFI 112181 .cfa: $esp 8 +
STACK CFI 112182 .cfa: $esp 12 +
STACK CFI 112183 .cfa: $esp 16 +
STACK CFI 112184 .cfa: $esp 20 +
STACK CFI 11218a $ebp: .cfa -8 + ^ $ebx: .cfa -12 + ^ $edi: .cfa -16 + ^ $esi: .cfa -20 + ^ .cfa: $esp 192 +
STACK CFI INIT 1126c0 520 .cfa: $esp 4 + .ra: .cfa -4 + ^
STACK CFI 1126c1 .cfa: $esp 8 +
STACK CFI 1126c2 .cfa: $esp 12 +
STACK CFI 1126c3 .cfa: $esp 16 +
STACK CFI 1126c4 .cfa: $esp 20 +
STACK CFI 1126ca $ebp: .cfa -8 + ^ $ebx: .cfa -12 + ^ $edi: .cfa -16 + ^ $esi: .cfa -20 + ^ .cfa: $esp 192 +
STACK CFI INIT 112c00 7c0 .cfa: $esp 4 + .ra: .cfa -4 + ^
STACK CFI 112c01 .cfa: $esp 8 +
STACK CFI 112c02 .cfa: $esp 12 +
STACK CFI 112c08 $edi: .cfa -8 + ^ $esi: .cfa -12 + ^ .cfa: $esp 272 +
STACK CFI INIT 1133c0 520 .cfa: $esp 4 + .ra: .cfa -4 + ^
STACK CFI 1133c1 .cfa: $esp 8 +
STACK CFI 1133c2 .cfa: $esp 12 +
STACK CFI 1133c3 .cfa: $esp 16 +
STACK CFI 1133c4 .cfa: $esp 20 +
STACK CFI 1133ca $ebp: .cfa -8 + ^ $ebx: .cfa -12 + ^ $edi: .cfa -16 + ^ $esi: .cfa -20 + ^ .cfa: $esp 192 +
STACK CFI INIT 113900 520 .cfa: $esp 4 + .ra: .cfa -4 + ^
STACK CFI 113901 .cfa: $esp 8 +
STACK CFI 113902 .cfa: $esp 12 +
STACK CFI 113903 .cfa: $esp 16 +
STACK CFI 113904 .cfa: $esp 20 +
STACK CFI 11390a $ebp: .cfa -8 + ^ $ebx: .cfa -12 + ^ $edi: .cfa -16 + ^ $esi: .cfa -20 + ^ .cfa: $esp 192 +
STACK CFI INIT 113e40 520 .cfa: $esp 4 + .ra: .cfa -4 + ^
STACK CFI 113e41 .cfa: $esp 8 +
STACK CFI 113e42 .cfa: $esp 12 +
STACK CFI 113e43 .cfa: $esp 16 +
STACK CFI 113e44 .cfa: $esp 20 +
STACK CFI 113e4a $ebp: .cfa -8 + ^ $ebx: .cfa -12 + ^ $edi: .cfa -16 + ^ $esi: .cfa -20 + ^ .cfa: $esp 192 +
STACK CFI INIT 114380 d00 .cfa: $esp 4 + .ra: .cfa -4 + ^
STACK CFI 114381 .cfa: $esp 8 +
STACK CFI 114382 .cfa: $esp 12 +
STACK CFI 114383 .cfa: $esp 16 +
STACK CFI 114384 .cfa: $esp 20 +
STACK CFI 11438a $ebp: .cfa -8 + ^ $ebx: .cfa -12 + ^ $edi: .cfa -16 + ^ $esi: .cfa -20 + ^ .cfa: $esp 432 +
STACK CFI INIT 115080 520 .cfa: $esp 4 + .ra: .cfa -4 + ^
STACK CFI 115081 .cfa: $esp 8 +
STACK CFI 115082 .cfa: $esp 12 +
STACK CFI 115083 .cfa: $esp 16 +
STACK CFI 115084 .cfa: $esp 20 +
STACK CFI 11508a $ebp: .cfa -8 + ^ $ebx: .cfa -12 + ^ $edi: .cfa -16 + ^ $esi: .cfa -20 + ^ .cfa: $esp 192 +
STACK CFI INIT 1155c0 820 .cfa: $esp 4 + .ra: .cfa -4 + ^
STACK CFI 1155c1 .cfa: $esp 8 +
STACK CFI 1155c2 .cfa: $esp 12 +
STACK CFI 1155c8 $edi: .cfa -8 + ^ $esi: .cfa -12 + ^ .cfa: $esp 272 +
STACK CFI INIT 115de0 520 .cfa: $esp 4 + .ra: .cfa -4 + ^
STACK CFI 115de1 .cfa: $esp 8 +
STACK CFI 115de2 .cfa: $esp 12 +
STACK CFI 115de3 .cfa: $esp 16 +
STACK CFI 115de4 .cfa: $esp 20 +
STACK CFI 115dea $ebp: .cfa -8 + ^ $ebx: .cfa -12 + ^ $edi: .cfa -16 + ^ $esi: .cfa -20 + ^ .cfa: $esp 192 +
STACK CFI INIT 116320 520 .cfa: $esp 4 + .ra: .cfa -4 + ^
STACK CFI 116321 .cfa: $esp 8 +
STACK CFI 116322 .cfa: $esp 12 +
STACK CFI 116323 .cfa: $esp 16 +
STACK CFI 116324 .cfa: $esp 20 +
STACK CFI 11632a $ebp: .cfa -8 + ^ $ebx: .cfa -12 + ^ $edi: .cfa -16 + ^ $esi: .cfa -20 + ^ .cfa: $esp 192 +
STACK CFI INIT 116860 520 .cfa: $esp 4 + .ra: .cfa -4 + ^
STACK CFI 116861 .cfa: $esp 8 +
STACK CFI 116862 .cfa: $esp 12 +
STACK CFI 116863 .cfa: $esp 16 +
STACK CFI 116864 .cfa: $esp 20 +
STACK CFI 11686a $ebp: .cfa -8 + ^ $ebx: .cfa -12 + ^ $edi: .cfa -16 + ^ $esi: .cfa -20 + ^ .cfa: $esp 192 +
STACK CFI INIT 117120 380 .cfa: $esp 4 + .ra: .cfa -4 + ^
STACK CFI 117121 .cfa: $esp 8 +
STACK CFI 117122 .cfa: $esp 12 +
STACK CFI 117123 .cfa: $esp 16 +
STACK CFI 117124 .cfa: $esp 20 +
STACK CFI 117127 $ebp: .cfa -8 + ^ $ebx: .cfa -12 + ^ $edi: .cfa -16 + ^ $esi: .cfa -20 + ^ .cfa: $esp 32 +
STACK CFI INIT 117a60 520 .cfa: $esp 4 + .ra: .cfa -4 + ^
STACK CFI 117a61 .cfa: $esp 8 +
STACK CFI 117a62 .cfa: $esp 12 +
STACK CFI 117a63 .cfa: $esp 16 +
STACK CFI 117a64 .cfa: $esp 20 +
STACK CFI 117a6a $ebp: .cfa -8 + ^ $ebx: .cfa -12 + ^ $edi: .cfa -16 + ^ $esi: .cfa -20 + ^ .cfa: $esp 192 +
STACK CFI INIT 117fa0 cc0 .cfa: $esp 4 + .ra: .cfa -4 + ^
STACK CFI 117fa1 .cfa: $esp 8 +
STACK CFI 117fa2 .cfa: $esp 12 +
STACK CFI 117fa3 .cfa: $esp 16 +
STACK CFI 117fa4 .cfa: $esp 20 +
STACK CFI 117faa $ebp: .cfa -8 + ^ $ebx: .cfa -12 + ^ $edi: .cfa -16 + ^ $esi: .cfa -20 + ^ .cfa: $esp 432 +
STACK CFI INIT 118c60 520 .cfa: $esp 4 + .ra: .cfa -4 + ^
STACK CFI 118c61 .cfa: $esp 8 +
STACK CFI 118c62 .cfa: $esp 12 +
STACK CFI 118c63 .cfa: $esp 16 +
STACK CFI 118c64 .cfa: $esp 20 +
STACK CFI 118c6a $ebp: .cfa -8 + ^ $ebx: .cfa -12 + ^ $edi: .cfa -16 + ^ $esi: .cfa -20 + ^ .cfa: $esp 192 +
STACK CFI INIT 1191a0 d80 .cfa: $esp 4 + .ra: .cfa -4 + ^
STACK CFI 1191a1 .cfa: $esp 8 +
STACK CFI 1191a2 .cfa: $esp 12 +
STACK CFI 1191a3 .cfa: $esp 16 +
STACK CFI 1191a4 .cfa: $esp 20 +
STACK CFI 1191aa $ebp: .cfa -8 + ^ $ebx: .cfa -12 + ^ $edi: .cfa -16 + ^ $esi: .cfa -20 + ^ .cfa: $esp 448 +
STACK CFI INIT 119f20 520 .cfa: $esp 4 + .ra: .cfa -4 + ^
STACK CFI 119f21 .cfa: $esp 8 +
STACK CFI 119f22 .cfa: $esp 12 +
STACK CFI 119f23 .cfa: $esp 16 +
STACK CFI 119f24 .cfa: $esp 20 +
STACK CFI 119f2a $ebp: .cfa -8 + ^ $ebx: .cfa -12 + ^ $edi: .cfa -16 + ^ $esi: .cfa -20 + ^ .cfa: $esp 192 +
STACK CFI INIT 11a5a0 340 .cfa: $esp 4 + .ra: .cfa -4 + ^
STACK CFI 11a5a1 .cfa: $esp 8 +
STACK CFI 11a5a2 .cfa: $esp 12 +
STACK CFI 11a5a3 .cfa: $esp 16 +
STACK CFI 11a5a4 .cfa: $esp 20 +
STACK CFI 11a5a7 $ebp: .cfa -8 + ^ $ebx: .cfa -12 + ^ $edi: .cfa -16 + ^ $esi: .cfa -20 + ^ .cfa: $esp 48 +
STACK CFI INIT 11aa80 240 .cfa: $esp 4 + .ra: .cfa -4 + ^
STACK CFI 11aa81 .cfa: $esp 8 +
STACK CFI 11aa82 .cfa: $esp 12 +
STACK CFI 11aa83 .cfa: $esp 16 +
STACK CFI 11aa84 .cfa: $esp 20 +
STACK CFI 11aa87 $ebp: .cfa -8 + ^ $ebx: .cfa -12 + ^ $edi: .cfa -16 + ^ $esi: .cfa -20 + ^ .cfa: $esp 48 +
STACK CFI INIT 11ae00 280 .cfa: $esp 4 + .ra: .cfa -4 + ^
STACK CFI 11ae01 .cfa: $esp 8 +
STACK CFI 11ae02 .cfa: $esp 12 +
STACK CFI 11ae03 .cfa: $esp 16 +
STACK CFI 11ae04 .cfa: $esp 20 +
STACK CFI 11ae07 $ebp: .cfa -8 + ^ $ebx: .cfa -12 + ^ $edi: .cfa -16 + ^ $esi: .cfa -20 + ^ .cfa: $esp 32 +
STACK CFI INIT 11b6c0 520 .cfa: $esp 4 + .ra: .cfa -4 + ^
STACK CFI 11b6c1 .cfa: $esp 8 +
STACK CFI 11b6c2 .cfa: $esp 12 +
STACK CFI 11b6c3 .cfa: $esp 16 +
STACK CFI 11b6c4 .cfa: $esp 20 +
STACK CFI 11b6ca $ebp: .cfa -8 + ^ $ebx: .cfa -12 + ^ $edi: .cfa -16 + ^ $esi: .cfa -20 + ^ .cfa: $esp 192 +
STACK CFI INIT 11be80 100 .cfa: $esp 4 + .ra: .cfa -4 + ^
STACK CFI 11be81 .cfa: $esp 8 +
STACK CFI 11be82 .cfa: $esp 12 +
STACK CFI 11be83 .cfa: $esp 16 +
STACK CFI 11be86 $ebx: .cfa -8 + ^ $edi: .cfa -12 + ^ $esi: .cfa -16 + ^ .cfa: $esp 48 +
STACK CFI INIT 11c120 740 .cfa: $esp 4 + .ra: .cfa -4 + ^
STACK CFI 11c121 .cfa: $esp 8 +
STACK CFI 11c122 .cfa: $esp 12 +
STACK CFI 11c123 .cfa: $esp 16 +
STACK CFI 11c124 .cfa: $esp 20 +
STACK CFI 11c127 $ebp: .cfa -8 + ^ $ebx: .cfa -12 + ^ $edi: .cfa -16 + ^ $esi: .cfa -20 + ^ .cfa: $esp 96 +
STACK CFI INIT 11c860 920 .cfa: $esp 4 + .ra: .cfa -4 + ^
STACK CFI 11c861 .cfa: $esp 8 +
STACK CFI 11c862 .cfa: $esp 12 +
STACK CFI 11c863 .cfa: $esp 16 +
STACK CFI 11c869 $ebx: .cfa -8 + ^ $edi: .cfa -12 + ^ $esi: .cfa -16 + ^ .cfa: $esp 304 +
STACK CFI INIT 11d180 520 .cfa: $esp 4 + .ra: .cfa -4 + ^
STACK CFI 11d181 .cfa: $esp 8 +
STACK CFI 11d182 .cfa: $esp 12 +
STACK CFI 11d183 .cfa: $esp 16 +
STACK CFI 11d184 .cfa: $esp 20 +
STACK CFI 11d18a $ebp: .cfa -8 + ^ $ebx: .cfa -12 + ^ $edi: .cfa -16 + ^ $esi: .cfa -20 + ^ .cfa: $esp 192 +
STACK CFI INIT 11d7c0 580 .cfa: $esp 4 + .ra: .cfa -4 + ^
STACK CFI 11d7c1 .cfa: $esp 8 +
STACK CFI 11d7c2 .cfa: $esp 12 +
STACK CFI 11d7c3 .cfa: $esp 16 +
STACK CFI 11d7c4 .cfa: $esp 20 +
STACK CFI 11d7ca $ebp: .cfa -8 + ^ $ebx: .cfa -12 + ^ $edi: .cfa -16 + ^ $esi: .cfa -20 + ^ .cfa: $esp 256 +
STACK CFI INIT 11dd40 da0 .cfa: $esp 4 + .ra: .cfa -4 + ^
STACK CFI 11dd41 .cfa: $esp 8 +
STACK CFI 11dd42 .cfa: $esp 12 +
STACK CFI 11dd43 .cfa: $esp 16 +
STACK CFI 11dd44 .cfa: $esp 20 +
STACK CFI 11dd4a $ebp: .cfa -8 + ^ $ebx: .cfa -12 + ^ $edi: .cfa -16 + ^ $esi: .cfa -20 + ^ .cfa: $esp 208 +
STACK CFI INIT 11eca0 3e0 .cfa: $esp 4 + .ra: .cfa -4 + ^
STACK CFI 11eca1 .cfa: $esp 8 +
STACK CFI 11eca2 .cfa: $esp 12 +
STACK CFI 11eca3 .cfa: $esp 16 +
STACK CFI 11eca4 .cfa: $esp 20 +
STACK CFI 11eca7 $ebp: .cfa -8 + ^ $ebx: .cfa -12 + ^ $edi: .cfa -16 + ^ $esi: .cfa -20 + ^ .cfa: $esp 32 +
STACK CFI INIT 11f5e0 440 .cfa: $esp 4 + .ra: .cfa -4 + ^
STACK CFI 11f5e1 .cfa: $esp 8 +
STACK CFI 11f5e2 .cfa: $esp 12 +
STACK CFI 11f5e3 .cfa: $esp 16 +
STACK CFI 11f5e4 .cfa: $esp 20 +
STACK CFI 11f5e7 $ebp: .cfa -8 + ^ $ebx: .cfa -12 + ^ $edi: .cfa -16 + ^ $esi: .cfa -20 + ^ .cfa: $esp 64 +
STACK CFI INIT 11fa20 7a0 .cfa: $esp 4 + .ra: .cfa -4 + ^
STACK CFI 11fa21 .cfa: $esp 8 +
STACK CFI 11fa22 .cfa: $esp 12 +
STACK CFI 11fa23 .cfa: $esp 16 +
STACK CFI 11fa24 .cfa: $esp 20 +
STACK CFI 11fa27 $ebp: .cfa -8 + ^ $ebx: .cfa -12 + ^ $edi: .cfa -16 + ^ $esi: .cfa -20 + ^ .cfa: $esp 64 +
STACK CFI INIT 1201c0 1a0 .cfa: $esp 4 + .ra: .cfa -4 + ^
STACK CFI 1201c1 .cfa: $esp 8 +
STACK CFI 1201c2 .cfa: $esp 12 +
STACK CFI 1201c3 .cfa: $esp 16 +
STACK CFI 1201c4 .cfa: $esp 20 +
STACK CFI 1201c7 $ebp: .cfa -8 + ^ $ebx: .cfa -12 + ^ $edi: .cfa -16 + ^ $esi: .cfa -20 + ^ .cfa: $esp 32 +
STACK CFI INIT 120360 9e0 .cfa: $esp 4 + .ra: .cfa -4 + ^
STACK CFI 120361 .cfa: $esp 8 +
STACK CFI 120362 .cfa: $esp 12 +
STACK CFI 120363 .cfa: $esp 16 +
STACK CFI 120364 .cfa: $esp 20 +
STACK CFI 12036a $ebp: .cfa -8 + ^ $ebx: .cfa -12 + ^ $edi: .cfa -16 + ^ $esi: .cfa -20 + ^ .cfa: $esp 176 +
STACK CFI INIT 121380 5e20 .cfa: $esp 4 + .ra: .cfa -4 + ^
STACK CFI 121381 .cfa: $esp 8 +
STACK CFI 121382 .cfa: $esp 12 +
STACK CFI 121383 .cfa: $esp 16 +
STACK CFI 121384 .cfa: $esp 20 +
STACK CFI 12138a $ebp: .cfa -8 + ^ $ebx: .cfa -12 + ^ $edi: .cfa -16 + ^ $esi: .cfa -20 + ^ .cfa: $esp 1008 +
STACK CFI INIT 1271a0 120 .cfa: $esp 4 + .ra: .cfa -4 + ^
STACK CFI 1271a1 .cfa: $esp 8 +
STACK CFI 1271a4 $esi: .cfa -8 + ^ .cfa: $esp 32 +
STACK CFI INIT 1275c0 220 .cfa: $esp 4 + .ra: .cfa -4 + ^
STACK CFI 1275c1 .cfa: $esp 8 +
STACK CFI 1275c2 .cfa: $esp 12 +
STACK CFI 1275c3 .cfa: $esp 16 +
STACK CFI 1275c4 .cfa: $esp 20 +
STACK CFI 1275c7 $ebp: .cfa -8 + ^ $ebx: .cfa -12 + ^ $edi: .cfa -16 + ^ $esi: .cfa -20 + ^ .cfa: $esp 32 +
STACK CFI INIT 1277e0 520 .cfa: $esp 4 + .ra: .cfa -4 + ^
STACK CFI 1277e1 .cfa: $esp 8 +
STACK CFI 1277e2 .cfa: $esp 12 +
STACK CFI 1277e3 .cfa: $esp 16 +
STACK CFI 1277e4 .cfa: $esp 20 +
STACK CFI 1277ea $ebp: .cfa -8 + ^ $ebx: .cfa -12 + ^ $edi: .cfa -16 + ^ $esi: .cfa -20 + ^ .cfa: $esp 192 +
STACK CFI INIT 127d20 520 .cfa: $esp 4 + .ra: .cfa -4 + ^
STACK CFI 127d21 .cfa: $esp 8 +
STACK CFI 127d22 .cfa: $esp 12 +
STACK CFI 127d23 .cfa: $esp 16 +
STACK CFI 127d24 .cfa: $esp 20 +
STACK CFI 127d2a $ebp: .cfa -8 + ^ $ebx: .cfa -12 + ^ $edi: .cfa -16 + ^ $esi: .cfa -20 + ^ .cfa: $esp 192 +
STACK CFI INIT 128560 3c0 .cfa: $esp 4 + .ra: .cfa -4 + ^
STACK CFI 128561 .cfa: $esp 8 +
STACK CFI 128564 $esi: .cfa -8 + ^ .cfa: $esp 64 +
STACK CFI INIT 128920 140 .cfa: $esp 4 + .ra: .cfa -4 + ^
STACK CFI 128921 .cfa: $esp 8 +
STACK CFI 128922 .cfa: $esp 12 +
STACK CFI 128923 $edi: .cfa -8 + ^ $esi: .cfa -12 + ^ .cfa: $esp 16 +
STACK CFI INIT 128a60 180 .cfa: $esp 4 + .ra: .cfa -4 + ^
STACK CFI 128a61 .cfa: $esp 8 +
STACK CFI 128a62 .cfa: $esp 12 +
STACK CFI 128a65 $edi: .cfa -8 + ^ $esi: .cfa -12 + ^ .cfa: $esp 32 +
STACK CFI INIT 128be0 1a0 .cfa: $esp 4 + .ra: .cfa -4 + ^
STACK CFI 128be1 .cfa: $esp 8 +
STACK CFI 128be2 .cfa: $esp 12 +
STACK CFI 128be5 $edi: .cfa -8 + ^ $esi: .cfa -12 + ^ .cfa: $esp 32 +
STACK CFI INIT 129260 a0 .cfa: $esp 4 + .ra: .cfa -4 + ^
STACK CFI 129261 .cfa: $esp 8 +
STACK CFI 129264 $esi: .cfa -8 + ^ .cfa: $esp 32 +
STACK CFI INIT 129300 780 .cfa: $esp 4 + .ra: .cfa -4 + ^
STACK CFI 129301 .cfa: $esp 8 +
STACK CFI 129302 .cfa: $esp 12 +
STACK CFI 129303 .cfa: $esp 16 +
STACK CFI 129304 .cfa: $esp 20 +
STACK CFI 12930a $ebp: .cfa -8 + ^ $ebx: .cfa -12 + ^ $edi: .cfa -16 + ^ $esi: .cfa -20 + ^ .cfa: $esp 400 +
STACK CFI INIT 129a80 520 .cfa: $esp 4 + .ra: .cfa -4 + ^
STACK CFI 129a81 .cfa: $esp 8 +
STACK CFI 129a82 .cfa: $esp 12 +
STACK CFI 129a83 .cfa: $esp 16 +
STACK CFI 129a84 .cfa: $esp 20 +
STACK CFI 129a8a $ebp: .cfa -8 + ^ $ebx: .cfa -12 + ^ $edi: .cfa -16 + ^ $esi: .cfa -20 + ^ .cfa: $esp 192 +
STACK CFI INIT 12a5a0 28a0 .cfa: $esp 4 + .ra: .cfa -4 + ^
STACK CFI 12a5a1 .cfa: $esp 8 +
STACK CFI 12a5a2 .cfa: $esp 12 +
STACK CFI 12a5a3 .cfa: $esp 16 +
STACK CFI 12a5a4 .cfa: $esp 20 +
STACK CFI 12a5aa $ebp: .cfa -8 + ^ $ebx: .cfa -12 + ^ $edi: .cfa -16 + ^ $esi: .cfa -20 + ^ .cfa: $esp 1904 +
STACK CFI INIT 12ce40 7e0 .cfa: $esp 4 + .ra: .cfa -4 + ^
STACK CFI 12ce41 .cfa: $esp 8 +
STACK CFI 12ce42 .cfa: $esp 12 +
STACK CFI 12ce43 .cfa: $esp 16 +
STACK CFI 12ce44 .cfa: $esp 20 +
STACK CFI 12ce47 $ebp: .cfa -8 + ^ $ebx: .cfa -12 + ^ $edi: .cfa -16 + ^ $esi: .cfa -20 + ^ .cfa: $esp 112 +
STACK CFI INIT 12d620 160 .cfa: $esp 4 + .ra: .cfa -4 + ^
STACK CFI 12d621 .cfa: $esp 8 +
STACK CFI 12d622 .cfa: $esp 12 +
STACK CFI 12d625 $edi: .cfa -8 + ^ $esi: .cfa -12 + ^ .cfa: $esp 32 +
STACK CFI INIT 12d780 e80 .cfa: $esp 4 + .ra: .cfa -4 + ^
STACK CFI 12d781 .cfa: $esp 8 +
STACK CFI 12d782 .cfa: $esp 12 +
STACK CFI 12d783 .cfa: $esp 16 +
STACK CFI 12d784 .cfa: $esp 20 +
STACK CFI 12d78a $ebp: .cfa -8 + ^ $ebx: .cfa -12 + ^ $edi: .cfa -16 + ^ $esi: .cfa -20 + ^ .cfa: $esp 208 +
STACK CFI INIT 12e600 480 .cfa: $esp 4 + .ra: .cfa -4 + ^
STACK CFI 12e601 .cfa: $esp 8 +
STACK CFI 12e604 $esi: .cfa -8 + ^ .cfa: $esp 128 +
STACK CFI INIT 12ea80 a0 .cfa: $esp 4 + .ra: .cfa -4 + ^
STACK CFI 12ea81 .cfa: $esp 8 +
STACK CFI 12ea84 $esi: .cfa -8 + ^ .cfa: $esp 32 +
STACK CFI INIT 12ed00 340 .cfa: $esp 4 + .ra: .cfa -4 + ^
STACK CFI 12ed01 .cfa: $esp 8 +
STACK CFI 12ed02 .cfa: $esp 12 +
STACK CFI 12ed03 .cfa: $esp 16 +
STACK CFI 12ed04 .cfa: $esp 20 +
STACK CFI 12ed07 $ebp: .cfa -8 + ^ $ebx: .cfa -12 + ^ $edi: .cfa -16 + ^ $esi: .cfa -20 + ^ .cfa: $esp 96 +
STACK CFI INIT 12f080 180 .cfa: $esp 4 + .ra: .cfa -4 + ^
STACK CFI 12f081 .cfa: $esp 8 +
STACK CFI 12f082 .cfa: $esp 12 +
STACK CFI 12f083 .cfa: $esp 16 +
STACK CFI 12f086 $ebx: .cfa -8 + ^ $edi: .cfa -12 + ^ $esi: .cfa -16 + ^ .cfa: $esp 64 +
STACK CFI INIT 12f340 1e0 .cfa: $esp 4 + .ra: .cfa -4 + ^
STACK CFI 12f341 .cfa: $esp 8 +
STACK CFI 12f342 .cfa: $esp 12 +
STACK CFI 12f345 $edi: .cfa -8 + ^ $esi: .cfa -12 + ^ .cfa: $esp 64 +
STACK CFI INIT 12f620 1e0 .cfa: $esp 4 + .ra: .cfa -4 + ^
STACK CFI 12f621 .cfa: $esp 8 +
STACK CFI 12f622 .cfa: $esp 12 +
STACK CFI 12f623 .cfa: $esp 16 +
STACK CFI 12f626 $ebx: .cfa -8 + ^ $edi: .cfa -12 + ^ $esi: .cfa -16 + ^ .cfa: $esp 32 +
STACK CFI INIT 12f980 b40 .cfa: $esp 4 + .ra: .cfa -4 + ^
STACK CFI 12f981 .cfa: $esp 8 +
STACK CFI 12f982 .cfa: $esp 12 +
STACK CFI 12f983 .cfa: $esp 16 +
STACK CFI 12f984 .cfa: $esp 20 +
STACK CFI 12f98a $ebp: .cfa -8 + ^ $ebx: .cfa -12 + ^ $edi: .cfa -16 + ^ $esi: .cfa -20 + ^ .cfa: $esp 416 +
STACK CFI INIT 1305c0 69e0 .cfa: $esp 4 + .ra: .cfa -4 + ^
STACK CFI 1305c1 .cfa: $esp 8 +
STACK CFI 1305c2 .cfa: $esp 12 +
STACK CFI 1305c3 .cfa: $esp 16 +
STACK CFI 1305c4 .cfa: $esp 20 +
STACK CFI 1305ca $ebp: .cfa -8 + ^ $ebx: .cfa -12 + ^ $edi: .cfa -16 + ^ $esi: .cfa -20 + ^ .cfa: $esp 336304 +
STACK CFI INIT 137020 a0 .cfa: $esp 4 + .ra: .cfa -4 + ^
STACK CFI 137021 .cfa: $esp 8 +
STACK CFI 137024 $esi: .cfa -8 + ^ .cfa: $esp 32 +
STACK CFI INIT 137800 200 .cfa: $esp 4 + .ra: .cfa -4 + ^
STACK CFI 137801 .cfa: $esp 8 +
STACK CFI 137804 $esi: .cfa -8 + ^ .cfa: $esp 64 +
STACK CFI INIT 137a00 4e0 .cfa: $esp 4 + .ra: .cfa -4 + ^
STACK CFI 137a01 .cfa: $esp 8 +
STACK CFI 137a02 .cfa: $esp 12 +
STACK CFI 137a03 .cfa: $esp 16 +
STACK CFI 137a04 .cfa: $esp 20 +
STACK CFI 137a0a $ebp: .cfa -8 + ^ $ebx: .cfa -12 + ^ $edi: .cfa -16 + ^ $esi: .cfa -20 + ^ .cfa: $esp 192 +
STACK CFI INIT 13b340 160 .cfa: $esp 4 + .ra: .cfa -4 + ^
STACK CFI 13b341 .cfa: $esp 8 +
STACK CFI 13b344 $esi: .cfa -8 + ^ .cfa: $esp 48 +
STACK CFI INIT 13e6e0 160 .cfa: $esp 4 + .ra: .cfa -4 + ^
STACK CFI 13e6e1 .cfa: $esp 8 +
STACK CFI 13e6e4 $esi: .cfa -8 + ^ .cfa: $esp 48 +
STACK CFI INIT 140a20 4e0 .cfa: $esp 4 + .ra: .cfa -4 + ^
STACK CFI 140a21 .cfa: $esp 8 +
STACK CFI 140a22 .cfa: $esp 12 +
STACK CFI 140a23 .cfa: $esp 16 +
STACK CFI 140a24 .cfa: $esp 20 +
STACK CFI 140a2a $ebp: .cfa -8 + ^ $ebx: .cfa -12 + ^ $edi: .cfa -16 + ^ $esi: .cfa -20 + ^ .cfa: $esp 192 +
STACK CFI INIT 140f80 4e0 .cfa: $esp 4 + .ra: .cfa -4 + ^
STACK CFI 140f81 .cfa: $esp 8 +
STACK CFI 140f82 .cfa: $esp 12 +
STACK CFI 140f83 .cfa: $esp 16 +
STACK CFI 140f84 .cfa: $esp 20 +
STACK CFI 140f8a $ebp: .cfa -8 + ^ $ebx: .cfa -12 + ^ $edi: .cfa -16 + ^ $esi: .cfa -20 + ^ .cfa: $esp 192 +
STACK CFI INIT 142960 200 .cfa: $esp 4 + .ra: .cfa -4 + ^
STACK CFI 142961 .cfa: $esp 8 +
STACK CFI 142962 .cfa: $esp 12 +
STACK CFI 142965 $edi: .cfa -8 + ^ $esi: .cfa -12 + ^ .cfa: $esp 80 +
STACK CFI INIT 143380 340 .cfa: $esp 4 + .ra: .cfa -4 + ^
STACK CFI 143381 .cfa: $esp 8 +
STACK CFI 143382 .cfa: $esp 12 +
STACK CFI 143383 .cfa: $esp 16 +
STACK CFI 143384 .cfa: $esp 20 +
STACK CFI 143387 $ebp: .cfa -8 + ^ $ebx: .cfa -12 + ^ $edi: .cfa -16 + ^ $esi: .cfa -20 + ^ .cfa: $esp 80 +
STACK CFI INIT 143d60 2a0 .cfa: $esp 4 + .ra: .cfa -4 + ^
STACK CFI 143d61 .cfa: $esp 8 +
STACK CFI 143d62 .cfa: $esp 12 +
STACK CFI 143d63 .cfa: $esp 16 +
STACK CFI 143d64 .cfa: $esp 20 +
STACK CFI 143d6a $ebp: .cfa -8 + ^ $ebx: .cfa -12 + ^ $edi: .cfa -16 + ^ $esi: .cfa -20 + ^ .cfa: $esp 8256 +
STACK CFI INIT 144000 240 .cfa: $esp 4 + .ra: .cfa -4 + ^
STACK CFI 144001 .cfa: $esp 8 +
STACK CFI 144002 .cfa: $esp 12 +
STACK CFI 144003 .cfa: $esp 16 +
STACK CFI 144004 .cfa: $esp 20 +
STACK CFI 144007 $ebp: .cfa -8 + ^ $ebx: .cfa -12 + ^ $edi: .cfa -16 + ^ $esi: .cfa -20 + ^ .cfa: $esp 64 +
STACK CFI INIT 1444e0 540 .cfa: $esp 4 + .ra: .cfa -4 + ^
STACK CFI 1444e1 .cfa: $esp 8 +
STACK CFI 1444e2 .cfa: $esp 12 +
STACK CFI 1444e3 .cfa: $esp 16 +
STACK CFI 1444e4 .cfa: $esp 20 +
STACK CFI 1444ea $ebp: .cfa -8 + ^ $ebx: .cfa -12 + ^ $edi: .cfa -16 + ^ $esi: .cfa -20 + ^ .cfa: $esp 240 +
STACK CFI INIT 144a20 6c0 .cfa: $esp 4 + .ra: .cfa -4 + ^
STACK CFI 144a21 .cfa: $esp 8 +
STACK CFI 144a22 .cfa: $esp 12 +
STACK CFI 144a23 .cfa: $esp 16 +
STACK CFI 144a24 .cfa: $esp 20 +
STACK CFI 144a2a $ebp: .cfa -8 + ^ $ebx: .cfa -12 + ^ $edi: .cfa -16 + ^ $esi: .cfa -20 + ^ .cfa: $esp 272 +
STACK CFI INIT 14ab40 8e0 .cfa: $esp 4 + .ra: .cfa -4 + ^
STACK CFI 14ab41 .cfa: $esp 8 +
STACK CFI 14ab42 .cfa: $esp 12 +
STACK CFI 14ab43 .cfa: $esp 16 +
STACK CFI 14ab44 .cfa: $esp 20 +
STACK CFI 14ab47 $ebp: .cfa -8 + ^ $ebx: .cfa -12 + ^ $edi: .cfa -16 + ^ $esi: .cfa -20 + ^ .cfa: $esp 32 +
STACK CFI INIT 14b600 540 .cfa: $esp 4 + .ra: .cfa -4 + ^
STACK CFI 14b601 .cfa: $esp 8 +
STACK CFI 14b602 .cfa: $esp 12 +
STACK CFI 14b603 .cfa: $esp 16 +
STACK CFI 14b604 .cfa: $esp 20 +
STACK CFI 14b607 $ebp: .cfa -8 + ^ $ebx: .cfa -12 + ^ $edi: .cfa -16 + ^ $esi: .cfa -20 + ^ .cfa: $esp 112 +
STACK CFI INIT 14bb40 6a0 .cfa: $esp 4 + .ra: .cfa -4 + ^
STACK CFI 14bb41 .cfa: $esp 8 +
STACK CFI 14bb42 .cfa: $esp 12 +
STACK CFI 14bb43 .cfa: $esp 16 +
STACK CFI 14bb44 .cfa: $esp 20 +
STACK CFI 14bb4a $ebp: .cfa -8 + ^ $ebx: .cfa -12 + ^ $edi: .cfa -16 + ^ $esi: .cfa -20 + ^ .cfa: $esp 176 +
STACK CFI INIT 14c1e0 6a0 .cfa: $esp 4 + .ra: .cfa -4 + ^
STACK CFI 14c1e1 .cfa: $esp 8 +
STACK CFI 14c1e2 .cfa: $esp 12 +
STACK CFI 14c1e3 .cfa: $esp 16 +
STACK CFI 14c1e4 .cfa: $esp 20 +
STACK CFI 14c1ea $ebp: .cfa -8 + ^ $ebx: .cfa -12 + ^ $edi: .cfa -16 + ^ $esi: .cfa -20 + ^ .cfa: $esp 320 +
STACK CFI INIT 14c880 6a0 .cfa: $esp 4 + .ra: .cfa -4 + ^
STACK CFI 14c881 .cfa: $esp 8 +
STACK CFI 14c882 .cfa: $esp 12 +
STACK CFI 14c883 .cfa: $esp 16 +
STACK CFI 14c884 .cfa: $esp 20 +
STACK CFI 14c88a $ebp: .cfa -8 + ^ $ebx: .cfa -12 + ^ $edi: .cfa -16 + ^ $esi: .cfa -20 + ^ .cfa: $esp 320 +
STACK CFI INIT 14cf20 6a0 .cfa: $esp 4 + .ra: .cfa -4 + ^
STACK CFI 14cf21 .cfa: $esp 8 +
STACK CFI 14cf22 .cfa: $esp 12 +
STACK CFI 14cf23 .cfa: $esp 16 +
STACK CFI 14cf24 .cfa: $esp 20 +
STACK CFI 14cf2a $ebp: .cfa -8 + ^ $ebx: .cfa -12 + ^ $edi: .cfa -16 + ^ $esi: .cfa -20 + ^ .cfa: $esp 320 +
STACK CFI INIT 14d5c0 6a0 .cfa: $esp 4 + .ra: .cfa -4 + ^
STACK CFI 14d5c1 .cfa: $esp 8 +
STACK CFI 14d5c2 .cfa: $esp 12 +
STACK CFI 14d5c3 .cfa: $esp 16 +
STACK CFI 14d5c4 .cfa: $esp 20 +
STACK CFI 14d5ca $ebp: .cfa -8 + ^ $ebx: .cfa -12 + ^ $edi: .cfa -16 + ^ $esi: .cfa -20 + ^ .cfa: $esp 320 +
STACK CFI INIT 14dc60 6a0 .cfa: $esp 4 + .ra: .cfa -4 + ^
STACK CFI 14dc61 .cfa: $esp 8 +
STACK CFI 14dc62 .cfa: $esp 12 +
STACK CFI 14dc63 .cfa: $esp 16 +
STACK CFI 14dc64 .cfa: $esp 20 +
STACK CFI 14dc6a $ebp: .cfa -8 + ^ $ebx: .cfa -12 + ^ $edi: .cfa -16 + ^ $esi: .cfa -20 + ^ .cfa: $esp 320 +
STACK CFI INIT 14e300 6a0 .cfa: $esp 4 + .ra: .cfa -4 + ^
STACK CFI 14e301 .cfa: $esp 8 +
STACK CFI 14e302 .cfa: $esp 12 +
STACK CFI 14e303 .cfa: $esp 16 +
STACK CFI 14e304 .cfa: $esp 20 +
STACK CFI 14e30a $ebp: .cfa -8 + ^ $ebx: .cfa -12 + ^ $edi: .cfa -16 + ^ $esi: .cfa -20 + ^ .cfa: $esp 320 +
STACK CFI INIT 14e9a0 6a0 .cfa: $esp 4 + .ra: .cfa -4 + ^
STACK CFI 14e9a1 .cfa: $esp 8 +
STACK CFI 14e9a2 .cfa: $esp 12 +
STACK CFI 14e9a3 .cfa: $esp 16 +
STACK CFI 14e9a4 .cfa: $esp 20 +
STACK CFI 14e9aa $ebp: .cfa -8 + ^ $ebx: .cfa -12 + ^ $edi: .cfa -16 + ^ $esi: .cfa -20 + ^ .cfa: $esp 336 +
STACK CFI INIT 14f040 6a0 .cfa: $esp 4 + .ra: .cfa -4 + ^
STACK CFI 14f041 .cfa: $esp 8 +
STACK CFI 14f042 .cfa: $esp 12 +
STACK CFI 14f043 .cfa: $esp 16 +
STACK CFI 14f044 .cfa: $esp 20 +
STACK CFI 14f04a $ebp: .cfa -8 + ^ $ebx: .cfa -12 + ^ $edi: .cfa -16 + ^ $esi: .cfa -20 + ^ .cfa: $esp 336 +
STACK CFI INIT 14f6e0 6a0 .cfa: $esp 4 + .ra: .cfa -4 + ^
STACK CFI 14f6e1 .cfa: $esp 8 +
STACK CFI 14f6e2 .cfa: $esp 12 +
STACK CFI 14f6e3 .cfa: $esp 16 +
STACK CFI 14f6e4 .cfa: $esp 20 +
STACK CFI 14f6ea $ebp: .cfa -8 + ^ $ebx: .cfa -12 + ^ $edi: .cfa -16 + ^ $esi: .cfa -20 + ^ .cfa: $esp 336 +
STACK CFI INIT 14fd80 7e0 .cfa: $esp 4 + .ra: .cfa -4 + ^
STACK CFI 14fd81 .cfa: $esp 8 +
STACK CFI 14fd82 .cfa: $esp 12 +
STACK CFI 14fd83 .cfa: $esp 16 +
STACK CFI 14fd84 .cfa: $esp 20 +
STACK CFI 14fd8a $ebp: .cfa -8 + ^ $ebx: .cfa -12 + ^ $edi: .cfa -16 + ^ $esi: .cfa -20 + ^ .cfa: $esp 304 +
STACK CFI INIT 150900 540 .cfa: $esp 4 + .ra: .cfa -4 + ^
STACK CFI 150901 .cfa: $esp 8 +
STACK CFI 150902 .cfa: $esp 12 +
STACK CFI 150903 .cfa: $esp 16 +
STACK CFI 150904 .cfa: $esp 20 +
STACK CFI 150907 $ebp: .cfa -8 + ^ $ebx: .cfa -12 + ^ $edi: .cfa -16 + ^ $esi: .cfa -20 + ^ .cfa: $esp 112 +
STACK CFI INIT 150e40 6e0 .cfa: $esp 4 + .ra: .cfa -4 + ^
STACK CFI 150e41 .cfa: $esp 8 +
STACK CFI 150e42 .cfa: $esp 12 +
STACK CFI 150e43 .cfa: $esp 16 +
STACK CFI 150e44 .cfa: $esp 20 +
STACK CFI 150e4a $ebp: .cfa -8 + ^ $ebx: .cfa -12 + ^ $edi: .cfa -16 + ^ $esi: .cfa -20 + ^ .cfa: $esp 176 +
STACK CFI INIT 151520 6e0 .cfa: $esp 4 + .ra: .cfa -4 + ^
STACK CFI 151521 .cfa: $esp 8 +
STACK CFI 151522 .cfa: $esp 12 +
STACK CFI 151523 .cfa: $esp 16 +
STACK CFI 151524 .cfa: $esp 20 +
STACK CFI 15152a $ebp: .cfa -8 + ^ $ebx: .cfa -12 + ^ $edi: .cfa -16 + ^ $esi: .cfa -20 + ^ .cfa: $esp 384 +
STACK CFI INIT 151c00 6e0 .cfa: $esp 4 + .ra: .cfa -4 + ^
STACK CFI 151c01 .cfa: $esp 8 +
STACK CFI 151c02 .cfa: $esp 12 +
STACK CFI 151c03 .cfa: $esp 16 +
STACK CFI 151c04 .cfa: $esp 20 +
STACK CFI 151c0a $ebp: .cfa -8 + ^ $ebx: .cfa -12 + ^ $edi: .cfa -16 + ^ $esi: .cfa -20 + ^ .cfa: $esp 384 +
STACK CFI INIT 1522e0 6e0 .cfa: $esp 4 + .ra: .cfa -4 + ^
STACK CFI 1522e1 .cfa: $esp 8 +
STACK CFI 1522e2 .cfa: $esp 12 +
STACK CFI 1522e3 .cfa: $esp 16 +
STACK CFI 1522e4 .cfa: $esp 20 +
STACK CFI 1522ea $ebp: .cfa -8 + ^ $ebx: .cfa -12 + ^ $edi: .cfa -16 + ^ $esi: .cfa -20 + ^ .cfa: $esp 384 +
STACK CFI INIT 1529c0 6e0 .cfa: $esp 4 + .ra: .cfa -4 + ^
STACK CFI 1529c1 .cfa: $esp 8 +
STACK CFI 1529c2 .cfa: $esp 12 +
STACK CFI 1529c3 .cfa: $esp 16 +
STACK CFI 1529c4 .cfa: $esp 20 +
STACK CFI 1529ca $ebp: .cfa -8 + ^ $ebx: .cfa -12 + ^ $edi: .cfa -16 + ^ $esi: .cfa -20 + ^ .cfa: $esp 384 +
STACK CFI INIT 1530a0 6e0 .cfa: $esp 4 + .ra: .cfa -4 + ^
STACK CFI 1530a1 .cfa: $esp 8 +
STACK CFI 1530a2 .cfa: $esp 12 +
STACK CFI 1530a3 .cfa: $esp 16 +
STACK CFI 1530a4 .cfa: $esp 20 +
STACK CFI 1530aa $ebp: .cfa -8 + ^ $ebx: .cfa -12 + ^ $edi: .cfa -16 + ^ $esi: .cfa -20 + ^ .cfa: $esp 384 +
STACK CFI INIT 153780 6e0 .cfa: $esp 4 + .ra: .cfa -4 + ^
STACK CFI 153781 .cfa: $esp 8 +
STACK CFI 153782 .cfa: $esp 12 +
STACK CFI 153783 .cfa: $esp 16 +
STACK CFI 153784 .cfa: $esp 20 +
STACK CFI 15378a $ebp: .cfa -8 + ^ $ebx: .cfa -12 + ^ $edi: .cfa -16 + ^ $esi: .cfa -20 + ^ .cfa: $esp 384 +
STACK CFI INIT 153e60 6c0 .cfa: $esp 4 + .ra: .cfa -4 + ^
STACK CFI 153e61 .cfa: $esp 8 +
STACK CFI 153e62 .cfa: $esp 12 +
STACK CFI 153e63 .cfa: $esp 16 +
STACK CFI 153e64 .cfa: $esp 20 +
STACK CFI 153e6a $ebp: .cfa -8 + ^ $ebx: .cfa -12 + ^ $edi: .cfa -16 + ^ $esi: .cfa -20 + ^ .cfa: $esp 432 +
STACK CFI INIT 154520 6c0 .cfa: $esp 4 + .ra: .cfa -4 + ^
STACK CFI 154521 .cfa: $esp 8 +
STACK CFI 154522 .cfa: $esp 12 +
STACK CFI 154523 .cfa: $esp 16 +
STACK CFI 154524 .cfa: $esp 20 +
STACK CFI 15452a $ebp: .cfa -8 + ^ $ebx: .cfa -12 + ^ $edi: .cfa -16 + ^ $esi: .cfa -20 + ^ .cfa: $esp 432 +
STACK CFI INIT 154be0 6c0 .cfa: $esp 4 + .ra: .cfa -4 + ^
STACK CFI 154be1 .cfa: $esp 8 +
STACK CFI 154be2 .cfa: $esp 12 +
STACK CFI 154be3 .cfa: $esp 16 +
STACK CFI 154be4 .cfa: $esp 20 +
STACK CFI 154bea $ebp: .cfa -8 + ^ $ebx: .cfa -12 + ^ $edi: .cfa -16 + ^ $esi: .cfa -20 + ^ .cfa: $esp 432 +
STACK CFI INIT 1552a0 840 .cfa: $esp 4 + .ra: .cfa -4 + ^
STACK CFI 1552a1 .cfa: $esp 8 +
STACK CFI 1552a2 .cfa: $esp 12 +
STACK CFI 1552a3 .cfa: $esp 16 +
STACK CFI 1552a4 .cfa: $esp 20 +
STACK CFI 1552aa $ebp: .cfa -8 + ^ $ebx: .cfa -12 + ^ $edi: .cfa -16 + ^ $esi: .cfa -20 + ^ .cfa: $esp 368 +
STACK CFI INIT 155d60 240 .cfa: $esp 4 + .ra: .cfa -4 + ^
STACK CFI 155d61 .cfa: $esp 8 +
STACK CFI 155d62 .cfa: $esp 12 +
STACK CFI 155d63 .cfa: $esp 16 +
STACK CFI 155d66 $ebx: .cfa -8 + ^ $edi: .cfa -12 + ^ $esi: .cfa -16 + ^ .cfa: $esp 32 +
STACK CFI INIT 155fa0 280 .cfa: $esp 4 + .ra: .cfa -4 + ^
STACK CFI 155fa1 .cfa: $esp 8 +
STACK CFI 155fa2 .cfa: $esp 12 +
STACK CFI 155fa3 .cfa: $esp 16 +
STACK CFI 155fa6 $ebx: .cfa -8 + ^ $edi: .cfa -12 + ^ $esi: .cfa -16 + ^ .cfa: $esp 32 +
STACK CFI INIT 156440 240 .cfa: $esp 4 + .ra: .cfa -4 + ^
STACK CFI 156441 .cfa: $esp 8 +
STACK CFI 156442 .cfa: $esp 12 +
STACK CFI 156443 .cfa: $esp 16 +
STACK CFI 156446 $ebx: .cfa -8 + ^ $edi: .cfa -12 + ^ $esi: .cfa -16 + ^ .cfa: $esp 32 +
STACK CFI INIT 156680 280 .cfa: $esp 4 + .ra: .cfa -4 + ^
STACK CFI 156681 .cfa: $esp 8 +
STACK CFI 156682 .cfa: $esp 12 +
STACK CFI 156683 .cfa: $esp 16 +
STACK CFI 156686 $ebx: .cfa -8 + ^ $edi: .cfa -12 + ^ $esi: .cfa -16 + ^ .cfa: $esp 32 +
STACK CFI INIT 156b00 300 .cfa: $esp 4 + .ra: .cfa -4 + ^
STACK CFI 156b01 .cfa: $esp 8 +
STACK CFI 156b02 .cfa: $esp 12 +
STACK CFI 156b03 .cfa: $esp 16 +
STACK CFI 156b04 .cfa: $esp 20 +
STACK CFI 156b07 $ebp: .cfa -8 + ^ $ebx: .cfa -12 + ^ $edi: .cfa -16 + ^ $esi: .cfa -20 + ^ .cfa: $esp 80 +
STACK CFI INIT 156e00 280 .cfa: $esp 4 + .ra: .cfa -4 + ^
STACK CFI 156e01 .cfa: $esp 8 +
STACK CFI 156e02 .cfa: $esp 12 +
STACK CFI 156e03 .cfa: $esp 16 +
STACK CFI 156e04 .cfa: $esp 20 +
STACK CFI 156e07 $ebp: .cfa -8 + ^ $ebx: .cfa -12 + ^ $edi: .cfa -16 + ^ $esi: .cfa -20 + ^ .cfa: $esp 112 +
STACK CFI INIT 157160 4c0 .cfa: $esp 4 + .ra: .cfa -4 + ^
STACK CFI 157161 .cfa: $esp 8 +
STACK CFI 157162 .cfa: $esp 12 +
STACK CFI 157163 .cfa: $esp 16 +
STACK CFI 157164 .cfa: $esp 20 +
STACK CFI 157167 $ebp: .cfa -8 + ^ $ebx: .cfa -12 + ^ $edi: .cfa -16 + ^ $esi: .cfa -20 + ^ .cfa: $esp 80 +
STACK CFI INIT 157620 280 .cfa: $esp 4 + .ra: .cfa -4 + ^
STACK CFI 157621 .cfa: $esp 8 +
STACK CFI 157622 .cfa: $esp 12 +
STACK CFI 157623 .cfa: $esp 16 +
STACK CFI 157624 .cfa: $esp 20 +
STACK CFI 157627 $ebp: .cfa -8 + ^ $ebx: .cfa -12 + ^ $edi: .cfa -16 + ^ $esi: .cfa -20 + ^ .cfa: $esp 144 +
STACK CFI INIT 1578a0 280 .cfa: $esp 4 + .ra: .cfa -4 + ^
STACK CFI 1578a1 .cfa: $esp 8 +
STACK CFI 1578a2 .cfa: $esp 12 +
STACK CFI 1578a3 .cfa: $esp 16 +
STACK CFI 1578a4 .cfa: $esp 20 +
STACK CFI 1578a7 $ebp: .cfa -8 + ^ $ebx: .cfa -12 + ^ $edi: .cfa -16 + ^ $esi: .cfa -20 + ^ .cfa: $esp 112 +
STACK CFI INIT 157b20 280 .cfa: $esp 4 + .ra: .cfa -4 + ^
STACK CFI 157b21 .cfa: $esp 8 +
STACK CFI 157b22 .cfa: $esp 12 +
STACK CFI 157b23 .cfa: $esp 16 +
STACK CFI 157b24 .cfa: $esp 20 +
STACK CFI 157b27 $ebp: .cfa -8 + ^ $ebx: .cfa -12 + ^ $edi: .cfa -16 + ^ $esi: .cfa -20 + ^ .cfa: $esp 144 +
STACK CFI INIT 157da0 5c0 .cfa: $esp 4 + .ra: .cfa -4 + ^
STACK CFI 157da1 .cfa: $esp 8 +
STACK CFI 157da2 .cfa: $esp 12 +
STACK CFI 157da3 .cfa: $esp 16 +
STACK CFI 157da4 .cfa: $esp 20 +
STACK CFI 157daa $ebp: .cfa -8 + ^ $ebx: .cfa -12 + ^ $edi: .cfa -16 + ^ $esi: .cfa -20 + ^ .cfa: $esp 240 +
STACK CFI INIT 1584e0 660 .cfa: $esp 4 + .ra: .cfa -4 + ^
STACK CFI 1584e1 .cfa: $esp 8 +
STACK CFI 1584e2 .cfa: $esp 12 +
STACK CFI 1584e3 .cfa: $esp 16 +
STACK CFI 1584e4 .cfa: $esp 20 +
STACK CFI 1584e7 $ebp: .cfa -8 + ^ $ebx: .cfa -12 + ^ $edi: .cfa -16 + ^ $esi: .cfa -20 + ^ .cfa: $esp 80 +
STACK CFI INIT 158b40 5a0 .cfa: $esp 4 + .ra: .cfa -4 + ^
STACK CFI 158b41 .cfa: $esp 8 +
STACK CFI 158b42 .cfa: $esp 12 +
STACK CFI 158b43 .cfa: $esp 16 +
STACK CFI 158b44 .cfa: $esp 20 +
STACK CFI 158b4a $ebp: .cfa -8 + ^ $ebx: .cfa -12 + ^ $edi: .cfa -16 + ^ $esi: .cfa -20 + ^ .cfa: $esp 240 +
STACK CFI INIT 1590e0 2a0 .cfa: $esp 4 + .ra: .cfa -4 + ^
STACK CFI 1590e1 .cfa: $esp 8 +
STACK CFI 1590e2 .cfa: $esp 12 +
STACK CFI 1590e3 .cfa: $esp 16 +
STACK CFI 1590e4 .cfa: $esp 20 +
STACK CFI 1590e7 $ebp: .cfa -8 + ^ $ebx: .cfa -12 + ^ $edi: .cfa -16 + ^ $esi: .cfa -20 + ^ .cfa: $esp 112 +
STACK CFI INIT 159380 300 .cfa: $esp 4 + .ra: .cfa -4 + ^
STACK CFI 159381 .cfa: $esp 8 +
STACK CFI 159382 .cfa: $esp 12 +
STACK CFI 159383 .cfa: $esp 16 +
STACK CFI 159384 .cfa: $esp 20 +
STACK CFI 159387 $ebp: .cfa -8 + ^ $ebx: .cfa -12 + ^ $edi: .cfa -16 + ^ $esi: .cfa -20 + ^ .cfa: $esp 80 +
STACK CFI INIT 159680 2a0 .cfa: $esp 4 + .ra: .cfa -4 + ^
STACK CFI 159681 .cfa: $esp 8 +
STACK CFI 159682 .cfa: $esp 12 +
STACK CFI 159683 .cfa: $esp 16 +
STACK CFI 159684 .cfa: $esp 20 +
STACK CFI 15968a $ebp: .cfa -8 + ^ $ebx: .cfa -12 + ^ $edi: .cfa -16 + ^ $esi: .cfa -20 + ^ .cfa: $esp 176 +
STACK CFI INIT 159920 4c0 .cfa: $esp 4 + .ra: .cfa -4 + ^
STACK CFI 159921 .cfa: $esp 8 +
STACK CFI 159922 .cfa: $esp 12 +
STACK CFI 159923 .cfa: $esp 16 +
STACK CFI 159924 .cfa: $esp 20 +
STACK CFI 159927 $ebp: .cfa -8 + ^ $ebx: .cfa -12 + ^ $edi: .cfa -16 + ^ $esi: .cfa -20 + ^ .cfa: $esp 80 +
STACK CFI INIT 159de0 240 .cfa: $esp 4 + .ra: .cfa -4 + ^
STACK CFI 159de1 .cfa: $esp 8 +
STACK CFI 159de2 .cfa: $esp 12 +
STACK CFI 159de3 .cfa: $esp 16 +
STACK CFI 159de4 .cfa: $esp 20 +
STACK CFI 159de7 $ebp: .cfa -8 + ^ $ebx: .cfa -12 + ^ $edi: .cfa -16 + ^ $esi: .cfa -20 + ^ .cfa: $esp 48 +
STACK CFI INIT 15a020 2a0 .cfa: $esp 4 + .ra: .cfa -4 + ^
STACK CFI 15a021 .cfa: $esp 8 +
STACK CFI 15a022 .cfa: $esp 12 +
STACK CFI 15a023 .cfa: $esp 16 +
STACK CFI 15a024 .cfa: $esp 20 +
STACK CFI 15a02a $ebp: .cfa -8 + ^ $ebx: .cfa -12 + ^ $edi: .cfa -16 + ^ $esi: .cfa -20 + ^ .cfa: $esp 272 +
STACK CFI INIT 15a2c0 2a0 .cfa: $esp 4 + .ra: .cfa -4 + ^
STACK CFI 15a2c1 .cfa: $esp 8 +
STACK CFI 15a2c2 .cfa: $esp 12 +
STACK CFI 15a2c3 .cfa: $esp 16 +
STACK CFI 15a2c4 .cfa: $esp 20 +
STACK CFI 15a2ca $ebp: .cfa -8 + ^ $ebx: .cfa -12 + ^ $edi: .cfa -16 + ^ $esi: .cfa -20 + ^ .cfa: $esp 176 +
STACK CFI INIT 15a560 2a0 .cfa: $esp 4 + .ra: .cfa -4 + ^
STACK CFI 15a561 .cfa: $esp 8 +
STACK CFI 15a562 .cfa: $esp 12 +
STACK CFI 15a563 .cfa: $esp 16 +
STACK CFI 15a564 .cfa: $esp 20 +
STACK CFI 15a56a $ebp: .cfa -8 + ^ $ebx: .cfa -12 + ^ $edi: .cfa -16 + ^ $esi: .cfa -20 + ^ .cfa: $esp 272 +
STACK CFI INIT 15a800 5a0 .cfa: $esp 4 + .ra: .cfa -4 + ^
STACK CFI 15a801 .cfa: $esp 8 +
STACK CFI 15a802 .cfa: $esp 12 +
STACK CFI 15a803 .cfa: $esp 16 +
STACK CFI 15a804 .cfa: $esp 20 +
STACK CFI 15a80a $ebp: .cfa -8 + ^ $ebx: .cfa -12 + ^ $edi: .cfa -16 + ^ $esi: .cfa -20 + ^ .cfa: $esp 416 +
STACK CFI INIT 15ada0 680 .cfa: $esp 4 + .ra: .cfa -4 + ^
STACK CFI 15ada1 .cfa: $esp 8 +
STACK CFI 15ada2 .cfa: $esp 12 +
STACK CFI 15ada3 .cfa: $esp 16 +
STACK CFI 15ada4 .cfa: $esp 20 +
STACK CFI 15ada7 $ebp: .cfa -8 + ^ $ebx: .cfa -12 + ^ $edi: .cfa -16 + ^ $esi: .cfa -20 + ^ .cfa: $esp 80 +
STACK CFI INIT 15b420 5c0 .cfa: $esp 4 + .ra: .cfa -4 + ^
STACK CFI 15b421 .cfa: $esp 8 +
STACK CFI 15b422 .cfa: $esp 12 +
STACK CFI 15b423 .cfa: $esp 16 +
STACK CFI 15b424 .cfa: $esp 20 +
STACK CFI 15b42a $ebp: .cfa -8 + ^ $ebx: .cfa -12 + ^ $edi: .cfa -16 + ^ $esi: .cfa -20 + ^ .cfa: $esp 416 +
STACK CFI INIT 15b9e0 2e0 .cfa: $esp 4 + .ra: .cfa -4 + ^
STACK CFI 15b9e1 .cfa: $esp 8 +
STACK CFI 15b9e2 .cfa: $esp 12 +
STACK CFI 15b9e3 .cfa: $esp 16 +
STACK CFI 15b9e4 .cfa: $esp 20 +
STACK CFI 15b9ea $ebp: .cfa -8 + ^ $ebx: .cfa -12 + ^ $edi: .cfa -16 + ^ $esi: .cfa -20 + ^ .cfa: $esp 224 +
STACK CFI INIT 15bcc0 760 .cfa: $esp 4 + .ra: .cfa -4 + ^
STACK CFI 15bcc1 .cfa: $esp 8 +
STACK CFI 15bcc2 .cfa: $esp 12 +
STACK CFI 15bcc3 .cfa: $esp 16 +
STACK CFI 15bcc4 .cfa: $esp 20 +
STACK CFI 15bcc7 $ebp: .cfa -8 + ^ $ebx: .cfa -12 + ^ $edi: .cfa -16 + ^ $esi: .cfa -20 + ^ .cfa: $esp 128 +
STACK CFI INIT 15c580 1e0 .cfa: $esp 4 + .ra: .cfa -4 + ^
STACK CFI 15c581 .cfa: $esp 8 +
STACK CFI 15c582 .cfa: $esp 12 +
STACK CFI 15c583 .cfa: $esp 16 +
STACK CFI 15c584 .cfa: $esp 20 +
STACK CFI 15c587 $ebp: .cfa -8 + ^ $ebx: .cfa -12 + ^ $edi: .cfa -16 + ^ $esi: .cfa -20 + ^ .cfa: $esp 48 +
STACK CFI INIT 15c760 1e0 .cfa: $esp 4 + .ra: .cfa -4 + ^
STACK CFI 15c761 .cfa: $esp 8 +
STACK CFI 15c762 .cfa: $esp 12 +
STACK CFI 15c763 .cfa: $esp 16 +
STACK CFI 15c764 .cfa: $esp 20 +
STACK CFI 15c767 $ebp: .cfa -8 + ^ $ebx: .cfa -12 + ^ $edi: .cfa -16 + ^ $esi: .cfa -20 + ^ .cfa: $esp 48 +
STACK CFI INIT 15c940 180 .cfa: $esp 4 + .ra: .cfa -4 + ^
STACK CFI 15c941 .cfa: $esp 8 +
STACK CFI 15c942 .cfa: $esp 12 +
STACK CFI 15c943 .cfa: $esp 16 +
STACK CFI 15c944 .cfa: $esp 20 +
STACK CFI 15c947 $ebp: .cfa -8 + ^ $ebx: .cfa -12 + ^ $edi: .cfa -16 + ^ $esi: .cfa -20 + ^ .cfa: $esp 32 +
STACK CFI INIT 15cb40 1100 .cfa: $esp 4 + .ra: .cfa -4 + ^
STACK CFI 15cb41 .cfa: $esp 8 +
STACK CFI 15cb42 .cfa: $esp 12 +
STACK CFI 15cb43 .cfa: $esp 16 +
STACK CFI 15cb44 .cfa: $esp 20 +
STACK CFI 15cb47 $ebp: .cfa -8 + ^ $ebx: .cfa -12 + ^ $edi: .cfa -16 + ^ $esi: .cfa -20 + ^ .cfa: $esp 144 +
STACK CFI INIT 15dfe0 7c0 .cfa: $esp 4 + .ra: .cfa -4 + ^
STACK CFI 15dfe1 .cfa: $esp 8 +
STACK CFI 15dfe2 .cfa: $esp 12 +
STACK CFI 15dfe3 .cfa: $esp 16 +
STACK CFI 15dfe4 .cfa: $esp 20 +
STACK CFI 15dfe7 $ebp: .cfa -8 + ^ $ebx: .cfa -12 + ^ $edi: .cfa -16 + ^ $esi: .cfa -20 + ^ .cfa: $esp 128 +
STACK CFI INIT 15e900 1e0 .cfa: $esp 4 + .ra: .cfa -4 + ^
STACK CFI 15e901 .cfa: $esp 8 +
STACK CFI 15e902 .cfa: $esp 12 +
STACK CFI 15e903 .cfa: $esp 16 +
STACK CFI 15e904 .cfa: $esp 20 +
STACK CFI 15e907 $ebp: .cfa -8 + ^ $ebx: .cfa -12 + ^ $edi: .cfa -16 + ^ $esi: .cfa -20 + ^ .cfa: $esp 48 +
STACK CFI INIT 15eae0 1e0 .cfa: $esp 4 + .ra: .cfa -4 + ^
STACK CFI 15eae1 .cfa: $esp 8 +
STACK CFI 15eae2 .cfa: $esp 12 +
STACK CFI 15eae3 .cfa: $esp 16 +
STACK CFI 15eae4 .cfa: $esp 20 +
STACK CFI 15eae7 $ebp: .cfa -8 + ^ $ebx: .cfa -12 + ^ $edi: .cfa -16 + ^ $esi: .cfa -20 + ^ .cfa: $esp 48 +
STACK CFI INIT 15ecc0 180 .cfa: $esp 4 + .ra: .cfa -4 + ^
STACK CFI 15ecc1 .cfa: $esp 8 +
STACK CFI 15ecc2 .cfa: $esp 12 +
STACK CFI 15ecc3 .cfa: $esp 16 +
STACK CFI 15ecc4 .cfa: $esp 20 +
STACK CFI 15ecc7 $ebp: .cfa -8 + ^ $ebx: .cfa -12 + ^ $edi: .cfa -16 + ^ $esi: .cfa -20 + ^ .cfa: $esp 32 +
STACK CFI INIT 15eec0 1020 .cfa: $esp 4 + .ra: .cfa -4 + ^
STACK CFI 15eec1 .cfa: $esp 8 +
STACK CFI 15eec2 .cfa: $esp 12 +
STACK CFI 15eec3 .cfa: $esp 16 +
STACK CFI 15eec4 .cfa: $esp 20 +
STACK CFI 15eec7 $ebp: .cfa -8 + ^ $ebx: .cfa -12 + ^ $edi: .cfa -16 + ^ $esi: .cfa -20 + ^ .cfa: $esp 144 +
STACK CFI INIT 160a40 700 .cfa: $esp 4 + .ra: .cfa -4 + ^
STACK CFI 160a41 .cfa: $esp 8 +
STACK CFI 160a42 .cfa: $esp 12 +
STACK CFI 160a43 .cfa: $esp 16 +
STACK CFI 160a44 .cfa: $esp 20 +
STACK CFI 160a4a $ebp: .cfa -8 + ^ $ebx: .cfa -12 + ^ $edi: .cfa -16 + ^ $esi: .cfa -20 + ^ .cfa: $esp 304 +
STACK CFI INIT 161160 25e0 .cfa: $esp 4 + .ra: .cfa -4 + ^
STACK CFI 161161 .cfa: $esp 8 +
STACK CFI 161162 .cfa: $esp 12 +
STACK CFI 161163 .cfa: $esp 16 +
STACK CFI 161164 .cfa: $esp 20 +
STACK CFI 16116a $ebp: .cfa -8 + ^ $ebx: .cfa -12 + ^ $edi: .cfa -16 + ^ $esi: .cfa -20 + ^ .cfa: $esp 720 +
STACK CFI INIT 163740 100 .cfa: $esp 4 + .ra: .cfa -4 + ^
STACK CFI 163741 .cfa: $esp 8 +
STACK CFI 163742 .cfa: $esp 12 +
STACK CFI 163743 $edi: .cfa -8 + ^ $esi: .cfa -12 + ^ .cfa: $esp 16 +
STACK CFI INIT 163840 540 .cfa: $esp 4 + .ra: .cfa -4 + ^
STACK CFI 163841 .cfa: $esp 8 +
STACK CFI 163842 .cfa: $esp 12 +
STACK CFI 163843 .cfa: $esp 16 +
STACK CFI 163844 .cfa: $esp 20 +
STACK CFI 16384a $ebp: .cfa -8 + ^ $ebx: .cfa -12 + ^ $edi: .cfa -16 + ^ $esi: .cfa -20 + ^ .cfa: $esp 192 +
STACK CFI INIT 163d80 140 .cfa: $esp 4 + .ra: .cfa -4 + ^
STACK CFI 163d81 .cfa: $esp 8 +
STACK CFI 163d82 .cfa: $esp 12 +
STACK CFI 163d83 .cfa: $esp 16 +
STACK CFI 163d84 .cfa: $esp 20 +
STACK CFI 163d87 $ebp: .cfa -8 + ^ $ebx: .cfa -12 + ^ $edi: .cfa -16 + ^ $esi: .cfa -20 + ^ .cfa: $esp 32 +
STACK CFI INIT 163ec0 140 .cfa: $esp 4 + .ra: .cfa -4 + ^
STACK CFI 163ec1 .cfa: $esp 8 +
STACK CFI 163ec2 .cfa: $esp 12 +
STACK CFI 163ec3 .cfa: $esp 16 +
STACK CFI 163ec4 .cfa: $esp 20 +
STACK CFI 163ec7 $ebp: .cfa -8 + ^ $ebx: .cfa -12 + ^ $edi: .cfa -16 + ^ $esi: .cfa -20 + ^ .cfa: $esp 32 +
STACK CFI INIT 164100 6c0 .cfa: $esp 4 + .ra: .cfa -4 + ^
STACK CFI 164101 .cfa: $esp 8 +
STACK CFI 164102 .cfa: $esp 12 +
STACK CFI 164103 .cfa: $esp 16 +
STACK CFI 164104 .cfa: $esp 20 +
STACK CFI 16410a $ebp: .cfa -8 + ^ $ebx: .cfa -12 + ^ $edi: .cfa -16 + ^ $esi: .cfa -20 + ^ .cfa: $esp 624 +
STACK CFI INIT 1647c0 2660 .cfa: $esp 4 + .ra: .cfa -4 + ^
STACK CFI 1647c1 .cfa: $esp 8 +
STACK CFI 1647c2 .cfa: $esp 12 +
STACK CFI 1647c3 .cfa: $esp 16 +
STACK CFI 1647c4 .cfa: $esp 20 +
STACK CFI 1647ca $ebp: .cfa -8 + ^ $ebx: .cfa -12 + ^ $edi: .cfa -16 + ^ $esi: .cfa -20 + ^ .cfa: $esp 736 +
STACK CFI INIT 166e20 560 .cfa: $esp 4 + .ra: .cfa -4 + ^
STACK CFI 166e21 .cfa: $esp 8 +
STACK CFI 166e22 .cfa: $esp 12 +
STACK CFI 166e23 .cfa: $esp 16 +
STACK CFI 166e24 .cfa: $esp 20 +
STACK CFI 166e2a $ebp: .cfa -8 + ^ $ebx: .cfa -12 + ^ $edi: .cfa -16 + ^ $esi: .cfa -20 + ^ .cfa: $esp 496 +
STACK CFI INIT 167380 140 .cfa: $esp 4 + .ra: .cfa -4 + ^
STACK CFI 167381 .cfa: $esp 8 +
STACK CFI 167382 .cfa: $esp 12 +
STACK CFI 167383 .cfa: $esp 16 +
STACK CFI 167384 .cfa: $esp 20 +
STACK CFI 167387 $ebp: .cfa -8 + ^ $ebx: .cfa -12 + ^ $edi: .cfa -16 + ^ $esi: .cfa -20 + ^ .cfa: $esp 32 +
STACK CFI INIT 1674c0 960 .cfa: $esp 4 + .ra: .cfa -4 + ^
STACK CFI 1674c1 .cfa: $esp 8 +
STACK CFI 1674c2 .cfa: $esp 12 +
STACK CFI 1674c3 .cfa: $esp 16 +
STACK CFI 1674c4 .cfa: $esp 20 +
STACK CFI 1674ca $ebp: .cfa -8 + ^ $ebx: .cfa -12 + ^ $edi: .cfa -16 + ^ $esi: .cfa -20 + ^ .cfa: $esp 528 +
STACK CFI INIT 167e20 820 .cfa: $esp 4 + .ra: .cfa -4 + ^
STACK CFI 167e21 .cfa: $esp 8 +
STACK CFI 167e22 .cfa: $esp 12 +
STACK CFI 167e23 .cfa: $esp 16 +
STACK CFI 167e24 .cfa: $esp 20 +
STACK CFI 167e2a $ebp: .cfa -8 + ^ $ebx: .cfa -12 + ^ $edi: .cfa -16 + ^ $esi: .cfa -20 + ^ .cfa: $esp 160 +
STACK CFI INIT 168c20 740 .cfa: $esp 4 + .ra: .cfa -4 + ^
STACK CFI 168c21 .cfa: $esp 8 +
STACK CFI 168c22 .cfa: $esp 12 +
STACK CFI 168c23 .cfa: $esp 16 +
STACK CFI 168c24 .cfa: $esp 20 +
STACK CFI 168c2a $ebp: .cfa -8 + ^ $ebx: .cfa -12 + ^ $edi: .cfa -16 + ^ $esi: .cfa -20 + ^ .cfa: $esp 256 +
STACK CFI INIT 169360 960 .cfa: $esp 4 + .ra: .cfa -4 + ^
STACK CFI 169361 .cfa: $esp 8 +
STACK CFI 169362 .cfa: $esp 12 +
STACK CFI 169363 .cfa: $esp 16 +
STACK CFI 169364 .cfa: $esp 20 +
STACK CFI 16936a $ebp: .cfa -8 + ^ $ebx: .cfa -12 + ^ $edi: .cfa -16 + ^ $esi: .cfa -20 + ^ .cfa: $esp 1120 +
STACK CFI INIT 169cc0 8a0 .cfa: $esp 4 + .ra: .cfa -4 + ^
STACK CFI 169cc1 .cfa: $esp 8 +
STACK CFI 169cc2 .cfa: $esp 12 +
STACK CFI 169cc3 .cfa: $esp 16 +
STACK CFI 169cc4 .cfa: $esp 20 +
STACK CFI 169cca $ebp: .cfa -8 + ^ $ebx: .cfa -12 + ^ $edi: .cfa -16 + ^ $esi: .cfa -20 + ^ .cfa: $esp 160 +
STACK CFI INIT 16ab00 740 .cfa: $esp 4 + .ra: .cfa -4 + ^
STACK CFI 16ab01 .cfa: $esp 8 +
STACK CFI 16ab02 .cfa: $esp 12 +
STACK CFI 16ab03 .cfa: $esp 16 +
STACK CFI 16ab04 .cfa: $esp 20 +
STACK CFI 16ab0a $ebp: .cfa -8 + ^ $ebx: .cfa -12 + ^ $edi: .cfa -16 + ^ $esi: .cfa -20 + ^ .cfa: $esp 576 +
STACK CFI INIT 16b340 100 .cfa: $esp 4 + .ra: .cfa -4 + ^
STACK CFI 16b341 .cfa: $esp 8 +
STACK CFI 16b342 .cfa: $esp 12 +
STACK CFI 16b345 $edi: .cfa -8 + ^ $esi: .cfa -12 + ^ .cfa: $esp 32 +
STACK CFI INIT 16b440 d00 .cfa: $esp 4 + .ra: .cfa -4 + ^
STACK CFI 16b441 .cfa: $esp 8 +
STACK CFI 16b442 .cfa: $esp 12 +
STACK CFI 16b443 .cfa: $esp 16 +
STACK CFI 16b446 $ebx: .cfa -8 + ^ $edi: .cfa -12 + ^ $esi: .cfa -16 + ^ .cfa: $esp 32 +
STACK CFI INIT 16c140 e0 .cfa: $esp 4 + .ra: .cfa -4 + ^
STACK CFI 16c141 .cfa: $esp 8 +
STACK CFI 16c142 .cfa: $esp 12 +
STACK CFI 16c143 $edi: .cfa -8 + ^ $esi: .cfa -12 + ^ .cfa: $esp 16 +
STACK CFI INIT 16c280 e0 .cfa: $esp 4 + .ra: .cfa -4 + ^
STACK CFI 16c281 .cfa: $esp 8 +
STACK CFI 16c284 $esi: .cfa -8 + ^ .cfa: $esp 16 +
STACK CFI INIT 16c360 360 .cfa: $esp 4 + .ra: .cfa -4 + ^
STACK CFI 16c361 .cfa: $esp 8 +
STACK CFI 16c362 .cfa: $esp 12 +
STACK CFI 16c363 .cfa: $esp 16 +
STACK CFI 16c364 .cfa: $esp 20 +
STACK CFI 16c367 $ebp: .cfa -8 + ^ $ebx: .cfa -12 + ^ $edi: .cfa -16 + ^ $esi: .cfa -20 + ^ .cfa: $esp 48 +
STACK CFI INIT 16c820 e0 .cfa: $esp 4 + .ra: .cfa -4 + ^
STACK CFI 16c821 .cfa: $esp 8 +
STACK CFI 16c824 $esi: .cfa -8 + ^ .cfa: $esp 16 +
STACK CFI INIT 16eac0 820 .cfa: $esp 4 + .ra: .cfa -4 + ^
STACK CFI 16eac1 .cfa: $esp 8 +
STACK CFI 16eac4 $esi: .cfa -8 + ^ .cfa: $esp 32 +
STACK CFI INIT 16f2e0 2e0 .cfa: $esp 4 + .ra: .cfa -4 + ^
STACK CFI 16f2e1 .cfa: $esp 8 +
STACK CFI 16f2e4 $esi: .cfa -8 + ^ .cfa: $esp 32 +
STACK CFI INIT 16f5c0 d20 .cfa: $esp 4 + .ra: .cfa -4 + ^
STACK CFI 16f5c1 .cfa: $esp 8 +
STACK CFI 16f5c4 $esi: .cfa -8 + ^ .cfa: $esp 32 +
STACK CFI INIT 1702e0 420 .cfa: $esp 4 + .ra: .cfa -4 + ^
STACK CFI 1702e1 .cfa: $esp 8 +
STACK CFI 1702e4 $esi: .cfa -8 + ^ .cfa: $esp 32 +
STACK CFI INIT 170700 220 .cfa: $esp 4 + .ra: .cfa -4 + ^
STACK CFI 170701 .cfa: $esp 8 +
STACK CFI 170704 $esi: .cfa -8 + ^ .cfa: $esp 32 +
STACK CFI INIT 170920 160 .cfa: $esp 4 + .ra: .cfa -4 + ^
STACK CFI 170921 .cfa: $esp 8 +
STACK CFI 170924 $esi: .cfa -8 + ^ .cfa: $esp 32 +
STACK CFI INIT 170b40 100 .cfa: $esp 4 + .ra: .cfa -4 + ^
STACK CFI 170b41 .cfa: $esp 8 +
STACK CFI 170b44 $esi: .cfa -8 + ^ .cfa: $esp 16 +
STACK CFI INIT 170d00 100 .cfa: $esp 4 + .ra: .cfa -4 + ^
STACK CFI 170d01 .cfa: $esp 8 +
STACK CFI 170d04 $esi: .cfa -8 + ^ .cfa: $esp 16 +
STACK CFI INIT 170e00 100 .cfa: $esp 4 + .ra: .cfa -4 + ^
STACK CFI 170e01 .cfa: $esp 8 +
STACK CFI 170e04 $esi: .cfa -8 + ^ .cfa: $esp 16 +
STACK CFI INIT 170f00 100 .cfa: $esp 4 + .ra: .cfa -4 + ^
STACK CFI 170f01 .cfa: $esp 8 +
STACK CFI 170f04 $esi: .cfa -8 + ^ .cfa: $esp 16 +
STACK CFI INIT 171000 100 .cfa: $esp 4 + .ra: .cfa -4 + ^
STACK CFI 171001 .cfa: $esp 8 +
STACK CFI 171004 $esi: .cfa -8 + ^ .cfa: $esp 16 +
STACK CFI INIT 171100 100 .cfa: $esp 4 + .ra: .cfa -4 + ^
STACK CFI 171101 .cfa: $esp 8 +
STACK CFI 171104 $esi: .cfa -8 + ^ .cfa: $esp 16 +
STACK CFI INIT 173240 1a0 .cfa: $esp 4 + .ra: .cfa -4 + ^
STACK CFI 173241 .cfa: $esp 8 +
STACK CFI 173242 .cfa: $esp 12 +
STACK CFI 173243 .cfa: $esp 16 +
STACK CFI 173244 .cfa: $esp 20 +
STACK CFI 173247 $ebp: .cfa -8 + ^ $ebx: .cfa -12 + ^ $edi: .cfa -16 + ^ $esi: .cfa -20 + ^ .cfa: $esp 48 +
STACK CFI INIT 1733e0 240 .cfa: $esp 4 + .ra: .cfa -4 + ^
STACK CFI 1733e1 .cfa: $esp 8 +
STACK CFI 1733e2 .cfa: $esp 12 +
STACK CFI 1733e3 .cfa: $esp 16 +
STACK CFI 1733e4 .cfa: $esp 20 +
STACK CFI 1733e7 $ebp: .cfa -8 + ^ $ebx: .cfa -12 + ^ $edi: .cfa -16 + ^ $esi: .cfa -20 + ^ .cfa: $esp 80 +
STACK CFI INIT 173620 1e0 .cfa: $esp 4 + .ra: .cfa -4 + ^
STACK CFI 173621 .cfa: $esp 8 +
STACK CFI 173622 .cfa: $esp 12 +
STACK CFI 173623 .cfa: $esp 16 +
STACK CFI 173624 .cfa: $esp 20 +
STACK CFI 173627 $ebp: .cfa -8 + ^ $ebx: .cfa -12 + ^ $edi: .cfa -16 + ^ $esi: .cfa -20 + ^ .cfa: $esp 80 +
STACK CFI INIT 1738c0 100 .cfa: $esp 4 + .ra: .cfa -4 + ^
STACK CFI 1738c1 .cfa: $esp 8 +
STACK CFI 1738c2 .cfa: $esp 12 +
STACK CFI 1738c3 .cfa: $esp 16 +
STACK CFI 1738c6 $ebx: .cfa -8 + ^ $edi: .cfa -12 + ^ $esi: .cfa -16 + ^ .cfa: $esp 32 +
STACK CFI INIT 173a20 140 .cfa: $esp 4 + .ra: .cfa -4 + ^
STACK CFI 173a21 .cfa: $esp 8 +
STACK CFI 173a22 .cfa: $esp 12 +
STACK CFI 173a23 .cfa: $esp 16 +
STACK CFI 173a26 $ebx: .cfa -8 + ^ $edi: .cfa -12 + ^ $esi: .cfa -16 + ^ .cfa: $esp 48 +
STACK CFI INIT 173b60 180 .cfa: $esp 4 + .ra: .cfa -4 + ^
STACK CFI 173b61 .cfa: $esp 8 +
STACK CFI 173b62 .cfa: $esp 12 +
STACK CFI 173b65 $edi: .cfa -8 + ^ $esi: .cfa -12 + ^ .cfa: $esp 32 +
STACK CFI INIT 173ce0 160 .cfa: $esp 4 + .ra: .cfa -4 + ^
STACK CFI 173ce1 .cfa: $esp 8 +
STACK CFI 173ce2 .cfa: $esp 12 +
STACK CFI 173ce5 $edi: .cfa -8 + ^ $esi: .cfa -12 + ^ .cfa: $esp 32 +
STACK CFI INIT 173e40 100 .cfa: $esp 4 + .ra: .cfa -4 + ^
STACK CFI 173e41 .cfa: $esp 8 +
STACK CFI 173e44 $esi: .cfa -8 + ^ .cfa: $esp 16 +
STACK CFI INIT 174200 240 .cfa: $esp 4 + .ra: .cfa -4 + ^
STACK CFI 174201 .cfa: $esp 8 +
STACK CFI 174202 .cfa: $esp 12 +
STACK CFI 174205 $edi: .cfa -8 + ^ $esi: .cfa -12 + ^ .cfa: $esp 32 +
STACK CFI INIT 19e140 160 .cfa: $esp 4 + .ra: .cfa -4 + ^
STACK CFI 19e141 .cfa: $esp 8 +
STACK CFI 19e144 $esi: .cfa -8 + ^ .cfa: $esp 16 +
STACK CFI INIT 174560 4a0 .cfa: $esp 4 + .ra: .cfa -4 + ^
STACK CFI 174561 .cfa: $esp 8 +
STACK CFI 174562 .cfa: $esp 12 +
STACK CFI 174563 .cfa: $esp 16 +
STACK CFI 174564 .cfa: $esp 20 +
STACK CFI 174567 $ebp: .cfa -8 + ^ $ebx: .cfa -12 + ^ $edi: .cfa -16 + ^ $esi: .cfa -20 + ^ .cfa: $esp 80 +
STACK CFI INIT 174a00 4c0 .cfa: $esp 4 + .ra: .cfa -4 + ^
STACK CFI 174a01 .cfa: $esp 8 +
STACK CFI 174a02 .cfa: $esp 12 +
STACK CFI 174a03 .cfa: $esp 16 +
STACK CFI 174a04 .cfa: $esp 20 +
STACK CFI 174a07 $ebp: .cfa -8 + ^ $ebx: .cfa -12 + ^ $edi: .cfa -16 + ^ $esi: .cfa -20 + ^ .cfa: $esp 96 +
STACK CFI INIT 174ec0 4c0 .cfa: $esp 4 + .ra: .cfa -4 + ^
STACK CFI 174ec1 .cfa: $esp 8 +
STACK CFI 174ec2 .cfa: $esp 12 +
STACK CFI 174ec3 .cfa: $esp 16 +
STACK CFI 174ec4 .cfa: $esp 20 +
STACK CFI 174ec7 $ebp: .cfa -8 + ^ $ebx: .cfa -12 + ^ $edi: .cfa -16 + ^ $esi: .cfa -20 + ^ .cfa: $esp 96 +
STACK CFI INIT 175380 4c0 .cfa: $esp 4 + .ra: .cfa -4 + ^
STACK CFI 175381 .cfa: $esp 8 +
STACK CFI 175382 .cfa: $esp 12 +
STACK CFI 175383 .cfa: $esp 16 +
STACK CFI 175384 .cfa: $esp 20 +
STACK CFI 175387 $ebp: .cfa -8 + ^ $ebx: .cfa -12 + ^ $edi: .cfa -16 + ^ $esi: .cfa -20 + ^ .cfa: $esp 96 +
STACK CFI INIT 175840 4a0 .cfa: $esp 4 + .ra: .cfa -4 + ^
STACK CFI 175841 .cfa: $esp 8 +
STACK CFI 175842 .cfa: $esp 12 +
STACK CFI 175843 .cfa: $esp 16 +
STACK CFI 175844 .cfa: $esp 20 +
STACK CFI 175847 $ebp: .cfa -8 + ^ $ebx: .cfa -12 + ^ $edi: .cfa -16 + ^ $esi: .cfa -20 + ^ .cfa: $esp 96 +
STACK CFI INIT 175ce0 4c0 .cfa: $esp 4 + .ra: .cfa -4 + ^
STACK CFI 175ce1 .cfa: $esp 8 +
STACK CFI 175ce2 .cfa: $esp 12 +
STACK CFI 175ce3 .cfa: $esp 16 +
STACK CFI 175ce4 .cfa: $esp 20 +
STACK CFI 175ce7 $ebp: .cfa -8 + ^ $ebx: .cfa -12 + ^ $edi: .cfa -16 + ^ $esi: .cfa -20 + ^ .cfa: $esp 96 +
STACK CFI INIT 1761a0 240 .cfa: $esp 4 + .ra: .cfa -4 + ^
STACK CFI 1761a1 .cfa: $esp 8 +
STACK CFI 1761a2 .cfa: $esp 12 +
STACK CFI 1761a3 .cfa: $esp 16 +
STACK CFI 1761a6 $ebx: .cfa -8 + ^ $edi: .cfa -12 + ^ $esi: .cfa -16 + ^ .cfa: $esp 48 +
STACK CFI INIT 1765c0 1a0 .cfa: $esp 4 + .ra: .cfa -4 + ^
STACK CFI 1765c1 .cfa: $esp 8 +
STACK CFI 1765c2 .cfa: $esp 12 +
STACK CFI 1765c3 .cfa: $esp 16 +
STACK CFI 1765c6 $ebx: .cfa -8 + ^ $edi: .cfa -12 + ^ $esi: .cfa -16 + ^ .cfa: $esp 32 +
STACK CFI INIT 176760 1a0 .cfa: $esp 4 + .ra: .cfa -4 + ^
STACK CFI 176761 .cfa: $esp 8 +
STACK CFI 176762 .cfa: $esp 12 +
STACK CFI 176763 .cfa: $esp 16 +
STACK CFI 176766 $ebx: .cfa -8 + ^ $edi: .cfa -12 + ^ $esi: .cfa -16 + ^ .cfa: $esp 32 +
STACK CFI INIT 176c60 240 .cfa: $esp 4 + .ra: .cfa -4 + ^
STACK CFI 176c61 .cfa: $esp 8 +
STACK CFI 176c62 .cfa: $esp 12 +
STACK CFI 176c63 .cfa: $esp 16 +
STACK CFI 176c64 .cfa: $esp 20 +
STACK CFI 176c67 $ebp: .cfa -8 + ^ $ebx: .cfa -12 + ^ $edi: .cfa -16 + ^ $esi: .cfa -20 + ^ .cfa: $esp 48 +
STACK CFI INIT 177460 80 .cfa: $esp 4 + .ra: .cfa -4 + ^
STACK CFI 177461 .cfa: $esp 8 +
STACK CFI 177462 .cfa: $esp 12 +
STACK CFI 177465 $edi: .cfa -8 + ^ $esi: .cfa -12 + ^ .cfa: $esp 32 +
STACK CFI INIT 1778c0 220 .cfa: $esp 4 + .ra: .cfa -4 + ^
STACK CFI 1778c1 .cfa: $esp 8 +
STACK CFI 1778c2 .cfa: $esp 12 +
STACK CFI 1778c3 .cfa: $esp 16 +
STACK CFI 1778c4 .cfa: $esp 20 +
STACK CFI 1778c7 $ebp: .cfa -8 + ^ $ebx: .cfa -12 + ^ $edi: .cfa -16 + ^ $esi: .cfa -20 + ^ .cfa: $esp 48 +
STACK CFI INIT 177fa0 a0 .cfa: $esp 4 + .ra: .cfa -4 + ^
STACK CFI 177fa3 .cfa: $esp 32 +
STACK CFI INIT 178480 e0 .cfa: $esp 4 + .ra: .cfa -4 + ^
STACK CFI 178481 .cfa: $esp 8 +
STACK CFI 178484 $esi: .cfa -8 + ^ .cfa: $esp 16 +
STACK CFI INIT 179c80 4e0 .cfa: $esp 4 + .ra: .cfa -4 + ^
STACK CFI 179c81 .cfa: $esp 8 +
STACK CFI 179c82 .cfa: $esp 12 +
STACK CFI 179c83 .cfa: $esp 16 +
STACK CFI 179c84 .cfa: $esp 20 +
STACK CFI 179c87 $ebp: .cfa -8 + ^ $ebx: .cfa -12 + ^ $edi: .cfa -16 + ^ $esi: .cfa -20 + ^ .cfa: $esp 80 +
STACK CFI INIT 1ab3a0 72 .cfa: $esp 4 + .ra: .cfa -4 + ^
STACK CFI 1ab3a1 .cfa: $esp 8 +
STACK CFI 1ab3a5 $ebp: .cfa -8 + ^ .cfa: $ebp 8 +
STACK CFI 1ab3a9 $edi: .cfa -12 + ^ $esi: .cfa -16 + ^
STACK CFI 1ab3c3 $ebx: .cfa -20 + ^
STACK CFI INIT 1ab420 10 .cfa: $esp 4 + .ra: .cfa -4 + ^
STACK CFI 1ab421 .cfa: $esp 8 +
STACK CFI 1ab423 $ebp: .cfa -8 + ^ .cfa: $ebp 8 +
STACK CFI INIT 1ab440 10 .cfa: $esp 4 + .ra: .cfa -4 + ^
STACK CFI 1ab441 .cfa: $esp 8 +
STACK CFI 1ab443 $ebp: .cfa -8 + ^ .cfa: $ebp 8 +
STACK CFI INIT 1ab460 1b .cfa: $esp 4 + .ra: .cfa -4 + ^
STACK CFI 1ab461 .cfa: $esp 8 +
STACK CFI 1ab463 $ebp: .cfa -8 + ^ .cfa: $ebp 8 +
STACK CFI INIT 1ab480 13 .cfa: $esp 4 + .ra: .cfa -4 + ^
STACK CFI 1ab481 .cfa: $esp 8 +
STACK CFI 1ab483 $ebp: .cfa -8 + ^ .cfa: $ebp 8 +
STACK CFI INIT 1ab4a0 10 .cfa: $esp 4 + .ra: .cfa -4 + ^
STACK CFI 1ab4a1 .cfa: $esp 8 +
STACK CFI 1ab4a3 $ebp: .cfa -8 + ^ .cfa: $ebp 8 +
STACK CFI INIT 1ab4c0 10 .cfa: $esp 4 + .ra: .cfa -4 + ^
STACK CFI 1ab4c1 .cfa: $esp 8 +
STACK CFI 1ab4c3 $ebp: .cfa -8 + ^ .cfa: $ebp 8 +
STACK CFI INIT 1ab4e0 10 .cfa: $esp 4 + .ra: .cfa -4 + ^
STACK CFI 1ab4e1 .cfa: $esp 8 +
STACK CFI 1ab4e3 $ebp: .cfa -8 + ^ .cfa: $ebp 8 +
STACK CFI INIT 1ab500 10 .cfa: $esp 4 + .ra: .cfa -4 + ^
STACK CFI 1ab501 .cfa: $esp 8 +
STACK CFI 1ab503 $ebp: .cfa -8 + ^ .cfa: $ebp 8 +
STACK CFI INIT 1ab520 a .cfa: $esp 4 + .ra: .cfa -4 + ^
STACK CFI 1ab521 .cfa: $esp 8 +
STACK CFI 1ab523 $ebp: .cfa -8 + ^ .cfa: $ebp 8 +
STACK CFI INIT 1ab540 29 .cfa: $esp 4 + .ra: .cfa -4 + ^
STACK CFI 1ab541 .cfa: $esp 8 +
STACK CFI 1ab543 $ebp: .cfa -8 + ^ .cfa: $ebp 8 +
STACK CFI INIT 1ab580 ad .cfa: $esp 4 + .ra: .cfa -4 + ^
STACK CFI 1ab581 .cfa: $esp 8 +
STACK CFI 1ab583 $ebp: .cfa -8 + ^ .cfa: $ebp 8 +
STACK CFI 1ab590 $ebx: .cfa -12 + ^
STACK CFI INIT 1ab640 c4 .cfa: $esp 4 + .ra: .cfa -4 + ^
STACK CFI 1ab641 .cfa: $esp 8 +
STACK CFI 1ab643 $ebp: .cfa -8 + ^ .cfa: $ebp 8 +
STACK CFI 1ab658 $ebx: .cfa -16 + ^ $esi: .cfa -12 + ^
STACK CFI INIT 1ab720 33 .cfa: $esp 4 + .ra: .cfa -4 + ^
STACK CFI 1ab721 .cfa: $esp 8 +
STACK CFI 1ab723 $ebp: .cfa -8 + ^ .cfa: $ebp 8 +
STACK CFI INIT 1ab760 d52 .cfa: $esp 4 + .ra: .cfa -4 + ^
STACK CFI 1ab761 .cfa: $esp 8 +
STACK CFI 1ab763 $ebp: .cfa -8 + ^ .cfa: $ebp 8 +
STACK CFI 1ab786 $ebx: .cfa -20 + ^ $edi: .cfa -12 + ^ $esi: .cfa -16 + ^
STACK CFI INIT 1ac4c0 8b .cfa: $esp 4 + .ra: .cfa -4 + ^
STACK CFI 1ac4c1 .cfa: $esp 8 +
STACK CFI 1ac4c3 $ebp: .cfa -8 + ^ .cfa: $ebp 8 +
STACK CFI INIT 1ac560 6b .cfa: $esp 4 + .ra: .cfa -4 + ^
STACK CFI 1ac561 .cfa: $esp 8 +
STACK CFI 1ac563 $ebp: .cfa -8 + ^ .cfa: $ebp 8 +
STACK CFI INIT 1ac5e0 24e .cfa: $esp 4 + .ra: .cfa -4 + ^
STACK CFI 1ac5e1 .cfa: $esp 8 +
STACK CFI 1ac5e3 $ebp: .cfa -8 + ^ .cfa: $ebp 8 +
STACK CFI 1ac5e6 $edi: .cfa -12 + ^
STACK CFI 1ac5ea $ebx: .cfa -20 + ^ $esi: .cfa -16 + ^
STACK CFI INIT 1ac840 d08 .cfa: $esp 4 + .ra: .cfa -4 + ^
STACK CFI 1ac841 .cfa: $esp 8 +
STACK CFI 1ac843 $ebp: .cfa -8 + ^ .cfa: $ebp 8 +
STACK CFI 1ac848 $ebx: .cfa -20 + ^ $edi: .cfa -12 + ^ $esi: .cfa -16 + ^
STACK CFI INIT 1ad560 59d .cfa: $esp 4 + .ra: .cfa -4 + ^
STACK CFI 1ad561 .cfa: $esp 8 +
STACK CFI 1ad568 $ebp: .cfa -8 + ^ .cfa: $ebp 8 +
STACK CFI 1ad586 $ebx: .cfa -20 + ^ $edi: .cfa -12 + ^ $esi: .cfa -16 + ^
STACK CFI INIT 1adb00 109 .cfa: $esp 4 + .ra: .cfa -4 + ^
STACK CFI 1adb01 .cfa: $esp 8 +
STACK CFI 1adb03 $ebp: .cfa -8 + ^ .cfa: $ebp 8 +
STACK CFI 1adb0c $esi: .cfa -12 + ^
STACK CFI 1adb11 $ebx: .cfa -16 + ^
STACK CFI INIT 1adc20 abb .cfa: $esp 4 + .ra: .cfa -4 + ^
STACK CFI 1adc21 .cfa: $esp 8 +
STACK CFI 1adc28 $ebp: .cfa -8 + ^ .cfa: $ebp 8 +
STACK CFI 1adc2b $edi: .cfa -12 + ^
STACK CFI 1adc56 $ebx: .cfa -20 + ^ $esi: .cfa -16 + ^
STACK CFI INIT 1ae6e0 1bb .cfa: $esp 4 + .ra: .cfa -4 + ^
STACK CFI 1ae6e1 .cfa: $esp 8 +
STACK CFI 1ae6e3 $ebp: .cfa -8 + ^ .cfa: $ebp 8 +
STACK CFI 1ae6ee $ebx: .cfa -20 + ^
STACK CFI 1ae6f5 $edi: .cfa -12 + ^
STACK CFI 1ae709 $esi: .cfa -16 + ^
STACK CFI INIT 1ae8a0 105 .cfa: $esp 4 + .ra: .cfa -4 + ^
STACK CFI 1ae8a1 .cfa: $esp 8 +
STACK CFI 1ae8a3 $ebp: .cfa -8 + ^ .cfa: $ebp 8 +
STACK CFI 1ae8b5 $ebx: .cfa -20 + ^ $edi: .cfa -12 + ^ $esi: .cfa -16 + ^
STACK CFI INIT 1ae9c0 20a .cfa: $esp 4 + .ra: .cfa -4 + ^
STACK CFI 1ae9c1 .cfa: $esp 8 +
STACK CFI 1ae9c3 $ebp: .cfa -8 + ^ .cfa: $ebp 8 +
STACK CFI 1ae9c7 $edi: .cfa -12 + ^ $esi: .cfa -16 + ^
STACK CFI 1ae9ca $ebx: .cfa -20 + ^
STACK CFI INIT 1aebe0 105 .cfa: $esp 4 + .ra: .cfa -4 + ^
STACK CFI 1aebe1 .cfa: $esp 8 +
STACK CFI 1aebe3 $ebp: .cfa -8 + ^ .cfa: $ebp 8 +
STACK CFI 1aebf5 $eax: .cfa -28 + ^
STACK CFI 1aebfb $edx: .cfa -24 + ^
STACK CFI 1aec03 $ebx: .cfa -20 + ^
STACK CFI 1aec0f $edi: .cfa -12 + ^ $esi: .cfa -16 + ^
STACK CFI INIT 1aed00 160 .cfa: $esp 4 + .ra: .cfa -4 + ^
STACK CFI 1aed01 .cfa: $esp 8 +
STACK CFI 1aed03 $ebp: .cfa -8 + ^ .cfa: $ebp 8 +
STACK CFI 1aed07 $edi: .cfa -12 + ^ $esi: .cfa -16 + ^
STACK CFI 1aed0a $ebx: .cfa -20 + ^
STACK CFI INIT 1aee60 165 .cfa: $esp 4 + .ra: .cfa -4 + ^
STACK CFI 1aee61 .cfa: $esp 8 +
STACK CFI 1aee63 $ebp: .cfa -8 + ^ .cfa: $ebp 8 +
STACK CFI 1aee75 $eax: .cfa -28 + ^
STACK CFI 1aee7b $edx: .cfa -24 + ^
STACK CFI 1aee83 $ebx: .cfa -20 + ^
STACK CFI 1aee8f $edi: .cfa -12 + ^ $esi: .cfa -16 + ^
STACK CFI INIT 1aefe0 191 .cfa: $esp 4 + .ra: .cfa -4 + ^
STACK CFI 1aefe1 .cfa: $esp 8 +
STACK CFI 1aefe8 $ebp: .cfa -8 + ^ .cfa: $ebp 8 +
STACK CFI 1af006 $edi: .cfa -12 + ^
STACK CFI 1af00e $ebx: .cfa -20 + ^
STACK CFI 1af017 $esi: .cfa -16 + ^
STACK CFI INIT 1af180 225 .cfa: $esp 4 + .ra: .cfa -4 + ^
STACK CFI 1af181 .cfa: $esp 8 +
STACK CFI 1af183 $ebp: .cfa -8 + ^ .cfa: $ebp 8 +
STACK CFI 1af197 $eax: .cfa -28 + ^ $ebx: .cfa -20 + ^ $edi: .cfa -12 + ^ $edx: .cfa -24 + ^ $esi: .cfa -16 + ^
STACK CFI INIT 1af3c0 125 .cfa: $esp 4 + .ra: .cfa -4 + ^
STACK CFI 1af3c1 .cfa: $esp 8 +
STACK CFI 1af3c3 $ebp: .cfa -8 + ^ .cfa: $ebp 8 +
STACK CFI 1af3cf $ebx: .cfa -20 + ^
STACK CFI 1af3de $eax: .cfa -28 + ^ $edi: .cfa -12 + ^ $edx: .cfa -24 + ^ $esi: .cfa -16 + ^
STACK CFI INIT 1af500 67 .cfa: $esp 4 + .ra: .cfa -4 + ^
STACK CFI 1af501 .cfa: $esp 8 +
STACK CFI 1af503 $ebp: .cfa -8 + ^ .cfa: $ebp 8 +
STACK CFI INIT 1af580 67 .cfa: $esp 4 + .ra: .cfa -4 + ^
STACK CFI 1af581 .cfa: $esp 8 +
STACK CFI 1af583 $ebp: .cfa -8 + ^ .cfa: $ebp 8 +
STACK CFI INIT 1af600 4a .cfa: $esp 4 + .ra: .cfa -4 + ^
STACK CFI 1af601 .cfa: $esp 8 +
STACK CFI 1af603 $ebp: .cfa -8 + ^ .cfa: $ebp 8 +
STACK CFI INIT 1af660 4a .cfa: $esp 4 + .ra: .cfa -4 + ^
STACK CFI 1af661 .cfa: $esp 8 +
STACK CFI 1af663 $ebp: .cfa -8 + ^ .cfa: $ebp 8 +
STACK CFI INIT 1af6c0 148 .cfa: $esp 4 + .ra: .cfa -4 + ^
STACK CFI 1af6c1 .cfa: $esp 8 +
STACK CFI 1af6c3 $ebp: .cfa -8 + ^ .cfa: $ebp 8 +
STACK CFI 1af6d6 $ebx: .cfa -20 + ^ $edi: .cfa -12 + ^ $esi: .cfa -16 + ^
STACK CFI INIT 1af820 10d .cfa: $esp 4 + .ra: .cfa -4 + ^
STACK CFI 1af821 .cfa: $esp 8 +
STACK CFI 1af823 $ebp: .cfa -8 + ^ .cfa: $ebp 8 +
STACK CFI 1af826 $edi: .cfa -12 + ^
STACK CFI 1af82e $ebx: .cfa -20 + ^ $esi: .cfa -16 + ^
STACK CFI INIT 1af940 eb .cfa: $esp 4 + .ra: .cfa -4 + ^
STACK CFI 1af941 .cfa: $esp 8 +
STACK CFI 1af943 $ebp: .cfa -8 + ^ .cfa: $ebp 8 +
STACK CFI INIT 1afa40 e0 .cfa: $esp 4 + .ra: .cfa -4 + ^
STACK CFI 1afa41 .cfa: $esp 8 +
STACK CFI 1afa43 $ebp: .cfa -8 + ^ .cfa: $ebp 8 +
STACK CFI INIT 1afb20 1f0 .cfa: $esp 4 + .ra: .cfa -4 + ^
STACK CFI 1afb21 .cfa: $esp 8 +
STACK CFI 1afb23 $ebp: .cfa -8 + ^ .cfa: $ebp 8 +
STACK CFI 1afb2d $ebx: .cfa -20 + ^
STACK CFI 1afb39 $edi: .cfa -12 + ^ $esi: .cfa -16 + ^
STACK CFI INIT 1afd20 22e .cfa: $esp 4 + .ra: .cfa -4 + ^
STACK CFI 1afd21 .cfa: $esp 8 +
STACK CFI 1afd23 $ebp: .cfa -8 + ^ .cfa: $ebp 8 +
STACK CFI 1afd28 $ebx: .cfa -20 + ^ $edi: .cfa -12 + ^ $esi: .cfa -16 + ^
STACK CFI INIT 1aff60 237 .cfa: $esp 4 + .ra: .cfa -4 + ^
STACK CFI 1aff61 .cfa: $esp 8 +
STACK CFI 1aff63 $ebp: .cfa -8 + ^ .cfa: $ebp 8 +
STACK CFI 1aff67 $edi: .cfa -12 + ^ $esi: .cfa -16 + ^
STACK CFI 1aff6a $ebx: .cfa -20 + ^
STACK CFI INIT 1b01a0 7f .cfa: $esp 4 + .ra: .cfa -4 + ^
STACK CFI 1b01a1 .cfa: $esp 8 +
STACK CFI 1b01a3 $ebp: .cfa -8 + ^ .cfa: $ebp 8 +
STACK CFI 1b01ab $ebx: .cfa -16 + ^ $esi: .cfa -12 + ^
STACK CFI INIT 1b0220 e0 .cfa: $esp 4 + .ra: .cfa -4 + ^
STACK CFI 1b0221 .cfa: $esp 8 +
STACK CFI 1b0223 $ebp: .cfa -8 + ^ .cfa: $ebp 8 +
STACK CFI 1b022c $ebx: .cfa -20 + ^ $edi: .cfa -12 + ^ $esi: .cfa -16 + ^
STACK CFI INIT 1b0300 1f1 .cfa: $esp 4 + .ra: .cfa -4 + ^
STACK CFI 1b0301 .cfa: $esp 8 +
STACK CFI 1b0303 $ebp: .cfa -8 + ^ .cfa: $ebp 8 +
STACK CFI 1b0306 $edi: .cfa -12 + ^
STACK CFI 1b030a $ebx: .cfa -20 + ^ $esi: .cfa -16 + ^
STACK CFI INIT 1b0500 65 .cfa: $esp 4 + .ra: .cfa -4 + ^
STACK CFI 1b0501 .cfa: $esp 8 +
STACK CFI 1b0503 $ebp: .cfa -8 + ^ .cfa: $ebp 8 +
STACK CFI INIT 1b0580 a7 .cfa: $esp 4 + .ra: .cfa -4 + ^
STACK CFI 1b0581 .cfa: $esp 8 +
STACK CFI 1b0583 $ebp: .cfa -8 + ^ .cfa: $ebp 8 +
STACK CFI 1b058a $ebx: .cfa -12 + ^
STACK CFI INIT 1b0640 1ed .cfa: $esp 4 + .ra: .cfa -4 + ^
STACK CFI 1b0641 .cfa: $esp 8 +
STACK CFI 1b0643 $ebp: .cfa -8 + ^ .cfa: $ebp 8 +
STACK CFI 1b0646 $edi: .cfa -12 + ^
STACK CFI 1b064a $ebx: .cfa -20 + ^ $esi: .cfa -16 + ^
STACK CFI INIT 1b0840 2b .cfa: $esp 4 + .ra: .cfa -4 + ^
STACK CFI 1b0841 .cfa: $esp 8 +
STACK CFI 1b0843 $ebp: .cfa -8 + ^ .cfa: $ebp 8 +
STACK CFI 1b085a $ebx: .cfa -12 + ^
STACK CFI INIT 1b0880 b60 .cfa: $esp 4 + .ra: .cfa -4 + ^
STACK CFI 1b0881 .cfa: $esp 8 +
STACK CFI 1b0883 $ebp: .cfa -8 + ^ .cfa: $ebp 8 +
STACK CFI 1b089c $ebx: .cfa -20 + ^ $edi: .cfa -12 + ^ $esi: .cfa -16 + ^
STACK CFI INIT 1b13e0 231 .cfa: $esp 4 + .ra: .cfa -4 + ^
STACK CFI 1b13e1 .cfa: $esp 8 +
STACK CFI 1b13e3 $ebp: .cfa -8 + ^ .cfa: $ebp 8 +
STACK CFI 1b13ef $ebx: .cfa -20 + ^ $edi: .cfa -12 + ^ $esi: .cfa -16 + ^
STACK CFI INIT 1b1620 1c0 .cfa: $esp 4 + .ra: .cfa -4 + ^
STACK CFI 1b1621 .cfa: $esp 8 +
STACK CFI 1b1623 $ebp: .cfa -8 + ^ .cfa: $ebp 8 +
STACK CFI 1b162e $ebx: .cfa -12 + ^
STACK CFI INIT 1b17e0 e .cfa: $esp 4 + .ra: .cfa -4 + ^
STACK CFI 1b17e1 .cfa: $esp 8 +
STACK CFI 1b17e3 $ebp: .cfa -8 + ^ .cfa: $ebp 8 +
STACK CFI INIT 1b1800 4b .cfa: $esp 4 + .ra: .cfa -4 + ^
STACK CFI 1b1801 .cfa: $esp 8 +
STACK CFI 1b1803 $ebp: .cfa -8 + ^ .cfa: $ebp 8 +
STACK CFI INIT c0 80 .cfa: $esp 4 + .ra: .cfa -4 + ^
STACK CFI c3 .cfa: $esp 16 +
STACK CFI INIT 140 2a0 .cfa: $esp 4 + .ra: .cfa -4 + ^
STACK CFI 141 .cfa: $esp 8 +
STACK CFI 142 .cfa: $esp 12 +
STACK CFI 143 .cfa: $esp 16 +
STACK CFI 144 .cfa: $esp 20 +
STACK CFI 147 $ebp: .cfa -8 + ^ $ebx: .cfa -12 + ^ $edi: .cfa -16 + ^ $esi: .cfa -20 + ^ .cfa: $esp 48 +
STACK CFI INIT 3e0 c0 .cfa: $esp 4 + .ra: .cfa -4 + ^
STACK CFI 3e1 .cfa: $esp 8 +
STACK CFI 3e2 .cfa: $esp 12 +
STACK CFI 3e5 $edi: .cfa -8 + ^ $esi: .cfa -12 + ^ .cfa: $esp 48 +
STACK CFI INIT 4a0 160 .cfa: $esp 4 + .ra: .cfa -4 + ^
STACK CFI 4a1 .cfa: $esp 8 +
STACK CFI 4a2 .cfa: $esp 12 +
STACK CFI 4a3 .cfa: $esp 16 +
STACK CFI 4a4 .cfa: $esp 20 +
STACK CFI 4a7 $ebp: .cfa -8 + ^ $ebx: .cfa -12 + ^ $edi: .cfa -16 + ^ $esi: .cfa -20 + ^ .cfa: $esp 144 +
STACK CFI INIT 600 160 .cfa: $esp 4 + .ra: .cfa -4 + ^
STACK CFI 601 .cfa: $esp 8 +
STACK CFI 602 .cfa: $esp 12 +
STACK CFI 603 .cfa: $esp 16 +
STACK CFI 604 .cfa: $esp 20 +
STACK CFI 607 $ebp: .cfa -8 + ^ $ebx: .cfa -12 + ^ $edi: .cfa -16 + ^ $esi: .cfa -20 + ^ .cfa: $esp 48 +
STACK CFI INIT 760 220 .cfa: $esp 4 + .ra: .cfa -4 + ^
STACK CFI 761 .cfa: $esp 8 +
STACK CFI 762 .cfa: $esp 12 +
STACK CFI 763 .cfa: $esp 16 +
STACK CFI 764 .cfa: $esp 20 +
STACK CFI 767 $ebp: .cfa -8 + ^ $ebx: .cfa -12 + ^ $edi: .cfa -16 + ^ $esi: .cfa -20 + ^ .cfa: $esp 48 +
STACK CFI INIT 980 c0 .cfa: $esp 4 + .ra: .cfa -4 + ^
STACK CFI 981 .cfa: $esp 8 +
STACK CFI 982 .cfa: $esp 12 +
STACK CFI 983 $ebx: .cfa -8 + ^ $edi: .cfa -12 + ^ $esi: .cfa -16 + ^ .cfa: $esp 16 +
STACK CFI INIT a40 40 .cfa: $esp 4 + .ra: .cfa -4 + ^
STACK CFI a41 .cfa: $esp 8 +
STACK CFI a44 $esi: .cfa -8 + ^ .cfa: $esp 16 +
STACK CFI INIT a80 e0 .cfa: $esp 4 + .ra: .cfa -4 + ^
STACK CFI a81 .cfa: $esp 8 +
STACK CFI a84 $esi: .cfa -8 + ^ .cfa: $esp 16 +
STACK CFI INIT b60 a0 .cfa: $esp 4 + .ra: .cfa -4 + ^
STACK CFI b61 .cfa: $esp 8 +
STACK CFI b64 $esi: .cfa -8 + ^ .cfa: $esp 16 +
STACK CFI INIT c00 520 .cfa: $esp 4 + .ra: .cfa -4 + ^
STACK CFI c01 .cfa: $esp 8 +
STACK CFI c02 .cfa: $esp 12 +
STACK CFI c03 .cfa: $esp 16 +
STACK CFI c04 .cfa: $esp 20 +
STACK CFI c0a $ebp: .cfa -8 + ^ $ebx: .cfa -12 + ^ $edi: .cfa -16 + ^ $esi: .cfa -20 + ^ .cfa: $esp 8352 +
STACK CFI INIT 1120 480 .cfa: $esp 4 + .ra: .cfa -4 + ^
STACK CFI 1121 .cfa: $esp 8 +
STACK CFI 1122 .cfa: $esp 12 +
STACK CFI 1123 .cfa: $esp 16 +
STACK CFI 1124 .cfa: $esp 20 +
STACK CFI 1127 $ebp: .cfa -8 + ^ $ebx: .cfa -12 + ^ $edi: .cfa -16 + ^ $esi: .cfa -20 + ^ .cfa: $esp 80 +
STACK CFI INIT 15a0 20 .cfa: $esp 4 + .ra: .cfa -4 + ^
STACK CFI INIT 15c0 160 .cfa: $esp 4 + .ra: .cfa -4 + ^
STACK CFI INIT 1720 20 .cfa: $esp 4 + .ra: .cfa -4 + ^
STACK CFI INIT 1740 20 .cfa: $esp 4 + .ra: .cfa -4 + ^
STACK CFI INIT 1760 20 .cfa: $esp 4 + .ra: .cfa -4 + ^
STACK CFI INIT 1780 20 .cfa: $esp 4 + .ra: .cfa -4 + ^
STACK CFI INIT 1b20 200 .cfa: $esp 4 + .ra: .cfa -4 + ^
STACK CFI 1b21 .cfa: $esp 8 +
STACK CFI 1b22 .cfa: $esp 12 +
STACK CFI 1b23 .cfa: $esp 16 +
STACK CFI 1b24 .cfa: $esp 20 +
STACK CFI 1b27 $ebp: .cfa -8 + ^ $ebx: .cfa -12 + ^ $edi: .cfa -16 + ^ $esi: .cfa -20 + ^ .cfa: $esp 32 +
STACK CFI INIT 1f20 80 .cfa: $esp 4 + .ra: .cfa -4 + ^
STACK CFI 1f21 .cfa: $esp 8 +
STACK CFI 1f24 $esi: .cfa -8 + ^ .cfa: $esp 16 +
STACK CFI INIT 1fa0 380 .cfa: $esp 4 + .ra: .cfa -4 + ^
STACK CFI 1fa1 .cfa: $esp 8 +
STACK CFI 1fa2 .cfa: $esp 12 +
STACK CFI 1fa3 .cfa: $esp 16 +
STACK CFI 1fa4 .cfa: $esp 20 +
STACK CFI 1fa7 $ebp: .cfa -8 + ^ $ebx: .cfa -12 + ^ $edi: .cfa -16 + ^ $esi: .cfa -20 + ^ .cfa: $esp 48 +
STACK CFI INIT 2320 40 .cfa: $esp 4 + .ra: .cfa -4 + ^
STACK CFI 233b .cfa: $esp 16 +
STACK CFI INIT 2360 340 .cfa: $esp 4 + .ra: .cfa -4 + ^
STACK CFI 2361 .cfa: $esp 8 +
STACK CFI 2362 .cfa: $esp 12 +
STACK CFI 2363 .cfa: $esp 16 +
STACK CFI 2364 .cfa: $esp 20 +
STACK CFI 2367 $ebp: .cfa -8 + ^ $ebx: .cfa -12 + ^ $edi: .cfa -16 + ^ $esi: .cfa -20 + ^ .cfa: $esp 32 +
STACK CFI INIT 26a0 140 .cfa: $esp 4 + .ra: .cfa -4 + ^
STACK CFI 26a1 .cfa: $esp 8 +
STACK CFI 26a2 $edi: .cfa -8 + ^ $esi: .cfa -12 + ^ .cfa: $esp 12 +
STACK CFI INIT 29e0 20 .cfa: $esp 4 + .ra: .cfa -4 + ^
STACK CFI INIT 2a00 20 .cfa: $esp 4 + .ra: .cfa -4 + ^
STACK CFI INIT 2a20 60 .cfa: $esp 4 + .ra: .cfa -4 + ^
STACK CFI 2a23 .cfa: $esp 16 +
STACK CFI INIT 2a80 20 .cfa: $esp 4 + .ra: .cfa -4 + ^
STACK CFI INIT 2aa0 20 .cfa: $esp 4 + .ra: .cfa -4 + ^
STACK CFI INIT 2ac0 20 .cfa: $esp 4 + .ra: .cfa -4 + ^
STACK CFI INIT 2ae0 60 .cfa: $esp 4 + .ra: .cfa -4 + ^
STACK CFI 2ae3 .cfa: $esp 16 +
STACK CFI INIT 2b40 20 .cfa: $esp 4 + .ra: .cfa -4 + ^
STACK CFI INIT 2b60 20 .cfa: $esp 4 + .ra: .cfa -4 + ^
STACK CFI INIT 2fc0 1e0 .cfa: $esp 4 + .ra: .cfa -4 + ^
STACK CFI 2fc1 .cfa: $esp 8 +
STACK CFI 2fc2 .cfa: $esp 12 +
STACK CFI 2fc3 .cfa: $esp 16 +
STACK CFI 2fc4 .cfa: $esp 20 +
STACK CFI 2fc7 $ebp: .cfa -8 + ^ $ebx: .cfa -12 + ^ $edi: .cfa -16 + ^ $esi: .cfa -20 + ^ .cfa: $esp 48 +
STACK CFI INIT 31a0 260 .cfa: $esp 4 + .ra: .cfa -4 + ^
STACK CFI 31a1 .cfa: $esp 8 +
STACK CFI 31a2 .cfa: $esp 12 +
STACK CFI 31a5 $edi: .cfa -8 + ^ $esi: .cfa -12 + ^ .cfa: $esp 32 +
STACK CFI INIT 5100 2e0 .cfa: $esp 4 + .ra: .cfa -4 + ^
STACK CFI 5101 .cfa: $esp 8 +
STACK CFI 5102 .cfa: $esp 12 +
STACK CFI 5103 .cfa: $esp 16 +
STACK CFI 5104 .cfa: $esp 20 +
STACK CFI 5107 $ebp: .cfa -8 + ^ $ebx: .cfa -12 + ^ $edi: .cfa -16 + ^ $esi: .cfa -20 + ^ .cfa: $esp 64 +
STACK CFI INIT 5b60 140 .cfa: $esp 4 + .ra: .cfa -4 + ^
STACK CFI 5b61 .cfa: $esp 8 +
STACK CFI 5b62 .cfa: $esp 12 +
STACK CFI 5b63 .cfa: $esp 16 +
STACK CFI 5b64 .cfa: $esp 20 +
STACK CFI 5b67 $ebp: .cfa -8 + ^ $ebx: .cfa -12 + ^ $edi: .cfa -16 + ^ $esi: .cfa -20 + ^ .cfa: $esp 32 +
STACK CFI INIT 5ca0 200 .cfa: $esp 4 + .ra: .cfa -4 + ^
STACK CFI 5ca1 .cfa: $esp 8 +
STACK CFI 5ca2 .cfa: $esp 12 +
STACK CFI 5ca3 .cfa: $esp 16 +
STACK CFI 5ca4 .cfa: $esp 20 +
STACK CFI 5ca7 $ebp: .cfa -8 + ^ $ebx: .cfa -12 + ^ $edi: .cfa -16 + ^ $esi: .cfa -20 + ^ .cfa: $esp 32 +
STACK CFI INIT 5ea0 1e0 .cfa: $esp 4 + .ra: .cfa -4 + ^
STACK CFI 5ea1 .cfa: $esp 8 +
STACK CFI 5ea2 .cfa: $esp 12 +
STACK CFI 5ea3 .cfa: $esp 16 +
STACK CFI 5ea4 .cfa: $esp 20 +
STACK CFI 5ea7 $ebp: .cfa -8 + ^ $ebx: .cfa -12 + ^ $edi: .cfa -16 + ^ $esi: .cfa -20 + ^ .cfa: $esp 48 +
STACK CFI INIT 63e0 120 .cfa: $esp 4 + .ra: .cfa -4 + ^
STACK CFI 63e1 .cfa: $esp 8 +
STACK CFI 63e2 .cfa: $esp 12 +
STACK CFI 63e3 .cfa: $esp 16 +
STACK CFI 63e4 .cfa: $esp 20 +
STACK CFI 63e7 $ebp: .cfa -8 + ^ $ebx: .cfa -12 + ^ $edi: .cfa -16 + ^ $esi: .cfa -20 + ^ .cfa: $esp 32 +
STACK CFI INIT 6500 2e0 .cfa: $esp 4 + .ra: .cfa -4 + ^
STACK CFI 6501 .cfa: $esp 8 +
STACK CFI 6502 .cfa: $esp 12 +
STACK CFI 6503 .cfa: $esp 16 +
STACK CFI 6504 .cfa: $esp 20 +
STACK CFI 6507 $ebp: .cfa -8 + ^ $ebx: .cfa -12 + ^ $edi: .cfa -16 + ^ $esi: .cfa -20 + ^ .cfa: $esp 64 +
STACK CFI INIT 67e0 1e0 .cfa: $esp 4 + .ra: .cfa -4 + ^
STACK CFI 67e1 .cfa: $esp 8 +
STACK CFI 67e2 .cfa: $esp 12 +
STACK CFI 67e3 .cfa: $esp 16 +
STACK CFI 67e4 .cfa: $esp 20 +
STACK CFI 67e7 $ebp: .cfa -8 + ^ $ebx: .cfa -12 + ^ $edi: .cfa -16 + ^ $esi: .cfa -20 + ^ .cfa: $esp 48 +
STACK CFI INIT 69c0 80 .cfa: $esp 4 + .ra: .cfa -4 + ^
STACK CFI 69c1 .cfa: $esp 8 +
STACK CFI 69c4 $esi: .cfa -8 + ^ .cfa: $esp 16 +
STACK CFI INIT 6a40 240 .cfa: $esp 4 + .ra: .cfa -4 + ^
STACK CFI 6a41 .cfa: $esp 8 +
STACK CFI 6a42 .cfa: $esp 12 +
STACK CFI 6a43 .cfa: $esp 16 +
STACK CFI 6a44 .cfa: $esp 20 +
STACK CFI 6a47 $ebp: .cfa -8 + ^ $ebx: .cfa -12 + ^ $edi: .cfa -16 + ^ $esi: .cfa -20 + ^ .cfa: $esp 96 +
STACK CFI INIT 6c80 100 .cfa: $esp 4 + .ra: .cfa -4 + ^
STACK CFI 6c81 .cfa: $esp 8 +
STACK CFI 6c82 .cfa: $esp 12 +
STACK CFI 6c83 $edi: .cfa -8 + ^ $esi: .cfa -12 + ^ .cfa: $esp 16 +
STACK CFI INIT 6d80 a0 .cfa: $esp 4 + .ra: .cfa -4 + ^
STACK CFI 6d81 .cfa: $esp 8 +
STACK CFI 6d84 $esi: .cfa -8 + ^ .cfa: $esp 16 +
STACK CFI INIT 77a0 a0 .cfa: $esp 4 + .ra: .cfa -4 + ^
STACK CFI 77a3 .cfa: $esp 64 +
STACK CFI INIT 7840 a0 .cfa: $esp 4 + .ra: .cfa -4 + ^
STACK CFI 7841 .cfa: $esp 8 +
STACK CFI 7844 $esi: .cfa -8 + ^ .cfa: $esp 64 +
STACK CFI INIT 78e0 100 .cfa: $esp 4 + .ra: .cfa -4 + ^
STACK CFI 78e1 .cfa: $esp 8 +
STACK CFI 78e2 .cfa: $esp 12 +
STACK CFI 78e5 $edi: .cfa -8 + ^ $esi: .cfa -12 + ^ .cfa: $esp 80 +
STACK CFI INIT 79e0 1c0 .cfa: $esp 4 + .ra: .cfa -4 + ^
STACK CFI 79e1 .cfa: $esp 8 +
STACK CFI 79e2 .cfa: $esp 12 +
STACK CFI 79e3 .cfa: $esp 16 +
STACK CFI 79e4 .cfa: $esp 20 +
STACK CFI 79e7 $ebp: .cfa -8 + ^ $ebx: .cfa -12 + ^ $edi: .cfa -16 + ^ $esi: .cfa -20 + ^ .cfa: $esp 112 +
STACK CFI INIT 7ba0 280 .cfa: $esp 4 + .ra: .cfa -4 + ^
STACK CFI 7ba1 .cfa: $esp 8 +
STACK CFI 7ba2 .cfa: $esp 12 +
STACK CFI 7ba3 .cfa: $esp 16 +
STACK CFI 7ba4 .cfa: $esp 20 +
STACK CFI 7ba7 $ebp: .cfa -8 + ^ $ebx: .cfa -12 + ^ $edi: .cfa -16 + ^ $esi: .cfa -20 + ^ .cfa: $esp 80 +
STACK CFI INIT 7e20 340 .cfa: $esp 4 + .ra: .cfa -4 + ^
STACK CFI 7e21 .cfa: $esp 8 +
STACK CFI 7e22 .cfa: $esp 12 +
STACK CFI 7e23 .cfa: $esp 16 +
STACK CFI 7e24 .cfa: $esp 20 +
STACK CFI 7e2a $ebp: .cfa -8 + ^ $ebx: .cfa -12 + ^ $edi: .cfa -16 + ^ $esi: .cfa -20 + ^ .cfa: $esp 4240 +
STACK CFI INIT 8160 360 .cfa: $esp 4 + .ra: .cfa -4 + ^
STACK CFI 8161 .cfa: $esp 8 +
STACK CFI 8162 .cfa: $esp 12 +
STACK CFI 8163 .cfa: $esp 16 +
STACK CFI 8164 .cfa: $esp 20 +
STACK CFI 8167 $ebp: .cfa -8 + ^ $ebx: .cfa -12 + ^ $edi: .cfa -16 + ^ $esi: .cfa -20 + ^ .cfa: $esp 64 +
STACK CFI INIT 84c0 140 .cfa: $esp 4 + .ra: .cfa -4 + ^
STACK CFI 84c1 .cfa: $esp 8 +
STACK CFI 84c2 .cfa: $esp 12 +
STACK CFI 84c3 $edi: .cfa -8 + ^ $esi: .cfa -12 + ^ .cfa: $esp 16 +
STACK CFI INIT 8600 3e0 .cfa: $esp 4 + .ra: .cfa -4 + ^
STACK CFI 8601 .cfa: $esp 8 +
STACK CFI 8602 .cfa: $esp 12 +
STACK CFI 8603 .cfa: $esp 16 +
STACK CFI 8604 .cfa: $esp 20 +
STACK CFI 8607 $ebp: .cfa -8 + ^ $ebx: .cfa -12 + ^ $edi: .cfa -16 + ^ $esi: .cfa -20 + ^ .cfa: $esp 32 +
STACK CFI INIT c5e0 a0 .cfa: $esp 4 + .ra: .cfa -4 + ^
STACK CFI c5e1 .cfa: $esp 8 +
STACK CFI c5e2 .cfa: $esp 12 +
STACK CFI c5e3 $edi: .cfa -8 + ^ $esi: .cfa -12 + ^ .cfa: $esp 16 +
STACK CFI INIT d420 c0 .cfa: $esp 4 + .ra: .cfa -4 + ^
STACK CFI d421 .cfa: $esp 8 +
STACK CFI d424 $esi: .cfa -8 + ^ .cfa: $esp 16 +
STACK CFI INIT d4e0 e0 .cfa: $esp 4 + .ra: .cfa -4 + ^
STACK CFI d4e1 .cfa: $esp 8 +
STACK CFI d4e2 .cfa: $esp 12 +
STACK CFI d4e3 .cfa: $esp 16 +
STACK CFI d4e6 $ebx: .cfa -8 + ^ $edi: .cfa -12 + ^ $esi: .cfa -16 + ^ .cfa: $esp 32 +
STACK CFI INIT d5c0 c0 .cfa: $esp 4 + .ra: .cfa -4 + ^
STACK CFI d5c1 .cfa: $esp 8 +
STACK CFI d5c4 $esi: .cfa -8 + ^ .cfa: $esp 16 +
STACK CFI INIT d680 100 .cfa: $esp 4 + .ra: .cfa -4 + ^
STACK CFI d681 .cfa: $esp 8 +
STACK CFI d682 .cfa: $esp 12 +
STACK CFI d683 .cfa: $esp 16 +
STACK CFI d686 $ebx: .cfa -8 + ^ $edi: .cfa -12 + ^ $esi: .cfa -16 + ^ .cfa: $esp 32 +
STACK CFI INIT d780 a0 .cfa: $esp 4 + .ra: .cfa -4 + ^
STACK CFI d781 .cfa: $esp 8 +
STACK CFI d784 $esi: .cfa -8 + ^ .cfa: $esp 16 +
STACK CFI INIT d820 a0 .cfa: $esp 4 + .ra: .cfa -4 + ^
STACK CFI d821 .cfa: $esp 8 +
STACK CFI d824 $esi: .cfa -8 + ^ .cfa: $esp 16 +
STACK CFI INIT d8c0 160 .cfa: $esp 4 + .ra: .cfa -4 + ^
STACK CFI d8c1 .cfa: $esp 8 +
STACK CFI d8c2 .cfa: $esp 12 +
STACK CFI d8c3 .cfa: $esp 16 +
STACK CFI d8c4 .cfa: $esp 20 +
STACK CFI d8c7 $ebp: .cfa -8 + ^ $ebx: .cfa -12 + ^ $edi: .cfa -16 + ^ $esi: .cfa -20 + ^ .cfa: $esp 28 +
STACK CFI INIT da20 80 .cfa: $esp 4 + .ra: .cfa -4 + ^
STACK CFI da21 .cfa: $esp 8 +
STACK CFI da22 .cfa: $esp 12 +
STACK CFI da23 .cfa: $esp 16 +
STACK CFI da26 $ebx: .cfa -8 + ^ $edi: .cfa -12 + ^ $esi: .cfa -16 + ^ .cfa: $esp 48 +
STACK CFI INIT daa0 40 .cfa: $esp 4 + .ra: .cfa -4 + ^
STACK CFI daa1 .cfa: $esp 8 +
STACK CFI daa2 $edi: .cfa -8 + ^ $esi: .cfa -12 + ^ .cfa: $esp 12 +
STACK CFI INIT dae0 80 .cfa: $esp 4 + .ra: .cfa -4 + ^
STACK CFI dae1 .cfa: $esp 8 +
STACK CFI dae2 .cfa: $esp 12 +
STACK CFI dae3 .cfa: $esp 16 +
STACK CFI dae4 .cfa: $esp 20 +
STACK CFI dae5 $ebp: .cfa -8 + ^ $ebx: .cfa -12 + ^ $edi: .cfa -16 + ^ $esi: .cfa -20 + ^ .cfa: $esp 24 +
STACK CFI INIT dd40 180 .cfa: $esp 4 + .ra: .cfa -4 + ^
STACK CFI dd41 .cfa: $esp 8 +
STACK CFI dd42 .cfa: $esp 12 +
STACK CFI dd43 .cfa: $esp 16 +
STACK CFI dd44 .cfa: $esp 20 +
STACK CFI dd47 $ebp: .cfa -8 + ^ $ebx: .cfa -12 + ^ $edi: .cfa -16 + ^ $esi: .cfa -20 + ^ .cfa: $esp 32 +
STACK CFI INIT dec0 180 .cfa: $esp 4 + .ra: .cfa -4 + ^
STACK CFI dec1 .cfa: $esp 8 +
STACK CFI dec2 .cfa: $esp 12 +
STACK CFI dec3 .cfa: $esp 16 +
STACK CFI dec6 $ebx: .cfa -8 + ^ $edi: .cfa -12 + ^ $esi: .cfa -16 + ^ .cfa: $esp 48 +
STACK CFI INIT e040 80 .cfa: $esp 4 + .ra: .cfa -4 + ^
STACK CFI e041 .cfa: $esp 8 +
STACK CFI e044 $esi: .cfa -8 + ^ .cfa: $esp 32 +
STACK CFI INIT 10340 100 .cfa: $esp 4 + .ra: .cfa -4 + ^
STACK CFI 10341 .cfa: $esp 8 +
STACK CFI 10342 .cfa: $esp 12 +
STACK CFI 10343 .cfa: $esp 16 +
STACK CFI 10346 $ebx: .cfa -8 + ^ $edi: .cfa -12 + ^ $esi: .cfa -16 + ^ .cfa: $esp 32 +
STACK CFI INIT 10440 220 .cfa: $esp 4 + .ra: .cfa -4 + ^
STACK CFI 10441 .cfa: $esp 8 +
STACK CFI 10442 .cfa: $esp 12 +
STACK CFI 10443 .cfa: $esp 16 +
STACK CFI 10444 .cfa: $esp 20 +
STACK CFI 1044a $ebp: .cfa -8 + ^ $ebx: .cfa -12 + ^ $edi: .cfa -16 + ^ $esi: .cfa -20 + ^ .cfa: $esp 1088 +
STACK CFI INIT 10660 2a0 .cfa: $esp 4 + .ra: .cfa -4 + ^
STACK CFI 10661 .cfa: $esp 8 +
STACK CFI 10662 .cfa: $esp 12 +
STACK CFI 10663 .cfa: $esp 16 +
STACK CFI 10664 .cfa: $esp 20 +
STACK CFI 10667 $ebp: .cfa -8 + ^ $ebx: .cfa -12 + ^ $edi: .cfa -16 + ^ $esi: .cfa -20 + ^ .cfa: $esp 48 +
STACK CFI INIT 10900 3c0 .cfa: $esp 4 + .ra: .cfa -4 + ^
STACK CFI 10901 .cfa: $esp 8 +
STACK CFI 10902 .cfa: $esp 12 +
STACK CFI 10903 .cfa: $esp 16 +
STACK CFI 10904 .cfa: $esp 20 +
STACK CFI 1090a $ebp: .cfa -8 + ^ $ebx: .cfa -12 + ^ $edi: .cfa -16 + ^ $esi: .cfa -20 + ^ .cfa: $esp 304 +
STACK CFI INIT 10cc0 f20 .cfa: $esp 4 + .ra: .cfa -4 + ^
STACK CFI 10cc1 .cfa: $esp 8 +
STACK CFI 10cc2 .cfa: $esp 12 +
STACK CFI 10cc3 .cfa: $esp 16 +
STACK CFI 10cc4 .cfa: $esp 20 +
STACK CFI 10cc7 $ebp: .cfa -8 + ^ $ebx: .cfa -12 + ^ $edi: .cfa -16 + ^ $esi: .cfa -20 + ^ .cfa: $esp 128 +
STACK CFI INIT 11be0 140 .cfa: $esp 4 + .ra: .cfa -4 + ^
STACK CFI 11be1 .cfa: $esp 8 +
STACK CFI 11be2 .cfa: $esp 12 +
STACK CFI 11be3 .cfa: $esp 16 +
STACK CFI 11be9 $ebx: .cfa -8 + ^ $edi: .cfa -12 + ^ $esi: .cfa -16 + ^ .cfa: $esp 2112 +
STACK CFI INIT 11d20 200 .cfa: $esp 4 + .ra: .cfa -4 + ^
STACK CFI 11d21 .cfa: $esp 8 +
STACK CFI 11d22 .cfa: $esp 12 +
STACK CFI 11d25 $edi: .cfa -8 + ^ $esi: .cfa -12 + ^ .cfa: $esp 80 +
STACK CFI INIT 11f20 920 .cfa: $esp 4 + .ra: .cfa -4 + ^
STACK CFI 11f21 .cfa: $esp 8 +
STACK CFI 11f22 .cfa: $esp 12 +
STACK CFI 11f23 .cfa: $esp 16 +
STACK CFI 11f24 .cfa: $esp 20 +
STACK CFI 11f2a $ebp: .cfa -8 + ^ $ebx: .cfa -12 + ^ $edi: .cfa -16 + ^ $esi: .cfa -20 + ^ .cfa: $esp 464 +
STACK CFI INIT 12840 80 .cfa: $esp 4 + .ra: .cfa -4 + ^
STACK CFI 12841 .cfa: $esp 8 +
STACK CFI 12844 $esi: .cfa -8 + ^ .cfa: $esp 32 +
STACK CFI INIT 128c0 14c0 .cfa: $esp 4 + .ra: .cfa -4 + ^
STACK CFI 128c1 .cfa: $esp 8 +
STACK CFI 128c2 .cfa: $esp 12 +
STACK CFI 128c3 .cfa: $esp 16 +
STACK CFI 128c4 .cfa: $esp 20 +
STACK CFI 128ca $ebp: .cfa -8 + ^ $ebx: .cfa -12 + ^ $edi: .cfa -16 + ^ $esi: .cfa -20 + ^ .cfa: $esp 304 +
STACK CFI INIT 13d80 160 .cfa: $esp 4 + .ra: .cfa -4 + ^
STACK CFI 13d81 .cfa: $esp 8 +
STACK CFI 13d82 .cfa: $esp 12 +
STACK CFI 13d83 $edi: .cfa -8 + ^ $esi: .cfa -12 + ^ .cfa: $esp 16 +
STACK CFI INIT 13ee0 5c0 .cfa: $esp 4 + .ra: .cfa -4 + ^
STACK CFI 13ee1 .cfa: $esp 8 +
STACK CFI 13ee2 .cfa: $esp 12 +
STACK CFI 13ee3 .cfa: $esp 16 +
STACK CFI 13ee4 .cfa: $esp 20 +
STACK CFI 13eea $ebp: .cfa -8 + ^ $ebx: .cfa -12 + ^ $edi: .cfa -16 + ^ $esi: .cfa -20 + ^ .cfa: $esp 256 +
STACK CFI INIT 144a0 840 .cfa: $esp 4 + .ra: .cfa -4 + ^
STACK CFI 144a1 .cfa: $esp 8 +
STACK CFI 144a2 .cfa: $esp 12 +
STACK CFI 144a3 .cfa: $esp 16 +
STACK CFI 144a4 .cfa: $esp 20 +
STACK CFI 144aa $ebp: .cfa -8 + ^ $ebx: .cfa -12 + ^ $edi: .cfa -16 + ^ $esi: .cfa -20 + ^ .cfa: $esp 320 +
STACK CFI INIT 14ce0 680 .cfa: $esp 4 + .ra: .cfa -4 + ^
STACK CFI 14ce1 .cfa: $esp 8 +
STACK CFI 14ce2 .cfa: $esp 12 +
STACK CFI 14ce3 .cfa: $esp 16 +
STACK CFI 14ce4 .cfa: $esp 20 +
STACK CFI 14cea $ebp: .cfa -8 + ^ $ebx: .cfa -12 + ^ $edi: .cfa -16 + ^ $esi: .cfa -20 + ^ .cfa: $esp 1312 +
STACK CFI INIT 15360 f00 .cfa: $esp 4 + .ra: .cfa -4 + ^
STACK CFI 15361 .cfa: $esp 8 +
STACK CFI 15362 .cfa: $esp 12 +
STACK CFI 15363 .cfa: $esp 16 +
STACK CFI 15364 .cfa: $esp 20 +
STACK CFI 1536a $ebp: .cfa -8 + ^ $ebx: .cfa -12 + ^ $edi: .cfa -16 + ^ $esi: .cfa -20 + ^ .cfa: $esp 1552 +
STACK CFI INIT 16260 440 .cfa: $esp 4 + .ra: .cfa -4 + ^
STACK CFI 16261 .cfa: $esp 8 +
STACK CFI 16262 .cfa: $esp 12 +
STACK CFI 16263 .cfa: $esp 16 +
STACK CFI 16264 .cfa: $esp 20 +
STACK CFI 1626a $ebp: .cfa -8 + ^ $ebx: .cfa -12 + ^ $edi: .cfa -16 + ^ $esi: .cfa -20 + ^ .cfa: $esp 336 +
STACK CFI INIT 166a0 6e0 .cfa: $esp 4 + .ra: .cfa -4 + ^
STACK CFI 166a1 .cfa: $esp 8 +
STACK CFI 166a2 .cfa: $esp 12 +
STACK CFI 166a3 .cfa: $esp 16 +
STACK CFI 166a4 .cfa: $esp 20 +
STACK CFI 166aa $ebp: .cfa -8 + ^ $ebx: .cfa -12 + ^ $edi: .cfa -16 + ^ $esi: .cfa -20 + ^ .cfa: $esp 224 +
STACK CFI INIT 16d80 d60 .cfa: $esp 4 + .ra: .cfa -4 + ^
STACK CFI 16d81 .cfa: $esp 8 +
STACK CFI 16d82 .cfa: $esp 12 +
STACK CFI 16d83 .cfa: $esp 16 +
STACK CFI 16d84 .cfa: $esp 20 +
STACK CFI 16d8a $ebp: .cfa -8 + ^ $ebx: .cfa -12 + ^ $edi: .cfa -16 + ^ $esi: .cfa -20 + ^ .cfa: $esp 1344 +
STACK CFI INIT 17ae0 6c0 .cfa: $esp 4 + .ra: .cfa -4 + ^
STACK CFI 17ae1 .cfa: $esp 8 +
STACK CFI 17ae2 .cfa: $esp 12 +
STACK CFI 17ae3 .cfa: $esp 16 +
STACK CFI 17ae4 .cfa: $esp 20 +
STACK CFI 17aea $ebp: .cfa -8 + ^ $ebx: .cfa -12 + ^ $edi: .cfa -16 + ^ $esi: .cfa -20 + ^ .cfa: $esp 1376 +
STACK CFI INIT 181a0 ac0 .cfa: $esp 4 + .ra: .cfa -4 + ^
STACK CFI 181a1 .cfa: $esp 8 +
STACK CFI 181a2 .cfa: $esp 12 +
STACK CFI 181a3 .cfa: $esp 16 +
STACK CFI 181a4 .cfa: $esp 20 +
STACK CFI 181aa $ebp: .cfa -8 + ^ $ebx: .cfa -12 + ^ $edi: .cfa -16 + ^ $esi: .cfa -20 + ^ .cfa: $esp 2432 +
STACK CFI INIT 18c60 600 .cfa: $esp 4 + .ra: .cfa -4 + ^
STACK CFI 18c61 .cfa: $esp 8 +
STACK CFI 18c62 .cfa: $esp 12 +
STACK CFI 18c63 .cfa: $esp 16 +
STACK CFI 18c64 .cfa: $esp 20 +
STACK CFI 18c6a $ebp: .cfa -8 + ^ $ebx: .cfa -12 + ^ $edi: .cfa -16 + ^ $esi: .cfa -20 + ^ .cfa: $esp 1328 +
STACK CFI INIT 19260 680 .cfa: $esp 4 + .ra: .cfa -4 + ^
STACK CFI 19261 .cfa: $esp 8 +
STACK CFI 19262 .cfa: $esp 12 +
STACK CFI 19263 .cfa: $esp 16 +
STACK CFI 19264 .cfa: $esp 20 +
STACK CFI 1926a $ebp: .cfa -8 + ^ $ebx: .cfa -12 + ^ $edi: .cfa -16 + ^ $esi: .cfa -20 + ^ .cfa: $esp 320 +
STACK CFI INIT 198e0 940 .cfa: $esp 4 + .ra: .cfa -4 + ^
STACK CFI 198e1 .cfa: $esp 8 +
STACK CFI 198e2 .cfa: $esp 12 +
STACK CFI 198e3 .cfa: $esp 16 +
STACK CFI 198e4 .cfa: $esp 20 +
STACK CFI 198ea $ebp: .cfa -8 + ^ $ebx: .cfa -12 + ^ $edi: .cfa -16 + ^ $esi: .cfa -20 + ^ .cfa: $esp 1792 +
STACK CFI INIT 1a220 7a0 .cfa: $esp 4 + .ra: .cfa -4 + ^
STACK CFI 1a221 .cfa: $esp 8 +
STACK CFI 1a222 .cfa: $esp 12 +
STACK CFI 1a223 .cfa: $esp 16 +
STACK CFI 1a224 .cfa: $esp 20 +
STACK CFI 1a22a $ebp: .cfa -8 + ^ $ebx: .cfa -12 + ^ $edi: .cfa -16 + ^ $esi: .cfa -20 + ^ .cfa: $esp 352 +
STACK CFI INIT 1a9c0 7a0 .cfa: $esp 4 + .ra: .cfa -4 + ^
STACK CFI 1a9c1 .cfa: $esp 8 +
STACK CFI 1a9c2 .cfa: $esp 12 +
STACK CFI 1a9c3 .cfa: $esp 16 +
STACK CFI 1a9c4 .cfa: $esp 20 +
STACK CFI 1a9ca $ebp: .cfa -8 + ^ $ebx: .cfa -12 + ^ $edi: .cfa -16 + ^ $esi: .cfa -20 + ^ .cfa: $esp 368 +
STACK CFI INIT 1b160 280 .cfa: $esp 4 + .ra: .cfa -4 + ^
STACK CFI 1b161 .cfa: $esp 8 +
STACK CFI 1b162 .cfa: $esp 12 +
STACK CFI 1b163 .cfa: $esp 16 +
STACK CFI 1b169 $ebx: .cfa -8 + ^ $edi: .cfa -12 + ^ $esi: .cfa -16 + ^ .cfa: $esp 320 +
STACK CFI INIT 1b3e0 360 .cfa: $esp 4 + .ra: .cfa -4 + ^
STACK CFI 1b3e1 .cfa: $esp 8 +
STACK CFI 1b3e2 .cfa: $esp 12 +
STACK CFI 1b3e3 .cfa: $esp 16 +
STACK CFI 1b3e4 .cfa: $esp 20 +
STACK CFI 1b3ea $ebp: .cfa -8 + ^ $ebx: .cfa -12 + ^ $edi: .cfa -16 + ^ $esi: .cfa -20 + ^ .cfa: $esp 256 +
STACK CFI INIT 1b740 320 .cfa: $esp 4 + .ra: .cfa -4 + ^
STACK CFI 1b741 .cfa: $esp 8 +
STACK CFI 1b742 .cfa: $esp 12 +
STACK CFI 1b743 .cfa: $esp 16 +
STACK CFI 1b744 .cfa: $esp 20 +
STACK CFI 1b74a $ebp: .cfa -8 + ^ $ebx: .cfa -12 + ^ $edi: .cfa -16 + ^ $esi: .cfa -20 + ^ .cfa: $esp 464 +
STACK CFI INIT 1bbe0 280 .cfa: $esp 4 + .ra: .cfa -4 + ^
STACK CFI 1bbe1 .cfa: $esp 8 +
STACK CFI 1bbe2 .cfa: $esp 12 +
STACK CFI 1bbe3 .cfa: $esp 16 +
STACK CFI 1bbe4 .cfa: $esp 20 +
STACK CFI 1bbea $ebp: .cfa -8 + ^ $ebx: .cfa -12 + ^ $edi: .cfa -16 + ^ $esi: .cfa -20 + ^ .cfa: $esp 448 +
STACK CFI INIT 1c740 2e0 .cfa: $esp 4 + .ra: .cfa -4 + ^
STACK CFI 1c741 .cfa: $esp 8 +
STACK CFI 1c742 .cfa: $esp 12 +
STACK CFI 1c743 .cfa: $esp 16 +
STACK CFI 1c749 $ebx: .cfa -8 + ^ $edi: .cfa -12 + ^ $esi: .cfa -16 + ^ .cfa: $esp 384 +
STACK CFI INIT 1db20 1e0 .cfa: $esp 4 + .ra: .cfa -4 + ^
STACK CFI 1db21 .cfa: $esp 8 +
STACK CFI 1db22 .cfa: $esp 12 +
STACK CFI 1db23 .cfa: $esp 16 +
STACK CFI 1db26 $ebx: .cfa -8 + ^ $edi: .cfa -12 + ^ $esi: .cfa -16 + ^ .cfa: $esp 64 +
STACK CFI INIT 1dd00 1a0 .cfa: $esp 4 + .ra: .cfa -4 + ^
STACK CFI 1dd01 .cfa: $esp 8 +
STACK CFI 1dd04 $esi: .cfa -8 + ^ .cfa: $esp 48 +
STACK CFI INIT 1dea0 3e0 .cfa: $esp 4 + .ra: .cfa -4 + ^
STACK CFI 1dea1 .cfa: $esp 8 +
STACK CFI 1dea2 .cfa: $esp 12 +
STACK CFI 1dea3 .cfa: $esp 16 +
STACK CFI 1dea4 .cfa: $esp 20 +
STACK CFI 1deaa $ebp: .cfa -8 + ^ $ebx: .cfa -12 + ^ $edi: .cfa -16 + ^ $esi: .cfa -20 + ^ .cfa: $esp 160 +
STACK CFI INIT 1e280 1e0 .cfa: $esp 4 + .ra: .cfa -4 + ^
STACK CFI 1e281 .cfa: $esp 8 +
STACK CFI 1e282 .cfa: $esp 12 +
STACK CFI 1e283 .cfa: $esp 16 +
STACK CFI 1e284 .cfa: $esp 20 +
STACK CFI 1e287 $ebp: .cfa -8 + ^ $ebx: .cfa -12 + ^ $edi: .cfa -16 + ^ $esi: .cfa -20 + ^ .cfa: $esp 48 +
STACK CFI INIT 1e460 940 .cfa: $esp 4 + .ra: .cfa -4 + ^
STACK CFI 1e461 .cfa: $esp 8 +
STACK CFI 1e462 .cfa: $esp 12 +
STACK CFI 1e463 .cfa: $esp 16 +
STACK CFI 1e464 .cfa: $esp 20 +
STACK CFI 1e46a $ebp: .cfa -8 + ^ $ebx: .cfa -12 + ^ $edi: .cfa -16 + ^ $esi: .cfa -20 + ^ .cfa: $esp 2528 +
STACK CFI INIT 1eda0 a80 .cfa: $esp 4 + .ra: .cfa -4 + ^
STACK CFI 1eda1 .cfa: $esp 8 +
STACK CFI 1eda2 .cfa: $esp 12 +
STACK CFI 1eda3 .cfa: $esp 16 +
STACK CFI 1eda4 .cfa: $esp 20 +
STACK CFI 1edaa $ebp: .cfa -8 + ^ $ebx: .cfa -12 + ^ $edi: .cfa -16 + ^ $esi: .cfa -20 + ^ .cfa: $esp 1520 +
STACK CFI INIT 1f820 2a0 .cfa: $esp 4 + .ra: .cfa -4 + ^
STACK CFI 1f821 .cfa: $esp 8 +
STACK CFI 1f824 $esi: .cfa -8 + ^ .cfa: $esp 48 +
STACK CFI INIT 1fac0 2e0 .cfa: $esp 4 + .ra: .cfa -4 + ^
STACK CFI 1fac1 .cfa: $esp 8 +
STACK CFI 1fac2 .cfa: $esp 12 +
STACK CFI 1fac3 .cfa: $esp 16 +
STACK CFI 1fac9 $ebx: .cfa -8 + ^ $edi: .cfa -12 + ^ $esi: .cfa -16 + ^ .cfa: $esp 384 +
STACK CFI INIT 1fda0 440 .cfa: $esp 4 + .ra: .cfa -4 + ^
STACK CFI 1fda1 .cfa: $esp 8 +
STACK CFI 1fda2 .cfa: $esp 12 +
STACK CFI 1fda3 .cfa: $esp 16 +
STACK CFI 1fda4 .cfa: $esp 20 +
STACK CFI 1fdaa $ebp: .cfa -8 + ^ $ebx: .cfa -12 + ^ $edi: .cfa -16 + ^ $esi: .cfa -20 + ^ .cfa: $esp 208 +
STACK CFI INIT 20a20 1080 .cfa: $esp 4 + .ra: .cfa -4 + ^
STACK CFI 20a21 .cfa: $esp 8 +
STACK CFI 20a22 .cfa: $esp 12 +
STACK CFI 20a23 .cfa: $esp 16 +
STACK CFI 20a24 .cfa: $esp 20 +
STACK CFI 20a2a $ebp: .cfa -8 + ^ $ebx: .cfa -12 + ^ $edi: .cfa -16 + ^ $esi: .cfa -20 + ^ .cfa: $esp 3280 +
STACK CFI INIT 21aa0 6c0 .cfa: $esp 4 + .ra: .cfa -4 + ^
STACK CFI 21aa1 .cfa: $esp 8 +
STACK CFI 21aa2 .cfa: $esp 12 +
STACK CFI 21aa3 .cfa: $esp 16 +
STACK CFI 21aa4 .cfa: $esp 20 +
STACK CFI 21aaa $ebp: .cfa -8 + ^ $ebx: .cfa -12 + ^ $edi: .cfa -16 + ^ $esi: .cfa -20 + ^ .cfa: $esp 288 +
STACK CFI INIT 22160 2c0 .cfa: $esp 4 + .ra: .cfa -4 + ^
STACK CFI 22161 .cfa: $esp 8 +
STACK CFI 22164 $esi: .cfa -8 + ^ .cfa: $esp 64 +
STACK CFI INIT 22420 da0 .cfa: $esp 4 + .ra: .cfa -4 + ^
STACK CFI 22421 .cfa: $esp 8 +
STACK CFI 22422 .cfa: $esp 12 +
STACK CFI 22423 .cfa: $esp 16 +
STACK CFI 22424 .cfa: $esp 20 +
STACK CFI 2242a $ebp: .cfa -8 + ^ $ebx: .cfa -12 + ^ $edi: .cfa -16 + ^ $esi: .cfa -20 + ^ .cfa: $esp 672 +
STACK CFI INIT 231c0 920 .cfa: $esp 4 + .ra: .cfa -4 + ^
STACK CFI 231c1 .cfa: $esp 8 +
STACK CFI 231c2 .cfa: $esp 12 +
STACK CFI 231c3 .cfa: $esp 16 +
STACK CFI 231c4 .cfa: $esp 20 +
STACK CFI 231ca $ebp: .cfa -8 + ^ $ebx: .cfa -12 + ^ $edi: .cfa -16 + ^ $esi: .cfa -20 + ^ .cfa: $esp 1232 +
STACK CFI INIT 23ae0 300 .cfa: $esp 4 + .ra: .cfa -4 + ^
STACK CFI 23ae1 .cfa: $esp 8 +
STACK CFI 23ae2 .cfa: $esp 12 +
STACK CFI 23ae8 $edi: .cfa -8 + ^ $esi: .cfa -12 + ^ .cfa: $esp 224 +
STACK CFI INIT 23de0 360 .cfa: $esp 4 + .ra: .cfa -4 + ^
STACK CFI 23de1 .cfa: $esp 8 +
STACK CFI 23de2 .cfa: $esp 12 +
STACK CFI 23de8 $edi: .cfa -8 + ^ $esi: .cfa -12 + ^ .cfa: $esp 240 +
STACK CFI INIT 24140 1e0 .cfa: $esp 4 + .ra: .cfa -4 + ^
STACK CFI 24141 .cfa: $esp 8 +
STACK CFI 24142 .cfa: $esp 12 +
STACK CFI 24145 $edi: .cfa -8 + ^ $esi: .cfa -12 + ^ .cfa: $esp 48 +
STACK CFI INIT 24320 1a0 .cfa: $esp 4 + .ra: .cfa -4 + ^
STACK CFI 24321 .cfa: $esp 8 +
STACK CFI 24324 $esi: .cfa -8 + ^ .cfa: $esp 48 +
STACK CFI INIT 244c0 80 .cfa: $esp 4 + .ra: .cfa -4 + ^
STACK CFI 244c1 .cfa: $esp 8 +
STACK CFI 244c4 $esi: .cfa -8 + ^ .cfa: $esp 32 +
STACK CFI INIT 268e0 c0 .cfa: $esp 4 + .ra: .cfa -4 + ^
STACK CFI 268e1 .cfa: $esp 8 +
STACK CFI 268e2 .cfa: $esp 12 +
STACK CFI 268e3 $edi: .cfa -8 + ^ $esi: .cfa -12 + ^ .cfa: $esp 16 +
STACK CFI INIT 269a0 80 .cfa: $esp 4 + .ra: .cfa -4 + ^
STACK CFI 269a1 .cfa: $esp 8 +
STACK CFI 269a4 $esi: .cfa -8 + ^ .cfa: $esp 32 +
STACK CFI INIT 27060 c0 .cfa: $esp 4 + .ra: .cfa -4 + ^
STACK CFI 27061 .cfa: $esp 8 +
STACK CFI 27062 .cfa: $esp 12 +
STACK CFI 27063 $edi: .cfa -8 + ^ $esi: .cfa -12 + ^ .cfa: $esp 16 +
STACK CFI INIT 27120 80 .cfa: $esp 4 + .ra: .cfa -4 + ^
STACK CFI 27121 .cfa: $esp 8 +
STACK CFI 27124 $esi: .cfa -8 + ^ .cfa: $esp 32 +
STACK CFI INIT 27320 200 .cfa: $esp 4 + .ra: .cfa -4 + ^
STACK CFI 27321 .cfa: $esp 8 +
STACK CFI 27322 .cfa: $esp 12 +
STACK CFI 27323 .cfa: $esp 16 +
STACK CFI 27324 .cfa: $esp 20 +
STACK CFI 27327 $ebp: .cfa -8 + ^ $ebx: .cfa -12 + ^ $edi: .cfa -16 + ^ $esi: .cfa -20 + ^ .cfa: $esp 32 +
STACK CFI INIT 27520 140 .cfa: $esp 4 + .ra: .cfa -4 + ^
STACK CFI 27521 .cfa: $esp 8 +
STACK CFI 27522 .cfa: $esp 12 +
STACK CFI 27523 .cfa: $esp 16 +
STACK CFI 27524 .cfa: $esp 20 +
STACK CFI 27527 $ebp: .cfa -8 + ^ $ebx: .cfa -12 + ^ $edi: .cfa -16 + ^ $esi: .cfa -20 + ^ .cfa: $esp 112 +
STACK CFI INIT 27660 340 .cfa: $esp 4 + .ra: .cfa -4 + ^
STACK CFI 27661 .cfa: $esp 8 +
STACK CFI 27662 .cfa: $esp 12 +
STACK CFI 27665 $edi: .cfa -8 + ^ $esi: .cfa -12 + ^ .cfa: $esp 32 +
STACK CFI INIT 279a0 160 .cfa: $esp 4 + .ra: .cfa -4 + ^
STACK CFI 279a1 .cfa: $esp 8 +
STACK CFI 279a2 .cfa: $esp 12 +
STACK CFI 279a3 .cfa: $esp 16 +
STACK CFI 279a4 .cfa: $esp 20 +
STACK CFI 279a7 $ebp: .cfa -8 + ^ $ebx: .cfa -12 + ^ $edi: .cfa -16 + ^ $esi: .cfa -20 + ^ .cfa: $esp 48 +
STACK CFI INIT 27b00 1a0 .cfa: $esp 4 + .ra: .cfa -4 + ^
STACK CFI 27b01 .cfa: $esp 8 +
STACK CFI 27b02 .cfa: $esp 12 +
STACK CFI 27b03 .cfa: $esp 16 +
STACK CFI 27b04 .cfa: $esp 20 +
STACK CFI 27b07 $ebp: .cfa -8 + ^ $ebx: .cfa -12 + ^ $edi: .cfa -16 + ^ $esi: .cfa -20 + ^ .cfa: $esp 40 +
STACK CFI INIT 27ca0 c0 .cfa: $esp 4 + .ra: .cfa -4 + ^
STACK CFI 27ca1 .cfa: $esp 8 +
STACK CFI 27ca2 .cfa: $esp 12 +
STACK CFI 27ca5 $edi: .cfa -8 + ^ $esi: .cfa -12 + ^ .cfa: $esp 64 +
STACK CFI INIT 27d60 860 .cfa: $esp 4 + .ra: .cfa -4 + ^
STACK CFI 27d61 .cfa: $esp 8 +
STACK CFI 27d62 .cfa: $esp 12 +
STACK CFI 27d63 .cfa: $esp 16 +
STACK CFI 27d64 .cfa: $esp 20 +
STACK CFI 27d6a $ebp: .cfa -8 + ^ $ebx: .cfa -12 + ^ $edi: .cfa -16 + ^ $esi: .cfa -20 + ^ .cfa: $esp 464 +
STACK CFI INIT 285c0 340 .cfa: $esp 4 + .ra: .cfa -4 + ^
STACK CFI 285c1 .cfa: $esp 8 +
STACK CFI 285c2 .cfa: $esp 12 +
STACK CFI 285c3 .cfa: $esp 16 +
STACK CFI 285c4 .cfa: $esp 20 +
STACK CFI 285ca $ebp: .cfa -8 + ^ $ebx: .cfa -12 + ^ $edi: .cfa -16 + ^ $esi: .cfa -20 + ^ .cfa: $esp 1168 +
STACK CFI INIT 28900 200 .cfa: $esp 4 + .ra: .cfa -4 + ^
STACK CFI 28901 .cfa: $esp 8 +
STACK CFI 28902 .cfa: $esp 12 +
STACK CFI 28903 .cfa: $esp 16 +
STACK CFI 28904 .cfa: $esp 20 +
STACK CFI 2890a $ebp: .cfa -8 + ^ $ebx: .cfa -12 + ^ $edi: .cfa -16 + ^ $esi: .cfa -20 + ^ .cfa: $esp 160 +
STACK CFI INIT 28b00 360 .cfa: $esp 4 + .ra: .cfa -4 + ^
STACK CFI 28b01 .cfa: $esp 8 +
STACK CFI 28b02 .cfa: $esp 12 +
STACK CFI 28b03 .cfa: $esp 16 +
STACK CFI 28b04 .cfa: $esp 20 +
STACK CFI 28b07 $ebp: .cfa -8 + ^ $ebx: .cfa -12 + ^ $edi: .cfa -16 + ^ $esi: .cfa -20 + ^ .cfa: $esp 144 +
STACK CFI INIT 28e60 4c0 .cfa: $esp 4 + .ra: .cfa -4 + ^
STACK CFI 28e61 .cfa: $esp 8 +
STACK CFI 28e62 .cfa: $esp 12 +
STACK CFI 28e63 .cfa: $esp 16 +
STACK CFI 28e64 .cfa: $esp 20 +
STACK CFI 28e6a $ebp: .cfa -8 + ^ $ebx: .cfa -12 + ^ $edi: .cfa -16 + ^ $esi: .cfa -20 + ^ .cfa: $esp 1168 +
STACK CFI INIT 29320 1c0 .cfa: $esp 4 + .ra: .cfa -4 + ^
STACK CFI 29321 .cfa: $esp 8 +
STACK CFI 29322 .cfa: $esp 12 +
STACK CFI 29323 .cfa: $esp 16 +
STACK CFI 29324 .cfa: $esp 20 +
STACK CFI 29327 $ebp: .cfa -8 + ^ $ebx: .cfa -12 + ^ $edi: .cfa -16 + ^ $esi: .cfa -20 + ^ .cfa: $esp 64 +
STACK CFI INIT 294e0 380 .cfa: $esp 4 + .ra: .cfa -4 + ^
STACK CFI 294e1 .cfa: $esp 8 +
STACK CFI 294e2 .cfa: $esp 12 +
STACK CFI 294e3 .cfa: $esp 16 +
STACK CFI 294e4 .cfa: $esp 20 +
STACK CFI 294e7 $ebp: .cfa -8 + ^ $ebx: .cfa -12 + ^ $edi: .cfa -16 + ^ $esi: .cfa -20 + ^ .cfa: $esp 128 +
STACK CFI INIT 29860 a0 .cfa: $esp 4 + .ra: .cfa -4 + ^
STACK CFI 29861 .cfa: $esp 8 +
STACK CFI 29867 $esi: .cfa -8 + ^ .cfa: $esp 272 +
STACK CFI INIT 2a820 40 .cfa: $esp 4 + .ra: .cfa -4 + ^
STACK CFI 2a821 $esi: .cfa -8 + ^ .cfa: $esp 8 +
STACK CFI INIT 2a9e0 60 .cfa: $esp 4 + .ra: .cfa -4 + ^
STACK CFI 2a9e1 .cfa: $esp 8 +
STACK CFI 2a9e2 .cfa: $esp 12 +
STACK CFI 2a9e3 $edi: .cfa -8 + ^ $esi: .cfa -12 + ^ .cfa: $esp 16 +
STACK CFI INIT 2aa40 80 .cfa: $esp 4 + .ra: .cfa -4 + ^
STACK CFI 2aa41 .cfa: $esp 8 +
STACK CFI 2aa42 .cfa: $esp 12 +
STACK CFI 2aa48 $edi: .cfa -8 + ^ $esi: .cfa -12 + ^ .cfa: $esp 144 +
STACK CFI INIT 2b0e0 1c0 .cfa: $esp 4 + .ra: .cfa -4 + ^
STACK CFI 2b0e1 .cfa: $esp 8 +
STACK CFI 2b0e2 .cfa: $esp 12 +
STACK CFI 2b0e3 $ebx: .cfa -8 + ^ $edi: .cfa -12 + ^ $esi: .cfa -16 + ^ .cfa: $esp 16 +
STACK CFI INIT 2b2a0 40 .cfa: $esp 4 + .ra: .cfa -4 + ^
STACK CFI INIT 2b2e0 40 .cfa: $esp 4 + .ra: .cfa -4 + ^
STACK CFI 2b2e3 .cfa: $esp 16 +
STACK CFI INIT 36920 c0 .cfa: $esp 4 + .ra: .cfa -4 + ^
STACK CFI 36921 .cfa: $esp 8 +
STACK CFI 36922 .cfa: $esp 12 +
STACK CFI 36923 $edi: .cfa -8 + ^ $esi: .cfa -12 + ^ .cfa: $esp 16 +
STACK CFI INIT 369e0 c0 .cfa: $esp 4 + .ra: .cfa -4 + ^
STACK CFI 369e1 .cfa: $esp 8 +
STACK CFI 369e4 $esi: .cfa -8 + ^ .cfa: $esp 32 +
STACK CFI INIT 36aa0 a0 .cfa: $esp 4 + .ra: .cfa -4 + ^
STACK CFI 36aa1 .cfa: $esp 8 +
STACK CFI 36aa2 .cfa: $esp 12 +
STACK CFI 36aa3 .cfa: $esp 16 +
STACK CFI 36aa4 .cfa: $esp 20 +
STACK CFI 36aa7 $ebp: .cfa -8 + ^ $ebx: .cfa -12 + ^ $edi: .cfa -16 + ^ $esi: .cfa -20 + ^ .cfa: $esp 64 +
STACK CFI INIT 36b40 20 .cfa: $esp 4 + .ra: .cfa -4 + ^
STACK CFI INIT 36b60 1a0 .cfa: $esp 4 + .ra: .cfa -4 + ^
STACK CFI 36b61 .cfa: $esp 8 +
STACK CFI 36b64 $esi: .cfa -8 + ^ .cfa: $esp 64 +
STACK CFI INIT 37580 2e0 .cfa: $esp 4 + .ra: .cfa -4 + ^
STACK CFI 37581 .cfa: $esp 8 +
STACK CFI 37582 .cfa: $esp 12 +
STACK CFI 37583 .cfa: $esp 16 +
STACK CFI 37584 .cfa: $esp 20 +
STACK CFI 37587 $ebp: .cfa -8 + ^ $ebx: .cfa -12 + ^ $edi: .cfa -16 + ^ $esi: .cfa -20 + ^ .cfa: $esp 48 +
STACK CFI INIT 37d80 20 .cfa: $esp 4 + .ra: .cfa -4 + ^
STACK CFI INIT 37da0 100 .cfa: $esp 4 + .ra: .cfa -4 + ^
STACK CFI 37da1 .cfa: $esp 8 +
STACK CFI 37da2 .cfa: $esp 12 +
STACK CFI 37da3 .cfa: $esp 16 +
STACK CFI 37da4 .cfa: $esp 20 +
STACK CFI 37da7 $ebp: .cfa -8 + ^ $ebx: .cfa -12 + ^ $edi: .cfa -16 + ^ $esi: .cfa -20 + ^ .cfa: $esp 32 +
STACK CFI INIT 37ea0 c0 .cfa: $esp 4 + .ra: .cfa -4 + ^
STACK CFI 37ea1 .cfa: $esp 8 +
STACK CFI 37ea2 .cfa: $esp 12 +
STACK CFI 37ea3 .cfa: $esp 16 +
STACK CFI 37ea6 $ebx: .cfa -8 + ^ $edi: .cfa -12 + ^ $esi: .cfa -16 + ^ .cfa: $esp 48 +
STACK CFI INIT 37f60 e0 .cfa: $esp 4 + .ra: .cfa -4 + ^
STACK CFI 37f61 .cfa: $esp 8 +
STACK CFI 37f64 $esi: .cfa -8 + ^ .cfa: $esp 16 +
STACK CFI INIT 38040 1c0 .cfa: $esp 4 + .ra: .cfa -4 + ^
STACK CFI 38041 .cfa: $esp 8 +
STACK CFI 38042 .cfa: $esp 12 +
STACK CFI 38043 .cfa: $esp 16 +
STACK CFI 38044 .cfa: $esp 20 +
STACK CFI 3804a $ebp: .cfa -8 + ^ $ebx: .cfa -12 + ^ $edi: .cfa -16 + ^ $esi: .cfa -20 + ^ .cfa: $esp 192 +
STACK CFI INIT 38200 380 .cfa: $esp 4 + .ra: .cfa -4 + ^
STACK CFI 38201 .cfa: $esp 8 +
STACK CFI 38202 .cfa: $esp 12 +
STACK CFI 38203 .cfa: $esp 16 +
STACK CFI 38204 .cfa: $esp 20 +
STACK CFI 38207 $ebp: .cfa -8 + ^ $ebx: .cfa -12 + ^ $edi: .cfa -16 + ^ $esi: .cfa -20 + ^ .cfa: $esp 64 +
STACK CFI INIT 38580 460 .cfa: $esp 4 + .ra: .cfa -4 + ^
STACK CFI 38581 .cfa: $esp 8 +
STACK CFI 38582 .cfa: $esp 12 +
STACK CFI 38583 .cfa: $esp 16 +
STACK CFI 38584 .cfa: $esp 20 +
STACK CFI 3858a $ebp: .cfa -8 + ^ $ebx: .cfa -12 + ^ $edi: .cfa -16 + ^ $esi: .cfa -20 + ^ .cfa: $esp 1088 +
STACK CFI INIT 389e0 240 .cfa: $esp 4 + .ra: .cfa -4 + ^
STACK CFI 389e1 .cfa: $esp 8 +
STACK CFI 389e2 .cfa: $esp 12 +
STACK CFI 389e3 .cfa: $esp 16 +
STACK CFI 389e4 .cfa: $esp 20 +
STACK CFI 389ea $ebp: .cfa -8 + ^ $ebx: .cfa -12 + ^ $edi: .cfa -16 + ^ $esi: .cfa -20 + ^ .cfa: $esp 1088 +
STACK CFI INIT 38c20 440 .cfa: $esp 4 + .ra: .cfa -4 + ^
STACK CFI 38c21 .cfa: $esp 8 +
STACK CFI 38c22 .cfa: $esp 12 +
STACK CFI 38c23 .cfa: $esp 16 +
STACK CFI 38c24 .cfa: $esp 20 +
STACK CFI 38c2a $ebp: .cfa -8 + ^ $ebx: .cfa -12 + ^ $edi: .cfa -16 + ^ $esi: .cfa -20 + ^ .cfa: $esp 1152 +
STACK CFI INIT 39060 540 .cfa: $esp 4 + .ra: .cfa -4 + ^
STACK CFI 39061 .cfa: $esp 8 +
STACK CFI 39062 .cfa: $esp 12 +
STACK CFI 39063 .cfa: $esp 16 +
STACK CFI 39069 $ebx: .cfa -8 + ^ $edi: .cfa -12 + ^ $esi: .cfa -16 + ^ .cfa: $esp 1072 +
STACK CFI INIT 395a0 1c0 .cfa: $esp 4 + .ra: .cfa -4 + ^
STACK CFI 395a1 .cfa: $esp 8 +
STACK CFI 395a2 .cfa: $esp 12 +
STACK CFI 395a3 .cfa: $esp 16 +
STACK CFI 395a6 $ebx: .cfa -8 + ^ $edi: .cfa -12 + ^ $esi: .cfa -16 + ^ .cfa: $esp 32 +
STACK CFI INIT 39da0 c0 .cfa: $esp 4 + .ra: .cfa -4 + ^
STACK CFI 39da1 .cfa: $esp 8 +
STACK CFI 39da2 .cfa: $esp 12 +
STACK CFI 39da3 $edi: .cfa -8 + ^ $esi: .cfa -12 + ^ .cfa: $esp 16 +
STACK CFI INIT 39e60 80 .cfa: $esp 4 + .ra: .cfa -4 + ^
STACK CFI 39e61 .cfa: $esp 8 +
STACK CFI 39e64 $esi: .cfa -8 + ^ .cfa: $esp 32 +
STACK CFI INIT 3a060 180 .cfa: $esp 4 + .ra: .cfa -4 + ^
STACK CFI 3a061 .cfa: $esp 8 +
STACK CFI 3a062 .cfa: $esp 12 +
STACK CFI 3a063 .cfa: $esp 16 +
STACK CFI 3a064 .cfa: $esp 20 +
STACK CFI 3a067 $ebp: .cfa -8 + ^ $ebx: .cfa -12 + ^ $edi: .cfa -16 + ^ $esi: .cfa -20 + ^ .cfa: $esp 48 +
STACK CFI INIT 3a1e0 100 .cfa: $esp 4 + .ra: .cfa -4 + ^
STACK CFI 3a1e1 .cfa: $esp 8 +
STACK CFI 3a1e2 .cfa: $esp 12 +
STACK CFI 3a1e3 $edi: .cfa -8 + ^ $esi: .cfa -12 + ^ .cfa: $esp 16 +
STACK CFI INIT 3a2e0 60 .cfa: $esp 4 + .ra: .cfa -4 + ^
STACK CFI 3a2e1 .cfa: $esp 8 +
STACK CFI 3a2e2 .cfa: $esp 12 +
STACK CFI 3a2e3 $ebx: .cfa -8 + ^ $edi: .cfa -12 + ^ $esi: .cfa -16 + ^ .cfa: $esp 16 +
STACK CFI INIT 3a340 300 .cfa: $esp 4 + .ra: .cfa -4 + ^
STACK CFI 3a341 .cfa: $esp 8 +
STACK CFI 3a342 .cfa: $esp 12 +
STACK CFI 3a343 .cfa: $esp 16 +
STACK CFI 3a344 .cfa: $esp 20 +
STACK CFI 3a347 $ebp: .cfa -8 + ^ $ebx: .cfa -12 + ^ $edi: .cfa -16 + ^ $esi: .cfa -20 + ^ .cfa: $esp 32 +
STACK CFI INIT 3a640 c0 .cfa: $esp 4 + .ra: .cfa -4 + ^
STACK CFI 3a641 .cfa: $esp 8 +
STACK CFI 3a642 .cfa: $esp 12 +
STACK CFI 3a643 .cfa: $esp 16 +
STACK CFI 3a644 .cfa: $esp 20 +
STACK CFI 3a647 $ebp: .cfa -8 + ^ $ebx: .cfa -12 + ^ $edi: .cfa -16 + ^ $esi: .cfa -20 + ^ .cfa: $esp 32 +
STACK CFI INIT 3a700 60 .cfa: $esp 4 + .ra: .cfa -4 + ^
STACK CFI 3a701 .cfa: $esp 8 +
STACK CFI 3a702 .cfa: $esp 12 +
STACK CFI 3a703 .cfa: $esp 16 +
STACK CFI 3a704 .cfa: $esp 20 +
STACK CFI 3a707 $ebp: .cfa -8 + ^ $ebx: .cfa -12 + ^ $edi: .cfa -16 + ^ $esi: .cfa -20 + ^ .cfa: $esp 32 +
STACK CFI INIT 3a760 80 .cfa: $esp 4 + .ra: .cfa -4 + ^
STACK CFI 3a761 .cfa: $esp 8 +
STACK CFI 3a762 .cfa: $esp 12 +
STACK CFI 3a763 $ebx: .cfa -8 + ^ $edi: .cfa -12 + ^ $esi: .cfa -16 + ^ .cfa: $esp 16 +
STACK CFI INIT 3a7e0 60 .cfa: $esp 4 + .ra: .cfa -4 + ^
STACK CFI 3a7e1 .cfa: $esp 8 +
STACK CFI 3a7e2 .cfa: $esp 12 +
STACK CFI 3a7e3 $edi: .cfa -8 + ^ $esi: .cfa -12 + ^ .cfa: $esp 16 +
STACK CFI INIT 3a840 c60 .cfa: $esp 4 + .ra: .cfa -4 + ^
STACK CFI 3a841 .cfa: $esp 8 +
STACK CFI 3a842 .cfa: $esp 12 +
STACK CFI 3a845 $edi: .cfa -8 + ^ $esi: .cfa -12 + ^ .cfa: $esp 64 +
STACK CFI INIT 3b4a0 60 .cfa: $esp 4 + .ra: .cfa -4 + ^
STACK CFI 3b4a1 .cfa: $esp 8 +
STACK CFI 3b4a2 .cfa: $esp 12 +
STACK CFI 3b4a3 $edi: .cfa -8 + ^ $esi: .cfa -12 + ^ .cfa: $esp 16 +
STACK CFI INIT 3b500 20 .cfa: $esp 4 + .ra: .cfa -4 + ^
STACK CFI INIT 3b520 e0 .cfa: $esp 4 + .ra: .cfa -4 + ^
STACK CFI 3b521 .cfa: $esp 8 +
STACK CFI 3b522 .cfa: $esp 12 +
STACK CFI 3b523 $edi: .cfa -8 + ^ $esi: .cfa -12 + ^ .cfa: $esp 16 +
STACK CFI INIT 3b600 60 .cfa: $esp 4 + .ra: .cfa -4 + ^
STACK CFI 3b601 $esi: .cfa -8 + ^ .cfa: $esp 8 +
STACK CFI INIT 3b660 60 .cfa: $esp 4 + .ra: .cfa -4 + ^
STACK CFI 3b661 $esi: .cfa -8 + ^ .cfa: $esp 8 +
STACK CFI INIT 3b6c0 140 .cfa: $esp 4 + .ra: .cfa -4 + ^
STACK CFI 3b6c1 .cfa: $esp 8 +
STACK CFI 3b6c2 .cfa: $esp 12 +
STACK CFI 3b6c5 $edi: .cfa -8 + ^ $esi: .cfa -12 + ^ .cfa: $esp 32 +
STACK CFI INIT 3b800 40 .cfa: $esp 4 + .ra: .cfa -4 + ^
STACK CFI 3b803 .cfa: $esp 16 +
STACK CFI INIT 3b840 80 .cfa: $esp 4 + .ra: .cfa -4 + ^
STACK CFI 3b841 .cfa: $esp 8 +
STACK CFI 3b842 .cfa: $esp 12 +
STACK CFI 3b843 $ebx: .cfa -8 + ^ $edi: .cfa -12 + ^ $esi: .cfa -16 + ^ .cfa: $esp 16 +
STACK CFI INIT 3b8c0 40 .cfa: $esp 4 + .ra: .cfa -4 + ^
STACK CFI 3b8c3 .cfa: $esp 16 +
STACK CFI INIT 3b900 80 .cfa: $esp 4 + .ra: .cfa -4 + ^
STACK CFI 3b901 .cfa: $esp 8 +
STACK CFI 3b902 $ebx: .cfa -8 + ^ $esi: .cfa -12 + ^ .cfa: $esp 12 +
STACK CFI INIT 3b980 c0 .cfa: $esp 4 + .ra: .cfa -4 + ^
STACK CFI 3b981 .cfa: $esp 8 +
STACK CFI 3b984 $esi: .cfa -8 + ^ .cfa: $esp 64 +
STACK CFI INIT 3ba40 140 .cfa: $esp 4 + .ra: .cfa -4 + ^
STACK CFI 3ba41 .cfa: $esp 8 +
STACK CFI 3ba42 .cfa: $esp 12 +
STACK CFI 3ba43 $ebx: .cfa -8 + ^ $edi: .cfa -12 + ^ $esi: .cfa -16 + ^ .cfa: $esp 16 +
STACK CFI INIT 3bb80 80 .cfa: $esp 4 + .ra: .cfa -4 + ^
STACK CFI 3bb81 .cfa: $esp 8 +
STACK CFI 3bb84 $esi: .cfa -8 + ^ .cfa: $esp 16 +
STACK CFI INIT 3bc00 e0 .cfa: $esp 4 + .ra: .cfa -4 + ^
STACK CFI 3bc01 .cfa: $esp 8 +
STACK CFI 3bc02 .cfa: $esp 12 +
STACK CFI 3bc05 $edi: .cfa -8 + ^ $esi: .cfa -12 + ^ .cfa: $esp 32 +
STACK CFI INIT 3bce0 700 .cfa: $esp 4 + .ra: .cfa -4 + ^
STACK CFI 3bce1 .cfa: $esp 8 +
STACK CFI 3bce2 .cfa: $esp 12 +
STACK CFI 3bce3 .cfa: $esp 16 +
STACK CFI 3bce4 .cfa: $esp 20 +
STACK CFI 3bce7 $ebp: .cfa -8 + ^ $ebx: .cfa -12 + ^ $edi: .cfa -16 + ^ $esi: .cfa -20 + ^ .cfa: $esp 128 +
STACK CFI INIT 3c3e0 1c0 .cfa: $esp 4 + .ra: .cfa -4 + ^
STACK CFI 3c3e1 .cfa: $esp 8 +
STACK CFI 3c3e2 .cfa: $esp 12 +
STACK CFI 3c3e3 .cfa: $esp 16 +
STACK CFI 3c3e4 .cfa: $esp 20 +
STACK CFI 3c3e7 $ebp: .cfa -8 + ^ $ebx: .cfa -12 + ^ $edi: .cfa -16 + ^ $esi: .cfa -20 + ^ .cfa: $esp 80 +
STACK CFI INIT 3e180 4a0 .cfa: $esp 4 + .ra: .cfa -4 + ^
STACK CFI 3e181 .cfa: $esp 8 +
STACK CFI 3e182 .cfa: $esp 12 +
STACK CFI 3e183 .cfa: $esp 16 +
STACK CFI 3e184 .cfa: $esp 20 +
STACK CFI 3e187 $ebp: .cfa -8 + ^ $ebx: .cfa -12 + ^ $edi: .cfa -16 + ^ $esi: .cfa -20 + ^ .cfa: $esp 80 +
STACK CFI INIT 3e620 220 .cfa: $esp 4 + .ra: .cfa -4 + ^
STACK CFI 3e621 .cfa: $esp 8 +
STACK CFI 3e622 .cfa: $esp 12 +
STACK CFI 3e623 .cfa: $esp 16 +
STACK CFI 3e624 .cfa: $esp 20 +
STACK CFI 3e627 $ebp: .cfa -8 + ^ $ebx: .cfa -12 + ^ $edi: .cfa -16 + ^ $esi: .cfa -20 + ^ .cfa: $esp 80 +
STACK CFI INIT 3e840 300 .cfa: $esp 4 + .ra: .cfa -4 + ^
STACK CFI 3e841 .cfa: $esp 8 +
STACK CFI 3e842 .cfa: $esp 12 +
STACK CFI 3e843 $ebx: .cfa -8 + ^ $edi: .cfa -12 + ^ $esi: .cfa -16 + ^ .cfa: $esp 16 +
STACK CFI INIT 3eb40 40 .cfa: $esp 4 + .ra: .cfa -4 + ^
STACK CFI 3eb43 .cfa: $esp 16 +
STACK CFI INIT 3eb80 60 .cfa: $esp 4 + .ra: .cfa -4 + ^
STACK CFI 3eb81 $esi: .cfa -8 + ^ .cfa: $esp 8 +
STACK CFI INIT 3ebe0 60 .cfa: $esp 4 + .ra: .cfa -4 + ^
STACK CFI INIT 3ec40 260 .cfa: $esp 4 + .ra: .cfa -4 + ^
STACK CFI 3ec41 .cfa: $esp 8 +
STACK CFI 3ec42 .cfa: $esp 12 +
STACK CFI 3ec43 $edi: .cfa -8 + ^ $esi: .cfa -12 + ^ .cfa: $esp 16 +
STACK CFI INIT 3eea0 2a0 .cfa: $esp 4 + .ra: .cfa -4 + ^
STACK CFI 3eea1 .cfa: $esp 8 +
STACK CFI 3eea2 .cfa: $esp 12 +
STACK CFI 3eea5 $edi: .cfa -8 + ^ $esi: .cfa -12 + ^ .cfa: $esp 96 +
STACK CFI INIT 3f140 11c0 .cfa: $esp 4 + .ra: .cfa -4 + ^
STACK CFI 3f141 .cfa: $esp 8 +
STACK CFI 3f142 .cfa: $esp 12 +
STACK CFI 3f143 .cfa: $esp 16 +
STACK CFI 3f144 .cfa: $esp 20 +
STACK CFI 3f147 $ebp: .cfa -8 + ^ $ebx: .cfa -12 + ^ $edi: .cfa -16 + ^ $esi: .cfa -20 + ^ .cfa: $esp 80 +
STACK CFI INIT 40e60 20 .cfa: $esp 4 + .ra: .cfa -4 + ^
STACK CFI INIT 40e80 c0 .cfa: $esp 4 + .ra: .cfa -4 + ^
STACK CFI 40e81 .cfa: $esp 8 +
STACK CFI 40e82 .cfa: $esp 12 +
STACK CFI 40e83 $edi: .cfa -8 + ^ $esi: .cfa -12 + ^ .cfa: $esp 16 +
STACK CFI INIT 40f40 a0 .cfa: $esp 4 + .ra: .cfa -4 + ^
