MODULE Linux x86_64 4B71CFC4B0CE4D9FE6B3774A295FC2800 daemon-tty
FUNC 19ed0 12 0 END_CHUNK
FUNC 19ee2 12 0 START_CHUNK
FUNC 19ef4 12 0 SafeFS_Write
FUNC 19f06 10d 0 CL_DemoCompleted
FUNC 1a014 12 0 CMod_LoadLeafSurfaces
FUNC 1a026 30 0 std::__cxx11::basic_string<char, std::char_traits<char>, std::allocator<char> >::basic_string
FUNC 1a056 4a 0 google_breakpad::PageAllocator::FreeAll
FUNC 1a0a0 2c 0 MinidumpWriter::~MinidumpWriter
FUNC 1a0cc 1c7 0 MinidumpWriter::WriteFile
FUNC 1a294 67 0 MinidumpWriter::WriteProcFile
FUNC 1a300 145 0 _GLOBAL__sub_I__Z18Cmd_SaveCmdContextv
FUNC 1a450 39 0 std::__cxx11::basic_string<char, std::char_traits<char>, std::allocator<char> >::basic_string
FUNC 1a490 5dc 0 __static_initialization_and_destruction_0
FUNC 1aa70 5 0 _GLOBAL__sub_I_com_pid
FUNC 1aa80 2e 0 _GLOBAL__sub_I__Z14qnettle_randomPvmPh
FUNC 1aab0 2e 0 _GLOBAL__sub_I_cvar_vars
FUNC 1aae0 39 0 std::__cxx11::basic_string<char, std::char_traits<char>, std::allocator<char> >::basic_string
FUNC 1ab20 56c 0 _GLOBAL__sub_I_fs_missingPaks
FUNC 1b090 2e 0 _GLOBAL__sub_I__Z11Huff_putBitiPhPi
FUNC 1b0c0 2e 0 _GLOBAL__sub_I__Z8MSG_InitP5msg_tPhi
FUNC 1b0f0 2e 0 _GLOBAL__sub_I_showpackets
FUNC 1b120 2e 0 _GLOBAL__sub_I_net_enabled
FUNC 1b150 2e 0 _GLOBAL__sub_I_numtokens
FUNC 1b180 39 0 std::__cxx11::basic_string<char, std::char_traits<char>, std::allocator<char> >::basic_string
FUNC 1b1c0 201 0 _GLOBAL__sub_I_trans_manager
FUNC 1b3d0 2e 0 _GLOBAL__sub_I__ZN4rVecC2Efff
FUNC 1b400 fd 0 _GLOBAL__sub_I_numNavData
FUNC 1b500 2e 0 _GLOBAL__sub_I__Z15BotCalcSteerDirP5Bot_tR4rVec
FUNC 1b530 ad 0 _GLOBAL__sub_I_agents
FUNC 1b5e0 2e 0 _GLOBAL__sub_I__Z20SV_BotAllocateClientv
FUNC 1b610 db 0 _GLOBAL__sub_I__Z14SV_Heartbeat_fv
FUNC 1b6f0 e0 0 _GLOBAL__sub_I__Z15SV_GetChallenge8netadr_t
FUNC 1b7d0 2e 0 _GLOBAL__sub_I__Z18SV_SetConfigstringiPKc
FUNC 1b800 5ed 0 __static_initialization_and_destruction_0
FUNC 1bdf0 5 0 _GLOBAL__sub_I_svs
FUNC 1be00 2e 0 _GLOBAL__sub_I__Z20SV_Netchan_FreeQueueP8client_t
FUNC 1be30 2e 0 _GLOBAL__sub_I__Z13SV_GentityNumi
FUNC 1be60 2e 0 _GLOBAL__sub_I__Z31SV_UpdateServerCommandsToClientP8client_tP5msg_t
FUNC 1be90 39 0 std::__cxx11::basic_string<char, std::char_traits<char>, std::allocator<char> >::basic_string
FUNC 1bed0 3b2 0 __static_initialization_and_destruction_0
FUNC 1c290 5 0 _GLOBAL__sub_I__ZN9Challenge7TimeoutEv
FUNC 1c2a0 2e 0 _GLOBAL__sub_I__ZN14DebugDrawQuake4initEP19BotDebugInterface_t
FUNC 1c2d0 2e 0 _GLOBAL__sub_I__Z17GetPointPointedToP9NavData_tR4rVec
FUNC 1c300 2e 0 _GLOBAL__sub_I__Z12Cin_OGM_InitPKc
FUNC 1c330 2e 0 _GLOBAL__sub_I__Z17CL_WriteAVIHeaderv
FUNC 1c360 2e 0 _GLOBAL__sub_I__Z13CL_GetUserCmdiP9usercmd_t
FUNC 1c390 2e 0 _GLOBAL__sub_I__Z17CIN_StopCinematici
FUNC 1c3c0 10a 0 _GLOBAL__sub_I_g_console_field_width
FUNC 1c4d0 39 0 std::__cxx11::basic_string<char, std::char_traits<char>, std::allocator<char> >::basic_string
FUNC 1c510 39e 0 _GLOBAL__sub_I_downloadLogger
FUNC 1c8b0 c5 0 _GLOBAL__sub_I_frame_msec
FUNC 1c980 853 0 __static_initialization_and_destruction_0
FUNC 1d1e0 5 0 _GLOBAL__sub_I_cl_useMumble
FUNC 1d1f0 2e 0 _GLOBAL__sub_I__Z14CL_DeltaEntityP5msg_tP12clSnapshot_tiRK13entityState_t
FUNC 1d220 2e 0 _GLOBAL__sub_I_scr_initialized
FUNC 1d250 c8 0 _GLOBAL__sub_I__Z15DL_InitDownloadv
FUNC 1d320 2e 0 _GLOBAL__sub_I_com_hunkused
FUNC 1d350 2e 0 _GLOBAL__sub_I__ZN11Application6GetAppEv
FUNC 1d380 2e 0 _GLOBAL__sub_I__ZN5Audio4InitEv
FUNC 1d3b0 2e 0 _GLOBAL__sub_I__ZN8Keyboard11StringToKeyEN3Str14BasicStringRefIcEE
FUNC 1d3e0 2e 0 _GLOBAL__sub_I__Z7IN_InitPv
FUNC 1d410 2e 0 _GLOBAL__sub_I__Z11RE_Shutdownb
FUNC 1d440 2e 0 _GLOBAL__sub_I_SDLCompat.cpp
FUNC 1d470 2e 0 _GLOBAL__sub_I__ZN5Color13StrlenNocolorEPKc
FUNC 1d4a0 2e 0 _GLOBAL__sub_I__ZN3Cmd6EscapeB5cxx11EN3Str14BasicStringRefIcEE
FUNC 1d4d0 2e 0 _GLOBAL__sub_I__ZN4Cvar9CvarProxyC2ENSt7__cxx1112basic_stringIcSt11char_traitsIcESaIcEEEiS6_
FUNC 1d500 734 0 _GLOBAL__sub_I_fsLogs
FUNC 1dc40 2e 0 _GLOBAL__sub_I__ZNK3IPC8FileDesc5CloseEv
FUNC 1dc70 1879 0 __static_initialization_and_destruction_0
FUNC 1f4f0 5 0 _GLOBAL__sub_I__ZN8Keyboard3Key4NONEE
FUNC 1f500 2e 0 _GLOBAL__sub_I__ZN4Util12LineEditDataC2Ejj
FUNC 1f530 e0 0 _GLOBAL__sub_I__ZN3Log6LoggerC2EN3Str14BasicStringRefIcEENSt7__cxx1112basic_stringIcSt11char_traitsIcESaIcEEENS_5LevelE
FUNC 1f610 2e 0 _GLOBAL__sub_I__ZN3Str23AssertOnTinyFormatErrorENSt7__cxx1112basic_stringIcSt11char_traitsIcESaIcEEE
FUNC 1f640 2e 0 _GLOBAL__sub_I__ZN3Sys8SleepForENSt6chrono8durationIlSt5ratioILl1ELl1000000000EEEE
FUNC 1f670 39 0 std::__cxx11::basic_string<char, std::char_traits<char>, std::allocator<char> >::basic_string
FUNC 1f6b0 3d9 0 _GLOBAL__sub_I_cm
FUNC 1fa90 2e 0 _GLOBAL__sub_I_c_totalPatchBlocks
FUNC 1fac0 2e 0 _GLOBAL__sub_I_numPlanes
FUNC 1faf0 2e 0 _GLOBAL__sub_I_c_active_windings
FUNC 1fb20 335 0 _GLOBAL__sub_I__Z17CM_PointLeafnum_rPKfi
FUNC 1fe60 335 0 _GLOBAL__sub_I_cm_noCurves
FUNC 201a0 2e 0 _GLOBAL__sub_I__Z30CM_GenerateTriangleSoupCollideiPA3_fiPi
FUNC 201d0 2e 0 _GLOBAL__sub_I_vec3_origin
FUNC 20200 2e 0 _GLOBAL__sub_I__Z16Com_InitGrowListP10growList_ti
FUNC 20230 2e 0 _GLOBAL__sub_I__Z12Q_UTF8_WidthPKc
FUNC 20260 2e 0 _GLOBAL__sub_I__ZN11Application6TraitsC2Ev
FUNC 20290 3ad 0 _GLOBAL__sub_I__ZN3Cmd10DelayFrameEv
FUNC 20640 2e 0 _GLOBAL__sub_I__ZN3IPC17CommandBufferHostC2ENSt7__cxx1112basic_stringIcSt11char_traitsIcESaIcEEE
FUNC 20670 39 0 std::__cxx11::basic_string<char, std::char_traits<char>, std::allocator<char> >::basic_string
FUNC 206b0 607 0 __static_initialization_and_destruction_0
FUNC 20cc0 5 0 _GLOBAL__sub_I__ZN3Cmd10commandLogE
FUNC 20cd0 2e 0 _GLOBAL__sub_I__ZN2VM16CommonVMServices17HandleMiscSyscallEiRN4Util6ReaderERN3IPC7ChannelE
FUNC 20d00 2e 0 _GLOBAL__sub_I__ZN7Console5FieldC2Ei
FUNC 20d30 69 0 _GLOBAL__sub_I__ZN7Console7History5linesB5cxx11E
FUNC 20da0 39 0 std::__cxx11::basic_string<char, std::char_traits<char>, std::allocator<char> >::basic_string
FUNC 20de0 3bb 0 _GLOBAL__sub_I_crashDumpLogs
FUNC 211a0 39 0 std::__cxx11::basic_string<char, std::char_traits<char>, std::allocator<char> >::basic_string
FUNC 211e0 2fa 0 _GLOBAL__sub_I_cvar_modifiedFlags
FUNC 214e0 39 0 std::__cxx11::basic_string<char, std::char_traits<char>, std::allocator<char> >::basic_string
FUNC 21520 570 0 __static_initialization_and_destruction_0
FUNC 21a90 5 0 _GLOBAL__sub_I__ZN3Log8DispatchENS_5EventEi
FUNC 21aa0 1fc 0 main
FUNC 21ca0 b3 0 _GLOBAL__sub_I__ZN3Sys22GetSingletonSocketPathB5cxx11Ev
FUNC 21d60 2e 0 _GLOBAL__sub_I__ZN2VM12CreateNaClVMESt4pairIN3IPC6SocketES2_EN3Str14BasicStringRefIcEEbbi
FUNC 21d90 2e 0 _GLOBAL__sub_I__ZN6Crypto10RandomDataEm
FUNC 21dc0 2e 0 _GLOBAL__sub_I__ZN4Rcon7MessageC2ERK8netadr_tNSt7__cxx1112basic_stringIcSt11char_traitsIcESaIcEEENS_6SecureES9_S9_
FUNC 21df0 2e 0 _GLOBAL__sub_I__ZN3Net13OutOfBandDataE8netsrc_tRK8netadr_tPhm
FUNC 21e20 2e 0 _GLOBAL__sub_I__Z13Com_MD5BufferPKciPci
FUNC 21e50 39 0 std::__cxx11::basic_string<char, std::char_traits<char>, std::allocator<char> >::basic_string
FUNC 21e90 3cc 0 _GLOBAL__sub_I_com_ansiColor
FUNC 22260 59 0 _GLOBAL__sub_I__Z13WriteToStdoutPKc
FUNC 222c0 59 0 _GLOBAL__sub_I__Z12CON_Shutdownv
FUNC 22320 2e 0 _GLOBAL__sub_I__ZN3IPC13CommandBuffer4InitEPvm
FUNC 22350 2e 0 _GLOBAL__sub_I_log.cpp
FUNC 22380 2e 0 _GLOBAL__sub_I_po_parser.cpp
FUNC 223b0 13 0 set_fast_math
FUNC 22500 1f 0 std::__detail::_Hashtable_alloc<std::allocator<std::__detail::_Hash_node<std::pair<const std::__cxx11::basic_string<char, std::char_traits<char>, std::allocator<char> >, proxyInfo_t>, true> > >::_M_deallocate_node
FUNC 22520 c2 0 std::__cxx11::basic_string<char, std::char_traits<char>, std::allocator<char> >::_M_construct<char*>
FUNC 225f0 155 0 EscapeString
FUNC 22750 5 0 Cmd_SaveCmdContext
FUNC 22760 5 0 Cmd_RestoreCmdContext
FUNC 22770 15 0 Cmd_Argc
FUNC 22790 59 0 Cmd_Argv
FUNC 227f0 99 0 Cmd_ArgsFrom
FUNC 22890 a 0 Cmd_Args
FUNC 228a0 5 0 Cmd_QuoteString
FUNC 228b0 23 0 Cmd_QuoteStringBuffer
FUNC 228e0 16f 0 Cmd_UnquoteString
FUNC 22a50 a2 0 Cmd_TokenizeString
FUNC 22b00 da5 0 Cmd_PrintUsage
FUNC 238b0 218 0 Cmd_OnCompleteMatch
FUNC 23ad0 1bd 0 Cmd_AddCommand
FUNC 23c90 ab 0 Cmd_SetCommandCompletionFunc
FUNC 23d40 21e 0 Cmd_RemoveCommand
FUNC 23f60 3 0 std::ctype<char>::do_widen
FUNC 23f70 2 0 ProxyCmd::~ProxyCmd
FUNC 23f80 5 0 ProxyCmd::~ProxyCmd
FUNC 23f90 6e 0 std::unordered_map<std::__cxx11::basic_string<char, std::char_traits<char>, std::allocator<char> >, proxyInfo_t, Str::IHash, Str::IEqual, std::allocator<std::pair<const std::__cxx11::basic_string<char, std::char_traits<char>, std::allocator<char> >, proxyInfo_t> > >::~unordered_map
FUNC 24000 65 0 std::vector<std::pair<std::__cxx11::basic_string<char, std::char_traits<char>, std::allocator<char> >, std::__cxx11::basic_string<char, std::char_traits<char>, std::allocator<char> > >, std::allocator<std::pair<std::__cxx11::basic_string<char, std::char_traits<char>, std::allocator<char> >, std::__cxx11::basic_string<char, std::char_traits<char>, std::allocator<char> > > > >::~vector
FUNC 24070 9e 0 tinyformat::detail::FormatArg::formatImpl<char [6]>
FUNC 24110 8d 0 tinyformat::detail::FormatArg::toIntImpl<char [6]>
FUNC 241a0 8d 0 tinyformat::detail::FormatArg::toIntImpl<char const*>
FUNC 24230 174 0 tinyformat::detail::FormatArg::formatImpl<char const*>
FUNC 243b0 951 0 tinyformat::detail::streamStateFromFormat
FUNC 24d10 32 0 std::pair<std::__cxx11::basic_string<char, std::char_traits<char>, std::allocator<char> >, std::__cxx11::basic_string<char, std::char_traits<char>, std::allocator<char> > >::~pair
FUNC 24d50 34 0 std::__cxx11::basic_stringbuf<char, std::char_traits<char>, std::allocator<char> >::~basic_stringbuf
FUNC 24d90 3c 0 std::__cxx11::basic_stringbuf<char, std::char_traits<char>, std::allocator<char> >::~basic_stringbuf
FUNC 24dd0 55 0 std::vector<std::__cxx11::basic_string<char, std::char_traits<char>, std::allocator<char> >, std::allocator<std::__cxx11::basic_string<char, std::char_traits<char>, std::allocator<char> > > >::~vector
FUNC 24e30 d10 0 Log::Logger::Notice<char const (&)[6], char const*, char const*&>
FUNC 25b40 1f7 0 std::_Hashtable<std::__cxx11::basic_string<char, std::char_traits<char>, std::allocator<char> >, std::pair<const std::__cxx11::basic_string<char, std::char_traits<char>, std::allocator<char> >, proxyInfo_t>, std::allocator<std::pair<const std::__cxx11::basic_string<char, std::char_traits<char>, std::allocator<char> >, proxyInfo_t> >, std::__detail::_Select1st, Str::IEqual, Str::IHash, std::__detail::_Mod_range_hashing, std::__detail::_Default_ranged_hash, std::__detail::_Prime_rehash_policy, std::__detail::_Hashtable_traits<true, false, true> >::_M_insert_unique_node
FUNC 25d40 2af 0 std::vector<std::pair<std::__cxx11::basic_string<char, std::char_traits<char>, std::allocator<char> >, std::__cxx11::basic_string<char, std::char_traits<char>, std::allocator<char> > >, std::allocator<std::pair<std::__cxx11::basic_string<char, std::char_traits<char>, std::allocator<char> >, std::__cxx11::basic_string<char, std::char_traits<char>, std::allocator<char> > > > >::_M_emplace_back_aux<std::pair<std::__cxx11::basic_string<char, std::char_traits<char>, std::allocator<char> >, std::__cxx11::basic_string<char, std::char_traits<char>, std::allocator<char> > > >
FUNC 25ff0 c1 0 std::_Hashtable<std::__cxx11::basic_string<char, std::char_traits<char>, std::allocator<char> >, std::pair<const std::__cxx11::basic_string<char, std::char_traits<char>, std::allocator<char> >, proxyInfo_t>, std::allocator<std::pair<const std::__cxx11::basic_string<char, std::char_traits<char>, std::allocator<char> >, proxyInfo_t> >, std::__detail::_Select1st, Str::IEqual, Str::IHash, std::__detail::_Mod_range_hashing, std::__detail::_Default_ranged_hash, std::__detail::_Prime_rehash_policy, std::__detail::_Hashtable_traits<true, false, true> >::_M_find_before_node
FUNC 260c0 13f 0 std::__detail::_Map_base<std::__cxx11::basic_string<char, std::char_traits<char>, std::allocator<char> >, std::pair<const std::__cxx11::basic_string<char, std::char_traits<char>, std::allocator<char> >, proxyInfo_t>, std::allocator<std::pair<const std::__cxx11::basic_string<char, std::char_traits<char>, std::allocator<char> >, proxyInfo_t> >, std::__detail::_Select1st, Str::IEqual, Str::IHash, std::__detail::_Mod_range_hashing, std::__detail::_Default_ranged_hash, std::__detail::_Prime_rehash_policy, std::__detail::_Hashtable_traits<true, false, true>, true>::operator[]
FUNC 26200 131 0 std::__detail::_Map_base<std::__cxx11::basic_string<char, std::char_traits<char>, std::allocator<char> >, std::pair<const std::__cxx11::basic_string<char, std::char_traits<char>, std::allocator<char> >, proxyInfo_t>, std::allocator<std::pair<const std::__cxx11::basic_string<char, std::char_traits<char>, std::allocator<char> >, proxyInfo_t> >, std::__detail::_Select1st, Str::IEqual, Str::IHash, std::__detail::_Mod_range_hashing, std::__detail::_Default_ranged_hash, std::__detail::_Prime_rehash_policy, std::__detail::_Hashtable_traits<true, false, true>, true>::operator[]
FUNC 26340 56f 0 ProxyCmd::Complete
FUNC 268b0 26 0 ProxyCmd::Run
FUNC 268e0 36 0 __tcf_0
FUNC 26920 9 0 SetCheatMode
FUNC 26930 5 0 Com_In_Restart_f
FUNC 26940 d 0 Com_Crash_f
FUNC 26950 30 0 Com_Error_f
FUNC 26980 c2 0 std::__cxx11::basic_string<char, std::char_traits<char>, std::allocator<char> >::_M_construct<char*>
FUNC 26a50 8 0 Com_AreCheatsAllowed
FUNC 26a60 a0 0 Com_IsClient
FUNC 26b00 11 0 Com_IsDedicatedServer
FUNC 26b20 10 0 Com_ServerRunning
FUNC 26b30 4b 0 Com_Allocate_Aligned
FUNC 26b80 5 0 Com_Free_Aligned
FUNC 26b90 5 0 Com_Milliseconds
FUNC 26ba0 2b 0 Com_Shutdown
FUNC 26bd0 87 0 Com_QueueEvent
FUNC 26c60 2f8 0 Com_GetEvent
FUNC 26f60 92 0 Com_SetRecommended
FUNC 27000 240 0 Com_Init
FUNC 27240 95 0 Com_Freeze_f
FUNC 272e0 1ae 0 Info_Print
FUNC 27490 a4 0 Com_WriteConfigToFile
FUNC 27540 2e 0 Com_WriteConfiguration
FUNC 27570 12 0 Com_WriteConfiguration
FUNC 27590 a7 0 Com_WriteConfig_f
FUNC 27640 f3 0 Com_RunAndTimeServerPacket
FUNC 27740 1173 0 Com_EventLoop
FUNC 288c0 10a 0 Com_ModifyMsec
FUNC 289d0 68d 0 Com_Frame
FUNC 29060 a 0 std::_Function_handler<void(bool), void (*)(bool)>::_M_invoke
FUNC 29070 36 0 std::_Function_base::_Base_manager<void (*)(bool)>::_M_manager
FUNC 290b0 3 0 tinyformat::detail::FormatArg::toIntImpl<int>
FUNC 290c0 22 0 Sys::PacketEvent::~PacketEvent
FUNC 290f0 25 0 Sys::PacketEvent::~PacketEvent
FUNC 29120 22 0 Sys::ConsoleInputEvent::~ConsoleInputEvent
FUNC 29150 29 0 Sys::ConsoleInputEvent::~ConsoleInputEvent
FUNC 29180 57 0 Cvar::Cvar<bool>::~Cvar
FUNC 291e0 6c 0 Cvar::Cvar<std::__cxx11::basic_string<char, std::char_traits<char>, std::allocator<char> > >::~Cvar
FUNC 29250 57 0 Cvar::Cvar<int>::~Cvar
FUNC 292b0 7b 0 Cvar::Callback<Cvar::Cvar<bool> >::~Callback
FUNC 29330 52 0 Cvar::Cvar<int>::~Cvar
FUNC 29390 52 0 Cvar::Cvar<bool>::~Cvar
FUNC 293f0 7a 0 Cvar::Callback<Cvar::Cvar<bool> >::~Callback
FUNC 29470 6a 0 Cvar::Cvar<std::__cxx11::basic_string<char, std::char_traits<char>, std::allocator<char> > >::~Cvar
FUNC 294e0 9e 0 tinyformat::detail::FormatArg::formatImpl<char [8192]>
FUNC 29580 9e 0 tinyformat::detail::FormatArg::formatImpl<char [64]>
FUNC 29620 8d 0 tinyformat::detail::FormatArg::toIntImpl<Str::BasicStringRef<char> >
FUNC 296b0 8d 0 tinyformat::detail::FormatArg::toIntImpl<char [8192]>
FUNC 29740 8d 0 tinyformat::detail::FormatArg::toIntImpl<std::__cxx11::basic_string<char> >
FUNC 297d0 8d 0 tinyformat::detail::FormatArg::toIntImpl<char [64]>
FUNC 29860 1f 0 Cvar::Cvar<int>::GetAdditionalDescription
FUNC 29880 1f 0 Cvar::Cvar<bool>::GetAdditionalDescription
FUNC 298a0 1f 0 Cvar::Cvar<std::__cxx11::basic_string<char, std::char_traits<char>, std::allocator<char> > >::GetAdditionalDescription
FUNC 298c0 27 0 Cvar::Cvar<std::__cxx11::basic_string<char, std::char_traits<char>, std::allocator<char> > >::Validate
FUNC 298f0 27 0 Cvar::Cvar<bool>::Validate
FUNC 29920 27 0 Cvar::Cvar<int>::Validate
FUNC 29950 3a 0 Cvar::CvarProxy::~CvarProxy
FUNC 29990 3b 0 Cvar::CvarProxy::~CvarProxy
FUNC 299d0 102 0 Log::Logger::Notice<>
FUNC 29ae0 cc0 0 Log::Logger::Notice<char (&)[8192]>
FUNC 2a7a0 cc0 0 Log::Logger::Notice<char (&)[64]>
FUNC 2b460 e50 0 Log::Logger::Notice<int&, int&, int&, int&, int&, int&, int&, int&, int&>
FUNC 2c2b0 d6b 0 Log::Logger::Notice<int&, int&, int&, int&, int&>
FUNC 2d020 c1a 0 tinyformat::format<char const*>
FUNC 2dc40 f8 0 Log::Logger::Notice<char const*&>
FUNC 2dd40 c1a 0 tinyformat::format<int>
FUNC 2e960 f8 0 Log::Logger::Notice<int&>
FUNC 2ea60 f8 0 Log::Logger::Warn<int&>
FUNC 2eb60 c6a 0 tinyformat::format<std::__cxx11::basic_string<char, std::char_traits<char>, std::allocator<char> >, std::__cxx11::basic_string<char, std::char_traits<char>, std::allocator<char> >, std::__cxx11::basic_string<char, std::char_traits<char>, std::allocator<char> > >
FUNC 2f7d0 10e 0 Cvar::Cvar<std::__cxx11::basic_string<char, std::char_traits<char>, std::allocator<char> > >::GetDescription
FUNC 2f8e0 29d 0 Cvar::Cvar<std::__cxx11::basic_string<char, std::char_traits<char>, std::allocator<char> > >::Cvar
FUNC 2fb80 10e 0 Cvar::Cvar<int>::GetDescription
FUNC 2fc90 20d 0 Cvar::Cvar<int>::Cvar
FUNC 2fea0 10e 0 Cvar::Cvar<bool>::GetDescription
FUNC 2ffb0 7d 0 Cvar::Cvar<bool>::Register
FUNC 30030 37c 0 Cvar::Callback<Cvar::Cvar<bool> >::Callback<>
FUNC 303b0 1c5 0 Cvar::Cvar<bool>::Cvar
FUNC 30580 3ac 0 tinyformat::detail::formatTruncated<std::__cxx11::basic_string<char> >
FUNC 30930 1c 0 tinyformat::detail::FormatArg::formatImpl<std::__cxx11::basic_string<char> >
FUNC 30950 3a4 0 tinyformat::detail::formatTruncated<int>
FUNC 30d00 6d 0 tinyformat::detail::FormatArg::formatImpl<int>
FUNC 30d70 c4a 0 tinyformat::format<Str::BasicStringRef<char>, std::__cxx11::basic_string<char, std::char_traits<char>, std::allocator<char> > >
FUNC 319c0 304 0 Cvar::Cvar<std::__cxx11::basic_string<char, std::char_traits<char>, std::allocator<char> > >::OnValueChanged
FUNC 31cd0 1f3 0 Cvar::Cvar<int>::OnValueChanged
FUNC 31ed0 1f3 0 Cvar::Cvar<bool>::OnValueChanged
FUNC 320d0 89 0 Cvar::Callback<Cvar::Cvar<bool> >::OnValueChanged
FUNC 32160 3e4 0 tinyformat::detail::formatTruncated<Str::BasicStringRef<char> >
FUNC 32550 58 0 tinyformat::detail::FormatArg::formatImpl<Str::BasicStringRef<char> >
FUNC 325b0 8 0 qnettle_random
FUNC 325c0 128 0 Cvar_FindVar
FUNC 326f0 1c 0 Cvar_VariableValue
FUNC 32710 27 0 Cvar_VariableIntegerValue
FUNC 32740 2c 0 Cvar_VariableString
FUNC 32770 3a 0 Cvar_VariableStringBuffer
FUNC 327b0 2a8 0 Cvar_Get
FUNC 32a60 138 0 Cvar_Reset
FUNC 32ba0 238 0 Cvar_Set
FUNC 32de0 5a 0 Cvar_SetValue
FUNC 32e40 7d 0 Cvar_WriteVariables
FUNC 32ec0 9 0 Cvar_InfoString
FUNC 32ed0 15 0 FS_AllocHandle
FUNC 32ef0 67 0 FS_CheckHandle
FUNC 32f60 c2 0 std::__cxx11::basic_string<char, std::char_traits<char>, std::allocator<char> >::_M_construct<char*>
FUNC 33030 a3 0 __tcf_0
FUNC 330e0 35 0 FS_FileExists
FUNC 33120 3c 0 FS_FTell
FUNC 33160 26 0 FS_ForceFlush
FUNC 33190 12 0 FS_FreeFile
FUNC 331b0 42 0 FS_FreeFileList
FUNC 33200 492 0 FS_GetFileList
FUNC 336a0 492 0 FS_GetFileListRecursive
FUNC 33b40 127 0 FS_LoadedPaks
FUNC 33c70 202 0 FS_LoadAllMapMetadata
FUNC 33e80 c6 0 FS_Rename
FUNC 33f50 5 0 FS_SV_Rename
FUNC 33f60 4d6 0 FS_ListFiles
FUNC 34440 299 0 FS_ComparePaks
FUNC 346e0 100 0 FS_filelength
FUNC 347e0 183 0 FS_Seek
FUNC 34970 ac 0 FS_Flush
FUNC 34a20 f5 0 FS_Write
FUNC 34b20 136 0 FS_Printf
FUNC 34c60 129 0 FS_Read
FUNC 34d90 203 0 FS_DeletePaksWithBadChecksum
FUNC 34fa0 e0 0 FS_LoadPak
FUNC 35080 291 0 FS_LoadBasePak
FUNC 35320 73f 0 FS_LoadServerPaks
FUNC 35a60 325 0 FS_FCloseFile
FUNC 35d90 2f0 0 FS_FOpenFileRead
FUNC 36080 99 0 FS_ReadFile
FUNC 36120 12f 0 FS_WriteFile
FUNC 36250 a6 0 FS_Delete
FUNC 36300 151 0 FS_FOpenFileAppend
FUNC 36460 3bb 0 FS_FOpenFileWrite_internal
FUNC 36820 a 0 FS_FOpenFileWriteViaTemporary
FUNC 36830 7 0 FS_SV_FOpenFileWrite
FUNC 36850 431 0 FS_Game_FOpenFileByMode
FUNC 36c90 4 0 tinyformat::detail::FormatArg::toIntImpl<long int>
FUNC 36ca0 2 0 DirCmd::~DirCmd
FUNC 36cb0 2 0 ListPathsCmd::~ListPathsCmd
FUNC 36cc0 2 0 WhichCmd::~WhichCmd
FUNC 36cd0 5 0 DirCmd::~DirCmd
FUNC 36ce0 5 0 ListPathsCmd::~ListPathsCmd
FUNC 36cf0 5 0 WhichCmd::~WhichCmd
FUNC 36d00 8a 0 WhichCmd::Complete
FUNC 36d90 65 0 std::vector<missingPak_t, std::allocator<missingPak_t> >::~vector
FUNC 36e00 9e 0 tinyformat::detail::FormatArg::formatImpl<char [13]>
FUNC 36ea0 8d 0 tinyformat::detail::FormatArg::toIntImpl<char [13]>
FUNC 36f30 32 0 FS::PakPath::DirectoryRange::~DirectoryRange
FUNC 36f70 a5 0 FS::RawPath::DirectoryRange::~DirectoryRange
FUNC 37020 32 0 missingPak_t::~missingPak_t
FUNC 37060 fc 0 WhichCmd::WhichCmd
FUNC 37160 fc 0 ListPathsCmd::ListPathsCmd
FUNC 37260 fc 0 DirCmd::DirCmd
FUNC 37360 802 0 tinyformat::detail::formatImpl
FUNC 37b70 ad 0 Cmd::CmdBase::Print<>
FUNC 37c20 428 0 DirCmd::Run
FUNC 38050 4c4 0 Log::Logger::Debug<char const*&, std::__cxx11::basic_string<char, std::char_traits<char>, std::allocator<char> > >
FUNC 38520 4d0 0 Log::Logger::Warn<char const*&, int&>
FUNC 389f0 4d0 0 Log::Logger::Warn<char const*&, long int&>
FUNC 38ec0 4e7 0 Log::Logger::Notice<char const*&, char const*&, char const*>
FUNC 393b0 ea 0 std::vector<char*, std::allocator<char*> >::_M_emplace_back_aux<char* const&>
FUNC 394a0 4d0 0 Log::Logger::Notice<char const*, char const (&)[13]>
FUNC 39970 3a3 0 tinyformat::format<std::__cxx11::basic_string<char, std::char_traits<char>, std::allocator<char> > >
FUNC 39d20 a2 0 Cmd::CmdBase::Print<const std::__cxx11::basic_string<char, std::char_traits<char>, std::allocator<char> >&>
FUNC 39dd0 61 0 ListPathsCmd::Run
FUNC 39e40 4f 0 Sys::Drop<char const*>
FUNC 39e90 f8 0 Log::Logger::Notice<char const*>
FUNC 39f90 4f 0 Sys::Error<char const*>
FUNC 39fe0 f8 0 Log::Logger::Warn<char const*&>
FUNC 3a0e0 c1a 0 tinyformat::format<char [13]>
FUNC 3ad00 2f6 0 std::vector<missingPak_t, std::allocator<missingPak_t> >::_M_emplace_back_aux<missingPak_t>
FUNC 3b000 cd 0 std::vector<missingPak_t, std::allocator<missingPak_t> >::emplace_back<missingPak_t>
FUNC 3b0d0 c4a 0 tinyformat::format<std::__cxx11::basic_string<char, std::char_traits<char>, std::allocator<char> >, char const*>
FUNC 3bd20 c4a 0 tinyformat::format<std::__cxx11::basic_string<char, std::char_traits<char>, std::allocator<char> >, std::__cxx11::basic_string<char, std::char_traits<char>, std::allocator<char> > >
FUNC 3c970 136 0 WhichCmd::Run
FUNC 3cab0 c4a 0 tinyformat::format<char const*, char const*>
FUNC 3d700 fa 0 Log::Logger::Debug<char const*&, char const*>
FUNC 3d800 fb 0 Log::Logger::Warn<char const*&, char const*>
FUNC 3d900 fb 0 Log::Logger::Notice<char const*, char const*>
FUNC 3da00 3a4 0 tinyformat::detail::formatTruncated<long int>
FUNC 3ddb0 6d 0 tinyformat::detail::FormatArg::formatImpl<long int>
FUNC 3de20 7e 0 swaplist
FUNC 3dea0 1b8 0 increment
FUNC 3e060 97 0 send
FUNC 3e100 46 0 Huff_putBit
FUNC 3e150 23 0 Huff_getBit
FUNC 3e180 31f 0 Huff_addRef
FUNC 3e4a0 6a 0 Huff_Receive
FUNC 3e510 74 0 Huff_offsetReceive
FUNC 3e590 a3 0 Huff_transmit
FUNC 3e640 3b 0 Huff_offsetTransmit
FUNC 3e680 239 0 Huff_Decompress
FUNC 3e8c0 13e 0 Huff_Compress
FUNC 3ea00 10d 0 Huff_Init
FUNC 3eb10 2c 0 qsort_entitystatefields
FUNC 3eb40 2c 0 qsort_playerstatefields
FUNC 3eb70 c2 0 std::__cxx11::basic_string<char, std::char_traits<char>, std::allocator<char> >::_M_construct<char*>
FUNC 3ec40 13 0 MSG_Clear
FUNC 3ec60 5 0 MSG_Bitstream
FUNC 3ec70 13 0 MSG_BeginReading
FUNC 3ec90 13 0 MSG_BeginReadingOOB
FUNC 3ecb0 11 0 MSG_BeginReadingUncompressed
FUNC 3ece0 89 0 MSG_initHuffman
FUNC 3ed70 45 0 MSG_Init
FUNC 3edc0 49 0 MSG_InitOOB
FUNC 3ee10 fd 0 MSG_PrioritiseEntitystateFields
FUNC 3ef10 fd 0 MSG_PrioritisePlayerStateFields
FUNC 3f010 c5 0 MSG_Copy
FUNC 3f0e0 1b6 0 MSG_WriteBits
FUNC 3f2a0 a 0 MSG_WriteByte
FUNC 3f2c0 3f 0 MSG_WriteData
FUNC 3f300 cd 0 MSG_WriteString
FUNC 3f3d0 cd 0 MSG_WriteBigString
FUNC 3f4a0 a 0 MSG_WriteShort
FUNC 3f4b0 a 0 MSG_WriteLong
FUNC 3f4c0 e 0 MSG_WriteFloat
FUNC 3f4d0 3c 0 MSG_WriteDelta
FUNC 3f510 4c 0 MSG_WriteDeltaFloat
FUNC 3f560 1c7 0 MSG_WriteDeltaUsercmd
FUNC 3f730 1d9 0 MSG_ReadBits
FUNC 3f910 21 0 MSG_ReadChar
FUNC 3f940 21 0 MSG_ReadByte
FUNC 3f970 6e 0 MSG_ReadString
FUNC 3f9e0 6e 0 MSG_ReadBigString
FUNC 3fa50 7f 0 MSG_ReadStringLine
FUNC 3fad0 57 0 MSG_ReadData
FUNC 3fb30 1f 0 MSG_ReadShort
FUNC 3fb50 37 0 MSG_ReadAngle16
FUNC 3fb90 1e 0 MSG_ReadLong
FUNC 3fbb0 32 0 MSG_ReadFloat
FUNC 3fbf0 37 0 MSG_ReadDelta
FUNC 3fc30 3f 0 MSG_ReadDeltaFloat
FUNC 3fc70 1f4 0 MSG_ReadDeltaUsercmd
FUNC 3fe70 312 0 MSG_WriteDeltaEntity
FUNC 40190 593 0 MSG_ReadDeltaPlayerstate
FUNC 40730 487 0 MSG_ReadDeltaEntity
FUNC 40bc0 4a9 0 MSG_WriteDeltaPlayerstate
FUNC 41070 5 0 tinyformat::detail::FormatArg::toIntImpl<float>
FUNC 41080 9e 0 tinyformat::detail::FormatArg::formatImpl<char [8]>
FUNC 41120 9e 0 tinyformat::detail::FormatArg::formatImpl<char [9]>
FUNC 411c0 9e 0 tinyformat::detail::FormatArg::formatImpl<char [14]>
FUNC 41260 8d 0 tinyformat::detail::FormatArg::toIntImpl<char [9]>
FUNC 412f0 8d 0 tinyformat::detail::FormatArg::toIntImpl<char [8]>
FUNC 41380 8d 0 tinyformat::detail::FormatArg::toIntImpl<char [14]>
FUNC 41410 cf0 0 Log::Logger::Notice<char const*&, int&>
FUNC 42100 cf0 0 Log::Logger::Notice<char const*&, float&>
FUNC 42df0 cc0 0 Log::Logger::Notice<char const (&)[9]>
FUNC 43ab0 cc0 0 Log::Logger::Notice<char const (&)[14]>
FUNC 44770 cc0 0 Log::Logger::Notice<char const (&)[8]>
FUNC 45430 c4a 0 tinyformat::format<int, int>
FUNC 46080 fb 0 Log::Logger::Notice<int&, int&>
FUNC 46180 4f 0 Sys::Drop<int&>
FUNC 461d0 3ac 0 tinyformat::detail::formatTruncated<float>
FUNC 46580 6f 0 tinyformat::detail::FormatArg::formatImpl<float>
FUNC 465f0 103 0 NET_QueuePacket
FUNC 46700 c2 0 std::__cxx11::basic_string<char, std::char_traits<char>, std::allocator<char> >::_M_construct<char*>
FUNC 467d0 6f 0 Netchan_Init
FUNC 46840 5f 0 Netchan_Setup
FUNC 468a0 c0 0 NET_GetLoopPacket
FUNC 46960 52 0 NET_SendLoopPacket
FUNC 469c0 1eb 0 NET_StringToAdr
FUNC 46bb0 50c 0 Netchan_Process
FUNC 470c0 184 0 NET_SendPacket
FUNC 47250 1a8 0 Netchan_TransmitNextFragment
FUNC 47400 1e2 0 Netchan_Transmit
FUNC 475f0 d6b 0 Log::Logger::Notice<char const* const&, int&, int&, int&, int&>
FUNC 48360 d56 0 Log::Logger::Notice<char const* const&, int&, int, int&>
FUNC 490c0 d10 0 Log::Logger::Notice<char const*, int&, int&>
FUNC 49dd0 cf0 0 Log::Logger::Notice<char const*, int&>
FUNC 4aac0 25 0 SockadrToNetadr
FUNC 4aaf0 c2 0 std::__cxx11::basic_string<char, std::char_traits<char>, std::allocator<char> >::_M_construct<char*>
FUNC 4abc0 14 0 NET_ErrorString
FUNC 4abe0 fa 0 NetadrToSockadr
FUNC 4ace0 46 0 Sys_SockaddrToString
FUNC 4ad30 dc 0 NET_AdrToString
FUNC 4ae10 1a7 0 NET_AdrToStringwPort
FUNC 4afc0 9 0 NET_IsLocalAddress
FUNC 4afd0 135 0 Sys_IsLANAddress
FUNC 4b110 4e 0 NET_LeaveMulticast6
FUNC 4b160 1ac 0 NET_Sleep
FUNC 4b310 226 0 NET_CompareBaseAdrMask
FUNC 4b540 84 0 NET_CompareBaseAdr
FUNC 4b5d0 13b 0 NET_CompareAdr
FUNC 4b710 be 0 Sys_ShowIP
FUNC 4b7d0 3dd 0 Sys_GetPacket
FUNC 4bbb0 339 0 Sys_SendPacket
FUNC 4bef0 2b6 0 Sys_StringToSockaddr
FUNC 4c1b0 bb 0 Sys_StringToAdr
FUNC 4c270 da 0 NET_SetMulticast6
FUNC 4c350 317 0 NET_IPSocket
FUNC 4c670 433 0 NET_IP6Socket
FUNC 4cab0 1f6 0 NET_JoinMulticast6
FUNC 4ccb0 521 0 NET_OpenSocks
FUNC 4d1e0 7e1 0 NET_Config
FUNC 4d9d0 25 0 NET_Init
FUNC 4da00 17 0 NET_Shutdown
FUNC 4da20 a 0 NET_Restart_f
FUNC 4da30 4 0 tinyformat::detail::FormatArg::toIntImpl<short unsigned int>
FUNC 4da40 4 0 tinyformat::detail::FormatArg::toIntImpl<unsigned char>
FUNC 4da50 6c 0 tinyformat::detail::FormatArg::formatImpl<unsigned char>
FUNC 4dac0 8d 0 tinyformat::detail::FormatArg::toIntImpl<char*>
FUNC 4db50 8d 0 tinyformat::detail::FormatArg::toIntImpl<char [48]>
FUNC 4dbe0 9e 0 tinyformat::detail::FormatArg::formatImpl<char [48]>
FUNC 4dc80 174 0 tinyformat::detail::FormatArg::formatImpl<char*>
FUNC 4de00 cf0 0 Log::Logger::Notice<short unsigned int&, char const*>
FUNC 4eaf0 cc0 0 Log::Logger::Notice<char (&)[48]>
FUNC 4f7b0 d56 0 Log::Logger::Notice<char const*, char const*, char const*, char const*>
FUNC 50510 cc0 0 Log::Logger::Warn<char*&>
FUNC 511d0 102 0 Log::Logger::Warn<>
FUNC 512e0 cc0 0 Log::Logger::Notice<unsigned char&>
FUNC 51fa0 f8 0 Log::Logger::Warn<char const*>
FUNC 520a0 3a4 0 tinyformat::detail::formatTruncated<short unsigned int>
FUNC 52450 6e 0 tinyformat::detail::FormatArg::formatImpl<short unsigned int>
FUNC 524c0 53 0 Parse_AddDefineToHash
FUNC 52520 8d 0 Parse_FindHashedDefine
FUNC 525b0 5c 0 Parse_PopIndent
FUNC 52610 1e 0 Parse_FreeScript
FUNC 52630 69 0 Parse_FreeDefine
FUNC 526a0 50 0 Parse_PushIndent
FUNC 526f0 3f 0 Parse_StripDoubleQuotes
FUNC 52730 50 0 Parse_ConvertPath
FUNC 52780 106 0 Parse_ReadWhiteSpace
FUNC 52890 4b 0 Parse_CopyToken
FUNC 528e0 b8 0 Parse_UnreadSignToken
FUNC 529a0 c2 0 std::__cxx11::basic_string<char, std::char_traits<char>, std::allocator<char> >::_M_construct<char*>
FUNC 52a70 13b 0 Parse_CreatePunctuationTable
FUNC 52bb0 c1 0 Parse_LoadScriptMemory
FUNC 52c80 111 0 Parse_LoadScriptFile
FUNC 52da0 235 0 Parse_LoadSourceHandle
FUNC 52fe0 142 0 Parse_FreeSourceHandle
FUNC 53130 73 0 Parse_SourceFileAndLine
FUNC 531b0 117 0 Parse_SourceWarning
FUNC 532d0 bcc 0 Parse_EvaluateTokens
FUNC 53ea0 19 0 Parse_Directive_line
FUNC 53ec0 78 0 Parse_PushScript
FUNC 53f40 68 0 Parse_Directive_endif
FUNC 53fb0 a2 0 Parse_Directive_else
FUNC 54060 128 0 Parse_ScriptError
FUNC 54190 122 0 Parse_ScriptWarning
FUNC 542c0 3c4 0 Parse_ReadString
FUNC 54690 b1a 0 Parse_ReadSourceToken
FUNC 551b0 82 0 Parse_ReadLine
FUNC 55240 66 0 Parse_Directive_pragma
FUNC 552b0 1b4 0 Parse_Directive_undef
FUNC 55470 15 0 Parse_Directive_undef
FUNC 55490 f2 0 Parse_Directive_if_def
FUNC 55590 a 0 Parse_Directive_ifndef
FUNC 555a0 a 0 Parse_Directive_ifdef
FUNC 555b0 63 0 Parse_Directive_error
FUNC 55620 200 0 Parse_Directive_include
FUNC 55820 15 0 Parse_Directive_include
FUNC 55840 905 0 Parse_ExpandDefine
FUNC 56150 79 0 Parse_ExpandDefineIntoSource
FUNC 561d0 3c7 0 Parse_DollarEvaluate
FUNC 565a0 17e 0 Parse_DollarDirective_evalfloat
FUNC 56720 146 0 Parse_DollarDirective_evalint
FUNC 56870 33f 0 Parse_Evaluate
FUNC 56bb0 129 0 Parse_Directive_evalfloat
FUNC 56ce0 127 0 Parse_Directive_eval
FUNC 56e10 a8 0 Parse_Directive_elif
FUNC 56ec0 62 0 Parse_Directive_if
FUNC 56f30 7ae 0 Parse_ReadToken
FUNC 576e0 d8 0 Parse_ReadTokenHandle
FUNC 577c0 51e 0 Parse_Directive_define
FUNC 57ce0 15 0 Parse_Directive_define
FUNC 57d00 156 0 Parse_DefineFromString
FUNC 57e60 ac 0 Parse_AddGlobalDefine
FUNC 57f10 9e 0 tinyformat::detail::FormatArg::formatImpl<char [1024]>
FUNC 57fb0 8d 0 tinyformat::detail::FormatArg::toIntImpl<char [1024]>
FUNC 58040 d10 0 Log::Logger::Notice<char (&)[1024], int&, char (&)[1024]>
FUNC 58d50 35 0 __tcf_0
FUNC 58d90 c2 0 std::__cxx11::basic_string<char, std::char_traits<char>, std::allocator<char> >::_M_construct<char*>
FUNC 58e60 106 0 Trans_Gettext_Internal
FUNC 58f70 17c 0 Trans_Pgettext_Internal
FUNC 590f0 189 0 Trans_GettextPlural_Internal
FUNC 59280 c 0 Trans_Gettext
FUNC 59290 c 0 Trans_Pgettext
FUNC 592a0 c 0 Trans_GettextPlural
FUNC 592b0 c 0 Trans_GettextGame
FUNC 592c0 c 0 Trans_PgettextGame
FUNC 592d0 c 0 Trans_GettextGamePlural
FUNC 592e0 50 0 Trans_Error
FUNC 59330 5e 0 Trans_Warning
FUNC 59390 30 0 Trans_Info
FUNC 593c0 375 0 Trans_SetLanguage
FUNC 59740 10 0 Trans_UpdateLanguage_f
FUNC 59750 d0 0 Trans_LoadDefaultLanguage
FUNC 59820 554 0 Trans_Init
FUNC 59d80 4 0 tinyformat::detail::FormatArg::toIntImpl<long unsigned int>
FUNC 59d90 2 0 DaemonFileSystem::~DaemonFileSystem
FUNC 59da0 5 0 DaemonFileSystem::~DaemonFileSystem
FUNC 59db0 40 0 DaemonIstream::~DaemonIstream
FUNC 59e00 2e 0 DaemonInputbuf::~DaemonInputbuf
FUNC 59e30 1a1 0 DaemonFileSystem::open_file
FUNC 59fe0 85 0 Log::Logger::~Logger
FUNC 5a070 36 0 DaemonInputbuf::~DaemonInputbuf
FUNC 5a0b0 48 0 DaemonIstream::~DaemonIstream
FUNC 5a110 cf0 0 Log::Logger::Warn<char const*, char const*&>
FUNC 5ae00 cf0 0 Log::Logger::Notice<long unsigned int, char const*>
FUNC 5baf0 36 0 std::_Rb_tree<tinygettext::Language, tinygettext::Language, std::_Identity<tinygettext::Language>, std::less<tinygettext::Language>, std::allocator<tinygettext::Language> >::_M_erase
FUNC 5bb30 1ea 0 std::vector<std::__cxx11::basic_string<char, std::char_traits<char>, std::allocator<char> >, std::allocator<std::__cxx11::basic_string<char, std::char_traits<char>, std::allocator<char> > > >::_M_emplace_back_aux<std::__cxx11::basic_string<char, std::char_traits<char>, std::allocator<char> > >
FUNC 5bd20 1d6 0 DaemonFileSystem::open_directory
FUNC 5bf00 3a4 0 tinyformat::detail::formatTruncated<long unsigned int>
FUNC 5c2b0 6d 0 tinyformat::detail::FormatArg::formatImpl<long unsigned int>
FUNC 5c320 f 0 rVec::rVec
FUNC 5c330 1d 0 rVec::rVec
FUNC 5c350 2d 0 rVec::rVec
FUNC 5c380 f 0 qVec::qVec
FUNC 5c390 1d 0 qVec::qVec
FUNC 5c3b0 2d 0 qVec::qVec
FUNC 5c3e0 a3 0 rBounds::rBounds
FUNC 5c490 23 0 rBounds::rBounds
FUNC 5c4c0 60 0 rBounds::addPoint
FUNC 5c520 2e 0 rBounds::clear
FUNC 5c550 52 0 botRouteTargetInternal::botRouteTargetInternal
FUNC 5c5b0 2 0 __tcf_0
FUNC 5c5c0 c2 0 std::__cxx11::basic_string<char, std::char_traits<char>, std::allocator<char> >::_M_construct<char*>
FUNC 5c690 2 0 BotInit
FUNC 5c6a0 1f6 0 BotSaveOffMeshConnections
FUNC 5c8a0 165 0 BotLoadOffMeshConnections
FUNC 5ca10 e9 0 BotShutdownNav
FUNC 5cb00 46d 0 BotLoadNavMesh
FUNC 5cf70 28e 0 BotSetupNav
FUNC 5d200 2 0 dtTileCacheAlloc::~dtTileCacheAlloc
FUNC 5d210 2 0 dtTileCacheAlloc::reset
FUNC 5d220 15 0 FastLZCompressor::maxCompressedSize
FUNC 5d240 d0 0 MeshProcess::process
FUNC 5d310 2 0 LinearAllocator::~LinearAllocator
FUNC 5d320 1a 0 LinearAllocator::reset
FUNC 5d340 23 0 LinearAllocator::alloc
FUNC 5d370 2 0 LinearAllocator::free
FUNC 5d380 2 0 MeshProcess::~MeshProcess
FUNC 5d390 2 0 FastLZCompressor::~FastLZCompressor
FUNC 5d3a0 25 0 FastLZCompressor::decompress
FUNC 5d3d0 1a 0 FastLZCompressor::compress
FUNC 5d3f0 5 0 LinearAllocator::~LinearAllocator
FUNC 5d400 5 0 dtTileCacheAlloc::~dtTileCacheAlloc
FUNC 5d410 5 0 MeshProcess::~MeshProcess
FUNC 5d420 5 0 FastLZCompressor::~FastLZCompressor
FUNC 5d430 d 0 dtTileCacheAlloc::alloc
FUNC 5d440 8 0 dtTileCacheAlloc::free
FUNC 5d450 5 0 dtFreeCustom
FUNC 5d460 a 0 dtAllocCustom
FUNC 5d470 cf0 0 Log::Logger::Warn<int&, int const&>
FUNC 5e160 163 0 BotCalcSteerDir
FUNC 5e2d0 a9 0 PointInPolyExtents
FUNC 5e380 7c 0 PointInPoly
FUNC 5e400 fc 0 BotFindNearestPoly
FUNC 5e500 292 0 FindRoute
FUNC 5e7a0 50 0 FindWaypoints
FUNC 5e7f0 1e 0 frand
FUNC 5e810 34 0 __tcf_0
FUNC 5e850 30a 0 BotSetPolyFlags
FUNC 5eb60 87 0 BotDisableArea
FUNC 5ebf0 8a 0 BotEnableArea
FUNC 5ec80 1af 0 BotSetNavMesh
FUNC 5ee30 68 0 GetEntPosition
FUNC 5eea0 52 0 GetEntPosition
FUNC 5ef00 b5 0 BotFindRouteExt
FUNC 5efc0 cd 0 UpdatePathCorridor
FUNC 5f090 7dc 0 BotUpdateCorridor
FUNC 5f870 11f 0 BotFindRandomPointInRadius
FUNC 5f990 84 0 BotFindRandomPoint
FUNC 5fa20 1b2 0 BotNavTrace
FUNC 5fbe0 15d 0 BotAddObstacle
FUNC 5fd40 4f 0 BotRemoveObstacle
FUNC 5fd90 52 0 BotUpdateObstacles
FUNC 5fdf0 c2 0 std::__cxx11::basic_string<char, std::char_traits<char>, std::allocator<char> >::_M_construct<char*>
FUNC 5fec0 ac 0 SV_BotAllocateClient
FUNC 5ff70 14 0 SV_IsBot
FUNC 5ff90 53 0 SV_BotGetConsoleMessage
FUNC 5fff0 aa 0 SV_BotFreeClient
FUNC 600a0 b 0 SV_Heartbeat_f
FUNC 600b0 12 0 SV_FieldInfo_f
FUNC 600d0 c2 0 std::__cxx11::basic_string<char, std::char_traits<char>, std::allocator<char> >::_M_construct<char*>
FUNC 601a0 77 0 SV_AddOperatorCommands
FUNC 60220 50 0 SV_RemoveOperatorCommands
FUNC 60270 21 0 SV_Serverinfo_f
FUNC 602a0 4a 0 SV_Systeminfo_f
FUNC 602f0 4d 0 SV_Serverinfo_f
FUNC 60340 3c5 0 SV_MapRestart_f
FUNC 60710 2 0 StatusCmd::~StatusCmd
FUNC 60720 2 0 MapCmd::~MapCmd
FUNC 60730 5 0 StatusCmd::~StatusCmd
FUNC 60740 5 0 MapCmd::~MapCmd
FUNC 60750 9e 0 tinyformat::detail::FormatArg::formatImpl<char [40]>
FUNC 607f0 9e 0 tinyformat::detail::FormatArg::formatImpl<char [128]>
FUNC 60890 8d 0 tinyformat::detail::FormatArg::toIntImpl<char [128]>
FUNC 60920 8d 0 tinyformat::detail::FormatArg::toIntImpl<char [40]>
FUNC 609b0 108 0 MapCmd::MapCmd
FUNC 60ac0 fc 0 StatusCmd::StatusCmd
FUNC 60bc0 ec 0 __gnu_cxx::__to_xstring<std::__cxx11::basic_string<char>, char>
FUNC 60cb0 48 0 std::_Rb_tree<std::__cxx11::basic_string<char, std::char_traits<char>, std::allocator<char> >, std::__cxx11::basic_string<char, std::char_traits<char>, std::allocator<char> >, std::_Identity<std::__cxx11::basic_string<char, std::char_traits<char>, std::allocator<char> > >, std::less<std::__cxx11::basic_string<char, std::char_traits<char>, std::allocator<char> > >, std::allocator<std::__cxx11::basic_string<char, std::char_traits<char>, std::allocator<char> > > >::_M_erase
FUNC 60d00 3fa 0 MapCmd::Run
FUNC 61100 2c39 0 StatusCmd::Run
FUNC 63d40 4ab 0 MapCmd::Complete
FUNC 641f0 c2 0 std::__cxx11::basic_string<char, std::char_traits<char>, std::allocator<char> >::_M_construct<char*>
FUNC 642c0 a9 0 SV_CloseDownload
FUNC 64370 75 0 SV_BeginDownload_f
FUNC 643f0 12 0 SV_FreeClient
FUNC 64410 3e 0 SV_BadDownload
FUNC 64450 248 0 SV_UserinfoChanged
FUNC 646a0 77 0 SV_UpdateUserinfo_f
FUNC 64720 55 0 SV_ClientThink
FUNC 64780 f7 0 SV_GetChallenge
FUNC 64880 276 0 SV_ExecuteClientCommand
FUNC 64b00 16a 0 SV_DropClient
FUNC 64c70 12 0 SV_DropClient
FUNC 64c90 1a 0 SV_Disconnect_f
FUNC 64cb0 26b 0 SV_ClientCommand
FUNC 64f20 c0 0 SV_ClientEnterWorld
FUNC 64fe0 219 0 SV_UserMove
FUNC 65200 1784 0 SV_DirectConnect
FUNC 66990 231 0 SV_SendClientGameState
FUNC 66bd0 3a 0 SV_DoneDownload_f
FUNC 66c10 274 0 SV_ExecuteClientMessage
FUNC 66e90 88 0 SV_StopDownload_f
FUNC 66f20 16b 0 SV_NextDownload_f
FUNC 67090 1fb 0 SV_WWWDownload_f
FUNC 67290 c96 0 SV_WriteDownloadToClient
FUNC 67f30 9e 0 tinyformat::detail::FormatArg::formatImpl<char [256]>
FUNC 67fd0 8d 0 tinyformat::detail::FormatArg::toIntImpl<char [256]>
FUNC 68060 4f 0 FS::File::~File
FUNC 680b0 de8 0 Net::OutOfBandPrint<std::__cxx11::basic_string<char, std::char_traits<char>, std::allocator<char> >&>
FUNC 68ea0 20c 0 Net::OutOfBandPrint<>
FUNC 690b0 de8 0 Net::OutOfBandPrint<char*&>
FUNC 69ea0 101 0 Log::Logger::Debug<>
FUNC 69fb0 5a 0 std::_Rb_tree<std::__cxx11::basic_string<char, std::char_traits<char>, std::allocator<char> >, std::pair<const std::__cxx11::basic_string<char, std::char_traits<char>, std::allocator<char> >, std::__cxx11::basic_string<char, std::char_traits<char>, std::allocator<char> > >, std::_Select1st<std::pair<const std::__cxx11::basic_string<char, std::char_traits<char>, std::allocator<char> >, std::__cxx11::basic_string<char, std::char_traits<char>, std::allocator<char> > > >, std::less<std::__cxx11::basic_string<char, std::char_traits<char>, std::allocator<char> > >, std::allocator<std::pair<const std::__cxx11::basic_string<char, std::char_traits<char>, std::allocator<char> >, std::__cxx11::basic_string<char, std::char_traits<char>, std::allocator<char> > > > >::_M_erase
FUNC 6a010 4c4 0 Log::Logger::Debug<int&, long int>
FUNC 6a4e0 4d0 0 Log::Logger::Notice<char const*&, char (&)[128]>
FUNC 6a9b0 4d0 0 Log::Logger::Notice<char (&)[128], char*&>
FUNC 6ae80 4c4 0 Log::Logger::Debug<char (&)[128], char const*>
FUNC 6b350 4f6 0 Log::Logger::Debug<char (&)[128], int&, char*&>
FUNC 6b850 4d0 0 Log::Logger::Notice<char (&)[128], int>
FUNC 6bd20 fa 0 Log::Logger::Debug<int, int&>
FUNC 6be20 222 0 std::_Rb_tree<std::__cxx11::basic_string<char, std::char_traits<char>, std::allocator<char> >, std::pair<const std::__cxx11::basic_string<char, std::char_traits<char>, std::allocator<char> >, std::__cxx11::basic_string<char, std::char_traits<char>, std::allocator<char> > >, std::_Select1st<std::pair<const std::__cxx11::basic_string<char, std::char_traits<char>, std::allocator<char> >, std::__cxx11::basic_string<char, std::char_traits<char>, std::allocator<char> > > >, std::less<std::__cxx11::basic_string<char, std::char_traits<char>, std::allocator<char> > >, std::allocator<std::pair<const std::__cxx11::basic_string<char, std::char_traits<char>, std::allocator<char> >, std::__cxx11::basic_string<char, std::char_traits<char>, std::allocator<char> > > > >::equal_range
FUNC 6c050 ed 0 std::_Rb_tree<std::__cxx11::basic_string<char, std::char_traits<char>, std::allocator<char> >, std::pair<const std::__cxx11::basic_string<char, std::char_traits<char>, std::allocator<char> >, std::__cxx11::basic_string<char, std::char_traits<char>, std::allocator<char> > >, std::_Select1st<std::pair<const std::__cxx11::basic_string<char, std::char_traits<char>, std::allocator<char> >, std::__cxx11::basic_string<char, std::char_traits<char>, std::allocator<char> > > >, std::less<std::__cxx11::basic_string<char, std::char_traits<char>, std::allocator<char> > >, std::allocator<std::pair<const std::__cxx11::basic_string<char, std::char_traits<char>, std::allocator<char> >, std::__cxx11::basic_string<char, std::char_traits<char>, std::allocator<char> > > > >::erase
FUNC 6c140 c1a 0 tinyformat::format<char [1024]>
FUNC 6cd60 20c 0 Net::OutOfBandPrint<char (&)[1024]>
FUNC 6cf70 eb 0 Log::Logger::Debug<char (&)[1024]>
FUNC 6d060 147 0 std::_Rb_tree<std::__cxx11::basic_string<char, std::char_traits<char>, std::allocator<char> >, std::pair<const std::__cxx11::basic_string<char, std::char_traits<char>, std::allocator<char> >, std::__cxx11::basic_string<char, std::char_traits<char>, std::allocator<char> > >, std::_Select1st<std::pair<const std::__cxx11::basic_string<char, std::char_traits<char>, std::allocator<char> >, std::__cxx11::basic_string<char, std::char_traits<char>, std::allocator<char> > > >, std::less<std::__cxx11::basic_string<char, std::char_traits<char>, std::allocator<char> > >, std::allocator<std::pair<const std::__cxx11::basic_string<char, std::char_traits<char>, std::allocator<char> >, std::__cxx11::basic_string<char, std::char_traits<char>, std::allocator<char> > > > >::_M_get_insert_unique_pos
FUNC 6d1b0 2aa 0 std::_Rb_tree<std::__cxx11::basic_string<char, std::char_traits<char>, std::allocator<char> >, std::pair<const std::__cxx11::basic_string<char, std::char_traits<char>, std::allocator<char> >, std::__cxx11::basic_string<char, std::char_traits<char>, std::allocator<char> > >, std::_Select1st<std::pair<const std::__cxx11::basic_string<char, std::char_traits<char>, std::allocator<char> >, std::__cxx11::basic_string<char, std::char_traits<char>, std::allocator<char> > > >, std::less<std::__cxx11::basic_string<char, std::char_traits<char>, std::allocator<char> > >, std::allocator<std::pair<const std::__cxx11::basic_string<char, std::char_traits<char>, std::allocator<char> >, std::__cxx11::basic_string<char, std::char_traits<char>, std::allocator<char> > > > >::_M_get_insert_hint_unique_pos
FUNC 6d460 184 0 std::_Rb_tree<std::__cxx11::basic_string<char, std::char_traits<char>, std::allocator<char> >, std::pair<const std::__cxx11::basic_string<char, std::char_traits<char>, std::allocator<char> >, std::__cxx11::basic_string<char, std::char_traits<char>, std::allocator<char> > >, std::_Select1st<std::pair<const std::__cxx11::basic_string<char, std::char_traits<char>, std::allocator<char> >, std::__cxx11::basic_string<char, std::char_traits<char>, std::allocator<char> > > >, std::less<std::__cxx11::basic_string<char, std::char_traits<char>, std::allocator<char> > >, std::allocator<std::pair<const std::__cxx11::basic_string<char, std::char_traits<char>, std::allocator<char> >, std::__cxx11::basic_string<char, std::char_traits<char>, std::allocator<char> > > > >::_M_emplace_hint_unique<const std::piecewise_construct_t&, std::tuple<std::__cxx11::basic_string<char, std::char_traits<char>, std::allocator<char> >&&>, std::tuple<> >
FUNC 6d5f0 157 0 std::map<std::__cxx11::basic_string<char, std::char_traits<char>, std::allocator<char> >, std::__cxx11::basic_string<char, std::char_traits<char>, std::allocator<char> >, std::less<std::__cxx11::basic_string<char, std::char_traits<char>, std::allocator<char> > >, std::allocator<std::pair<const std::__cxx11::basic_string<char, std::char_traits<char>, std::allocator<char> >, std::__cxx11::basic_string<char, std::char_traits<char>, std::allocator<char> > > > >::operator[]
FUNC 6d750 eb 0 Log::Logger::Debug<int&>
FUNC 6d840 f8 0 Log::Logger::Warn<int>
FUNC 6d940 eb 0 Log::Logger::Debug<char const*&>
FUNC 6da30 c1a 0 tinyformat::format<char [128]>
FUNC 6e650 eb 0 Log::Logger::Debug<char (&)[128]>
FUNC 6e740 f8 0 Log::Logger::Warn<char (&)[128]>
FUNC 6e840 c4a 0 tinyformat::format<int, char [256]>
FUNC 6f490 fa 0 Log::Logger::Debug<int, char (&)[256]>
FUNC 6f590 fb 0 Log::Logger::Notice<int, char (&)[256]>
FUNC 6f690 c4a 0 tinyformat::format<char [128], char [256]>
FUNC 702e0 fb 0 Log::Logger::Warn<char (&)[128], char (&)[256]>
FUNC 703e0 fb 0 Log::Logger::Notice<char (&)[128], char (&)[256]>
FUNC 704e0 c2 0 std::__cxx11::basic_string<char, std::char_traits<char>, std::allocator<char> >::_M_construct<char*>
FUNC 705b0 209 0 SV_UpdateConfigStrings
FUNC 707c0 8b 0 SV_CreateBaseline
FUNC 70850 5b 0 SV_BoundMaxClients
FUNC 708b0 94 0 SV_Startup
FUNC 70950 f7 0 SV_ChangeMaxClients
FUNC 70a50 47 0 SV_ClearServer
FUNC 70aa0 40c 0 SV_Init
FUNC 70eb0 b3 0 SV_FinalCommand
FUNC 70f70 135 0 SV_Shutdown
FUNC 710b0 8d 0 SV_SetConfigstring
FUNC 71140 40c 0 SV_SpawnServer
FUNC 71550 74 0 SV_GetConfigstring
FUNC 715d0 9e 0 SV_SetUserinfo
FUNC 71670 72 0 SV_GetUserinfo
FUNC 716f0 75 0 SV_GetPlayerPubkey
FUNC 71770 9e 0 tinyformat::detail::FormatArg::formatImpl<char [22]>
FUNC 71810 9e 0 tinyformat::detail::FormatArg::formatImpl<char [16]>
FUNC 718b0 8d 0 tinyformat::detail::FormatArg::toIntImpl<char [16]>
FUNC 71940 8d 0 tinyformat::detail::FormatArg::toIntImpl<char [22]>
FUNC 719d0 cc0 0 Log::Logger::Notice<char const (&)[22]>
FUNC 72690 cc0 0 Log::Logger::Notice<const std::__cxx11::basic_string<char, std::char_traits<char>, std::allocator<char> >&>
FUNC 73350 cc0 0 Log::Logger::Notice<char const (&)[16]>
FUNC 74010 c2 0 std::__cxx11::basic_string<char, std::char_traits<char>, std::allocator<char> >::_M_construct<char*>
FUNC 740e0 3c 0 std::__cxx11::basic_string<char, std::char_traits<char>, std::allocator<char> >::basic_string
FUNC 74120 23 0 Cvar::GetCvarTypeName<ServerPrivate>
FUNC 74150 69 0 ParseCvarValue
FUNC 741c0 a 0 SV_Private
FUNC 741d0 3d 0 SV_NET_Config
FUNC 74210 10c 0 SV_CalcPings
FUNC 74320 3e 0 SV_FrameMsec
FUNC 74360 51 0 SerializeCvarValue
FUNC 743c0 34 0 SVC_Ping
FUNC 74400 1eb 0 SV_AddServerCommand
FUNC 745f0 337 0 SV_ResolveMasterServers
FUNC 74930 3e5 0 TranslateText_Internal
FUNC 74d20 309 0 SV_CheckDRDoS
FUNC 75030 14f 0 SV_CheckTimeouts
FUNC 75180 98 0 SV_PrintTranslatedText
FUNC 75220 265 0 SV_SendServerCommand
FUNC 75490 101 0 SV_MasterHeartbeat
FUNC 755a0 16 0 SV_MasterShutdown
FUNC 755c0 5af 0 SV_Frame
FUNC 75b70 185b 0 SVC_RemoteCommand
FUNC 773d0 f3f 0 SVC_Status
FUNC 78310 d5c 0 SVC_Info
FUNC 79070 d4e 0 SV_ConnectionlessPacket
FUNC 79dc0 1f2 0 SV_PacketEvent
FUNC 79fc0 3a 0 RconEnvironment::~RconEnvironment
FUNC 7a000 3b 0 std::array<MasterServer, 5ul>::~array
FUNC 7a040 12 0 serverStatic_t::~serverStatic_t
FUNC 7a060 3b 0 RconEnvironment::~RconEnvironment
FUNC 7a0a0 52 0 Cvar::Range<Cvar::Cvar<int> >::~Range
FUNC 7a100 57 0 Cvar::Cvar<ServerPrivate>::~Cvar
FUNC 7a160 57 0 Cvar::Range<Cvar::Cvar<int> >::~Range
FUNC 7a1c0 52 0 Cvar::Cvar<ServerPrivate>::~Cvar
FUNC 7a220 34b 0 GameVM::~GameVM
FUNC 7a570 1f 0 Cvar::Cvar<ServerPrivate>::GetAdditionalDescription
FUNC 7a590 27 0 Cvar::Cvar<ServerPrivate>::Validate
FUNC 7a5c0 4c4 0 Log::Logger::Debug<int&, char (&)[1024]>
FUNC 7aa90 4c4 0 Log::Logger::Debug<int&, char const*&>
FUNC 7af60 4af 0 Log::Logger::Notice<char*&>
FUNC 7b410 4d0 0 Log::Logger::Notice<char*&, std::__cxx11::basic_string<char, std::char_traits<char>, std::allocator<char> > >
FUNC 7b8e0 52f 0 Log::Logger::Notice<unsigned char&, unsigned char&, unsigned char&, unsigned char&>
FUNC 7be10 4e7 0 Log::Logger::Notice<std::__cxx11::basic_string<char, std::char_traits<char>, std::allocator<char> >, char const*, char const*>
FUNC 7c300 4d0 0 Log::Logger::Notice<std::__cxx11::basic_string<char, std::char_traits<char>, std::allocator<char> >, char const*>
FUNC 7c7d0 20c 0 Net::OutOfBandPrint<char const*&>
FUNC 7c9e0 20c 0 Net::OutOfBandPrint<std::__cxx11::basic_string<char, std::char_traits<char>, std::allocator<char> >&, std::__cxx11::basic_string<char, std::char_traits<char>, std::allocator<char> >&>
FUNC 7cbf0 154 0 RconEnvironment::Print
FUNC 7cd50 fa 0 Log::Logger::Debug<std::__cxx11::basic_string<char, std::char_traits<char>, std::allocator<char> >, std::__cxx11::basic_string<char, std::char_traits<char>, std::allocator<char> > >
FUNC 7ce50 d6 0 Cvar::Range<Cvar::Cvar<int> >::GetAdditionalDescription
FUNC 7cf30 129 0 Cvar::Cvar<ServerPrivate>::GetDescription
FUNC 7d060 348 0 Cvar::Range<Cvar::Cvar<int> >::Range<>
FUNC 7d3b0 154 0 Cvar::Range<Cvar::Cvar<int> >::Validate
FUNC 7d510 353 0 GameVM::~GameVM
FUNC 7d870 203 0 Cvar::Cvar<ServerPrivate>::OnValueChanged
FUNC 7da80 49 0 SV_Netchan_FreeQueue
FUNC 7dad0 7d 0 SV_Netchan_TransmitNextFragment
FUNC 7db50 c9 0 SV_Netchan_Transmit
FUNC 7dc20 c2 0 std::__cxx11::basic_string<char, std::char_traits<char>, std::allocator<char> >::_M_construct<char*>
FUNC 7dcf0 3c 0 std::__cxx11::basic_string<char, std::char_traits<char>, std::allocator<char> >::basic_string
FUNC 7dd30 2b9 0 IPC::HandleMsg<IPC::Message<IPC::Id<0u, 5u>, int, std::__cxx11::basic_string<char, std::char_traits<char>, std::allocator<char> > >, GameVM::QVMSyscall(int, Util::Reader&, IPC::Channel&)::<lambda(int, std::__cxx11::string)> >
FUNC 7dff0 2b9 0 IPC::HandleMsg<IPC::Message<IPC::Id<0u, 8u>, int, std::__cxx11::basic_string<char, std::char_traits<char>, std::allocator<char> > >, GameVM::QVMSyscall(int, Util::Reader&, IPC::Channel&)::<lambda(int, std::__cxx11::string)> >
FUNC 7e2b0 27a 0 IPC::HandleMsg<IPC::Message<IPC::Id<0u, 30u>, std::array<float, 3ul>, std::array<float, 3ul>, std::array<float, 3ul> >, GameVM::QVMSyscall(int, Util::Reader&, IPC::Channel&)::<lambda(std::array<float, 3ul>, std::array<float, 3ul>, std::array<float, 3ul>)> >
FUNC 7e530 27a 0 IPC::HandleMsg<IPC::Message<IPC::Id<0u, 31u>, std::array<float, 3ul>, std::array<float, 3ul>, std::array<float, 3ul> >, GameVM::QVMSyscall(int, Util::Reader&, IPC::Channel&)::<lambda(std::array<float, 3ul>, std::array<float, 3ul>, std::array<float, 3ul>)> >
FUNC 7e7b0 43 0 SV_GameClientNum
FUNC 7e800 47 0 SV_SvEntityForGentity
FUNC 7e850 6c 0 SV_GameSendServerCommand
FUNC 7e8c0 2e 0 SV_GameDropClient
FUNC 7e8f0 106 0 SV_RSAGenMsg
FUNC 7ea00 96 0 SV_LocateGameData
FUNC 7eaa0 2c1 0 IPC::HandleMsg<IPC::Message<IPC::Id<0u, 0u>, IPC::SharedMemory, int, int, int>, GameVM::QVMSyscall(int, Util::Reader&, IPC::Channel&)::<lambda(IPC::SharedMemory, int, int, int)> >
FUNC 7ed70 15 0 GameVM::GameSnapshotCallback
FUNC 7ed90 15 0 GameVM::BotAIStartFrame
FUNC 7edb0 38c 0 IPC::HandleMsg<IPC::SyncMessage<IPC::Message<IPC::Id<0u, 3u>, int, std::__cxx11::basic_string<char, std::char_traits<char>, std::allocator<char> > > >, GameVM::QVMSyscall(int, Util::Reader&, IPC::Channel&)::<lambda(int, std::__cxx11::string)> >
FUNC 7f140 349 0 IPC::HandleMsg<IPC::SyncMessage<IPC::Message<IPC::Id<0u, 4u>, int, std::__cxx11::basic_string<char, std::char_traits<char>, std::allocator<char> > > >, GameVM::QVMSyscall(int, Util::Reader&, IPC::Channel&)::<lambda(int, std::__cxx11::string)> >
FUNC 7f490 289 0 IPC::HandleMsg<IPC::SyncMessage<IPC::Message<IPC::Id<0u, 25u>, int, botRouteTarget_t, bool>, IPC::Reply<int> >, GameVM::QVMSyscall(int, Util::Reader&, IPC::Channel&)::<lambda(int, botRouteTarget_t, bool, int&)> >
FUNC 7f720 30c 0 IPC::HandleMsg<IPC::SyncMessage<IPC::Message<IPC::Id<0u, 32u>, std::array<float, 3ul>, std::array<float, 3ul> >, IPC::Reply<int> >, GameVM::QVMSyscall(int, Util::Reader&, IPC::Channel&)::<lambda(std::array<float, 3ul>, std::array<float, 3ul>, int&)> >
FUNC 7fa30 2fd 0 IPC::HandleMsg<IPC::SyncMessage<IPC::Message<IPC::Id<0u, 22u>, botClass_t>, IPC::Reply<int, int> >, GameVM::QVMSyscall(int, Util::Reader&, IPC::Channel&)::<lambda(botClass_t, int&, int&)> >
FUNC 7fd30 28b 0 IPC::HandleMsg<IPC::SyncMessage<IPC::Message<IPC::Id<0u, 6u>, int, int>, IPC::Reply<std::__cxx11::basic_string<char, std::char_traits<char>, std::allocator<char> > > >, GameVM::QVMSyscall(int, Util::Reader&, IPC::Channel&)::<lambda(int, int, std::__cxx11::string&)> >
FUNC 7ffc0 28b 0 IPC::HandleMsg<IPC::SyncMessage<IPC::Message<IPC::Id<0u, 9u>, int, int>, IPC::Reply<std::__cxx11::basic_string<char, std::char_traits<char>, std::allocator<char> > > >, GameVM::QVMSyscall(int, Util::Reader&, IPC::Channel&)::<lambda(int, int, std::__cxx11::string&)> >
FUNC 80250 28b 0 IPC::HandleMsg<IPC::SyncMessage<IPC::Message<IPC::Id<0u, 17u>, int, int>, IPC::Reply<std::__cxx11::basic_string<char, std::char_traits<char>, std::allocator<char> > > >, GameVM::QVMSyscall(int, Util::Reader&, IPC::Channel&)::<lambda(int, int, std::__cxx11::string&)> >
FUNC 804e0 540 0 IPC::HandleMsg<IPC::SyncMessage<IPC::Message<IPC::Id<0u, 18u>, int, std::__cxx11::basic_string<char, std::char_traits<char>, std::allocator<char> >, qtime_t>, IPC::Reply<std::__cxx11::basic_string<char, std::char_traits<char>, std::allocator<char> > > >, GameVM::QVMSyscall(int, Util::Reader&, IPC::Channel&)::<lambda(int, std::__cxx11::string, const qtime_t&, std::__cxx11::string&)> >
FUNC 80a20 264 0 IPC::HandleMsg<IPC::SyncMessage<IPC::Message<IPC::Id<0u, 12u> >, IPC::Reply<bool, std::__cxx11::basic_string<char, std::char_traits<char>, std::allocator<char> > > >, GameVM::QVMSyscall(int, Util::Reader&, IPC::Channel&)::<lambda(bool&, std::__cxx11::string&)> >
FUNC 80c90 485 0 IPC::detail::HandleMsg<GameVM::QVMSyscall(int, Util::Reader&, IPC::Channel&)::<lambda(std::__cxx11::string, int&, std::__cxx11::string&, std::__cxx11::string&)>, IPC::Message<IPC::Id<0u, 15u>, std::__cxx11::basic_string<char, std::char_traits<char>, std::allocator<char> > >, IPC::Reply<int, std::__cxx11::basic_string<char, std::char_traits<char>, std::allocator<char> >, std::__cxx11::basic_string<char, std::char_traits<char>, std::allocator<char> > > >
FUNC 81120 30d 0 IPC::HandleMsg<IPC::SyncMessage<IPC::Message<IPC::Id<0u, 21u>, int, int>, IPC::Reply<int, std::__cxx11::basic_string<char, std::char_traits<char>, std::allocator<char> > > >, GameVM::QVMSyscall(int, Util::Reader&, IPC::Channel&)::<lambda(int, int, int&, std::__cxx11::string&)> >
FUNC 81430 44 0 SV_GentityNum
FUNC 81480 49 0 SV_GetServerinfo
FUNC 814d0 265 0 IPC::HandleMsg<IPC::SyncMessage<IPC::Message<IPC::Id<0u, 10u>, int>, IPC::Reply<std::__cxx11::basic_string<char, std::char_traits<char>, std::allocator<char> > > >, GameVM::QVMSyscall(int, Util::Reader&, IPC::Channel&)::<lambda(int, std::__cxx11::string&)> >
FUNC 81740 64 0 SV_GetUsercmd
FUNC 817b0 2b1d 0 GameVM::QVMSyscall
FUNC 842d0 11f 0 GameVM::Syscall
FUNC 843f0 252 0 GameVM::GameVM
FUNC 84650 148 0 GameVM::Start
FUNC 847a0 7e 0 GameVM::GameStaticInit
FUNC 84820 a4 0 GameVM::GameInit
FUNC 848d0 6b 0 SV_InitGameVM
FUNC 84940 2d 0 SV_InitGameProgs
FUNC 84970 15c 0 GameVM::GameShutdown
FUNC 84ad0 2c 0 SV_ShutdownGameProgs
FUNC 84b00 47 0 SV_RestartGameProgs
FUNC 84b50 112 0 GameVM::GameClientConnect
FUNC 84c70 7c 0 GameVM::GameClientBegin
FUNC 84cf0 7c 0 GameVM::GameClientUserInfoChanged
FUNC 84d70 7c 0 GameVM::GameClientDisconnect
FUNC 84df0 83 0 GameVM::GameClientCommand
FUNC 84e80 7c 0 GameVM::GameClientThink
FUNC 84f00 7c 0 GameVM::GameRunFrame
FUNC 84f80 3 0 tinyformat::detail::FormatArg::toIntImpl<unsigned int>
FUNC 84f90 3 0 tinyformat::detail::FormatArg::toIntImpl<IPC::SyncMessage<IPC::Message<IPC::Id<0u, 0u>, int> >::<anonymous enum> >
FUNC 84fa0 3 0 tinyformat::detail::FormatArg::toIntImpl<IPC::SyncMessage<IPC::Message<IPC::Id<0u, 1u>, int, int, bool, bool> >::<anonymous enum> >
FUNC 84fb0 3 0 tinyformat::detail::FormatArg::toIntImpl<IPC::SyncMessage<IPC::Message<IPC::Id<0u, 2u>, bool> >::<anonymous enum> >
FUNC 84fc0 3 0 tinyformat::detail::FormatArg::toIntImpl<IPC::SyncMessage<IPC::Message<IPC::Id<0u, 3u>, int, bool, int>, IPC::Reply<bool, std::__cxx11::basic_string<char, std::char_traits<char>, std::allocator<char> > > >::<anonymous enum> >
FUNC 84fd0 3 0 tinyformat::detail::FormatArg::toIntImpl<IPC::SyncMessage<IPC::Message<IPC::Id<0u, 4u>, int> >::<anonymous enum> >
FUNC 84fe0 3 0 tinyformat::detail::FormatArg::toIntImpl<IPC::SyncMessage<IPC::Message<IPC::Id<0u, 5u>, int> >::<anonymous enum> >
FUNC 84ff0 3 0 tinyformat::detail::FormatArg::toIntImpl<IPC::SyncMessage<IPC::Message<IPC::Id<0u, 6u>, int> >::<anonymous enum> >
FUNC 85000 3 0 tinyformat::detail::FormatArg::toIntImpl<IPC::SyncMessage<IPC::Message<IPC::Id<0u, 7u>, int, std::__cxx11::basic_string<char, std::char_traits<char>, std::allocator<char> > > >::<anonymous enum> >
FUNC 85010 3 0 tinyformat::detail::FormatArg::toIntImpl<IPC::SyncMessage<IPC::Message<IPC::Id<0u, 8u>, int> >::<anonymous enum> >
FUNC 85020 3 0 tinyformat::detail::FormatArg::toIntImpl<IPC::SyncMessage<IPC::Message<IPC::Id<0u, 9u>, int> >::<anonymous enum> >
FUNC 85030 7d 0 Util::Reader::~Reader
FUNC 850b0 4d 0 Util::Reader::ReadData
FUNC 85100 4a 0 Util::Reader::CheckEndRead
FUNC 85150 d6 0 std::_Hashtable<unsigned int, std::pair<unsigned int const, Util::Reader>, std::allocator<std::pair<unsigned int const, Util::Reader> >, std::__detail::_Select1st, std::equal_to<unsigned int>, std::hash<unsigned int>, std::__detail::_Mod_range_hashing, std::__detail::_Default_ranged_hash, std::__detail::_Prime_rehash_policy, std::__detail::_Hashtable_traits<false, false, true> >::~_Hashtable
FUNC 85230 a1 0 std::operator+<char, std::char_traits<char>, std::allocator<char> >
FUNC 852e0 96 0 std::operator+<char, std::char_traits<char>, std::allocator<char> >
FUNC 85380 22 0 Util::Writer::~Writer
FUNC 853b0 285 0 std::vector<char, std::allocator<char> >::_M_range_insert<char const*>
FUNC 85640 8f 0 Util::SerializeTraits<std::__cxx11::basic_string<char, std::char_traits<char>, std::allocator<char> >, void>::Write
FUNC 856d0 ed 0 tinyformat::format<int, unsigned int>
FUNC 857c0 5d6 0 VM::VMParams::VMParams
FUNC 85da0 c9 0 tinyformat::format<IPC::SyncMessage<IPC::Message<IPC::Id<0u, 0u>, int> >::<anonymous enum> >
FUNC 85e70 698 0 IPC::detail::SendMsg<VM::VMBase::SendMsg(Args&& ...) [with Msg = IPC::SyncMessage<IPC::Message<IPC::Id<0u, 0u>, int> >; Args = {int}]::<lambda(uint32_t, Util::Reader)>&, IPC::Message<IPC::Id<0u, 0u>, int>, IPC::Reply<>, int>
FUNC 86510 c9 0 tinyformat::format<IPC::SyncMessage<IPC::Message<IPC::Id<0u, 1u>, int, int, bool, bool> >::<anonymous enum> >
FUNC 865e0 700 0 IPC::detail::SendMsg<VM::VMBase::SendMsg(Args&& ...) [with Msg = IPC::SyncMessage<IPC::Message<IPC::Id<0u, 1u>, int, int, bool, bool> >; Args = {int&, int&, bool, bool}]::<lambda(uint32_t, Util::Reader)>&, IPC::Message<IPC::Id<0u, 1u>, int, int, bool, bool>, IPC::Reply<>, int&, int&, bool, bool>
FUNC 86ce0 c9 0 tinyformat::format<IPC::SyncMessage<IPC::Message<IPC::Id<0u, 2u>, bool> >::<anonymous enum> >
FUNC 86db0 698 0 IPC::detail::SendMsg<VM::VMBase::SendMsg(Args&& ...) [with Msg = IPC::SyncMessage<IPC::Message<IPC::Id<0u, 2u>, bool> >; Args = {bool&}]::<lambda(uint32_t, Util::Reader)>&, IPC::Message<IPC::Id<0u, 2u>, bool>, IPC::Reply<>, bool&>
FUNC 87450 c9 0 tinyformat::format<IPC::SyncMessage<IPC::Message<IPC::Id<0u, 3u>, int, bool, int>, IPC::Reply<bool, std::__cxx11::basic_string<char, std::char_traits<char>, std::allocator<char> > > >::<anonymous enum> >
FUNC 87520 81e 0 IPC::detail::SendMsg<VM::VMBase::SendMsg(Args&& ...) [with Msg = IPC::SyncMessage<IPC::Message<IPC::Id<0u, 3u>, int, bool, int>, IPC::Reply<bool, std::__cxx11::basic_string<char, std::char_traits<char>, std::allocator<char> > > >; Args = {int&, bool&, bool&, bool&, std::__cxx11::basic_string<char, std::char_traits<char>, std::allocator<char> >&}]::<lambda(uint32_t, Util::Reader)>&, IPC::Message<IPC::Id<0u, 3u>, int, bool, int>, IPC::Reply<bool, std::__cxx11::basic_string<char, std::char_traits<char>, std::allocator<char> > >, int&, bool&, bool&, bool&, std::__cxx11::basic_string<char, std::char_traits<char>, std::allocator<char> >&>
FUNC 87d40 c9 0 tinyformat::format<IPC::SyncMessage<IPC::Message<IPC::Id<0u, 4u>, int> >::<anonymous enum> >
FUNC 87e10 698 0 IPC::detail::SendMsg<VM::VMBase::SendMsg(Args&& ...) [with Msg = IPC::SyncMessage<IPC::Message<IPC::Id<0u, 4u>, int> >; Args = {int&}]::<lambda(uint32_t, Util::Reader)>&, IPC::Message<IPC::Id<0u, 4u>, int>, IPC::Reply<>, int&>
FUNC 884b0 c9 0 tinyformat::format<IPC::SyncMessage<IPC::Message<IPC::Id<0u, 5u>, int> >::<anonymous enum> >
FUNC 88580 698 0 IPC::detail::SendMsg<VM::VMBase::SendMsg(Args&& ...) [with Msg = IPC::SyncMessage<IPC::Message<IPC::Id<0u, 5u>, int> >; Args = {int&}]::<lambda(uint32_t, Util::Reader)>&, IPC::Message<IPC::Id<0u, 5u>, int>, IPC::Reply<>, int&>
FUNC 88c20 c9 0 tinyformat::format<IPC::SyncMessage<IPC::Message<IPC::Id<0u, 6u>, int> >::<anonymous enum> >
FUNC 88cf0 698 0 IPC::detail::SendMsg<VM::VMBase::SendMsg(Args&& ...) [with Msg = IPC::SyncMessage<IPC::Message<IPC::Id<0u, 6u>, int> >; Args = {int&}]::<lambda(uint32_t, Util::Reader)>&, IPC::Message<IPC::Id<0u, 6u>, int>, IPC::Reply<>, int&>
FUNC 89390 c9 0 tinyformat::format<IPC::SyncMessage<IPC::Message<IPC::Id<0u, 7u>, int, std::__cxx11::basic_string<char, std::char_traits<char>, std::allocator<char> > > >::<anonymous enum> >
FUNC 89460 6b8 0 IPC::detail::SendMsg<VM::VMBase::SendMsg(Args&& ...) [with Msg = IPC::SyncMessage<IPC::Message<IPC::Id<0u, 7u>, int, std::__cxx11::basic_string<char, std::char_traits<char>, std::allocator<char> > > >; Args = {int&, char const*&}]::<lambda(uint32_t, Util::Reader)>&, IPC::Message<IPC::Id<0u, 7u>, int, std::__cxx11::basic_string<char, std::char_traits<char>, std::allocator<char> > >, IPC::Reply<>, int&, char const*&>
FUNC 89b20 c9 0 tinyformat::format<IPC::SyncMessage<IPC::Message<IPC::Id<0u, 8u>, int> >::<anonymous enum> >
FUNC 89bf0 698 0 IPC::detail::SendMsg<VM::VMBase::SendMsg(Args&& ...) [with Msg = IPC::SyncMessage<IPC::Message<IPC::Id<0u, 8u>, int> >; Args = {int&}]::<lambda(uint32_t, Util::Reader)>&, IPC::Message<IPC::Id<0u, 8u>, int>, IPC::Reply<>, int&>
FUNC 8a290 c9 0 tinyformat::format<IPC::SyncMessage<IPC::Message<IPC::Id<0u, 9u>, int> >::<anonymous enum> >
FUNC 8a360 698 0 IPC::detail::SendMsg<VM::VMBase::SendMsg(Args&& ...) [with Msg = IPC::SyncMessage<IPC::Message<IPC::Id<0u, 9u>, int> >; Args = {int&}]::<lambda(uint32_t, Util::Reader)>&, IPC::Message<IPC::Id<0u, 9u>, int>, IPC::Reply<>, int&>
FUNC 8aa00 da 0 tinyformat::detail::formatTruncated<unsigned int>
FUNC 8aae0 6d 0 tinyformat::detail::FormatArg::formatImpl<unsigned int>
FUNC 8ab50 da 0 tinyformat::detail::formatTruncated<IPC::SyncMessage<IPC::Message<IPC::Id<0u, 9u>, int> >::<anonymous enum> >
FUNC 8ac30 6d 0 tinyformat::detail::FormatArg::formatImpl<IPC::SyncMessage<IPC::Message<IPC::Id<0u, 2u>, bool> >::<anonymous enum> >
FUNC 8aca0 6d 0 tinyformat::detail::FormatArg::formatImpl<IPC::SyncMessage<IPC::Message<IPC::Id<0u, 0u>, int> >::<anonymous enum> >
FUNC 8ad10 6d 0 tinyformat::detail::FormatArg::formatImpl<IPC::SyncMessage<IPC::Message<IPC::Id<0u, 3u>, int, bool, int>, IPC::Reply<bool, std::__cxx11::basic_string<char, std::char_traits<char>, std::allocator<char> > > >::<anonymous enum> >
FUNC 8ad80 6d 0 tinyformat::detail::FormatArg::formatImpl<IPC::SyncMessage<IPC::Message<IPC::Id<0u, 4u>, int> >::<anonymous enum> >
FUNC 8adf0 6d 0 tinyformat::detail::FormatArg::formatImpl<IPC::SyncMessage<IPC::Message<IPC::Id<0u, 5u>, int> >::<anonymous enum> >
FUNC 8ae60 6d 0 tinyformat::detail::FormatArg::formatImpl<IPC::SyncMessage<IPC::Message<IPC::Id<0u, 6u>, int> >::<anonymous enum> >
FUNC 8aed0 6d 0 tinyformat::detail::FormatArg::formatImpl<IPC::SyncMessage<IPC::Message<IPC::Id<0u, 7u>, int, std::__cxx11::basic_string<char, std::char_traits<char>, std::allocator<char> > > >::<anonymous enum> >
FUNC 8af40 6d 0 tinyformat::detail::FormatArg::formatImpl<IPC::SyncMessage<IPC::Message<IPC::Id<0u, 8u>, int> >::<anonymous enum> >
FUNC 8afb0 6d 0 tinyformat::detail::FormatArg::formatImpl<IPC::SyncMessage<IPC::Message<IPC::Id<0u, 9u>, int> >::<anonymous enum> >
FUNC 8b020 6d 0 tinyformat::detail::FormatArg::formatImpl<IPC::SyncMessage<IPC::Message<IPC::Id<0u, 1u>, int, int, bool, bool> >::<anonymous enum> >
FUNC 8b090 8d 0 SV_RateMsec
FUNC 8b120 59 0 SV_AddEntToSnapshot
FUNC 8b180 23 0 SV_QsortEntityNumbers
FUNC 8b1b0 c2 0 std::__cxx11::basic_string<char, std::char_traits<char>, std::allocator<char> >::_M_construct<char*>
FUNC 8b280 6b 0 SV_UpdateServerCommandsToClient
FUNC 8b2f0 144 0 SV_SendMessageToClient
FUNC 8b440 590 0 SV_AddEntitiesVisibleFromPoint
FUNC 8b9d0 ed 0 SV_SendClientIdle
FUNC 8bac0 772 0 SV_SendClientSnapshot
FUNC 8c240 2c3 0 SV_SendClientMessages
FUNC 8c510 dc5 0 Log::Logger::Debug<float, float&, int&, float&, int&, float&, float>
FUNC 8d2e0 c2 0 std::__cxx11::basic_string<char, std::char_traits<char>, std::allocator<char> >::_M_construct<char*>
FUNC 8d3b0 9e 0 std::__cxx11::basic_string<char, std::char_traits<char>, std::allocator<char> >::_M_construct<__gnu_cxx::__normal_iterator<unsigned char const*, std::vector<unsigned char> > >
FUNC 8d450 f 0 Challenge::Timeout
FUNC 8d460 8 0 Challenge::Bytes
FUNC 8d470 111 0 Challenge::GenerateString
FUNC 8d590 8 0 ChallengeManager::MaxChallenges
FUNC 8d5a0 196 0 ChallengeManager::Clear
FUNC 8d740 43e 0 Cleanup
FUNC 8db80 1c0 0 ChallengeManager::Push
FUNC 8dd40 22c 0 ChallengeManager::GenerateChallenge
FUNC 8df70 7c9 0 ChallengeManager::Match
FUNC 8e740 22e 0 ChallengeManager::MatchString
FUNC 8e970 3d 0 Challenge::ValidString
FUNC 8e9b0 20 0 Str::cisxdigit
FUNC 8e9d0 52 0 Cvar::Range<Cvar::Cvar<long unsigned int> >::~Range
FUNC 8ea30 57 0 Cvar::Cvar<long unsigned int>::~Cvar
FUNC 8ea90 52 0 Cvar::Cvar<long unsigned int>::~Cvar
FUNC 8eaf0 57 0 Cvar::Range<Cvar::Cvar<long unsigned int> >::~Range
FUNC 8eb50 158 0 std::deque<Challenge, std::allocator<Challenge> >::~deque
FUNC 8ecb0 1f 0 Cvar::Cvar<long unsigned int>::GetAdditionalDescription
FUNC 8ecd0 27 0 Cvar::Cvar<long unsigned int>::Validate
FUNC 8ed00 e7c 0 std::deque<Challenge, std::allocator<Challenge> >::_M_erase
FUNC 8fb80 44 0 std::deque<Challenge, std::allocator<Challenge> >::_M_pop_front_aux
FUNC 8fbd0 2bd 0 std::deque<Challenge, std::allocator<Challenge> >::_M_push_back_aux<const Challenge&>
FUNC 8fe90 89d 0 std::deque<Challenge, std::allocator<Challenge> >::_M_erase
FUNC 90730 182 0 std::_Deque_base<Challenge, std::allocator<Challenge> >::_M_initialize_map
FUNC 908c0 10f 0 std::__find_if<__gnu_cxx::__normal_iterator<char const*, std::__cxx11::basic_string<char> >, __gnu_cxx::__ops::_Iter_negate<bool (*)(int)> >
FUNC 909d0 d7 0 Cvar::Cvar<long unsigned int>::GetDescription
FUNC 90ab0 348 0 Cvar::Range<Cvar::Cvar<long unsigned int> >::Range<>
FUNC 90e00 15c 0 Cvar::Range<Cvar::Cvar<long unsigned int> >::Validate
FUNC 90f60 1ab 0 Cvar::Cvar<long unsigned int>::OnValueChanged
FUNC 91110 da 0 Cvar::Range<Cvar::Cvar<long unsigned int> >::GetAdditionalDescription
FUNC 911f0 10 0 DebugDrawQuake::depthMask
FUNC 91200 b 0 DebugDrawQuake::begin
FUNC 91210 b 0 DebugDrawQuake::vertex
FUNC 91220 4b 0 DebugDrawQuake::vertex
FUNC 91270 60 0 DebugDrawQuake::vertex
FUNC 912d0 5d 0 DebugDrawQuake::vertex
FUNC 91330 7 0 DebugDrawQuake::end
FUNC 91340 5 0 DebugDrawQuake::init
FUNC 91350 2 0 DebugDrawQuake::texture
FUNC 91360 f 0 DebugDrawQuake::~DebugDrawQuake
FUNC 91370 1c 0 DebugDrawQuake::~DebugDrawQuake
FUNC 91390 c2 0 std::__cxx11::basic_string<char, std::char_traits<char>, std::allocator<char> >::_M_construct<char*>
FUNC 91460 14d 0 GetPointPointedTo
FUNC 915b0 139 0 BotDrawNavEdit
FUNC 916f0 fc 0 DrawPath
FUNC 917f0 178 0 BotDebugDrawMesh
FUNC 91970 68 0 NavEditInit
FUNC 919e0 2c 0 NavEditShutdown
FUNC 91a10 4cd 0 Cmd_AddConnection
FUNC 91ee0 35f 0 Cmd_NavTest
FUNC 92240 2f1 0 Cmd_NavEdit
FUNC 92540 6 0 Cin_OGM_Init
FUNC 92550 6 0 Cin_OGM_Run
FUNC 92560 3 0 Cin_OGM_GetOutput
FUNC 92570 2 0 Cin_OGM_Shutdown
FUNC 92580 c2 0 std::__cxx11::basic_string<char, std::char_traits<char>, std::allocator<char> >::_M_construct<char*>
FUNC 92650 b21 0 CL_WriteAVIHeader
FUNC 93180 38 0 CL_TakeVideoFrame
FUNC 931c0 8 0 CL_VideoRecording
FUNC 931d0 353 0 CL_OpenAVIForWriting
FUNC 93530 288 0 CL_CloseAVI
FUNC 937c0 235 0 CL_WriteAVIVideoFrame
FUNC 93a00 d10 0 Log::Logger::Notice<int&, int&, char (&)[64]>
FUNC 94710 c2 0 std::__cxx11::basic_string<char, std::char_traits<char>, std::allocator<char> >::_M_construct<char*>
FUNC 947e0 3c 0 std::__cxx11::basic_string<char, std::char_traits<char>, std::allocator<char> >::basic_string
FUNC 94820 3b1 0 IPC::HandleMsg<IPC::Message<IPC::Id<0u, 56u>, std::__cxx11::basic_string<char, std::char_traits<char>, std::allocator<char> >, std::__cxx11::basic_string<char, std::char_traits<char>, std::allocator<char> >, std::__cxx11::basic_string<char, std::char_traits<char>, std::allocator<char> > >, CGameVM::QVMSyscall(int, Util::Reader&, IPC::Channel&)::<lambda(const string&, const string&, const string&)> >
FUNC 94be0 7 0 CL_GetCurrentCmdNumber
FUNC 94bf0 7 0 Key_GetCatcher
FUNC 94c00 1a 0 Key_SetCatcher
FUNC 94c20 49 0 CL_OnTeamChanged
FUNC 94c70 9b 0 CGameVM::CmdBuffer::CmdBuffer
FUNC 94d10 dc 0 CL_FirstSnapshot
FUNC 94df0 12 0 CL_FirstSnapshot
FUNC 94e10 4d4 0 IPC::HandleMsg<IPC::Message<IPC::Id<0u, 75u>, Keyboard::Key, int, std::__cxx11::basic_string<char, std::char_traits<char>, std::allocator<char> > >, CGameVM::QVMSyscall(int, Util::Reader&, IPC::Channel&)::<lambda(Keyboard::Key, int, std::__cxx11::string)> >
FUNC 952f0 186 0 IPC::HandleMsg<IPC::Message<IPC::Id<0u, 125u>, std::vector<unsigned char, std::allocator<unsigned char> > >, CGameVM::QVMSyscall(int, Util::Reader&, IPC::Channel&)::<lambda(std::vector<unsigned char>)> >
FUNC 95480 2dd 0 IPC::HandleMsg<IPC::SyncMessage<IPC::Message<IPC::Id<0u, 24u>, std::__cxx11::basic_string<char, std::char_traits<char>, std::allocator<char> > >, IPC::Reply<int> >, CGameVM::QVMSyscall(int, Util::Reader&, IPC::Channel&)::<lambda(const string&, int&)> >
FUNC 95760 2c7 0 IPC::HandleMsg<IPC::SyncMessage<IPC::Message<IPC::Id<0u, 37u>, std::__cxx11::basic_string<char, std::char_traits<char>, std::allocator<char> > >, IPC::Reply<int> >, CGameVM::QVMSyscall(int, Util::Reader&, IPC::Channel&)::<lambda(const string&, int&)> >
FUNC 95a30 2c7 0 IPC::HandleMsg<IPC::SyncMessage<IPC::Message<IPC::Id<0u, 38u>, std::__cxx11::basic_string<char, std::char_traits<char>, std::allocator<char> > >, IPC::Reply<int> >, CGameVM::QVMSyscall(int, Util::Reader&, IPC::Channel&)::<lambda(const string&, int&)> >
FUNC 95d00 2f0 0 IPC::HandleMsg<IPC::SyncMessage<IPC::Message<IPC::Id<0u, 39u>, std::__cxx11::basic_string<char, std::char_traits<char>, std::allocator<char> >, int>, IPC::Reply<int> >, CGameVM::QVMSyscall(int, Util::Reader&, IPC::Channel&)::<lambda(const string&, int, int&)> >
FUNC 95ff0 2c7 0 IPC::HandleMsg<IPC::SyncMessage<IPC::Message<IPC::Id<0u, 59u>, std::__cxx11::basic_string<char, std::char_traits<char>, std::allocator<char> > >, IPC::Reply<int> >, CGameVM::QVMSyscall(int, Util::Reader&, IPC::Channel&)::<lambda(const string&, int&)> >
FUNC 962c0 2ee 0 IPC::HandleMsg<IPC::SyncMessage<IPC::Message<IPC::Id<0u, 61u>, int, std::__cxx11::basic_string<char, std::char_traits<char>, std::allocator<char> > >, IPC::Reply<int> >, CGameVM::QVMSyscall(int, Util::Reader&, IPC::Channel&)::<lambda(int, const string&, int&)> >
FUNC 965b0 3ea 0 IPC::HandleMsg<IPC::SyncMessage<IPC::Message<IPC::Id<0u, 40u>, std::__cxx11::basic_string<char, std::char_traits<char>, std::allocator<char> >, std::__cxx11::basic_string<char, std::char_traits<char>, std::allocator<char> >, int>, IPC::Reply<fontMetrics_t> >, CGameVM::QVMSyscall(int, Util::Reader&, IPC::Channel&)::<lambda(const string&, const string&, int, fontMetrics_t&)> >
FUNC 969a0 301 0 IPC::HandleMsg<IPC::SyncMessage<IPC::Message<IPC::Id<0u, 58u>, std::array<float, 3ul> >, IPC::Reply<std::array<float, 3ul>, std::array<float, 3ul>, std::array<float, 3ul>, int> >, CGameVM::QVMSyscall(int, Util::Reader&, IPC::Channel&)::<lambda(std::array<float, 3ul>, std::array<float, 3ul>&, std::array<float, 3ul>&, std::array<float, 3ul>&, int&)> >
FUNC 96cb0 2fe 0 IPC::detail::HandleMsg<CGameVM::QVMSyscall(int, Util::Reader&, IPC::Channel&)::<lambda(int, int, int, float, bool, refSkeleton_t&, int&)>, IPC::Message<IPC::Id<0u, 60u>, int, int, int, float, bool>, IPC::Reply<refSkeleton_t, int> >
FUNC 96fb0 2af 0 IPC::HandleMsg<IPC::SyncMessage<IPC::Message<IPC::Id<0u, 70u>, std::vector<unsigned char, std::allocator<unsigned char> >, int, int>, IPC::Reply<int> >, CGameVM::QVMSyscall(int, Util::Reader&, IPC::Channel&)::<lambda(std::vector<unsigned char>, int, int, qhandle_t&)> >
FUNC 97260 525 0 IPC::HandleMsg<IPC::SyncMessage<IPC::Message<IPC::Id<0u, 14u>, int, std::__cxx11::basic_string<char, std::char_traits<char>, std::allocator<char> >, std::__cxx11::basic_string<char, std::char_traits<char>, std::allocator<char> >, int>, IPC::Reply<std::__cxx11::basic_string<char, std::char_traits<char>, std::allocator<char> > > >, CGameVM::QVMSyscall(int, Util::Reader&, IPC::Channel&)::<lambda(int, const string&, const string&, int, std::__cxx11::string&)> >
FUNC 97790 3fa 0 IPC::HandleMsg<IPC::SyncMessage<IPC::Message<IPC::Id<0u, 12u>, int, std::__cxx11::basic_string<char, std::char_traits<char>, std::allocator<char> > >, IPC::Reply<std::__cxx11::basic_string<char, std::char_traits<char>, std::allocator<char> > > >, CGameVM::QVMSyscall(int, Util::Reader&, IPC::Channel&)::<lambda(int, const string&, std::__cxx11::string&)> >
FUNC 97b90 294 0 IPC::HandleMsg<IPC::SyncMessage<IPC::Message<IPC::Id<0u, 10u>, int>, IPC::Reply<std::__cxx11::basic_string<char, std::char_traits<char>, std::allocator<char> > > >, CGameVM::QVMSyscall(int, Util::Reader&, IPC::Channel&)::<lambda(int, std::__cxx11::string&)> >
FUNC 97e30 2ac 0 IPC::HandleMsg<IPC::SyncMessage<IPC::Message<IPC::Id<0u, 32u>, int>, IPC::Reply<std::__cxx11::basic_string<char, std::char_traits<char>, std::allocator<char> > > >, CGameVM::QVMSyscall(int, Util::Reader&, IPC::Channel&)::<lambda(int, std::__cxx11::string&)> >
FUNC 980e0 2ff 0 IPC::HandleMsg<IPC::SyncMessage<IPC::Message<IPC::Id<0u, 8u>, int>, IPC::Reply<bool, std::__cxx11::basic_string<char, std::char_traits<char>, std::allocator<char> > > >, CGameVM::QVMSyscall(int, Util::Reader&, IPC::Channel&)::<lambda(int, bool&, std::__cxx11::string&)> >
FUNC 983e0 3f5 0 IPC::HandleMsg<IPC::SyncMessage<IPC::Message<IPC::Id<0u, 11u>, int, std::__cxx11::basic_string<char, std::char_traits<char>, std::allocator<char> > >, IPC::Reply<std::__cxx11::basic_string<char, std::char_traits<char>, std::allocator<char> > > >, CGameVM::QVMSyscall(int, Util::Reader&, IPC::Channel&)::<lambda(int, const string&, std::__cxx11::string&)> >
FUNC 987e0 892 0 IPC::HandleMsg<IPC::SyncMessage<IPC::Message<IPC::Id<0u, 78u>, std::vector<Keyboard::Key, std::allocator<Keyboard::Key> > >, IPC::Reply<std::vector<bool, std::allocator<bool> > > >, CGameVM::QVMSyscall(int, Util::Reader&, IPC::Channel&)::<lambda(std::vector<Keyboard::Key>, std::vector<bool>&)> >
FUNC 99080 64e 0 IPC::HandleMsg<IPC::SyncMessage<IPC::Message<IPC::Id<0u, 81u>, int, int, int>, IPC::Reply<std::__cxx11::basic_string<char, std::char_traits<char>, std::allocator<char> > > >, CGameVM::QVMSyscall(int, Util::Reader&, IPC::Channel&)::<lambda(int, int, int, std::__cxx11::string&)> >
FUNC 996d0 677 0 IPC::HandleMsg<IPC::SyncMessage<IPC::Message<IPC::Id<0u, 2u>, std::vector<std::array<float, 3ul>, std::allocator<std::array<float, 3ul> > >, std::array<float, 3ul>, int, int>, IPC::Reply<std::vector<std::array<float, 3ul>, std::allocator<std::array<float, 3ul> > >, std::vector<markFragment_t, std::allocator<markFragment_t> > > >, CGameVM::QVMSyscall(int, Util::Reader&, IPC::Channel&)::<lambda(std::vector<std::array<float, 3ul> >, std::array<float, 3ul>, int, int, std::vector<std::array<float, 3ul> >&, std::vector<markFragment_t>&)> >
FUNC 99d50 41f 0 IPC::HandleMsg<IPC::SyncMessage<IPC::Message<IPC::Id<0u, 87u>, std::__cxx11::basic_string<char, std::char_traits<char>, std::allocator<char> >, int>, IPC::Reply<std::__cxx11::basic_string<char, std::char_traits<char>, std::allocator<char> >, int> >, CGameVM::QVMSyscall(int, Util::Reader&, IPC::Channel&)::<lambda(const string&, int, std::__cxx11::string&, int&)> >
FUNC 9a170 4d9 0 IPC::HandleMsg<IPC::SyncMessage<IPC::Message<IPC::Id<0u, 13u>, int, std::__cxx11::basic_string<char, std::char_traits<char>, std::allocator<char> >, std::__cxx11::basic_string<char, std::char_traits<char>, std::allocator<char> > >, IPC::Reply<std::__cxx11::basic_string<char, std::char_traits<char>, std::allocator<char> > > >, CGameVM::QVMSyscall(int, Util::Reader&, IPC::Channel&)::<lambda(int, const string&, const string&, std::__cxx11::string&)> >
FUNC 9a650 43c 0 IPC::detail::HandleMsg<CGameVM::QVMSyscall(int, Util::Reader&, IPC::Channel&)::<lambda(const refEntity_t&, const string&, int, orientation_t&, int&)>, IPC::Message<IPC::Id<0u, 55u>, refEntity_t, std::__cxx11::basic_string<char, std::char_traits<char>, std::allocator<char> >, int>, IPC::Reply<orientation_t, int> >
FUNC 9aa90 214 0 HandleMsg<CGameVM::CmdBuffer::HandleCommandBufferSyscall(int, int, Util::Reader&)::<lambda(refEntity_t&&)>, IPC::Id<0u, 42u>, refEntity_t>
FUNC 9acb0 c4 0 CL_GetUserCmd
FUNC 9ad80 113 0 CL_ConfigstringModified
FUNC 9aea0 677 0 CL_HandleServerCommand
FUNC 9b520 436 0 CL_FillServerCommands
FUNC 9b960 13b 0 CL_GetSnapshot
FUNC 9baa0 550 0 IPC::HandleMsg<IPC::SyncMessage<IPC::Message<IPC::Id<0u, 4u>, int>, IPC::Reply<bool, snapshot_t> >, CGameVM::QVMSyscall(int, Util::Reader&, IPC::Channel&)::<lambda(int, bool&, snapshot_t&)> >
FUNC 9bff0 15e 0 CL_AdjustTimeDelta
FUNC 9c150 1a 0 CL_AdjustTimeDelta
FUNC 9c170 23c 0 CL_SetCGameTime
FUNC 9c3b0 918 0 IPC::HandleMsg<IPC::SyncMessage<IPC::Message<IPC::Id<0u, 73u>, int, std::vector<std::__cxx11::basic_string<char, std::char_traits<char>, std::allocator<char> >, std::allocator<std::__cxx11::basic_string<char, std::char_traits<char>, std::allocator<char> > > > >, IPC::Reply<std::vector<std::vector<Keyboard::Key, std::allocator<Keyboard::Key> >, std::allocator<std::vector<Keyboard::Key, std::allocator<Keyboard::Key> > > > > >, CGameVM::QVMSyscall(int, Util::Reader&, IPC::Channel&)::<lambda(int, const std::vector<std::__cxx11::basic_string<char> >&, std::vector<std::vector<Keyboard::Key> >&)> >
FUNC 9ccd0 5275 0 CGameVM::QVMSyscall
FUNC a1f50 13e 0 CGameVM::Syscall
FUNC a2090 2d0 0 CGameVM::CGameVM
FUNC a2360 148 0 CGameVM::Start
FUNC a24b0 7e 0 CGameVM::CGameStaticInit
FUNC a2530 150 0 CL_InitCGame
FUNC a2680 93 0 CGameVM::CGameInit
FUNC a2720 12a 0 CGameVM::CGameShutdown
FUNC a2850 2c 0 CL_ShutdownCGame
FUNC a2880 9f 0 CL_CGameRendering
FUNC a2920 85 0 CGameVM::CGameDrawActiveFrame
FUNC a29b0 7c 0 CGameVM::CGameCrosshairPlayer
FUNC a2a30 83 0 CGameVM::CGameKeyEvent
FUNC a2ac0 85 0 CGameVM::CGameMouseEvent
FUNC a2b50 85 0 CGameVM::CGameMousePosEvent
FUNC a2be0 7d 0 CGameVM::CGameFocusEvent
FUNC a2c60 7c 0 CGameVM::CGameTextInputEvent
FUNC a2ce0 77 0 CGameVM::CGameRocketInit
FUNC a2d60 ed 0 CGameVM::CGameRocketFrame
FUNC a2e50 78 0 CGameVM::CGameConsoleLine
FUNC a2ed0 21e 0 HandleMsg<IPC::Message<IPC::Id<0u, 44u>, int, std::vector<polyVert_t, std::allocator<polyVert_t> >, int, int>, CGameVM::CmdBuffer::HandleCommandBufferSyscall(int, int, Util::Reader&)::<lambda(int, const std::vector<polyVert_t>&, int, int)> >
FUNC a30f0 393 0 HandleMsg<IPC::Message<IPC::Id<0u, 48u>, std::vector<polyVert_t, std::allocator<polyVert_t> >, int, std::vector<int, std::allocator<int> >, int, int, int, int>, CGameVM::CmdBuffer::HandleCommandBufferSyscall(int, int, Util::Reader&)::<lambda(std::vector<polyVert_t>, int, std::vector<int>, int, int, int, qhandle_t)> >
FUNC a3490 1d9 0 HandleMsg<IPC::Message<IPC::Id<0u, 43u>, int, std::vector<polyVert_t, std::allocator<polyVert_t> > >, CGameVM::CmdBuffer::HandleCommandBufferSyscall(int, int, Util::Reader&)::<lambda(int, const std::vector<polyVert_t>&)> >
FUNC a3670 2cca 0 CGameVM::CmdBuffer::HandleCommandBufferSyscall
FUNC a6340 5 0 tinyformat::detail::FormatArg::toIntImpl<double>
FUNC a6350 3 0 tinyformat::detail::FormatArg::toIntImpl<IPC::SyncMessage<IPC::Message<IPC::Id<0u, 1u>, int, int, glconfig_t, std::array<std::__cxx11::basic_string<char, std::char_traits<char>, std::allocator<char> >, 1024ul> > >::<anonymous enum> >
FUNC a6360 3 0 tinyformat::detail::FormatArg::toIntImpl<IPC::SyncMessage<IPC::Message<IPC::Id<0u, 2u> > >::<anonymous enum> >
FUNC a6370 3 0 tinyformat::detail::FormatArg::toIntImpl<IPC::SyncMessage<IPC::Message<IPC::Id<0u, 3u>, int, bool> >::<anonymous enum> >
FUNC a6380 3 0 tinyformat::detail::FormatArg::toIntImpl<IPC::SyncMessage<IPC::Message<IPC::Id<0u, 4u> >, IPC::Reply<int> >::<anonymous enum> >
FUNC a6390 3 0 tinyformat::detail::FormatArg::toIntImpl<IPC::SyncMessage<IPC::Message<IPC::Id<0u, 5u>, Keyboard::Key, bool> >::<anonymous enum> >
FUNC a63a0 3 0 tinyformat::detail::FormatArg::toIntImpl<IPC::SyncMessage<IPC::Message<IPC::Id<0u, 6u>, int, int> >::<anonymous enum> >
FUNC a63b0 3 0 tinyformat::detail::FormatArg::toIntImpl<IPC::SyncMessage<IPC::Message<IPC::Id<0u, 7u>, int, int> >::<anonymous enum> >
FUNC a63c0 3 0 tinyformat::detail::FormatArg::toIntImpl<IPC::SyncMessage<IPC::Message<IPC::Id<0u, 12u>, bool> >::<anonymous enum> >
FUNC a63d0 3 0 tinyformat::detail::FormatArg::toIntImpl<IPC::SyncMessage<IPC::Message<IPC::Id<0u, 9u>, glconfig_t> >::<anonymous enum> >
FUNC a63e0 3 0 tinyformat::detail::FormatArg::toIntImpl<IPC::SyncMessage<IPC::Message<IPC::Id<0u, 10u>, cgClientState_t> >::<anonymous enum> >
FUNC a63f0 3 0 tinyformat::detail::FormatArg::toIntImpl<IPC::SyncMessage<IPC::Message<IPC::Id<0u, 11u>, std::__cxx11::basic_string<char, std::char_traits<char>, std::allocator<char> > > >::<anonymous enum> >
FUNC a6400 c5 0 CGameVM::CmdBuffer::~CmdBuffer
FUNC a64d0 bd 0 CGameVM::CmdBuffer::~CmdBuffer
FUNC a6590 5d 0 Util::SerializeTraits<std::__cxx11::basic_string<char, std::char_traits<char>, std::allocator<char> >, void>::Read
FUNC a65f0 240 0 VM::VMBase::~VMBase
FUNC a6830 346 0 CGameVM::~CGameVM
FUNC a6b80 248 0 VM::VMBase::~VMBase
FUNC a6dd0 336 0 CGameVM::~CGameVM
FUNC a7110 185 0 std::vector<entityState_t, std::allocator<entityState_t> >::operator=
FUNC a72a0 177 0 Log::Logger::Debug<double>
FUNC a7420 1a9 0 std::vector<std::array<float, 3ul>, std::allocator<std::array<float, 3ul> > >::_M_default_append
FUNC a75d0 171 0 std::vector<markFragment_t, std::allocator<markFragment_t> >::_M_default_append
FUNC a7750 38a 0 std::vector<bool, std::allocator<bool> >::_M_insert_aux
FUNC a7ae0 147 0 tinyformat::format<short unsigned int>
FUNC a7c30 4f 0 Sys::Drop<short unsigned int&>
FUNC a7c80 1d6 0 std::vector<std::vector<Keyboard::Key, std::allocator<Keyboard::Key> >, std::allocator<std::vector<Keyboard::Key, std::allocator<Keyboard::Key> > > >::_M_emplace_back_aux<std::vector<Keyboard::Key, std::allocator<Keyboard::Key> > >
FUNC a7e60 237 0 std::vector<std::__cxx11::basic_string<char, std::char_traits<char>, std::allocator<char> >, std::allocator<std::__cxx11::basic_string<char, std::char_traits<char>, std::allocator<char> > > >::_M_default_append
FUNC a80a0 147 0 tinyformat::format<IPC::SyncMessage<IPC::Message<IPC::Id<0u, 1u>, int, int, glconfig_t, std::array<std::__cxx11::basic_string<char, std::char_traits<char>, std::allocator<char> >, 1024ul> > >::<anonymous enum> >
FUNC a81f0 7c3 0 IPC::detail::SendMsg<VM::VMBase::SendMsg(Args&& ...) [with Msg = IPC::SyncMessage<IPC::Message<IPC::Id<0u, 1u>, int, int, glconfig_t, std::array<std::__cxx11::basic_string<char, std::char_traits<char>, std::allocator<char> >, 1024ul> > >; Args = {int&, int&, glconfig_t&, std::array<std::__cxx11::basic_string<char, std::char_traits<char>, std::allocator<char> >, 1024ul>&}]::<lambda(uint32_t, Util::Reader)>&, IPC::Message<IPC::Id<0u, 1u>, int, int, glconfig_t, std::array<std::__cxx11::basic_string<char, std::char_traits<char>, std::allocator<char> >, 1024ul> >, IPC::Reply<>, int&, int&, glconfig_t&, std::array<std::__cxx11::basic_string<char, std::char_traits<char>, std::allocator<char> >, 1024ul>&>
FUNC a89c0 147 0 tinyformat::format<IPC::SyncMessage<IPC::Message<IPC::Id<0u, 2u> > >::<anonymous enum> >
FUNC a8b10 680 0 IPC::detail::SendMsg<VM::VMBase::SendMsg(Args&& ...) [with Msg = IPC::SyncMessage<IPC::Message<IPC::Id<0u, 2u> > >; Args = {}]::<lambda(uint32_t, Util::Reader)>&, IPC::Message<IPC::Id<0u, 2u> >, IPC::Reply<> >
FUNC a9190 147 0 tinyformat::format<IPC::SyncMessage<IPC::Message<IPC::Id<0u, 3u>, int, bool> >::<anonymous enum> >
FUNC a92e0 6b8 0 IPC::detail::SendMsg<VM::VMBase::SendMsg(Args&& ...) [with Msg = IPC::SyncMessage<IPC::Message<IPC::Id<0u, 3u>, int, bool> >; Args = {int&, bool&}]::<lambda(uint32_t, Util::Reader)>&, IPC::Message<IPC::Id<0u, 3u>, int, bool>, IPC::Reply<>, int&, bool&>
FUNC a99a0 147 0 tinyformat::format<IPC::SyncMessage<IPC::Message<IPC::Id<0u, 4u> >, IPC::Reply<int> >::<anonymous enum> >
FUNC a9af0 6a6 0 IPC::detail::SendMsg<VM::VMBase::SendMsg(Args&& ...) [with Msg = IPC::SyncMessage<IPC::Message<IPC::Id<0u, 4u> >, IPC::Reply<int> >; Args = {int&}]::<lambda(uint32_t, Util::Reader)>&, IPC::Message<IPC::Id<0u, 4u> >, IPC::Reply<int>, int&>
FUNC aa1a0 147 0 tinyformat::format<IPC::SyncMessage<IPC::Message<IPC::Id<0u, 5u>, Keyboard::Key, bool> >::<anonymous enum> >
FUNC aa2f0 6e0 0 IPC::detail::SendMsg<VM::VMBase::SendMsg(Args&& ...) [with Msg = IPC::SyncMessage<IPC::Message<IPC::Id<0u, 5u>, Keyboard::Key, bool> >; Args = {Keyboard::Key&, bool&}]::<lambda(uint32_t, Util::Reader)>&, IPC::Message<IPC::Id<0u, 5u>, Keyboard::Key, bool>, IPC::Reply<>, Keyboard::Key&, bool&>
FUNC aa9d0 147 0 tinyformat::format<IPC::SyncMessage<IPC::Message<IPC::Id<0u, 6u>, int, int> >::<anonymous enum> >
FUNC aab20 6b8 0 IPC::detail::SendMsg<VM::VMBase::SendMsg(Args&& ...) [with Msg = IPC::SyncMessage<IPC::Message<IPC::Id<0u, 6u>, int, int> >; Args = {int&, int&}]::<lambda(uint32_t, Util::Reader)>&, IPC::Message<IPC::Id<0u, 6u>, int, int>, IPC::Reply<>, int&, int&>
FUNC ab1e0 147 0 tinyformat::format<IPC::SyncMessage<IPC::Message<IPC::Id<0u, 7u>, int, int> >::<anonymous enum> >
FUNC ab330 6b8 0 IPC::detail::SendMsg<VM::VMBase::SendMsg(Args&& ...) [with Msg = IPC::SyncMessage<IPC::Message<IPC::Id<0u, 7u>, int, int> >; Args = {int&, int&}]::<lambda(uint32_t, Util::Reader)>&, IPC::Message<IPC::Id<0u, 7u>, int, int>, IPC::Reply<>, int&, int&>
FUNC ab9f0 147 0 tinyformat::format<IPC::SyncMessage<IPC::Message<IPC::Id<0u, 12u>, bool> >::<anonymous enum> >
FUNC abb40 698 0 IPC::detail::SendMsg<VM::VMBase::SendMsg(Args&& ...) [with Msg = IPC::SyncMessage<IPC::Message<IPC::Id<0u, 12u>, bool> >; Args = {bool&}]::<lambda(uint32_t, Util::Reader)>&, IPC::Message<IPC::Id<0u, 12u>, bool>, IPC::Reply<>, bool&>
FUNC ac1e0 147 0 tinyformat::format<IPC::SyncMessage<IPC::Message<IPC::Id<0u, 9u>, glconfig_t> >::<anonymous enum> >
FUNC ac330 6a0 0 IPC::detail::SendMsg<VM::VMBase::SendMsg(Args&& ...) [with Msg = IPC::SyncMessage<IPC::Message<IPC::Id<0u, 9u>, glconfig_t> >; Args = {glconfig_t&}]::<lambda(uint32_t, Util::Reader)>&, IPC::Message<IPC::Id<0u, 9u>, glconfig_t>, IPC::Reply<>, glconfig_t&>
FUNC ac9d0 147 0 tinyformat::format<IPC::SyncMessage<IPC::Message<IPC::Id<0u, 10u>, cgClientState_t> >::<anonymous enum> >
FUNC acb20 6a0 0 IPC::detail::SendMsg<VM::VMBase::SendMsg(Args&& ...) [with Msg = IPC::SyncMessage<IPC::Message<IPC::Id<0u, 10u>, cgClientState_t> >; Args = {cgClientState_t&}]::<lambda(uint32_t, Util::Reader)>&, IPC::Message<IPC::Id<0u, 10u>, cgClientState_t>, IPC::Reply<>, cgClientState_t&>
FUNC ad1c0 147 0 tinyformat::format<IPC::SyncMessage<IPC::Message<IPC::Id<0u, 11u>, std::__cxx11::basic_string<char, std::char_traits<char>, std::allocator<char> > > >::<anonymous enum> >
FUNC ad310 6fb 0 IPC::detail::SendMsg<VM::VMBase::SendMsg(Args&& ...) [with Msg = IPC::SyncMessage<IPC::Message<IPC::Id<0u, 11u>, std::__cxx11::basic_string<char, std::char_traits<char>, std::allocator<char> > > >; Args = {const std::__cxx11::basic_string<char, std::char_traits<char>, std::allocator<char> >&}]::<lambda(uint32_t, Util::Reader)>&, IPC::Message<IPC::Id<0u, 11u>, std::__cxx11::basic_string<char, std::char_traits<char>, std::allocator<char> > >, IPC::Reply<>, const std::__cxx11::basic_string<char, std::char_traits<char>, std::allocator<char> >&>
FUNC ada10 20e 0 std::vector<polyVert_t, std::allocator<polyVert_t> >::_M_default_append
FUNC adc20 157 0 tinyformat::detail::formatTruncated<double>
FUNC add80 6f 0 tinyformat::detail::FormatArg::formatImpl<double>
FUNC addf0 155 0 tinyformat::detail::formatTruncated<IPC::SyncMessage<IPC::Message<IPC::Id<0u, 11u>, std::__cxx11::basic_string<char, std::char_traits<char>, std::allocator<char> > > >::<anonymous enum> >
FUNC adf50 6d 0 tinyformat::detail::FormatArg::formatImpl<IPC::SyncMessage<IPC::Message<IPC::Id<0u, 11u>, std::__cxx11::basic_string<char, std::char_traits<char>, std::allocator<char> > > >::<anonymous enum> >
FUNC adfc0 6d 0 tinyformat::detail::FormatArg::formatImpl<IPC::SyncMessage<IPC::Message<IPC::Id<0u, 1u>, int, int, glconfig_t, std::array<std::__cxx11::basic_string<char, std::char_traits<char>, std::allocator<char> >, 1024ul> > >::<anonymous enum> >
FUNC ae030 6d 0 tinyformat::detail::FormatArg::formatImpl<IPC::SyncMessage<IPC::Message<IPC::Id<0u, 2u> > >::<anonymous enum> >
FUNC ae0a0 6d 0 tinyformat::detail::FormatArg::formatImpl<IPC::SyncMessage<IPC::Message<IPC::Id<0u, 3u>, int, bool> >::<anonymous enum> >
FUNC ae110 6d 0 tinyformat::detail::FormatArg::formatImpl<IPC::SyncMessage<IPC::Message<IPC::Id<0u, 4u> >, IPC::Reply<int> >::<anonymous enum> >
FUNC ae180 6d 0 tinyformat::detail::FormatArg::formatImpl<IPC::SyncMessage<IPC::Message<IPC::Id<0u, 5u>, Keyboard::Key, bool> >::<anonymous enum> >
FUNC ae1f0 6d 0 tinyformat::detail::FormatArg::formatImpl<IPC::SyncMessage<IPC::Message<IPC::Id<0u, 6u>, int, int> >::<anonymous enum> >
FUNC ae260 6d 0 tinyformat::detail::FormatArg::formatImpl<IPC::SyncMessage<IPC::Message<IPC::Id<0u, 7u>, int, int> >::<anonymous enum> >
FUNC ae2d0 6d 0 tinyformat::detail::FormatArg::formatImpl<IPC::SyncMessage<IPC::Message<IPC::Id<0u, 12u>, bool> >::<anonymous enum> >
FUNC ae340 6d 0 tinyformat::detail::FormatArg::formatImpl<IPC::SyncMessage<IPC::Message<IPC::Id<0u, 9u>, glconfig_t> >::<anonymous enum> >
FUNC ae3b0 6d 0 tinyformat::detail::FormatArg::formatImpl<IPC::SyncMessage<IPC::Message<IPC::Id<0u, 10u>, cgClientState_t> >::<anonymous enum> >
FUNC ae420 c2 0 std::__cxx11::basic_string<char, std::char_traits<char>, std::allocator<char> >::_M_construct<char*>
FUNC ae4f0 d2 0 ROQ_GenYUVTables
FUNC ae5d0 192 0 Frame_yuv_to_rgb24
FUNC ae770 36c 0 CIN_RunCinematic
FUNC aeae0 37e 0 CIN_DrawCinematic
FUNC aee60 15 0 SCR_DrawCinematic
FUNC aee80 15 0 SCR_RunCinematic
FUNC aeea0 f5 0 CIN_UploadCinematic
FUNC aefa0 99 0 CIN_StopCinematic
FUNC af040 35 0 CIN_StopCinematic
FUNC af080 3b 0 CIN_CloseAllVideos
FUNC af0c0 49 0 SCR_StopCinematic
FUNC af110 330 0 CIN_PlayCinematic
FUNC af440 237 0 CL_PlayCinematic_f
FUNC af680 cc7 0 Log::Logger::Debug<char (&)[256]>
FUNC b0350 65 0 Con_MarginFadeAlpha
FUNC b03c0 5e 0 Con_ToggleConsole_f
FUNC b0420 c2 0 std::__cxx11::basic_string<char, std::char_traits<char>, std::allocator<char> >::_M_construct<char*>
FUNC b04f0 5a 0 Con_Clear_f
FUNC b0550 39b 0 std::__find_if<__gnu_cxx::__normal_iterator<std::__cxx11::basic_string<char>*, std::vector<std::__cxx11::basic_string<char> > >, __gnu_cxx::__ops::_Iter_pred<Con_Search_f_Helper(const Iterator&, const Iterator&, const std::vector<std::__cxx11::basic_string<char> >&) [with Iterator = __gnu_cxx::__normal_iterator<std::__cxx11::basic_string<char>*, std::vector<std::__cxx11::basic_string<char> > >]::<lambda(const string&)> > >
FUNC b08f0 716 0 Con_Search_f
FUNC b1010 15 0 Con_OpenConsole_f
FUNC b1030 290 0 Con_Init
FUNC b12c0 296 0 Con_DrawBackground
FUNC b1560 184 0 Con_DrawInput
FUNC b16f0 109 0 Con_DrawRightFloatingTextLine
FUNC b1800 82 0 Con_DrawAboutText
FUNC b1890 f9 0 Con_DrawConsoleScrollbackIndicator
FUNC b1990 3b0 0 Con_DrawConsoleScrollbar
FUNC b1d40 f5 0 Con_DrawScrollbackMarkerline
FUNC b1e40 741 0 Con_DrawConsoleContent
FUNC b2590 104 0 Con_DrawAnimatedConsole
FUNC b26a0 27d 0 Con_UpdateConsoleState
FUNC b2920 2e8 0 CL_ConsolePrint
FUNC b2c10 4f 0 Con_PageUp
FUNC b2c60 3f 0 Con_PageDown
FUNC b2ca0 47 0 Con_ScrollUp
FUNC b2cf0 31 0 Con_ScrollDown
FUNC b2d30 2d 0 Con_ScrollToMarkerLine
FUNC b2d60 10 0 Con_ScrollToTop
FUNC b2d70 1c 0 Con_ScrollToBottom
FUNC b2d90 58 0 Con_JumpUp
FUNC b2df0 3d 0 Con_Close
FUNC b2e30 82 0 Con_Linefeed
FUNC b2ec0 439 0 Con_Dump_f
FUNC b3300 292 0 Con_Grep_f
FUNC b35a0 5a0 0 Con_CheckResize
FUNC b3b40 542 0 CL_InternalConsolePrint
FUNC b4090 41f 0 Con_RunConsole
FUNC b44b0 13d 0 Con_RunAnimatedConsole
FUNC b45f0 4c 0 Con_DrawConsole
FUNC b4640 2 0 GraphicalTarget::~GraphicalTarget
FUNC b4650 5 0 GraphicalTarget::~GraphicalTarget
FUNC b4660 32 0 Console::Field::~Field
FUNC b46a0 55 0 console_t::~console_t
FUNC b4700 d0 0 GraphicalTarget::Process
FUNC b47d0 1bd 0 std::vector<std::__cxx11::basic_string<char, std::char_traits<char>, std::allocator<char> >, std::allocator<std::__cxx11::basic_string<char, std::char_traits<char>, std::allocator<char> > > >::emplace_back<>
FUNC b4990 211 0 std::vector<std::__cxx11::basic_string<char, std::char_traits<char>, std::allocator<char> >, std::allocator<std::__cxx11::basic_string<char, std::char_traits<char>, std::allocator<char> > > >::_M_emplace_back_aux<char const*&, char const*>
FUNC b4bb0 45 0 std::vector<std::__cxx11::basic_string<char, std::char_traits<char>, std::allocator<char> >, std::allocator<std::__cxx11::basic_string<char, std::char_traits<char>, std::allocator<char> > > >::emplace_back<char const*&, char const*>
FUNC b4c00 c2 0 std::__cxx11::basic_string<char, std::char_traits<char>, std::allocator<char> >::_M_construct<char*>
FUNC b4cd0 3d 0 CL_ClearStaticDownload
FUNC b4d10 10f 0 CL_DownloadsComplete
FUNC b4e20 1eb 0 CL_NextDownload
FUNC b5010 aa 0 CL_InitDownloads
FUNC b50c0 fa 0 CL_WWWBadChecksum
FUNC b51c0 211 0 CL_WWWDownload
FUNC b53e0 62f 0 CL_ParseDownload
FUNC b5a10 ce7 0 Log::Logger::Debug<char const*&, char const*&>
FUNC b6700 bf 0 Cvar::Cvar<int>::Set
FUNC b67c0 ce7 0 Log::Logger::Debug<char (&)[256], char (&)[64]>
FUNC b74b0 d17 0 Log::Logger::Debug<char (&)[256], int&, int&>
FUNC b81d0 ce7 0 Log::Logger::Debug<int&, char (&)[256]>
FUNC b8ec0 ce7 0 Log::Logger::Debug<int&, int&>
FUNC b9bb0 c1a 0 tinyformat::format<char*>
FUNC ba7d0 eb 0 Log::Logger::Debug<char*>
FUNC ba8c0 f8 0 Log::Logger::Warn<char (&)[1024]>
FUNC ba9c0 c1a 0 tinyformat::format<char [256]>
FUNC bb5e0 f8 0 Log::Logger::Notice<char (&)[256]>
FUNC bb6e0 2c 0 IN_CenterView
FUNC bb710 c2 0 std::__cxx11::basic_string<char, std::char_traits<char>, std::allocator<char> >::_M_construct<char*>
FUNC bb7e0 1a7 0 IN_KeyDown
FUNC bb990 e0 0 IN_KeyUp
FUNC bba70 e5 0 IN_BuiltinButtonCommand
FUNC bbb60 62 0 CL_KeyState
FUNC bbbd0 121 0 CL_AdjustAngles
FUNC bbd00 391 0 CL_KeyMove
FUNC bc0a0 40 0 CL_MouseEvent
FUNC bc0e0 10 0 CL_MousePosEvent
FUNC bc0f0 10 0 CL_FocusEvent
FUNC bc100 2a0 0 CL_JoystickMove
FUNC bc3a0 138 0 CL_GameControllerMove
FUNC bc4e0 22 0 CL_ClearCmdButtons
FUNC bc510 ce 0 CL_CmdButtons
FUNC bc5e0 4d 0 CL_FinishMove
FUNC bc630 18a 0 CL_ReadyToSendPacket
FUNC bc7c0 b7 0 CL_InitInput
FUNC bc880 3c 0 CL_ClearInput
FUNC bc8c0 92 0 CL_ClearKeys
FUNC bc960 496 0 CL_MouseMove
FUNC bce00 142 0 CL_CreateCmd
FUNC bcf50 9a 0 CL_CreateNewCommands
FUNC bcff0 12 0 CL_CreateNewCommands
FUNC bd010 1a1 0 CL_RegisterButtonCommands
FUNC bd1c0 98 0 CL_JoystickEvent
FUNC bd260 48b 0 CL_WritePacket
FUNC bd6f0 22 0 CL_WritePacket
FUNC bd720 8a 0 CL_SendCmd
FUNC bd7b0 4f8 0 IN_KeysUp_f
FUNC bdcb0 1e3 0 IN_PrepareKeyUp
FUNC bdea0 9b 0 std::_Hashtable<Keyboard::Key, std::pair<const Keyboard::Key, std::vector<std::__cxx11::basic_string<char, std::char_traits<char>, std::allocator<char> >, std::allocator<std::__cxx11::basic_string<char, std::char_traits<char>, std::allocator<char> > > > >, std::allocator<std::pair<const Keyboard::Key, std::vector<std::__cxx11::basic_string<char, std::char_traits<char>, std::allocator<char> >, std::allocator<std::__cxx11::basic_string<char, std::char_traits<char>, std::allocator<char> > > > > >, std::__detail::_Select1st, std::equal_to<Keyboard::Key>, Keyboard::Key::hash, std::__detail::_Mod_range_hashing, std::__detail::_Default_ranged_hash, std::__detail::_Prime_rehash_policy, std::__detail::_Hashtable_traits<true, false, true> >::clear
FUNC bdf40 22 0 std::unordered_map<Keyboard::Key, std::vector<std::__cxx11::basic_string<char, std::char_traits<char>, std::allocator<char> >, std::allocator<std::__cxx11::basic_string<char, std::char_traits<char>, std::allocator<char> > > >, Keyboard::Key::hash, std::equal_to<Keyboard::Key>, std::allocator<std::pair<const Keyboard::Key, std::vector<std::__cxx11::basic_string<char, std::char_traits<char>, std::allocator<char> >, std::allocator<std::__cxx11::basic_string<char, std::char_traits<char>, std::allocator<char> > > > > > >::~unordered_map
FUNC bdf70 cf0 0 Log::Logger::Notice<float&, float&>
FUNC bec60 d56 0 Log::Logger::Notice<float&, float&, float&, float&>
FUNC bf9c0 c6a 0 tinyformat::format<unsigned int, std::__cxx11::basic_string<char, std::char_traits<char>, std::allocator<char> >, int>
FUNC c0630 10c 0 std::_Hashtable<Keyboard::Key, std::pair<const Keyboard::Key, std::vector<std::__cxx11::basic_string<char, std::char_traits<char>, std::allocator<char> >, std::allocator<std::__cxx11::basic_string<char, std::char_traits<char>, std::allocator<char> > > > >, std::allocator<std::pair<const Keyboard::Key, std::vector<std::__cxx11::basic_string<char, std::char_traits<char>, std::allocator<char> >, std::allocator<std::__cxx11::basic_string<char, std::char_traits<char>, std::allocator<char> > > > > >, std::__detail::_Select1st, std::equal_to<Keyboard::Key>, Keyboard::Key::hash, std::__detail::_Mod_range_hashing, std::__detail::_Default_ranged_hash, std::__detail::_Prime_rehash_policy, std::__detail::_Hashtable_traits<true, false, true> >::erase
FUNC c0740 22c 0 std::_Hashtable<Keyboard::Key, std::pair<const Keyboard::Key, std::vector<std::__cxx11::basic_string<char, std::char_traits<char>, std::allocator<char> >, std::allocator<std::__cxx11::basic_string<char, std::char_traits<char>, std::allocator<char> > > > >, std::allocator<std::pair<const Keyboard::Key, std::vector<std::__cxx11::basic_string<char, std::char_traits<char>, std::allocator<char> >, std::allocator<std::__cxx11::basic_string<char, std::char_traits<char>, std::allocator<char> > > > > >, std::__detail::_Select1st, std::equal_to<Keyboard::Key>, Keyboard::Key::hash, std::__detail::_Mod_range_hashing, std::__detail::_Default_ranged_hash, std::__detail::_Prime_rehash_policy, std::__detail::_Hashtable_traits<true, false, true> >::_M_insert_unique_node
FUNC c0970 60 0 std::_Hashtable<Keyboard::Key, std::pair<const Keyboard::Key, std::vector<std::__cxx11::basic_string<char, std::char_traits<char>, std::allocator<char> >, std::allocator<std::__cxx11::basic_string<char, std::char_traits<char>, std::allocator<char> > > > >, std::allocator<std::pair<const Keyboard::Key, std::vector<std::__cxx11::basic_string<char, std::char_traits<char>, std::allocator<char> >, std::allocator<std::__cxx11::basic_string<char, std::char_traits<char>, std::allocator<char> > > > > >, std::__detail::_Select1st, std::equal_to<Keyboard::Key>, Keyboard::Key::hash, std::__detail::_Mod_range_hashing, std::__detail::_Default_ranged_hash, std::__detail::_Prime_rehash_policy, std::__detail::_Hashtable_traits<true, false, true> >::_M_find_before_node
FUNC c09d0 2 0 CL_RefTagFree
FUNC c09e0 26 0 CL_ScaledMilliseconds
FUNC c0a10 29 0 StopVideo
FUNC c0a40 5 0 CL_SetRecommended_f
FUNC c0a50 5 0 Z_Free
FUNC c0a60 d 0 CL_RefMalloc
FUNC c0a70 1f9 0 CL_SetServerInfo
FUNC c0c70 289 0 CL_SetServerInfoByAddress
FUNC c0f00 5 0 CL_ShowIP_f
FUNC c0f10 106 0 CL_GetPing
FUNC c1020 c2 0 std::__cxx11::basic_string<char, std::char_traits<char>, std::allocator<char> >::_M_construct<char*>
FUNC c10f0 3c 0 std::__cxx11::basic_string<char, std::char_traits<char>, std::allocator<char> >::basic_string
FUNC c1130 a0 0 CL_Disconnect_f
FUNC c11d0 125 0 CL_RconDestinationAddress
FUNC c1300 7f 0 CL_AddReliableCommand
FUNC c1380 4e 0 CL_CheckUserinfo
FUNC c13d0 94 0 CL_WriteDemoMessage
FUNC c1470 10c 0 CL_ClearState
FUNC c1580 43 0 CL_SendDisconnect
FUNC c15d0 c7 0 CL_DisconnectPacket
FUNC c16a0 7a 0 CL_InitServerInfo
FUNC c1720 88 0 CL_CheckTimeout
FUNC c17b0 12 0 CL_CheckUserinfo
FUNC c17d0 2b 0 CL_ShutdownRef
FUNC c1800 158 0 CL_GetServerStatus
FUNC c1960 35 0 CL_GetPing
FUNC c19a0 1f 0 CL_ClearPing
FUNC c19c0 26 0 CL_GetPingQueueCount
FUNC c19f0 ad 0 CL_GetFreePing
FUNC c1aa0 3dd 0 GenerateDemoName
FUNC c1e80 1fc 0 CL_CheckForResend
FUNC c2080 29b 0 CL_Frame
FUNC c2320 28c 0 CL_ServerStatus
FUNC c25b0 3e9 0 CL_UpdateVisiblePings_f
FUNC c29a0 53 0 CL_ForwardToServer_f
FUNC c2a00 b5 0 CL_Reconnect_f
FUNC c2ac0 2a9 0 CL_InitRef
FUNC c2d70 154 0 CL_StopRecord
FUNC c2ed0 79 0 CL_ShutdownAll
FUNC c2f50 254 0 CL_Disconnect
FUNC c31b0 90 0 CL_GSRFeaturedLabel
FUNC c3240 1d5 0 CL_Ping_f
FUNC c3420 211 0 CL_ServerStatus_f
FUNC c3640 10b 0 CL_ReadDemoMessage
FUNC c3750 1c9 0 CL_MapLoading
FUNC c3920 42a 0 CL_Connect_f
FUNC c3d50 3d5 0 CL_Record
FUNC c4130 11c 0 CL_GSRSequenceInformation
FUNC c4250 1b8 0 CL_Shutdown
FUNC c4410 1af 0 CL_LocalServers_f
FUNC c45c0 137 0 CL_ServerLinksResponsePacket
FUNC c4700 df1 0 CL_ServersResponsePacket
FUNC c5500 97f 0 CL_ServerStatusResponse
FUNC c5e80 83 0 CL_PrintPacket
FUNC c5f10 dc 0 CL_Clientinfo_f
FUNC c5ff0 676 0 CL_RconSend
FUNC c6670 18f 0 CL_GenerateRSAKeys
FUNC c6800 9fa 0 CL_Init
FUNC c7200 a8 0 CL_ForwardCommandToServer
FUNC c72b0 c6 0 CL_Configstrings_f
FUNC c7380 21e 0 CL_InitRenderer
FUNC c75a0 d7 0 CL_StartHunkUsers
FUNC c7680 6d 0 CL_Vid_Restart_f
FUNC c76f0 43 0 CL_Snd_Restart_f
FUNC c7740 64f 0 CL_ServerInfoPacket
FUNC c7d90 cca 0 CL_ConnectionlessPacket
FUNC c8a60 291 0 CL_PacketEvent
FUNC c8d00 399 0 CL_GlobalServers_f
FUNC c90a0 2 0 DemoStopVideoCmd::~DemoStopVideoCmd
FUNC c90b0 2 0 DemoVideoCmd::~DemoVideoCmd
FUNC c90c0 2 0 RconDiscoverCmd::~RconDiscoverCmd
FUNC c90d0 2 0 RconCmd::~RconCmd
FUNC c90e0 2 0 DemoPlayCmd::~DemoPlayCmd
FUNC c90f0 2 0 DemoRecordCmd::~DemoRecordCmd
FUNC c9100 2 0 DemoRecordStopCmd::~DemoRecordStopCmd
FUNC c9110 5 0 DemoStopVideoCmd::~DemoStopVideoCmd
FUNC c9120 5 0 DemoVideoCmd::~DemoVideoCmd
FUNC c9130 5 0 RconDiscoverCmd::~RconDiscoverCmd
FUNC c9140 5 0 RconCmd::~RconCmd
FUNC c9150 5 0 DemoPlayCmd::~DemoPlayCmd
FUNC c9160 5 0 DemoRecordCmd::~DemoRecordCmd
FUNC c9170 5 0 DemoRecordStopCmd::~DemoRecordStopCmd
FUNC c9180 1a 0 Sys::DropErr::~DropErr
FUNC c91a0 77 0 clientActive_t::~clientActive_t
FUNC c9220 22 0 clientConnection_t::~clientConnection_t
FUNC c9250 5 0 DemoStopVideoCmd::Run
FUNC c9260 94 0 DemoPlayCmd::Complete
FUNC c9300 9e 0 tinyformat::detail::FormatArg::formatImpl<char [23]>
FUNC c93a0 95 0 RconMessageQueue::~RconMessageQueue
FUNC c9440 8d 0 tinyformat::detail::FormatArg::toIntImpl<char [42]>
FUNC c94d0 9e 0 tinyformat::detail::FormatArg::formatImpl<char [42]>
FUNC c9570 9e 0 tinyformat::detail::FormatArg::formatImpl<char [7]>
FUNC c9610 9e 0 tinyformat::detail::FormatArg::formatImpl<char [52]>
FUNC c96b0 9e 0 tinyformat::detail::FormatArg::formatImpl<char [31]>
FUNC c9750 8d 0 tinyformat::detail::FormatArg::toIntImpl<char [23]>
FUNC c97e0 8d 0 tinyformat::detail::FormatArg::toIntImpl<char [7]>
FUNC c9870 8d 0 tinyformat::detail::FormatArg::toIntImpl<char [52]>
FUNC c9900 8d 0 tinyformat::detail::FormatArg::toIntImpl<char [31]>
FUNC c9990 fc 0 DemoRecordStopCmd::DemoRecordStopCmd
FUNC c9a90 fc 0 DemoRecordCmd::DemoRecordCmd
FUNC c9b90 fc 0 DemoPlayCmd::DemoPlayCmd
FUNC c9c90 fc 0 RconCmd::RconCmd
FUNC c9d90 5a 0 Rcon::Message::~Message
FUNC c9df0 fc 0 RconDiscoverCmd::RconDiscoverCmd
FUNC c9ef0 fc 0 DemoVideoCmd::DemoVideoCmd
FUNC c9ff0 fc 0 DemoStopVideoCmd::DemoStopVideoCmd
FUNC ca0f0 31 0 std::unique_lock<std::mutex>::unlock
FUNC ca130 31 0 DemoRecordStopCmd::Run
FUNC ca170 172 0 Log::Logger::Warn<char const (&)[23]>
FUNC ca2f0 1ce 0 Log::Logger::Notice<int&, double, double>
FUNC ca4c0 19c 0 Log::Logger::Debug<char (&)[256], char const*&>
FUNC ca660 50f 0 std::vector<Rcon::Message, std::allocator<Rcon::Message> >::_M_emplace_back_aux<const Rcon::Message&>
FUNC cab70 172 0 Log::Logger::Notice<char const (&)[52]>
FUNC cacf0 172 0 Log::Logger::Notice<char const (&)[42]>
FUNC cae70 f8 0 Log::Logger::Warn<std::__cxx11::basic_string<char, std::char_traits<char>, std::allocator<char> >&>
FUNC caf70 4f 0 Sys::Error<const std::__cxx11::basic_string<char, std::char_traits<char>, std::allocator<char> >&>
FUNC cafc0 1f4 0 Net::OutOfBandPrint<const std::__cxx11::basic_string<char, std::char_traits<char>, std::allocator<char> >&>
FUNC cb1c0 c0 0 RconDiscoverCmd::Run
FUNC cb280 242 0 DemoRecordCmd::Run
FUNC cb4d0 632 0 DemoVideoCmd::Run
FUNC cbb10 177 0 Log::Logger::Debug<unsigned int&>
FUNC cbc90 205 0 Log::Logger::Debug<int&, int&, int&, int&>
FUNC cbea0 172 0 Log::Logger::Notice<char const (&)[31]>
FUNC cc020 19d 0 Log::Logger::Notice<char const*, char (&)[1024]>
FUNC cc1c0 1f4 0 Net::OutOfBandPrint<std::__cxx11::basic_string<char, std::char_traits<char>, std::allocator<char> >&, std::__cxx11::basic_string<char, std::char_traits<char>, std::allocator<char> > >
FUNC cc3c0 19c 0 Log::Logger::Debug<char*&, char const*>
FUNC cc560 4f 0 Sys::Drop<char (&)[256]>
FUNC cc5b0 205 0 DemoPlayCmd::Run
FUNC cc7c0 4ea 0 std::__find_if<__gnu_cxx::__normal_iterator<Rcon::Message*, std::vector<Rcon::Message> >, __gnu_cxx::__ops::_Iter_pred<RconMessageQueue::Pop(const netadr_t&, const StringRef&)::<lambda(const Rcon::Message&)> > >
FUNC cccb0 147 0 tinyformat::format<char [7]>
FUNC cce00 4e1 0 RconCmd::Run
FUNC cd2f0 eb 0 Log::Logger::Debug<char const*>
FUNC cd3e0 2e5 0 tinyformat::format<int, char const*>
FUNC cd6d0 fb 0 Log::Logger::Notice<int&, char const*>
FUNC cd7d0 fa 0 Log::Logger::Debug<int&, char const*>
FUNC cd8d0 fa 0 Log::Logger::Debug<char const*, char const*>
FUNC cd9d0 eb 0 Log::Logger::Debug<char*&>
FUNC cdac0 c2 0 std::__cxx11::basic_string<char, std::char_traits<char>, std::allocator<char> >::_M_construct<char*>
FUNC cdb90 148 0 CL_SystemInfoChanged
FUNC cdce0 5f 0 CL_ParseCommandString
FUNC cdd40 6b 0 SHOWNET
FUNC cddb0 ce 0 CL_DeltaEntity
FUNC cde80 47b 0 CL_ParsePacketEntities
FUNC ce300 1b0 0 CL_ParseGamestate
FUNC ce4b0 667 0 CL_ParseSnapshot
FUNC ceb20 1fb 0 CL_ParseServerMessage
FUNC ced20 cf0 0 Log::Logger::Notice<int, char const*&>
FUNC cfa10 13c 0 std::vector<entityState_t, std::allocator<entityState_t> >::_M_emplace_back_aux<const entityState_t&>
FUNC cfb50 d10 0 Log::Logger::Notice<int&, int&, int&>
FUNC d0860 cf0 0 Log::Logger::Notice<int, int&>
FUNC d1550 4e 0 SCR_ConsoleFontUnicharWidth
FUNC d15a0 6e 0 SCR_AdjustFrom640
FUNC d1610 62 0 SCR_FillRect
FUNC d1680 14e 0 SCR_DrawSmallUnichar
FUNC d17d0 130 0 SCR_DrawConsoleFontUnichar
FUNC d1900 314 0 SCR_DrawSmallStringExt
FUNC d1c20 8 0 SCR_Init
FUNC d1c30 129 0 SCR_DrawScreenField
FUNC d1d60 5 0 SCR_DrawConsoleAndPointer
FUNC d1d70 94 0 SCR_UpdateScreen
FUNC d1e10 1d 0 SCR_ConsoleFontUnicharWidth
FUNC d1e30 2b 0 SCR_ConsoleFontCharWidth
FUNC d1e60 51 0 SCR_ConsoleFontCharHeight
FUNC d1ec0 3d 0 SCR_ConsoleFontCharVPadding
FUNC d1f00 f7 0 SCR_ConsoleFontStringWidth
FUNC d2000 2e 0 CurlDownload::LibcurlWriteCallback
FUNC d2030 65 0 PakserverCheck::WriteCallback
FUNC d20a0 c2 0 std::__cxx11::basic_string<char, std::char_traits<char>, std::allocator<char> >::_M_construct<char*>
FUNC d2170 152 0 DL_InitDownload
FUNC d22d0 1b37 0 CurlDownload::SetOptions
FUNC d3e10 d0 0 PakserverCheck::~PakserverCheck
FUNC d3ee0 d0 0 PakserverCheck::~PakserverCheck
FUNC d3fb0 f0 0 FileDownload::~FileDownload
FUNC d40a0 100 0 FileDownload::~FileDownload
FUNC d41a0 1e0 0 DownloadState::~DownloadState
FUNC d4380 340 0 DL_StopDownload
FUNC d46c0 2d 0 DL_Shutdown
FUNC d46f0 8e9 0 DL_DownloadLoop
FUNC d4fe0 200d 0 DL_BeginDownload
FUNC d6ff0 ab 0 FileDownload::WriteCallback
FUNC d70a0 3 0 tinyformat::detail::FormatArg::toIntImpl<CURLMcode>
FUNC d70b0 9e 0 tinyformat::detail::FormatArg::formatImpl<char [18]>
FUNC d7150 8d 0 tinyformat::detail::FormatArg::toIntImpl<char [18]>
FUNC d71e0 cc0 0 Log::Logger::Notice<CURLMcode&>
FUNC d7ea0 cc0 0 Log::Logger::Notice<long int&>
FUNC d8b60 cc7 0 Log::Logger::Debug<std::__cxx11::basic_string<char, std::char_traits<char>, std::allocator<char> >&>
FUNC d9830 cf0 0 Log::Logger::Notice<std::__cxx11::basic_string<char, std::char_traits<char>, std::allocator<char> >&, char const*>
FUNC da520 3a4 0 tinyformat::detail::formatTruncated<CURLMcode>
FUNC da8d0 6d 0 tinyformat::detail::FormatArg::formatImpl<CURLMcode>
FUNC da940 c2 0 std::__cxx11::basic_string<char, std::char_traits<char>, std::allocator<char> >::_M_construct<char*>
FUNC daa10 182 0 Hunk_Clear
FUNC daba0 ca 0 Hunk_FreeTempMemory
FUNC dac70 2e8 0 Com_Meminfo_f
FUNC daf60 13a 0 Hunk_Init
FUNC db0a0 149 0 Hunk_Alloc
FUNC db1f0 107 0 Hunk_AllocateTempMemory
FUNC db300 cf0 0 Log::Logger::Notice<int, float>
FUNC dbff0 c2 0 std::__cxx11::basic_string<char, std::char_traits<char>, std::allocator<char> >::_M_construct<char*>
FUNC dc0c0 9f 0 Application::GetApp
FUNC dc160 22 0 Application::ClientApplication::~ClientApplication
FUNC dc190 29 0 Application::ClientApplication::~ClientApplication
FUNC dc1c0 7c 0 Application::ClientApplication::OnUnhandledCommand
FUNC dc240 5 0 Application::ClientApplication::Frame
FUNC dc250 71 0 Application::ClientApplication::LoadInitialConfig
FUNC dc2d0 221 0 Application::ClientApplication::Initialize
FUNC dc500 c4a 0 tinyformat::format<char const*, Str::BasicStringRef<char> >
FUNC dd150 cb 0 Application::ClientApplication::OnDrop
FUNC dd220 c1a 0 tinyformat::format<Str::BasicStringRef<char> >
FUNC dde40 10e 0 Application::ClientApplication::Shutdown
FUNC ddf50 6 0 Audio::Init
FUNC ddf90 3 0 Audio::RegisterSFX
FUNC ddfb0 2 0 Audio::StartSound
FUNC ddfd0 2 0 Audio::AddEntityLoopingSound
FUNC de000 2 0 Audio::StartMusic
FUNC de030 2 0 Audio::StreamData
FUNC de060 2 0 Audio::UpdateEntityVelocity
FUNC de070 2 0 Audio::SetReverb
FUNC de080 2 0 Audio::StartCapture
FUNC de090 3 0 Audio::AvailableCaptureSamples
FUNC de0a0 2 0 Audio::GetCapturedData
FUNC de0b0 2 0 Audio::StopCapture
FUNC de0c0 3 0 Keyboard::StringToKey
FUNC de0d0 39 0 Keyboard::KeyToString
FUNC de110 3 0 Keyboard::GetCharForScancode
FUNC de120 3 0 Keyboard::ScancodeToAscii
FUNC de130 2 0 Keyboard::CompleteKeyName
FUNC de140 3 0 Keyboard::IsDown
FUNC de150 2 0 Keyboard::SetBinding
FUNC de160 8 0 Keyboard::GetBinding
FUNC de170 1b 0 Keyboard::GetKeysBoundTo
FUNC de190 7f 0 Keyboard::GetConsoleKeys
FUNC de210 2 0 Keyboard::SetConsoleKeys
FUNC de240 3 0 Keyboard::GetTeam
FUNC de250 3 0 Keyboard::AnyKeyDown
FUNC de270 2 0 Field_Draw
FUNC de280 2 0 Field_KeyDownEvent
FUNC de290 2 0 Field_CharEvent
FUNC de2a0 3 0 Key_GetKeyNumber
FUNC de2b0 3 0 Key_GetKeyTime
FUNC de2e0 2 0 CL_KeyEvent
FUNC de2f0 2 0 CL_CharEvent
FUNC de300 2 0 Key_ClearStates
FUNC de310 12 0 std::vector<Keyboard::Key, std::allocator<Keyboard::Key> >::~vector
FUNC de330 2 0 IN_Init
FUNC de390 2 0 IN_DropInputsForFrame
FUNC de3a0 3 0 IN_IsNumLockDown
FUNC de3b0 2 0 IN_SetMouseMode
FUNC de3c0 6 0 RE_RegisterShader
FUNC de3d0 3 0 RE_RegisterFont
FUNC de3e0 5c 0 RE_Glyph
FUNC de440 5c 0 RE_GlyphChar
FUNC de4a0 3 0 R_LightForPoint
FUNC de4b0 2 0 RE_AddPolyToScene
FUNC de4c0 2 0 RE_AddPolysToScene
FUNC de4d0 2 0 RE_AddLightToScene
FUNC de4e0 2 0 RE_AddLightToSceneQ3A
FUNC de4f0 2 0 RE_StretchPic
FUNC de500 2 0 RE_RotatedPic
FUNC de510 2 0 RE_StretchPicGradient
FUNC de520 2 0 RE_2DPolyies
FUNC de530 2 0 RE_StretchRaw
FUNC de540 2 0 RE_UploadCinematic
FUNC de550 2 0 RE_EndFrame
FUNC de560 3 0 R_MarkFragments
FUNC de570 2 0 RE_ProjectDecal
FUNC de580 3 0 R_LerpTag
FUNC de590 2 0 R_ModelBounds
FUNC de5a0 2 0 R_RemapShader
FUNC de5b0 6 0 R_GetEntityToken
FUNC de5c0 3 0 R_inPVVS
FUNC de5d0 6 0 RE_LoadDynamicShader
FUNC de5e0 2 0 RE_Finish
FUNC de5f0 2 0 RE_TakeVideoFrame
FUNC de600 6 0 RE_RegisterAnimation
FUNC de610 c 0 RE_BuildSkeleton
FUNC de620 6 0 RE_BlendSkeleton
FUNC de630 3 0 RE_BoneIndex
FUNC de640 6 0 RE_AnimFrameRate
FUNC de650 6 0 RE_RegisterVisTest
FUNC de660 2 0 RE_AddVisTestToScene
FUNC de670 5 0 RE_CheckVisibility
FUNC de680 2 0 RE_UnregisterVisTest
FUNC de690 2 0 RE_SetColorGrading
FUNC de6a0 2 0 RE_ScissorEnable
FUNC de6b0 2 0 RE_ScissorSet
FUNC de6c0 2 0 R_SetAltShaderTokens
FUNC de6d0 d 0 RE_GetTextureSize
FUNC de6e0 2 0 RE_Add2dPolysIndexed
FUNC de6f0 6 0 RE_GenerateTexture
FUNC de700 8 0 RE_ShaderNameFromHandle
FUNC de710 7 0 RE_RegisterSkin
FUNC de730 7e 0 RE_BeginRegistration
FUNC de8b0 36c 0 GetRefAPI
FUNC dec20 1b 0 Color::detail::Indexed
FUNC dec40 43a 0 Color::detail::ToString
FUNC df080 397 0 Color::TokenIterator::NextToken
FUNC df420 2ec 0 Color::StripColors
FUNC df710 148 0 Color::StrlenNocolor
FUNC df860 15d 0 Color::StripColors
FUNC df9c0 282 0 Color::StripColors
FUNC dfc50 b6 0 Cmd::SkipSpaces
FUNC dfd10 1b 0 Cmd::CmdBase::Complete
FUNC dfd30 17 0 Cmd::LambdaCmd::Run
FUNC dfd50 65 0 Cmd::LambdaCmd::Complete
FUNC dfdc0 c2 0 std::__cxx11::basic_string<char, std::char_traits<char>, std::allocator<char> >::_M_construct<char*>
FUNC dfe90 3b6 0 Cmd::Escape
FUNC e0250 139 0 Cmd::SplitCommand
FUNC e0390 3c2 0 Cmd::SubstituteCvars
FUNC e0760 4d 0 Cmd::IsValidCvarName
FUNC e07b0 78 0 Cmd::IsValidCmdName
FUNC e0830 af 0 Cmd::IsSwitch
FUNC e08e0 18 0 Cmd::Args::Args
FUNC e0900 45 0 Cmd::Args::Args
FUNC e0970 159 0 Cmd::Args::EscapedArgs
FUNC e0ad0 d9 0 Cmd::Args::ConcatArgs
FUNC e0bb0 4 0 Cmd::Args::ArgVector
FUNC e0bc0 c 0 Cmd::Args::size
FUNC e0bd0 b 0 Cmd::Args::operator[]
FUNC e0be0 4 0 Cmd::Args::begin
FUNC e0bf0 5 0 Cmd::Args::end
FUNC e0c00 e 0 Cmd::CmdBase::CmdBase
FUNC e0c10 4 0 Cmd::CmdBase::GetFlags
FUNC e0c20 2b 0 Cmd::CmdBase::ExecuteAfter
FUNC e0c50 5 0 Cmd::CmdBase::GetEnv
FUNC e0c60 d6 0 Cmd::StaticCmd::StaticCmd
FUNC e0d40 d6 0 Cmd::StaticCmd::StaticCmd
FUNC e0e20 1b 0 Cmd::NoopComplete
FUNC e0e40 1ad 0 Cmd::LambdaCmd::LambdaCmd
FUNC e0ff0 1ad 0 Cmd::LambdaCmd::LambdaCmd
FUNC e11a0 458 0 Cmd::Args::Args
FUNC e1600 12e 0 Cmd::CmdBase::PrintUsage
FUNC e1730 24c 0 Cmd::AddToCompletion
FUNC e1980 85 0 Cmd::FilterCompletion
FUNC e1a10 42 0 Cmd::LambdaCmd::~LambdaCmd
FUNC e1a60 45 0 Cmd::LambdaCmd::~LambdaCmd
FUNC e1ab0 5d 0 std::function<void(const Cmd::Args&)>::function
FUNC e1b10 5d 0 std::function<std::vector<std::pair<std::__cxx11::basic_string<char, std::char_traits<char>, std::allocator<char> >, std::__cxx11::basic_string<char, std::char_traits<char>, std::allocator<char> > >, std::allocator<std::pair<std::__cxx11::basic_string<char, std::char_traits<char>, std::allocator<char> >, std::__cxx11::basic_string<char, std::char_traits<char>, std::allocator<char> > > > >(int, const Cmd::Args&, Str::BasicStringRef<char>)>::function
FUNC e1b70 c6a 0 tinyformat::format<char [6], char const*, char const*>
FUNC e27e0 caf 0 tinyformat::format<char [6], char const*, char const*, char const*>
FUNC e3490 c2 0 std::__cxx11::basic_string<char, std::char_traits<char>, std::allocator<char> >::_M_construct<char*>
FUNC e3560 aa 0 Cvar::CvarProxy::CvarProxy
FUNC e3610 9 0 Cvar::CvarProxy::SetValue
FUNC e3620 ce 0 Cvar::CvarProxy::Register
FUNC e36f0 2dc 0 Cvar::ParseCvarValue
FUNC e39d0 46 0 Cvar::SerializeCvarValue
FUNC e3a20 23 0 Cvar::GetCvarTypeName<bool>
FUNC e3a50 14 0 Cvar::ParseCvarValue
FUNC e3a70 23 0 Cvar::GetCvarTypeName<int>
FUNC e3aa0 5 0 Cvar::ParseCvarValue
FUNC e3ab0 23 0 Cvar::GetCvarTypeName<float>
FUNC e3ae0 1c 0 Cvar::ParseCvarValue
FUNC e3b00 52 0 Cvar::SerializeCvarValue
FUNC e3b60 23 0 Cvar::GetCvarTypeName<std::__cxx11::basic_string<char> >
FUNC e3b90 23 0 Cvar::GetCvarTypeName<long unsigned int>
FUNC e3bc0 fa 0 Cvar::ParseCvarValue
FUNC e3cc0 51 0 Cvar::SerializeCvarValue
FUNC e3d20 57 0 Cvar::SerializeCvarValue
FUNC e3d80 51 0 Cvar::SerializeCvarValue
FUNC e3e20 2 0 std::_Sp_counted_deleter<__dirstream*, FS::RawPath::ListFiles(Str::StringRef, std::error_code&)::<lambda(DIR*)>, std::allocator<void>, (__gnu_cxx::_Lock_policy)2u>::~_Sp_counted_deleter
FUNC e3e50 5 0 std::_Sp_counted_deleter<__dirstream*, FS::RawPath::ListFiles(Str::StringRef, std::error_code&)::<lambda(DIR*)>, std::allocator<void>, (__gnu_cxx::_Lock_policy)2u>::~_Sp_counted_deleter
FUNC e3e60 5 0 std::_Sp_counted_deleter<__dirstream*, FS::RawPath::ListFiles(Str::StringRef, std::error_code&)::<lambda(DIR*)>, std::allocator<void>, (__gnu_cxx::_Lock_policy)2u>::_M_destroy
FUNC e3e70 df 0 FS::SetErrorCode
FUNC e3f50 29 0 FS::SetErrorCodeSystem
FUNC e3f80 5e 0 FS::minizip_category
FUNC e3fe0 35 0 FS::SetErrorCodeZlib
FUNC e4020 15c 0 FS::::ZipArchive::Open
FUNC e4180 5e 0 FS::filesystem_category
FUNC e41e0 29 0 std::_Sp_counted_deleter<__dirstream*, FS::RawPath::ListFiles(Str::StringRef, std::error_code&)::<lambda(DIR*)>, std::allocator<void>, (__gnu_cxx::_Lock_policy)2u>::_M_get_deleter
FUNC e4210 9 0 std::_Sp_counted_deleter<__dirstream*, FS::RawPath::ListFiles(Str::StringRef, std::error_code&)::<lambda(DIR*)>, std::allocator<void>, (__gnu_cxx::_Lock_policy)2u>::_M_dispose
FUNC e4290 a0 0 FS::::ZipArchive::ReadFile
FUNC e4330 3d 0 std::__detail::_Hashtable_alloc<std::allocator<std::__detail::_Hash_node<std::pair<const std::__cxx11::basic_string<char, std::char_traits<char>, std::allocator<char> >, std::pair<unsigned int, long int> >, true> > >::_M_deallocate_nodes
FUNC e4370 c2 0 std::__cxx11::basic_string<char, std::char_traits<char>, std::allocator<char> >::_M_construct<char*>
FUNC e4440 3c 0 std::__cxx11::basic_string<char, std::char_traits<char>, std::allocator<char> >::basic_string
FUNC e4480 44 0 std::__detail::_Hashtable_alloc<std::allocator<std::__detail::_Hash_node<std::pair<const std::__cxx11::basic_string<char, std::char_traits<char>, std::allocator<char> >, std::pair<unsigned int, long int> >, true> > >::_M_allocate_buckets
FUNC e44d0 253 0 FS::VersionCmp
FUNC e4980 167 0 std::__upper_bound<__gnu_cxx::__normal_iterator<FS::PakInfo*, std::vector<FS::PakInfo> >, FS::PakInfo, __gnu_cxx::__ops::_Val_comp_iter<FS::RefreshPaks()::<lambda(const FS::PakInfo&, const FS::PakInfo&)> > >
FUNC e4af0 179 0 std::__lower_bound<__gnu_cxx::__normal_iterator<FS::PakInfo*, std::vector<FS::PakInfo> >, FS::PakInfo, __gnu_cxx::__ops::_Iter_comp_val<FS::RefreshPaks()::<lambda(const FS::PakInfo&, const FS::PakInfo&)> > >
FUNC e4c70 de 0 FS::GetRealPath
FUNC e4d50 924 0 std::__insertion_sort<__gnu_cxx::__normal_iterator<FS::PakInfo*, std::vector<FS::PakInfo> >, __gnu_cxx::__ops::_Iter_comp_iter<FS::RefreshPaks()::<lambda(const FS::PakInfo&, const FS::PakInfo&)> > >
FUNC e5680 38c 0 std::__move_merge<FS::PakInfo*, __gnu_cxx::__normal_iterator<FS::PakInfo*, std::vector<FS::PakInfo> >, __gnu_cxx::__ops::_Iter_comp_iter<FS::RefreshPaks()::<lambda(const FS::PakInfo&, const FS::PakInfo&)> > >
FUNC e5a10 3ac 0 std::__move_merge<__gnu_cxx::__normal_iterator<FS::PakInfo*, std::vector<FS::PakInfo> >, FS::PakInfo*, __gnu_cxx::__ops::_Iter_comp_iter<FS::RefreshPaks()::<lambda(const FS::PakInfo&, const FS::PakInfo&)> > >
FUNC e5dc0 293 0 std::__merge_sort_with_buffer<__gnu_cxx::__normal_iterator<FS::PakInfo*, std::vector<FS::PakInfo> >, FS::PakInfo*, __gnu_cxx::__ops::_Iter_comp_iter<FS::RefreshPaks()::<lambda(const FS::PakInfo&, const FS::PakInfo&)> > >
FUNC e6060 8 0 FS::UseLegacyPaks
FUNC e6070 9e 0 FS::Path::IsValid
FUNC e6110 1e8 0 FS::Path::Build
FUNC e6300 78 0 FS::Path::DirName
FUNC e6380 91 0 FS::Path::BaseName
FUNC e6420 86 0 FS::Path::Extension
FUNC e64b0 a6 0 FS::Path::StripExtension
FUNC e6560 b1 0 FS::Path::BaseNameStripExtension
FUNC e6620 49 0 FS::File::Close
FUNC e6670 89 0 FS::File::Length
FUNC e6700 a1 0 FS::File::Timestamp
FUNC e67b0 41 0 FS::File::SeekCur
FUNC e6800 39 0 FS::File::SeekSet
FUNC e6840 41 0 FS::File::SeekEnd
FUNC e6890 8 0 FS::File::Tell
FUNC e68a0 7e 0 FS::File::Read
FUNC e6920 5e 0 FS::File::Write
FUNC e6980 39 0 FS::File::Flush
FUNC e69c0 97 0 FS::File::ReadAll
FUNC e6a60 8b 0 FS::File::CopyTo
FUNC e6af0 49 0 FS::File::SetLineBuffered
FUNC e6b40 8 0 FS::PakPath::GetLoadedPaks
FUNC e6b50 27c 0 FS::PakPath::DirectoryRange::InternalAdvance
FUNC e6dd0 41 0 FS::PakPath::DirectoryRange::Advance
FUNC e6e20 196 0 FS::PakPath::ListFiles
FUNC e6fc0 196 0 FS::PakPath::ListFilesRecursive
FUNC e7160 1bd 0 FS::RawPath::CreatePathTo
FUNC e7320 2c5 0 FS::RawPath::OpenMode
FUNC e75f0 e9 0 FS::HomePath::OpenMode
FUNC e76e0 40 0 FS::RawPath::OpenRead
FUNC e7720 43 0 FS::RawPath::OpenWrite
FUNC e7770 43 0 FS::RawPath::OpenAppend
FUNC e77c0 43 0 FS::RawPath::OpenEdit
FUNC e7810 4f 0 FS::RawPath::FileExists
FUNC e7860 91 0 FS::RawPath::FileTimestamp
FUNC e7900 39 0 FS::RawPath::DeleteFile
FUNC e7940 179 0 FS::RawPath::MoveFile
FUNC e7ac0 21a 0 FS::RawPath::DirectoryRange::Advance
FUNC e7ce0 375 0 FS::RawPath::ListFiles
FUNC e8060 40 0 FS::HomePath::OpenRead
FUNC e80a0 43 0 FS::HomePath::OpenWrite
FUNC e80f0 43 0 FS::HomePath::OpenAppend
FUNC e8140 43 0 FS::HomePath::OpenEdit
FUNC e8190 ad 0 FS::HomePath::FileExists
FUNC e8240 d4 0 FS::HomePath::FileTimestamp
FUNC e8320 160 0 FS::HomePath::MoveFile
FUNC e8480 c9 0 FS::HomePath::DeleteFile
FUNC e8550 f5 0 FS::HomePath::ListFiles
FUNC e8650 b0 0 FS::DefaultBasePath
FUNC e8700 24c 0 FS::DefaultHomePath
FUNC e8950 7 0 FS::FlushAll
FUNC e8960 8 0 FS::IsInitialized
FUNC e8970 129 0 FS::FindPak
FUNC e8aa0 184 0 FS::FindPak
FUNC e8c30 8 0 FS::GetAvailablePaks
FUNC e8c40 8 0 FS::GetHomePath
FUNC e8c50 8 0 FS::GetLibPath
FUNC e8c60 311 0 FS::FindPak
FUNC e8f80 ba 0 FS::MakePakName
FUNC e9040 176 0 FS::GetAvailableMapPaks
FUNC e91c0 df8 0 IPC::detail::HandleMsg<FS::HandleFileSystemSyscall(int, Util::Reader&, IPC::Channel&, Str::StringRef)::<lambda(std::__cxx11::string&, std::__cxx11::string&, std::vector<FS::PakInfo>&, std::vector<FS::LoadedPakInfo>&, std::unordered_map<std::__cxx11::basic_string<char>, std::pair<unsigned int, long int> >&)>, IPC::Message<IPC::Id<6u, 0u> >, IPC::Reply<std::__cxx11::basic_string<char, std::char_traits<char>, std::allocator<char> >, std::__cxx11::basic_string<char, std::char_traits<char>, std::allocator<char> >, std::vector<FS::PakInfo, std::allocator<FS::PakInfo> >, std::vector<FS::LoadedPakInfo, std::allocator<FS::LoadedPakInfo> >, std::unordered_map<std::__cxx11::basic_string<char, std::char_traits<char>, std::allocator<char> >, std::pair<unsigned int, long int>, std::hash<std::__cxx11::basic_string<char, std::char_traits<char>, std::allocator<char> > >, std::equal_to<std::__cxx11::basic_string<char, std::char_traits<char>, std::allocator<char> > >, std::allocator<std::pair<const std::__cxx11::basic_string<char, std::char_traits<char>, std::allocator<char> >, std::pair<unsigned int, long int> > > > > >
FUNC e9fc0 87a 0 FS::::ZipArchive::OpenFileWithSymlinkResolution
FUNC ea840 3b9 0 FS::ParsePakName
FUNC eac00 2c5 0 FS::RawPath::RecursiveDirectoryRange::Advance
FUNC eaed0 442 0 FS::RawPath::ListFilesRecursive
FUNC eb320 f5 0 FS::HomePath::ListFilesRecursive
FUNC eb420 3fd 0 FS::AddPak
FUNC eb820 4b7 0 FS::FindPaksInPath
FUNC ebce0 3ec 0 FS::PakPath::ReadFile
FUNC ec0d0 460 0 FS::PakPath::CopyFile
FUNC ec530 6f 0 FS::PakPath::FileExists
FUNC ec5a0 89 0 FS::PakPath::LocateFile
FUNC ec630 13f 0 FS::PakPath::FileTimestamp
FUNC ec770 850 0 FS::PakPath::CompleteFilename
FUNC ecfc0 6fd 0 FS::HomePath::CompleteFilename
FUNC ed6c0 3de 0 FS::::ZipArchive::ForEachFile<FS::PakPath::InternalLoadPak(const FS::PakInfo&, Util::optional<unsigned int>, Str::StringRef, std::error_code&)::<lambda(Str::StringRef, FS::offset_t, uint32_t)> >
FUNC edaa0 1293 0 FS::PakPath::InternalLoadPak
FUNC eed40 47 0 FS::PakPath::LoadPak
FUNC eed90 4a 0 FS::PakPath::LoadPakPrefix
FUNC eede0 4a 0 FS::PakPath::LoadPakExplicit
FUNC eee30 3373 0 FS::HandleFileSystemSyscall
FUNC f21b0 1d7 0 std::__merge_without_buffer<__gnu_cxx::__normal_iterator<FS::PakInfo*, std::vector<FS::PakInfo> >, long int, __gnu_cxx::__ops::_Iter_comp_iter<FS::RefreshPaks()::<lambda(const FS::PakInfo&, const FS::PakInfo&)> > >
FUNC f2390 c3 0 std::__inplace_stable_sort<__gnu_cxx::__normal_iterator<FS::PakInfo*, std::vector<FS::PakInfo> >, __gnu_cxx::__ops::_Iter_comp_iter<FS::RefreshPaks()::<lambda(const FS::PakInfo&, const FS::PakInfo&)> > >
FUNC f2460 4e6 0 std::__merge_adaptive<__gnu_cxx::__normal_iterator<FS::PakInfo*, std::vector<FS::PakInfo> >, long int, FS::PakInfo*, __gnu_cxx::__ops::_Iter_comp_iter<FS::RefreshPaks()::<lambda(const FS::PakInfo&, const FS::PakInfo&)> > >
FUNC f2950 fd 0 std::__stable_sort_adaptive<__gnu_cxx::__normal_iterator<FS::PakInfo*, std::vector<FS::PakInfo> >, FS::PakInfo*, long int, __gnu_cxx::__ops::_Iter_comp_iter<FS::RefreshPaks()::<lambda(const FS::PakInfo&, const FS::PakInfo&)> > >
FUNC f2a50 338 0 FS::RefreshPaks
FUNC f2d90 1d5 0 FS::PakPath::ClearPaks
FUNC f2f70 737 0 FS::Initialize
FUNC f36b0 58b 0 FS::GetAvailableMaps
FUNC f3c40 8 0 FS::minizip_category_impl::name
FUNC f3c50 8 0 FS::filesystem_category_impl::name
FUNC f3c60 12 0 std::_Sp_counted_base<(__gnu_cxx::_Lock_policy)2u>::_M_destroy
FUNC f3c80 43 0 FS::PakPath::LoadedPakGuard::~LoadedPakGuard
FUNC f3cd0 f 0 FS::minizip_category_impl::~minizip_category_impl
FUNC f3ce0 1c 0 FS::minizip_category_impl::~minizip_category_impl
FUNC f3d00 f 0 FS::filesystem_category_impl::~filesystem_category_impl
FUNC f3d10 1c 0 FS::filesystem_category_impl::~filesystem_category_impl
FUNC f3d30 f 0 Util::bad_optional_access::~bad_optional_access
FUNC f3d40 1c 0 Util::bad_optional_access::~bad_optional_access
FUNC f3d60 dc 0 FS::filesystem_category_impl::message
FUNC f3e40 e1 0 FS::minizip_category_impl::message
FUNC f3f30 9e 0 tinyformat::detail::FormatArg::formatImpl<char [5]>
FUNC f3fd0 75 0 std::vector<FS::PakInfo, std::allocator<FS::PakInfo> >::~vector
FUNC f4050 95 0 std::vector<FS::LoadedPakInfo, std::allocator<FS::LoadedPakInfo> >::~vector
FUNC f40f0 8d 0 tinyformat::detail::FormatArg::toIntImpl<char [5]>
FUNC f4180 42 0 FS::PakInfo::~PakInfo
FUNC f41d0 10a 0 FS::PakInfo::PakInfo
FUNC f42e0 5a 0 FS::LoadedPakInfo::~LoadedPakInfo
FUNC f4340 11b 0 FS::RawPath::RecursiveDirectoryRange::~RecursiveDirectoryRange
FUNC f4460 19d 0 Log::Logger::Warn<Str::BasicStringRef<char>&, int&>
FUNC f4600 19d 0 Log::Logger::Warn<int&, std::__cxx11::basic_string<char, std::char_traits<char>, std::allocator<char> > >
FUNC f47a0 33 0 std::operator==<char>
FUNC f47e0 19d 0 Log::Logger::Warn<const std::__cxx11::basic_string<char, std::char_traits<char>, std::allocator<char> >&, std::__cxx11::basic_string<char, std::char_traits<char>, std::allocator<char> >&>
FUNC f4980 3b 0 Str::BasicStringRef<char>::compare
FUNC f49c0 4d9 0 std::vector<FS::PakInfo, std::allocator<FS::PakInfo> >::operator=
FUNC f4ea0 6e6 0 std::vector<FS::LoadedPakInfo, std::allocator<FS::LoadedPakInfo> >::operator=
FUNC f5590 19d 0 Log::Logger::Warn<std::__cxx11::basic_string<char, std::char_traits<char>, std::allocator<char> >&, char const*>
FUNC f5730 f2 0 std::vector<IPC::FileDesc, std::allocator<IPC::FileDesc> >::_M_emplace_back_aux<const IPC::FileDesc&>
FUNC f5830 35 0 std::_Hashtable<std::__cxx11::basic_string<char, std::char_traits<char>, std::allocator<char> >, std::pair<const std::__cxx11::basic_string<char, std::char_traits<char>, std::allocator<char> >, std::pair<unsigned int, long int> >, std::allocator<std::pair<const std::__cxx11::basic_string<char, std::char_traits<char>, std::allocator<char> >, std::pair<unsigned int, long int> > >, std::__detail::_Select1st, std::equal_to<std::__cxx11::basic_string<char, std::char_traits<char>, std::allocator<char> > >, std::hash<std::__cxx11::basic_string<char, std::char_traits<char>, std::allocator<char> > >, std::__detail::_Mod_range_hashing, std::__detail::_Default_ranged_hash, std::__detail::_Prime_rehash_policy, std::__detail::_Hashtable_traits<true, false, true> >::clear
FUNC f5870 22 0 std::_Hashtable<std::__cxx11::basic_string<char, std::char_traits<char>, std::allocator<char> >, std::pair<const std::__cxx11::basic_string<char, std::char_traits<char>, std::allocator<char> >, std::pair<unsigned int, long int> >, std::allocator<std::pair<const std::__cxx11::basic_string<char, std::char_traits<char>, std::allocator<char> >, std::pair<unsigned int, long int> > >, std::__detail::_Select1st, std::equal_to<std::__cxx11::basic_string<char, std::char_traits<char>, std::allocator<char> > >, std::hash<std::__cxx11::basic_string<char, std::char_traits<char>, std::allocator<char> > >, std::__detail::_Mod_range_hashing, std::__detail::_Default_ranged_hash, std::__detail::_Prime_rehash_policy, std::__detail::_Hashtable_traits<true, false, true> >::~_Hashtable
FUNC f58a0 5 0 std::unordered_map<std::__cxx11::basic_string<char, std::char_traits<char>, std::allocator<char> >, std::pair<unsigned int, long int>, std::hash<std::__cxx11::basic_string<char, std::char_traits<char>, std::allocator<char> > >, std::equal_to<std::__cxx11::basic_string<char, std::char_traits<char>, std::allocator<char> > >, std::allocator<std::pair<const std::__cxx11::basic_string<char, std::char_traits<char>, std::allocator<char> >, std::pair<unsigned int, long int> > > >::~unordered_map
FUNC f58b0 3bd 0 std::vector<FS::LoadedPakInfo, std::allocator<FS::LoadedPakInfo> >::_M_emplace_back_aux<>
FUNC f5c70 211 0 std::vector<std::__cxx11::basic_string<char, std::char_traits<char>, std::allocator<char> >, std::allocator<std::__cxx11::basic_string<char, std::char_traits<char>, std::allocator<char> > > >::_M_emplace_back_aux<const std::__cxx11::basic_string<char, std::char_traits<char>, std::allocator<char> >&>
FUNC f5e90 1cc 0 tinyformat::format<Str::BasicStringRef<char>, Str::BasicStringRef<char>, unsigned int, char [5]>
FUNC f6060 18f 0 tinyformat::format<Str::BasicStringRef<char>, Str::BasicStringRef<char>, char [5]>
FUNC f61f0 16b 0 tinyformat::format<Str::BasicStringRef<char>, char [5]>
FUNC f6360 3d9 0 std::vector<FS::PakInfo, std::allocator<FS::PakInfo> >::_M_emplace_back_aux<const FS::PakInfo&>
FUNC f6740 78 0 std::__detail::_Hashtable_alloc<std::allocator<std::__detail::_Hash_node<std::pair<const std::__cxx11::basic_string<char, std::char_traits<char>, std::allocator<char> >, std::pair<unsigned int, long int> >, true> > >::_M_allocate_node<const std::pair<const std::__cxx11::basic_string<char, std::char_traits<char>, std::allocator<char> >, std::pair<unsigned int, long int> >&>
FUNC f67c0 27d 0 std::_Hashtable<std::__cxx11::basic_string<char, std::char_traits<char>, std::allocator<char> >, std::pair<const std::__cxx11::basic_string<char, std::char_traits<char>, std::allocator<char> >, std::pair<unsigned int, long int> >, std::allocator<std::pair<const std::__cxx11::basic_string<char, std::char_traits<char>, std::allocator<char> >, std::pair<unsigned int, long int> > >, std::__detail::_Select1st, std::equal_to<std::__cxx11::basic_string<char, std::char_traits<char>, std::allocator<char> > >, std::hash<std::__cxx11::basic_string<char, std::char_traits<char>, std::allocator<char> > >, std::__detail::_Mod_range_hashing, std::__detail::_Default_ranged_hash, std::__detail::_Prime_rehash_policy, std::__detail::_Hashtable_traits<true, false, true> >::_M_assign<std::_Hashtable<_Key, _Value, _Alloc, _ExtractKey, _Equal, _H1, _H2, _Hash, _RehashPolicy, _Traits>::operator=(const std::_Hashtable<_Key, _Value, _Alloc, _ExtractKey, _Equal, _H1, _H2, _Hash, _RehashPolicy, _Traits>&) [with _Key = std::__cxx11::basic_string<char>; _Value = std::pair<const std::__cxx11::basic_string<char>, std::pair<unsigned int, long int> >; _Alloc = std::allocator<std::pair<const std::__cxx11::basic_string<char>, std::pair<unsigned int, long int> > >; _ExtractKey = std::__detail::_Select1st; _Equal = std::equal_to<std::__cxx11::basic_string<char> >; _H1 = std::hash<std::__cxx11::basic_string<char> >; _H2 = std::__detail::_Mod_range_hashing; _Hash = std::__detail::_Default_ranged_hash; _RehashPolicy = std::__detail::_Prime_rehash_policy; _Traits = std::__detail::_Hashtable_traits<true, false, true>]::<lambda(const __node_type*)> >
FUNC f6a40 17f 0 std::_Hashtable<std::__cxx11::basic_string<char, std::char_traits<char>, std::allocator<char> >, std::pair<const std::__cxx11::basic_string<char, std::char_traits<char>, std::allocator<char> >, std::pair<unsigned int, long int> >, std::allocator<std::pair<const std::__cxx11::basic_string<char, std::char_traits<char>, std::allocator<char> >, std::pair<unsigned int, long int> > >, std::__detail::_Select1st, std::equal_to<std::__cxx11::basic_string<char, std::char_traits<char>, std::allocator<char> > >, std::hash<std::__cxx11::basic_string<char, std::char_traits<char>, std::allocator<char> > >, std::__detail::_Mod_range_hashing, std::__detail::_Default_ranged_hash, std::__detail::_Prime_rehash_policy, std::__detail::_Hashtable_traits<true, false, true> >::operator=
FUNC f6bc0 116 0 std::_Tuple_impl<0ul, std::__cxx11::basic_string<char, std::char_traits<char>, std::allocator<char> >, std::__cxx11::basic_string<char, std::char_traits<char>, std::allocator<char> >, std::vector<FS::PakInfo, std::allocator<FS::PakInfo> >, std::vector<FS::LoadedPakInfo, std::allocator<FS::LoadedPakInfo> >, std::unordered_map<std::__cxx11::basic_string<char, std::char_traits<char>, std::allocator<char> >, std::pair<unsigned int, long int>, std::hash<std::__cxx11::basic_string<char, std::char_traits<char>, std::allocator<char> > >, std::equal_to<std::__cxx11::basic_string<char, std::char_traits<char>, std::allocator<char> > >, std::allocator<std::pair<const std::__cxx11::basic_string<char, std::char_traits<char>, std::allocator<char> >, std::pair<unsigned int, long int> > > > >::~_Tuple_impl
FUNC f6ce0 fb 0 Log::Logger::Warn<Str::BasicStringRef<char>&, const std::__cxx11::basic_string<char, std::char_traits<char>, std::allocator<char> >&>
FUNC f6de0 fa 0 Log::Logger::Debug<Str::BasicStringRef<char>&, std::__cxx11::basic_string<char, std::char_traits<char>, std::allocator<char> >&>
FUNC f6ee0 d9 0 std::__find_if<char const*, __gnu_cxx::__ops::_Iter_equals_val<char const> >
FUNC f6fc0 fa 0 Log::Logger::Verbose<const std::__cxx11::basic_string<char, std::char_traits<char>, std::allocator<char> >&>
FUNC f70c0 4f 0 Sys::Error<std::__cxx11::basic_string<char, std::char_traits<char>, std::allocator<char> >&>
FUNC f7110 3ce 0 std::vector<FS::RawPath::DirectoryRange, std::allocator<FS::RawPath::DirectoryRange> >::_M_emplace_back_aux<FS::RawPath::DirectoryRange>
FUNC f74e0 f5 0 std::vector<FS::RawPath::DirectoryRange, std::allocator<FS::RawPath::DirectoryRange> >::emplace_back<FS::RawPath::DirectoryRange>
FUNC f75e0 209 0 std::__find_if<__gnu_cxx::__normal_iterator<std::__cxx11::basic_string<char>*, std::vector<std::__cxx11::basic_string<char> > >, __gnu_cxx::__ops::_Iter_equals_val<const Util::optional<std::__cxx11::basic_string<char> > > >
FUNC f77f0 2ca 0 std::vector<FS::PakInfo, std::allocator<FS::PakInfo> >::_M_emplace_back_aux<FS::PakInfo>
FUNC f7ac0 a5 0 Util::Reader::FillTuple<0ul, std::__cxx11::basic_string<char>, std::tuple<std::__cxx11::basic_string<char, std::char_traits<char>, std::allocator<char> > > >
FUNC f7b70 a4 0 std::_Hashtable<std::__cxx11::basic_string<char, std::char_traits<char>, std::allocator<char> >, std::pair<const std::__cxx11::basic_string<char, std::char_traits<char>, std::allocator<char> >, std::pair<unsigned int, long int> >, std::allocator<std::pair<const std::__cxx11::basic_string<char, std::char_traits<char>, std::allocator<char> >, std::pair<unsigned int, long int> > >, std::__detail::_Select1st, std::equal_to<std::__cxx11::basic_string<char, std::char_traits<char>, std::allocator<char> > >, std::hash<std::__cxx11::basic_string<char, std::char_traits<char>, std::allocator<char> > >, std::__detail::_Mod_range_hashing, std::__detail::_Default_ranged_hash, std::__detail::_Prime_rehash_policy, std::__detail::_Hashtable_traits<true, false, true> >::_M_find_before_node
FUNC f7c20 59 0 std::_Hashtable<std::__cxx11::basic_string<char, std::char_traits<char>, std::allocator<char> >, std::pair<const std::__cxx11::basic_string<char, std::char_traits<char>, std::allocator<char> >, std::pair<unsigned int, long int> >, std::allocator<std::pair<const std::__cxx11::basic_string<char, std::char_traits<char>, std::allocator<char> >, std::pair<unsigned int, long int> > >, std::__detail::_Select1st, std::equal_to<std::__cxx11::basic_string<char, std::char_traits<char>, std::allocator<char> > >, std::hash<std::__cxx11::basic_string<char, std::char_traits<char>, std::allocator<char> > >, std::__detail::_Mod_range_hashing, std::__detail::_Default_ranged_hash, std::__detail::_Prime_rehash_policy, std::__detail::_Hashtable_traits<true, false, true> >::find
FUNC f7c80 29f 0 std::vector<std::pair<std::__cxx11::basic_string<char, std::char_traits<char>, std::allocator<char> >, std::__cxx11::basic_string<char, std::char_traits<char>, std::allocator<char> > >, std::allocator<std::pair<std::__cxx11::basic_string<char, std::char_traits<char>, std::allocator<char> >, std::__cxx11::basic_string<char, std::char_traits<char>, std::allocator<char> > > > >::_M_emplace_back_aux<std::__cxx11::basic_string<char, std::char_traits<char>, std::allocator<char> >&, char const (&)[1]>
FUNC f7f20 a5 0 std::vector<std::pair<std::__cxx11::basic_string<char, std::char_traits<char>, std::allocator<char> >, std::__cxx11::basic_string<char, std::char_traits<char>, std::allocator<char> > >, std::allocator<std::pair<std::__cxx11::basic_string<char, std::char_traits<char>, std::allocator<char> >, std::__cxx11::basic_string<char, std::char_traits<char>, std::allocator<char> > > > >::emplace_back<std::__cxx11::basic_string<char, std::char_traits<char>, std::allocator<char> >&, char const (&)[1]>
FUNC f7fd0 6c 0 FS::PakInfo::operator=
FUNC f8040 ee 0 std::_Hashtable<std::__cxx11::basic_string<char, std::char_traits<char>, std::allocator<char> >, std::pair<const std::__cxx11::basic_string<char, std::char_traits<char>, std::allocator<char> >, std::pair<unsigned int, long int> >, std::allocator<std::pair<const std::__cxx11::basic_string<char, std::char_traits<char>, std::allocator<char> >, std::pair<unsigned int, long int> > >, std::__detail::_Select1st, std::equal_to<std::__cxx11::basic_string<char, std::char_traits<char>, std::allocator<char> > >, std::hash<std::__cxx11::basic_string<char, std::char_traits<char>, std::allocator<char> > >, std::__detail::_Mod_range_hashing, std::__detail::_Default_ranged_hash, std::__detail::_Prime_rehash_policy, std::__detail::_Hashtable_traits<true, false, true> >::_M_rehash
FUNC f8130 11f 0 std::_Hashtable<std::__cxx11::basic_string<char, std::char_traits<char>, std::allocator<char> >, std::pair<const std::__cxx11::basic_string<char, std::char_traits<char>, std::allocator<char> >, std::pair<unsigned int, long int> >, std::allocator<std::pair<const std::__cxx11::basic_string<char, std::char_traits<char>, std::allocator<char> >, std::pair<unsigned int, long int> > >, std::__detail::_Select1st, std::equal_to<std::__cxx11::basic_string<char, std::char_traits<char>, std::allocator<char> > >, std::hash<std::__cxx11::basic_string<char, std::char_traits<char>, std::allocator<char> > >, std::__detail::_Mod_range_hashing, std::__detail::_Default_ranged_hash, std::__detail::_Prime_rehash_policy, std::__detail::_Hashtable_traits<true, false, true> >::_M_insert_unique_node
FUNC f8250 fd 0 std::_Hashtable<std::__cxx11::basic_string<char, std::char_traits<char>, std::allocator<char> >, std::pair<const std::__cxx11::basic_string<char, std::char_traits<char>, std::allocator<char> >, std::pair<unsigned int, long int> >, std::allocator<std::pair<const std::__cxx11::basic_string<char, std::char_traits<char>, std::allocator<char> >, std::pair<unsigned int, long int> > >, std::__detail::_Select1st, std::equal_to<std::__cxx11::basic_string<char, std::char_traits<char>, std::allocator<char> > >, std::hash<std::__cxx11::basic_string<char, std::char_traits<char>, std::allocator<char> > >, std::__detail::_Mod_range_hashing, std::__detail::_Default_ranged_hash, std::__detail::_Prime_rehash_policy, std::__detail::_Hashtable_traits<true, false, true> >::_M_emplace<const std::__cxx11::basic_string<char, std::char_traits<char>, std::allocator<char> >&, std::pair<unsigned int, long int> >
FUNC f8350 fd 0 std::_Hashtable<std::__cxx11::basic_string<char, std::char_traits<char>, std::allocator<char> >, std::pair<const std::__cxx11::basic_string<char, std::char_traits<char>, std::allocator<char> >, std::pair<unsigned int, long int> >, std::allocator<std::pair<const std::__cxx11::basic_string<char, std::char_traits<char>, std::allocator<char> >, std::pair<unsigned int, long int> > >, std::__detail::_Select1st, std::equal_to<std::__cxx11::basic_string<char, std::char_traits<char>, std::allocator<char> > >, std::hash<std::__cxx11::basic_string<char, std::char_traits<char>, std::allocator<char> > >, std::__detail::_Mod_range_hashing, std::__detail::_Default_ranged_hash, std::__detail::_Prime_rehash_policy, std::__detail::_Hashtable_traits<true, false, true> >::_M_emplace<Str::BasicStringRef<char>&, std::pair<unsigned int, long int> >
FUNC f8450 2ac 0 std::swap<FS::PakInfo>
FUNC f8700 a04 0 std::_V2::__rotate<__gnu_cxx::__normal_iterator<FS::PakInfo*, std::vector<FS::PakInfo> > >
FUNC f9110 2d3 0 std::__rotate_adaptive<__gnu_cxx::__normal_iterator<FS::PakInfo*, std::vector<FS::PakInfo> >, FS::PakInfo*, long int>
FUNC f93f0 2c 0 IPC::FreeHandles
FUNC f9420 c2 0 std::__cxx11::basic_string<char, std::char_traits<char>, std::allocator<char> >::_M_construct<char*>
FUNC f94f0 7 0 IPC::FileDesc::Close
FUNC f9500 95 0 IPC::FileHandle::GetDesc
FUNC f95a0 5f 0 IPC::FileHandle::FromDesc
FUNC f9600 18 0 IPC::Socket::Close
FUNC f9620 12 0 IPC::Socket::GetDesc
FUNC f9640 e 0 IPC::Socket::FromDesc
FUNC f9650 6 0 IPC::Socket::FromHandle
FUNC f9660 94 0 IPC::Socket::SetRecvTimeout
FUNC f9700 25 0 IPC::SharedMemory::Close
FUNC f9730 14 0 IPC::SharedMemory::GetDesc
FUNC f9750 3b6 0 IPC::Socket::SendMsg
FUNC f9b10 80 0 IPC::Socket::CreatePair
FUNC f9b90 104c 0 IPC::InternalRecvMsg
FUNC fabe0 d3 0 IPC::Socket::RecvMsg
FUNC facc0 b0 0 IPC::MapSharedMemory
FUNC fad70 44 0 IPC::SharedMemory::FromDesc
FUNC fadc0 1f2 0 IPC::SharedMemory::Create
FUNC fafc0 f2 0 std::vector<IPC::FileDesc, std::allocator<IPC::FileDesc> >::_M_emplace_back_aux<>
FUNC fb0c0 275 0 std::vector<char, std::allocator<char> >::_M_range_insert<char*>
FUNC fb340 c4a 0 tinyformat::format<long unsigned int, char*>
FUNC fbf90 c2 0 std::__cxx11::basic_string<char, std::char_traits<char>, std::allocator<char> >::_M_construct<char*>
FUNC fc060 44 0 std::__detail::_Hashtable_alloc<std::allocator<std::__detail::_Hash_node<std::pair<char const, Str::BasicStringRef<char> >, false> > >::_M_allocate_buckets
FUNC fc0b0 48 0 std::_Hashtable<char, std::pair<char const, Str::BasicStringRef<char> >, std::allocator<std::pair<char const, Str::BasicStringRef<char> > >, std::__detail::_Select1st, std::equal_to<char>, std::hash<char>, std::__detail::_Mod_range_hashing, std::__detail::_Default_ranged_hash, std::__detail::_Prime_rehash_policy, std::__detail::_Hashtable_traits<false, false, true> >::_M_find_before_node
FUNC fc100 cd 0 Keyboard::CharToString
FUNC fc1d0 b9 0 Keyboard::KeynumToString
FUNC fc290 56 0 std::_Hashtable<Str::BasicStringRef<char>, std::pair<const Str::BasicStringRef<char>, keyNum_t>, std::allocator<std::pair<const Str::BasicStringRef<char>, keyNum_t> >, std::__detail::_Select1st, Str::IEqual, Str::IHash, std::__detail::_Mod_range_hashing, std::__detail::_Default_ranged_hash, std::__detail::_Prime_rehash_policy, std::__detail::_Hashtable_traits<true, false, true> >::clear
FUNC fc2f0 22 0 std::_Hashtable<Str::BasicStringRef<char>, std::pair<const Str::BasicStringRef<char>, keyNum_t>, std::allocator<std::pair<const Str::BasicStringRef<char>, keyNum_t> >, std::__detail::_Select1st, Str::IEqual, Str::IHash, std::__detail::_Mod_range_hashing, std::__detail::_Default_ranged_hash, std::__detail::_Prime_rehash_policy, std::__detail::_Hashtable_traits<true, false, true> >::~_Hashtable
FUNC fc320 5 0 std::unordered_map<Str::BasicStringRef<char>, keyNum_t, Str::IHash, Str::IEqual, std::allocator<std::pair<const Str::BasicStringRef<char>, keyNum_t> > >::~unordered_map
FUNC fc330 56 0 std::_Hashtable<char, std::pair<char const, Str::BasicStringRef<char> >, std::allocator<std::pair<char const, Str::BasicStringRef<char> > >, std::__detail::_Select1st, std::equal_to<char>, std::hash<char>, std::__detail::_Mod_range_hashing, std::__detail::_Default_ranged_hash, std::__detail::_Prime_rehash_policy, std::__detail::_Hashtable_traits<false, false, true> >::clear
FUNC fc390 22 0 std::_Hashtable<char, std::pair<char const, Str::BasicStringRef<char> >, std::allocator<std::pair<char const, Str::BasicStringRef<char> > >, std::__detail::_Select1st, std::equal_to<char>, std::hash<char>, std::__detail::_Mod_range_hashing, std::__detail::_Default_ranged_hash, std::__detail::_Prime_rehash_policy, std::__detail::_Hashtable_traits<false, false, true> >::~_Hashtable
FUNC fc3c0 5 0 std::unordered_map<char, Str::BasicStringRef<char>, std::hash<char>, std::equal_to<char>, std::allocator<std::pair<char const, Str::BasicStringRef<char> > > >::~unordered_map
FUNC fc3d0 ee 0 std::_Hashtable<Str::BasicStringRef<char>, std::pair<const Str::BasicStringRef<char>, keyNum_t>, std::allocator<std::pair<const Str::BasicStringRef<char>, keyNum_t> >, std::__detail::_Select1st, Str::IEqual, Str::IHash, std::__detail::_Mod_range_hashing, std::__detail::_Default_ranged_hash, std::__detail::_Prime_rehash_policy, std::__detail::_Hashtable_traits<true, false, true> >::_M_rehash
FUNC fc4c0 10d 0 std::_Hashtable<Str::BasicStringRef<char>, std::pair<const Str::BasicStringRef<char>, keyNum_t>, std::allocator<std::pair<const Str::BasicStringRef<char>, keyNum_t> >, std::__detail::_Select1st, Str::IEqual, Str::IHash, std::__detail::_Mod_range_hashing, std::__detail::_Default_ranged_hash, std::__detail::_Prime_rehash_policy, std::__detail::_Hashtable_traits<true, false, true> >::_M_insert_unique_node
FUNC fc5d0 333 0 std::_Hashtable<Str::BasicStringRef<char>, std::pair<const Str::BasicStringRef<char>, keyNum_t>, std::allocator<std::pair<const Str::BasicStringRef<char>, keyNum_t> >, std::__detail::_Select1st, Str::IEqual, Str::IHash, std::__detail::_Mod_range_hashing, std::__detail::_Default_ranged_hash, std::__detail::_Prime_rehash_policy, std::__detail::_Hashtable_traits<true, false, true> >::_Hashtable<const std::pair<const Str::BasicStringRef<char>, keyNum_t>*>
FUNC fc910 ee 0 std::_Hashtable<char, std::pair<char const, Str::BasicStringRef<char> >, std::allocator<std::pair<char const, Str::BasicStringRef<char> > >, std::__detail::_Select1st, std::equal_to<char>, std::hash<char>, std::__detail::_Mod_range_hashing, std::__detail::_Default_ranged_hash, std::__detail::_Prime_rehash_policy, std::__detail::_Hashtable_traits<false, false, true> >::_M_rehash
FUNC fca00 10e 0 std::_Hashtable<char, std::pair<char const, Str::BasicStringRef<char> >, std::allocator<std::pair<char const, Str::BasicStringRef<char> > >, std::__detail::_Select1st, std::equal_to<char>, std::hash<char>, std::__detail::_Mod_range_hashing, std::__detail::_Default_ranged_hash, std::__detail::_Prime_rehash_policy, std::__detail::_Hashtable_traits<false, false, true> >::_M_insert_unique_node
FUNC fcb10 2b 0 Util::LineEditData::LineEditData
FUNC fcb50 4 0 Util::LineEditData::GetText
FUNC fcb60 b 0 Util::LineEditData::GetViewText
FUNC fcb70 4 0 Util::LineEditData::GetViewStartPos
FUNC fcb80 4 0 Util::LineEditData::GetCursorPos
FUNC fcb90 7 0 Util::LineEditData::GetViewCursorPos
FUNC fcba0 182 0 Util::LineEditData::SetText
FUNC fcd30 f 0 Util::LineEditData::CursorStart
FUNC fcd40 40 0 Util::LineEditData::SwapWithNext
FUNC fcd80 20 0 Util::LineEditData::Clear
FUNC fcda0 4 0 Util::LineEditData::GetWidth
FUNC fcdb0 3d 0 Util::LineEditData::UpdateScroll
FUNC fcdf0 11 0 Util::LineEditData::CursorRight
FUNC fce10 9 0 Util::LineEditData::CursorEnd
FUNC fce20 5 0 Util::LineEditData::SetCursor
FUNC fce30 19 0 Util::LineEditData::CursorLeft
FUNC fce50 12 0 Util::LineEditData::SetWidth
FUNC fce70 22e 0 Util::LineEditData::AddChar
FUNC fd0a0 5e 0 Util::LineEditData::DeletePrev
FUNC fd100 3a 0 Util::LineEditData::DeleteNext
FUNC fd140 6a 0 std::__cxx11::basic_string<char32_t, std::char_traits<char32_t>, std::allocator<char32_t> >::_M_erase
FUNC fd1b0 55 0 Log::::LogSpamSuppressor::~LogSpamSuppressor
FUNC fd210 c2 0 std::__cxx11::basic_string<char, std::char_traits<char>, std::allocator<char> >::_M_construct<char*>
FUNC fd2e0 18a 0 Log::Logger::Prefix
FUNC fd470 ea 0 Log::ParseCvarValue
FUNC fd560 cf 0 Log::SerializeCvarValue
FUNC fd630 23 0 Cvar::GetCvarTypeName<Log::Level>
FUNC fd660 384 0 Log::DispatchByLevel
FUNC fd9f0 c6 0 Log::CommandInteractionMessage
FUNC fdac0 7f 0 Log::Logger::WithoutSuppression
FUNC fdb40 595 0 Log::Logger::Logger
FUNC fe0e0 ff 0 Log::GetCvarOrDie<int>
FUNC fe1e0 82c 0 Log::DispatchWithSuppression
FUNC fea10 133 0 Log::Logger::Dispatch
FUNC feb50 2 0 std::_Sp_counted_ptr<Cvar::Cvar<Log::Level>*, (__gnu_cxx::_Lock_policy)2u>::~_Sp_counted_ptr
FUNC feb60 12 0 std::_Sp_counted_ptr<Cvar::Cvar<Log::Level>*, (__gnu_cxx::_Lock_policy)2u>::_M_dispose
FUNC feb80 3 0 std::_Sp_counted_ptr<Cvar::Cvar<Log::Level>*, (__gnu_cxx::_Lock_policy)2u>::_M_get_deleter
FUNC feb90 5 0 std::_Sp_counted_ptr<Cvar::Cvar<Log::Level>*, (__gnu_cxx::_Lock_policy)2u>::~_Sp_counted_ptr
FUNC feba0 12 0 std::_Sp_counted_ptr<Cvar::Cvar<Log::Level>*, (__gnu_cxx::_Lock_policy)2u>::_M_destroy
FUNC febc0 57 0 Cvar::Cvar<Log::Level>::~Cvar
FUNC fec20 52 0 Cvar::Cvar<Log::Level>::~Cvar
FUNC fec80 1f 0 Cvar::Cvar<Log::Level>::GetAdditionalDescription
FUNC feca0 27 0 Cvar::Cvar<Log::Level>::Validate
FUNC fecd0 62 0 std::_Sp_counted_base<(__gnu_cxx::_Lock_policy)2u>::_M_release
FUNC fed40 d73 0 Cvar::Cvar<Log::Level>::GetDescription
FUNC ffac0 4f 0 Sys::Error<Str::BasicStringRef<char>&, std::__cxx11::basic_string<char, std::char_traits<char>, std::allocator<char> >&>
FUNC ffb10 2c6 0 Cvar::Cvar<Log::Level>::OnValueChanged
FUNC ffde0 c 0 Str::AssertOnTinyFormatError
FUNC ffdf0 c4 0 Str::ParseInt
FUNC ffec0 14 0 Str::ToFloat
FUNC ffee0 61 0 Str::ToFloat
FUNC fff50 24 0 Str::GetHex
FUNC fff80 e 0 Str::HexDigit
FUNC fff90 ea 0 Str::ToUpper
FUNC 100080 ea 0 Str::ToLower
FUNC 100170 42 0 Str::IsPrefix
FUNC 1001c0 38 0 Str::IsSuffix
FUNC 100200 4f 0 Str::LongestPrefixSize
FUNC 100250 f8 0 Str::IsIPrefix
FUNC 100350 101 0 Str::LongestIPrefixSize
FUNC 100460 66 0 Str::IsIEqual
FUNC 1004d0 398 0 Str::UTF8To32
FUNC 100870 2ed 0 Str::UTF32To8
FUNC 100b60 c2 0 std::__cxx11::basic_string<char, std::char_traits<char>, std::allocator<char> >::_M_construct<char*>
FUNC 100c30 6e 0 Sys::SleepFor
FUNC 100ca0 90 0 Sys::SleepUntil
FUNC 100d30 6a 0 Sys::Milliseconds
FUNC 100da0 106 0 Sys::Drop
FUNC 100eb0 99 0 Sys::SetupCrashHandler
FUNC 100f50 1e 0 Sys::DynamicLib::Close
FUNC 100f70 21d 0 Sys::DynamicLib::Open
FUNC 101190 43 0 Sys::DynamicLib::InternalLoadSym
FUNC 1011e0 10 0 Sys::OSExit
FUNC 1011f0 8 0 Sys::IsProcessTerminating
FUNC 101200 24 0 operator new
FUNC 101230 15 0 operator delete
FUNC 101250 f6 0 Com_Error
FUNC 101350 78 0 Sys::CrashHandler
FUNC 1013d0 ad 0 Sys::GenRandomBytes
FUNC 101480 cbb 0 tinyformat::format<int, char*>
FUNC 102140 c2 0 std::__cxx11::basic_string<char, std::char_traits<char>, std::allocator<char> >::_M_construct<char*>
FUNC 102210 46 0 CM_FreeAll
FUNC 102260 69 0 CM_BoundBrush
FUNC 1022d0 19 0 CM_ClearMap
FUNC 1022f0 28 0 CM_InlineModel
FUNC 102320 7 0 CM_NumInlineModels
FUNC 102330 8 0 CM_EntityString
FUNC 102340 36 0 CM_LeafCluster
FUNC 102380 37 0 CM_LeafArea
FUNC 1023c0 5ac 0 CM_TempBoxModel
FUNC 102970 8a 0 CM_Alloc
FUNC 102a00 8f 0 CMod_LoadShaders
FUNC 102a90 16f 0 CMod_LoadSubmodels
FUNC 102c00 ac 0 CMod_LoadNodes
FUNC 102cb0 138 0 CMod_LoadLeafs
FUNC 102df0 119 0 CMod_LoadPlanes
FUNC 102f10 58 0 CMod_LoadLeafBrushes
FUNC 102f70 58 0 CMod_LoadLeafSurfaces
FUNC 102fd0 90 0 CMod_LoadVisibility
FUNC 103060 3a8 0 CMod_LoadSurfaces
FUNC 103410 17c 0 CM_InitBoxHull
FUNC 103590 33f 0 CMod_LoadEntityString
FUNC 1038d0 154 0 CMod_LoadBrushes
FUNC 103a30 11e 0 CMod_LoadBrushSides
FUNC 103b50 db 0 CM_ClipHandleToModel
FUNC 103c30 52 0 CM_ModelBounds
FUNC 103c90 92a 0 CM_LoadMap
FUNC 1045c0 12 0 std::vector<void*, std::allocator<void*> >::~vector
FUNC 1045e0 cc7 0 Log::Logger::Debug<Str::BasicStringRef<char>&>
FUNC 1052b0 ea 0 std::vector<void*, std::allocator<void*> >::_M_emplace_back_aux<void* const&>
FUNC 1053a0 caf 0 tinyformat::format<char const*, int, int, int>
FUNC 106050 7a 0 CM_SetGridWrapWidth
FUNC 1060d0 1e6 0 CM_RemoveDegenerateColumns
FUNC 1062c0 430 0 CM_SubdivideGridColumns
FUNC 1066f0 c2 0 std::__cxx11::basic_string<char, std::char_traits<char>, std::allocator<char> >::_M_construct<char*>
FUNC 1067c0 115 0 CM_GridPlane
FUNC 1068e0 48a 0 CM_SetBorderInward
FUNC 106d70 17 0 CM_ClearLevelPatches
FUNC 106d90 1297 0 CM_GeneratePatchCollide
FUNC 108030 8d 0 tinyformat::detail::FormatArg::toIntImpl<void*>
FUNC 1080c0 c6a 0 tinyformat::format<int, int, void*>
FUNC 108d30 3a4 0 tinyformat::detail::formatTruncated<void*>
FUNC 1090e0 20 0 tinyformat::detail::FormatArg::formatImpl<void*>
FUNC 109100 b3 0 CM_CreateNewFloatPlane
FUNC 1091c0 c2 0 std::__cxx11::basic_string<char, std::char_traits<char>, std::allocator<char> >::_M_construct<char const*>
FUNC 109290 30 0 CM_ResetPlaneCounts
FUNC 1092c0 25 0 CM_SignbitsForNormal
FUNC 1092f0 f3 0 CM_PlaneFromPoints
FUNC 1093f0 10c 0 CM_PlaneEqual
FUNC 109500 93 0 CM_SnapVector
FUNC 1095a0 96 0 CM_FindPlane2
FUNC 109640 1ef 0 CM_FindPlane
FUNC 109830 7c 0 CM_GenerateBoundaryForPoints
FUNC 1098b0 6e 0 CM_PointOnPlaneSide
FUNC 109920 219 0 CM_ValidateFacet
FUNC 109b40 f0 0 CM_GenerateFacetFor3Points
FUNC 109c30 948 0 CM_AddFacetBevels
FUNC 10a580 41 0 AllocWinding
FUNC 10a5d0 2c 0 FreeWinding
FUNC 10a600 6d 0 WindingBounds
FUNC 10a670 303 0 BaseWindingForPlane
FUNC 10a980 2a 0 CopyWinding
FUNC 10a9b0 378 0 ChopWindingInPlace
FUNC 10ad30 35 0 CM_StoreLeafs
FUNC 10ad70 c2 0 std::__cxx11::basic_string<char, std::char_traits<char>, std::allocator<char> >::_M_construct<char*>
FUNC 10ae40 89 0 CM_PointLeafnum_r
FUNC 10aed0 17 0 CM_PointLeafnum
FUNC 10aef0 75 0 CM_BoxLeafnums_r
FUNC 10af70 b6 0 CM_BoxLeafnums
FUNC 10b030 38 0 CM_ClusterPVS
FUNC 10b070 95 0 CM_FloodArea_r
FUNC 10b110 5d 0 CM_FloodAreaConnections
FUNC 10b170 f6 0 CM_AdjustAreaPortalState
FUNC 10b270 5b 0 CM_AreasConnected
FUNC 10b2d0 89 0 CM_WriteAreaBits
FUNC 10b360 b5 0 CM_BoundsIntersect
FUNC 10b420 a3 0 CM_BoundsIntersectPoint
FUNC 10b4d0 11a 0 CM_PointContents
FUNC 10b5f0 13 0 CM_PointContents
FUNC 10b610 150 0 CM_TransformedPointContents
FUNC 10b760 327 0 CM_PositionTestInSurfaceCollide
FUNC 10ba90 315 0 CM_TracePointThroughSurfaceCollide
FUNC 10bdb0 c2 0 std::__cxx11::basic_string<char, std::char_traits<char>, std::allocator<char> >::_M_construct<char*>
FUNC 10be80 79 0 RotatePoint
FUNC 10bf00 34 0 TransposeMatrix
FUNC 10bf40 1a 0 CreateRotationMatrix
FUNC 10bf60 ad 0 CM_ProjectPointOntoVector
FUNC 10c010 163 0 CM_DistanceFromLineSquared
FUNC 10c180 399 0 CM_TestInLeaf
FUNC 10c520 38d 0 CM_TestCapsuleInCapsule
FUNC 10c8b0 10c 0 CM_TestBoundingBoxInCapsule
FUNC 10c9c0 169 0 CM_PositionTest
FUNC 10cb30 12 0 CM_TracePointThroughSurfaceCollide
FUNC 10cb50 109 0 CM_CheckFacetPlane
FUNC 10cc60 681 0 CM_TraceThroughSurfaceCollide
FUNC 10d2f0 e5 0 CM_TraceThroughSurface
FUNC 10d3e0 e1 0 CM_ProximityToSurface
FUNC 10d4d0 603 0 CM_TraceThroughBrush
FUNC 10dae0 237 0 CM_ProximityToBrush
FUNC 10dd20 277 0 CM_TraceThroughLeaf
FUNC 10dfa0 439 0 CM_TraceThroughTree
FUNC 10e3e0 3d2 0 CM_TraceThroughSphere
FUNC 10e7c0 49e 0 CM_TraceThroughVerticalCylinder
FUNC 10ec60 315 0 CM_TraceCapsuleThroughCapsule
FUNC 10ef80 10c 0 CM_TraceBoundingBoxThroughCapsule
FUNC 10f090 6b4 0 CM_Trace
FUNC 10f750 27 0 CM_BoxTrace
FUNC 10f780 4c7 0 CM_TransformedBoxTrace
FUNC 10fc50 314 0 CM_BiSphereTrace
FUNC 10ff70 15c 0 CM_TransformedBiSphereTrace
FUNC 1100d0 e7 0 CM_DistanceToModel
FUNC 1101c0 311 0 CM_DrawDebugSurface
FUNC 1104e0 c2 0 std::__cxx11::basic_string<char, std::char_traits<char>, std::allocator<char> >::_M_construct<char*>
FUNC 1105b0 64d 0 CM_GenerateTriangleSoupCollide
FUNC 110c00 8d 0 tinyformat::detail::FormatArg::toIntImpl<int*>
FUNC 110c90 8d 0 tinyformat::detail::FormatArg::toIntImpl<float (*)[3]>
FUNC 110d20 caf 0 tinyformat::format<int, float (*)[3], int, int*>
FUNC 1119d0 3a4 0 tinyformat::detail::formatTruncated<int*>
FUNC 111d80 20 0 tinyformat::detail::FormatArg::formatImpl<float (*)[3]>
FUNC 111da0 20 0 tinyformat::detail::FormatArg::formatImpl<int*>
FUNC 111dc0 5f 0 m3_det
FUNC 111e20 7d 0 m4_submat
FUNC 111ea0 c 0 Q_rand
FUNC 111eb0 1f 0 Q_random
FUNC 111ed0 33 0 Q_crandom
FUNC 111f10 1b 0 ClampByte
FUNC 111f30 1e 0 ClampChar
FUNC 111f50 68 0 DirToByte
FUNC 111fc0 67 0 ByteToDir
FUNC 112030 b2 0 PlaneNormalize
FUNC 1120f0 12c 0 RotatePointAroundVector
FUNC 112220 16d 0 vectoangles
FUNC 112390 39 0 AxisClear
FUNC 1123d0 59 0 AxisCopy
FUNC 112430 65 0 ProjectPointOnPlane
FUNC 1124a0 64 0 ProjectPointOntoRectangleOutwards
FUNC 112510 66 0 ExponentialFade
FUNC 112580 44 0 LerpAngle
FUNC 1125d0 72 0 AngleSubtract
FUNC 112650 15f 0 AnglesSubtract
FUNC 1127b0 28 0 AngleNormalize360
FUNC 1127f0 3a 0 AngleNormalize180
FUNC 112830 3e 0 AngleDelta
FUNC 112870 28 0 SetPlaneSignbits
FUNC 1128a0 e8 0 BoxOnPlaneSide
FUNC 112990 21 0 ZeroBounds
FUNC 1129c0 2d 0 ClearBounds
FUNC 1129f0 5c 0 AddPointToBounds
FUNC 112a50 5c 0 BoundsAdd
FUNC 112ab0 43 0 BoundsIntersect
FUNC 112b00 56 0 BoundsIntersectSphere
FUNC 112b60 35 0 BoundsIntersectPoint
FUNC 112ba0 5a 0 BoundsMaxExtent
FUNC 112c00 26 0 VectorCompare
FUNC 112c30 8e 0 VectorNormalize
FUNC 112cc0 d0 0 PlaneFromPoints
FUNC 112d90 11d 0 PlaneFromPointsOrder
FUNC 112eb0 df 0 MakeNormalVectors
FUNC 112f90 79 0 VectorNormalizeFast
FUNC 113010 a0 0 VectorNormalize2
FUNC 1130b0 cd 0 PlaneIntersectRay
FUNC 113180 229 0 PlanesGetIntersectionPoint
FUNC 1133b0 53 0 CrossProduct
FUNC 113410 27 0 VectorLength
FUNC 113440 78 0 AngleBetweenVectors
FUNC 1134c0 6a 0 RadiusFromBounds
FUNC 113530 23 0 VectorLengthSquared
FUNC 113560 63 0 Distance
FUNC 1135d0 31 0 DistanceSquared
FUNC 113610 2e 0 VectorInverse
FUNC 113640 1a 0 NearestPowerOfTwo
FUNC 113660 1a1 0 AxisMultiply
FUNC 113810 1a7 0 AngleVectors
FUNC 1139c0 77 0 AnglesToAxis
FUNC 113a40 94 0 PerpendicularVector
FUNC 113ae0 e0 0 RotateAroundDirection
FUNC 113bc0 101 0 GetPerpendicularViewVector
FUNC 113cd0 e1 0 ProjectPointOntoVector
FUNC 113dc0 3a3 0 DistanceBetweenLineSegmentsSquared
FUNC 114170 173 0 ProjectPointOntoVectorBounded
FUNC 1142f0 166 0 DistanceFromLineSquared
FUNC 114460 1e9 0 AxisToAngles
FUNC 114650 63 0 VectorDistanceSquared
FUNC 1146c0 5c 0 MatrixIdentity
FUNC 114720 54 0 MatrixClear
FUNC 114780 9f 0 MatrixCopy
FUNC 114820 c3 0 MatrixCompare
FUNC 1148f0 9f 0 MatrixTranspose
FUNC 114990 1d7 0 MatrixInverse
FUNC 114b70 9f 0 MatrixSetupXRotation
FUNC 114c10 9f 0 MatrixSetupYRotation
FUNC 114cb0 9f 0 MatrixSetupZRotation
FUNC 114d50 5c 0 MatrixSetupTranslation
FUNC 114db0 56 0 MatrixSetupScale
FUNC 114e10 5c 0 MatrixSetupShear
FUNC 114e70 66 0 MatrixMultiply
FUNC 114ee0 e7 0 MatrixMultiply2
FUNC 114fd0 12a 0 MatrixMultiplyZRotation
FUNC 115100 a8 0 MatrixMultiplyTranslation
FUNC 1151b0 9b 0 MatrixMultiplyScale
FUNC 115250 a9 0 MatrixMultiplyShear
FUNC 115300 123 0 MatrixToAngles
FUNC 115430 1c0 0 MatrixFromAngles
FUNC 1155f0 10a 0 MatrixMultiplyRotation
FUNC 115700 80 0 MatrixFromVectorsFLU
FUNC 115780 91 0 MatrixFromVectorsFRU
FUNC 115820 118 0 MatrixFromQuat
FUNC 115940 15c 0 MatrixFromPlanes
FUNC 115aa0 67 0 MatrixToVectorsFLU
FUNC 115b10 78 0 MatrixToVectorsFRU
FUNC 115b90 91 0 MatrixSetupTransformFromVectorsFLU
FUNC 115c30 a2 0 MatrixSetupTransformFromVectorsFRU
FUNC 115ce0 90 0 MatrixSetupTransformFromRotation
FUNC 115d70 d3 0 MatrixSetupTransformFromQuat
FUNC 115e50 e0 0 MatrixAffineInverse
FUNC 115f30 89 0 MatrixTransformNormal
FUNC 115fc0 79 0 MatrixTransformNormal2
FUNC 116040 97 0 MatrixTransformPoint
FUNC 1160e0 88 0 MatrixTransformPoint2
FUNC 116170 df 0 MatrixTransform4
FUNC 116250 53 0 MatrixTransformPlane
FUNC 1162b0 60 0 MatrixTransformPlane2
FUNC 116310 210 0 MatrixTransformBounds
FUNC 116520 a8 0 MatrixPerspectiveProjection
FUNC 1165d0 b8 0 MatrixPerspectiveProjectionLH
FUNC 116690 a0 0 MatrixPerspectiveProjectionRH
FUNC 116730 d9 0 MatrixPerspectiveProjectionFovYAspectLH
FUNC 116810 fc 0 MatrixPerspectiveProjectionFovXYLH
FUNC 116910 f4 0 MatrixPerspectiveProjectionFovXYRH
FUNC 116a10 e2 0 MatrixPerspectiveProjectionFovXYInfiniteRH
FUNC 116b00 be 0 MatrixOrthogonalProjection
FUNC 116bc0 bb 0 MatrixOrthogonalProjectionLH
FUNC 116c80 b4 0 MatrixOrthogonalProjectionRH
FUNC 116d40 145 0 MatrixPlaneReflection
FUNC 116e90 1f2 0 MatrixLookAtLH
FUNC 117090 1fb 0 MatrixLookAtRH
FUNC 117290 d5 0 MatrixScaleTranslateToUnitCube
FUNC 117370 d9 0 MatrixCrop
FUNC 117450 a7 0 QuatNormalize
FUNC 117500 22d 0 QuatFromMatrix
FUNC 117730 48 0 QuatFromAngles
FUNC 117780 be 0 QuatToVectorsFRU
FUNC 117850 b7 0 QuatToAxis
FUNC 117910 218 0 QuatToAngles
FUNC 117b30 e6 0 QuatMultiply
FUNC 117c20 63 0 QuatMultiply2
FUNC 117c90 2f8 0 QuatSlerp
FUNC 117f90 ed 0 QuatTransformVector
FUNC 118080 e8 0 QuatTransformVectorInverse
FUNC 118170 89 0 internalTime
FUNC 118200 c2 0 std::__cxx11::basic_string<char, std::char_traits<char>, std::allocator<char> >::_M_construct<char*>
FUNC 1182d0 24 0 Com_InitGrowList
FUNC 118300 26 0 Com_DestroyGrowList
FUNC 118330 e 0 Com_Clamp
FUNC 118340 22 0 COM_FixPath
FUNC 118370 24 0 COM_SkipPath
FUNC 1183a0 d0 0 Com_SkipTokens
FUNC 118470 51 0 COM_GetExtension
FUNC 1184d0 22 0 COM_StripExtension
FUNC 118500 47 0 COM_StripExtension2
FUNC 118550 4d 0 Com_HashKey
FUNC 1185a0 164 0 Com_EntityTypeName
FUNC 118710 2 0 COM_BackupParseSession
FUNC 118720 c3 0 COM_Compress
FUNC 1187f0 233 0 COM_ParseExt
FUNC 118a30 a 0 COM_Parse
FUNC 118a40 459 0 COM_ParseExt2
FUNC 118ea0 a 0 COM_Parse2
FUNC 118eb0 53 0 SkipBracedSection_Depth
FUNC 118f10 53 0 SkipBracedSection
FUNC 118f70 2b 0 SkipRestOfLine
FUNC 118fa0 7f 0 Com_HexStrToInt
FUNC 119020 1da 0 Com_ClearForeignCharacters
FUNC 119200 50 0 Q_strtoi
FUNC 119250 82 0 Q_strncpyz
FUNC 1192e0 67 0 COM_StripExtension3
FUNC 119350 51 0 Q_strncmp
FUNC 1193b0 2b 0 Q_strlwr
FUNC 1193e0 2b 0 Q_strupr
FUNC 119410 3d 0 Q_strcat
FUNC 119450 91 0 Q_strnicmp
FUNC 1194f0 76 0 Q_stricmp
FUNC 119570 7f 0 Q_stristr
FUNC 1195f0 b6 0 Com_StringContains
FUNC 1196b0 32e 0 Com_Filter
FUNC 1199e0 c4 0 Q_isBadDirChar
FUNC 119ab0 2a 0 Q_CountChar
FUNC 119ae0 176 0 va
FUNC 119c60 1c 0 InfoValidItem
FUNC 119c80 7d 0 Info_NextPair
FUNC 119d00 37 0 Info_Validate
FUNC 119d40 33 0 Com_ClientListContains
FUNC 119d80 2d 0 Com_ClientListAdd
FUNC 119db0 2d 0 Com_ClientListRemove
FUNC 119de0 5e 0 Com_ClientListParse
FUNC 119e40 89 0 VectorMatrixMultiply
FUNC 119ed0 54 0 Q_ParseNewlines
FUNC 119f30 c 0 Com_RealTime
FUNC 119f40 c 0 Com_GMTime
FUNC 119f50 fc 0 COM_ParseError
FUNC 11a050 fc 0 COM_ParseWarning
FUNC 11a150 2fa 0 InfoMapToString
FUNC 11a450 146 0 Com_AddToGrowList
FUNC 11a5a0 94 0 Com_GrowListElement
FUNC 11a640 13a 0 Com_sprintf
FUNC 11a780 a8 0 COM_DefaultExtension
FUNC 11a830 27 0 COM_BeginParseSession
FUNC 11a860 48 0 Com_ClientListString
FUNC 11a8b0 6e 0 COM_MatchToken
FUNC 11a920 183 0 Info_RemoveKey
FUNC 11aab0 1e2 0 Info_ValueForKey
FUNC 11aca0 228 0 Info_SetValueForKey
FUNC 11aed0 166 0 Com_ParseInfos
FUNC 11b040 174 0 Info_SetValueForKeyRocket
FUNC 11b1c0 726 0 InfoStringToMap
FUNC 11b8f0 9e 0 tinyformat::detail::FormatArg::formatImpl<char [4096]>
FUNC 11b990 8d 0 tinyformat::detail::FormatArg::toIntImpl<char [4096]>
FUNC 11ba20 d10 0 Log::Logger::Warn<char (&)[1024], int&, char (&)[4096]>
FUNC 11c730 fb 0 Log::Logger::Notice<int&, int>
FUNC 11c830 c4a 0 tinyformat::format<char*, char const*>
FUNC 11d480 4f 0 Sys::Drop<char*&, char const*&>
FUNC 11d4d0 c6a 0 tinyformat::format<char*, char const*, char const*>
FUNC 11e140 4f 0 Sys::Drop<char*&, char const*&, char const*&>
FUNC 11e190 171 0 std::_Rb_tree<std::__cxx11::basic_string<char, std::char_traits<char>, std::allocator<char> >, std::pair<const std::__cxx11::basic_string<char, std::char_traits<char>, std::allocator<char> >, std::__cxx11::basic_string<char, std::char_traits<char>, std::allocator<char> > >, std::_Select1st<std::pair<const std::__cxx11::basic_string<char, std::char_traits<char>, std::allocator<char> >, std::__cxx11::basic_string<char, std::char_traits<char>, std::allocator<char> > > >, std::less<std::__cxx11::basic_string<char, std::char_traits<char>, std::allocator<char> > >, std::allocator<std::pair<const std::__cxx11::basic_string<char, std::char_traits<char>, std::allocator<char> >, std::__cxx11::basic_string<char, std::char_traits<char>, std::allocator<char> > > > >::_M_emplace_hint_unique<const std::piecewise_construct_t&, std::tuple<const std::__cxx11::basic_string<char, std::char_traits<char>, std::allocator<char> >&>, std::tuple<> >
FUNC 11e310 7a 0 Q_UTF8_Width
FUNC 11e390 3c 0 Q_UTF8_WidthCP
FUNC 11e3d0 2a 0 Q_UTF8_Strlen
FUNC 11e400 f 0 Q_UTF8_ContByte
FUNC 11e410 27c 0 Q_UTF8_CodePoint
FUNC 11e690 124 0 Q_UTF8_Encode
FUNC 11e7c0 4d 0 Q_Unicode_IsAlpha
FUNC 11e810 4d 0 Q_Unicode_IsUpper
FUNC 11e860 4d 0 Q_Unicode_IsLower
FUNC 11e8b0 4d 0 Q_Unicode_IsIdeo
FUNC 11e900 4d 0 Q_Unicode_IsDigit
FUNC 11e950 15 0 Q_Unicode_IsAlphaOrIdeo
FUNC 11e970 1e 0 Q_Unicode_IsAlphaOrIdeoOrDigit
FUNC 11e990 31 0 Q_Unicode_IsPrivateUse
FUNC 11e9d0 4e 0 Q_Unicode_ToUpper
FUNC 11ea20 4e 0 Q_Unicode_ToLower
FUNC 11ea70 2 0 Application::Application::LoadInitialConfig
FUNC 11ea80 2 0 Application::Application::Initialize
FUNC 11ea90 2 0 Application::Application::Shutdown
FUNC 11eaa0 c2 0 std::__cxx11::basic_string<char, std::char_traits<char>, std::allocator<char> >::_M_construct<char*>
FUNC 11eb70 28 0 Application::Traits::Traits
FUNC 11eba0 33 0 Application::Application::Application
FUNC 11ebe0 5 0 Application::Application::GetTraits
FUNC 11ebf0 29 0 Application::LoadInitialConfig
FUNC 11ec20 41 0 Application::Initialize
FUNC 11ec70 31 0 Application::Frame
FUNC 11ecb0 43 0 Application::OnDrop
FUNC 11ed00 43 0 Application::Shutdown
FUNC 11ed50 19 0 Application::OnUnhandledCommand
FUNC 11ed70 12 0 Application::GetTraits
FUNC 11ed90 2e 0 Application::Application::OnUnhandledCommand
FUNC 11edc0 2 0 Application::Application::Frame
FUNC 11edd0 22 0 Application::Application::~Application
FUNC 11ee00 29 0 Application::Application::~Application
FUNC 11ee30 c2 0 std::__cxx11::basic_string<char, std::char_traits<char>, std::allocator<char> >::_M_construct<char*>
FUNC 11ef00 3bf 0 Cmd::GetAliasConfigText
FUNC 11f2c0 96 0 Cmd::DelayFrame
FUNC 11f360 171 0 Cmd::CompleteDelayName
FUNC 11f4e0 153 0 Cmd::CompleteAliasName
FUNC 11f640 2 0 Cmd::ListAliasesCmd::~ListAliasesCmd
FUNC 11f650 2 0 Cmd::ClearAliasesCmd::~ClearAliasesCmd
FUNC 11f660 2 0 Cmd::UnaliasCmd::~UnaliasCmd
FUNC 11f670 2 0 Cmd::AliasCmd::~AliasCmd
FUNC 11f680 2 0 Cmd::AliasProxy::~AliasProxy
FUNC 11f690 2 0 Cmd::UndelayAllCmd::~UndelayAllCmd
FUNC 11f6a0 2 0 Cmd::UndelayCmd::~UndelayCmd
FUNC 11f6b0 2 0 Cmd::DelayCmd::~DelayCmd
FUNC 11f6c0 2 0 Cmd::CycleCmd::~CycleCmd
FUNC 11f6d0 2 0 Cmd::ToggleCmd::~ToggleCmd
FUNC 11f6e0 2 0 Cmd::IfCmd::~IfCmd
FUNC 11f6f0 2 0 Cmd::MathCmd::~MathCmd
FUNC 11f700 2 0 Cmd::ConcatCmd::~ConcatCmd
FUNC 11f710 2 0 Cmd::RandomCmd::~RandomCmd
FUNC 11f720 2 0 Cmd::EchoCmd::~EchoCmd
FUNC 11f730 2 0 Cmd::ExecCmd::~ExecCmd
FUNC 11f740 2 0 Cmd::VstrCmd::~VstrCmd
FUNC 11f750 5 0 Cmd::AliasProxy::~AliasProxy
FUNC 11f760 5 0 Cmd::ListAliasesCmd::~ListAliasesCmd
FUNC 11f770 5 0 Cmd::ClearAliasesCmd::~ClearAliasesCmd
FUNC 11f780 5 0 Cmd::UnaliasCmd::~UnaliasCmd
FUNC 11f790 5 0 Cmd::AliasCmd::~AliasCmd
FUNC 11f7a0 5 0 Cmd::UndelayAllCmd::~UndelayAllCmd
FUNC 11f7b0 5 0 Cmd::UndelayCmd::~UndelayCmd
FUNC 11f7c0 5 0 Cmd::DelayCmd::~DelayCmd
FUNC 11f7d0 5 0 Cmd::CycleCmd::~CycleCmd
FUNC 11f7e0 5 0 Cmd::ToggleCmd::~ToggleCmd
FUNC 11f7f0 5 0 Cmd::IfCmd::~IfCmd
FUNC 11f800 5 0 Cmd::MathCmd::~MathCmd
FUNC 11f810 5 0 Cmd::ConcatCmd::~ConcatCmd
FUNC 11f820 5 0 Cmd::RandomCmd::~RandomCmd
FUNC 11f830 5 0 Cmd::EchoCmd::~EchoCmd
FUNC 11f840 5 0 Cmd::ExecCmd::~ExecCmd
FUNC 11f850 5 0 Cmd::VstrCmd::~VstrCmd
FUNC 11f860 6c 0 Cmd::CycleCmd::Complete
FUNC 11f8d0 6c 0 Cmd::ToggleCmd::Complete
FUNC 11f940 6c 0 Cmd::IfCmd::Complete
FUNC 11f9b0 6c 0 Cmd::MathCmd::Complete
FUNC 11fa20 62 0 Cmd::ConcatCmd::Complete
FUNC 11fa90 6c 0 Cmd::RandomCmd::Complete
FUNC 11fb00 6c 0 Cmd::VstrCmd::Complete
FUNC 11fb70 133 0 Cmd::ExecCmd::Complete
FUNC 11fcb0 14e 0 Cmd::ConcatCmd::Run
FUNC 11fe00 cf 0 Cmd::VstrCmd::Run
FUNC 11fed0 58 0 Cmd::UndelayAllCmd::Run
FUNC 11ff30 65 0 std::vector<Cmd::delayRecord_t, std::allocator<Cmd::delayRecord_t> >::~vector
FUNC 11ffa0 2ef 0 Cmd::CycleCmd::Run
FUNC 120290 290 0 Cmd::ToggleCmd::Run
FUNC 120520 fc 0 Cmd::VstrCmd::VstrCmd
FUNC 120620 10f 0 Cmd::ExecCmd::ExecCmd
FUNC 120730 fc 0 Cmd::EchoCmd::EchoCmd
FUNC 120830 fc 0 Cmd::RandomCmd::RandomCmd
FUNC 120930 fc 0 Cmd::ConcatCmd::ConcatCmd
FUNC 120a30 fc 0 Cmd::MathCmd::MathCmd
FUNC 120b30 fc 0 Cmd::IfCmd::IfCmd
FUNC 120c30 fc 0 Cmd::ToggleCmd::ToggleCmd
FUNC 120d30 fc 0 Cmd::CycleCmd::CycleCmd
FUNC 120e30 fc 0 Cmd::DelayCmd::DelayCmd
FUNC 120f30 32 0 Cmd::delayRecord_t::~delayRecord_t
FUNC 120f70 fc 0 Cmd::UndelayCmd::UndelayCmd
FUNC 121070 fc 0 Cmd::UndelayAllCmd::UndelayAllCmd
FUNC 121170 fc 0 Cmd::AliasCmd::AliasCmd
FUNC 121270 fc 0 Cmd::UnaliasCmd::UnaliasCmd
FUNC 121370 fc 0 Cmd::ClearAliasesCmd::ClearAliasesCmd
FUNC 121470 fc 0 Cmd::ListAliasesCmd::ListAliasesCmd
FUNC 121570 159 0 Cmd::RandomCmd::Run
FUNC 1216d0 161 0 Cmd::EchoCmd::Run
FUNC 121840 40f 0 Cmd::IfCmd::Run
FUNC 121c50 5c 0 Util::optional<float>::value
FUNC 121cb0 798 0 Cmd::MathCmd::Run
FUNC 122450 1a4f 0 Cmd::ExecCmd::SetExecArgs
FUNC 123ea0 c4 0 std::vector<Cmd::delayRecord_t, std::allocator<Cmd::delayRecord_t> >::_M_erase
FUNC 123f70 161 0 Cmd::UndelayCmd::Run
FUNC 1240e0 310 0 std::vector<Cmd::delayRecord_t, std::allocator<Cmd::delayRecord_t> >::_M_emplace_back_aux<Cmd::delayRecord_t>
FUNC 1243f0 e5 0 std::vector<Cmd::delayRecord_t, std::allocator<Cmd::delayRecord_t> >::emplace_back<Cmd::delayRecord_t>
FUNC 1244e0 3e1 0 Cmd::DelayCmd::Run
FUNC 1248d0 76 0 std::_Hashtable<std::__cxx11::basic_string<char, std::char_traits<char>, std::allocator<char> >, std::pair<const std::__cxx11::basic_string<char, std::char_traits<char>, std::allocator<char> >, Cmd::aliasRecord_t>, std::allocator<std::pair<const std::__cxx11::basic_string<char, std::char_traits<char>, std::allocator<char> >, Cmd::aliasRecord_t> >, std::__detail::_Select1st, Str::IEqual, Str::IHash, std::__detail::_Mod_range_hashing, std::__detail::_Default_ranged_hash, std::__detail::_Prime_rehash_policy, std::__detail::_Hashtable_traits<true, false, true> >::clear
FUNC 124950 1e 0 Cmd::ClearAliasesCmd::Run
FUNC 124970 22 0 std::unordered_map<std::__cxx11::basic_string<char, std::char_traits<char>, std::allocator<char> >, Cmd::aliasRecord_t, Str::IHash, Str::IEqual, std::allocator<std::pair<const std::__cxx11::basic_string<char, std::char_traits<char>, std::allocator<char> >, Cmd::aliasRecord_t> > >::~unordered_map
FUNC 1249a0 a2 0 Cmd::CmdBase::Print<char const*>
FUNC 124a50 3f5 0 Cmd::ExecCmd::Run
FUNC 124e50 c5 0 std::vector<std::pair<std::__cxx11::basic_string<char, std::char_traits<char>, std::allocator<char> >, std::__cxx11::basic_string<char, std::char_traits<char>, std::allocator<char> > >, std::allocator<std::pair<std::__cxx11::basic_string<char, std::char_traits<char>, std::allocator<char> >, std::__cxx11::basic_string<char, std::char_traits<char>, std::allocator<char> > > > >::emplace_back<std::pair<std::__cxx11::basic_string<char, std::char_traits<char>, std::allocator<char> >, std::__cxx11::basic_string<char, std::char_traits<char>, std::allocator<char> > > >
FUNC 124f20 6c 0 Cmd::UndelayCmd::Complete
FUNC 124f90 6c 0 Cmd::DelayCmd::Complete
FUNC 125000 6c 0 Cmd::UnaliasCmd::Complete
FUNC 125070 16d 0 Cmd::AliasCmd::Complete
FUNC 1251e0 93 0 std::__detail::_Hashtable_alloc<std::allocator<std::__detail::_Hash_node<std::pair<const std::__cxx11::basic_string<char, std::char_traits<char>, std::allocator<char> >, Cmd::aliasRecord_t>, true> > >::_M_allocate_node<const std::piecewise_construct_t&, std::tuple<const std::__cxx11::basic_string<char, std::char_traits<char>, std::allocator<char> >&>, std::tuple<> >
FUNC 125280 21f 0 std::_Hashtable<std::__cxx11::basic_string<char, std::char_traits<char>, std::allocator<char> >, std::pair<const std::__cxx11::basic_string<char, std::char_traits<char>, std::allocator<char> >, Cmd::aliasRecord_t>, std::allocator<std::pair<const std::__cxx11::basic_string<char, std::char_traits<char>, std::allocator<char> >, Cmd::aliasRecord_t> >, std::__detail::_Select1st, Str::IEqual, Str::IHash, std::__detail::_Mod_range_hashing, std::__detail::_Default_ranged_hash, std::__detail::_Prime_rehash_policy, std::__detail::_Hashtable_traits<true, false, true> >::_M_insert_unique_node
FUNC 1254a0 ea 0 std::vector<const Cmd::aliasRecord_t*, std::allocator<const Cmd::aliasRecord_t*> >::_M_emplace_back_aux<const Cmd::aliasRecord_t*>
FUNC 125590 ea 0 std::vector<const std::__cxx11::basic_string<char, std::char_traits<char>, std::allocator<char> >*, std::allocator<const std::__cxx11::basic_string<char, std::char_traits<char>, std::allocator<char> >*> >::_M_emplace_back_aux<const std::__cxx11::basic_string<char, std::char_traits<char>, std::allocator<char> >*>
FUNC 125680 1c5a 0 Cmd::ListAliasesCmd::Run
FUNC 1272e0 c1 0 std::_Hashtable<std::__cxx11::basic_string<char, std::char_traits<char>, std::allocator<char> >, std::pair<const std::__cxx11::basic_string<char, std::char_traits<char>, std::allocator<char> >, Cmd::aliasRecord_t>, std::allocator<std::pair<const std::__cxx11::basic_string<char, std::char_traits<char>, std::allocator<char> >, Cmd::aliasRecord_t> >, std::__detail::_Select1st, Str::IEqual, Str::IHash, std::__detail::_Mod_range_hashing, std::__detail::_Default_ranged_hash, std::__detail::_Prime_rehash_policy, std::__detail::_Hashtable_traits<true, false, true> >::_M_find_before_node
FUNC 1273b0 a9 0 std::_Hashtable<std::__cxx11::basic_string<char, std::char_traits<char>, std::allocator<char> >, std::pair<const std::__cxx11::basic_string<char, std::char_traits<char>, std::allocator<char> >, Cmd::aliasRecord_t>, std::allocator<std::pair<const std::__cxx11::basic_string<char, std::char_traits<char>, std::allocator<char> >, Cmd::aliasRecord_t> >, std::__detail::_Select1st, Str::IEqual, Str::IHash, std::__detail::_Mod_range_hashing, std::__detail::_Default_ranged_hash, std::__detail::_Prime_rehash_policy, std::__detail::_Hashtable_traits<true, false, true> >::find
FUNC 127460 165 0 Cmd::UnaliasCmd::Run
FUNC 1275d0 29c 0 Cmd::AliasProxy::Run
FUNC 127870 ea 0 std::__detail::_Map_base<std::__cxx11::basic_string<char, std::char_traits<char>, std::allocator<char> >, std::pair<const std::__cxx11::basic_string<char, std::char_traits<char>, std::allocator<char> >, Cmd::aliasRecord_t>, std::allocator<std::pair<const std::__cxx11::basic_string<char, std::char_traits<char>, std::allocator<char> >, Cmd::aliasRecord_t> >, std::__detail::_Select1st, Str::IEqual, Str::IHash, std::__detail::_Mod_range_hashing, std::__detail::_Default_ranged_hash, std::__detail::_Prime_rehash_policy, std::__detail::_Hashtable_traits<true, false, true>, true>::operator[]
FUNC 127960 f8e 0 Cmd::AliasCmd::Run
FUNC 1288f0 c2 0 std::__cxx11::basic_string<char, std::char_traits<char>, std::allocator<char> >::_M_construct<char*>
FUNC 1289c0 175 0 IPC::CommandBufferHost::CommandBufferHost
FUNC 128b40 b3 0 IPC::CommandBufferHost::Init
FUNC 128c00 263 0 IPC::CommandBufferHost::ConsumeOne
FUNC 128e70 1a4 0 IPC::CommandBufferHost::Consume
FUNC 129020 139c 0 IPC::CommandBufferHost::Syscall
FUNC 12a3c0 ce7 0 Log::Logger::Debug<long unsigned int, std::__cxx11::basic_string<char, std::char_traits<char>, std::allocator<char> >&>
FUNC 12b0b0 4f 0 Sys::Drop<std::__cxx11::basic_string<char, std::char_traits<char>, std::allocator<char> >&>
FUNC 12b100 c2 0 std::__cxx11::basic_string<char, std::char_traits<char>, std::allocator<char> >::_M_construct<char*>
FUNC 12b1d0 80 0 Cmd::DefaultEnvironment::Print
FUNC 12b250 97 0 Cmd::GetCommandMap
FUNC 12b2f0 8 0 Cmd::GetCurrentArgs
FUNC 12b300 8 0 Cmd::GetEnv
FUNC 12b310 f 0 Cmd::SetCurrentArgs
FUNC 12b320 13 0 Cmd::SaveArgs
FUNC 12b340 13 0 Cmd::LoadArgs
FUNC 12b360 2c1 0 Cmd::BufferCommandTextInternal
FUNC 12b630 e 0 Cmd::BufferCommandText
FUNC 12b640 b 0 Cmd::BufferCommandTextAfter
FUNC 12b650 20 0 Cmd::DefaultEnvironment::ExecuteAfter
FUNC 12b670 56 0 Cmd::RemoveFlaggedCommands
FUNC 12b6d0 48 0 Cmd::RemoveSameCommands
FUNC 12b720 2ce 0 Cmd::CompleteCommandNames
FUNC 12b9f0 3f 0 Cmd::ChangeDescription
FUNC 12ba30 1c 0 Cmd::CommandExists
FUNC 12ba50 255 0 Cmd::ExecuteCommand
FUNC 12bcb0 233 0 Cmd::ExecuteCommandBuffer
FUNC 12bef0 1b8 0 Cmd::CompleteArgument
FUNC 12c0b0 b4 0 Cmd::RemoveCommand
FUNC 12c170 2d6 0 Cmd::AddCommand
FUNC 12c450 2 0 Cmd::ListCmdsCmd::~ListCmdsCmd
FUNC 12c460 2 0 Cmd::DefaultEnvironment::~DefaultEnvironment
FUNC 12c470 5 0 Cmd::DefaultEnvironment::~DefaultEnvironment
FUNC 12c480 5 0 Cmd::ListCmdsCmd::~ListCmdsCmd
FUNC 12c490 55 0 std::vector<Cmd::BufferEntry, std::allocator<Cmd::BufferEntry> >::~vector
FUNC 12c4f0 55 0 Cmd::Args::~Args
FUNC 12c550 32 0 std::pair<const std::__cxx11::basic_string<char, std::char_traits<char>, std::allocator<char> >, Cmd::commandRecord_t>::~pair
FUNC 12c590 16c 0 Cmd::ListCmdsCmd::ListCmdsCmd
FUNC 12c700 cc0 0 Log::Logger::Warn<const std::__cxx11::basic_string<char, std::char_traits<char>, std::allocator<char> >&>
FUNC 12d3c0 2d4 0 std::vector<std::__cxx11::basic_string<char, std::char_traits<char>, std::allocator<char> >, std::allocator<std::__cxx11::basic_string<char, std::char_traits<char>, std::allocator<char> > > >::operator=
FUNC 12d6a0 ce7 0 Log::Logger::Debug<int&, std::__cxx11::basic_string<char, std::char_traits<char>, std::allocator<char> > >
FUNC 12e390 4cc 0 std::vector<Cmd::BufferEntry, std::allocator<Cmd::BufferEntry> >::_M_insert_aux<Cmd::BufferEntry>
FUNC 12e860 c5 0 std::_Hashtable<std::__cxx11::basic_string<char, std::char_traits<char>, std::allocator<char> >, std::pair<const std::__cxx11::basic_string<char, std::char_traits<char>, std::allocator<char> >, Cmd::commandRecord_t>, std::allocator<std::pair<const std::__cxx11::basic_string<char, std::char_traits<char>, std::allocator<char> >, Cmd::commandRecord_t> >, std::__detail::_Select1st, Str::IEqual, Str::IHash, std::__detail::_Mod_range_hashing, std::__detail::_Default_ranged_hash, std::__detail::_Prime_rehash_policy, std::__detail::_Hashtable_traits<true, false, true> >::_M_erase
FUNC 12e930 39 0 std::_Hashtable<std::__cxx11::basic_string<char, std::char_traits<char>, std::allocator<char> >, std::pair<const std::__cxx11::basic_string<char, std::char_traits<char>, std::allocator<char> >, Cmd::commandRecord_t>, std::allocator<std::pair<const std::__cxx11::basic_string<char, std::char_traits<char>, std::allocator<char> >, Cmd::commandRecord_t> >, std::__detail::_Select1st, Str::IEqual, Str::IHash, std::__detail::_Mod_range_hashing, std::__detail::_Default_ranged_hash, std::__detail::_Prime_rehash_policy, std::__detail::_Hashtable_traits<true, false, true> >::erase
FUNC 12e970 6c 0 Cmd::ListCmdsCmd::Complete
FUNC 12e9e0 ea 0 std::vector<const Cmd::commandRecord_t*, std::allocator<const Cmd::commandRecord_t*> >::_M_emplace_back_aux<const Cmd::commandRecord_t*>
FUNC 12ead0 1c12 0 Cmd::ListCmdsCmd::Run
FUNC 1306f0 201 0 std::_Hashtable<std::__cxx11::basic_string<char, std::char_traits<char>, std::allocator<char> >, std::pair<const std::__cxx11::basic_string<char, std::char_traits<char>, std::allocator<char> >, Cmd::commandRecord_t>, std::allocator<std::pair<const std::__cxx11::basic_string<char, std::char_traits<char>, std::allocator<char> >, Cmd::commandRecord_t> >, std::__detail::_Select1st, Str::IEqual, Str::IHash, std::__detail::_Mod_range_hashing, std::__detail::_Default_ranged_hash, std::__detail::_Prime_rehash_policy, std::__detail::_Hashtable_traits<true, false, true> >::_M_insert_unique_node
FUNC 130900 c1 0 std::_Hashtable<std::__cxx11::basic_string<char, std::char_traits<char>, std::allocator<char> >, std::pair<const std::__cxx11::basic_string<char, std::char_traits<char>, std::allocator<char> >, Cmd::commandRecord_t>, std::allocator<std::pair<const std::__cxx11::basic_string<char, std::char_traits<char>, std::allocator<char> >, Cmd::commandRecord_t> >, std::__detail::_Select1st, Str::IEqual, Str::IHash, std::__detail::_Mod_range_hashing, std::__detail::_Default_ranged_hash, std::__detail::_Prime_rehash_policy, std::__detail::_Hashtable_traits<true, false, true> >::_M_find_before_node
FUNC 1309d0 a9 0 std::_Hashtable<std::__cxx11::basic_string<char, std::char_traits<char>, std::allocator<char> >, std::pair<const std::__cxx11::basic_string<char, std::char_traits<char>, std::allocator<char> >, Cmd::commandRecord_t>, std::allocator<std::pair<const std::__cxx11::basic_string<char, std::char_traits<char>, std::allocator<char> >, Cmd::commandRecord_t> >, std::__detail::_Select1st, Str::IEqual, Str::IHash, std::__detail::_Mod_range_hashing, std::__detail::_Default_ranged_hash, std::__detail::_Prime_rehash_policy, std::__detail::_Hashtable_traits<true, false, true> >::find
FUNC 130a80 9e 0 std::__detail::_Hashtable_alloc<std::allocator<std::__detail::_Hash_node<std::pair<const std::__cxx11::basic_string<char, std::char_traits<char>, std::allocator<char> >, Cmd::commandRecord_t>, true> > >::_M_allocate_node<const std::pair<const std::__cxx11::basic_string<char, std::char_traits<char>, std::allocator<char> >, Cmd::commandRecord_t>&>
FUNC 130b20 c2 0 std::__cxx11::basic_string<char, std::char_traits<char>, std::allocator<char> >::_M_construct<char*>
FUNC 130bf0 427 0 VM::CommonVMServices::EnvPrint
FUNC 131020 470 0 VM::CommonVMServices::EnvExecuteAfter
FUNC 131490 d7 0 VM::CommonVMServices::CommonVMServices
FUNC 131570 184 0 VM::CommonVMServices::~CommonVMServices
FUNC 131700 5 0 VM::CommonVMServices::GetVM
FUNC 131710 d3b 0 VM::CommonVMServices::RegisterCvar
FUNC 132450 5b1 0 VM::CommonVMServices::SetCvar
FUNC 132a10 471 0 VM::CommonVMServices::AddCvarFlags
FUNC 132e90 806 0 VM::CommonVMServices::HandleMiscSyscall
FUNC 1336a0 697 0 IPC::HandleMsg<IPC::SyncMessage<IPC::Message<IPC::Id<1u, 10u>, std::__cxx11::basic_string<char, std::char_traits<char>, std::allocator<char> >, std::__cxx11::basic_string<char, std::char_traits<char>, std::allocator<char> >, int>, IPC::Reply<int, std::__cxx11::basic_string<char, std::char_traits<char>, std::allocator<char> > > >, VM::CommonVMServices::HandleCommonQVMSyscall(int, Util::Reader&, IPC::Channel&)::<lambda(const string&, std::__cxx11::string, int, int&, std::__cxx11::string&)> >
FUNC 133d40 537 0 VM::CommonVMServices::GetCvar
FUNC 134280 501 0 VM::CommonVMServices::HandleLogSyscall
FUNC 134790 85 0 VM::CommonVMServices::HandleCvarSyscall
FUNC 134820 2ee8 0 VM::CommonVMServices::HandleCommonQVMSyscall
FUNC 137710 452 0 VM::CommonVMServices::RemoveCommand
FUNC 137b70 756 0 VM::CommonVMServices::AddCommand
FUNC 1382d0 85 0 VM::CommonVMServices::HandleCommandSyscall
FUNC 138360 10b 0 VM::CommonVMServices::Syscall
FUNC 138470 2 0 VM::CommonVMServices::ProxyCmd::~ProxyCmd
FUNC 138480 3 0 tinyformat::detail::FormatArg::toIntImpl<IPC::SyncMessage<IPC::Message<IPC::Id<3u, 0u>, std::__cxx11::basic_string<char, std::char_traits<char>, std::allocator<char> > > >::<anonymous enum> >
FUNC 138490 3 0 tinyformat::detail::FormatArg::toIntImpl<IPC::SyncMessage<IPC::Message<IPC::Id<3u, 1u>, int, std::__cxx11::basic_string<char, std::char_traits<char>, std::allocator<char> >, std::__cxx11::basic_string<char, std::char_traits<char>, std::allocator<char> > >, IPC::Reply<std::vector<std::pair<std::__cxx11::basic_string<char, std::char_traits<char>, std::allocator<char> >, std::__cxx11::basic_string<char, std::char_traits<char>, std::allocator<char> > >, std::allocator<std::pair<std::__cxx11::basic_string<char, std::char_traits<char>, std::allocator<char> >, std::__cxx11::basic_string<char, std::char_traits<char>, std::allocator<char> > > > > > >::<anonymous enum> >
FUNC 1384a0 3 0 tinyformat::detail::FormatArg::toIntImpl<IPC::SyncMessage<IPC::Message<IPC::Id<4u, 0u>, std::__cxx11::basic_string<char, std::char_traits<char>, std::allocator<char> >, std::__cxx11::basic_string<char, std::char_traits<char>, std::allocator<char> > >, IPC::Reply<bool, std::__cxx11::basic_string<char, std::char_traits<char>, std::allocator<char> > > >::<anonymous enum> >
FUNC 1384b0 5 0 VM::CommonVMServices::ProxyCmd::~ProxyCmd
FUNC 1384c0 54 0 VM::CommonVMServices::ProxyCvar::~ProxyCvar
FUNC 138520 52 0 VM::CommonVMServices::ProxyCvar::~ProxyCvar
FUNC 138580 32 0 std::_Tuple_impl<0ul, std::__cxx11::basic_string<char, std::char_traits<char>, std::allocator<char> >, std::__cxx11::basic_string<char, std::char_traits<char>, std::allocator<char> > >::~_Tuple_impl
FUNC 1385c0 1e0 0 std::vector<std::unique_ptr<VM::CommonVMServices::ProxyCvar, std::default_delete<VM::CommonVMServices::ProxyCvar> >, std::allocator<std::unique_ptr<VM::CommonVMServices::ProxyCvar, std::default_delete<VM::CommonVMServices::ProxyCvar> > > >::_M_emplace_back_aux<VM::CommonVMServices::ProxyCvar*>
FUNC 1387a0 32 0 std::_Tuple_impl<0ul, std::__cxx11::basic_string<char, std::char_traits<char>, std::allocator<char> >, std::__cxx11::basic_string<char, std::char_traits<char>, std::allocator<char> >, int>::~_Tuple_impl
FUNC 1387e0 3f8 0 tinyformat::format<int, std::__cxx11::basic_string<char, std::char_traits<char>, std::allocator<char> > >
FUNC 138be0 4f 0 Sys::Drop<int&, std::__cxx11::basic_string<char, std::char_traits<char>, std::allocator<char> >&>
FUNC 138c30 20b 0 std::_Hashtable<std::__cxx11::basic_string<char, std::char_traits<char>, std::allocator<char> >, std::pair<const std::__cxx11::basic_string<char, std::char_traits<char>, std::allocator<char> >, long unsigned int>, std::allocator<std::pair<const std::__cxx11::basic_string<char, std::char_traits<char>, std::allocator<char> >, long unsigned int> >, std::__detail::_Select1st, std::equal_to<std::__cxx11::basic_string<char, std::char_traits<char>, std::allocator<char> > >, std::hash<std::__cxx11::basic_string<char, std::char_traits<char>, std::allocator<char> > >, std::__detail::_Mod_range_hashing, std::__detail::_Default_ranged_hash, std::__detail::_Prime_rehash_policy, std::__detail::_Hashtable_traits<true, false, true> >::_M_insert_unique_node
FUNC 138e40 113 0 Util::Reader::FillTuple<0ul, std::__cxx11::basic_string<char>, std::__cxx11::basic_string<char, std::char_traits<char>, std::allocator<char> >, std::tuple<std::__cxx11::basic_string<char, std::char_traits<char>, std::allocator<char> >, std::__cxx11::basic_string<char, std::char_traits<char>, std::allocator<char> > > >
FUNC 138f60 fb 0 Log::Logger::Warn<std::__cxx11::basic_string<char, std::char_traits<char>, std::allocator<char> >&, std::__cxx11::basic_string<char, std::char_traits<char>, std::allocator<char> >&>
FUNC 139060 a4 0 std::_Hashtable<std::__cxx11::basic_string<char, std::char_traits<char>, std::allocator<char> >, std::pair<const std::__cxx11::basic_string<char, std::char_traits<char>, std::allocator<char> >, long unsigned int>, std::allocator<std::pair<const std::__cxx11::basic_string<char, std::char_traits<char>, std::allocator<char> >, long unsigned int> >, std::__detail::_Select1st, std::equal_to<std::__cxx11::basic_string<char, std::char_traits<char>, std::allocator<char> > >, std::hash<std::__cxx11::basic_string<char, std::char_traits<char>, std::allocator<char> > >, std::__detail::_Mod_range_hashing, std::__detail::_Default_ranged_hash, std::__detail::_Prime_rehash_policy, std::__detail::_Hashtable_traits<true, false, true> >::_M_find_before_node
FUNC 139110 3a3 0 tinyformat::format<IPC::SyncMessage<IPC::Message<IPC::Id<3u, 0u>, std::__cxx11::basic_string<char, std::char_traits<char>, std::allocator<char> > > >::<anonymous enum> >
FUNC 1394c0 784 0 IPC::detail::SendMsg<VM::VMBase::SendMsg(Args&& ...) [with Msg = IPC::SyncMessage<IPC::Message<IPC::Id<3u, 0u>, std::__cxx11::basic_string<char, std::char_traits<char>, std::allocator<char> > > >; Args = {std::__cxx11::basic_string<char, std::char_traits<char>, std::allocator<char> >}]::<lambda(uint32_t, Util::Reader)>&, IPC::Message<IPC::Id<3u, 0u>, std::__cxx11::basic_string<char, std::char_traits<char>, std::allocator<char> > >, IPC::Reply<>, std::__cxx11::basic_string<char, std::char_traits<char>, std::allocator<char> > >
FUNC 139c50 cb 0 VM::CommonVMServices::ProxyCmd::Run
FUNC 139d20 3a3 0 tinyformat::format<IPC::SyncMessage<IPC::Message<IPC::Id<3u, 1u>, int, std::__cxx11::basic_string<char, std::char_traits<char>, std::allocator<char> >, std::__cxx11::basic_string<char, std::char_traits<char>, std::allocator<char> > >, IPC::Reply<std::vector<std::pair<std::__cxx11::basic_string<char, std::char_traits<char>, std::allocator<char> >, std::__cxx11::basic_string<char, std::char_traits<char>, std::allocator<char> > >, std::allocator<std::pair<std::__cxx11::basic_string<char, std::char_traits<char>, std::allocator<char> >, std::__cxx11::basic_string<char, std::char_traits<char>, std::allocator<char> > > > > > >::<anonymous enum> >
FUNC 13a0d0 3a3 0 tinyformat::format<IPC::SyncMessage<IPC::Message<IPC::Id<4u, 0u>, std::__cxx11::basic_string<char, std::char_traits<char>, std::allocator<char> >, std::__cxx11::basic_string<char, std::char_traits<char>, std::allocator<char> > >, IPC::Reply<bool, std::__cxx11::basic_string<char, std::char_traits<char>, std::allocator<char> > > >::<anonymous enum> >
FUNC 13a480 8d0 0 IPC::detail::SendMsg<VM::VMBase::SendMsg(Args&& ...) [with Msg = IPC::SyncMessage<IPC::Message<IPC::Id<4u, 0u>, std::__cxx11::basic_string<char, std::char_traits<char>, std::allocator<char> >, std::__cxx11::basic_string<char, std::char_traits<char>, std::allocator<char> > >, IPC::Reply<bool, std::__cxx11::basic_string<char, std::char_traits<char>, std::allocator<char> > > >; Args = {std::__cxx11::basic_string<char, std::char_traits<char>, std::allocator<char> >&, Str::BasicStringRef<char>&, bool&, std::__cxx11::basic_string<char, std::char_traits<char>, std::allocator<char> >&}]::<lambda(uint32_t, Util::Reader)>&, IPC::Message<IPC::Id<4u, 0u>, std::__cxx11::basic_string<char, std::char_traits<char>, std::allocator<char> >, std::__cxx11::basic_string<char, std::char_traits<char>, std::allocator<char> > >, IPC::Reply<bool, std::__cxx11::basic_string<char, std::char_traits<char>, std::allocator<char> > >, std::__cxx11::basic_string<char, std::char_traits<char>, std::allocator<char> >&, Str::BasicStringRef<char>&, bool&, std::__cxx11::basic_string<char, std::char_traits<char>, std::allocator<char> >&>
FUNC 13ad50 df 0 VM::CommonVMServices::ProxyCvar::OnValueChanged
FUNC 13ae30 2b7 0 std::vector<std::pair<std::__cxx11::basic_string<char, std::char_traits<char>, std::allocator<char> >, std::__cxx11::basic_string<char, std::char_traits<char>, std::allocator<char> > >, std::allocator<std::pair<std::__cxx11::basic_string<char, std::char_traits<char>, std::allocator<char> >, std::__cxx11::basic_string<char, std::char_traits<char>, std::allocator<char> > > > >::_M_default_append
FUNC 13b0f0 cc6 0 IPC::detail::SendMsg<VM::VMBase::SendMsg(Args&& ...) [with Msg = IPC::SyncMessage<IPC::Message<IPC::Id<3u, 1u>, int, std::__cxx11::basic_string<char, std::char_traits<char>, std::allocator<char> >, std::__cxx11::basic_string<char, std::char_traits<char>, std::allocator<char> > >, IPC::Reply<std::vector<std::pair<std::__cxx11::basic_string<char, std::char_traits<char>, std::allocator<char> >, std::__cxx11::basic_string<char, std::char_traits<char>, std::allocator<char> > >, std::allocator<std::pair<std::__cxx11::basic_string<char, std::char_traits<char>, std::allocator<char> >, std::__cxx11::basic_string<char, std::char_traits<char>, std::allocator<char> > > > > > >; Args = {int&, std::__cxx11::basic_string<char, std::char_traits<char>, std::allocator<char> >, Str::BasicStringRef<char>&, std::vector<std::pair<std::__cxx11::basic_string<char, std::char_traits<char>, std::allocator<char> >, std::__cxx11::basic_string<char, std::char_traits<char>, std::allocator<char> > >, std::allocator<std::pair<std::__cxx11::basic_string<char, std::char_traits<char>, std::allocator<char> >, std::__cxx11::basic_string<char, std::char_traits<char>, std::allocator<char> > > > >&}]::<lambda(uint32_t, Util::Reader)>&, IPC::Message<IPC::Id<3u, 1u>, int, std::__cxx11::basic_string<char, std::char_traits<char>, std::allocator<char> >, std::__cxx11::basic_string<char, std::char_traits<char>, std::allocator<char> > >, IPC::Reply<std::vector<std::pair<std::__cxx11::basic_string<char, std::char_traits<char>, std::allocator<char> >, std::__cxx11::basic_string<char, std::char_traits<char>, std::allocator<char> > >, std::allocator<std::pair<std::__cxx11::basic_string<char, std::char_traits<char>, std::allocator<char> >, std::__cxx11::basic_string<char, std::char_traits<char>, std::allocator<char> > > > > >, int&, std::__cxx11::basic_string<char, std::char_traits<char>, std::allocator<char> >, Str::BasicStringRef<char>&, std::vector<std::pair<std::__cxx11::basic_string<char, std::char_traits<char>, std::allocator<char> >, std::__cxx11::basic_string<char, std::char_traits<char>, std::allocator<char> > >, std::allocator<std::pair<std::__cxx11::basic_string<char, std::char_traits<char>, std::allocator<char> >, std::__cxx11::basic_string<char, std::char_traits<char>, std::allocator<char> > > > >&>
FUNC 13bdc0 117 0 VM::CommonVMServices::ProxyCmd::Complete
FUNC 13bee0 3a4 0 tinyformat::detail::formatTruncated<IPC::SyncMessage<IPC::Message<IPC::Id<4u, 0u>, std::__cxx11::basic_string<char, std::char_traits<char>, std::allocator<char> >, std::__cxx11::basic_string<char, std::char_traits<char>, std::allocator<char> > >, IPC::Reply<bool, std::__cxx11::basic_string<char, std::char_traits<char>, std::allocator<char> > > >::<anonymous enum> >
FUNC 13c290 6d 0 tinyformat::detail::FormatArg::formatImpl<IPC::SyncMessage<IPC::Message<IPC::Id<4u, 0u>, std::__cxx11::basic_string<char, std::char_traits<char>, std::allocator<char> >, std::__cxx11::basic_string<char, std::char_traits<char>, std::allocator<char> > >, IPC::Reply<bool, std::__cxx11::basic_string<char, std::char_traits<char>, std::allocator<char> > > >::<anonymous enum> >
FUNC 13c300 6d 0 tinyformat::detail::FormatArg::formatImpl<IPC::SyncMessage<IPC::Message<IPC::Id<3u, 0u>, std::__cxx11::basic_string<char, std::char_traits<char>, std::allocator<char> > > >::<anonymous enum> >
FUNC 13c370 6d 0 tinyformat::detail::FormatArg::formatImpl<IPC::SyncMessage<IPC::Message<IPC::Id<3u, 1u>, int, std::__cxx11::basic_string<char, std::char_traits<char>, std::allocator<char> >, std::__cxx11::basic_string<char, std::char_traits<char>, std::allocator<char> > >, IPC::Reply<std::vector<std::pair<std::__cxx11::basic_string<char, std::char_traits<char>, std::allocator<char> >, std::__cxx11::basic_string<char, std::char_traits<char>, std::allocator<char> > >, std::allocator<std::pair<std::__cxx11::basic_string<char, std::char_traits<char>, std::allocator<char> >, std::__cxx11::basic_string<char, std::char_traits<char>, std::allocator<char> > > > > > >::<anonymous enum> >
FUNC 13c3e0 81 0 std::__cxx11::basic_string<char32_t, std::char_traits<char32_t>, std::allocator<char32_t> >::_M_create
FUNC 13c470 c2 0 std::__cxx11::basic_string<char, std::char_traits<char>, std::allocator<char> >::_M_construct<char*>
FUNC 13c540 30b 0 std::__unguarded_linear_insert<__gnu_cxx::__normal_iterator<std::pair<std::__cxx11::basic_string<char>, std::__cxx11::basic_string<char> >*, std::vector<std::pair<std::__cxx11::basic_string<char>, std::__cxx11::basic_string<char> > > >, __gnu_cxx::__ops::_Val_less_iter>
FUNC 13c850 3f 0 Console::Field::Field
FUNC 13c890 db 0 Console::Field::HistoryPrev
FUNC 13c970 db 0 Console::Field::HistoryNext
FUNC 13ca50 346 0 Console::Field::RunCommand
FUNC 13cda0 eef 0 std::__introsort_loop<__gnu_cxx::__normal_iterator<std::pair<std::__cxx11::basic_string<char>, std::__cxx11::basic_string<char> >*, std::vector<std::pair<std::__cxx11::basic_string<char>, std::__cxx11::basic_string<char> > > >, long int, __gnu_cxx::__ops::_Iter_less_iter>
FUNC 13dc90 2448 0 Console::Field::AutoComplete
FUNC 1400e0 12e 0 std::__unique<__gnu_cxx::__normal_iterator<std::pair<std::__cxx11::basic_string<char>, std::__cxx11::basic_string<char> >*, std::vector<std::pair<std::__cxx11::basic_string<char>, std::__cxx11::basic_string<char> > > >, __gnu_cxx::__ops::_Iter_equal_to_iter>
FUNC 140210 16f 0 std::__cxx11::basic_string<char32_t, std::char_traits<char32_t>, std::allocator<char32_t> >::_M_mutate
FUNC 140380 2e5 0 std::__cxx11::basic_string<char32_t, std::char_traits<char32_t>, std::allocator<char32_t> >::_M_replace
FUNC 140670 353 0 std::__insertion_sort<__gnu_cxx::__normal_iterator<std::pair<std::__cxx11::basic_string<char>, std::__cxx11::basic_string<char> >*, std::vector<std::pair<std::__cxx11::basic_string<char>, std::__cxx11::basic_string<char> > > >, __gnu_cxx::__ops::_Iter_less_iter>
FUNC 1409d0 62e 0 std::__adjust_heap<__gnu_cxx::__normal_iterator<std::pair<std::__cxx11::basic_string<char>, std::__cxx11::basic_string<char> >*, std::vector<std::pair<std::__cxx11::basic_string<char>, std::__cxx11::basic_string<char> > > >, long int, std::pair<std::__cxx11::basic_string<char>, std::__cxx11::basic_string<char> >, __gnu_cxx::__ops::_Iter_less_iter>
FUNC 141000 c2 0 std::__cxx11::basic_string<char, std::char_traits<char>, std::allocator<char> >::_M_construct<char*>
FUNC 1410d0 1c 0 Console::History::History
FUNC 1410f0 4e 0 Console::History::GetFilename
FUNC 141140 16b 0 Console::History::PrevLine
FUNC 1412b0 124 0 Console::History::NextLine
FUNC 1413e0 29e 0 Console::History::Save
FUNC 141680 3b7 0 Console::History::Load
FUNC 141a40 1ba 0 Console::History::Add
FUNC 141c00 cf0 0 Log::Logger::Warn<std::__cxx11::basic_string<char, std::char_traits<char>, std::allocator<char> >, char const*>
FUNC 1428f0 259 0 std::vector<std::__cxx11::basic_string<char, std::char_traits<char>, std::allocator<char> >, std::allocator<std::__cxx11::basic_string<char, std::char_traits<char>, std::allocator<char> > > >::_M_emplace_back_aux<std::__cxx11::basic_string<char, std::char_traits<char>, std::allocator<char> >&, long unsigned int&, long unsigned int>
FUNC 142b50 57 0 Sys::CrashDumpPath
FUNC 142bb0 c2 0 std::__cxx11::basic_string<char, std::char_traits<char>, std::allocator<char> >::_M_construct<char*>
FUNC 142c80 4f3 0 Sys::BreakpadInitInternal
FUNC 143180 11b 0 Sys::BreakpadInit
FUNC 1432a0 1c2 0 Sys::CreateCrashDumpPath
FUNC 143470 2f3 0 Sys::NaclCrashDump
FUNC 143770 22 0 std::unique_ptr<google_breakpad::ExceptionHandler, std::default_delete<google_breakpad::ExceptionHandler> >::~unique_ptr
FUNC 1437a0 cc0 0 Log::Logger::Warn<char*>
FUNC 144460 d17 0 Log::Logger::Debug<char const*, char const*, char const*>
FUNC 145180 eb 0 Log::Logger::Debug<std::__cxx11::basic_string<char, std::char_traits<char>, std::allocator<char> > >
FUNC 145270 f8 0 Log::Logger::Notice<std::__cxx11::basic_string<char, std::char_traits<char>, std::allocator<char> >&>
FUNC 145370 c2 0 std::__cxx11::basic_string<char, std::char_traits<char>, std::allocator<char> >::_M_construct<char*>
FUNC 145440 97 0 Cvar::GetCvarMap
FUNC 1454e0 d4 0 Cvar::Shutdown
FUNC 1455c0 63 0 Cvar::InfoString
FUNC 145630 14b 0 Cvar::Raw
FUNC 145780 10f1 0 Cvar::GetCvarConfigText
FUNC 146880 d49 0 Cvar::ChangeCvarDescription
FUNC 1475d0 db6 0 Cvar::SetCStyleDescription
FUNC 148390 156 0 Cvar::GetCCvar
FUNC 1484f0 16c 0 Cvar::SetCCvar
FUNC 148660 152 0 Cvar::SetLatchedValues
FUNC 1487c0 187 0 Cvar::SetCheatsAllowed
FUNC 148950 279 0 Cvar::Complete
FUNC 148bd0 73 0 Cvar::GetValue
FUNC 148c50 31 0 Cvar::Unregister
FUNC 148c90 b9 0 Cvar::AddFlags
FUNC 148d50 49 0 Cvar::ClearFlags
FUNC 148da0 2c 0 Cvar::FindCCvar
FUNC 148dd0 1205 0 Cvar::InternalSetValue
FUNC 149fe0 9a 0 Cvar::SetValue
FUNC 14a080 9d 0 Cvar::SetValueForce
FUNC 14a120 9a 0 Cvar::SetValueCProxy
FUNC 14a1c0 559 0 Cvar::Register
FUNC 14a720 1dc 0 Cvar::PopulateInfoMap
FUNC 14a900 2 0 Cvar::ListCvars::~ListCvars
FUNC 14a910 2 0 Cvar::ResetCmd::~ResetCmd
FUNC 14a920 2 0 Cvar::SetCmd::~SetCmd
FUNC 14a930 2 0 Cvar::CvarCommand::~CvarCommand
FUNC 14a940 5 0 Cvar::CvarCommand::~CvarCommand
FUNC 14a950 5 0 Cvar::ListCvars::~ListCvars
FUNC 14a960 5 0 Cvar::ResetCmd::~ResetCmd
FUNC 14a970 5 0 Cvar::SetCmd::~SetCmd
FUNC 14a980 45 0 __tcf_0
FUNC 14a9d0 10b 0 Cvar::SetCmd::SetCmd
FUNC 14aae0 fc 0 Cvar::ResetCmd::ResetCmd
FUNC 14abe0 fc 0 Cvar::ListCvars::ListCvars
FUNC 14ace0 d10 0 Log::Logger::Notice<std::__cxx11::basic_string<char, std::char_traits<char>, std::allocator<char> >&, const std::__cxx11::basic_string<char, std::char_traits<char>, std::allocator<char> >&, std::__cxx11::basic_string<char, std::char_traits<char>, std::allocator<char> >&>
FUNC 14b9f0 ea 0 std::vector<Cvar::cvarRecord_t*, std::allocator<Cvar::cvarRecord_t*> >::_M_emplace_back_aux<Cvar::cvarRecord_t* const&>
FUNC 14bae0 20b 0 std::_Hashtable<std::__cxx11::basic_string<char, std::char_traits<char>, std::allocator<char> >, std::pair<const std::__cxx11::basic_string<char, std::char_traits<char>, std::allocator<char> >, Cvar::cvarRecord_t*>, std::allocator<std::pair<const std::__cxx11::basic_string<char, std::char_traits<char>, std::allocator<char> >, Cvar::cvarRecord_t*> >, std::__detail::_Select1st, Str::IEqual, Str::IHash, std::__detail::_Mod_range_hashing, std::__detail::_Default_ranged_hash, std::__detail::_Prime_rehash_policy, std::__detail::_Hashtable_traits<true, false, true> >::_M_insert_unique_node
FUNC 14bcf0 c6a 0 tinyformat::format<char const*, char const*, char const*>
FUNC 14c960 fe 0 Log::Logger::Notice<char const*, char const*, char const*>
FUNC 14ca60 213 0 Cvar::ListCvars::Complete
FUNC 14cc80 6c 0 Cvar::ResetCmd::Complete
FUNC 14ccf0 6c 0 Cvar::SetCmd::Complete
FUNC 14cd60 caf 0 tinyformat::format<long unsigned int, std::__cxx11::basic_string<char, std::char_traits<char>, std::allocator<char> >, std::__cxx11::basic_string<char, std::char_traits<char>, std::allocator<char> >, std::__cxx11::basic_string<char, std::char_traits<char>, std::allocator<char> > >
FUNC 14da10 cb 0 Cmd::CmdBase::Print<long unsigned int&, const std::__cxx11::basic_string<char, std::char_traits<char>, std::allocator<char> >&, std::__cxx11::basic_string<char, std::char_traits<char>, std::allocator<char> >&, std::__cxx11::basic_string<char, std::char_traits<char>, std::allocator<char> >&>
FUNC 14dae0 15cb 0 Cvar::ListCvars::Run
FUNC 14f0b0 c1 0 std::_Hashtable<std::__cxx11::basic_string<char, std::char_traits<char>, std::allocator<char> >, std::pair<const std::__cxx11::basic_string<char, std::char_traits<char>, std::allocator<char> >, Cvar::cvarRecord_t*>, std::allocator<std::pair<const std::__cxx11::basic_string<char, std::char_traits<char>, std::allocator<char> >, Cvar::cvarRecord_t*> >, std::__detail::_Select1st, Str::IEqual, Str::IHash, std::__detail::_Mod_range_hashing, std::__detail::_Default_ranged_hash, std::__detail::_Prime_rehash_policy, std::__detail::_Hashtable_traits<true, false, true> >::_M_find_before_node
FUNC 14f180 a9 0 std::_Hashtable<std::__cxx11::basic_string<char, std::char_traits<char>, std::allocator<char> >, std::pair<const std::__cxx11::basic_string<char, std::char_traits<char>, std::allocator<char> >, Cvar::cvarRecord_t*>, std::allocator<std::pair<const std::__cxx11::basic_string<char, std::char_traits<char>, std::allocator<char> >, Cvar::cvarRecord_t*> >, std::__detail::_Select1st, Str::IEqual, Str::IHash, std::__detail::_Mod_range_hashing, std::__detail::_Default_ranged_hash, std::__detail::_Prime_rehash_policy, std::__detail::_Hashtable_traits<true, false, true> >::find
FUNC 14f230 129 0 std::__detail::_Map_base<std::__cxx11::basic_string<char, std::char_traits<char>, std::allocator<char> >, std::pair<const std::__cxx11::basic_string<char, std::char_traits<char>, std::allocator<char> >, Cvar::cvarRecord_t*>, std::allocator<std::pair<const std::__cxx11::basic_string<char, std::char_traits<char>, std::allocator<char> >, Cvar::cvarRecord_t*> >, std::__detail::_Select1st, Str::IEqual, Str::IHash, std::__detail::_Mod_range_hashing, std::__detail::_Default_ranged_hash, std::__detail::_Prime_rehash_policy, std::__detail::_Hashtable_traits<true, false, true>, true>::operator[]
FUNC 14f360 17a 0 Cvar::ResetCmd::Run
FUNC 14f4e0 e5 0 Cvar::SetCmd::Run
FUNC 14f5d0 139 0 Cvar::CvarCommand::Run
FUNC 14f710 68 0 __tcf_0
FUNC 14f780 c2 0 std::__cxx11::basic_string<char, std::char_traits<char>, std::allocator<char> >::_M_construct<char*>
FUNC 14f850 f 0 Log::RegisterTarget
FUNC 14f860 b 0 Log::Target::Target
FUNC 14f870 f 0 Log::Target::Register
FUNC 14f880 234 0 Log::Dispatch
FUNC 14fac0 299 0 Log::OpenLogFile
FUNC 14fd60 2 0 Log::TTYTarget::~TTYTarget
FUNC 14fd70 5 0 Log::TTYTarget::~TTYTarget
FUNC 14fd80 41 0 Log::TTYTarget::Process
FUNC 14fdd0 5a 0 Log::LogFileTarget::~LogFileTarget
FUNC 14fe30 62 0 Log::LogFileTarget::~LogFileTarget
FUNC 14fea0 211 0 std::vector<Log::Event, std::allocator<Log::Event> >::_M_emplace_back_aux<const Log::Event&>
FUNC 1500c0 de 0 Log::LogFileTarget::Process
FUNC 1501a0 b4 0 Sys::SignalThread
FUNC 150260 c2 0 std::__cxx11::basic_string<char, std::char_traits<char>, std::allocator<char> >::_M_construct<char*>
FUNC 150330 39 0 std::__cxx11::basic_string<char, std::char_traits<char>, std::allocator<char> >::basic_string
FUNC 150370 3ed 0 Sys::GetSingletonSocketPath
FUNC 150760 174 0 Sys::CloseSingletonSocket
FUNC 1508e0 2f 0 Sys::Quit
FUNC 150910 80 0 Sys::Error
FUNC 150990 178 0 Sys::SignalHandler
FUNC 150b10 134 0 Sys::ReadSingletonSocketCommands
FUNC 150c50 95 0 Sys::ReadSingletonSocket
FUNC 150cf0 b7 0 Sys::EarlyCvar
FUNC 150db0 1769 0 Sys::Init
FUNC 152520 2 0 Util::optional<std::chrono::time_point<std::chrono::_V2::steady_clock, std::chrono::duration<long int, std::ratio<1l, 1000000000l> > > >::~optional
FUNC 152530 2 0 Sys::QuitCmd::~QuitCmd
FUNC 152540 2 0 std::_Sp_counted_ptr_inplace<std::thread::_Impl<std::_Bind_simple<void (*())()> >, std::allocator<std::thread::_Impl<std::_Bind_simple<void (*())()> > >, (__gnu_cxx::_Lock_policy)2u>::~_Sp_counted_ptr_inplace
FUNC 152550 d 0 std::_Sp_counted_ptr_inplace<std::thread::_Impl<std::_Bind_simple<void (*())()> >, std::allocator<std::thread::_Impl<std::_Bind_simple<void (*())()> > >, (__gnu_cxx::_Lock_policy)2u>::_M_dispose
FUNC 152560 3 0 std::thread::_Impl<std::_Bind_simple<void (*())()> >::_M_run
FUNC 152570 5 0 Sys::QuitCmd::~QuitCmd
FUNC 152580 5 0 std::_Sp_counted_ptr_inplace<std::thread::_Impl<std::_Bind_simple<void (*())()> >, std::allocator<std::thread::_Impl<std::_Bind_simple<void (*())()> > >, (__gnu_cxx::_Lock_policy)2u>::~_Sp_counted_ptr_inplace
FUNC 152590 5 0 std::_Sp_counted_ptr_inplace<std::thread::_Impl<std::_Bind_simple<void (*())()> >, std::allocator<std::thread::_Impl<std::_Bind_simple<void (*())()> > >, (__gnu_cxx::_Lock_policy)2u>::_M_destroy
FUNC 1525a0 29 0 std::_Sp_counted_ptr_inplace<std::thread::_Impl<std::_Bind_simple<void (*())()> >, std::allocator<std::thread::_Impl<std::_Bind_simple<void (*())()> > >, (__gnu_cxx::_Lock_policy)2u>::_M_get_deleter
FUNC 1525d0 7d 0 std::thread::_Impl<std::_Bind_simple<void (*())()> >::~_Impl
FUNC 152650 8b 0 std::thread::_Impl<std::_Bind_simple<void (*())()> >::~_Impl
FUNC 1526e0 fc 0 Sys::QuitCmd::QuitCmd
FUNC 1527e0 11d 0 Sys::cmdlineArgs_t::~cmdlineArgs_t
FUNC 152900 62 0 std::operator+<char, std::char_traits<char>, std::allocator<char> >
FUNC 152970 56 0 Sys::QuitCmd::Run
FUNC 1529d0 13a 0 std::thread::thread<void (&)()>
FUNC 152b10 251 0 std::vector<std::__cxx11::basic_string<char, std::char_traits<char>, std::allocator<char> >, std::allocator<std::__cxx11::basic_string<char, std::char_traits<char>, std::allocator<char> > > >::emplace_back<std::__cxx11::basic_string<char, std::char_traits<char>, std::allocator<char> > >
FUNC 152d70 c4a 0 tinyformat::format<char const*, std::__cxx11::basic_string<char, std::char_traits<char>, std::allocator<char> > >
FUNC 1539c0 4f 0 Sys::Error<char*>
FUNC 153a10 21f 0 std::_Hashtable<std::__cxx11::basic_string<char, std::char_traits<char>, std::allocator<char> >, std::pair<const std::__cxx11::basic_string<char, std::char_traits<char>, std::allocator<char> >, std::__cxx11::basic_string<char, std::char_traits<char>, std::allocator<char> > >, std::allocator<std::pair<const std::__cxx11::basic_string<char, std::char_traits<char>, std::allocator<char> >, std::__cxx11::basic_string<char, std::char_traits<char>, std::allocator<char> > > >, std::__detail::_Select1st, std::equal_to<std::__cxx11::basic_string<char, std::char_traits<char>, std::allocator<char> > >, std::hash<std::__cxx11::basic_string<char, std::char_traits<char>, std::allocator<char> > >, std::__detail::_Mod_range_hashing, std::__detail::_Default_ranged_hash, std::__detail::_Prime_rehash_policy, std::__detail::_Hashtable_traits<true, false, true> >::_M_insert_unique_node
FUNC 153c30 3e2 0 std::vector<std::__cxx11::basic_string<char, std::char_traits<char>, std::allocator<char> >, std::allocator<std::__cxx11::basic_string<char, std::char_traits<char>, std::allocator<char> > > >::_M_insert_aux<std::__cxx11::basic_string<char, std::char_traits<char>, std::allocator<char> > >
FUNC 154020 4f 0 Sys::Error<char const*, char const*>
FUNC 154070 a4 0 std::_Hashtable<std::__cxx11::basic_string<char, std::char_traits<char>, std::allocator<char> >, std::pair<const std::__cxx11::basic_string<char, std::char_traits<char>, std::allocator<char> >, std::__cxx11::basic_string<char, std::char_traits<char>, std::allocator<char> > >, std::allocator<std::pair<const std::__cxx11::basic_string<char, std::char_traits<char>, std::allocator<char> >, std::__cxx11::basic_string<char, std::char_traits<char>, std::allocator<char> > > >, std::__detail::_Select1st, std::equal_to<std::__cxx11::basic_string<char, std::char_traits<char>, std::allocator<char> > >, std::hash<std::__cxx11::basic_string<char, std::char_traits<char>, std::allocator<char> > >, std::__detail::_Mod_range_hashing, std::__detail::_Default_ranged_hash, std::__detail::_Prime_rehash_policy, std::__detail::_Hashtable_traits<true, false, true> >::_M_find_before_node
FUNC 154120 2 0 std::_Sp_counted_ptr_inplace<std::thread::_Impl<std::_Bind_simple<VM::CreateInProcessNativeVM(std::pair<IPC::Socket, IPC::Socket>, Str::StringRef, VM::VMBase::InProcessInfo&)::<lambda()>()> >, std::allocator<std::thread::_Impl<std::_Bind_simple<VM::CreateInProcessNativeVM(std::pair<IPC::Socket, IPC::Socket>, Str::StringRef, VM::VMBase::InProcessInfo&)::<lambda()>()> > >, (__gnu_cxx::_Lock_policy)2u>::~_Sp_counted_ptr_inplace
FUNC 154130 5 0 std::_Sp_counted_ptr_inplace<std::thread::_Impl<std::_Bind_simple<VM::CreateInProcessNativeVM(std::pair<IPC::Socket, IPC::Socket>, Str::StringRef, VM::VMBase::InProcessInfo&)::<lambda()>()> >, std::allocator<std::thread::_Impl<std::_Bind_simple<VM::CreateInProcessNativeVM(std::pair<IPC::Socket, IPC::Socket>, Str::StringRef, VM::VMBase::InProcessInfo&)::<lambda()>()> > >, (__gnu_cxx::_Lock_policy)2u>::_M_destroy
FUNC 154140 5 0 std::_Sp_counted_ptr_inplace<std::thread::_Impl<std::_Bind_simple<VM::CreateInProcessNativeVM(std::pair<IPC::Socket, IPC::Socket>, Str::StringRef, VM::VMBase::InProcessInfo&)::<lambda()>()> >, std::allocator<std::thread::_Impl<std::_Bind_simple<VM::CreateInProcessNativeVM(std::pair<IPC::Socket, IPC::Socket>, Str::StringRef, VM::VMBase::InProcessInfo&)::<lambda()>()> > >, (__gnu_cxx::_Lock_policy)2u>::~_Sp_counted_ptr_inplace
FUNC 154150 29 0 std::_Sp_counted_ptr_inplace<std::thread::_Impl<std::_Bind_simple<VM::CreateInProcessNativeVM(std::pair<IPC::Socket, IPC::Socket>, Str::StringRef, VM::VMBase::InProcessInfo&)::<lambda()>()> >, std::allocator<std::thread::_Impl<std::_Bind_simple<VM::CreateInProcessNativeVM(std::pair<IPC::Socket, IPC::Socket>, Str::StringRef, VM::VMBase::InProcessInfo&)::<lambda()>()> > >, (__gnu_cxx::_Lock_policy)2u>::_M_get_deleter
FUNC 154180 c2 0 std::__cxx11::basic_string<char, std::char_traits<char>, std::allocator<char> >::_M_construct<char*>
FUNC 154250 6e 0 std::thread::_Impl<std::_Bind_simple<VM::CreateInProcessNativeVM(std::pair<IPC::Socket, IPC::Socket>, Str::StringRef, VM::VMBase::InProcessInfo&)::<lambda()>()> >::_M_run
FUNC 1542c0 7d 0 std::thread::_Impl<std::_Bind_simple<VM::CreateInProcessNativeVM(std::pair<IPC::Socket, IPC::Socket>, Str::StringRef, VM::VMBase::InProcessInfo&)::<lambda()>()> >::~_Impl
FUNC 154340 7d 0 std::_Sp_counted_ptr_inplace<std::thread::_Impl<std::_Bind_simple<VM::CreateInProcessNativeVM(std::pair<IPC::Socket, IPC::Socket>, Str::StringRef, VM::VMBase::InProcessInfo&)::<lambda()>()> >, std::allocator<std::thread::_Impl<std::_Bind_simple<VM::CreateInProcessNativeVM(std::pair<IPC::Socket, IPC::Socket>, Str::StringRef, VM::VMBase::InProcessInfo&)::<lambda()>()> > >, (__gnu_cxx::_Lock_policy)2u>::_M_dispose
FUNC 1543c0 8b 0 std::thread::_Impl<std::_Bind_simple<VM::CreateInProcessNativeVM(std::pair<IPC::Socket, IPC::Socket>, Str::StringRef, VM::VMBase::InProcessInfo&)::<lambda()>()> >::~_Impl
FUNC 154450 16a 0 VM::VMBase::FreeInProcessVM
FUNC 1545c0 218 0 VM::InternalLoadModule
FUNC 1547e0 f36 0 VM::CreateNaClVM
FUNC 155720 423 0 VM::CreateNativeVM
FUNC 155b50 578 0 VM::CreateInProcessNativeVM
FUNC 1560d0 16a 0 VM::VMBase::LogMessage
FUNC 156240 33c 0 VM::VMBase::Free
FUNC 156580 808 0 VM::VMBase::Create
FUNC 156d90 3 0 tinyformat::detail::FormatArg::toIntImpl<VM::vmType_t>
FUNC 156da0 cf0 0 Log::Logger::Warn<int, char*>
FUNC 157a90 4f 0 Sys::Drop<char*>
FUNC 157ae0 ea 0 std::vector<char const*, std::allocator<char const*> >::_M_emplace_back_aux<char const*>
FUNC 157bd0 2d 0 std::vector<char const*, std::allocator<char const*> >::emplace_back<char const*>
FUNC 157c00 4f 0 Sys::Drop<std::__cxx11::basic_string<char, std::char_traits<char>, std::allocator<char> >&, std::__cxx11::basic_string<char, std::char_traits<char>, std::allocator<char> >&>
FUNC 157c50 fb 0 Log::Logger::Warn<std::__cxx11::basic_string<char, std::char_traits<char>, std::allocator<char> >&, std::__cxx11::basic_string<char, std::char_traits<char>, std::allocator<char> > >
FUNC 157d50 c1a 0 tinyformat::format<VM::vmType_t>
FUNC 158970 cc5 0 tinyformat::format<char const*, char const*, int, int, long unsigned int>
FUNC 159640 f8 0 Log::Logger::Notice<int>
FUNC 159740 3a4 0 tinyformat::detail::formatTruncated<VM::vmType_t>
FUNC 159af0 6d 0 tinyformat::detail::FormatArg::formatImpl<VM::vmType_t>
FUNC 159b60 93 0 Crypto::RandomData
FUNC 159c00 d2 0 Crypto::Hash::Sha256
FUNC 159ce0 c2 0 Crypto::Hash::Md5
FUNC 159db0 1a4 0 Crypto::Encoding::HexDecode
FUNC 159f60 116 0 Crypto::Encoding::HexEncode
FUNC 15a080 10b 0 Crypto::Encoding::Base64Encode
FUNC 15a190 151 0 Crypto::Encoding::Base64Decode
FUNC 15a2f0 77 0 Crypto::AddPadding
FUNC 15a370 11b 0 Crypto::Aes256Decrypt
FUNC 15a490 143 0 Crypto::Aes256Encrypt
FUNC 15a5e0 11a 0 std::vector<unsigned char, std::allocator<unsigned char> >::operator=
FUNC 15a700 d5 0 std::vector<unsigned char, std::allocator<unsigned char> >::emplace_back<unsigned char>
FUNC 15a7e0 54 0 std::vector<unsigned char, std::allocator<unsigned char> >::_M_erase
FUNC 15a840 265 0 std::vector<unsigned char, std::allocator<unsigned char> >::_M_fill_insert
FUNC 15aab0 14d 0 Rcon::Message::Message
FUNC 15ac00 a0 0 Rcon::Message::Message
FUNC 15aca0 12f 0 Rcon::Message::Valid
FUNC 15add0 69 0 std::__cxx11::basic_string<unsigned char, std::char_traits<unsigned char>, std::allocator<unsigned char> >::_M_create
FUNC 15ae40 c2 0 std::__cxx11::basic_string<char, std::char_traits<char>, std::allocator<char> >::_M_construct<char*>
FUNC 15af10 47 0 Net::GetPort
FUNC 15af60 42d 0 Net::AddressToString
FUNC 15b390 5d6 0 Net::OutOfBandData
FUNC 15b970 16f 0 std::__cxx11::basic_string<unsigned char, std::char_traits<unsigned char>, std::allocator<unsigned char> >::_M_mutate
FUNC 15bae0 286 0 std::__cxx11::basic_string<unsigned char, std::char_traits<unsigned char>, std::allocator<unsigned char> >::_M_replace
FUNC 15bd70 7a3 0 MD5Transform
FUNC 15c520 ab 0 MD5Final
FUNC 15c5d0 123 0 MD5Update
FUNC 15c700 c2 0 Com_MD5Buffer
FUNC 15c7d0 8c 0 Com_BlockChecksum
FUNC 15c860 c2 0 std::__cxx11::basic_string<char, std::char_traits<char>, std::allocator<char> >::_M_construct<char*>
FUNC 15c930 1f2 0 Color::To4bit
FUNC 15cb30 c2 0 std::__cxx11::basic_string<char, std::char_traits<char>, std::allocator<char> >::_M_construct<char*>
FUNC 15cc00 27d 0 CON_Init_TTY
FUNC 15ce80 5 0 CON_SigCont
FUNC 15ce90 862 0 CON_AnsiColorPrint
FUNC 15d700 d85 0 WriteToStdout
FUNC 15e490 53 0 CON_Shutdown_TTY
FUNC 15e4f0 6a 0 CON_Hide
FUNC 15e560 a9 0 CON_Show
FUNC 15e610 3e 0 CON_Print_TTY
FUNC 15e650 37b 0 CON_Input_TTY
FUNC 15e9d0 8 0 CON_Resize
FUNC 15e9e0 3e 0 CON_SetColor
FUNC 15ea20 c2 0 std::__cxx11::basic_string<char, std::char_traits<char>, std::allocator<char> >::_M_construct<char*>
FUNC 15eaf0 4ac 0 CON_ColorPrint
FUNC 15efa0 89 0 CON_UpdateClock
FUNC 15f030 3cf 0 CON_Redraw
FUNC 15f400 4d 0 CON_Shutdown
FUNC 15f450 188 0 CON_Init
FUNC 15f5e0 1a1 0 CON_Print
FUNC 15f790 14d5 0 CON_Input
FUNC 160c70 c2 0 std::__cxx11::basic_string<char, std::char_traits<char>, std::allocator<char> >::_M_construct<char*>
FUNC 160d40 1a 0 IPC::CommandBuffer::Reset
FUNC 160d60 19 0 IPC::CommandBuffer::GetMaxReadLength
FUNC 160d80 19 0 IPC::CommandBuffer::GetMaxWriteLength
FUNC 160da0 1f 0 IPC::CommandBuffer::CanRead
FUNC 160dc0 1f 0 IPC::CommandBuffer::CanWrite
FUNC 160de0 2a 0 IPC::CommandBuffer::AdvanceReadPointer
FUNC 160e10 2b 0 IPC::CommandBuffer::AdvanceWritePointer
FUNC 160e40 5 0 IPC::CommandBuffer::GetSize
FUNC 160e50 19 0 IPC::CommandBuffer::Normalize
FUNC 160e70 14 0 IPC::CommandBuffer::FromRead
FUNC 160e90 14 0 IPC::CommandBuffer::FromWrite
FUNC 160eb0 69 0 IPC::CommandBuffer::InternalRead
FUNC 160f20 17 0 IPC::CommandBuffer::Read
FUNC 160f40 6c 0 IPC::CommandBuffer::InternalWrite
FUNC 160fb0 15 0 IPC::CommandBuffer::Write
FUNC 160fd0 9e 0 IPC::CommandBuffer::Init
FUNC 161070 2c 0 IPC::CommandBuffer::LoadWriterData
FUNC 1610a0 2b 0 IPC::CommandBuffer::LoadReaderData
FUNC 1610d0 c1a 0 tinyformat::format<long unsigned int>
FUNC 161cf0 c4a 0 tinyformat::format<long unsigned int, long unsigned int>
FUNC 162940 4f 0 Sys::Drop<long unsigned int&, long unsigned int&>
FUNC 162990 127 0 mumble_link
FUNC 162ac0 de 0 mumble_update_coordinates2
FUNC 162ba0 e 0 mumble_update_coordinates
FUNC 162bb0 57 0 mumble_set_identity
FUNC 162c10 b3 0 mumble_set_context
FUNC 162cd0 4f 0 mumble_set_description
FUNC 162d20 2b 0 mumble_unlink
FUNC 162d50 e 0 mumble_islinked
FUNC 162d60 293 0 accumulate_locstring
FUNC 163000 24 0 accumulate_env
FUNC 163030 184 0 FL_FindLocale
FUNC 1631c0 57 0 FL_FreeLocale
FUNC 163220 c2 0 std::__cxx11::basic_string<char, std::char_traits<char>, std::allocator<char> >::_M_construct<char*>
FUNC 1632f0 23 0 tinygettext::Dictionary::get_charset
FUNC 163320 16 0 tinygettext::Dictionary::set_plural_forms
FUNC 163340 f 0 tinygettext::Dictionary::get_plural_forms
FUNC 163350 ad 0 tinygettext::Dictionary::Dictionary
FUNC 163400 30 0 tinygettext::Dictionary::~Dictionary
FUNC 163430 3e4 0 tinygettext::Dictionary::translate_plural
FUNC 163820 47 0 tinygettext::Dictionary::translate_plural
FUNC 163870 185 0 tinygettext::Dictionary::translate
FUNC 163a00 41 0 tinygettext::Dictionary::translate
FUNC 163a50 175 0 tinygettext::Dictionary::translate_ctxt
FUNC 163bd0 1b7 0 tinygettext::Dictionary::translate_ctxt_plural
FUNC 163d90 2cc 0 tinygettext::Dictionary::add_translation
FUNC 164060 33a 0 tinygettext::Dictionary::add_translation
FUNC 1643a0 439 0 tinygettext::Dictionary::add_translation
FUNC 1647e0 442 0 tinygettext::Dictionary::add_translation
FUNC 164c30 a2 0 std::_Rb_tree<std::__cxx11::basic_string<char, std::char_traits<char>, std::allocator<char> >, std::pair<const std::__cxx11::basic_string<char, std::char_traits<char>, std::allocator<char> >, std::vector<std::__cxx11::basic_string<char, std::char_traits<char>, std::allocator<char> >, std::allocator<std::__cxx11::basic_string<char, std::char_traits<char>, std::allocator<char> > > > >, std::_Select1st<std::pair<const std::__cxx11::basic_string<char, std::char_traits<char>, std::allocator<char> >, std::vector<std::__cxx11::basic_string<char, std::char_traits<char>, std::allocator<char> >, std::allocator<std::__cxx11::basic_string<char, std::char_traits<char>, std::allocator<char> > > > > >, std::less<std::__cxx11::basic_string<char, std::char_traits<char>, std::allocator<char> > >, std::allocator<std::pair<const std::__cxx11::basic_string<char, std::char_traits<char>, std::allocator<char> >, std::vector<std::__cxx11::basic_string<char, std::char_traits<char>, std::allocator<char> >, std::allocator<std::__cxx11::basic_string<char, std::char_traits<char>, std::allocator<char> > > > > > >::_M_erase
FUNC 164ce0 55 0 std::_Rb_tree<std::__cxx11::basic_string<char, std::char_traits<char>, std::allocator<char> >, std::pair<const std::__cxx11::basic_string<char, std::char_traits<char>, std::allocator<char> >, std::map<std::__cxx11::basic_string<char, std::char_traits<char>, std::allocator<char> >, std::vector<std::__cxx11::basic_string<char, std::char_traits<char>, std::allocator<char> >, std::allocator<std::__cxx11::basic_string<char, std::char_traits<char>, std::allocator<char> > > >, std::less<std::__cxx11::basic_string<char, std::char_traits<char>, std::allocator<char> > >, std::allocator<std::pair<const std::__cxx11::basic_string<char, std::char_traits<char>, std::allocator<char> >, std::vector<std::__cxx11::basic_string<char, std::char_traits<char>, std::allocator<char> >, std::allocator<std::__cxx11::basic_string<char, std::char_traits<char>, std::allocator<char> > > > > > > >, std::_Select1st<std::pair<const std::__cxx11::basic_string<char, std::char_traits<char>, std::allocator<char> >, std::map<std::__cxx11::basic_string<char, std::char_traits<char>, std::allocator<char> >, std::vector<std::__cxx11::basic_string<char, std::char_traits<char>, std::allocator<char> >, std::allocator<std::__cxx11::basic_string<char, std::char_traits<char>, std::allocator<char> > > >, std::less<std::__cxx11::basic_string<char, std::char_traits<char>, std::allocator<char> > >, std::allocator<std::pair<const std::__cxx11::basic_string<char, std::char_traits<char>, std::allocator<char> >, std::vector<std::__cxx11::basic_string<char, std::char_traits<char>, std::allocator<char> >, std::allocator<std::__cxx11::basic_string<char, std::char_traits<char>, std::allocator<char> > > > > > > > >, std::less<std::__cxx11::basic_string<char, std::char_traits<char>, std::allocator<char> > >, std::allocator<std::pair<const std::__cxx11::basic_string<char, std::char_traits<char>, std::allocator<char> >, std::map<std::__cxx11::basic_string<char, std::char_traits<char>, std::allocator<char> >, std::vector<std::__cxx11::basic_string<char, std::char_traits<char>, std::allocator<char> >, std::allocator<std::__cxx11::basic_string<char, std::char_traits<char>, std::allocator<char> > > >, std::less<std::__cxx11::basic_string<char, std::char_traits<char>, std::allocator<char> > >, std::allocator<std::pair<const std::__cxx11::basic_string<char, std::char_traits<char>, std::allocator<char> >, std::vector<std::__cxx11::basic_string<char, std::char_traits<char>, std::allocator<char> >, std::allocator<std::__cxx11::basic_string<char, std::char_traits<char>, std::allocator<char> > > > > > > > > >::_M_erase
FUNC 164d40 105 0 std::_Rb_tree<std::__cxx11::basic_string<char, std::char_traits<char>, std::allocator<char> >, std::pair<const std::__cxx11::basic_string<char, std::char_traits<char>, std::allocator<char> >, std::vector<std::__cxx11::basic_string<char, std::char_traits<char>, std::allocator<char> >, std::allocator<std::__cxx11::basic_string<char, std::char_traits<char>, std::allocator<char> > > > >, std::_Select1st<std::pair<const std::__cxx11::basic_string<char, std::char_traits<char>, std::allocator<char> >, std::vector<std::__cxx11::basic_string<char, std::char_traits<char>, std::allocator<char> >, std::allocator<std::__cxx11::basic_string<char, std::char_traits<char>, std::allocator<char> > > > > >, std::less<std::__cxx11::basic_string<char, std::char_traits<char>, std::allocator<char> > >, std::allocator<std::pair<const std::__cxx11::basic_string<char, std::char_traits<char>, std::allocator<char> >, std::vector<std::__cxx11::basic_string<char, std::char_traits<char>, std::allocator<char> >, std::allocator<std::__cxx11::basic_string<char, std::char_traits<char>, std::allocator<char> > > > > > >::find
FUNC 164e50 105 0 std::_Rb_tree<std::__cxx11::basic_string<char, std::char_traits<char>, std::allocator<char> >, std::pair<const std::__cxx11::basic_string<char, std::char_traits<char>, std::allocator<char> >, std::map<std::__cxx11::basic_string<char, std::char_traits<char>, std::allocator<char> >, std::vector<std::__cxx11::basic_string<char, std::char_traits<char>, std::allocator<char> >, std::allocator<std::__cxx11::basic_string<char, std::char_traits<char>, std::allocator<char> > > >, std::less<std::__cxx11::basic_string<char, std::char_traits<char>, std::allocator<char> > >, std::allocator<std::pair<const std::__cxx11::basic_string<char, std::char_traits<char>, std::allocator<char> >, std::vector<std::__cxx11::basic_string<char, std::char_traits<char>, std::allocator<char> >, std::allocator<std::__cxx11::basic_string<char, std::char_traits<char>, std::allocator<char> > > > > > > >, std::_Select1st<std::pair<const std::__cxx11::basic_string<char, std::char_traits<char>, std::allocator<char> >, std::map<std::__cxx11::basic_string<char, std::char_traits<char>, std::allocator<char> >, std::vector<std::__cxx11::basic_string<char, std::char_traits<char>, std::allocator<char> >, std::allocator<std::__cxx11::basic_string<char, std::char_traits<char>, std::allocator<char> > > >, std::less<std::__cxx11::basic_string<char, std::char_traits<char>, std::allocator<char> > >, std::allocator<std::pair<const std::__cxx11::basic_string<char, std::char_traits<char>, std::allocator<char> >, std::vector<std::__cxx11::basic_string<char, std::char_traits<char>, std::allocator<char> >, std::allocator<std::__cxx11::basic_string<char, std::char_traits<char>, std::allocator<char> > > > > > > > >, std::less<std::__cxx11::basic_string<char, std::char_traits<char>, std::allocator<char> > >, std::allocator<std::pair<const std::__cxx11::basic_string<char, std::char_traits<char>, std::allocator<char> >, std::map<std::__cxx11::basic_string<char, std::char_traits<char>, std::allocator<char> >, std::vector<std::__cxx11::basic_string<char, std::char_traits<char>, std::allocator<char> >, std::allocator<std::__cxx11::basic_string<char, std::char_traits<char>, std::allocator<char> > > >, std::less<std::__cxx11::basic_string<char, std::char_traits<char>, std::allocator<char> > >, std::allocator<std::pair<const std::__cxx11::basic_string<char, std::char_traits<char>, std::allocator<char> >, std::vector<std::__cxx11::basic_string<char, std::char_traits<char>, std::allocator<char> >, std::allocator<std::__cxx11::basic_string<char, std::char_traits<char>, std::allocator<char> > > > > > > > > >::find
FUNC 164f60 147 0 std::_Rb_tree<std::__cxx11::basic_string<char, std::char_traits<char>, std::allocator<char> >, std::pair<const std::__cxx11::basic_string<char, std::char_traits<char>, std::allocator<char> >, std::vector<std::__cxx11::basic_string<char, std::char_traits<char>, std::allocator<char> >, std::allocator<std::__cxx11::basic_string<char, std::char_traits<char>, std::allocator<char> > > > >, std::_Select1st<std::pair<const std::__cxx11::basic_string<char, std::char_traits<char>, std::allocator<char> >, std::vector<std::__cxx11::basic_string<char, std::char_traits<char>, std::allocator<char> >, std::allocator<std::__cxx11::basic_string<char, std::char_traits<char>, std::allocator<char> > > > > >, std::less<std::__cxx11::basic_string<char, std::char_traits<char>, std::allocator<char> > >, std::allocator<std::pair<const std::__cxx11::basic_string<char, std::char_traits<char>, std::allocator<char> >, std::vector<std::__cxx11::basic_string<char, std::char_traits<char>, std::allocator<char> >, std::allocator<std::__cxx11::basic_string<char, std::char_traits<char>, std::allocator<char> > > > > > >::_M_get_insert_unique_pos
FUNC 1650b0 2aa 0 std::_Rb_tree<std::__cxx11::basic_string<char, std::char_traits<char>, std::allocator<char> >, std::pair<const std::__cxx11::basic_string<char, std::char_traits<char>, std::allocator<char> >, std::vector<std::__cxx11::basic_string<char, std::char_traits<char>, std::allocator<char> >, std::allocator<std::__cxx11::basic_string<char, std::char_traits<char>, std::allocator<char> > > > >, std::_Select1st<std::pair<const std::__cxx11::basic_string<char, std::char_traits<char>, std::allocator<char> >, std::vector<std::__cxx11::basic_string<char, std::char_traits<char>, std::allocator<char> >, std::allocator<std::__cxx11::basic_string<char, std::char_traits<char>, std::allocator<char> > > > > >, std::less<std::__cxx11::basic_string<char, std::char_traits<char>, std::allocator<char> > >, std::allocator<std::pair<const std::__cxx11::basic_string<char, std::char_traits<char>, std::allocator<char> >, std::vector<std::__cxx11::basic_string<char, std::char_traits<char>, std::allocator<char> >, std::allocator<std::__cxx11::basic_string<char, std::char_traits<char>, std::allocator<char> > > > > > >::_M_get_insert_hint_unique_pos
FUNC 165360 1a9 0 std::_Rb_tree<std::__cxx11::basic_string<char, std::char_traits<char>, std::allocator<char> >, std::pair<const std::__cxx11::basic_string<char, std::char_traits<char>, std::allocator<char> >, std::vector<std::__cxx11::basic_string<char, std::char_traits<char>, std::allocator<char> >, std::allocator<std::__cxx11::basic_string<char, std::char_traits<char>, std::allocator<char> > > > >, std::_Select1st<std::pair<const std::__cxx11::basic_string<char, std::char_traits<char>, std::allocator<char> >, std::vector<std::__cxx11::basic_string<char, std::char_traits<char>, std::allocator<char> >, std::allocator<std::__cxx11::basic_string<char, std::char_traits<char>, std::allocator<char> > > > > >, std::less<std::__cxx11::basic_string<char, std::char_traits<char>, std::allocator<char> > >, std::allocator<std::pair<const std::__cxx11::basic_string<char, std::char_traits<char>, std::allocator<char> >, std::vector<std::__cxx11::basic_string<char, std::char_traits<char>, std::allocator<char> >, std::allocator<std::__cxx11::basic_string<char, std::char_traits<char>, std::allocator<char> > > > > > >::_M_emplace_hint_unique<const std::piecewise_construct_t&, std::tuple<const std::__cxx11::basic_string<char, std::char_traits<char>, std::allocator<char> >&>, std::tuple<> >
FUNC 165510 147 0 std::_Rb_tree<std::__cxx11::basic_string<char, std::char_traits<char>, std::allocator<char> >, std::pair<const std::__cxx11::basic_string<char, std::char_traits<char>, std::allocator<char> >, std::map<std::__cxx11::basic_string<char, std::char_traits<char>, std::allocator<char> >, std::vector<std::__cxx11::basic_string<char, std::char_traits<char>, std::allocator<char> >, std::allocator<std::__cxx11::basic_string<char, std::char_traits<char>, std::allocator<char> > > >, std::less<std::__cxx11::basic_string<char, std::char_traits<char>, std::allocator<char> > >, std::allocator<std::pair<const std::__cxx11::basic_string<char, std::char_traits<char>, std::allocator<char> >, std::vector<std::__cxx11::basic_string<char, std::char_traits<char>, std::allocator<char> >, std::allocator<std::__cxx11::basic_string<char, std::char_traits<char>, std::allocator<char> > > > > > > >, std::_Select1st<std::pair<const std::__cxx11::basic_string<char, std::char_traits<char>, std::allocator<char> >, std::map<std::__cxx11::basic_string<char, std::char_traits<char>, std::allocator<char> >, std::vector<std::__cxx11::basic_string<char, std::char_traits<char>, std::allocator<char> >, std::allocator<std::__cxx11::basic_string<char, std::char_traits<char>, std::allocator<char> > > >, std::less<std::__cxx11::basic_string<char, std::char_traits<char>, std::allocator<char> > >, std::allocator<std::pair<const std::__cxx11::basic_string<char, std::char_traits<char>, std::allocator<char> >, std::vector<std::__cxx11::basic_string<char, std::char_traits<char>, std::allocator<char> >, std::allocator<std::__cxx11::basic_string<char, std::char_traits<char>, std::allocator<char> > > > > > > > >, std::less<std::__cxx11::basic_string<char, std::char_traits<char>, std::allocator<char> > >, std::allocator<std::pair<const std::__cxx11::basic_string<char, std::char_traits<char>, std::allocator<char> >, std::map<std::__cxx11::basic_string<char, std::char_traits<char>, std::allocator<char> >, std::vector<std::__cxx11::basic_string<char, std::char_traits<char>, std::allocator<char> >, std::allocator<std::__cxx11::basic_string<char, std::char_traits<char>, std::allocator<char> > > >, std::less<std::__cxx11::basic_string<char, std::char_traits<char>, std::allocator<char> > >, std::allocator<std::pair<const std::__cxx11::basic_string<char, std::char_traits<char>, std::allocator<char> >, std::vector<std::__cxx11::basic_string<char, std::char_traits<char>, std::allocator<char> >, std::allocator<std::__cxx11::basic_string<char, std::char_traits<char>, std::allocator<char> > > > > > > > > >::_M_get_insert_unique_pos
FUNC 165660 2aa 0 std::_Rb_tree<std::__cxx11::basic_string<char, std::char_traits<char>, std::allocator<char> >, std::pair<const std::__cxx11::basic_string<char, std::char_traits<char>, std::allocator<char> >, std::map<std::__cxx11::basic_string<char, std::char_traits<char>, std::allocator<char> >, std::vector<std::__cxx11::basic_string<char, std::char_traits<char>, std::allocator<char> >, std::allocator<std::__cxx11::basic_string<char, std::char_traits<char>, std::allocator<char> > > >, std::less<std::__cxx11::basic_string<char, std::char_traits<char>, std::allocator<char> > >, std::allocator<std::pair<const std::__cxx11::basic_string<char, std::char_traits<char>, std::allocator<char> >, std::vector<std::__cxx11::basic_string<char, std::char_traits<char>, std::allocator<char> >, std::allocator<std::__cxx11::basic_string<char, std::char_traits<char>, std::allocator<char> > > > > > > >, std::_Select1st<std::pair<const std::__cxx11::basic_string<char, std::char_traits<char>, std::allocator<char> >, std::map<std::__cxx11::basic_string<char, std::char_traits<char>, std::allocator<char> >, std::vector<std::__cxx11::basic_string<char, std::char_traits<char>, std::allocator<char> >, std::allocator<std::__cxx11::basic_string<char, std::char_traits<char>, std::allocator<char> > > >, std::less<std::__cxx11::basic_string<char, std::char_traits<char>, std::allocator<char> > >, std::allocator<std::pair<const std::__cxx11::basic_string<char, std::char_traits<char>, std::allocator<char> >, std::vector<std::__cxx11::basic_string<char, std::char_traits<char>, std::allocator<char> >, std::allocator<std::__cxx11::basic_string<char, std::char_traits<char>, std::allocator<char> > > > > > > > >, std::less<std::__cxx11::basic_string<char, std::char_traits<char>, std::allocator<char> > >, std::allocator<std::pair<const std::__cxx11::basic_string<char, std::char_traits<char>, std::allocator<char> >, std::map<std::__cxx11::basic_string<char, std::char_traits<char>, std::allocator<char> >, std::vector<std::__cxx11::basic_string<char, std::char_traits<char>, std::allocator<char> >, std::allocator<std::__cxx11::basic_string<char, std::char_traits<char>, std::allocator<char> > > >, std::less<std::__cxx11::basic_string<char, std::char_traits<char>, std::allocator<char> > >, std::allocator<std::pair<const std::__cxx11::basic_string<char, std::char_traits<char>, std::allocator<char> >, std::vector<std::__cxx11::basic_string<char, std::char_traits<char>, std::allocator<char> >, std::allocator<std::__cxx11::basic_string<char, std::char_traits<char>, std::allocator<char> > > > > > > > > >::_M_get_insert_hint_unique_pos
FUNC 165910 189 0 std::_Rb_tree<std::__cxx11::basic_string<char, std::char_traits<char>, std::allocator<char> >, std::pair<const std::__cxx11::basic_string<char, std::char_traits<char>, std::allocator<char> >, std::map<std::__cxx11::basic_string<char, std::char_traits<char>, std::allocator<char> >, std::vector<std::__cxx11::basic_string<char, std::char_traits<char>, std::allocator<char> >, std::allocator<std::__cxx11::basic_string<char, std::char_traits<char>, std::allocator<char> > > >, std::less<std::__cxx11::basic_string<char, std::char_traits<char>, std::allocator<char> > >, std::allocator<std::pair<const std::__cxx11::basic_string<char, std::char_traits<char>, std::allocator<char> >, std::vector<std::__cxx11::basic_string<char, std::char_traits<char>, std::allocator<char> >, std::allocator<std::__cxx11::basic_string<char, std::char_traits<char>, std::allocator<char> > > > > > > >, std::_Select1st<std::pair<const std::__cxx11::basic_string<char, std::char_traits<char>, std::allocator<char> >, std::map<std::__cxx11::basic_string<char, std::char_traits<char>, std::allocator<char> >, std::vector<std::__cxx11::basic_string<char, std::char_traits<char>, std::allocator<char> >, std::allocator<std::__cxx11::basic_string<char, std::char_traits<char>, std::allocator<char> > > >, std::less<std::__cxx11::basic_string<char, std::char_traits<char>, std::allocator<char> > >, std::allocator<std::pair<const std::__cxx11::basic_string<char, std::char_traits<char>, std::allocator<char> >, std::vector<std::__cxx11::basic_string<char, std::char_traits<char>, std::allocator<char> >, std::allocator<std::__cxx11::basic_string<char, std::char_traits<char>, std::allocator<char> > > > > > > > >, std::less<std::__cxx11::basic_string<char, std::char_traits<char>, std::allocator<char> > >, std::allocator<std::pair<const std::__cxx11::basic_string<char, std::char_traits<char>, std::allocator<char> >, std::map<std::__cxx11::basic_string<char, std::char_traits<char>, std::allocator<char> >, std::vector<std::__cxx11::basic_string<char, std::char_traits<char>, std::allocator<char> >, std::allocator<std::__cxx11::basic_string<char, std::char_traits<char>, std::allocator<char> > > >, std::less<std::__cxx11::basic_string<char, std::char_traits<char>, std::allocator<char> > >, std::allocator<std::pair<const std::__cxx11::basic_string<char, std::char_traits<char>, std::allocator<char> >, std::vector<std::__cxx11::basic_string<char, std::char_traits<char>, std::allocator<char> >, std::allocator<std::__cxx11::basic_string<char, std::char_traits<char>, std::allocator<char> > > > > > > > > >::_M_emplace_hint_unique<const std::piecewise_construct_t&, std::tuple<const std::__cxx11::basic_string<char, std::char_traits<char>, std::allocator<char> >&>, std::tuple<> >
FUNC 165aa0 c2 0 std::__cxx11::basic_string<char, std::char_traits<char>, std::allocator<char> >::_M_construct<char const*>
FUNC 165b70 30 0 tinygettext::DictionaryManager::set_language
FUNC 165ba0 5 0 tinygettext::DictionaryManager::get_language
FUNC 165bb0 5 0 tinygettext::DictionaryManager::get_use_fuzzy
FUNC 165bc0 32 0 tinygettext::DictionaryManager::set_filesystem
FUNC 165c00 d3 0 tinygettext::DictionaryManager::~DictionaryManager
FUNC 165ce0 80 0 tinygettext::DictionaryManager::clear_cache
FUNC 165d60 23 0 tinygettext::DictionaryManager::set_charset
FUNC 165d90 1b 0 tinygettext::DictionaryManager::set_use_fuzzy
FUNC 165db0 146 0 tinygettext::DictionaryManager::DictionaryManager
FUNC 165f00 336 0 tinygettext::DictionaryManager::get_languages
FUNC 166240 62 0 tinygettext::DictionaryManager::add_directory
FUNC 1662b0 948 0 tinygettext::DictionaryManager::get_dictionary
FUNC 166c00 31 0 tinygettext::DictionaryManager::get_dictionary
FUNC 166c40 36 0 std::_Rb_tree<tinygettext::Language, std::pair<const tinygettext::Language, tinygettext::Dictionary*>, std::_Select1st<std::pair<const tinygettext::Language, tinygettext::Dictionary*> >, std::less<tinygettext::Language>, std::allocator<std::pair<const tinygettext::Language, tinygettext::Dictionary*> > >::_M_erase
FUNC 166c80 80 0 std::_Rb_tree<tinygettext::Language, std::pair<const tinygettext::Language, tinygettext::Dictionary*>, std::_Select1st<std::pair<const tinygettext::Language, tinygettext::Dictionary*> >, std::less<tinygettext::Language>, std::allocator<std::pair<const tinygettext::Language, tinygettext::Dictionary*> > >::_M_get_insert_unique_pos
FUNC 166d00 100 0 std::_Rb_tree<tinygettext::Language, std::pair<const tinygettext::Language, tinygettext::Dictionary*>, std::_Select1st<std::pair<const tinygettext::Language, tinygettext::Dictionary*> >, std::less<tinygettext::Language>, std::allocator<std::pair<const tinygettext::Language, tinygettext::Dictionary*> > >::_M_get_insert_hint_unique_pos
FUNC 166e00 c2 0 std::__cxx11::basic_string<char, std::char_traits<char>, std::allocator<char> >::_M_construct<char*>
FUNC 166ed0 4 0 tinygettext::Language::Language
FUNC 166ee0 8 0 tinygettext::Language::Language
FUNC 166ef0 70 0 tinygettext::Language::get_language
FUNC 166f60 6b 0 tinygettext::Language::get_country
FUNC 166fd0 6b 0 tinygettext::Language::get_modifier
FUNC 167040 431 0 tinygettext::Language::match
FUNC 167480 70 0 tinygettext::Language::get_name
FUNC 1674f0 212 0 tinygettext::Language::str
FUNC 167710 a 0 tinygettext::Language::operator==
FUNC 167720 a 0 tinygettext::Language::operator!=
FUNC 167730 23db 0 tinygettext::resolve_language_alias
FUNC 169b10 5f7 0 tinygettext::Language::from_spec
FUNC 16a110 3f8 0 tinygettext::Language::from_env
FUNC 16a510 7d 0 tinygettext::Language::from_name
FUNC 16a590 9 0 std::map<std::__cxx11::basic_string<char, std::char_traits<char>, std::allocator<char> >, std::__cxx11::basic_string<char, std::char_traits<char>, std::allocator<char> >, std::less<std::__cxx11::basic_string<char, std::char_traits<char>, std::allocator<char> > >, std::allocator<std::pair<const std::__cxx11::basic_string<char, std::char_traits<char>, std::allocator<char> >, std::__cxx11::basic_string<char, std::char_traits<char>, std::allocator<char> > > > >::~map
FUNC 16a5a0 56 0 std::_Rb_tree<std::__cxx11::basic_string<char, std::char_traits<char>, std::allocator<char> >, std::pair<const std::__cxx11::basic_string<char, std::char_traits<char>, std::allocator<char> >, std::vector<tinygettext::LanguageSpec*, std::allocator<tinygettext::LanguageSpec*> > >, std::_Select1st<std::pair<const std::__cxx11::basic_string<char, std::char_traits<char>, std::allocator<char> >, std::vector<tinygettext::LanguageSpec*, std::allocator<tinygettext::LanguageSpec*> > > >, std::less<std::__cxx11::basic_string<char, std::char_traits<char>, std::allocator<char> > >, std::allocator<std::pair<const std::__cxx11::basic_string<char, std::char_traits<char>, std::allocator<char> >, std::vector<tinygettext::LanguageSpec*, std::allocator<tinygettext::LanguageSpec*> > > > >::_M_erase
FUNC 16a600 9 0 std::map<std::__cxx11::basic_string<char, std::char_traits<char>, std::allocator<char> >, std::vector<tinygettext::LanguageSpec*, std::allocator<tinygettext::LanguageSpec*> >, std::less<std::__cxx11::basic_string<char, std::char_traits<char>, std::allocator<char> > >, std::allocator<std::pair<const std::__cxx11::basic_string<char, std::char_traits<char>, std::allocator<char> >, std::vector<tinygettext::LanguageSpec*, std::allocator<tinygettext::LanguageSpec*> > > > >::~map
FUNC 16a610 ea 0 std::vector<tinygettext::LanguageSpec*, std::allocator<tinygettext::LanguageSpec*> >::_M_emplace_back_aux<tinygettext::LanguageSpec*>
FUNC 16a700 147 0 std::_Rb_tree<std::__cxx11::basic_string<char, std::char_traits<char>, std::allocator<char> >, std::pair<const std::__cxx11::basic_string<char, std::char_traits<char>, std::allocator<char> >, std::vector<tinygettext::LanguageSpec*, std::allocator<tinygettext::LanguageSpec*> > >, std::_Select1st<std::pair<const std::__cxx11::basic_string<char, std::char_traits<char>, std::allocator<char> >, std::vector<tinygettext::LanguageSpec*, std::allocator<tinygettext::LanguageSpec*> > > >, std::less<std::__cxx11::basic_string<char, std::char_traits<char>, std::allocator<char> > >, std::allocator<std::pair<const std::__cxx11::basic_string<char, std::char_traits<char>, std::allocator<char> >, std::vector<tinygettext::LanguageSpec*, std::allocator<tinygettext::LanguageSpec*> > > > >::_M_get_insert_unique_pos
FUNC 16a850 2aa 0 std::_Rb_tree<std::__cxx11::basic_string<char, std::char_traits<char>, std::allocator<char> >, std::pair<const std::__cxx11::basic_string<char, std::char_traits<char>, std::allocator<char> >, std::vector<tinygettext::LanguageSpec*, std::allocator<tinygettext::LanguageSpec*> > >, std::_Select1st<std::pair<const std::__cxx11::basic_string<char, std::char_traits<char>, std::allocator<char> >, std::vector<tinygettext::LanguageSpec*, std::allocator<tinygettext::LanguageSpec*> > > >, std::less<std::__cxx11::basic_string<char, std::char_traits<char>, std::allocator<char> > >, std::allocator<std::pair<const std::__cxx11::basic_string<char, std::char_traits<char>, std::allocator<char> >, std::vector<tinygettext::LanguageSpec*, std::allocator<tinygettext::LanguageSpec*> > > > >::_M_get_insert_hint_unique_pos
FUNC 16ab00 3a 0 tinygettext::Log::default_log_callback
FUNC 16ab40 c2 0 std::__cxx11::basic_string<char, std::char_traits<char>, std::allocator<char> >::_M_construct<char*>
FUNC 16ac10 8 0 tinygettext::Log::set_log_info_callback
FUNC 16ac20 8 0 tinygettext::Log::set_log_warning_callback
FUNC 16ac30 8 0 tinygettext::Log::set_log_error_callback
FUNC 16ac40 1c4 0 tinygettext::Log::Log
FUNC 16ae10 1b5 0 tinygettext::Log::~Log
FUNC 16afd0 5 0 tinygettext::Log::get
FUNC 16afe0 c2 0 std::__cxx11::basic_string<char, std::char_traits<char>, std::allocator<char> >::_M_construct<char const*>
FUNC 16b0b0 98 0 tinygettext::POParser::POParser
FUNC 16b150 3a 0 tinygettext::POParser::~POParser
FUNC 16b190 174 0 tinygettext::POParser::warning
FUNC 16b310 92 0 tinygettext::POParser::next_line
FUNC 16b3b0 6b1 0 tinygettext::POParser::parse_header
FUNC 16ba70 76 0 tinygettext::POParser::is_empty_line
FUNC 16baf0 130 0 tinygettext::POParser::error
FUNC 16bc20 31 0 tinygettext::POParser::prefix
FUNC 16bc60 898 0 tinygettext::POParser::get_string_line
FUNC 16c500 6a9 0 tinygettext::POParser::get_string
FUNC 16cbb0 a18 0 tinygettext::POParser::parse
FUNC 16d5d0 7b 0 tinygettext::POParser::parse
FUNC 16d650 c2 0 std::__cxx11::basic_string<char, std::char_traits<char>, std::allocator<char> >::_M_construct<char*>
FUNC 16d720 30 0 tinygettext::IConv::IConv
FUNC 16d750 42 0 tinygettext::IConv::~IConv
FUNC 16d7a0 27f 0 tinygettext::IConv::convert
FUNC 16da20 7a7 0 tinygettext::IConv::set_charsets
FUNC 16e1d0 72 0 tinygettext::IConv::IConv
FUNC 16e250 3 0 tinygettext::plural1
FUNC 16e260 9 0 tinygettext::plural2_1
FUNC 16e270 9 0 tinygettext::plural2_2
FUNC 16e280 2b 0 tinygettext::plural2_mk
FUNC 16e2b0 50 0 tinygettext::plural3_lv
FUNC 16e300 1b 0 tinygettext::plural3_ga
FUNC 16e320 6e 0 tinygettext::plural3_lt
FUNC 16e390 76 0 tinygettext::plural3_1
FUNC 16e410 1b 0 tinygettext::plural3_sk
FUNC 16e430 5b 0 tinygettext::plural3_pl
FUNC 16e490 3e 0 tinygettext::plural3_sl
FUNC 16e4d0 2e 0 tinygettext::plural4_ar
FUNC 16e500 1e8f 0 tinygettext::PluralForms::from_string
FUNC 170390 48 0 std::_Rb_tree<std::__cxx11::basic_string<char, std::char_traits<char>, std::allocator<char> >, std::pair<const std::__cxx11::basic_string<char, std::char_traits<char>, std::allocator<char> >, tinygettext::PluralForms>, std::_Select1st<std::pair<const std::__cxx11::basic_string<char, std::char_traits<char>, std::allocator<char> >, tinygettext::PluralForms> >, std::less<std::__cxx11::basic_string<char, std::char_traits<char>, std::allocator<char> > >, std::allocator<std::pair<const std::__cxx11::basic_string<char, std::char_traits<char>, std::allocator<char> >, tinygettext::PluralForms> > >::_M_erase
FUNC 1703e0 9 0 std::map<std::__cxx11::basic_string<char, std::char_traits<char>, std::allocator<char> >, tinygettext::PluralForms, std::less<std::__cxx11::basic_string<char, std::char_traits<char>, std::allocator<char> > >, std::allocator<std::pair<const std::__cxx11::basic_string<char, std::char_traits<char>, std::allocator<char> >, tinygettext::PluralForms> > >::~map
FUNC 1703f0 147 0 std::_Rb_tree<std::__cxx11::basic_string<char, std::char_traits<char>, std::allocator<char> >, std::pair<const std::__cxx11::basic_string<char, std::char_traits<char>, std::allocator<char> >, tinygettext::PluralForms>, std::_Select1st<std::pair<const std::__cxx11::basic_string<char, std::char_traits<char>, std::allocator<char> >, tinygettext::PluralForms> >, std::less<std::__cxx11::basic_string<char, std::char_traits<char>, std::allocator<char> > >, std::allocator<std::pair<const std::__cxx11::basic_string<char, std::char_traits<char>, std::allocator<char> >, tinygettext::PluralForms> > >::_M_get_insert_unique_pos
FUNC 170540 2aa 0 std::_Rb_tree<std::__cxx11::basic_string<char, std::char_traits<char>, std::allocator<char> >, std::pair<const std::__cxx11::basic_string<char, std::char_traits<char>, std::allocator<char> >, tinygettext::PluralForms>, std::_Select1st<std::pair<const std::__cxx11::basic_string<char, std::char_traits<char>, std::allocator<char> >, tinygettext::PluralForms> >, std::less<std::__cxx11::basic_string<char, std::char_traits<char>, std::allocator<char> > >, std::allocator<std::pair<const std::__cxx11::basic_string<char, std::char_traits<char>, std::allocator<char> >, tinygettext::PluralForms> > >::_M_get_insert_hint_unique_pos
FUNC 1707f0 175 0 std::_Rb_tree<std::__cxx11::basic_string<char, std::char_traits<char>, std::allocator<char> >, std::pair<const std::__cxx11::basic_string<char, std::char_traits<char>, std::allocator<char> >, tinygettext::PluralForms>, std::_Select1st<std::pair<const std::__cxx11::basic_string<char, std::char_traits<char>, std::allocator<char> >, tinygettext::PluralForms> >, std::less<std::__cxx11::basic_string<char, std::char_traits<char>, std::allocator<char> > >, std::allocator<std::pair<const std::__cxx11::basic_string<char, std::char_traits<char>, std::allocator<char> >, tinygettext::PluralForms> > >::_M_emplace_hint_unique<const std::piecewise_construct_t&, std::tuple<std::__cxx11::basic_string<char, std::char_traits<char>, std::allocator<char> >&&>, std::tuple<> >
FUNC 170970 49e 0 fastlz1_compress
FUNC 170e10 598 0 fastlz2_compress
FUNC 1713b0 15 0 fastlz_compress
FUNC 1713d0 44f 0 fastlz_decompress
FUNC 171820 33 0 fastlz_compress_level
FUNC 171860 5 0 duDisplayList::depthMask
FUNC 171870 10 0 duDisplayList::begin
FUNC 171880 1c 0 duDisplayList::vertex
FUNC 1718a0 2 0 duDisplayList::end
FUNC 1718b0 2 0 duDebugDraw::~duDebugDraw
FUNC 1718c0 5 0 duDebugDraw::~duDebugDraw
FUNC 1718d0 5b 0 duIntToCol
FUNC 171930 17 0 duDebugDraw::areaToCol
FUNC 171950 8b 0 duIntToCol
FUNC 1719e0 fa 0 duCalcBoxColors
FUNC 171ae0 1b9 0 duDebugDrawGridXZ
FUNC 171ca0 2e7 0 duAppendCylinderWire
FUNC 171f90 cb 0 duDebugDrawCylinderWire
FUNC 172060 2ea 0 duAppendBoxWire
FUNC 172350 cb 0 duDebugDrawBoxWire
FUNC 172420 202 0 duAppendBoxPoints
FUNC 172630 176 0 duAppendBox
FUNC 1727b0 d3 0 duDebugDrawBox
FUNC 172890 48f 0 duAppendCylinder
FUNC 172d20 d3 0 duDebugDrawCylinder
FUNC 172e00 1f0 0 appendArrowHead
FUNC 172ff0 130 0 duAppendArrow
FUNC 173120 eb 0 duDebugDrawArrow
FUNC 173210 389 0 duAppendArc
FUNC 1735a0 11b 0 duDebugDrawArc
FUNC 1736c0 12 0 duAppendArrow
FUNC 1736e0 176 0 duAppendCircle
FUNC 173860 b3 0 duDebugDrawCircle
FUNC 173920 f2 0 duAppendCross
FUNC 173a20 b3 0 duDebugDrawCross
FUNC 173ae0 32 0 duDisplayList::~duDisplayList
FUNC 173b20 12 0 duDisplayList::~duDisplayList
FUNC 173b40 ce 0 duDisplayList::resize
FUNC 173c10 53 0 duDisplayList::duDisplayList
FUNC 173c70 78 0 duDisplayList::vertex
FUNC 173cf0 8 0 duDisplayList::clear
FUNC 173d00 db 0 duDisplayList::draw
FUNC 173de0 5 0 dtFreeDefault
FUNC 173df0 5 0 dtAllocDefault
FUNC 173e00 2b 0 dtAllocSetCustom
FUNC 173e30 6 0 dtAlloc
FUNC 173e40 12 0 dtFree
FUNC 173e60 87 0 distancePtLine2d
FUNC 173ef0 2a2 0 debugDrawTileCachePortals
FUNC 1741a0 357 0 drawPolyBoundaries
FUNC 174500 612 0 drawMeshTile
FUNC 174b20 5f 0 duDebugDrawNavMesh
FUNC 174b80 6e 0 duDebugDrawNavMeshWithClosedList
FUNC 174bf0 1cb 0 duDebugDrawNavMeshNodes
FUNC 174dc0 187 0 duDebugDrawNavMeshBVTree
FUNC 174f50 4d4 0 duDebugDrawNavMeshPortals
FUNC 175430 211 0 duDebugDrawNavMeshPoly
FUNC 175650 e5 0 duDebugDrawNavMeshPolysWithFlags
FUNC 175740 3fe 0 duDebugDrawTileCacheLayerAreas
FUNC 175b40 391 0 duDebugDrawTileCacheLayerRegions
FUNC 175ee0 4b4 0 duDebugDrawTileCacheContours
FUNC 1763a0 895 0 duDebugDrawTileCachePolyMesh
FUNC 176c40 c1 0 calcSlabEndPoints
FUNC 176d10 11d 0 dtNavMesh::unconnectLinks
FUNC 176e30 7e 0 dtNavMesh::dtNavMesh
FUNC 176eb0 22 0 dtAllocNavMesh
FUNC 176ee0 85 0 dtNavMesh::~dtNavMesh
FUNC 176f70 22 0 dtFreeNavMesh
FUNC 176fa0 2ac 0 dtNavMesh::init
FUNC 177250 4 0 dtNavMesh::getParams
FUNC 177260 39f 0 dtNavMesh::findConnectingPolys
FUNC 177600 12 0 dtNavMesh::unconnectLinks
FUNC 177620 340 0 dtNavMesh::connectExtLinks
FUNC 177960 e1 0 dtNavMesh::connectIntLinks
FUNC 177a50 3da 0 dtNavMesh::getPolyHeight
FUNC 177e30 3c3 0 dtNavMesh::closestPointOnPoly
FUNC 178200 3a6 0 dtNavMesh::queryPolygonsInTile
FUNC 1785b0 206 0 dtNavMesh::findNearestPolyInTile
FUNC 1787c0 294 0 dtNavMesh::connectExtOffMeshLinks
FUNC 178a60 216 0 dtNavMesh::baseOffMeshLinks
FUNC 178c80 55 0 dtNavMesh::getTileAt
FUNC 178ce0 6a 0 dtNavMesh::getTilesAt
FUNC 178d50 7e 0 dtNavMesh::getNeighbourTilesAt
FUNC 178dd0 45a 0 dtNavMesh::addTile
FUNC 179230 dc 0 dtNavMesh::init
FUNC 179320 73 0 dtNavMesh::getTileRefAt
FUNC 1793a0 63 0 dtNavMesh::getTileByRef
FUNC 179410 4 0 dtNavMesh::getMaxTiles
FUNC 179440 14 0 dtNavMesh::getTile
FUNC 179460 4e 0 dtNavMesh::calcTileLoc
FUNC 1794b0 b5 0 dtNavMesh::getTileAndPolyByRef
FUNC 179570 59 0 dtNavMesh::getTileAndPolyByRefUnsafe
FUNC 1795d0 7d 0 dtNavMesh::isValidPolyRef
FUNC 179650 2e2 0 dtNavMesh::removeTile
FUNC 179940 33 0 dtNavMesh::getPolyRefBase
FUNC 179990 1b 0 dtNavMesh::getTileStateSize
FUNC 1799b0 d4 0 dtNavMesh::storeTileState
FUNC 179a90 f4 0 dtNavMesh::restoreTileState
FUNC 179b90 162 0 dtNavMesh::getOffMeshConnectionPolyEndPoints
FUNC 179d00 a4 0 dtNavMesh::getOffMeshConnectionByRef
FUNC 179db0 9d 0 dtNavMesh::setPolyFlags
FUNC 179e50 a0 0 dtNavMesh::getPolyFlags
FUNC 179ef0 a8 0 dtNavMesh::setPolyArea
FUNC 179fa0 a2 0 dtNavMesh::getPolyArea
FUNC 17a050 c9 0 insertInterval
FUNC 17a120 8d7 0 dtNavMeshQuery::raycast
FUNC 17aa00 31 0 dtQueryFilter::dtQueryFilter
FUNC 17aa40 64 0 dtAllocNavMeshQuery
FUNC 17aab0 48 0 dtNavMeshQuery::dtNavMeshQuery
FUNC 17ab00 4a 0 dtNavMeshQuery::~dtNavMeshQuery
FUNC 17ab50 22 0 dtFreeNavMeshQuery
FUNC 17ab80 18f 0 dtNavMeshQuery::init
FUNC 17ad10 66 0 dtNavMeshQuery::closestPointOnPoly
FUNC 17ad80 253 0 dtNavMeshQuery::closestPointOnPolyBoundary
FUNC 17afe0 10d 0 dtNavMeshQuery::getPolyHeight
FUNC 17b0f0 39f 0 dtNavMeshQuery::findRandomPoint
FUNC 17b490 527 0 dtNavMeshQuery::queryPolygonsInTile
FUNC 17b9c0 193 0 dtNavMeshQuery::queryPolygons
FUNC 17bb60 26 0 dtNavMeshQuery::queryPolygons
FUNC 17bb90 cc 0 dtNavMeshQuery::findNearestPoly
FUNC 17bc60 a7 0 dtNavMeshQuery::queryPolygons
FUNC 17bd10 f5 0 dtNavMeshQuery::getPathToNode
FUNC 17be10 249 0 dtNavMeshQuery::initSlicedFindPath
FUNC 17c060 1a2 0 dtNavMeshQuery::appendVertex
FUNC 17c210 81e 0 dtNavMeshQuery::moveAlongSurface
FUNC 17ca30 351 0 dtNavMeshQuery::getPortalPoints
FUNC 17cd90 10b 0 dtNavMeshQuery::getPortalPoints
FUNC 17cea0 8b7 0 dtNavMeshQuery::findRandomPointAroundCircle
FUNC 17d760 2ec 0 dtNavMeshQuery::appendPortals
FUNC 17da50 b84 0 dtNavMeshQuery::findStraightPath
FUNC 17e5e0 a9 0 dtNavMeshQuery::getEdgeMidPoint
FUNC 17e690 a3 0 dtNavMeshQuery::getEdgeMidPoint
FUNC 17e740 7cb 0 dtNavMeshQuery::findPath
FUNC 17ef10 7b1 0 dtNavMeshQuery::updateSlicedFindPath
FUNC 17f6d0 a4 0 dtNavMeshQuery::raycast
FUNC 17f780 334 0 dtNavMeshQuery::finalizeSlicedFindPath
FUNC 17fac0 3be 0 dtNavMeshQuery::finalizeSlicedFindPathPartial
FUNC 17fe80 16 0 dtNavMeshQuery::raycast
FUNC 17fea0 685 0 dtNavMeshQuery::findPolysAroundCircle
FUNC 180530 710 0 dtNavMeshQuery::findPolysAroundShape
FUNC 180c40 ba 0 dtNavMeshQuery::getPathFromDijkstraSearch
FUNC 180d00 6aa 0 dtNavMeshQuery::findLocalNeighbourhood
FUNC 1813b0 6ca 0 dtNavMeshQuery::getPolyWallSegments
FUNC 181a80 8d6 0 dtNavMeshQuery::findDistanceToWall
FUNC 182360 89 0 dtNavMeshQuery::isValidPolyRef
FUNC 1823f0 84 0 dtNavMeshQuery::isInClosedList
FUNC 182480 2 0 dtCollectPolysQuery::~dtCollectPolysQuery
FUNC 182490 2 0 dtFindNearestPolyQuery::~dtFindNearestPolyQuery
FUNC 1824a0 5 0 dtFindNearestPolyQuery::~dtFindNearestPolyQuery
FUNC 1824b0 5 0 dtCollectPolysQuery::~dtCollectPolysQuery
FUNC 1824c0 41 0 dtCollectPolysQuery::process
FUNC 182510 144 0 dtFindNearestPolyQuery::process
FUNC 182660 a0 0 dtNodePool::dtNodePool
FUNC 182700 1f 0 dtNodePool::~dtNodePool
FUNC 182720 22 0 dtNodePool::clear
FUNC 182750 b2 0 dtNodePool::findNodes
FUNC 182810 93 0 dtNodePool::findNode
FUNC 1828b0 104 0 dtNodePool::getNode
FUNC 1829c0 2b 0 dtNodeQueue::dtNodeQueue
FUNC 1829f0 8 0 dtNodeQueue::~dtNodeQueue
FUNC 182a00 6d 0 dtNodeQueue::bubbleUp
FUNC 182a70 63 0 dtNodeQueue::trickleDown
FUNC 182ae0 117 0 dtMergeCorridorStartMoved
FUNC 182c00 ed 0 dtMergeCorridorEndMoved
FUNC 182cf0 10b 0 dtMergeCorridorStartShortcut
FUNC 182e00 17 0 dtPathCorridor::dtPathCorridor
FUNC 182e20 9 0 dtPathCorridor::~dtPathCorridor
FUNC 182e30 49 0 dtPathCorridor::init
FUNC 182e80 47 0 dtPathCorridor::reset
FUNC 182ed0 173 0 dtPathCorridor::findCorners
FUNC 183050 14c 0 dtPathCorridor::optimizePathVisibility
FUNC 1831a0 f0 0 dtPathCorridor::optimizePathTopology
FUNC 183290 f8 0 dtPathCorridor::moveOverOffmeshConnection
FUNC 183390 e9 0 dtPathCorridor::movePosition
FUNC 183480 c0 0 dtPathCorridor::moveTargetPosition
FUNC 183540 49 0 dtPathCorridor::setCorridor
FUNC 183590 69 0 dtPathCorridor::fixPathStart
FUNC 183600 132 0 dtPathCorridor::trimInvalidPath
FUNC 183740 74 0 dtPathCorridor::isValid
FUNC 1837c0 c9 0 dtTileCache::dtTileCache
FUNC 183890 28 0 dtAllocTileCache
FUNC 1838c0 97 0 dtTileCache::~dtTileCache
FUNC 183960 22 0 dtFreeTileCache
FUNC 183990 53 0 dtTileCache::getTileByRef
FUNC 1839f0 2be 0 dtTileCache::init
FUNC 183cb0 8f 0 dtTileCache::getTilesAt
FUNC 183d40 55 0 dtTileCache::getTileAt
FUNC 183da0 23 0 dtTileCache::getTileRef
FUNC 183dd0 23 0 dtTileCache::getObstacleRef
FUNC 183e00 3b 0 dtTileCache::getObstacleByRef
FUNC 183e40 f4 0 dtTileCache::addTile
FUNC 183f40 1a7 0 dtTileCache::removeTile
FUNC 1840f0 ff 0 dtTileCache::addObstacle
FUNC 1841f0 117 0 dtTileCache::addBoxObstacle
FUNC 184310 177 0 dtTileCache::addBoxObstacle
FUNC 184490 43 0 dtTileCache::removeObstacle
FUNC 1844e0 55f 0 dtTileCache::buildNavMeshTile
FUNC 184a40 94 0 dtTileCache::buildNavMeshTilesAt
FUNC 184ae0 86 0 dtTileCache::calcTightTileBounds
FUNC 184b70 32a 0 dtTileCache::queryTiles
FUNC 184ea0 11a 0 dtTileCache::getObstacleBounds
FUNC 184fc0 410 0 dtTileCache::update
FUNC 1853d0 d2 0 getNeighbourReg
FUNC 1854b0 90 0 between
FUNC 185540 267 0 getPolyMergeValue
FUNC 1857b0 172 0 mergePolys
FUNC 185930 492 0 diagonal
FUNC 185dd0 341 0 triangulate
FUNC 186120 49 0 dtAllocTileCacheContourSet
FUNC 186170 e2 0 dtFreeTileCacheContourSet
FUNC 186260 6c 0 dtAllocTileCachePolyMesh
FUNC 1862d0 e2 0 dtFreeTileCachePolyMesh
FUNC 1863c0 8b0 0 dtBuildTileCacheRegions
FUNC 186c70 c4b 0 dtBuildTileCacheContours
FUNC 1878c0 1b29 0 dtBuildTileCachePolyMesh
FUNC 1893f0 317 0 dtMarkCylinderArea
FUNC 189710 19e 0 dtMarkBoxArea
FUNC 1898b0 29a 0 dtMarkBoxArea
FUNC 189b50 1e9 0 dtBuildTileCacheLayer
FUNC 189d40 22 0 dtFreeTileCacheLayer
FUNC 189d70 1e6 0 dtDecompressTileCacheLayer
FUNC 189f60 1ec 0 dtTileCacheHeaderSwapEndian
FUNC 18a150 7b 0 projectPoly
FUNC 18a1d0 42d 0 dtClosestPtPointTriangle
FUNC 18a600 156 0 dtIntersectSegmentPoly2D
FUNC 18a760 ba 0 dtDistancePtSegSqr2D
FUNC 18a820 8f 0 dtCalcPolyCenter
FUNC 18a8b0 fb 0 dtClosestHeightPointTriangle
FUNC 18a9b0 9b 0 dtPointInPolygon
FUNC 18aa50 c6 0 dtDistancePtPolyEdgesSqr
FUNC 18ab20 23f 0 dtOverlapPolyPoly2D
FUNC 18ad60 19c 0 dtRandomPointInConvexPoly
FUNC 18af00 a1 0 dtIntersectSegSeg2D
FUNC 18afb0 15 0 compareItemX
FUNC 18afd0 17 0 compareItemY
FUNC 18aff0 17 0 compareItemZ
FUNC 18b010 27b 0 subdivide
FUNC 18b290 1214 0 dtCreateNavMeshData
FUNC 18c4b0 354 0 dtNavMeshHeaderSwapEndian
FUNC 18c810 2bc 0 dtNavMeshDataSwapEndian
FUNC 18cad0 7f 0 google_breakpad::CrashGenerationServer::Stop
FUNC 18cb50 51 0 google_breakpad::CrashGenerationServer::ControlEvent
FUNC 18cbb0 8c 0 google_breakpad::CrashGenerationServer::CrashGenerationServer
FUNC 18cc40 2a 0 google_breakpad::CrashGenerationServer::~CrashGenerationServer
FUNC 18cc70 d0 0 google_breakpad::CrashGenerationServer::Start
FUNC 18cd40 12 0 google_breakpad::CrashGenerationServer::Stop
FUNC 18cd60 ba 0 google_breakpad::CrashGenerationServer::CreateReportChannel
FUNC 18ce20 15 0 google_breakpad::CrashGenerationServer::ControlEvent
FUNC 18ce40 10e 0 google_breakpad::CrashGenerationServer::MakeMinidumpFilename
FUNC 18cf50 272 0 google_breakpad::CrashGenerationServer::ClientEvent
FUNC 18d1d0 d3 0 google_breakpad::CrashGenerationServer::Run
FUNC 18d2b0 10 0 google_breakpad::CrashGenerationServer::ThreadMain
FUNC 18d2c0 74 0 google_breakpad::ExceptionHandler::RestoreHandlersLocked
FUNC 18d340 c2 0 std::__cxx11::basic_string<char, std::char_traits<char>, std::allocator<char> >::_M_construct<char*>
FUNC 18d410 359 0 google_breakpad::ExceptionHandler::~ExceptionHandler
FUNC 18d770 14e 0 google_breakpad::ExceptionHandler::InstallHandlersLocked
FUNC 18d8c0 12 0 google_breakpad::ExceptionHandler::RestoreHandlersLocked
FUNC 18d8e0 d1 0 google_breakpad::ExceptionHandler::SendContinueSignalToChild
FUNC 18d9c0 4ef 0 google_breakpad::ExceptionHandler::GenerateDump
FUNC 18deb0 1da 0 google_breakpad::ExceptionHandler::HandleSignal
FUNC 18e090 1aa 0 google_breakpad::ExceptionHandler::SignalHandler
FUNC 18e240 7f 0 google_breakpad::ExceptionHandler::SimulateSignalDelivery
FUNC 18e2c0 e5 0 google_breakpad::ExceptionHandler::WaitForContinueSignal
FUNC 18e3b0 8a 0 google_breakpad::ExceptionHandler::DoDump
FUNC 18e440 28 0 google_breakpad::ExceptionHandler::ThreadEntry
FUNC 18e470 195 0 google_breakpad::ExceptionHandler::WriteMinidump
FUNC 18e610 e3 0 google_breakpad::ExceptionHandler::AddMappingInfo
FUNC 18e700 91 0 google_breakpad::ExceptionHandler::RegisterAppMemory
FUNC 18e7a0 52 0 google_breakpad::ExceptionHandler::UnregisterAppMemory
FUNC 18e800 12e 0 google_breakpad::ExceptionHandler::WriteMinidumpForChild
FUNC 18e930 3a8 0 google_breakpad::ExceptionHandler::ExceptionHandler
FUNC 18ece0 160 0 google_breakpad::ExceptionHandler::WriteMinidump
FUNC 18ee40 32 0 google_breakpad::MinidumpDescriptor::~MinidumpDescriptor
FUNC 18ee80 ea 0 std::vector<google_breakpad::ExceptionHandler*, std::allocator<google_breakpad::ExceptionHandler*> >::_M_emplace_back_aux<google_breakpad::ExceptionHandler*>
FUNC 18ef70 c2 0 std::__cxx11::basic_string<char, std::char_traits<char>, std::allocator<char> >::_M_construct<char*>
FUNC 18f040 76 0 google_breakpad::MinidumpDescriptor::MinidumpDescriptor
FUNC 18f0c0 2c8 0 google_breakpad::MinidumpDescriptor::UpdatePath
FUNC 18f390 75 0 google_breakpad::MinidumpDescriptor::operator=
FUNC 18f410 33 0 logger::write
FUNC 18f450 17dc 0 google_breakpad::WriteMicrodump
FUNC 190c30 6 0 google_breakpad::LinuxDumper::LateInit
FUNC 190c40 1bf 0 google_breakpad::::ElfFileSoName
FUNC 190e00 163 0 google_breakpad::LinuxDumper::HandleDeletedFileInMapping
FUNC 190f70 48f 0 google_breakpad::LinuxDumper::LinuxDumper
FUNC 191400 5f 0 google_breakpad::LinuxDumper::~LinuxDumper
FUNC 191460 66 0 google_breakpad::LinuxDumper::~LinuxDumper
FUNC 1914d0 c8 0 google_breakpad::LinuxDumper::GetMappingEffectiveNameAndPath
FUNC 1915a0 119 0 google_breakpad::LinuxDumper::ReadAuxv
FUNC 1916c0 32 0 google_breakpad::LinuxDumper::Init
FUNC 191700 9d 0 google_breakpad::LinuxDumper::GetStackInfo
FUNC 1917a0 4b 0 google_breakpad::LinuxDumper::FindMapping
FUNC 1917f0 53 0 google_breakpad::LinuxDumper::HandleDeletedFileInMapping
FUNC 191850 32f 0 google_breakpad::LinuxDumper::ElfFileIdentifierForMapping
FUNC 191b80 8eb 0 google_breakpad::LinuxDumper::EnumerateMappings
FUNC 192470 143 0 google_breakpad::PageAllocator::Alloc
FUNC 1925c0 281 0 std::vector<google_breakpad::MappingInfo*, google_breakpad::PageStdAllocator<google_breakpad::MappingInfo*> >::_M_default_append
FUNC 192850 3 0 google_breakpad::LinuxPtraceDumper::IsPostMortem
FUNC 192860 187 0 google_breakpad::LinuxPtraceDumper::CopyFromProcess
FUNC 1929f0 bb 0 google_breakpad::LinuxPtraceDumper::BuildProcPath
FUNC 192ab0 bc 0 google_breakpad::LinuxPtraceDumper::ThreadsResume
FUNC 192b70 5ee 0 google_breakpad::LinuxPtraceDumper::EnumerateThreads
FUNC 193160 4cc 0 google_breakpad::LinuxPtraceDumper::GetThreadInfoByIndex
FUNC 193630 1c 0 google_breakpad::LinuxPtraceDumper::LinuxPtraceDumper
FUNC 193650 251 0 google_breakpad::LinuxPtraceDumper::ThreadsSuspend
FUNC 1938b0 f 0 google_breakpad::LinuxPtraceDumper::~LinuxPtraceDumper
FUNC 1938c0 1c 0 google_breakpad::LinuxPtraceDumper::~LinuxPtraceDumper
FUNC 1938e0 281 0 std::vector<int, google_breakpad::PageStdAllocator<int> >::_M_default_append
FUNC 193b70 dd1 0 MinidumpWriter::WriteThreadListStream
FUNC 194950 1f53 0 MinidumpWriter::Dump
FUNC 1968b0 188 0 google_breakpad::WriteMinidump
FUNC 196a40 2a1 0 google_breakpad::WriteMinidump
FUNC 196cf0 282 0 WriteMinidumpImpl
FUNC 196f80 109 0 google_breakpad::WriteMinidump
FUNC 197090 109 0 google_breakpad::WriteMinidump
FUNC 1971a0 26 0 google_breakpad::WriteMinidump
FUNC 1971d0 25 0 google_breakpad::WriteMinidump
FUNC 197200 24 0 google_breakpad::WriteMinidump
FUNC 197230 23 0 google_breakpad::WriteMinidump
FUNC 197260 232 0 google_breakpad::ProcCpuInfoReader::GetNextField
FUNC 1974a0 254 0 std::vector<char, google_breakpad::PageStdAllocator<char> >::resize
FUNC 197700 21b 0 std::vector<MDMemoryDescriptor, google_breakpad::PageStdAllocator<MDMemoryDescriptor> >::reserve
FUNC 197920 24c 0 std::vector<MDMemoryDescriptor, google_breakpad::PageStdAllocator<MDMemoryDescriptor> >::_M_emplace_back_aux<const MDMemoryDescriptor&>
FUNC 197b70 1a 0 google_breakpad::MinidumpFileWriter::MinidumpFileWriter
FUNC 197b90 5a 0 google_breakpad::MinidumpFileWriter::Open
FUNC 197bf0 7 0 google_breakpad::MinidumpFileWriter::SetFile
FUNC 197c00 5d 0 google_breakpad::MinidumpFileWriter::Close
FUNC 197c60 12 0 google_breakpad::MinidumpFileWriter::~MinidumpFileWriter
FUNC 197c80 61 0 google_breakpad::MinidumpFileWriter::Allocate
FUNC 197cf0 93 0 google_breakpad::MinidumpFileWriter::Copy
FUNC 197d90 5b 0 google_breakpad::MinidumpFileWriter::WriteMemory
FUNC 197df0 d5 0 google_breakpad::MinidumpFileWriter::CopyStringToMDString
FUNC 197ed0 d4 0 google_breakpad::MinidumpFileWriter::CopyStringToMDString
FUNC 197fb0 1b 0 google_breakpad::UntypedMDRVA::Allocate
FUNC 197fd0 8 0 google_breakpad::UntypedMDRVA::Copy
FUNC 197fe0 5 0 google_breakpad::MinidumpFileWriter::WriteString
FUNC 197ff0 5 0 google_breakpad::MinidumpFileWriter::WriteString
FUNC 198000 185 0 google_breakpad::MinidumpFileWriter::WriteStringCore<wchar_t>
FUNC 198190 17a 0 google_breakpad::MinidumpFileWriter::WriteStringCore<char>
FUNC 198310 c2 0 std::__cxx11::basic_string<char, std::char_traits<char>, std::allocator<char> >::_M_construct<char const*>
FUNC 1983e0 b1 0 google_breakpad::UTF8ToUTF16Char
FUNC 1984a0 7b 0 google_breakpad::UTF32ToUTF16Char
FUNC 198520 173 0 google_breakpad::UTF16ToUTF8
FUNC 1986a0 f0 0 google_breakpad::UTF32ToUTF16
FUNC 198790 e8 0 google_breakpad::UTF8ToUTF16
FUNC 198880 2bd 0 std::vector<short unsigned int, std::allocator<short unsigned int> >::_M_fill_insert
FUNC 198b40 14d 0 std::vector<short unsigned int, std::allocator<short unsigned int> >::_M_default_append
FUNC 198c90 1f 0 google_breakpad::IsValidElf
FUNC 198cb0 5 0 google_breakpad::ElfClass
FUNC 198cc0 22f 0 google_breakpad::FindElfSection
FUNC 198ef0 135 0 google_breakpad::FindElfSegment
FUNC 199030 e2 0 google_breakpad::FileID::FileID
FUNC 199120 341 0 google_breakpad::FileID::ElfFileIdentifierFromMappedFile
FUNC 199470 7c 0 google_breakpad::FileID::ElfFileIdentifier
FUNC 1994f0 104 0 google_breakpad::FileID::ConvertIdentifierToString
FUNC 199600 73 0 CreateGUID
FUNC 199680 51 0 GUIDToString
FUNC 1996e0 16 0 GUIDGenerator::InitOnceImpl
FUNC 199700 1e 0 my_strlen
FUNC 199720 46 0 my_strcmp
FUNC 199770 56 0 my_strncmp
FUNC 1997d0 4c 0 my_strtoui
FUNC 199820 39 0 my_uint_len
FUNC 199860 3c 0 my_uitos
FUNC 1998a0 34 0 my_strchr
FUNC 1998e0 26 0 my_strrchr
FUNC 199910 34 0 my_memchr
FUNC 199950 7c 0 my_read_hex_ptr
FUNC 1999d0 3a 0 my_read_decimal_ptr
FUNC 199a10 1f 0 my_memset
FUNC 199a30 38 0 my_strlcpy
FUNC 199a70 8f 0 my_strlcat
FUNC 199b00 6c 0 my_isspace
FUNC 199b70 10 0 google_breakpad::MemoryMappedFile::MemoryMappedFile
FUNC 199b80 4b 0 google_breakpad::MemoryMappedFile::Unmap
FUNC 199bd0 2 0 google_breakpad::MemoryMappedFile::~MemoryMappedFile
FUNC 199be0 1af 0 google_breakpad::MemoryMappedFile::Map
FUNC 199d90 14 0 google_breakpad::MemoryMappedFile::MemoryMappedFile
FUNC 199db0 40 0 google_breakpad::SafeReadLink
FUNC 199df0 2 0 google_breakpad::::CrashGenerationClientImpl::~CrashGenerationClientImpl
FUNC 199e00 213 0 google_breakpad::::CrashGenerationClientImpl::RequestDump
FUNC 19a020 5 0 google_breakpad::::CrashGenerationClientImpl::~CrashGenerationClientImpl
FUNC 19a030 23 0 google_breakpad::CrashGenerationClient::TryCreate
FUNC 19a060 8 0 google_breakpad::ThreadInfo::GetInstructionPointer
FUNC 19a070 2fc 0 google_breakpad::ThreadInfo::FillCPUContext
FUNC 19a370 1a 0 google_breakpad::ThreadInfo::GetGeneralPurposeRegisters
FUNC 19a390 1d 0 google_breakpad::ThreadInfo::GetFloatingPointRegisters
FUNC 19a3b0 8 0 google_breakpad::UContextReader::GetStackPointer
FUNC 19a3c0 8 0 google_breakpad::UContextReader::GetInstructionPointer
FUNC 19a3d0 263 0 google_breakpad::UContextReader::FillCPUContext
FUNC 19a640 c7 0 isLegalUTF8
FUNC 19a710 fd 0 ConvertUTF32toUTF16
FUNC 19a810 117 0 ConvertUTF16toUTF32
FUNC 19a930 1ff 0 ConvertUTF16toUTF8
FUNC 19ab30 2b 0 isLegalUTF8Sequence
FUNC 19ab60 26f 0 ConvertUTF8toUTF16
FUNC 19add0 19a 0 ConvertUTF32toUTF8
FUNC 19af70 287 0 ConvertUTF8toUTF32
FUNC 19b200 e4 0 TryShmOrTempOpen
FUNC 19b2f0 5 0 NaClDuplicateNaClHandle
FUNC 19b300 8 0 NaClSetCreateMemoryObjectFunc
FUNC 19b310 17 0 NaClWouldBlock
FUNC 19b330 7c 0 NaClGetLastErrorString
FUNC 19b3b0 36 0 NaClCreateMemoryObject
FUNC 19b3f0 38 0 NaClMap
FUNC 19b430 5 0 NaClUnmap
FUNC 19b440 6 0 NaClBoundSocket
FUNC 19b450 6 0 NaClSendDatagramTo
FUNC 19b460 14 0 NaClSocketPair
FUNC 19b480 5 0 NaClClose
FUNC 19b490 142 0 NaClSendDatagram
FUNC 19b5e0 1e6 0 NaClReceiveDatagram
FUNC 19b7d0 53 0 NaClMessageSizeIsValid
FUNC 19b830 7a 0 unz64local_getByte
FUNC 19b8b0 96 0 unz64local_getShort
FUNC 19b950 e6 0 unz64local_getLong
FUNC 19ba40 16a 0 unz64local_getLong64
FUNC 19bbb0 812 0 unz64local_GetCurrentFileInfoInternal
FUNC 19c3d0 76 0 unzStringFileNameCompare
FUNC 19c450 1d 0 unzGetGlobalInfo64
FUNC 19c470 1d 0 unzGetGlobalInfo
FUNC 19c490 23 0 unzGetCurrentFileInfo64
FUNC 19c4c0 118 0 unzGetCurrentFileInfo
FUNC 19c5e0 66 0 unzGoToFirstFile
FUNC 19c650 84f 0 unzOpenInternal
FUNC 19cea0 60 0 unzOpen2
FUNC 19cf00 ab 0 unzOpen2_64
FUNC 19cfb0 9 0 unzOpen
FUNC 19cfc0 c 0 unzOpen64
FUNC 19cfd0 ae 0 unzGoToNextFile
FUNC 19d080 31c 0 unzLocateFile
FUNC 19d3a0 46 0 unzGetFilePos64
FUNC 19d3f0 3c 0 unzGetFilePos
FUNC 19d430 66 0 unzGoToFilePos64
FUNC 19d4a0 5c 0 unzGoToFilePos
FUNC 19d500 23 0 unzGetCurrentFileZStreamPos64
FUNC 19d530 33a 0 unzReadCurrentFile
FUNC 19d870 28 0 unztell
FUNC 19d8a0 21 0 unztell64
FUNC 19d8d0 26 0 unzeof
FUNC 19d900 c4 0 unzGetLocalExtrafield
FUNC 19d9d0 b0 0 unzCloseCurrentFile
FUNC 19da80 35 0 unzClose
FUNC 19dac0 67f 0 unzOpenCurrentFile3
FUNC 19e140 e 0 unzOpenCurrentFile
FUNC 19e150 e 0 unzOpenCurrentFilePassword
FUNC 19e160 8 0 unzOpenCurrentFile2
FUNC 19e170 98 0 unzGetGlobalComment
FUNC 19e210 3c 0 unzGetOffset64
FUNC 19e250 3a 0 unzGetOffset
FUNC 19e290 5e 0 unzSetOffset64
FUNC 19e2f0 2 0 unzSetOffset
FUNC 19e300 8 0 ferror_file_func
FUNC 19e310 8 0 fclose_file_func
FUNC 19e320 57 0 fseek_file_func
FUNC 19e380 8 0 ftell_file_func
FUNC 19e390 13 0 fwrite_file_func
FUNC 19e3b0 49 0 fopen64_file_func
FUNC 19e410 57 0 fseek64_file_func
FUNC 19e470 8 0 ftell64_file_func
FUNC 19e480 13 0 fread_file_func
FUNC 19e4a0 1d 0 call_zopen64
FUNC 19e4c0 1d 0 call_zseek64
FUNC 19e4e0 3b 0 call_ztell64
FUNC 19e520 5f 0 fill_zlib_filefunc64_32_def_from_filefunc32
FUNC 19e580 55 0 fill_fopen_filefunc
FUNC 19e5e0 55 0 fill_fopen64_filefunc
PUBLIC 192b0 0 _init
PUBLIC 223d0 0 _start
PUBLIC 23f60 0 std::ctype<char>::do_widen(char) const
PUBLIC 24000 0 std::vector<std::pair<std::__cxx11::basic_string<char, std::char_traits<char>, std::allocator<char> >, std::__cxx11::basic_string<char, std::char_traits<char>, std::allocator<char> > >, std::allocator<std::pair<std::__cxx11::basic_string<char, std::char_traits<char>, std::allocator<char> >, std::__cxx11::basic_string<char, std::char_traits<char>, std::allocator<char> > > > >::~vector()
PUBLIC 24d10 0 std::pair<std::__cxx11::basic_string<char, std::char_traits<char>, std::allocator<char> >, std::__cxx11::basic_string<char, std::char_traits<char>, std::allocator<char> > >::~pair()
PUBLIC 24d50 0 std::__cxx11::basic_stringbuf<char, std::char_traits<char>, std::allocator<char> >::~basic_stringbuf()
PUBLIC 24d90 0 std::__cxx11::basic_stringbuf<char, std::char_traits<char>, std::allocator<char> >::~basic_stringbuf()
PUBLIC 24dd0 0 std::vector<std::__cxx11::basic_string<char, std::char_traits<char>, std::allocator<char> >, std::allocator<std::__cxx11::basic_string<char, std::char_traits<char>, std::allocator<char> > > >::~vector()
PUBLIC 25d40 0 void std::vector<std::pair<std::__cxx11::basic_string<char, std::char_traits<char>, std::allocator<char> >, std::__cxx11::basic_string<char, std::char_traits<char>, std::allocator<char> > >, std::allocator<std::pair<std::__cxx11::basic_string<char, std::char_traits<char>, std::allocator<char> >, std::__cxx11::basic_string<char, std::char_traits<char>, std::allocator<char> > > > >::_M_emplace_back_aux<std::pair<std::__cxx11::basic_string<char, std::char_traits<char>, std::allocator<char> >, std::__cxx11::basic_string<char, std::char_traits<char>, std::allocator<char> > > >(std::pair<std::__cxx11::basic_string<char, std::char_traits<char>, std::allocator<char> >, std::__cxx11::basic_string<char, std::char_traits<char>, std::allocator<char> > >&&)
PUBLIC 29060 0 std::_Function_handler<void (bool), void (*)(bool)>::_M_invoke(std::_Any_data const&, bool&&)
PUBLIC 29070 0 std::_Function_base::_Base_manager<void (*)(bool)>::_M_manager(std::_Any_data&, std::_Any_data const&, std::_Manager_operation)
PUBLIC 393b0 0 void std::vector<char*, std::allocator<char*> >::_M_emplace_back_aux<char* const&>(char* const&)
PUBLIC 5bb30 0 void std::vector<std::__cxx11::basic_string<char, std::char_traits<char>, std::allocator<char> >, std::allocator<std::__cxx11::basic_string<char, std::char_traits<char>, std::allocator<char> > > >::_M_emplace_back_aux<std::__cxx11::basic_string<char, std::char_traits<char>, std::allocator<char> > >(std::__cxx11::basic_string<char, std::char_traits<char>, std::allocator<char> >&&)
PUBLIC 60bc0 0 std::__cxx11::basic_string<char, std::char_traits<char>, std::allocator<char> > __gnu_cxx::__to_xstring<std::__cxx11::basic_string<char, std::char_traits<char>, std::allocator<char> >, char>(int (*)(char*, unsigned long, char const*, __va_list_tag*), unsigned long, char const*, ...)
PUBLIC 60cb0 0 std::_Rb_tree<std::__cxx11::basic_string<char, std::char_traits<char>, std::allocator<char> >, std::__cxx11::basic_string<char, std::char_traits<char>, std::allocator<char> >, std::_Identity<std::__cxx11::basic_string<char, std::char_traits<char>, std::allocator<char> > >, std::less<std::__cxx11::basic_string<char, std::char_traits<char>, std::allocator<char> > >, std::allocator<std::__cxx11::basic_string<char, std::char_traits<char>, std::allocator<char> > > >::_M_erase(std::_Rb_tree_node<std::__cxx11::basic_string<char, std::char_traits<char>, std::allocator<char> > >*)
PUBLIC 69fb0 0 std::_Rb_tree<std::__cxx11::basic_string<char, std::char_traits<char>, std::allocator<char> >, std::pair<std::__cxx11::basic_string<char, std::char_traits<char>, std::allocator<char> > const, std::__cxx11::basic_string<char, std::char_traits<char>, std::allocator<char> > >, std::_Select1st<std::pair<std::__cxx11::basic_string<char, std::char_traits<char>, std::allocator<char> > const, std::__cxx11::basic_string<char, std::char_traits<char>, std::allocator<char> > > >, std::less<std::__cxx11::basic_string<char, std::char_traits<char>, std::allocator<char> > >, std::allocator<std::pair<std::__cxx11::basic_string<char, std::char_traits<char>, std::allocator<char> > const, std::__cxx11::basic_string<char, std::char_traits<char>, std::allocator<char> > > > >::_M_erase(std::_Rb_tree_node<std::pair<std::__cxx11::basic_string<char, std::char_traits<char>, std::allocator<char> > const, std::__cxx11::basic_string<char, std::char_traits<char>, std::allocator<char> > > >*)
PUBLIC 6be20 0 std::_Rb_tree<std::__cxx11::basic_string<char, std::char_traits<char>, std::allocator<char> >, std::pair<std::__cxx11::basic_string<char, std::char_traits<char>, std::allocator<char> > const, std::__cxx11::basic_string<char, std::char_traits<char>, std::allocator<char> > >, std::_Select1st<std::pair<std::__cxx11::basic_string<char, std::char_traits<char>, std::allocator<char> > const, std::__cxx11::basic_string<char, std::char_traits<char>, std::allocator<char> > > >, std::less<std::__cxx11::basic_string<char, std::char_traits<char>, std::allocator<char> > >, std::allocator<std::pair<std::__cxx11::basic_string<char, std::char_traits<char>, std::allocator<char> > const, std::__cxx11::basic_string<char, std::char_traits<char>, std::allocator<char> > > > >::equal_range(std::__cxx11::basic_string<char, std::char_traits<char>, std::allocator<char> > const&)
PUBLIC 6c050 0 std::_Rb_tree<std::__cxx11::basic_string<char, std::char_traits<char>, std::allocator<char> >, std::pair<std::__cxx11::basic_string<char, std::char_traits<char>, std::allocator<char> > const, std::__cxx11::basic_string<char, std::char_traits<char>, std::allocator<char> > >, std::_Select1st<std::pair<std::__cxx11::basic_string<char, std::char_traits<char>, std::allocator<char> > const, std::__cxx11::basic_string<char, std::char_traits<char>, std::allocator<char> > > >, std::less<std::__cxx11::basic_string<char, std::char_traits<char>, std::allocator<char> > >, std::allocator<std::pair<std::__cxx11::basic_string<char, std::char_traits<char>, std::allocator<char> > const, std::__cxx11::basic_string<char, std::char_traits<char>, std::allocator<char> > > > >::erase(std::__cxx11::basic_string<char, std::char_traits<char>, std::allocator<char> > const&)
PUBLIC 6d060 0 std::_Rb_tree<std::__cxx11::basic_string<char, std::char_traits<char>, std::allocator<char> >, std::pair<std::__cxx11::basic_string<char, std::char_traits<char>, std::allocator<char> > const, std::__cxx11::basic_string<char, std::char_traits<char>, std::allocator<char> > >, std::_Select1st<std::pair<std::__cxx11::basic_string<char, std::char_traits<char>, std::allocator<char> > const, std::__cxx11::basic_string<char, std::char_traits<char>, std::allocator<char> > > >, std::less<std::__cxx11::basic_string<char, std::char_traits<char>, std::allocator<char> > >, std::allocator<std::pair<std::__cxx11::basic_string<char, std::char_traits<char>, std::allocator<char> > const, std::__cxx11::basic_string<char, std::char_traits<char>, std::allocator<char> > > > >::_M_get_insert_unique_pos(std::__cxx11::basic_string<char, std::char_traits<char>, std::allocator<char> > const&)
PUBLIC 6d1b0 0 std::_Rb_tree<std::__cxx11::basic_string<char, std::char_traits<char>, std::allocator<char> >, std::pair<std::__cxx11::basic_string<char, std::char_traits<char>, std::allocator<char> > const, std::__cxx11::basic_string<char, std::char_traits<char>, std::allocator<char> > >, std::_Select1st<std::pair<std::__cxx11::basic_string<char, std::char_traits<char>, std::allocator<char> > const, std::__cxx11::basic_string<char, std::char_traits<char>, std::allocator<char> > > >, std::less<std::__cxx11::basic_string<char, std::char_traits<char>, std::allocator<char> > >, std::allocator<std::pair<std::__cxx11::basic_string<char, std::char_traits<char>, std::allocator<char> > const, std::__cxx11::basic_string<char, std::char_traits<char>, std::allocator<char> > > > >::_M_get_insert_hint_unique_pos(std::_Rb_tree_const_iterator<std::pair<std::__cxx11::basic_string<char, std::char_traits<char>, std::allocator<char> > const, std::__cxx11::basic_string<char, std::char_traits<char>, std::allocator<char> > > >, std::__cxx11::basic_string<char, std::char_traits<char>, std::allocator<char> > const&)
PUBLIC 6d460 0 std::_Rb_tree_iterator<std::pair<std::__cxx11::basic_string<char, std::char_traits<char>, std::allocator<char> > const, std::__cxx11::basic_string<char, std::char_traits<char>, std::allocator<char> > > > std::_Rb_tree<std::__cxx11::basic_string<char, std::char_traits<char>, std::allocator<char> >, std::pair<std::__cxx11::basic_string<char, std::char_traits<char>, std::allocator<char> > const, std::__cxx11::basic_string<char, std::char_traits<char>, std::allocator<char> > >, std::_Select1st<std::pair<std::__cxx11::basic_string<char, std::char_traits<char>, std::allocator<char> > const, std::__cxx11::basic_string<char, std::char_traits<char>, std::allocator<char> > > >, std::less<std::__cxx11::basic_string<char, std::char_traits<char>, std::allocator<char> > >, std::allocator<std::pair<std::__cxx11::basic_string<char, std::char_traits<char>, std::allocator<char> > const, std::__cxx11::basic_string<char, std::char_traits<char>, std::allocator<char> > > > >::_M_emplace_hint_unique<std::piecewise_construct_t const&, std::tuple<std::__cxx11::basic_string<char, std::char_traits<char>, std::allocator<char> >&&>, std::tuple<> >(std::_Rb_tree_const_iterator<std::pair<std::__cxx11::basic_string<char, std::char_traits<char>, std::allocator<char> > const, std::__cxx11::basic_string<char, std::char_traits<char>, std::allocator<char> > > >, std::piecewise_construct_t const&, std::tuple<std::__cxx11::basic_string<char, std::char_traits<char>, std::allocator<char> >&&>&&, std::tuple<>&&)
PUBLIC 6d5f0 0 std::map<std::__cxx11::basic_string<char, std::char_traits<char>, std::allocator<char> >, std::__cxx11::basic_string<char, std::char_traits<char>, std::allocator<char> >, std::less<std::__cxx11::basic_string<char, std::char_traits<char>, std::allocator<char> > >, std::allocator<std::pair<std::__cxx11::basic_string<char, std::char_traits<char>, std::allocator<char> > const, std::__cxx11::basic_string<char, std::char_traits<char>, std::allocator<char> > > > >::operator[](std::__cxx11::basic_string<char, std::char_traits<char>, std::allocator<char> >&&)
PUBLIC 74120 0 std::__cxx11::basic_string<char, std::char_traits<char>, std::allocator<char> > Cvar::GetCvarTypeName<ServerPrivate>()
PUBLIC 85230 0 std::__cxx11::basic_string<char, std::char_traits<char>, std::allocator<char> > std::operator+<char, std::char_traits<char>, std::allocator<char> >(char const*, std::__cxx11::basic_string<char, std::char_traits<char>, std::allocator<char> > const&)
PUBLIC 852e0 0 std::__cxx11::basic_string<char, std::char_traits<char>, std::allocator<char> > std::operator+<char, std::char_traits<char>, std::allocator<char> >(std::__cxx11::basic_string<char, std::char_traits<char>, std::allocator<char> >&&, char const*)
PUBLIC 853b0 0 void std::vector<char, std::allocator<char> >::_M_range_insert<char const*>(__gnu_cxx::__normal_iterator<char*, std::vector<char, std::allocator<char> > >, char const*, char const*, std::forward_iterator_tag)
PUBLIC a7420 0 std::vector<std::array<float, 3ul>, std::allocator<std::array<float, 3ul> > >::_M_default_append(unsigned long)
PUBLIC a7750 0 std::vector<bool, std::allocator<bool> >::_M_insert_aux(std::_Bit_iterator, bool)
PUBLIC a7e60 0 std::vector<std::__cxx11::basic_string<char, std::char_traits<char>, std::allocator<char> >, std::allocator<std::__cxx11::basic_string<char, std::char_traits<char>, std::allocator<char> > > >::_M_default_append(unsigned long)
PUBLIC b47d0 0 void std::vector<std::__cxx11::basic_string<char, std::char_traits<char>, std::allocator<char> >, std::allocator<std::__cxx11::basic_string<char, std::char_traits<char>, std::allocator<char> > > >::emplace_back<>()
PUBLIC b4990 0 void std::vector<std::__cxx11::basic_string<char, std::char_traits<char>, std::allocator<char> >, std::allocator<std::__cxx11::basic_string<char, std::char_traits<char>, std::allocator<char> > > >::_M_emplace_back_aux<char const*&, char const*>(char const*&, char const*&&)
PUBLIC b4bb0 0 void std::vector<std::__cxx11::basic_string<char, std::char_traits<char>, std::allocator<char> >, std::allocator<std::__cxx11::basic_string<char, std::char_traits<char>, std::allocator<char> > > >::emplace_back<char const*&, char const*>(char const*&, char const*&&)
PUBLIC ca0f0 0 std::unique_lock<std::mutex>::unlock()
PUBLIC e3a20 0 std::__cxx11::basic_string<char, std::char_traits<char>, std::allocator<char> > Cvar::GetCvarTypeName<bool>()
PUBLIC e3a70 0 std::__cxx11::basic_string<char, std::char_traits<char>, std::allocator<char> > Cvar::GetCvarTypeName<int>()
PUBLIC e3ab0 0 std::__cxx11::basic_string<char, std::char_traits<char>, std::allocator<char> > Cvar::GetCvarTypeName<float>()
PUBLIC e3b60 0 std::__cxx11::basic_string<char, std::char_traits<char>, std::allocator<char> > Cvar::GetCvarTypeName<std::__cxx11::basic_string<char, std::char_traits<char>, std::allocator<char> > >()
PUBLIC e3b90 0 std::__cxx11::basic_string<char, std::char_traits<char>, std::allocator<char> > Cvar::GetCvarTypeName<unsigned long>()
PUBLIC f3c60 0 std::_Sp_counted_base<(__gnu_cxx::_Lock_policy)2>::_M_destroy()
PUBLIC f47a0 0 __gnu_cxx::__enable_if<std::__is_char<char>::__value, bool>::__type std::operator==<char>(std::__cxx11::basic_string<char, std::char_traits<char>, std::allocator<char> > const&, std::__cxx11::basic_string<char, std::char_traits<char>, std::allocator<char> > const&)
PUBLIC f5830 0 std::_Hashtable<std::__cxx11::basic_string<char, std::char_traits<char>, std::allocator<char> >, std::pair<std::__cxx11::basic_string<char, std::char_traits<char>, std::allocator<char> > const, std::pair<unsigned int, long> >, std::allocator<std::pair<std::__cxx11::basic_string<char, std::char_traits<char>, std::allocator<char> > const, std::pair<unsigned int, long> > >, std::__detail::_Select1st, std::equal_to<std::__cxx11::basic_string<char, std::char_traits<char>, std::allocator<char> > >, std::hash<std::__cxx11::basic_string<char, std::char_traits<char>, std::allocator<char> > >, std::__detail::_Mod_range_hashing, std::__detail::_Default_ranged_hash, std::__detail::_Prime_rehash_policy, std::__detail::_Hashtable_traits<true, false, true> >::clear()
PUBLIC f5870 0 std::_Hashtable<std::__cxx11::basic_string<char, std::char_traits<char>, std::allocator<char> >, std::pair<std::__cxx11::basic_string<char, std::char_traits<char>, std::allocator<char> > const, std::pair<unsigned int, long> >, std::allocator<std::pair<std::__cxx11::basic_string<char, std::char_traits<char>, std::allocator<char> > const, std::pair<unsigned int, long> > >, std::__detail::_Select1st, std::equal_to<std::__cxx11::basic_string<char, std::char_traits<char>, std::allocator<char> > >, std::hash<std::__cxx11::basic_string<char, std::char_traits<char>, std::allocator<char> > >, std::__detail::_Mod_range_hashing, std::__detail::_Default_ranged_hash, std::__detail::_Prime_rehash_policy, std::__detail::_Hashtable_traits<true, false, true> >::~_Hashtable()
PUBLIC f58a0 0 std::unordered_map<std::__cxx11::basic_string<char, std::char_traits<char>, std::allocator<char> >, std::pair<unsigned int, long>, std::hash<std::__cxx11::basic_string<char, std::char_traits<char>, std::allocator<char> > >, std::equal_to<std::__cxx11::basic_string<char, std::char_traits<char>, std::allocator<char> > >, std::allocator<std::pair<std::__cxx11::basic_string<char, std::char_traits<char>, std::allocator<char> > const, std::pair<unsigned int, long> > > >::~unordered_map()
PUBLIC f5c70 0 void std::vector<std::__cxx11::basic_string<char, std::char_traits<char>, std::allocator<char> >, std::allocator<std::__cxx11::basic_string<char, std::char_traits<char>, std::allocator<char> > > >::_M_emplace_back_aux<std::__cxx11::basic_string<char, std::char_traits<char>, std::allocator<char> > const&>(std::__cxx11::basic_string<char, std::char_traits<char>, std::allocator<char> > const&)
PUBLIC f6740 0 std::__detail::_Hash_node<std::pair<std::__cxx11::basic_string<char, std::char_traits<char>, std::allocator<char> > const, std::pair<unsigned int, long> >, true>* std::__detail::_Hashtable_alloc<std::allocator<std::__detail::_Hash_node<std::pair<std::__cxx11::basic_string<char, std::char_traits<char>, std::allocator<char> > const, std::pair<unsigned int, long> >, true> > >::_M_allocate_node<std::pair<std::__cxx11::basic_string<char, std::char_traits<char>, std::allocator<char> > const, std::pair<unsigned int, long> > const&>(std::pair<std::__cxx11::basic_string<char, std::char_traits<char>, std::allocator<char> > const, std::pair<unsigned int, long> > const&)
PUBLIC f67c0 0 void std::_Hashtable<std::__cxx11::basic_string<char, std::char_traits<char>, std::allocator<char> >, std::pair<std::__cxx11::basic_string<char, std::char_traits<char>, std::allocator<char> > const, std::pair<unsigned int, long> >, std::allocator<std::pair<std::__cxx11::basic_string<char, std::char_traits<char>, std::allocator<char> > const, std::pair<unsigned int, long> > >, std::__detail::_Select1st, std::equal_to<std::__cxx11::basic_string<char, std::char_traits<char>, std::allocator<char> > >, std::hash<std::__cxx11::basic_string<char, std::char_traits<char>, std::allocator<char> > >, std::__detail::_Mod_range_hashing, std::__detail::_Default_ranged_hash, std::__detail::_Prime_rehash_policy, std::__detail::_Hashtable_traits<true, false, true> >::_M_assign<std::_Hashtable<std::__cxx11::basic_string<char, std::char_traits<char>, std::allocator<char> >, std::pair<std::__cxx11::basic_string<char, std::char_traits<char>, std::allocator<char> > const, std::pair<unsigned int, long> >, std::allocator<std::pair<std::__cxx11::basic_string<char, std::char_traits<char>, std::allocator<char> > const, std::pair<unsigned int, long> > >, std::__detail::_Select1st, std::equal_to<std::__cxx11::basic_string<char, std::char_traits<char>, std::allocator<char> > >, std::hash<std::__cxx11::basic_string<char, std::char_traits<char>, std::allocator<char> > >, std::__detail::_Mod_range_hashing, std::__detail::_Default_ranged_hash, std::__detail::_Prime_rehash_policy, std::__detail::_Hashtable_traits<true, false, true> >::operator=(std::_Hashtable<std::__cxx11::basic_string<char, std::char_traits<char>, std::allocator<char> >, std::pair<std::__cxx11::basic_string<char, std::char_traits<char>, std::allocator<char> > const, std::pair<unsigned int, long> >, std::allocator<std::pair<std::__cxx11::basic_string<char, std::char_traits<char>, std::allocator<char> > const, std::pair<unsigned int, long> > >, std::__detail::_Select1st, std::equal_to<std::__cxx11::basic_string<char, std::char_traits<char>, std::allocator<char> > >, std::hash<std::__cxx11::basic_string<char, std::char_traits<char>, std::allocator<char> > >, std::__detail::_Mod_range_hashing, std::__detail::_Default_ranged_hash, std::__detail::_Prime_rehash_policy, std::__detail::_Hashtable_traits<true, false, true> > const&)::{lambda(std::__detail::_Hash_node<std::pair<std::__cxx11::basic_string<char, std::char_traits<char>, std::allocator<char> > const, std::pair<unsigned int, long> >, true> const*)#2}>(std::_Hashtable<std::__cxx11::basic_string<char, std::char_traits<char>, std::allocator<char> >, std::pair<std::__cxx11::basic_string<char, std::char_traits<char>, std::allocator<char> > const, std::pair<unsigned int, long> >, std::allocator<std::pair<std::__cxx11::basic_string<char, std::char_traits<char>, std::allocator<char> > const, std::pair<unsigned int, long> > >, std::__detail::_Select1st, std::equal_to<std::__cxx11::basic_string<char, std::char_traits<char>, std::allocator<char> > >, std::hash<std::__cxx11::basic_string<char, std::char_traits<char>, std::allocator<char> > >, std::__detail::_Mod_range_hashing, std::__detail::_Default_ranged_hash, std::__detail::_Prime_rehash_policy, std::__detail::_Hashtable_traits<true, false, true> > const&, std::_Hashtable<std::__cxx11::basic_string<char, std::char_traits<char>, std::allocator<char> >, std::pair<std::__cxx11::basic_string<char, std::char_traits<char>, std::allocator<char> > const, std::pair<unsigned int, long> >, std::allocator<std::pair<std::__cxx11::basic_string<char, std::char_traits<char>, std::allocator<char> > const, std::pair<unsigned int, long> > >, std::__detail::_Select1st, std::equal_to<std::__cxx11::basic_string<char, std::char_traits<char>, std::allocator<char> > >, std::hash<std::__cxx11::basic_string<char, std::char_traits<char>, std::allocator<char> > >, std::__detail::_Mod_range_hashing, std::__detail::_Default_ranged_hash, std::__detail::_Prime_rehash_policy, std::__detail::_Hashtable_traits<true, false, true> >::operator=(std::_Hashtable<std::__cxx11::basic_string<char, std::char_traits<char>, std::allocator<char> >, std::pair<std::__cxx11::basic_string<char, std::char_traits<char>, std::allocator<char> > const, std::pair<unsigned int, long> >, std::allocator<std::pair<std::__cxx11::basic_string<char, std::char_traits<char>, std::allocator<char> > const, std::pair<unsigned int, long> > >, std::__detail::_Select1st, std::equal_to<std::__cxx11::basic_string<char, std::char_traits<char>, std::allocator<char> > >, std::hash<std::__cxx11::basic_string<char, std::char_traits<char>, std::allocator<char> > >, std::__detail::_Mod_range_hashing, std::__detail::_Default_ranged_hash, std::__detail::_Prime_rehash_policy, std::__detail::_Hashtable_traits<true, false, true> > const&)::{lambda(std::__detail::_Hash_node<std::pair<std::__cxx11::basic_string<char, std::char_traits<char>, std::allocator<char> > const, std::pair<unsigned int, long> >, true> const*)#2} const&)
PUBLIC f6a40 0 std::_Hashtable<std::__cxx11::basic_string<char, std::char_traits<char>, std::allocator<char> >, std::pair<std::__cxx11::basic_string<char, std::char_traits<char>, std::allocator<char> > const, std::pair<unsigned int, long> >, std::allocator<std::pair<std::__cxx11::basic_string<char, std::char_traits<char>, std::allocator<char> > const, std::pair<unsigned int, long> > >, std::__detail::_Select1st, std::equal_to<std::__cxx11::basic_string<char, std::char_traits<char>, std::allocator<char> > >, std::hash<std::__cxx11::basic_string<char, std::char_traits<char>, std::allocator<char> > >, std::__detail::_Mod_range_hashing, std::__detail::_Default_ranged_hash, std::__detail::_Prime_rehash_policy, std::__detail::_Hashtable_traits<true, false, true> >::operator=(std::_Hashtable<std::__cxx11::basic_string<char, std::char_traits<char>, std::allocator<char> >, std::pair<std::__cxx11::basic_string<char, std::char_traits<char>, std::allocator<char> > const, std::pair<unsigned int, long> >, std::allocator<std::pair<std::__cxx11::basic_string<char, std::char_traits<char>, std::allocator<char> > const, std::pair<unsigned int, long> > >, std::__detail::_Select1st, std::equal_to<std::__cxx11::basic_string<char, std::char_traits<char>, std::allocator<char> > >, std::hash<std::__cxx11::basic_string<char, std::char_traits<char>, std::allocator<char> > >, std::__detail::_Mod_range_hashing, std::__detail::_Default_ranged_hash, std::__detail::_Prime_rehash_policy, std::__detail::_Hashtable_traits<true, false, true> > const&)
PUBLIC f7b70 0 std::_Hashtable<std::__cxx11::basic_string<char, std::char_traits<char>, std::allocator<char> >, std::pair<std::__cxx11::basic_string<char, std::char_traits<char>, std::allocator<char> > const, std::pair<unsigned int, long> >, std::allocator<std::pair<std::__cxx11::basic_string<char, std::char_traits<char>, std::allocator<char> > const, std::pair<unsigned int, long> > >, std::__detail::_Select1st, std::equal_to<std::__cxx11::basic_string<char, std::char_traits<char>, std::allocator<char> > >, std::hash<std::__cxx11::basic_string<char, std::char_traits<char>, std::allocator<char> > >, std::__detail::_Mod_range_hashing, std::__detail::_Default_ranged_hash, std::__detail::_Prime_rehash_policy, std::__detail::_Hashtable_traits<true, false, true> >::_M_find_before_node(unsigned long, std::__cxx11::basic_string<char, std::char_traits<char>, std::allocator<char> > const&, unsigned long) const
PUBLIC f7c20 0 std::_Hashtable<std::__cxx11::basic_string<char, std::char_traits<char>, std::allocator<char> >, std::pair<std::__cxx11::basic_string<char, std::char_traits<char>, std::allocator<char> > const, std::pair<unsigned int, long> >, std::allocator<std::pair<std::__cxx11::basic_string<char, std::char_traits<char>, std::allocator<char> > const, std::pair<unsigned int, long> > >, std::__detail::_Select1st, std::equal_to<std::__cxx11::basic_string<char, std::char_traits<char>, std::allocator<char> > >, std::hash<std::__cxx11::basic_string<char, std::char_traits<char>, std::allocator<char> > >, std::__detail::_Mod_range_hashing, std::__detail::_Default_ranged_hash, std::__detail::_Prime_rehash_policy, std::__detail::_Hashtable_traits<true, false, true> >::find(std::__cxx11::basic_string<char, std::char_traits<char>, std::allocator<char> > const&)
PUBLIC f7c80 0 void std::vector<std::pair<std::__cxx11::basic_string<char, std::char_traits<char>, std::allocator<char> >, std::__cxx11::basic_string<char, std::char_traits<char>, std::allocator<char> > >, std::allocator<std::pair<std::__cxx11::basic_string<char, std::char_traits<char>, std::allocator<char> >, std::__cxx11::basic_string<char, std::char_traits<char>, std::allocator<char> > > > >::_M_emplace_back_aux<std::__cxx11::basic_string<char, std::char_traits<char>, std::allocator<char> >&, char const (&) [1]>(std::__cxx11::basic_string<char, std::char_traits<char>, std::allocator<char> >&, char const (&) [1])
PUBLIC f7f20 0 void std::vector<std::pair<std::__cxx11::basic_string<char, std::char_traits<char>, std::allocator<char> >, std::__cxx11::basic_string<char, std::char_traits<char>, std::allocator<char> > >, std::allocator<std::pair<std::__cxx11::basic_string<char, std::char_traits<char>, std::allocator<char> >, std::__cxx11::basic_string<char, std::char_traits<char>, std::allocator<char> > > > >::emplace_back<std::__cxx11::basic_string<char, std::char_traits<char>, std::allocator<char> >&, char const (&) [1]>(std::__cxx11::basic_string<char, std::char_traits<char>, std::allocator<char> >&, char const (&) [1])
PUBLIC f8040 0 std::_Hashtable<std::__cxx11::basic_string<char, std::char_traits<char>, std::allocator<char> >, std::pair<std::__cxx11::basic_string<char, std::char_traits<char>, std::allocator<char> > const, std::pair<unsigned int, long> >, std::allocator<std::pair<std::__cxx11::basic_string<char, std::char_traits<char>, std::allocator<char> > const, std::pair<unsigned int, long> > >, std::__detail::_Select1st, std::equal_to<std::__cxx11::basic_string<char, std::char_traits<char>, std::allocator<char> > >, std::hash<std::__cxx11::basic_string<char, std::char_traits<char>, std::allocator<char> > >, std::__detail::_Mod_range_hashing, std::__detail::_Default_ranged_hash, std::__detail::_Prime_rehash_policy, std::__detail::_Hashtable_traits<true, false, true> >::_M_rehash(unsigned long, unsigned long const&)
PUBLIC f8130 0 std::_Hashtable<std::__cxx11::basic_string<char, std::char_traits<char>, std::allocator<char> >, std::pair<std::__cxx11::basic_string<char, std::char_traits<char>, std::allocator<char> > const, std::pair<unsigned int, long> >, std::allocator<std::pair<std::__cxx11::basic_string<char, std::char_traits<char>, std::allocator<char> > const, std::pair<unsigned int, long> > >, std::__detail::_Select1st, std::equal_to<std::__cxx11::basic_string<char, std::char_traits<char>, std::allocator<char> > >, std::hash<std::__cxx11::basic_string<char, std::char_traits<char>, std::allocator<char> > >, std::__detail::_Mod_range_hashing, std::__detail::_Default_ranged_hash, std::__detail::_Prime_rehash_policy, std::__detail::_Hashtable_traits<true, false, true> >::_M_insert_unique_node(unsigned long, unsigned long, std::__detail::_Hash_node<std::pair<std::__cxx11::basic_string<char, std::char_traits<char>, std::allocator<char> > const, std::pair<unsigned int, long> >, true>*)
PUBLIC f8250 0 std::pair<std::__detail::_Node_iterator<std::pair<std::__cxx11::basic_string<char, std::char_traits<char>, std::allocator<char> > const, std::pair<unsigned int, long> >, false, true>, bool> std::_Hashtable<std::__cxx11::basic_string<char, std::char_traits<char>, std::allocator<char> >, std::pair<std::__cxx11::basic_string<char, std::char_traits<char>, std::allocator<char> > const, std::pair<unsigned int, long> >, std::allocator<std::pair<std::__cxx11::basic_string<char, std::char_traits<char>, std::allocator<char> > const, std::pair<unsigned int, long> > >, std::__detail::_Select1st, std::equal_to<std::__cxx11::basic_string<char, std::char_traits<char>, std::allocator<char> > >, std::hash<std::__cxx11::basic_string<char, std::char_traits<char>, std::allocator<char> > >, std::__detail::_Mod_range_hashing, std::__detail::_Default_ranged_hash, std::__detail::_Prime_rehash_policy, std::__detail::_Hashtable_traits<true, false, true> >::_M_emplace<std::__cxx11::basic_string<char, std::char_traits<char>, std::allocator<char> > const&, std::pair<unsigned int, long> >(std::integral_constant<bool, true>, std::__cxx11::basic_string<char, std::char_traits<char>, std::allocator<char> > const&, std::pair<unsigned int, long>&&)
PUBLIC f8350 0 std::pair<std::__detail::_Node_iterator<std::pair<std::__cxx11::basic_string<char, std::char_traits<char>, std::allocator<char> > const, std::pair<unsigned int, long> >, false, true>, bool> std::_Hashtable<std::__cxx11::basic_string<char, std::char_traits<char>, std::allocator<char> >, std::pair<std::__cxx11::basic_string<char, std::char_traits<char>, std::allocator<char> > const, std::pair<unsigned int, long> >, std::allocator<std::pair<std::__cxx11::basic_string<char, std::char_traits<char>, std::allocator<char> > const, std::pair<unsigned int, long> > >, std::__detail::_Select1st, std::equal_to<std::__cxx11::basic_string<char, std::char_traits<char>, std::allocator<char> > >, std::hash<std::__cxx11::basic_string<char, std::char_traits<char>, std::allocator<char> > >, std::__detail::_Mod_range_hashing, std::__detail::_Default_ranged_hash, std::__detail::_Prime_rehash_policy, std::__detail::_Hashtable_traits<true, false, true> >::_M_emplace<Str::BasicStringRef<char>&, std::pair<unsigned int, long> >(std::integral_constant<bool, true>, Str::BasicStringRef<char>&, std::pair<unsigned int, long>&&)
PUBLIC fb0c0 0 void std::vector<char, std::allocator<char> >::_M_range_insert<char*>(__gnu_cxx::__normal_iterator<char*, std::vector<char, std::allocator<char> > >, char*, char*, std::forward_iterator_tag)
PUBLIC fd140 0 std::__cxx11::basic_string<char32_t, std::char_traits<char32_t>, std::allocator<char32_t> >::_M_erase(unsigned long, unsigned long)
PUBLIC fd630 0 std::__cxx11::basic_string<char, std::char_traits<char>, std::allocator<char> > Cvar::GetCvarTypeName<Log::Level>()
PUBLIC fecd0 0 std::_Sp_counted_base<(__gnu_cxx::_Lock_policy)2>::_M_release()
PUBLIC 101200 0 operator new(unsigned long)
PUBLIC 101230 0 operator delete(void*)
PUBLIC 1045c0 0 std::vector<void*, std::allocator<void*> >::~vector()
PUBLIC 1052b0 0 void std::vector<void*, std::allocator<void*> >::_M_emplace_back_aux<void* const&>(void* const&)
PUBLIC 11e190 0 std::_Rb_tree_iterator<std::pair<std::__cxx11::basic_string<char, std::char_traits<char>, std::allocator<char> > const, std::__cxx11::basic_string<char, std::char_traits<char>, std::allocator<char> > > > std::_Rb_tree<std::__cxx11::basic_string<char, std::char_traits<char>, std::allocator<char> >, std::pair<std::__cxx11::basic_string<char, std::char_traits<char>, std::allocator<char> > const, std::__cxx11::basic_string<char, std::char_traits<char>, std::allocator<char> > >, std::_Select1st<std::pair<std::__cxx11::basic_string<char, std::char_traits<char>, std::allocator<char> > const, std::__cxx11::basic_string<char, std::char_traits<char>, std::allocator<char> > > >, std::less<std::__cxx11::basic_string<char, std::char_traits<char>, std::allocator<char> > >, std::allocator<std::pair<std::__cxx11::basic_string<char, std::char_traits<char>, std::allocator<char> > const, std::__cxx11::basic_string<char, std::char_traits<char>, std::allocator<char> > > > >::_M_emplace_hint_unique<std::piecewise_construct_t const&, std::tuple<std::__cxx11::basic_string<char, std::char_traits<char>, std::allocator<char> > const&>, std::tuple<> >(std::_Rb_tree_const_iterator<std::pair<std::__cxx11::basic_string<char, std::char_traits<char>, std::allocator<char> > const, std::__cxx11::basic_string<char, std::char_traits<char>, std::allocator<char> > > >, std::piecewise_construct_t const&, std::tuple<std::__cxx11::basic_string<char, std::char_traits<char>, std::allocator<char> > const&>&&, std::tuple<>&&)
PUBLIC 124e50 0 void std::vector<std::pair<std::__cxx11::basic_string<char, std::char_traits<char>, std::allocator<char> >, std::__cxx11::basic_string<char, std::char_traits<char>, std::allocator<char> > >, std::allocator<std::pair<std::__cxx11::basic_string<char, std::char_traits<char>, std::allocator<char> >, std::__cxx11::basic_string<char, std::char_traits<char>, std::allocator<char> > > > >::emplace_back<std::pair<std::__cxx11::basic_string<char, std::char_traits<char>, std::allocator<char> >, std::__cxx11::basic_string<char, std::char_traits<char>, std::allocator<char> > > >(std::pair<std::__cxx11::basic_string<char, std::char_traits<char>, std::allocator<char> >, std::__cxx11::basic_string<char, std::char_traits<char>, std::allocator<char> > >&&)
PUBLIC 125590 0 void std::vector<std::__cxx11::basic_string<char, std::char_traits<char>, std::allocator<char> > const*, std::allocator<std::__cxx11::basic_string<char, std::char_traits<char>, std::allocator<char> > const*> >::_M_emplace_back_aux<std::__cxx11::basic_string<char, std::char_traits<char>, std::allocator<char> > const*>(std::__cxx11::basic_string<char, std::char_traits<char>, std::allocator<char> > const*&&)
PUBLIC 12d3c0 0 std::vector<std::__cxx11::basic_string<char, std::char_traits<char>, std::allocator<char> >, std::allocator<std::__cxx11::basic_string<char, std::char_traits<char>, std::allocator<char> > > >::operator=(std::vector<std::__cxx11::basic_string<char, std::char_traits<char>, std::allocator<char> >, std::allocator<std::__cxx11::basic_string<char, std::char_traits<char>, std::allocator<char> > > > const&)
PUBLIC 138580 0 std::_Tuple_impl<0ul, std::__cxx11::basic_string<char, std::char_traits<char>, std::allocator<char> >, std::__cxx11::basic_string<char, std::char_traits<char>, std::allocator<char> > >::~_Tuple_impl()
PUBLIC 1387a0 0 std::_Tuple_impl<0ul, std::__cxx11::basic_string<char, std::char_traits<char>, std::allocator<char> >, std::__cxx11::basic_string<char, std::char_traits<char>, std::allocator<char> >, int>::~_Tuple_impl()
PUBLIC 138c30 0 std::_Hashtable<std::__cxx11::basic_string<char, std::char_traits<char>, std::allocator<char> >, std::pair<std::__cxx11::basic_string<char, std::char_traits<char>, std::allocator<char> > const, unsigned long>, std::allocator<std::pair<std::__cxx11::basic_string<char, std::char_traits<char>, std::allocator<char> > const, unsigned long> >, std::__detail::_Select1st, std::equal_to<std::__cxx11::basic_string<char, std::char_traits<char>, std::allocator<char> > >, std::hash<std::__cxx11::basic_string<char, std::char_traits<char>, std::allocator<char> > >, std::__detail::_Mod_range_hashing, std::__detail::_Default_ranged_hash, std::__detail::_Prime_rehash_policy, std::__detail::_Hashtable_traits<true, false, true> >::_M_insert_unique_node(unsigned long, unsigned long, std::__detail::_Hash_node<std::pair<std::__cxx11::basic_string<char, std::char_traits<char>, std::allocator<char> > const, unsigned long>, true>*)
PUBLIC 139060 0 std::_Hashtable<std::__cxx11::basic_string<char, std::char_traits<char>, std::allocator<char> >, std::pair<std::__cxx11::basic_string<char, std::char_traits<char>, std::allocator<char> > const, unsigned long>, std::allocator<std::pair<std::__cxx11::basic_string<char, std::char_traits<char>, std::allocator<char> > const, unsigned long> >, std::__detail::_Select1st, std::equal_to<std::__cxx11::basic_string<char, std::char_traits<char>, std::allocator<char> > >, std::hash<std::__cxx11::basic_string<char, std::char_traits<char>, std::allocator<char> > >, std::__detail::_Mod_range_hashing, std::__detail::_Default_ranged_hash, std::__detail::_Prime_rehash_policy, std::__detail::_Hashtable_traits<true, false, true> >::_M_find_before_node(unsigned long, std::__cxx11::basic_string<char, std::char_traits<char>, std::allocator<char> > const&, unsigned long) const
PUBLIC 13ae30 0 std::vector<std::pair<std::__cxx11::basic_string<char, std::char_traits<char>, std::allocator<char> >, std::__cxx11::basic_string<char, std::char_traits<char>, std::allocator<char> > >, std::allocator<std::pair<std::__cxx11::basic_string<char, std::char_traits<char>, std::allocator<char> >, std::__cxx11::basic_string<char, std::char_traits<char>, std::allocator<char> > > > >::_M_default_append(unsigned long)
PUBLIC 140210 0 std::__cxx11::basic_string<char32_t, std::char_traits<char32_t>, std::allocator<char32_t> >::_M_mutate(unsigned long, unsigned long, char32_t const*, unsigned long)
PUBLIC 140380 0 std::__cxx11::basic_string<char32_t, std::char_traits<char32_t>, std::allocator<char32_t> >::_M_replace(unsigned long, unsigned long, char32_t const*, unsigned long)
PUBLIC 1428f0 0 void std::vector<std::__cxx11::basic_string<char, std::char_traits<char>, std::allocator<char> >, std::allocator<std::__cxx11::basic_string<char, std::char_traits<char>, std::allocator<char> > > >::_M_emplace_back_aux<std::__cxx11::basic_string<char, std::char_traits<char>, std::allocator<char> >&, unsigned long&, unsigned long>(std::__cxx11::basic_string<char, std::char_traits<char>, std::allocator<char> >&, unsigned long&, unsigned long&&)
PUBLIC 152540 0 std::_Sp_counted_ptr_inplace<std::thread::_Impl<std::_Bind_simple<void (*())()> >, std::allocator<std::thread::_Impl<std::_Bind_simple<void (*())()> > >, (__gnu_cxx::_Lock_policy)2>::~_Sp_counted_ptr_inplace()
PUBLIC 152550 0 std::_Sp_counted_ptr_inplace<std::thread::_Impl<std::_Bind_simple<void (*())()> >, std::allocator<std::thread::_Impl<std::_Bind_simple<void (*())()> > >, (__gnu_cxx::_Lock_policy)2>::_M_dispose()
PUBLIC 152560 0 std::thread::_Impl<std::_Bind_simple<void (*())()> >::_M_run()
PUBLIC 152580 0 std::_Sp_counted_ptr_inplace<std::thread::_Impl<std::_Bind_simple<void (*())()> >, std::allocator<std::thread::_Impl<std::_Bind_simple<void (*())()> > >, (__gnu_cxx::_Lock_policy)2>::~_Sp_counted_ptr_inplace()
PUBLIC 152590 0 std::_Sp_counted_ptr_inplace<std::thread::_Impl<std::_Bind_simple<void (*())()> >, std::allocator<std::thread::_Impl<std::_Bind_simple<void (*())()> > >, (__gnu_cxx::_Lock_policy)2>::_M_destroy()
PUBLIC 1525a0 0 std::_Sp_counted_ptr_inplace<std::thread::_Impl<std::_Bind_simple<void (*())()> >, std::allocator<std::thread::_Impl<std::_Bind_simple<void (*())()> > >, (__gnu_cxx::_Lock_policy)2>::_M_get_deleter(std::type_info const&)
PUBLIC 1525d0 0 std::thread::_Impl<std::_Bind_simple<void (*())()> >::~_Impl()
PUBLIC 152650 0 std::thread::_Impl<std::_Bind_simple<void (*())()> >::~_Impl()
PUBLIC 152900 0 std::__cxx11::basic_string<char, std::char_traits<char>, std::allocator<char> > std::operator+<char, std::char_traits<char>, std::allocator<char> >(std::__cxx11::basic_string<char, std::char_traits<char>, std::allocator<char> >&&, std::__cxx11::basic_string<char, std::char_traits<char>, std::allocator<char> > const&)
PUBLIC 1529d0 0 std::thread::thread<void (&)()>(void (&)())
PUBLIC 152b10 0 void std::vector<std::__cxx11::basic_string<char, std::char_traits<char>, std::allocator<char> >, std::allocator<std::__cxx11::basic_string<char, std::char_traits<char>, std::allocator<char> > > >::emplace_back<std::__cxx11::basic_string<char, std::char_traits<char>, std::allocator<char> > >(std::__cxx11::basic_string<char, std::char_traits<char>, std::allocator<char> >&&)
PUBLIC 153a10 0 std::_Hashtable<std::__cxx11::basic_string<char, std::char_traits<char>, std::allocator<char> >, std::pair<std::__cxx11::basic_string<char, std::char_traits<char>, std::allocator<char> > const, std::__cxx11::basic_string<char, std::char_traits<char>, std::allocator<char> > >, std::allocator<std::pair<std::__cxx11::basic_string<char, std::char_traits<char>, std::allocator<char> > const, std::__cxx11::basic_string<char, std::char_traits<char>, std::allocator<char> > > >, std::__detail::_Select1st, std::equal_to<std::__cxx11::basic_string<char, std::char_traits<char>, std::allocator<char> > >, std::hash<std::__cxx11::basic_string<char, std::char_traits<char>, std::allocator<char> > >, std::__detail::_Mod_range_hashing, std::__detail::_Default_ranged_hash, std::__detail::_Prime_rehash_policy, std::__detail::_Hashtable_traits<true, false, true> >::_M_insert_unique_node(unsigned long, unsigned long, std::__detail::_Hash_node<std::pair<std::__cxx11::basic_string<char, std::char_traits<char>, std::allocator<char> > const, std::__cxx11::basic_string<char, std::char_traits<char>, std::allocator<char> > >, true>*)
PUBLIC 153c30 0 void std::vector<std::__cxx11::basic_string<char, std::char_traits<char>, std::allocator<char> >, std::allocator<std::__cxx11::basic_string<char, std::char_traits<char>, std::allocator<char> > > >::_M_insert_aux<std::__cxx11::basic_string<char, std::char_traits<char>, std::allocator<char> > >(__gnu_cxx::__normal_iterator<std::__cxx11::basic_string<char, std::char_traits<char>, std::allocator<char> >*, std::vector<std::__cxx11::basic_string<char, std::char_traits<char>, std::allocator<char> >, std::allocator<std::__cxx11::basic_string<char, std::char_traits<char>, std::allocator<char> > > > >, std::__cxx11::basic_string<char, std::char_traits<char>, std::allocator<char> >&&)
PUBLIC 154070 0 std::_Hashtable<std::__cxx11::basic_string<char, std::char_traits<char>, std::allocator<char> >, std::pair<std::__cxx11::basic_string<char, std::char_traits<char>, std::allocator<char> > const, std::__cxx11::basic_string<char, std::char_traits<char>, std::allocator<char> > >, std::allocator<std::pair<std::__cxx11::basic_string<char, std::char_traits<char>, std::allocator<char> > const, std::__cxx11::basic_string<char, std::char_traits<char>, std::allocator<char> > > >, std::__detail::_Select1st, std::equal_to<std::__cxx11::basic_string<char, std::char_traits<char>, std::allocator<char> > >, std::hash<std::__cxx11::basic_string<char, std::char_traits<char>, std::allocator<char> > >, std::__detail::_Mod_range_hashing, std::__detail::_Default_ranged_hash, std::__detail::_Prime_rehash_policy, std::__detail::_Hashtable_traits<true, false, true> >::_M_find_before_node(unsigned long, std::__cxx11::basic_string<char, std::char_traits<char>, std::allocator<char> > const&, unsigned long) const
PUBLIC 157ae0 0 void std::vector<char const*, std::allocator<char const*> >::_M_emplace_back_aux<char const*>(char const*&&)
PUBLIC 157bd0 0 void std::vector<char const*, std::allocator<char const*> >::emplace_back<char const*>(char const*&&)
PUBLIC 15a5e0 0 std::vector<unsigned char, std::allocator<unsigned char> >::operator=(std::vector<unsigned char, std::allocator<unsigned char> > const&)
PUBLIC 15a700 0 void std::vector<unsigned char, std::allocator<unsigned char> >::emplace_back<unsigned char>(unsigned char&&)
PUBLIC 15a7e0 0 std::vector<unsigned char, std::allocator<unsigned char> >::_M_erase(__gnu_cxx::__normal_iterator<unsigned char*, std::vector<unsigned char, std::allocator<unsigned char> > >, __gnu_cxx::__normal_iterator<unsigned char*, std::vector<unsigned char, std::allocator<unsigned char> > >)
PUBLIC 15a840 0 std::vector<unsigned char, std::allocator<unsigned char> >::_M_fill_insert(__gnu_cxx::__normal_iterator<unsigned char*, std::vector<unsigned char, std::allocator<unsigned char> > >, unsigned long, unsigned char const&)
PUBLIC 15b970 0 std::__cxx11::basic_string<unsigned char, std::char_traits<unsigned char>, std::allocator<unsigned char> >::_M_mutate(unsigned long, unsigned long, unsigned char const*, unsigned long)
PUBLIC 15bae0 0 std::__cxx11::basic_string<unsigned char, std::char_traits<unsigned char>, std::allocator<unsigned char> >::_M_replace(unsigned long, unsigned long, unsigned char const*, unsigned long)
PUBLIC 164c30 0 std::_Rb_tree<std::__cxx11::basic_string<char, std::char_traits<char>, std::allocator<char> >, std::pair<std::__cxx11::basic_string<char, std::char_traits<char>, std::allocator<char> > const, std::vector<std::__cxx11::basic_string<char, std::char_traits<char>, std::allocator<char> >, std::allocator<std::__cxx11::basic_string<char, std::char_traits<char>, std::allocator<char> > > > >, std::_Select1st<std::pair<std::__cxx11::basic_string<char, std::char_traits<char>, std::allocator<char> > const, std::vector<std::__cxx11::basic_string<char, std::char_traits<char>, std::allocator<char> >, std::allocator<std::__cxx11::basic_string<char, std::char_traits<char>, std::allocator<char> > > > > >, std::less<std::__cxx11::basic_string<char, std::char_traits<char>, std::allocator<char> > >, std::allocator<std::pair<std::__cxx11::basic_string<char, std::char_traits<char>, std::allocator<char> > const, std::vector<std::__cxx11::basic_string<char, std::char_traits<char>, std::allocator<char> >, std::allocator<std::__cxx11::basic_string<char, std::char_traits<char>, std::allocator<char> > > > > > >::_M_erase(std::_Rb_tree_node<std::pair<std::__cxx11::basic_string<char, std::char_traits<char>, std::allocator<char> > const, std::vector<std::__cxx11::basic_string<char, std::char_traits<char>, std::allocator<char> >, std::allocator<std::__cxx11::basic_string<char, std::char_traits<char>, std::allocator<char> > > > > >*)
PUBLIC 164ce0 0 std::_Rb_tree<std::__cxx11::basic_string<char, std::char_traits<char>, std::allocator<char> >, std::pair<std::__cxx11::basic_string<char, std::char_traits<char>, std::allocator<char> > const, std::map<std::__cxx11::basic_string<char, std::char_traits<char>, std::allocator<char> >, std::vector<std::__cxx11::basic_string<char, std::char_traits<char>, std::allocator<char> >, std::allocator<std::__cxx11::basic_string<char, std::char_traits<char>, std::allocator<char> > > >, std::less<std::__cxx11::basic_string<char, std::char_traits<char>, std::allocator<char> > >, std::allocator<std::pair<std::__cxx11::basic_string<char, std::char_traits<char>, std::allocator<char> > const, std::vector<std::__cxx11::basic_string<char, std::char_traits<char>, std::allocator<char> >, std::allocator<std::__cxx11::basic_string<char, std::char_traits<char>, std::allocator<char> > > > > > > >, std::_Select1st<std::pair<std::__cxx11::basic_string<char, std::char_traits<char>, std::allocator<char> > const, std::map<std::__cxx11::basic_string<char, std::char_traits<char>, std::allocator<char> >, std::vector<std::__cxx11::basic_string<char, std::char_traits<char>, std::allocator<char> >, std::allocator<std::__cxx11::basic_string<char, std::char_traits<char>, std::allocator<char> > > >, std::less<std::__cxx11::basic_string<char, std::char_traits<char>, std::allocator<char> > >, std::allocator<std::pair<std::__cxx11::basic_string<char, std::char_traits<char>, std::allocator<char> > const, std::vector<std::__cxx11::basic_string<char, std::char_traits<char>, std::allocator<char> >, std::allocator<std::__cxx11::basic_string<char, std::char_traits<char>, std::allocator<char> > > > > > > > >, std::less<std::__cxx11::basic_string<char, std::char_traits<char>, std::allocator<char> > >, std::allocator<std::pair<std::__cxx11::basic_string<char, std::char_traits<char>, std::allocator<char> > const, std::map<std::__cxx11::basic_string<char, std::char_traits<char>, std::allocator<char> >, std::vector<std::__cxx11::basic_string<char, std::char_traits<char>, std::allocator<char> >, std::allocator<std::__cxx11::basic_string<char, std::char_traits<char>, std::allocator<char> > > >, std::less<std::__cxx11::basic_string<char, std::char_traits<char>, std::allocator<char> > >, std::allocator<std::pair<std::__cxx11::basic_string<char, std::char_traits<char>, std::allocator<char> > const, std::vector<std::__cxx11::basic_string<char, std::char_traits<char>, std::allocator<char> >, std::allocator<std::__cxx11::basic_string<char, std::char_traits<char>, std::allocator<char> > > > > > > > > >::_M_erase(std::_Rb_tree_node<std::pair<std::__cxx11::basic_string<char, std::char_traits<char>, std::allocator<char> > const, std::map<std::__cxx11::basic_string<char, std::char_traits<char>, std::allocator<char> >, std::vector<std::__cxx11::basic_string<char, std::char_traits<char>, std::allocator<char> >, std::allocator<std::__cxx11::basic_string<char, std::char_traits<char>, std::allocator<char> > > >, std::less<std::__cxx11::basic_string<char, std::char_traits<char>, std::allocator<char> > >, std::allocator<std::pair<std::__cxx11::basic_string<char, std::char_traits<char>, std::allocator<char> > const, std::vector<std::__cxx11::basic_string<char, std::char_traits<char>, std::allocator<char> >, std::allocator<std::__cxx11::basic_string<char, std::char_traits<char>, std::allocator<char> > > > > > > > >*)
PUBLIC 164d40 0 std::_Rb_tree<std::__cxx11::basic_string<char, std::char_traits<char>, std::allocator<char> >, std::pair<std::__cxx11::basic_string<char, std::char_traits<char>, std::allocator<char> > const, std::vector<std::__cxx11::basic_string<char, std::char_traits<char>, std::allocator<char> >, std::allocator<std::__cxx11::basic_string<char, std::char_traits<char>, std::allocator<char> > > > >, std::_Select1st<std::pair<std::__cxx11::basic_string<char, std::char_traits<char>, std::allocator<char> > const, std::vector<std::__cxx11::basic_string<char, std::char_traits<char>, std::allocator<char> >, std::allocator<std::__cxx11::basic_string<char, std::char_traits<char>, std::allocator<char> > > > > >, std::less<std::__cxx11::basic_string<char, std::char_traits<char>, std::allocator<char> > >, std::allocator<std::pair<std::__cxx11::basic_string<char, std::char_traits<char>, std::allocator<char> > const, std::vector<std::__cxx11::basic_string<char, std::char_traits<char>, std::allocator<char> >, std::allocator<std::__cxx11::basic_string<char, std::char_traits<char>, std::allocator<char> > > > > > >::find(std::__cxx11::basic_string<char, std::char_traits<char>, std::allocator<char> > const&) const
PUBLIC 164e50 0 std::_Rb_tree<std::__cxx11::basic_string<char, std::char_traits<char>, std::allocator<char> >, std::pair<std::__cxx11::basic_string<char, std::char_traits<char>, std::allocator<char> > const, std::map<std::__cxx11::basic_string<char, std::char_traits<char>, std::allocator<char> >, std::vector<std::__cxx11::basic_string<char, std::char_traits<char>, std::allocator<char> >, std::allocator<std::__cxx11::basic_string<char, std::char_traits<char>, std::allocator<char> > > >, std::less<std::__cxx11::basic_string<char, std::char_traits<char>, std::allocator<char> > >, std::allocator<std::pair<std::__cxx11::basic_string<char, std::char_traits<char>, std::allocator<char> > const, std::vector<std::__cxx11::basic_string<char, std::char_traits<char>, std::allocator<char> >, std::allocator<std::__cxx11::basic_string<char, std::char_traits<char>, std::allocator<char> > > > > > > >, std::_Select1st<std::pair<std::__cxx11::basic_string<char, std::char_traits<char>, std::allocator<char> > const, std::map<std::__cxx11::basic_string<char, std::char_traits<char>, std::allocator<char> >, std::vector<std::__cxx11::basic_string<char, std::char_traits<char>, std::allocator<char> >, std::allocator<std::__cxx11::basic_string<char, std::char_traits<char>, std::allocator<char> > > >, std::less<std::__cxx11::basic_string<char, std::char_traits<char>, std::allocator<char> > >, std::allocator<std::pair<std::__cxx11::basic_string<char, std::char_traits<char>, std::allocator<char> > const, std::vector<std::__cxx11::basic_string<char, std::char_traits<char>, std::allocator<char> >, std::allocator<std::__cxx11::basic_string<char, std::char_traits<char>, std::allocator<char> > > > > > > > >, std::less<std::__cxx11::basic_string<char, std::char_traits<char>, std::allocator<char> > >, std::allocator<std::pair<std::__cxx11::basic_string<char, std::char_traits<char>, std::allocator<char> > const, std::map<std::__cxx11::basic_string<char, std::char_traits<char>, std::allocator<char> >, std::vector<std::__cxx11::basic_string<char, std::char_traits<char>, std::allocator<char> >, std::allocator<std::__cxx11::basic_string<char, std::char_traits<char>, std::allocator<char> > > >, std::less<std::__cxx11::basic_string<char, std::char_traits<char>, std::allocator<char> > >, std::allocator<std::pair<std::__cxx11::basic_string<char, std::char_traits<char>, std::allocator<char> > const, std::vector<std::__cxx11::basic_string<char, std::char_traits<char>, std::allocator<char> >, std::allocator<std::__cxx11::basic_string<char, std::char_traits<char>, std::allocator<char> > > > > > > > > >::find(std::__cxx11::basic_string<char, std::char_traits<char>, std::allocator<char> > const&)
PUBLIC 164f60 0 std::_Rb_tree<std::__cxx11::basic_string<char, std::char_traits<char>, std::allocator<char> >, std::pair<std::__cxx11::basic_string<char, std::char_traits<char>, std::allocator<char> > const, std::vector<std::__cxx11::basic_string<char, std::char_traits<char>, std::allocator<char> >, std::allocator<std::__cxx11::basic_string<char, std::char_traits<char>, std::allocator<char> > > > >, std::_Select1st<std::pair<std::__cxx11::basic_string<char, std::char_traits<char>, std::allocator<char> > const, std::vector<std::__cxx11::basic_string<char, std::char_traits<char>, std::allocator<char> >, std::allocator<std::__cxx11::basic_string<char, std::char_traits<char>, std::allocator<char> > > > > >, std::less<std::__cxx11::basic_string<char, std::char_traits<char>, std::allocator<char> > >, std::allocator<std::pair<std::__cxx11::basic_string<char, std::char_traits<char>, std::allocator<char> > const, std::vector<std::__cxx11::basic_string<char, std::char_traits<char>, std::allocator<char> >, std::allocator<std::__cxx11::basic_string<char, std::char_traits<char>, std::allocator<char> > > > > > >::_M_get_insert_unique_pos(std::__cxx11::basic_string<char, std::char_traits<char>, std::allocator<char> > const&)
PUBLIC 1650b0 0 std::_Rb_tree<std::__cxx11::basic_string<char, std::char_traits<char>, std::allocator<char> >, std::pair<std::__cxx11::basic_string<char, std::char_traits<char>, std::allocator<char> > const, std::vector<std::__cxx11::basic_string<char, std::char_traits<char>, std::allocator<char> >, std::allocator<std::__cxx11::basic_string<char, std::char_traits<char>, std::allocator<char> > > > >, std::_Select1st<std::pair<std::__cxx11::basic_string<char, std::char_traits<char>, std::allocator<char> > const, std::vector<std::__cxx11::basic_string<char, std::char_traits<char>, std::allocator<char> >, std::allocator<std::__cxx11::basic_string<char, std::char_traits<char>, std::allocator<char> > > > > >, std::less<std::__cxx11::basic_string<char, std::char_traits<char>, std::allocator<char> > >, std::allocator<std::pair<std::__cxx11::basic_string<char, std::char_traits<char>, std::allocator<char> > const, std::vector<std::__cxx11::basic_string<char, std::char_traits<char>, std::allocator<char> >, std::allocator<std::__cxx11::basic_string<char, std::char_traits<char>, std::allocator<char> > > > > > >::_M_get_insert_hint_unique_pos(std::_Rb_tree_const_iterator<std::pair<std::__cxx11::basic_string<char, std::char_traits<char>, std::allocator<char> > const, std::vector<std::__cxx11::basic_string<char, std::char_traits<char>, std::allocator<char> >, std::allocator<std::__cxx11::basic_string<char, std::char_traits<char>, std::allocator<char> > > > > >, std::__cxx11::basic_string<char, std::char_traits<char>, std::allocator<char> > const&)
PUBLIC 165360 0 std::_Rb_tree_iterator<std::pair<std::__cxx11::basic_string<char, std::char_traits<char>, std::allocator<char> > const, std::vector<std::__cxx11::basic_string<char, std::char_traits<char>, std::allocator<char> >, std::allocator<std::__cxx11::basic_string<char, std::char_traits<char>, std::allocator<char> > > > > > std::_Rb_tree<std::__cxx11::basic_string<char, std::char_traits<char>, std::allocator<char> >, std::pair<std::__cxx11::basic_string<char, std::char_traits<char>, std::allocator<char> > const, std::vector<std::__cxx11::basic_string<char, std::char_traits<char>, std::allocator<char> >, std::allocator<std::__cxx11::basic_string<char, std::char_traits<char>, std::allocator<char> > > > >, std::_Select1st<std::pair<std::__cxx11::basic_string<char, std::char_traits<char>, std::allocator<char> > const, std::vector<std::__cxx11::basic_string<char, std::char_traits<char>, std::allocator<char> >, std::allocator<std::__cxx11::basic_string<char, std::char_traits<char>, std::allocator<char> > > > > >, std::less<std::__cxx11::basic_string<char, std::char_traits<char>, std::allocator<char> > >, std::allocator<std::pair<std::__cxx11::basic_string<char, std::char_traits<char>, std::allocator<char> > const, std::vector<std::__cxx11::basic_string<char, std::char_traits<char>, std::allocator<char> >, std::allocator<std::__cxx11::basic_string<char, std::char_traits<char>, std::allocator<char> > > > > > >::_M_emplace_hint_unique<std::piecewise_construct_t const&, std::tuple<std::__cxx11::basic_string<char, std::char_traits<char>, std::allocator<char> > const&>, std::tuple<> >(std::_Rb_tree_const_iterator<std::pair<std::__cxx11::basic_string<char, std::char_traits<char>, std::allocator<char> > const, std::vector<std::__cxx11::basic_string<char, std::char_traits<char>, std::allocator<char> >, std::allocator<std::__cxx11::basic_string<char, std::char_traits<char>, std::allocator<char> > > > > >, std::piecewise_construct_t const&, std::tuple<std::__cxx11::basic_string<char, std::char_traits<char>, std::allocator<char> > const&>&&, std::tuple<>&&)
PUBLIC 165510 0 std::_Rb_tree<std::__cxx11::basic_string<char, std::char_traits<char>, std::allocator<char> >, std::pair<std::__cxx11::basic_string<char, std::char_traits<char>, std::allocator<char> > const, std::map<std::__cxx11::basic_string<char, std::char_traits<char>, std::allocator<char> >, std::vector<std::__cxx11::basic_string<char, std::char_traits<char>, std::allocator<char> >, std::allocator<std::__cxx11::basic_string<char, std::char_traits<char>, std::allocator<char> > > >, std::less<std::__cxx11::basic_string<char, std::char_traits<char>, std::allocator<char> > >, std::allocator<std::pair<std::__cxx11::basic_string<char, std::char_traits<char>, std::allocator<char> > const, std::vector<std::__cxx11::basic_string<char, std::char_traits<char>, std::allocator<char> >, std::allocator<std::__cxx11::basic_string<char, std::char_traits<char>, std::allocator<char> > > > > > > >, std::_Select1st<std::pair<std::__cxx11::basic_string<char, std::char_traits<char>, std::allocator<char> > const, std::map<std::__cxx11::basic_string<char, std::char_traits<char>, std::allocator<char> >, std::vector<std::__cxx11::basic_string<char, std::char_traits<char>, std::allocator<char> >, std::allocator<std::__cxx11::basic_string<char, std::char_traits<char>, std::allocator<char> > > >, std::less<std::__cxx11::basic_string<char, std::char_traits<char>, std::allocator<char> > >, std::allocator<std::pair<std::__cxx11::basic_string<char, std::char_traits<char>, std::allocator<char> > const, std::vector<std::__cxx11::basic_string<char, std::char_traits<char>, std::allocator<char> >, std::allocator<std::__cxx11::basic_string<char, std::char_traits<char>, std::allocator<char> > > > > > > > >, std::less<std::__cxx11::basic_string<char, std::char_traits<char>, std::allocator<char> > >, std::allocator<std::pair<std::__cxx11::basic_string<char, std::char_traits<char>, std::allocator<char> > const, std::map<std::__cxx11::basic_string<char, std::char_traits<char>, std::allocator<char> >, std::vector<std::__cxx11::basic_string<char, std::char_traits<char>, std::allocator<char> >, std::allocator<std::__cxx11::basic_string<char, std::char_traits<char>, std::allocator<char> > > >, std::less<std::__cxx11::basic_string<char, std::char_traits<char>, std::allocator<char> > >, std::allocator<std::pair<std::__cxx11::basic_string<char, std::char_traits<char>, std::allocator<char> > const, std::vector<std::__cxx11::basic_string<char, std::char_traits<char>, std::allocator<char> >, std::allocator<std::__cxx11::basic_string<char, std::char_traits<char>, std::allocator<char> > > > > > > > > >::_M_get_insert_unique_pos(std::__cxx11::basic_string<char, std::char_traits<char>, std::allocator<char> > const&)
PUBLIC 165660 0 std::_Rb_tree<std::__cxx11::basic_string<char, std::char_traits<char>, std::allocator<char> >, std::pair<std::__cxx11::basic_string<char, std::char_traits<char>, std::allocator<char> > const, std::map<std::__cxx11::basic_string<char, std::char_traits<char>, std::allocator<char> >, std::vector<std::__cxx11::basic_string<char, std::char_traits<char>, std::allocator<char> >, std::allocator<std::__cxx11::basic_string<char, std::char_traits<char>, std::allocator<char> > > >, std::less<std::__cxx11::basic_string<char, std::char_traits<char>, std::allocator<char> > >, std::allocator<std::pair<std::__cxx11::basic_string<char, std::char_traits<char>, std::allocator<char> > const, std::vector<std::__cxx11::basic_string<char, std::char_traits<char>, std::allocator<char> >, std::allocator<std::__cxx11::basic_string<char, std::char_traits<char>, std::allocator<char> > > > > > > >, std::_Select1st<std::pair<std::__cxx11::basic_string<char, std::char_traits<char>, std::allocator<char> > const, std::map<std::__cxx11::basic_string<char, std::char_traits<char>, std::allocator<char> >, std::vector<std::__cxx11::basic_string<char, std::char_traits<char>, std::allocator<char> >, std::allocator<std::__cxx11::basic_string<char, std::char_traits<char>, std::allocator<char> > > >, std::less<std::__cxx11::basic_string<char, std::char_traits<char>, std::allocator<char> > >, std::allocator<std::pair<std::__cxx11::basic_string<char, std::char_traits<char>, std::allocator<char> > const, std::vector<std::__cxx11::basic_string<char, std::char_traits<char>, std::allocator<char> >, std::allocator<std::__cxx11::basic_string<char, std::char_traits<char>, std::allocator<char> > > > > > > > >, std::less<std::__cxx11::basic_string<char, std::char_traits<char>, std::allocator<char> > >, std::allocator<std::pair<std::__cxx11::basic_string<char, std::char_traits<char>, std::allocator<char> > const, std::map<std::__cxx11::basic_string<char, std::char_traits<char>, std::allocator<char> >, std::vector<std::__cxx11::basic_string<char, std::char_traits<char>, std::allocator<char> >, std::allocator<std::__cxx11::basic_string<char, std::char_traits<char>, std::allocator<char> > > >, std::less<std::__cxx11::basic_string<char, std::char_traits<char>, std::allocator<char> > >, std::allocator<std::pair<std::__cxx11::basic_string<char, std::char_traits<char>, std::allocator<char> > const, std::vector<std::__cxx11::basic_string<char, std::char_traits<char>, std::allocator<char> >, std::allocator<std::__cxx11::basic_string<char, std::char_traits<char>, std::allocator<char> > > > > > > > > >::_M_get_insert_hint_unique_pos(std::_Rb_tree_const_iterator<std::pair<std::__cxx11::basic_string<char, std::char_traits<char>, std::allocator<char> > const, std::map<std::__cxx11::basic_string<char, std::char_traits<char>, std::allocator<char> >, std::vector<std::__cxx11::basic_string<char, std::char_traits<char>, std::allocator<char> >, std::allocator<std::__cxx11::basic_string<char, std::char_traits<char>, std::allocator<char> > > >, std::less<std::__cxx11::basic_string<char, std::char_traits<char>, std::allocator<char> > >, std::allocator<std::pair<std::__cxx11::basic_string<char, std::char_traits<char>, std::allocator<char> > const, std::vector<std::__cxx11::basic_string<char, std::char_traits<char>, std::allocator<char> >, std::allocator<std::__cxx11::basic_string<char, std::char_traits<char>, std::allocator<char> > > > > > > > >, std::__cxx11::basic_string<char, std::char_traits<char>, std::allocator<char> > const&)
PUBLIC 165910 0 std::_Rb_tree_iterator<std::pair<std::__cxx11::basic_string<char, std::char_traits<char>, std::allocator<char> > const, std::map<std::__cxx11::basic_string<char, std::char_traits<char>, std::allocator<char> >, std::vector<std::__cxx11::basic_string<char, std::char_traits<char>, std::allocator<char> >, std::allocator<std::__cxx11::basic_string<char, std::char_traits<char>, std::allocator<char> > > >, std::less<std::__cxx11::basic_string<char, std::char_traits<char>, std::allocator<char> > >, std::allocator<std::pair<std::__cxx11::basic_string<char, std::char_traits<char>, std::allocator<char> > const, std::vector<std::__cxx11::basic_string<char, std::char_traits<char>, std::allocator<char> >, std::allocator<std::__cxx11::basic_string<char, std::char_traits<char>, std::allocator<char> > > > > > > > > std::_Rb_tree<std::__cxx11::basic_string<char, std::char_traits<char>, std::allocator<char> >, std::pair<std::__cxx11::basic_string<char, std::char_traits<char>, std::allocator<char> > const, std::map<std::__cxx11::basic_string<char, std::char_traits<char>, std::allocator<char> >, std::vector<std::__cxx11::basic_string<char, std::char_traits<char>, std::allocator<char> >, std::allocator<std::__cxx11::basic_string<char, std::char_traits<char>, std::allocator<char> > > >, std::less<std::__cxx11::basic_string<char, std::char_traits<char>, std::allocator<char> > >, std::allocator<std::pair<std::__cxx11::basic_string<char, std::char_traits<char>, std::allocator<char> > const, std::vector<std::__cxx11::basic_string<char, std::char_traits<char>, std::allocator<char> >, std::allocator<std::__cxx11::basic_string<char, std::char_traits<char>, std::allocator<char> > > > > > > >, std::_Select1st<std::pair<std::__cxx11::basic_string<char, std::char_traits<char>, std::allocator<char> > const, std::map<std::__cxx11::basic_string<char, std::char_traits<char>, std::allocator<char> >, std::vector<std::__cxx11::basic_string<char, std::char_traits<char>, std::allocator<char> >, std::allocator<std::__cxx11::basic_string<char, std::char_traits<char>, std::allocator<char> > > >, std::less<std::__cxx11::basic_string<char, std::char_traits<char>, std::allocator<char> > >, std::allocator<std::pair<std::__cxx11::basic_string<char, std::char_traits<char>, std::allocator<char> > const, std::vector<std::__cxx11::basic_string<char, std::char_traits<char>, std::allocator<char> >, std::allocator<std::__cxx11::basic_string<char, std::char_traits<char>, std::allocator<char> > > > > > > > >, std::less<std::__cxx11::basic_string<char, std::char_traits<char>, std::allocator<char> > >, std::allocator<std::pair<std::__cxx11::basic_string<char, std::char_traits<char>, std::allocator<char> > const, std::map<std::__cxx11::basic_string<char, std::char_traits<char>, std::allocator<char> >, std::vector<std::__cxx11::basic_string<char, std::char_traits<char>, std::allocator<char> >, std::allocator<std::__cxx11::basic_string<char, std::char_traits<char>, std::allocator<char> > > >, std::less<std::__cxx11::basic_string<char, std::char_traits<char>, std::allocator<char> > >, std::allocator<std::pair<std::__cxx11::basic_string<char, std::char_traits<char>, std::allocator<char> > const, std::vector<std::__cxx11::basic_string<char, std::char_traits<char>, std::allocator<char> >, std::allocator<std::__cxx11::basic_string<char, std::char_traits<char>, std::allocator<char> > > > > > > > > >::_M_emplace_hint_unique<std::piecewise_construct_t const&, std::tuple<std::__cxx11::basic_string<char, std::char_traits<char>, std::allocator<char> > const&>, std::tuple<> >(std::_Rb_tree_const_iterator<std::pair<std::__cxx11::basic_string<char, std::char_traits<char>, std::allocator<char> > const, std::map<std::__cxx11::basic_string<char, std::char_traits<char>, std::allocator<char> >, std::vector<std::__cxx11::basic_string<char, std::char_traits<char>, std::allocator<char> >, std::allocator<std::__cxx11::basic_string<char, std::char_traits<char>, std::allocator<char> > > >, std::less<std::__cxx11::basic_string<char, std::char_traits<char>, std::allocator<char> > >, std::allocator<std::pair<std::__cxx11::basic_string<char, std::char_traits<char>, std::allocator<char> > const, std::vector<std::__cxx11::basic_string<char, std::char_traits<char>, std::allocator<char> >, std::allocator<std::__cxx11::basic_string<char, std::char_traits<char>, std::allocator<char> > > > > > > > >, std::piecewise_construct_t const&, std::tuple<std::__cxx11::basic_string<char, std::char_traits<char>, std::allocator<char> > const&>&&, std::tuple<>&&)
PUBLIC 16a590 0 std::map<std::__cxx11::basic_string<char, std::char_traits<char>, std::allocator<char> >, std::__cxx11::basic_string<char, std::char_traits<char>, std::allocator<char> >, std::less<std::__cxx11::basic_string<char, std::char_traits<char>, std::allocator<char> > >, std::allocator<std::pair<std::__cxx11::basic_string<char, std::char_traits<char>, std::allocator<char> > const, std::__cxx11::basic_string<char, std::char_traits<char>, std::allocator<char> > > > >::~map()
PUBLIC 198880 0 std::vector<unsigned short, std::allocator<unsigned short> >::_M_fill_insert(__gnu_cxx::__normal_iterator<unsigned short*, std::vector<unsigned short, std::allocator<unsigned short> > >, unsigned long, unsigned short const&)
PUBLIC 198b40 0 std::vector<unsigned short, std::allocator<unsigned short> >::_M_default_append(unsigned long)
PUBLIC 19e640 0 __libc_csu_init
PUBLIC 19e6b0 0 __libc_csu_fini
PUBLIC 19e6b4 0 _fini
STACK CFI INIT 223d0 2a .cfa: $rsp 8 + .ra: .cfa -8 + ^
STACK CFI INIT 192d0 10 .cfa: $rsp 16 + .ra: .cfa -8 + ^
STACK CFI 192d6 .cfa: $rsp 24 +
STACK CFI INIT 23f60 3 .cfa: $rsp 8 + .ra: .cfa -8 + ^
STACK CFI INIT 23f70 2 .cfa: $rsp 8 + .ra: .cfa -8 + ^
STACK CFI INIT 23f80 5 .cfa: $rsp 8 + .ra: .cfa -8 + ^
STACK CFI INIT 22500 1f .cfa: $rsp 8 + .ra: .cfa -8 + ^
STACK CFI 22501 $rbx: .cfa -16 + ^ .cfa: $rsp 16 +
STACK CFI 2251a .cfa: $rsp 8 +
STACK CFI INIT 23f90 6e .cfa: $rsp 8 + .ra: .cfa -8 + ^
STACK CFI 23f91 $rbp: .cfa -16 + ^ .cfa: $rsp 16 +
STACK CFI 23f92 $rbx: .cfa -24 + ^ .cfa: $rsp 24 +
STACK CFI 23f99 .cfa: $rsp 32 +
STACK CFI 23ff0 .cfa: $rsp 24 +
STACK CFI 23ff1 .cfa: $rsp 16 +
STACK CFI 23ff2 .cfa: $rsp 8 +
STACK CFI 23ff7 .cfa: $rsp 32 +
STACK CFI 23ffb .cfa: $rsp 24 +
STACK CFI 23ffc .cfa: $rsp 16 +
STACK CFI 23ffd .cfa: $rsp 8 +
STACK CFI INIT 22520 c2 .cfa: $rsp 8 + .ra: .cfa -8 + ^
STACK CFI 22522 $r12: .cfa -16 + ^ .cfa: $rsp 16 +
STACK CFI 22523 $rbp: .cfa -24 + ^ .cfa: $rsp 24 +
STACK CFI 22527 $rbx: .cfa -32 + ^ .cfa: $rsp 32 +
STACK CFI 2252e .cfa: $rsp 48 +
STACK CFI 2259a .cfa: $rsp 32 +
STACK CFI 2259b .cfa: $rsp 24 +
STACK CFI 2259c .cfa: $rsp 16 +
STACK CFI 2259e .cfa: $rsp 8 +
STACK CFI 225a0 .cfa: $rsp 48 +
STACK CFI INIT 225f0 155 .cfa: $rsp 8 + .ra: .cfa -8 + ^
STACK CFI 225f1 $rbp: .cfa -16 + ^ .cfa: $rsp 16 +
STACK CFI 225f2 $rbx: .cfa -24 + ^ .cfa: $rsp 24 +
STACK CFI 225fd .cfa: $rsp 32 +
STACK CFI 226da .cfa: $rsp 24 +
STACK CFI 226de .cfa: $rsp 16 +
STACK CFI 226df .cfa: $rsp 8 +
STACK CFI 226e0 .cfa: $rsp 32 +
STACK CFI 22742 .cfa: $rsp 24 +
STACK CFI 22743 .cfa: $rsp 16 +
STACK CFI 22744 .cfa: $rsp 8 +
STACK CFI INIT 24000 65 .cfa: $rsp 8 + .ra: .cfa -8 + ^
STACK CFI 24002 $r12: .cfa -16 + ^ .cfa: $rsp 16 +
STACK CFI 24003 $rbp: .cfa -24 + ^ .cfa: $rsp 24 +
STACK CFI 24004 $rbx: .cfa -32 + ^ .cfa: $rsp 32 +
STACK CFI 2404e .cfa: $rsp 24 +
STACK CFI 24052 .cfa: $rsp 16 +
STACK CFI 24054 .cfa: $rsp 8 +
STACK CFI 24060 .cfa: $rsp 32 +
STACK CFI 24061 .cfa: $rsp 24 +
STACK CFI 24062 .cfa: $rsp 16 +
STACK CFI 24064 .cfa: $rsp 8 +
STACK CFI INIT 24070 9e .cfa: $rsp 8 + .ra: .cfa -8 + ^
STACK CFI 240c6 $rbp: .cfa -16 + ^ .cfa: $rsp 16 +
STACK CFI 240c7 $rbx: .cfa -24 + ^ .cfa: $rsp 24 +
STACK CFI 240d4 .cfa: $rsp 32 +
STACK CFI 240dd .cfa: $rsp 24 +
STACK CFI 240e4 $rbx: $rbx .cfa: $rsp 16 +
STACK CFI 240e5 $rbp: $rbp .cfa: $rsp 8 +
STACK CFI INIT 24110 8d .cfa: $rsp 8 + .ra: .cfa -8 + ^
STACK CFI 24111 $rbp: .cfa -16 + ^ .cfa: $rsp 16 +
STACK CFI 24112 $rbx: .cfa -24 + ^ .cfa: $rsp 24 +
STACK CFI 24124 .cfa: $rsp 80 +
STACK CFI 24178 .cfa: $rsp 24 +
STACK CFI 24179 .cfa: $rsp 16 +
STACK CFI 2417a .cfa: $rsp 8 +
STACK CFI 2417b .cfa: $rsp 80 +
STACK CFI INIT 241a0 8d .cfa: $rsp 8 + .ra: .cfa -8 + ^
STACK CFI 241a1 $rbp: .cfa -16 + ^ .cfa: $rsp 16 +
STACK CFI 241a2 $rbx: .cfa -24 + ^ .cfa: $rsp 24 +
STACK CFI 241b4 .cfa: $rsp 80 +
STACK CFI 24208 .cfa: $rsp 24 +
STACK CFI 24209 .cfa: $rsp 16 +
STACK CFI 2420a .cfa: $rsp 8 +
STACK CFI 2420b .cfa: $rsp 80 +
STACK CFI INIT 24230 174 .cfa: $rsp 8 + .ra: .cfa -8 + ^
STACK CFI 24232 $r12: .cfa -16 + ^ .cfa: $rsp 16 +
STACK CFI 24233 $rbp: .cfa -24 + ^ .cfa: $rsp 24 +
STACK CFI 24237 $rbx: .cfa -32 + ^ .cfa: $rsp 32 +
STACK CFI 2423b .cfa: $rsp 96 +
STACK CFI 242af .cfa: $rsp 32 +
STACK CFI 242b0 .cfa: $rsp 24 +
STACK CFI 242b1 .cfa: $rsp 16 +
STACK CFI 242b3 .cfa: $rsp 8 +
STACK CFI 242b8 .cfa: $rsp 96 +
STACK CFI INIT 243b0 951 .cfa: $rsp 8 + .ra: .cfa -8 + ^
STACK CFI 243b2 $r15: .cfa -16 + ^ .cfa: $rsp 16 +
STACK CFI 243b4 $r14: .cfa -24 + ^ .cfa: $rsp 24 +
STACK CFI 243b6 $r13: .cfa -32 + ^ .cfa: $rsp 32 +
STACK CFI 243b8 $r12: .cfa -40 + ^ .cfa: $rsp 40 +
STACK CFI 243b9 $rbp: .cfa -48 + ^ .cfa: $rsp 48 +
STACK CFI 243ba $rbx: .cfa -56 + ^ .cfa: $rsp 56 +
STACK CFI 243c1 .cfa: $rsp 160 +
STACK CFI 24431 .cfa: $rsp 56 +
STACK CFI 24432 .cfa: $rsp 48 +
STACK CFI 24433 .cfa: $rsp 40 +
STACK CFI 24435 .cfa: $rsp 32 +
STACK CFI 24437 .cfa: $rsp 24 +
STACK CFI 24439 .cfa: $rsp 16 +
STACK CFI 2443b .cfa: $rsp 8 +
STACK CFI 24440 .cfa: $rsp 160 +
STACK CFI INIT 22750 5 .cfa: $rsp 8 + .ra: .cfa -8 + ^
STACK CFI INIT 22760 5 .cfa: $rsp 8 + .ra: .cfa -8 + ^
STACK CFI INIT 22770 15 .cfa: $rsp 8 + .ra: .cfa -8 + ^
STACK CFI 22774 .cfa: $rsp 16 +
STACK CFI 2277d .cfa: $rsp 8 +
STACK CFI INIT 22790 59 .cfa: $rsp 8 + .ra: .cfa -8 + ^
STACK CFI 22791 $rbx: .cfa -16 + ^ .cfa: $rsp 16 +
STACK CFI 227df .cfa: $rsp 8 +
STACK CFI 227e0 .cfa: $rsp 16 +
STACK CFI 227e8 .cfa: $rsp 8 +
STACK CFI INIT 227f0 99 .cfa: $rsp 8 + .ra: .cfa -8 + ^
STACK CFI 227f1 $rbp: .cfa -16 + ^ .cfa: $rsp 16 +
STACK CFI 227f2 $rbx: .cfa -24 + ^ .cfa: $rsp 24 +
STACK CFI 227f8 .cfa: $rsp 80 +
STACK CFI 22864 .cfa: $rsp 24 +
STACK CFI 22865 .cfa: $rsp 16 +
STACK CFI 22866 .cfa: $rsp 8 +
STACK CFI 22867 .cfa: $rsp 80 +
STACK CFI INIT 22890 a .cfa: $rsp 8 + .ra: .cfa -8 + ^
STACK CFI INIT 228a0 5 .cfa: $rsp 8 + .ra: .cfa -8 + ^
STACK CFI INIT 228b0 23 .cfa: $rsp 8 + .ra: .cfa -8 + ^
STACK CFI 228b1 $rbp: .cfa -16 + ^ .cfa: $rsp 16 +
STACK CFI 228b2 $rbx: .cfa -24 + ^ .cfa: $rsp 24 +
STACK CFI 228bb .cfa: $rsp 32 +
STACK CFI 228c4 .cfa: $rsp 24 +
STACK CFI 228ca .cfa: $rsp 16 +
STACK CFI 228cb .cfa: $rsp 8 +
STACK CFI INIT 228e0 16f .cfa: $rsp 8 + .ra: .cfa -8 + ^
STACK CFI INIT 24d10 32 .cfa: $rsp 8 + .ra: .cfa -8 + ^
STACK CFI 24d11 $rbx: .cfa -16 + ^ .cfa: $rsp 16 +
STACK CFI 24d33 .cfa: $rsp 8 +
STACK CFI 24d40 .cfa: $rsp 16 +
STACK CFI 24d41 .cfa: $rsp 8 +
STACK CFI INIT 24d50 34 .cfa: $rsp 8 + .ra: .cfa -8 + ^
STACK CFI 24d58 $rbx: .cfa -16 + ^ .cfa: $rsp 16 +
STACK CFI 24d7f .cfa: $rsp 8 +
STACK CFI INIT 24d90 3c .cfa: $rsp 8 + .ra: .cfa -8 + ^
STACK CFI 24d98 $rbx: .cfa -16 + ^ .cfa: $rsp 16 +
STACK CFI 24dc7 .cfa: $rsp 8 +
STACK CFI INIT 24dd0 55 .cfa: $rsp 8 + .ra: .cfa -8 + ^
STACK CFI 24dd2 $r12: .cfa -16 + ^ .cfa: $rsp 16 +
STACK CFI 24dd3 $rbp: .cfa -24 + ^ .cfa: $rsp 24 +
STACK CFI 24dd4 $rbx: .cfa -32 + ^ .cfa: $rsp 32 +
STACK CFI 24e0c .cfa: $rsp 24 +
STACK CFI 24e10 .cfa: $rsp 16 +
STACK CFI 24e12 .cfa: $rsp 8 +
STACK CFI 24e20 .cfa: $rsp 32 +
STACK CFI 24e21 .cfa: $rsp 24 +
STACK CFI 24e22 .cfa: $rsp 16 +
STACK CFI 24e24 .cfa: $rsp 8 +
STACK CFI INIT 22a50 a2 .cfa: $rsp 8 + .ra: .cfa -8 + ^
STACK CFI 22a51 $rbp: .cfa -16 + ^ .cfa: $rsp 16 +
STACK CFI 22a52 $rbx: .cfa -24 + ^ .cfa: $rsp 24 +
STACK CFI 22a59 .cfa: $rsp 64 +
STACK CFI 22ad7 .cfa: $rsp 24 +
STACK CFI 22ad8 .cfa: $rsp 16 +
STACK CFI 22ad9 .cfa: $rsp 8 +
STACK CFI 22ada .cfa: $rsp 64 +
STACK CFI INIT 24e30 d10 .cfa: $rsp 8 + .ra: .cfa -8 + ^
STACK CFI 24e31 $rbp: .cfa -16 + ^ .cfa: $rsp 16 +
STACK CFI 24e34 .cfa: $rbp 16 +
STACK CFI 24e3c $r12: .cfa -48 + ^ $r13: .cfa -40 + ^ $r14: .cfa -32 + ^ $r15: .cfa -24 + ^
STACK CFI 24e47 $rbx: .cfa -56 + ^
STACK CFI 24e95 .cfa: $rsp 8 +
STACK CFI 24e96 .cfa: $rbp 16 +
STACK CFI INIT 22b00 da5 .cfa: $rsp 8 + .ra: .cfa -8 + ^
STACK CFI 22b01 $rbp: .cfa -16 + ^ .cfa: $rsp 16 +
STACK CFI 22b04 .cfa: $rbp 16 +
STACK CFI 22b14 $r12: .cfa -48 + ^ $r13: .cfa -40 + ^ $r14: .cfa -32 + ^ $r15: .cfa -24 + ^ $rbx: .cfa -56 + ^
STACK CFI 22b76 .cfa: $rsp 8 +
STACK CFI 22b77 .cfa: $rbp 16 +
STACK CFI INIT 25b40 1f7 .cfa: $rsp 8 + .ra: .cfa -8 + ^
STACK CFI 25b42 $r15: .cfa -16 + ^ .cfa: $rsp 16 +
STACK CFI 25b44 $r14: .cfa -24 + ^ .cfa: $rsp 24 +
STACK CFI 25b49 $r13: .cfa -32 + ^ .cfa: $rsp 32 +
STACK CFI 25b4b $r12: .cfa -40 + ^ .cfa: $rsp 40 +
STACK CFI 25b4f $rbp: .cfa -48 + ^ .cfa: $rsp 48 +
STACK CFI 25b50 $rbx: .cfa -56 + ^ .cfa: $rsp 56 +
STACK CFI 25b63 .cfa: $rsp 64 +
STACK CFI 25c8e .cfa: $rsp 56 +
STACK CFI 25c92 .cfa: $rsp 48 +
STACK CFI 25c93 .cfa: $rsp 40 +
STACK CFI 25c95 .cfa: $rsp 32 +
STACK CFI 25c97 .cfa: $rsp 24 +
STACK CFI 25c99 .cfa: $rsp 16 +
STACK CFI 25c9b .cfa: $rsp 8 +
STACK CFI 25ca0 .cfa: $rsp 64 +
STACK CFI INIT 25d40 2af .cfa: $rsp 8 + .ra: .cfa -8 + ^
STACK CFI 25d42 $r15: .cfa -16 + ^ .cfa: $rsp 16 +
STACK CFI 25d44 $r14: .cfa -24 + ^ .cfa: $rsp 24 +
STACK CFI 25d46 $r13: .cfa -32 + ^ .cfa: $rsp 32 +
STACK CFI 25d48 $r12: .cfa -40 + ^ .cfa: $rsp 40 +
STACK CFI 25d49 $rbp: .cfa -48 + ^ .cfa: $rsp 48 +
STACK CFI 25d4a $rbx: .cfa -56 + ^ .cfa: $rsp 56 +
STACK CFI 25d54 .cfa: $rsp 64 +
STACK CFI 25f6d .cfa: $rsp 56 +
STACK CFI 25f6e .cfa: $rsp 48 +
STACK CFI 25f6f .cfa: $rsp 40 +
STACK CFI 25f71 .cfa: $rsp 32 +
STACK CFI 25f73 .cfa: $rsp 24 +
STACK CFI 25f75 .cfa: $rsp 16 +
STACK CFI 25f77 .cfa: $rsp 8 +
STACK CFI 25f80 .cfa: $rsp 64 +
STACK CFI INIT 238b0 218 .cfa: $rsp 8 + .ra: .cfa -8 + ^
STACK CFI 238b1 $rbp: .cfa -16 + ^ .cfa: $rsp 16 +
STACK CFI 238b2 $rbx: .cfa -24 + ^ .cfa: $rsp 24 +
STACK CFI 238b9 .cfa: $rsp 112 +
STACK CFI 23903 .cfa: $rsp 24 +
STACK CFI 23904 .cfa: $rsp 16 +
STACK CFI 23905 .cfa: $rsp 8 +
STACK CFI 23910 .cfa: $rsp 112 +
STACK CFI INIT 25ff0 c1 .cfa: $rsp 8 + .ra: .cfa -8 + ^
STACK CFI 26002 $r14: .cfa -16 + ^ .cfa: $rsp 16 +
STACK CFI 26004 $r13: .cfa -24 + ^ .cfa: $rsp 24 +
STACK CFI 26006 $r12: .cfa -32 + ^ .cfa: $rsp 32 +
STACK CFI 26007 $rbp: .cfa -40 + ^ .cfa: $rsp 40 +
STACK CFI 2600b $rbx: .cfa -48 + ^ .cfa: $rsp 48 +
STACK CFI 2603d $rbx: $rbx .cfa: $rsp 40 +
STACK CFI 2603e $rbp: $rbp .cfa: $rsp 32 +
STACK CFI 26040 $r12: $r12 .cfa: $rsp 24 +
STACK CFI 26042 $r13: $r13 .cfa: $rsp 16 +
STACK CFI 26044 $r14: $r14 .cfa: $rsp 8 +
STACK CFI 26048 $r12: .cfa -32 + ^ $r13: .cfa -24 + ^ $r14: .cfa -16 + ^ $rbp: .cfa -40 + ^ $rbx: .cfa -48 + ^ .cfa: $rsp 48 +
STACK CFI 260ae $r12: $r12 $r13: $r13 $r14: $r14 $rbp: $rbp $rbx: $rbx .cfa: $rsp 8 +
STACK CFI INIT 260c0 13f .cfa: $rsp 8 + .ra: .cfa -8 + ^
STACK CFI 260c2 $r13: .cfa -16 + ^ .cfa: $rsp 16 +
STACK CFI 260c4 $r12: .cfa -24 + ^ .cfa: $rsp 24 +
STACK CFI 260c8 $rbp: .cfa -32 + ^ .cfa: $rsp 32 +
STACK CFI 260c9 $rbx: .cfa -40 + ^ .cfa: $rsp 40 +
STACK CFI 260d0 .cfa: $rsp 96 +
STACK CFI 26160 .cfa: $rsp 40 +
STACK CFI 26161 .cfa: $rsp 32 +
STACK CFI 26162 .cfa: $rsp 24 +
STACK CFI 26164 .cfa: $rsp 16 +
STACK CFI 26166 .cfa: $rsp 8 +
STACK CFI 26170 .cfa: $rsp 96 +
STACK CFI INIT 23ad0 1bd .cfa: $rsp 8 + .ra: .cfa -8 + ^
STACK CFI 23ad2 $r12: .cfa -16 + ^ .cfa: $rsp 16 +
STACK CFI 23ad3 $rbp: .cfa -24 + ^ .cfa: $rsp 24 +
STACK CFI 23ad7 $rbx: .cfa -32 + ^ .cfa: $rsp 32 +
STACK CFI 23ae5 .cfa: $rsp 112 +
STACK CFI 23bb2 .cfa: $rsp 32 +
STACK CFI 23bb3 .cfa: $rsp 24 +
STACK CFI 23bb4 .cfa: $rsp 16 +
STACK CFI 23bb6 .cfa: $rsp 8 +
STACK CFI 23bc0 .cfa: $rsp 112 +
STACK CFI INIT 23c90 ab .cfa: $rsp 8 + .ra: .cfa -8 + ^
STACK CFI 23c92 $r12: .cfa -16 + ^ .cfa: $rsp 16 +
STACK CFI 23c93 $rbp: .cfa -24 + ^ .cfa: $rsp 24 +
STACK CFI 23c97 $rbx: .cfa -32 + ^ .cfa: $rsp 32 +
STACK CFI 23ca5 .cfa: $rsp 80 +
STACK CFI 23d14 .cfa: $rsp 32 +
STACK CFI 23d15 .cfa: $rsp 24 +
STACK CFI 23d16 .cfa: $rsp 16 +
STACK CFI 23d18 .cfa: $rsp 8 +
STACK CFI 23d19 .cfa: $rsp 80 +
STACK CFI INIT 26200 131 .cfa: $rsp 8 + .ra: .cfa -8 + ^
STACK CFI 26202 $r14: .cfa -16 + ^ .cfa: $rsp 16 +
STACK CFI 26204 $r13: .cfa -24 + ^ .cfa: $rsp 24 +
STACK CFI 26209 $r12: .cfa -32 + ^ .cfa: $rsp 32 +
STACK CFI 2620a $rbp: .cfa -40 + ^ .cfa: $rsp 40 +
STACK CFI 2620e $rbx: .cfa -48 + ^ .cfa: $rsp 48 +
STACK CFI 26212 .cfa: $rsp 96 +
STACK CFI 2629e .cfa: $rsp 48 +
STACK CFI 2629f .cfa: $rsp 40 +
STACK CFI 262a0 .cfa: $rsp 32 +
STACK CFI 262a2 .cfa: $rsp 24 +
STACK CFI 262a4 .cfa: $rsp 16 +
STACK CFI 262a6 .cfa: $rsp 8 +
STACK CFI 262b0 .cfa: $rsp 96 +
STACK CFI INIT 26340 56f .cfa: $rsp 8 + .ra: .cfa -8 + ^
STACK CFI 26342 $r15: .cfa -16 + ^ .cfa: $rsp 16 +
STACK CFI 26344 $r14: .cfa -24 + ^ .cfa: $rsp 24 +
STACK CFI 26348 $r13: .cfa -32 + ^ .cfa: $rsp 32 +
STACK CFI 2634a $r12: .cfa -40 + ^ .cfa: $rsp 40 +
STACK CFI 2634e $rbp: .cfa -48 + ^ .cfa: $rsp 48 +
STACK CFI 2634f $rbx: .cfa -56 + ^ .cfa: $rsp 56 +
STACK CFI 26362 .cfa: $rsp 208 +
STACK CFI 2668d .cfa: $rsp 56 +
STACK CFI 2668e .cfa: $rsp 48 +
STACK CFI 2668f .cfa: $rsp 40 +
STACK CFI 26691 .cfa: $rsp 32 +
STACK CFI 26693 .cfa: $rsp 24 +
STACK CFI 26695 .cfa: $rsp 16 +
STACK CFI 26697 .cfa: $rsp 8 +
STACK CFI 266a0 .cfa: $rsp 208 +
STACK CFI INIT 268b0 26 .cfa: $rsp 8 + .ra: .cfa -8 + ^
STACK CFI 268b4 .cfa: $rsp 16 +
STACK CFI 268d4 .cfa: $rsp 8 +
STACK CFI INIT 23d40 21e .cfa: $rsp 8 + .ra: .cfa -8 + ^
STACK CFI 23d42 $r15: .cfa -16 + ^ .cfa: $rsp 16 +
STACK CFI 23d44 $r14: .cfa -24 + ^ .cfa: $rsp 24 +
STACK CFI 23d4d $r13: .cfa -32 + ^ .cfa: $rsp 32 +
STACK CFI 23d4f $r12: .cfa -40 + ^ .cfa: $rsp 40 +
STACK CFI 23d50 $rbp: .cfa -48 + ^ .cfa: $rsp 48 +
STACK CFI 23d51 $rbx: .cfa -56 + ^ .cfa: $rsp 56 +
STACK CFI 23d58 .cfa: $rsp 144 +
STACK CFI 23eb7 .cfa: $rsp 56 +
STACK CFI 23eb8 .cfa: $rsp 48 +
STACK CFI 23eb9 .cfa: $rsp 40 +
STACK CFI 23ebb .cfa: $rsp 32 +
STACK CFI 23ebd .cfa: $rsp 24 +
STACK CFI 23ebf .cfa: $rsp 16 +
STACK CFI 23ec1 .cfa: $rsp 8 +
STACK CFI 23ec8 .cfa: $rsp 144 +
STACK CFI INIT 1a300 145 .cfa: $rsp 8 + .ra: .cfa -8 + ^
STACK CFI 1a30b .cfa: $rsp 16 +
STACK CFI 1a440 .cfa: $rsp 8 +
STACK CFI INIT 29060 a .cfa: $rsp 8 + .ra: .cfa -8 + ^
STACK CFI INIT 29070 36 .cfa: $rsp 8 + .ra: .cfa -8 + ^
STACK CFI INIT 290b0 3 .cfa: $rsp 8 + .ra: .cfa -8 + ^
STACK CFI INIT 268e0 36 .cfa: $rsp 8 + .ra: .cfa -8 + ^
STACK CFI 268e1 $rbp: .cfa -16 + ^ .cfa: $rsp 16 +
STACK CFI 268e2 $rbx: .cfa -24 + ^ .cfa: $rsp 24 +
STACK CFI 268f4 .cfa: $rsp 32 +
STACK CFI 26913 .cfa: $rsp 24 +
STACK CFI 26914 .cfa: $rsp 16 +
STACK CFI 26915 .cfa: $rsp 8 +
STACK CFI INIT 290c0 22 .cfa: $rsp 8 + .ra: .cfa -8 + ^
STACK CFI INIT 290f0 25 .cfa: $rsp 8 + .ra: .cfa -8 + ^
STACK CFI 290f8 $rbx: .cfa -16 + ^ .cfa: $rsp 16 +
STACK CFI 29110 .cfa: $rsp 8 +
STACK CFI INIT 29120 22 .cfa: $rsp 8 + .ra: .cfa -8 + ^
STACK CFI INIT 29150 29 .cfa: $rsp 8 + .ra: .cfa -8 + ^
STACK CFI 29158 $rbx: .cfa -16 + ^ .cfa: $rsp 16 +
STACK CFI 29174 .cfa: $rsp 8 +
STACK CFI INIT 26920 9 .cfa: $rsp 8 + .ra: .cfa -8 + ^
STACK CFI INIT 26930 5 .cfa: $rsp 8 + .ra: .cfa -8 + ^
STACK CFI INIT 26940 d .cfa: $rsp 8 + .ra: .cfa -8 + ^
STACK CFI INIT 26950 30 .cfa: $rsp 8 + .ra: .cfa -8 + ^
STACK CFI 26954 .cfa: $rsp 16 +
STACK CFI INIT 26980 c2 .cfa: $rsp 8 + .ra: .cfa -8 + ^
STACK CFI 26982 $r12: .cfa -16 + ^ .cfa: $rsp 16 +
STACK CFI 26983 $rbp: .cfa -24 + ^ .cfa: $rsp 24 +
STACK CFI 26987 $rbx: .cfa -32 + ^ .cfa: $rsp 32 +
STACK CFI 2698e .cfa: $rsp 48 +
STACK CFI 269fa .cfa: $rsp 32 +
STACK CFI 269fb .cfa: $rsp 24 +
STACK CFI 269fc .cfa: $rsp 16 +
STACK CFI 269fe .cfa: $rsp 8 +
STACK CFI 26a00 .cfa: $rsp 48 +
STACK CFI INIT 1a450 39 .cfa: $rsp 8 + .ra: .cfa -8 + ^
STACK CFI 1a451 $rbp: .cfa -16 + ^ .cfa: $rsp 16 +
STACK CFI 1a452 $rbx: .cfa -24 + ^ .cfa: $rsp 24 +
STACK CFI 1a464 .cfa: $rsp 32 +
STACK CFI 1a47c .cfa: $rsp 24 +
STACK CFI 1a483 .cfa: $rsp 16 +
STACK CFI 1a484 .cfa: $rsp 8 +
STACK CFI INIT 29180 57 .cfa: $rsp 8 + .ra: .cfa -8 + ^
STACK CFI 29188 $rbx: .cfa -16 + ^ .cfa: $rsp 16 +
STACK CFI 291d2 .cfa: $rsp 8 +
STACK CFI INIT 291e0 6c .cfa: $rsp 8 + .ra: .cfa -8 + ^
STACK CFI 291e8 $rbx: .cfa -16 + ^ .cfa: $rsp 16 +
STACK CFI 29247 .cfa: $rsp 8 +
STACK CFI INIT 29250 57 .cfa: $rsp 8 + .ra: .cfa -8 + ^
STACK CFI 29258 $rbx: .cfa -16 + ^ .cfa: $rsp 16 +
STACK CFI 292a2 .cfa: $rsp 8 +
STACK CFI INIT 292b0 7b .cfa: $rsp 8 + .ra: .cfa -8 + ^
STACK CFI 292b8 $rbx: .cfa -16 + ^ .cfa: $rsp 16 +
STACK CFI 29326 .cfa: $rsp 8 +
STACK CFI INIT 29330 52 .cfa: $rsp 8 + .ra: .cfa -8 + ^
STACK CFI 29338 $rbx: .cfa -16 + ^ .cfa: $rsp 16 +
STACK CFI 2937a .cfa: $rsp 8 +
STACK CFI 29380 .cfa: $rsp 16 +
STACK CFI 29381 .cfa: $rsp 8 +
STACK CFI INIT 29390 52 .cfa: $rsp 8 + .ra: .cfa -8 + ^
STACK CFI 29398 $rbx: .cfa -16 + ^ .cfa: $rsp 16 +
STACK CFI 293da .cfa: $rsp 8 +
STACK CFI 293e0 .cfa: $rsp 16 +
STACK CFI 293e1 .cfa: $rsp 8 +
STACK CFI INIT 293f0 7a .cfa: $rsp 8 + .ra: .cfa -8 + ^
STACK CFI 293f8 $rbx: .cfa -16 + ^ .cfa: $rsp 16 +
STACK CFI 2945e .cfa: $rsp 8 +
STACK CFI 29468 .cfa: $rsp 16 +
STACK CFI 29469 .cfa: $rsp 8 +
STACK CFI INIT 29470 6a .cfa: $rsp 8 + .ra: .cfa -8 + ^
STACK CFI 29478 $rbx: .cfa -16 + ^ .cfa: $rsp 16 +
STACK CFI 294cf .cfa: $rsp 8 +
STACK CFI 294d8 .cfa: $rsp 16 +
STACK CFI 294d9 .cfa: $rsp 8 +
STACK CFI INIT 294e0 9e .cfa: $rsp 8 + .ra: .cfa -8 + ^
STACK CFI 29536 $rbp: .cfa -16 + ^ .cfa: $rsp 16 +
STACK CFI 29537 $rbx: .cfa -24 + ^ .cfa: $rsp 24 +
STACK CFI 29544 .cfa: $rsp 32 +
STACK CFI 2954d .cfa: $rsp 24 +
STACK CFI 29554 $rbx: $rbx .cfa: $rsp 16 +
STACK CFI 29555 $rbp: $rbp .cfa: $rsp 8 +
STACK CFI INIT 29580 9e .cfa: $rsp 8 + .ra: .cfa -8 + ^
STACK CFI 295d6 $rbp: .cfa -16 + ^ .cfa: $rsp 16 +
STACK CFI 295d7 $rbx: .cfa -24 + ^ .cfa: $rsp 24 +
STACK CFI 295e4 .cfa: $rsp 32 +
STACK CFI 295ed .cfa: $rsp 24 +
STACK CFI 295f4 $rbx: $rbx .cfa: $rsp 16 +
STACK CFI 295f5 $rbp: $rbp .cfa: $rsp 8 +
STACK CFI INIT 29620 8d .cfa: $rsp 8 + .ra: .cfa -8 + ^
STACK CFI 29621 $rbp: .cfa -16 + ^ .cfa: $rsp 16 +
STACK CFI 29622 $rbx: .cfa -24 + ^ .cfa: $rsp 24 +
STACK CFI 29634 .cfa: $rsp 80 +
STACK CFI 29688 .cfa: $rsp 24 +
STACK CFI 29689 .cfa: $rsp 16 +
STACK CFI 2968a .cfa: $rsp 8 +
STACK CFI 2968b .cfa: $rsp 80 +
STACK CFI INIT 296b0 8d .cfa: $rsp 8 + .ra: .cfa -8 + ^
STACK CFI 296b1 $rbp: .cfa -16 + ^ .cfa: $rsp 16 +
STACK CFI 296b2 $rbx: .cfa -24 + ^ .cfa: $rsp 24 +
STACK CFI 296c4 .cfa: $rsp 80 +
STACK CFI 29718 .cfa: $rsp 24 +
STACK CFI 29719 .cfa: $rsp 16 +
STACK CFI 2971a .cfa: $rsp 8 +
STACK CFI 2971b .cfa: $rsp 80 +
STACK CFI INIT 29740 8d .cfa: $rsp 8 + .ra: .cfa -8 + ^
STACK CFI 29741 $rbp: .cfa -16 + ^ .cfa: $rsp 16 +
STACK CFI 29742 $rbx: .cfa -24 + ^ .cfa: $rsp 24 +
STACK CFI 29754 .cfa: $rsp 80 +
STACK CFI 297a8 .cfa: $rsp 24 +
STACK CFI 297a9 .cfa: $rsp 16 +
STACK CFI 297aa .cfa: $rsp 8 +
STACK CFI 297ab .cfa: $rsp 80 +
STACK CFI INIT 297d0 8d .cfa: $rsp 8 + .ra: .cfa -8 + ^
STACK CFI 297d1 $rbp: .cfa -16 + ^ .cfa: $rsp 16 +
STACK CFI 297d2 $rbx: .cfa -24 + ^ .cfa: $rsp 24 +
STACK CFI 297e4 .cfa: $rsp 80 +
STACK CFI 29838 .cfa: $rsp 24 +
STACK CFI 29839 .cfa: $rsp 16 +
STACK CFI 2983a .cfa: $rsp 8 +
STACK CFI 2983b .cfa: $rsp 80 +
STACK CFI INIT 29860 1f .cfa: $rsp 8 + .ra: .cfa -8 + ^
STACK CFI 2986c $rbx: .cfa -16 + ^ .cfa: $rsp 16 +
STACK CFI 2987e .cfa: $rsp 8 +
STACK CFI INIT 29880 1f .cfa: $rsp 8 + .ra: .cfa -8 + ^
STACK CFI 2988c $rbx: .cfa -16 + ^ .cfa: $rsp 16 +
STACK CFI 2989e .cfa: $rsp 8 +
STACK CFI INIT 298a0 1f .cfa: $rsp 8 + .ra: .cfa -8 + ^
STACK CFI 298ac $rbx: .cfa -16 + ^ .cfa: $rsp 16 +
STACK CFI 298be .cfa: $rsp 8 +
STACK CFI INIT 298c0 27 .cfa: $rsp 8 + .ra: .cfa -8 + ^
STACK CFI 298c1 $rbx: .cfa -16 + ^ .cfa: $rsp 16 +
STACK CFI 298e6 .cfa: $rsp 8 +
STACK CFI INIT 298f0 27 .cfa: $rsp 8 + .ra: .cfa -8 + ^
STACK CFI 298f1 $rbx: .cfa -16 + ^ .cfa: $rsp 16 +
STACK CFI 29916 .cfa: $rsp 8 +
STACK CFI INIT 29920 27 .cfa: $rsp 8 + .ra: .cfa -8 + ^
STACK CFI 29921 $rbx: .cfa -16 + ^ .cfa: $rsp 16 +
STACK CFI 29946 .cfa: $rsp 8 +
STACK CFI INIT 26a50 8 .cfa: $rsp 8 + .ra: .cfa -8 + ^
STACK CFI INIT 26a60 a0 .cfa: $rsp 8 + .ra: .cfa -8 + ^
STACK CFI 26a61 $rbp: .cfa -16 + ^ .cfa: $rsp 16 +
STACK CFI 26a62 $rbx: .cfa -24 + ^ .cfa: $rsp 24 +
STACK CFI 26a66 .cfa: $rsp 96 +
STACK CFI 26af8 .cfa: $rsp 24 +
STACK CFI 26af9 .cfa: $rsp 16 +
STACK CFI 26afa .cfa: $rsp 8 +
STACK CFI 26afb .cfa: $rsp 96 +
STACK CFI INIT 26b00 11 .cfa: $rsp 8 + .ra: .cfa -8 + ^
STACK CFI 26b04 .cfa: $rsp 16 +
STACK CFI 26b0d .cfa: $rsp 8 +
STACK CFI INIT 26b20 10 .cfa: $rsp 8 + .ra: .cfa -8 + ^
STACK CFI INIT 26b30 4b .cfa: $rsp 8 + .ra: .cfa -8 + ^
STACK CFI 26b34 .cfa: $rsp 32 +
STACK CFI 26b75 .cfa: $rsp 8 +
STACK CFI 26b76 .cfa: $rsp 32 +
STACK CFI INIT 26b80 5 .cfa: $rsp 8 + .ra: .cfa -8 + ^
STACK CFI INIT 26b90 5 .cfa: $rsp 8 + .ra: .cfa -8 + ^
STACK CFI INIT 26ba0 2b .cfa: $rsp 8 + .ra: .cfa -8 + ^
STACK CFI 26ba4 .cfa: $rsp 16 +
STACK CFI 26bc6 .cfa: $rsp 8 +
STACK CFI INIT 29950 3a .cfa: $rsp 8 + .ra: .cfa -8 + ^
STACK CFI 29958 $rbx: .cfa -16 + ^ .cfa: $rsp 16 +
STACK CFI 2997e .cfa: $rsp 8 +
STACK CFI 29988 .cfa: $rsp 16 +
STACK CFI 29989 .cfa: $rsp 8 +
STACK CFI INIT 29990 3b .cfa: $rsp 8 + .ra: .cfa -8 + ^
STACK CFI 29998 $rbx: .cfa -16 + ^ .cfa: $rsp 16 +
STACK CFI 299c6 .cfa: $rsp 8 +
STACK CFI INIT 299d0 102 .cfa: $rsp 8 + .ra: .cfa -8 + ^
STACK CFI 299d2 $r14: .cfa -16 + ^ .cfa: $rsp 16 +
STACK CFI 299d4 $r13: .cfa -24 + ^ .cfa: $rsp 24 +
STACK CFI 299d6 $r12: .cfa -32 + ^ .cfa: $rsp 32 +
STACK CFI 299d7 $rbp: .cfa -40 + ^ .cfa: $rsp 40 +
STACK CFI 299d8 $rbx: .cfa -48 + ^ .cfa: $rsp 48 +
STACK CFI 299dc .cfa: $rsp 128 +
STACK CFI 29a0d .cfa: $rsp 48 +
STACK CFI 29a0e .cfa: $rsp 40 +
STACK CFI 29a0f .cfa: $rsp 32 +
STACK CFI 29a11 .cfa: $rsp 24 +
STACK CFI 29a13 .cfa: $rsp 16 +
STACK CFI 29a15 .cfa: $rsp 8 +
STACK CFI 29a20 .cfa: $rsp 128 +
STACK CFI INIT 26bd0 87 .cfa: $rsp 8 + .ra: .cfa -8 + ^
STACK CFI 26bd7 $rbx: .cfa -16 + ^ .cfa: $rsp 16 +
STACK CFI 26c28 .cfa: $rsp 8 +
STACK CFI 26c30 .cfa: $rsp 16 +
STACK CFI INIT 26c60 2f8 .cfa: $rsp 8 + .ra: .cfa -8 + ^
STACK CFI 26c62 $r15: .cfa -16 + ^ .cfa: $rsp 16 +
STACK CFI 26c64 $r14: .cfa -24 + ^ .cfa: $rsp 24 +
STACK CFI 26c66 $r13: .cfa -32 + ^ .cfa: $rsp 32 +
STACK CFI 26c68 $r12: .cfa -40 + ^ .cfa: $rsp 40 +
STACK CFI 26c69 $rbp: .cfa -48 + ^ .cfa: $rsp 48 +
STACK CFI 26c6a $rbx: .cfa -56 + ^ .cfa: $rsp 56 +
STACK CFI 26c74 .cfa: $rsp 192 +
STACK CFI 26cd6 .cfa: $rsp 56 +
STACK CFI 26cd7 .cfa: $rsp 48 +
STACK CFI 26cd8 .cfa: $rsp 40 +
STACK CFI 26cda .cfa: $rsp 32 +
STACK CFI 26cdc .cfa: $rsp 24 +
STACK CFI 26cde .cfa: $rsp 16 +
STACK CFI 26ce0 .cfa: $rsp 8 +
STACK CFI 26ce8 .cfa: $rsp 192 +
STACK CFI INIT 26f60 92 .cfa: $rsp 8 + .ra: .cfa -8 + ^
STACK CFI 26f72 .cfa: $rsp 16 +
STACK CFI 26fb6 .cfa: $rsp 8 +
STACK CFI 26fc0 .cfa: $rsp 16 +
STACK CFI 26ff1 .cfa: $rsp 8 +
STACK CFI INIT 27000 240 .cfa: $rsp 8 + .ra: .cfa -8 + ^
STACK CFI 27004 .cfa: $rsp 32 +
STACK CFI 2723a .cfa: $rsp 8 +
STACK CFI 2723b .cfa: $rsp 32 +
STACK CFI INIT 27240 95 .cfa: $rsp 8 + .ra: .cfa -8 + ^
STACK CFI 27241 $rbx: .cfa -16 + ^ .cfa: $rsp 16 +
STACK CFI 27245 .cfa: $rsp 32 +
STACK CFI 2726b .cfa: $rsp 16 +
STACK CFI 2726c .cfa: $rsp 8 +
STACK CFI 27270 .cfa: $rsp 32 +
STACK CFI 272d3 .cfa: $rsp 16 +
STACK CFI 272d4 .cfa: $rsp 8 +
STACK CFI INIT 29ae0 cc0 .cfa: $rsp 8 + .ra: .cfa -8 + ^
STACK CFI 29ae1 $rbp: .cfa -16 + ^ .cfa: $rsp 16 +
STACK CFI 29ae4 .cfa: $rbp 16 +
STACK CFI 29aed $r12: .cfa -48 + ^ $r13: .cfa -40 + ^ $r14: .cfa -32 + ^ $r15: .cfa -24 + ^ $rbx: .cfa -56 + ^
STACK CFI 29b45 .cfa: $rsp 8 +
STACK CFI 29b46 .cfa: $rbp 16 +
STACK CFI INIT 272e0 1ae .cfa: $rsp 8 + .ra: .cfa -8 + ^
STACK CFI 272e2 $r13: .cfa -16 + ^ .cfa: $rsp 16 +
STACK CFI 272e4 $r12: .cfa -24 + ^ .cfa: $rsp 24 +
STACK CFI 272e5 $rbp: .cfa -32 + ^ .cfa: $rsp 32 +
STACK CFI 272e6 $rbx: .cfa -40 + ^ .cfa: $rsp 40 +
STACK CFI 272f0 .cfa: $rsp 16448 +
STACK CFI 27430 .cfa: $rsp 40 +
STACK CFI 27431 .cfa: $rsp 32 +
STACK CFI 27432 .cfa: $rsp 24 +
STACK CFI 27434 .cfa: $rsp 16 +
STACK CFI 27436 .cfa: $rsp 8 +
STACK CFI 27437 .cfa: $rsp 16448 +
STACK CFI INIT 2a7a0 cc0 .cfa: $rsp 8 + .ra: .cfa -8 + ^
STACK CFI 2a7a1 $rbp: .cfa -16 + ^ .cfa: $rsp 16 +
STACK CFI 2a7a4 .cfa: $rbp 16 +
STACK CFI 2a7ad $r12: .cfa -48 + ^ $r13: .cfa -40 + ^ $r14: .cfa -32 + ^ $r15: .cfa -24 + ^ $rbx: .cfa -56 + ^
STACK CFI 2a805 .cfa: $rsp 8 +
STACK CFI 2a806 .cfa: $rbp 16 +
STACK CFI INIT 2b460 e50 .cfa: $rsp 8 + .ra: .cfa -8 + ^
STACK CFI 2b461 $rbp: .cfa -16 + ^ .cfa: $rsp 16 +
STACK CFI 2b467 .cfa: $rbp 16 +
STACK CFI 2b46f $r12: .cfa -48 + ^ $r13: .cfa -40 + ^ $r14: .cfa -32 + ^ $r15: .cfa -24 + ^
STACK CFI 2b47a $rbx: .cfa -56 + ^
STACK CFI 2b50a .cfa: $rsp 8 +
STACK CFI 2b50b .cfa: $rbp 16 +
STACK CFI INIT 2c2b0 d6b .cfa: $rsp 8 + .ra: .cfa -8 + ^
STACK CFI 2c2b1 $rbp: .cfa -16 + ^ .cfa: $rsp 16 +
STACK CFI 2c2b4 .cfa: $rbp 16 +
STACK CFI 2c2c4 $r12: .cfa -48 + ^ $r13: .cfa -40 + ^ $r14: .cfa -32 + ^ $r15: .cfa -24 + ^ $rbx: .cfa -56 + ^
STACK CFI 2c32f .cfa: $rsp 8 +
STACK CFI 2c330 .cfa: $rbp 16 +
STACK CFI INIT 2d020 c1a .cfa: $rsp 8 + .ra: .cfa -8 + ^
STACK CFI 2d021 $rbp: .cfa -16 + ^ .cfa: $rsp 16 +
STACK CFI 2d024 .cfa: $rbp 16 +
STACK CFI 2d02c $r12: .cfa -48 + ^ $r13: .cfa -40 + ^ $r14: .cfa -32 + ^ $r15: .cfa -24 + ^
STACK CFI 2d034 $rbx: .cfa -56 + ^
STACK CFI 2d587 .cfa: $rsp 8 +
STACK CFI 2d590 .cfa: $rbp 16 +
STACK CFI INIT 2dc40 f8 .cfa: $rsp 8 + .ra: .cfa -8 + ^
STACK CFI 2dc42 $r14: .cfa -16 + ^ .cfa: $rsp 16 +
STACK CFI 2dc44 $r13: .cfa -24 + ^ .cfa: $rsp 24 +
STACK CFI 2dc46 $r12: .cfa -32 + ^ .cfa: $rsp 32 +
STACK CFI 2dc47 $rbp: .cfa -40 + ^ .cfa: $rsp 40 +
STACK CFI 2dc48 $rbx: .cfa -48 + ^ .cfa: $rsp 48 +
STACK CFI 2dc4c .cfa: $rsp 128 +
STACK CFI 2dc7d .cfa: $rsp 48 +
STACK CFI 2dc7e .cfa: $rsp 40 +
STACK CFI 2dc7f .cfa: $rsp 32 +
STACK CFI 2dc81 .cfa: $rsp 24 +
STACK CFI 2dc83 .cfa: $rsp 16 +
STACK CFI 2dc85 .cfa: $rsp 8 +
STACK CFI 2dc90 .cfa: $rsp 128 +
STACK CFI INIT 27490 a4 .cfa: $rsp 8 + .ra: .cfa -8 + ^
STACK CFI 27491 $rbp: .cfa -16 + ^ .cfa: $rsp 16 +
STACK CFI 27492 $rbx: .cfa -24 + ^ .cfa: $rsp 24 +
STACK CFI 274a8 .cfa: $rsp 128 +
STACK CFI 27507 .cfa: $rsp 24 +
STACK CFI 27508 .cfa: $rsp 16 +
STACK CFI 27509 .cfa: $rsp 8 +
STACK CFI 27510 .cfa: $rsp 128 +
STACK CFI INIT 27540 2e .cfa: $rsp 8 + .ra: .cfa -8 + ^
STACK CFI INIT 27570 12 .cfa: $rsp 8 + .ra: .cfa -8 + ^
STACK CFI INIT 27590 a7 .cfa: $rsp 8 + .ra: .cfa -8 + ^
STACK CFI 27591 $rbx: .cfa -16 + ^ .cfa: $rsp 16 +
STACK CFI 27595 .cfa: $rsp 96 +
STACK CFI 275d1 .cfa: $rsp 16 +
STACK CFI 275d2 .cfa: $rsp 8 +
STACK CFI 275d8 .cfa: $rsp 96 +
STACK CFI INIT 2dd40 c1a .cfa: $rsp 8 + .ra: .cfa -8 + ^
STACK CFI 2dd41 $rbp: .cfa -16 + ^ .cfa: $rsp 16 +
STACK CFI 2dd44 .cfa: $rbp 16 +
STACK CFI 2dd4c $r12: .cfa -48 + ^ $r13: .cfa -40 + ^ $r14: .cfa -32 + ^ $r15: .cfa -24 + ^
STACK CFI 2dd54 $rbx: .cfa -56 + ^
STACK CFI 2e2a7 .cfa: $rsp 8 +
STACK CFI 2e2b0 .cfa: $rbp 16 +
STACK CFI INIT 2e960 f8 .cfa: $rsp 8 + .ra: .cfa -8 + ^
STACK CFI 2e962 $r14: .cfa -16 + ^ .cfa: $rsp 16 +
STACK CFI 2e964 $r13: .cfa -24 + ^ .cfa: $rsp 24 +
STACK CFI 2e966 $r12: .cfa -32 + ^ .cfa: $rsp 32 +
STACK CFI 2e967 $rbp: .cfa -40 + ^ .cfa: $rsp 40 +
STACK CFI 2e968 $rbx: .cfa -48 + ^ .cfa: $rsp 48 +
STACK CFI 2e96c .cfa: $rsp 128 +
STACK CFI 2e99d .cfa: $rsp 48 +
STACK CFI 2e99e .cfa: $rsp 40 +
STACK CFI 2e99f .cfa: $rsp 32 +
STACK CFI 2e9a1 .cfa: $rsp 24 +
STACK CFI 2e9a3 .cfa: $rsp 16 +
STACK CFI 2e9a5 .cfa: $rsp 8 +
STACK CFI 2e9b0 .cfa: $rsp 128 +
STACK CFI INIT 27640 f3 .cfa: $rsp 8 + .ra: .cfa -8 + ^
STACK CFI 27641 $rbp: .cfa -16 + ^ .cfa: $rsp 16 +
STACK CFI 27647 .cfa: $rsp 48 +
STACK CFI 27670 .cfa: $rsp 96 +
STACK CFI 276a9 .cfa: $rsp 48 +
STACK CFI 276c4 .cfa: $rsp 16 +
STACK CFI 276c5 .cfa: $rsp 8 +
STACK CFI 276d0 .cfa: $rsp 48 +
STACK CFI INIT 27740 1173 .cfa: $rsp 8 + .ra: .cfa -8 + ^
STACK CFI 27741 $rbp: .cfa -16 + ^ .cfa: $rsp 16 +
STACK CFI 27749 .cfa: $rbp 16 +
STACK CFI 27760 $r12: .cfa -48 + ^ $r13: .cfa -40 + ^ $r14: .cfa -32 + ^ $r15: .cfa -24 + ^ $rbx: .cfa -56 + ^
STACK CFI 285d9 .cfa: $rsp 8 +
STACK CFI 285da .cfa: $rbp 16 +
STACK CFI INIT 2ea60 f8 .cfa: $rsp 8 + .ra: .cfa -8 + ^
STACK CFI 2ea62 $r14: .cfa -16 + ^ .cfa: $rsp 16 +
STACK CFI 2ea64 $r13: .cfa -24 + ^ .cfa: $rsp 24 +
STACK CFI 2ea66 $r12: .cfa -32 + ^ .cfa: $rsp 32 +
STACK CFI 2ea67 $rbp: .cfa -40 + ^ .cfa: $rsp 40 +
STACK CFI 2ea68 $rbx: .cfa -48 + ^ .cfa: $rsp 48 +
STACK CFI 2ea6c .cfa: $rsp 128 +
STACK CFI 2ea9d .cfa: $rsp 48 +
STACK CFI 2ea9e .cfa: $rsp 40 +
STACK CFI 2ea9f .cfa: $rsp 32 +
STACK CFI 2eaa1 .cfa: $rsp 24 +
STACK CFI 2eaa3 .cfa: $rsp 16 +
STACK CFI 2eaa5 .cfa: $rsp 8 +
STACK CFI 2eab0 .cfa: $rsp 128 +
STACK CFI INIT 288c0 10a .cfa: $rsp 8 + .ra: .cfa -8 + ^
STACK CFI 288c1 $rbx: .cfa -16 + ^ .cfa: $rsp 16 +
STACK CFI 288c5 .cfa: $rsp 32 +
STACK CFI 28907 .cfa: $rsp 16 +
STACK CFI 28908 .cfa: $rsp 8 +
STACK CFI 28910 .cfa: $rsp 32 +
STACK CFI 28935 .cfa: $rsp 16 +
STACK CFI 28936 .cfa: $rsp 8 +
STACK CFI 28940 .cfa: $rsp 32 +
STACK CFI 289a2 .cfa: $rsp 16 +
STACK CFI 289a3 .cfa: $rsp 8 +
STACK CFI 289a8 .cfa: $rsp 32 +
STACK CFI INIT 289d0 68d .cfa: $rsp 8 + .ra: .cfa -8 + ^
STACK CFI 289d2 $r15: .cfa -16 + ^ .cfa: $rsp 16 +
STACK CFI 289d4 $r14: .cfa -24 + ^ .cfa: $rsp 24 +
STACK CFI 289d6 $r13: .cfa -32 + ^ .cfa: $rsp 32 +
STACK CFI 289d8 $r12: .cfa -40 + ^ .cfa: $rsp 40 +
STACK CFI 289d9 $rbp: .cfa -48 + ^ .cfa: $rsp 48 +
STACK CFI 289da $rbx: .cfa -56 + ^ .cfa: $rsp 56 +
STACK CFI 289e1 .cfa: $rsp 192 +
STACK CFI 28bea .cfa: $rsp 200 +
STACK CFI 28bf7 .cfa: $rsp 208 +
STACK CFI 28bfd .cfa: $rsp 200 +
STACK CFI 28bfe .cfa: $rsp 192 +
STACK CFI 28c52 .cfa: $rsp 56 +
STACK CFI 28c53 .cfa: $rsp 48 +
STACK CFI 28c54 .cfa: $rsp 40 +
STACK CFI 28c56 .cfa: $rsp 32 +
STACK CFI 28c58 .cfa: $rsp 24 +
STACK CFI 28c5a .cfa: $rsp 16 +
STACK CFI 28c5c .cfa: $rsp 8 +
STACK CFI 28c60 .cfa: $rsp 192 +
STACK CFI 28d06 .cfa: $rsp 200 +
STACK CFI 28d0e .cfa: $rsp 208 +
STACK CFI 28d16 .cfa: $rsp 216 +
STACK CFI 28d1c .cfa: $rsp 224 +
STACK CFI 28d22 .cfa: $rsp 232 +
STACK CFI 28d28 .cfa: $rsp 240 +
STACK CFI 28d3b .cfa: $rsp 192 +
STACK CFI INIT 2eb60 c6a .cfa: $rsp 8 + .ra: .cfa -8 + ^
STACK CFI 2eb61 $rbp: .cfa -16 + ^ .cfa: $rsp 16 +
STACK CFI 2eb64 .cfa: $rbp 16 +
STACK CFI 2eb6c $r12: .cfa -48 + ^ $r13: .cfa -40 + ^ $r14: .cfa -32 + ^ $r15: .cfa -24 + ^
STACK CFI 2eb7a $rbx: .cfa -56 + ^
STACK CFI 2f119 .cfa: $rsp 8 +
STACK CFI 2f120 .cfa: $rbp 16 +
STACK CFI INIT 2f7d0 10e .cfa: $rsp 8 + .ra: .cfa -8 + ^
STACK CFI 2f7d2 $r13: .cfa -16 + ^ .cfa: $rsp 16 +
STACK CFI 2f7d4 $r12: .cfa -24 + ^ .cfa: $rsp 24 +
STACK CFI 2f7dc $rbp: .cfa -32 + ^ .cfa: $rsp 32 +
STACK CFI 2f7dd $rbx: .cfa -40 + ^ .cfa: $rsp 40 +
STACK CFI 2f7e7 .cfa: $rsp 128 +
STACK CFI 2f88a .cfa: $rsp 40 +
STACK CFI 2f88b .cfa: $rsp 32 +
STACK CFI 2f88c .cfa: $rsp 24 +
STACK CFI 2f88e .cfa: $rsp 16 +
STACK CFI 2f890 .cfa: $rsp 8 +
STACK CFI 2f898 .cfa: $rsp 128 +
STACK CFI INIT 2f8e0 29d .cfa: $rsp 8 + .ra: .cfa -8 + ^
STACK CFI 2f8e2 $r15: .cfa -16 + ^ .cfa: $rsp 16 +
STACK CFI 2f8e4 $r14: .cfa -24 + ^ .cfa: $rsp 24 +
STACK CFI 2f8e9 $r13: .cfa -32 + ^ .cfa: $rsp 32 +
STACK CFI 2f8eb $r12: .cfa -40 + ^ .cfa: $rsp 40 +
STACK CFI 2f8ef $rbp: .cfa -48 + ^ .cfa: $rsp 48 +
STACK CFI 2f8f0 $rbx: .cfa -56 + ^ .cfa: $rsp 56 +
STACK CFI 2f8fd .cfa: $rsp 192 +
STACK CFI 2fa8f .cfa: $rsp 56 +
STACK CFI 2fa90 .cfa: $rsp 48 +
STACK CFI 2fa91 .cfa: $rsp 40 +
STACK CFI 2fa93 .cfa: $rsp 32 +
STACK CFI 2fa95 .cfa: $rsp 24 +
STACK CFI 2fa97 .cfa: $rsp 16 +
STACK CFI 2fa99 .cfa: $rsp 8 +
STACK CFI 2faa0 .cfa: $rsp 192 +
STACK CFI INIT 2fb80 10e .cfa: $rsp 8 + .ra: .cfa -8 + ^
STACK CFI 2fb82 $r13: .cfa -16 + ^ .cfa: $rsp 16 +
STACK CFI 2fb84 $r12: .cfa -24 + ^ .cfa: $rsp 24 +
STACK CFI 2fb8c $rbp: .cfa -32 + ^ .cfa: $rsp 32 +
STACK CFI 2fb8d $rbx: .cfa -40 + ^ .cfa: $rsp 40 +
STACK CFI 2fb97 .cfa: $rsp 128 +
STACK CFI 2fc3a .cfa: $rsp 40 +
STACK CFI 2fc3b .cfa: $rsp 32 +
STACK CFI 2fc3c .cfa: $rsp 24 +
STACK CFI 2fc3e .cfa: $rsp 16 +
STACK CFI 2fc40 .cfa: $rsp 8 +
STACK CFI 2fc48 .cfa: $rsp 128 +
STACK CFI INIT 2fc90 20d .cfa: $rsp 8 + .ra: .cfa -8 + ^
STACK CFI 2fc92 $r15: .cfa -16 + ^ .cfa: $rsp 16 +
STACK CFI 2fc94 $r14: .cfa -24 + ^ .cfa: $rsp 24 +
STACK CFI 2fc99 $r13: .cfa -32 + ^ .cfa: $rsp 32 +
STACK CFI 2fc9b $r12: .cfa -40 + ^ .cfa: $rsp 40 +
STACK CFI 2fc9f $rbp: .cfa -48 + ^ .cfa: $rsp 48 +
STACK CFI 2fca0 $rbx: .cfa -56 + ^ .cfa: $rsp 56 +
STACK CFI 2fcad .cfa: $rsp 160 +
STACK CFI 2fddb .cfa: $rsp 56 +
STACK CFI 2fddc .cfa: $rsp 48 +
STACK CFI 2fddd .cfa: $rsp 40 +
STACK CFI 2fddf .cfa: $rsp 32 +
STACK CFI 2fde1 .cfa: $rsp 24 +
STACK CFI 2fde3 .cfa: $rsp 16 +
STACK CFI 2fde5 .cfa: $rsp 8 +
STACK CFI 2fdf0 .cfa: $rsp 160 +
STACK CFI INIT 2fea0 10e .cfa: $rsp 8 + .ra: .cfa -8 + ^
STACK CFI 2fea2 $r13: .cfa -16 + ^ .cfa: $rsp 16 +
STACK CFI 2fea4 $r12: .cfa -24 + ^ .cfa: $rsp 24 +
STACK CFI 2feac $rbp: .cfa -32 + ^ .cfa: $rsp 32 +
STACK CFI 2fead $rbx: .cfa -40 + ^ .cfa: $rsp 40 +
STACK CFI 2feb7 .cfa: $rsp 128 +
STACK CFI 2ff5a .cfa: $rsp 40 +
STACK CFI 2ff5b .cfa: $rsp 32 +
STACK CFI 2ff5c .cfa: $rsp 24 +
STACK CFI 2ff5e .cfa: $rsp 16 +
STACK CFI 2ff60 .cfa: $rsp 8 +
STACK CFI 2ff68 .cfa: $rsp 128 +
STACK CFI INIT 2ffb0 7d .cfa: $rsp 8 + .ra: .cfa -8 + ^
STACK CFI 2ffb1 $rbp: .cfa -16 + ^ .cfa: $rsp 16 +
STACK CFI 2ffb2 $rbx: .cfa -24 + ^ .cfa: $rsp 24 +
STACK CFI 2ffbc .cfa: $rsp 80 +
STACK CFI 30008 .cfa: $rsp 24 +
STACK CFI 30009 .cfa: $rsp 16 +
STACK CFI 3000a .cfa: $rsp 8 +
STACK CFI 3000b .cfa: $rsp 80 +
STACK CFI INIT 30030 37c .cfa: $rsp 8 + .ra: .cfa -8 + ^
STACK CFI 30032 $r15: .cfa -16 + ^ .cfa: $rsp 16 +
STACK CFI 30034 $r14: .cfa -24 + ^ .cfa: $rsp 24 +
STACK CFI 30039 $r13: .cfa -32 + ^ .cfa: $rsp 32 +
STACK CFI 3003b $r12: .cfa -40 + ^ .cfa: $rsp 40 +
STACK CFI 3003c $rbp: .cfa -48 + ^ .cfa: $rsp 48 +
STACK CFI 3003d $rbx: .cfa -56 + ^ .cfa: $rsp 56 +
STACK CFI 30047 .cfa: $rsp 224 +
STACK CFI 3026d .cfa: $rsp 56 +
STACK CFI 3026e .cfa: $rsp 48 +
STACK CFI 3026f .cfa: $rsp 40 +
STACK CFI 30271 .cfa: $rsp 32 +
STACK CFI 30273 .cfa: $rsp 24 +
STACK CFI 30275 .cfa: $rsp 16 +
STACK CFI 30277 .cfa: $rsp 8 +
STACK CFI 30280 .cfa: $rsp 224 +
STACK CFI INIT 303b0 1c5 .cfa: $rsp 8 + .ra: .cfa -8 + ^
STACK CFI 303b2 $r15: .cfa -16 + ^ .cfa: $rsp 16 +
STACK CFI 303b4 $r14: .cfa -24 + ^ .cfa: $rsp 24 +
STACK CFI 303b9 $r13: .cfa -32 + ^ .cfa: $rsp 32 +
STACK CFI 303bb $r12: .cfa -40 + ^ .cfa: $rsp 40 +
STACK CFI 303bf $rbp: .cfa -48 + ^ .cfa: $rsp 48 +
STACK CFI 303c0 $rbx: .cfa -56 + ^ .cfa: $rsp 56 +
STACK CFI 303ce .cfa: $rsp 160 +
STACK CFI 304d6 .cfa: $rsp 56 +
STACK CFI 304d7 .cfa: $rsp 48 +
STACK CFI 304d8 .cfa: $rsp 40 +
STACK CFI 304da .cfa: $rsp 32 +
STACK CFI 304dc .cfa: $rsp 24 +
STACK CFI 304de .cfa: $rsp 16 +
STACK CFI 304e0 .cfa: $rsp 8 +
STACK CFI 304e8 .cfa: $rsp 160 +
STACK CFI INIT 1a490 5dc .cfa: $rsp 8 + .ra: .cfa -8 + ^
STACK CFI 1a492 $r13: .cfa -16 + ^ .cfa: $rsp 16 +
STACK CFI 1a494 $r12: .cfa -24 + ^ .cfa: $rsp 24 +
STACK CFI 1a49c $rbp: .cfa -32 + ^ .cfa: $rsp 32 +
STACK CFI 1a49d $rbx: .cfa -40 + ^ .cfa: $rsp 40 +
STACK CFI 1a4a1 .cfa: $rsp 160 +
STACK CFI 1a997 .cfa: $rsp 40 +
STACK CFI 1a998 .cfa: $rsp 32 +
STACK CFI 1a999 .cfa: $rsp 24 +
STACK CFI 1a99b .cfa: $rsp 16 +
STACK CFI 1a99d .cfa: $rsp 8 +
STACK CFI 1a99e .cfa: $rsp 160 +
STACK CFI INIT 30580 3ac .cfa: $rsp 8 + .ra: .cfa -8 + ^
STACK CFI 30582 $r15: .cfa -16 + ^ .cfa: $rsp 16 +
STACK CFI 30584 $r14: .cfa -24 + ^ .cfa: $rsp 24 +
STACK CFI 30589 $r13: .cfa -32 + ^ .cfa: $rsp 32 +
STACK CFI 3058b $r12: .cfa -40 + ^ .cfa: $rsp 40 +
STACK CFI 3058f $rbp: .cfa -48 + ^ .cfa: $rsp 48 +
STACK CFI 30590 $rbx: .cfa -56 + ^ .cfa: $rsp 56 +
STACK CFI 30599 .cfa: $rsp 544 +
STACK CFI 30848 .cfa: $rsp 56 +
STACK CFI 30849 .cfa: $rsp 48 +
STACK CFI 3084a .cfa: $rsp 40 +
STACK CFI 3084c .cfa: $rsp 32 +
STACK CFI 3084e .cfa: $rsp 24 +
STACK CFI 30850 .cfa: $rsp 16 +
STACK CFI 30852 .cfa: $rsp 8 +
STACK CFI 30858 .cfa: $rsp 544 +
STACK CFI INIT 30930 1c .cfa: $rsp 8 + .ra: .cfa -8 + ^
STACK CFI INIT 30950 3a4 .cfa: $rsp 8 + .ra: .cfa -8 + ^
STACK CFI 30952 $r15: .cfa -16 + ^ .cfa: $rsp 16 +
STACK CFI 30954 $r14: .cfa -24 + ^ .cfa: $rsp 24 +
STACK CFI 30959 $r13: .cfa -32 + ^ .cfa: $rsp 32 +
STACK CFI 3095b $r12: .cfa -40 + ^ .cfa: $rsp 40 +
STACK CFI 3095f $rbp: .cfa -48 + ^ .cfa: $rsp 48 +
STACK CFI 30960 $rbx: .cfa -56 + ^ .cfa: $rsp 56 +
STACK CFI 30969 .cfa: $rsp 544 +
STACK CFI 30c13 .cfa: $rsp 56 +
STACK CFI 30c14 .cfa: $rsp 48 +
STACK CFI 30c15 .cfa: $rsp 40 +
STACK CFI 30c17 .cfa: $rsp 32 +
STACK CFI 30c19 .cfa: $rsp 24 +
STACK CFI 30c1b .cfa: $rsp 16 +
STACK CFI 30c1d .cfa: $rsp 8 +
STACK CFI 30c20 .cfa: $rsp 544 +
STACK CFI INIT 30d00 6d .cfa: $rsp 8 + .ra: .cfa -8 + ^
STACK CFI 30d04 .cfa: $rsp 32 +
STACK CFI 30d3c .cfa: $rsp 8 +
STACK CFI 30d40 .cfa: $rsp 32 +
STACK CFI INIT 30d70 c4a .cfa: $rsp 8 + .ra: .cfa -8 + ^
STACK CFI 30d71 $rbp: .cfa -16 + ^ .cfa: $rsp 16 +
STACK CFI 30d74 .cfa: $rbp 16 +
STACK CFI 30d7c $r12: .cfa -48 + ^ $r13: .cfa -40 + ^ $r14: .cfa -32 + ^ $r15: .cfa -24 + ^
STACK CFI 30d87 $rbx: .cfa -56 + ^
STACK CFI 31301 .cfa: $rsp 8 +
STACK CFI 31308 .cfa: $rbp 16 +
STACK CFI INIT 319c0 304 .cfa: $rsp 8 + .ra: .cfa -8 + ^
STACK CFI 319c2 $r15: .cfa -16 + ^ .cfa: $rsp 16 +
STACK CFI 319c4 $r14: .cfa -24 + ^ .cfa: $rsp 24 +
STACK CFI 319c9 $r13: .cfa -32 + ^ .cfa: $rsp 32 +
STACK CFI 319cb $r12: .cfa -40 + ^ .cfa: $rsp 40 +
STACK CFI 319cf $rbp: .cfa -48 + ^ .cfa: $rsp 48 +
STACK CFI 319d0 $rbx: .cfa -56 + ^ .cfa: $rsp 56 +
STACK CFI 319d7 .cfa: $rsp 192 +
STACK CFI 31ba7 .cfa: $rsp 56 +
STACK CFI 31ba8 .cfa: $rsp 48 +
STACK CFI 31ba9 .cfa: $rsp 40 +
STACK CFI 31bab .cfa: $rsp 32 +
STACK CFI 31bad .cfa: $rsp 24 +
STACK CFI 31baf .cfa: $rsp 16 +
STACK CFI 31bb1 .cfa: $rsp 8 +
STACK CFI 31bb8 .cfa: $rsp 192 +
STACK CFI INIT 31cd0 1f3 .cfa: $rsp 8 + .ra: .cfa -8 + ^
STACK CFI 31cd2 $r14: .cfa -16 + ^ .cfa: $rsp 16 +
STACK CFI 31cd4 $r13: .cfa -24 + ^ .cfa: $rsp 24 +
STACK CFI 31cd9 $r12: .cfa -32 + ^ .cfa: $rsp 32 +
STACK CFI 31cda $rbp: .cfa -40 + ^ .cfa: $rsp 40 +
STACK CFI 31cde $rbx: .cfa -48 + ^ .cfa: $rsp 48 +
STACK CFI 31ce2 .cfa: $rsp 128 +
STACK CFI 31e1c .cfa: $rsp 48 +
STACK CFI 31e1d .cfa: $rsp 40 +
STACK CFI 31e1e .cfa: $rsp 32 +
STACK CFI 31e20 .cfa: $rsp 24 +
STACK CFI 31e22 .cfa: $rsp 16 +
STACK CFI 31e24 .cfa: $rsp 8 +
STACK CFI 31e28 .cfa: $rsp 128 +
STACK CFI INIT 31ed0 1f3 .cfa: $rsp 8 + .ra: .cfa -8 + ^
STACK CFI 31ed2 $r14: .cfa -16 + ^ .cfa: $rsp 16 +
STACK CFI 31ed4 $r13: .cfa -24 + ^ .cfa: $rsp 24 +
STACK CFI 31ed9 $r12: .cfa -32 + ^ .cfa: $rsp 32 +
STACK CFI 31eda $rbp: .cfa -40 + ^ .cfa: $rsp 40 +
STACK CFI 31ede $rbx: .cfa -48 + ^ .cfa: $rsp 48 +
STACK CFI 31ee2 .cfa: $rsp 128 +
STACK CFI 3201c .cfa: $rsp 48 +
STACK CFI 3201d .cfa: $rsp 40 +
STACK CFI 3201e .cfa: $rsp 32 +
STACK CFI 32020 .cfa: $rsp 24 +
STACK CFI 32022 .cfa: $rsp 16 +
STACK CFI 32024 .cfa: $rsp 8 +
STACK CFI 32028 .cfa: $rsp 128 +
STACK CFI INIT 320d0 89 .cfa: $rsp 8 + .ra: .cfa -8 + ^
STACK CFI 320d1 $rbp: .cfa -16 + ^ .cfa: $rsp 16 +
STACK CFI 320d2 $rbx: .cfa -24 + ^ .cfa: $rsp 24 +
STACK CFI 320dc .cfa: $rsp 48 +
STACK CFI 3212f .cfa: $rsp 24 +
STACK CFI 32130 .cfa: $rsp 16 +
STACK CFI 32131 .cfa: $rsp 8 +
STACK CFI 32132 .cfa: $rsp 48 +
STACK CFI INIT 32160 3e4 .cfa: $rsp 8 + .ra: .cfa -8 + ^
STACK CFI 32162 $r15: .cfa -16 + ^ .cfa: $rsp 16 +
STACK CFI 32164 $r14: .cfa -24 + ^ .cfa: $rsp 24 +
STACK CFI 32169 $r13: .cfa -32 + ^ .cfa: $rsp 32 +
STACK CFI 3216b $r12: .cfa -40 + ^ .cfa: $rsp 40 +
STACK CFI 3216f $rbp: .cfa -48 + ^ .cfa: $rsp 48 +
STACK CFI 32170 $rbx: .cfa -56 + ^ .cfa: $rsp 56 +
STACK CFI 32179 .cfa: $rsp 544 +
STACK CFI 3243e .cfa: $rsp 56 +
STACK CFI 3243f .cfa: $rsp 48 +
STACK CFI 32440 .cfa: $rsp 40 +
STACK CFI 32442 .cfa: $rsp 32 +
STACK CFI 32444 .cfa: $rsp 24 +
STACK CFI 32446 .cfa: $rsp 16 +
STACK CFI 32448 .cfa: $rsp 8 +
STACK CFI 32450 .cfa: $rsp 544 +
STACK CFI INIT 32550 58 .cfa: $rsp 8 + .ra: .cfa -8 + ^
STACK CFI 32561 $rbp: .cfa -16 + ^ .cfa: $rsp 16 +
STACK CFI 32562 $rbx: .cfa -24 + ^ .cfa: $rsp 24 +
STACK CFI 32566 .cfa: $rsp 32 +
STACK CFI 3257d .cfa: $rsp 24 +
STACK CFI 32584 $rbx: $rbx .cfa: $rsp 16 +
STACK CFI 32585 $rbp: $rbp .cfa: $rsp 8 +
STACK CFI 32590 $rbp: .cfa -16 + ^ $rbx: .cfa -24 + ^ .cfa: $rsp 32 +
STACK CFI 3259e .cfa: $rsp 24 +
STACK CFI 3259f $rbx: $rbx .cfa: $rsp 16 +
STACK CFI 325a0 $rbp: $rbp .cfa: $rsp 8 +
STACK CFI INIT 1aa70 5 .cfa: $rsp 8 + .ra: .cfa -8 + ^
STACK CFI INIT 325b0 8 .cfa: $rsp 8 + .ra: .cfa -8 + ^
STACK CFI INIT 1aa80 2e .cfa: $rsp 8 + .ra: .cfa -8 + ^
STACK CFI 1aa8b .cfa: $rsp 16 +
STACK CFI 1aaa9 .cfa: $rsp 8 +
STACK CFI INIT 325c0 128 .cfa: $rsp 8 + .ra: .cfa -8 + ^
STACK CFI 325c2 $r13: .cfa -16 + ^ .cfa: $rsp 16 +
STACK CFI 325c4 $r12: .cfa -24 + ^ .cfa: $rsp 24 +
STACK CFI 325c5 $rbp: .cfa -32 + ^ .cfa: $rsp 32 +
STACK CFI 325c6 $rbx: .cfa -40 + ^ .cfa: $rsp 40 +
STACK CFI 325ca .cfa: $rsp 112 +
STACK CFI 32659 .cfa: $rsp 40 +
STACK CFI 3265a .cfa: $rsp 32 +
STACK CFI 3265b .cfa: $rsp 24 +
STACK CFI 3265d .cfa: $rsp 16 +
STACK CFI 3265f .cfa: $rsp 8 +
STACK CFI 32660 .cfa: $rsp 112 +
STACK CFI INIT 326f0 1c .cfa: $rsp 8 + .ra: .cfa -8 + ^
STACK CFI 326f4 .cfa: $rsp 16 +
STACK CFI 3270b .cfa: $rsp 8 +
STACK CFI INIT 32710 27 .cfa: $rsp 8 + .ra: .cfa -8 + ^
STACK CFI 32714 .cfa: $rsp 16 +
STACK CFI 32725 .cfa: $rsp 8 +
STACK CFI 32730 .cfa: $rsp 16 +
STACK CFI 32736 .cfa: $rsp 8 +
STACK CFI INIT 32740 2c .cfa: $rsp 8 + .ra: .cfa -8 + ^
STACK CFI 32744 .cfa: $rsp 16 +
STACK CFI 32756 .cfa: $rsp 8 +
STACK CFI 32760 .cfa: $rsp 16 +
STACK CFI 3276b .cfa: $rsp 8 +
STACK CFI INIT 32770 3a .cfa: $rsp 8 + .ra: .cfa -8 + ^
STACK CFI 32771 $rbp: .cfa -16 + ^ .cfa: $rsp 16 +
STACK CFI 32772 $rbx: .cfa -24 + ^ .cfa: $rsp 24 +
STACK CFI 3277b .cfa: $rsp 32 +
STACK CFI 3278d .cfa: $rsp 24 +
STACK CFI 32793 .cfa: $rsp 16 +
STACK CFI 32794 .cfa: $rsp 8 +
STACK CFI 327a0 .cfa: $rsp 32 +
STACK CFI 327a7 .cfa: $rsp 24 +
STACK CFI 327a8 .cfa: $rsp 16 +
STACK CFI 327a9 .cfa: $rsp 8 +
STACK CFI INIT 327b0 2a8 .cfa: $rsp 8 + .ra: .cfa -8 + ^
STACK CFI 327b2 $r15: .cfa -16 + ^ .cfa: $rsp 16 +
STACK CFI 327b4 $r14: .cfa -24 + ^ .cfa: $rsp 24 +
STACK CFI 327b6 $r13: .cfa -32 + ^ .cfa: $rsp 32 +
STACK CFI 327b8 $r12: .cfa -40 + ^ .cfa: $rsp 40 +
STACK CFI 327b9 $rbp: .cfa -48 + ^ .cfa: $rsp 48 +
STACK CFI 327ba $rbx: .cfa -56 + ^ .cfa: $rsp 56 +
STACK CFI 327c1 .cfa: $rsp 208 +
STACK CFI 32916 .cfa: $rsp 56 +
STACK CFI 32917 .cfa: $rsp 48 +
STACK CFI 32918 .cfa: $rsp 40 +
STACK CFI 3291a .cfa: $rsp 32 +
STACK CFI 3291c .cfa: $rsp 24 +
STACK CFI 3291e .cfa: $rsp 16 +
STACK CFI 32920 .cfa: $rsp 8 +
STACK CFI 32928 .cfa: $rsp 208 +
STACK CFI INIT 32a60 138 .cfa: $rsp 8 + .ra: .cfa -8 + ^
STACK CFI 32a62 $r13: .cfa -16 + ^ .cfa: $rsp 16 +
STACK CFI 32a64 $r12: .cfa -24 + ^ .cfa: $rsp 24 +
STACK CFI 32a65 $rbp: .cfa -32 + ^ .cfa: $rsp 32 +
STACK CFI 32a66 $rbx: .cfa -40 + ^ .cfa: $rsp 40 +
STACK CFI 32a6a .cfa: $rsp 112 +
STACK CFI 32b07 .cfa: $rsp 40 +
STACK CFI 32b08 .cfa: $rsp 32 +
STACK CFI 32b09 .cfa: $rsp 24 +
STACK CFI 32b0b .cfa: $rsp 16 +
STACK CFI 32b0d .cfa: $rsp 8 +
STACK CFI 32b10 .cfa: $rsp 112 +
STACK CFI INIT 32ba0 238 .cfa: $rsp 8 + .ra: .cfa -8 + ^
STACK CFI 32ba2 $r14: .cfa -16 + ^ .cfa: $rsp 16 +
STACK CFI 32ba4 $r13: .cfa -24 + ^ .cfa: $rsp 24 +
STACK CFI 32ba6 $r12: .cfa -32 + ^ .cfa: $rsp 32 +
STACK CFI 32ba7 $rbp: .cfa -40 + ^ .cfa: $rsp 40 +
STACK CFI 32bab $rbx: .cfa -48 + ^ .cfa: $rsp 48 +
STACK CFI 32baf .cfa: $rsp 144 +
STACK CFI 32ca8 .cfa: $rsp 48 +
STACK CFI 32ca9 .cfa: $rsp 40 +
STACK CFI 32caa .cfa: $rsp 32 +
STACK CFI 32cac .cfa: $rsp 24 +
STACK CFI 32cae .cfa: $rsp 16 +
STACK CFI 32cb0 .cfa: $rsp 8 +
STACK CFI 32cb8 .cfa: $rsp 144 +
STACK CFI INIT 32de0 5a .cfa: $rsp 8 + .ra: .cfa -8 + ^
STACK CFI 32de5 $rbx: .cfa -16 + ^ .cfa: $rsp 16 +
STACK CFI 32e11 .cfa: $rsp 8 +
STACK CFI 32e20 .cfa: $rsp 16 +
STACK CFI 32e35 .cfa: $rsp 8 +
STACK CFI INIT 32e40 7d .cfa: $rsp 8 + .ra: .cfa -8 + ^
STACK CFI 32e41 $rbp: .cfa -16 + ^ .cfa: $rsp 16 +
STACK CFI 32e42 $rbx: .cfa -24 + ^ .cfa: $rsp 24 +
STACK CFI 32e48 .cfa: $rsp 80 +
STACK CFI 32e98 .cfa: $rsp 24 +
STACK CFI 32e99 .cfa: $rsp 16 +
STACK CFI 32e9a .cfa: $rsp 8 +
STACK CFI 32e9b .cfa: $rsp 80 +
STACK CFI INIT 32ec0 9 .cfa: $rsp 8 + .ra: .cfa -8 + ^
STACK CFI INIT 1aab0 2e .cfa: $rsp 8 + .ra: .cfa -8 + ^
STACK CFI 1aabb .cfa: $rsp 16 +
STACK CFI 1aad9 .cfa: $rsp 8 +
STACK CFI INIT 36c90 4 .cfa: $rsp 8 + .ra: .cfa -8 + ^
STACK CFI INIT 36ca0 2 .cfa: $rsp 8 + .ra: .cfa -8 + ^
STACK CFI INIT 36cb0 2 .cfa: $rsp 8 + .ra: .cfa -8 + ^
STACK CFI INIT 36cc0 2 .cfa: $rsp 8 + .ra: .cfa -8 + ^
STACK CFI INIT 36cd0 5 .cfa: $rsp 8 + .ra: .cfa -8 + ^
STACK CFI INIT 36ce0 5 .cfa: $rsp 8 + .ra: .cfa -8 + ^
STACK CFI INIT 36cf0 5 .cfa: $rsp 8 + .ra: .cfa -8 + ^
STACK CFI INIT 36d00 8a .cfa: $rsp 8 + .ra: .cfa -8 + ^
STACK CFI 36d01 $rbx: .cfa -16 + ^ .cfa: $rsp 16 +
STACK CFI 36d08 .cfa: $rsp 48 +
STACK CFI 36d48 .cfa: $rsp 16 +
STACK CFI 36d49 .cfa: $rsp 8 +
STACK CFI 36d50 .cfa: $rsp 48 +
STACK CFI 36d5b .cfa: $rsp 56 +
STACK CFI 36d5f .cfa: $rsp 64 +
STACK CFI 36d60 .cfa: $rsp 72 +
STACK CFI 36d64 .cfa: $rsp 80 +
STACK CFI 36d7e .cfa: $rsp 48 +
STACK CFI INIT 32ed0 15 .cfa: $rsp 8 + .ra: .cfa -8 + ^
STACK CFI 32edb .cfa: $rsp 16 +
STACK CFI INIT 32ef0 67 .cfa: $rsp 8 + .ra: .cfa -8 + ^
STACK CFI 32ef4 .cfa: $rsp 16 +
STACK CFI 32f23 .cfa: $rsp 8 +
STACK CFI 32f24 .cfa: $rsp 16 +
STACK CFI INIT 32f60 c2 .cfa: $rsp 8 + .ra: .cfa -8 + ^
STACK CFI 32f62 $r12: .cfa -16 + ^ .cfa: $rsp 16 +
STACK CFI 32f63 $rbp: .cfa -24 + ^ .cfa: $rsp 24 +
STACK CFI 32f67 $rbx: .cfa -32 + ^ .cfa: $rsp 32 +
STACK CFI 32f6e .cfa: $rsp 48 +
STACK CFI 32fda .cfa: $rsp 32 +
STACK CFI 32fdb .cfa: $rsp 24 +
STACK CFI 32fdc .cfa: $rsp 16 +
STACK CFI 32fde .cfa: $rsp 8 +
STACK CFI 32fe0 .cfa: $rsp 48 +
STACK CFI INIT 1aae0 39 .cfa: $rsp 8 + .ra: .cfa -8 + ^
STACK CFI 1aae1 $rbp: .cfa -16 + ^ .cfa: $rsp 16 +
STACK CFI 1aae2 $rbx: .cfa -24 + ^ .cfa: $rsp 24 +
STACK CFI 1aaf4 .cfa: $rsp 32 +
STACK CFI 1ab0c .cfa: $rsp 24 +
STACK CFI 1ab13 .cfa: $rsp 16 +
STACK CFI 1ab14 .cfa: $rsp 8 +
STACK CFI INIT 33030 a3 .cfa: $rsp 8 + .ra: .cfa -8 + ^
STACK CFI 33032 $r13: .cfa -16 + ^ .cfa: $rsp 16 +
STACK CFI 33034 $r12: .cfa -24 + ^ .cfa: $rsp 24 +
STACK CFI 3303c $rbp: .cfa -32 + ^ .cfa: $rsp 32 +
STACK CFI 3303d $rbx: .cfa -40 + ^ .cfa: $rsp 40 +
STACK CFI 33048 .cfa: $rsp 80 +
STACK CFI 330c7 .cfa: $rsp 40 +
STACK CFI 330c8 .cfa: $rsp 32 +
STACK CFI 330c9 .cfa: $rsp 24 +
STACK CFI 330cb .cfa: $rsp 16 +
STACK CFI 330cd .cfa: $rsp 8 +
STACK CFI 330ce .cfa: $rsp 80 +
STACK CFI INIT 36d90 65 .cfa: $rsp 8 + .ra: .cfa -8 + ^
STACK CFI 36d92 $r12: .cfa -16 + ^ .cfa: $rsp 16 +
STACK CFI 36d93 $rbp: .cfa -24 + ^ .cfa: $rsp 24 +
STACK CFI 36d94 $rbx: .cfa -32 + ^ .cfa: $rsp 32 +
STACK CFI 36dde .cfa: $rsp 24 +
STACK CFI 36de2 .cfa: $rsp 16 +
STACK CFI 36de4 .cfa: $rsp 8 +
STACK CFI 36df0 .cfa: $rsp 32 +
STACK CFI 36df1 .cfa: $rsp 24 +
STACK CFI 36df2 .cfa: $rsp 16 +
STACK CFI 36df4 .cfa: $rsp 8 +
STACK CFI INIT 36e00 9e .cfa: $rsp 8 + .ra: .cfa -8 + ^
STACK CFI 36e56 $rbp: .cfa -16 + ^ .cfa: $rsp 16 +
STACK CFI 36e57 $rbx: .cfa -24 + ^ .cfa: $rsp 24 +
STACK CFI 36e64 .cfa: $rsp 32 +
STACK CFI 36e6d .cfa: $rsp 24 +
STACK CFI 36e74 $rbx: $rbx .cfa: $rsp 16 +
STACK CFI 36e75 $rbp: $rbp .cfa: $rsp 8 +
STACK CFI INIT 36ea0 8d .cfa: $rsp 8 + .ra: .cfa -8 + ^
STACK CFI 36ea1 $rbp: .cfa -16 + ^ .cfa: $rsp 16 +
STACK CFI 36ea2 $rbx: .cfa -24 + ^ .cfa: $rsp 24 +
STACK CFI 36eb4 .cfa: $rsp 80 +
STACK CFI 36f08 .cfa: $rsp 24 +
STACK CFI 36f09 .cfa: $rsp 16 +
STACK CFI 36f0a .cfa: $rsp 8 +
STACK CFI 36f0b .cfa: $rsp 80 +
STACK CFI INIT 330e0 35 .cfa: $rsp 8 + .ra: .cfa -8 + ^
STACK CFI 330e1 $rbx: .cfa -16 + ^ .cfa: $rsp 16 +
STACK CFI 330f9 .cfa: $rsp 8 +
STACK CFI 33100 .cfa: $rsp 16 +
STACK CFI 33114 .cfa: $rsp 8 +
STACK CFI INIT 33120 3c .cfa: $rsp 8 + .ra: .cfa -8 + ^
STACK CFI 33121 $rbx: .cfa -16 + ^ .cfa: $rsp 16 +
STACK CFI 3314e .cfa: $rsp 8 +
STACK CFI 33150 .cfa: $rsp 16 +
STACK CFI 3315b .cfa: $rsp 8 +
STACK CFI INIT 33160 26 .cfa: $rsp 8 + .ra: .cfa -8 + ^
STACK CFI 33161 $rbx: .cfa -16 + ^ .cfa: $rsp 16 +
STACK CFI 33185 .cfa: $rsp 8 +
STACK CFI INIT 33190 12 .cfa: $rsp 8 + .ra: .cfa -8 + ^
STACK CFI INIT 36f30 32 .cfa: $rsp 8 + .ra: .cfa -8 + ^
STACK CFI 36f31 $rbx: .cfa -16 + ^ .cfa: $rsp 16 +
STACK CFI 36f53 .cfa: $rsp 8 +
STACK CFI 36f60 .cfa: $rsp 16 +
STACK CFI 36f61 .cfa: $rsp 8 +
STACK CFI INIT 36f70 a5 .cfa: $rsp 8 + .ra: .cfa -8 + ^
STACK CFI 36f71 $rbp: .cfa -16 + ^ .cfa: $rsp 16 +
STACK CFI 36f72 $rbx: .cfa -24 + ^ .cfa: $rsp 24 +
STACK CFI 36f7d .cfa: $rsp 32 +
STACK CFI 36fb5 .cfa: $rsp 24 +
STACK CFI 36fb6 .cfa: $rsp 16 +
STACK CFI 36fb7 .cfa: $rsp 8 +
STACK CFI 36fc0 .cfa: $rsp 32 +
STACK CFI 36fec .cfa: $rsp 24 +
STACK CFI 36fed .cfa: $rsp 16 +
STACK CFI 36fee .cfa: $rsp 8 +
STACK CFI 36ff0 .cfa: $rsp 32 +
STACK CFI INIT 331b0 42 .cfa: $rsp 8 + .ra: .cfa -8 + ^
STACK CFI 331b6 $rbp: .cfa -16 + ^ .cfa: $rsp 16 +
STACK CFI 331b7 $rbx: .cfa -24 + ^ .cfa: $rsp 24 +
STACK CFI 331c1 .cfa: $rsp 32 +
STACK CFI 331e5 .cfa: $rsp 24 +
STACK CFI 331e9 $rbx: $rbx .cfa: $rsp 16 +
STACK CFI 331ea $rbp: $rbp .cfa: $rsp 8 +
STACK CFI INIT 33200 492 .cfa: $rsp 8 + .ra: .cfa -8 + ^
STACK CFI 33202 $r15: .cfa -16 + ^ .cfa: $rsp 16 +
STACK CFI 33204 $r14: .cfa -24 + ^ .cfa: $rsp 24 +
STACK CFI 33209 $r13: .cfa -32 + ^ .cfa: $rsp 32 +
STACK CFI 3320b $r12: .cfa -40 + ^ .cfa: $rsp 40 +
STACK CFI 3320f $rbp: .cfa -48 + ^ .cfa: $rsp 48 +
STACK CFI 33210 $rbx: .cfa -56 + ^ .cfa: $rsp 56 +
STACK CFI 33225 .cfa: $rsp 320 +
STACK CFI 334b7 .cfa: $rsp 56 +
STACK CFI 334b8 .cfa: $rsp 48 +
STACK CFI 334b9 .cfa: $rsp 40 +
STACK CFI 334bb .cfa: $rsp 32 +
STACK CFI 334bd .cfa: $rsp 24 +
STACK CFI 334bf .cfa: $rsp 16 +
STACK CFI 334c1 .cfa: $rsp 8 +
STACK CFI 334c8 .cfa: $rsp 320 +
STACK CFI INIT 336a0 492 .cfa: $rsp 8 + .ra: .cfa -8 + ^
STACK CFI 336a2 $r15: .cfa -16 + ^ .cfa: $rsp 16 +
STACK CFI 336a4 $r14: .cfa -24 + ^ .cfa: $rsp 24 +
STACK CFI 336a9 $r13: .cfa -32 + ^ .cfa: $rsp 32 +
STACK CFI 336ab $r12: .cfa -40 + ^ .cfa: $rsp 40 +
STACK CFI 336af $rbp: .cfa -48 + ^ .cfa: $rsp 48 +
STACK CFI 336b0 $rbx: .cfa -56 + ^ .cfa: $rsp 56 +
STACK CFI 336c5 .cfa: $rsp 320 +
STACK CFI 33957 .cfa: $rsp 56 +
STACK CFI 33958 .cfa: $rsp 48 +
STACK CFI 33959 .cfa: $rsp 40 +
STACK CFI 3395b .cfa: $rsp 32 +
STACK CFI 3395d .cfa: $rsp 24 +
STACK CFI 3395f .cfa: $rsp 16 +
STACK CFI 33961 .cfa: $rsp 8 +
STACK CFI 33968 .cfa: $rsp 320 +
STACK CFI INIT 33b40 127 .cfa: $rsp 8 + .ra: .cfa -8 + ^
STACK CFI 33b42 $r14: .cfa -16 + ^ .cfa: $rsp 16 +
STACK CFI 33b44 $r13: .cfa -24 + ^ .cfa: $rsp 24 +
STACK CFI 33b46 $r12: .cfa -32 + ^ .cfa: $rsp 32 +
STACK CFI 33b47 $rbp: .cfa -40 + ^ .cfa: $rsp 40 +
STACK CFI 33b48 $rbx: .cfa -48 + ^ .cfa: $rsp 48 +
STACK CFI 33b4c .cfa: $rsp 112 +
STACK CFI 33c3b .cfa: $rsp 48 +
STACK CFI 33c3c .cfa: $rsp 40 +
STACK CFI 33c3d .cfa: $rsp 32 +
STACK CFI 33c3f .cfa: $rsp 24 +
STACK CFI 33c41 .cfa: $rsp 16 +
STACK CFI 33c43 .cfa: $rsp 8 +
STACK CFI 33c44 .cfa: $rsp 112 +
STACK CFI INIT 33c70 202 .cfa: $rsp 8 + .ra: .cfa -8 + ^
STACK CFI 33c72 $r15: .cfa -16 + ^ .cfa: $rsp 16 +
STACK CFI 33c74 $r14: .cfa -24 + ^ .cfa: $rsp 24 +
STACK CFI 33c76 $r13: .cfa -32 + ^ .cfa: $rsp 32 +
STACK CFI 33c78 $r12: .cfa -40 + ^ .cfa: $rsp 40 +
STACK CFI 33c79 $rbp: .cfa -48 + ^ .cfa: $rsp 48 +
STACK CFI 33c7a $rbx: .cfa -56 + ^ .cfa: $rsp 56 +
STACK CFI 33c7e .cfa: $rsp 144 +
STACK CFI 33da7 .cfa: $rsp 56 +
STACK CFI 33da8 .cfa: $rsp 48 +
STACK CFI 33da9 .cfa: $rsp 40 +
STACK CFI 33dab .cfa: $rsp 32 +
STACK CFI 33dad .cfa: $rsp 24 +
STACK CFI 33daf .cfa: $rsp 16 +
STACK CFI 33db1 .cfa: $rsp 8 +
STACK CFI 33db2 .cfa: $rsp 144 +
STACK CFI INIT 37020 32 .cfa: $rsp 8 + .ra: .cfa -8 + ^
STACK CFI 37021 $rbx: .cfa -16 + ^ .cfa: $rsp 16 +
STACK CFI 37043 .cfa: $rsp 8 +
STACK CFI 37050 .cfa: $rsp 16 +
STACK CFI 37051 .cfa: $rsp 8 +
STACK CFI INIT 37060 fc .cfa: $rsp 8 + .ra: .cfa -8 + ^
STACK CFI 37062 $r12: .cfa -16 + ^ .cfa: $rsp 16 +
STACK CFI 37063 $rbp: .cfa -24 + ^ .cfa: $rsp 24 +
STACK CFI 3706b $rbx: .cfa -32 + ^ .cfa: $rsp 32 +
STACK CFI 37079 .cfa: $rsp 112 +
STACK CFI 37118 .cfa: $rsp 32 +
STACK CFI 37119 .cfa: $rsp 24 +
STACK CFI 3711a .cfa: $rsp 16 +
STACK CFI 3711c .cfa: $rsp 8 +
STACK CFI 3711d .cfa: $rsp 112 +
STACK CFI INIT 37160 fc .cfa: $rsp 8 + .ra: .cfa -8 + ^
STACK CFI 37162 $r12: .cfa -16 + ^ .cfa: $rsp 16 +
STACK CFI 37163 $rbp: .cfa -24 + ^ .cfa: $rsp 24 +
STACK CFI 3716b $rbx: .cfa -32 + ^ .cfa: $rsp 32 +
STACK CFI 37179 .cfa: $rsp 112 +
STACK CFI 37218 .cfa: $rsp 32 +
STACK CFI 37219 .cfa: $rsp 24 +
STACK CFI 3721a .cfa: $rsp 16 +
STACK CFI 3721c .cfa: $rsp 8 +
STACK CFI 3721d .cfa: $rsp 112 +
STACK CFI INIT 37260 fc .cfa: $rsp 8 + .ra: .cfa -8 + ^
STACK CFI 37262 $r12: .cfa -16 + ^ .cfa: $rsp 16 +
STACK CFI 37263 $rbp: .cfa -24 + ^ .cfa: $rsp 24 +
STACK CFI 3726b $rbx: .cfa -32 + ^ .cfa: $rsp 32 +
STACK CFI 37279 .cfa: $rsp 112 +
STACK CFI 37318 .cfa: $rsp 32 +
STACK CFI 37319 .cfa: $rsp 24 +
STACK CFI 3731a .cfa: $rsp 16 +
STACK CFI 3731c .cfa: $rsp 8 +
STACK CFI 3731d .cfa: $rsp 112 +
STACK CFI INIT 37360 802 .cfa: $rsp 8 + .ra: .cfa -8 + ^
STACK CFI 37362 $r15: .cfa -16 + ^ .cfa: $rsp 16 +
STACK CFI 37364 $r14: .cfa -24 + ^ .cfa: $rsp 24 +
STACK CFI 37369 $r13: .cfa -32 + ^ .cfa: $rsp 32 +
STACK CFI 3736b $r12: .cfa -40 + ^ .cfa: $rsp 40 +
STACK CFI 3736f $rbp: .cfa -48 + ^ .cfa: $rsp 48 +
STACK CFI 37370 $rbx: .cfa -56 + ^ .cfa: $rsp 56 +
STACK CFI 3737d .cfa: $rsp 640 +
STACK CFI 37476 .cfa: $rsp 648 +
STACK CFI 37478 .cfa: $rsp 656 +
STACK CFI 374a0 .cfa: $rsp 648 +
STACK CFI 374a1 .cfa: $rsp 640 +
STACK CFI 375ae .cfa: $rsp 56 +
STACK CFI 375af .cfa: $rsp 48 +
STACK CFI 375b0 .cfa: $rsp 40 +
STACK CFI 375b2 .cfa: $rsp 32 +
STACK CFI 375b4 .cfa: $rsp 24 +
STACK CFI 375b6 .cfa: $rsp 16 +
STACK CFI 375b8 .cfa: $rsp 8 +
STACK CFI 375c0 .cfa: $rsp 640 +
STACK CFI INIT 37b70 ad .cfa: $rsp 8 + .ra: .cfa -8 + ^
STACK CFI 37b72 $r14: .cfa -16 + ^ .cfa: $rsp 16 +
STACK CFI 37b74 $r13: .cfa -24 + ^ .cfa: $rsp 24 +
STACK CFI 37b79 $r12: .cfa -32 + ^ .cfa: $rsp 32 +
STACK CFI 37b7a $rbp: .cfa -40 + ^ .cfa: $rsp 40 +
STACK CFI 37b7e $rbx: .cfa -48 + ^ .cfa: $rsp 48 +
STACK CFI 37b82 .cfa: $rsp 96 +
STACK CFI 37bf2 .cfa: $rsp 48 +
STACK CFI 37bf3 .cfa: $rsp 40 +
STACK CFI 37bf4 .cfa: $rsp 32 +
STACK CFI 37bf6 .cfa: $rsp 24 +
STACK CFI 37bf8 .cfa: $rsp 16 +
STACK CFI 37bfa .cfa: $rsp 8 +
STACK CFI 37bfb .cfa: $rsp 96 +
STACK CFI INIT 37c20 428 .cfa: $rsp 8 + .ra: .cfa -8 + ^
STACK CFI 37c22 $r15: .cfa -16 + ^ .cfa: $rsp 16 +
STACK CFI 37c24 $r14: .cfa -24 + ^ .cfa: $rsp 24 +
STACK CFI 37c26 $r13: .cfa -32 + ^ .cfa: $rsp 32 +
STACK CFI 37c28 $r12: .cfa -40 + ^ .cfa: $rsp 40 +
STACK CFI 37c2c $rbp: .cfa -48 + ^ .cfa: $rsp 48 +
STACK CFI 37c2d $rbx: .cfa -56 + ^ .cfa: $rsp 56 +
STACK CFI 37c3a .cfa: $rsp 272 +
STACK CFI 37ca3 .cfa: $rsp 56 +
STACK CFI 37ca4 .cfa: $rsp 48 +
STACK CFI 37ca5 .cfa: $rsp 40 +
STACK CFI 37ca7 .cfa: $rsp 32 +
STACK CFI 37ca9 .cfa: $rsp 24 +
STACK CFI 37cab .cfa: $rsp 16 +
STACK CFI 37cad .cfa: $rsp 8 +
STACK CFI 37cb0 .cfa: $rsp 272 +
STACK CFI INIT 38050 4c4 .cfa: $rsp 8 + .ra: .cfa -8 + ^
STACK CFI 38052 $r15: .cfa -16 + ^ .cfa: $rsp 16 +
STACK CFI 38054 $r14: .cfa -24 + ^ .cfa: $rsp 24 +
STACK CFI 38056 $r13: .cfa -32 + ^ .cfa: $rsp 32 +
STACK CFI 38058 $r12: .cfa -40 + ^ .cfa: $rsp 40 +
STACK CFI 38059 $rbp: .cfa -48 + ^ .cfa: $rsp 48 +
STACK CFI 3805a $rbx: .cfa -56 + ^ .cfa: $rsp 56 +
STACK CFI 38061 .cfa: $rsp 608 +
STACK CFI 3809c .cfa: $rsp 56 +
STACK CFI 3809d .cfa: $rsp 48 +
STACK CFI 3809e .cfa: $rsp 40 +
STACK CFI 380a0 .cfa: $rsp 32 +
STACK CFI 380a2 .cfa: $rsp 24 +
STACK CFI 380a4 .cfa: $rsp 16 +
STACK CFI 380a6 .cfa: $rsp 8 +
STACK CFI 380b0 .cfa: $rsp 608 +
STACK CFI INIT 38520 4d0 .cfa: $rsp 8 + .ra: .cfa -8 + ^
STACK CFI 38522 $r15: .cfa -16 + ^ .cfa: $rsp 16 +
STACK CFI 38524 $r14: .cfa -24 + ^ .cfa: $rsp 24 +
STACK CFI 38526 $r13: .cfa -32 + ^ .cfa: $rsp 32 +
STACK CFI 38528 $r12: .cfa -40 + ^ .cfa: $rsp 40 +
STACK CFI 38529 $rbp: .cfa -48 + ^ .cfa: $rsp 48 +
STACK CFI 3852a $rbx: .cfa -56 + ^ .cfa: $rsp 56 +
STACK CFI 38531 .cfa: $rsp 624 +
STACK CFI 38570 .cfa: $rsp 56 +
STACK CFI 38571 .cfa: $rsp 48 +
STACK CFI 38572 .cfa: $rsp 40 +
STACK CFI 38574 .cfa: $rsp 32 +
STACK CFI 38576 .cfa: $rsp 24 +
STACK CFI 38578 .cfa: $rsp 16 +
STACK CFI 3857a .cfa: $rsp 8 +
STACK CFI 38580 .cfa: $rsp 624 +
STACK CFI INIT 389f0 4d0 .cfa: $rsp 8 + .ra: .cfa -8 + ^
STACK CFI 389f2 $r15: .cfa -16 + ^ .cfa: $rsp 16 +
STACK CFI 389f4 $r14: .cfa -24 + ^ .cfa: $rsp 24 +
STACK CFI 389f6 $r13: .cfa -32 + ^ .cfa: $rsp 32 +
STACK CFI 389f8 $r12: .cfa -40 + ^ .cfa: $rsp 40 +
STACK CFI 389f9 $rbp: .cfa -48 + ^ .cfa: $rsp 48 +
STACK CFI 389fa $rbx: .cfa -56 + ^ .cfa: $rsp 56 +
STACK CFI 38a01 .cfa: $rsp 624 +
STACK CFI 38a40 .cfa: $rsp 56 +
STACK CFI 38a41 .cfa: $rsp 48 +
STACK CFI 38a42 .cfa: $rsp 40 +
STACK CFI 38a44 .cfa: $rsp 32 +
STACK CFI 38a46 .cfa: $rsp 24 +
STACK CFI 38a48 .cfa: $rsp 16 +
STACK CFI 38a4a .cfa: $rsp 8 +
STACK CFI 38a50 .cfa: $rsp 624 +
STACK CFI INIT 38ec0 4e7 .cfa: $rsp 8 + .ra: .cfa -8 + ^
STACK CFI 38ec2 $r15: .cfa -16 + ^ .cfa: $rsp 16 +
STACK CFI 38ec4 $r14: .cfa -24 + ^ .cfa: $rsp 24 +
STACK CFI 38ec6 $r13: .cfa -32 + ^ .cfa: $rsp 32 +
STACK CFI 38ec8 $r12: .cfa -40 + ^ .cfa: $rsp 40 +
STACK CFI 38ec9 $rbp: .cfa -48 + ^ .cfa: $rsp 48 +
STACK CFI 38eca $rbx: .cfa -56 + ^ .cfa: $rsp 56 +
STACK CFI 38ed1 .cfa: $rsp 656 +
STACK CFI 38f14 .cfa: $rsp 56 +
STACK CFI 38f15 .cfa: $rsp 48 +
STACK CFI 38f16 .cfa: $rsp 40 +
STACK CFI 38f18 .cfa: $rsp 32 +
STACK CFI 38f1a .cfa: $rsp 24 +
STACK CFI 38f1c .cfa: $rsp 16 +
STACK CFI 38f1e .cfa: $rsp 8 +
STACK CFI 38f20 .cfa: $rsp 656 +
STACK CFI INIT 33e80 c6 .cfa: $rsp 8 + .ra: .cfa -8 + ^
STACK CFI 33e82 $r12: .cfa -16 + ^ .cfa: $rsp 16 +
STACK CFI 33e83 $rbp: .cfa -24 + ^ .cfa: $rsp 24 +
STACK CFI 33e84 $rbx: .cfa -32 + ^ .cfa: $rsp 32 +
STACK CFI 33e8b .cfa: $rsp 64 +
STACK CFI 33ee4 .cfa: $rsp 32 +
STACK CFI 33ee5 .cfa: $rsp 24 +
STACK CFI 33ee6 .cfa: $rsp 16 +
STACK CFI 33ee8 .cfa: $rsp 8 +
STACK CFI 33ee9 .cfa: $rsp 64 +
STACK CFI INIT 33f50 5 .cfa: $rsp 8 + .ra: .cfa -8 + ^
STACK CFI INIT 393b0 ea .cfa: $rsp 8 + .ra: .cfa -8 + ^
STACK CFI 393b2 $r15: .cfa -16 + ^ .cfa: $rsp 16 +
STACK CFI 393b4 $r14: .cfa -24 + ^ .cfa: $rsp 24 +
STACK CFI 393b9 $r13: .cfa -32 + ^ .cfa: $rsp 32 +
STACK CFI 393bb $r12: .cfa -40 + ^ .cfa: $rsp 40 +
STACK CFI 393bf $rbp: .cfa -48 + ^ .cfa: $rsp 48 +
STACK CFI 393c0 $rbx: .cfa -56 + ^ .cfa: $rsp 56 +
STACK CFI 393c4 .cfa: $rsp 64 +
STACK CFI 3944a .cfa: $rsp 56 +
STACK CFI 3944b .cfa: $rsp 48 +
STACK CFI 3944c .cfa: $rsp 40 +
STACK CFI 3944e .cfa: $rsp 32 +
STACK CFI 39450 .cfa: $rsp 24 +
STACK CFI 39452 .cfa: $rsp 16 +
STACK CFI 39454 .cfa: $rsp 8 +
STACK CFI 39458 .cfa: $rsp 64 +
STACK CFI INIT 33f60 4d6 .cfa: $rsp 8 + .ra: .cfa -8 + ^
STACK CFI 33f62 $r15: .cfa -16 + ^ .cfa: $rsp 16 +
STACK CFI 33f64 $r14: .cfa -24 + ^ .cfa: $rsp 24 +
STACK CFI 33f66 $r13: .cfa -32 + ^ .cfa: $rsp 32 +
STACK CFI 33f68 $r12: .cfa -40 + ^ .cfa: $rsp 40 +
STACK CFI 33f6c $rbp: .cfa -48 + ^ .cfa: $rsp 48 +
STACK CFI 33f6d $rbx: .cfa -56 + ^ .cfa: $rsp 56 +
STACK CFI 33f77 .cfa: $rsp 320 +
STACK CFI 341f1 .cfa: $rsp 56 +
STACK CFI 341f2 .cfa: $rsp 48 +
STACK CFI 341f3 .cfa: $rsp 40 +
STACK CFI 341f5 .cfa: $rsp 32 +
STACK CFI 341f7 .cfa: $rsp 24 +
STACK CFI 341f9 .cfa: $rsp 16 +
STACK CFI 341fb .cfa: $rsp 8 +
STACK CFI 34200 .cfa: $rsp 320 +
STACK CFI INIT 394a0 4d0 .cfa: $rsp 8 + .ra: .cfa -8 + ^
STACK CFI 394a2 $r15: .cfa -16 + ^ .cfa: $rsp 16 +
STACK CFI 394a4 $r14: .cfa -24 + ^ .cfa: $rsp 24 +
STACK CFI 394a6 $r13: .cfa -32 + ^ .cfa: $rsp 32 +
STACK CFI 394a8 $r12: .cfa -40 + ^ .cfa: $rsp 40 +
STACK CFI 394a9 $rbp: .cfa -48 + ^ .cfa: $rsp 48 +
STACK CFI 394aa $rbx: .cfa -56 + ^ .cfa: $rsp 56 +
STACK CFI 394b1 .cfa: $rsp 624 +
STACK CFI 394f0 .cfa: $rsp 56 +
STACK CFI 394f1 .cfa: $rsp 48 +
STACK CFI 394f2 .cfa: $rsp 40 +
STACK CFI 394f4 .cfa: $rsp 32 +
STACK CFI 394f6 .cfa: $rsp 24 +
STACK CFI 394f8 .cfa: $rsp 16 +
STACK CFI 394fa .cfa: $rsp 8 +
STACK CFI 39500 .cfa: $rsp 624 +
STACK CFI INIT 39970 3a3 .cfa: $rsp 8 + .ra: .cfa -8 + ^
STACK CFI 39972 $r15: .cfa -16 + ^ .cfa: $rsp 16 +
STACK CFI 39974 $r14: .cfa -24 + ^ .cfa: $rsp 24 +
STACK CFI 39979 $r13: .cfa -32 + ^ .cfa: $rsp 32 +
STACK CFI 3997b $r12: .cfa -40 + ^ .cfa: $rsp 40 +
STACK CFI 3997f $rbp: .cfa -48 + ^ .cfa: $rsp 48 +
STACK CFI 39980 $rbx: .cfa -56 + ^ .cfa: $rsp 56 +
STACK CFI 3998a .cfa: $rsp 560 +
STACK CFI 39c36 .cfa: $rsp 56 +
STACK CFI 39c37 .cfa: $rsp 48 +
STACK CFI 39c38 .cfa: $rsp 40 +
STACK CFI 39c3a .cfa: $rsp 32 +
STACK CFI 39c3c .cfa: $rsp 24 +
STACK CFI 39c3e .cfa: $rsp 16 +
STACK CFI 39c40 .cfa: $rsp 8 +
STACK CFI 39c48 .cfa: $rsp 560 +
STACK CFI INIT 34440 299 .cfa: $rsp 8 + .ra: .cfa -8 + ^
STACK CFI 34442 $r15: .cfa -16 + ^ .cfa: $rsp 16 +
STACK CFI 34444 $r14: .cfa -24 + ^ .cfa: $rsp 24 +
STACK CFI 34446 $r13: .cfa -32 + ^ .cfa: $rsp 32 +
STACK CFI 34448 $r12: .cfa -40 + ^ .cfa: $rsp 40 +
STACK CFI 34449 $rbp: .cfa -48 + ^ .cfa: $rsp 48 +
STACK CFI 3444a $rbx: .cfa -56 + ^ .cfa: $rsp 56 +
STACK CFI 34451 .cfa: $rsp 224 +
STACK CFI 3465b .cfa: $rsp 56 +
STACK CFI 3465c .cfa: $rsp 48 +
STACK CFI 3465d .cfa: $rsp 40 +
STACK CFI 3465f .cfa: $rsp 32 +
STACK CFI 34661 .cfa: $rsp 24 +
STACK CFI 34663 .cfa: $rsp 16 +
STACK CFI 34665 .cfa: $rsp 8 +
STACK CFI 34666 .cfa: $rsp 224 +
STACK CFI INIT 39d20 a2 .cfa: $rsp 8 + .ra: .cfa -8 + ^
STACK CFI 39d22 $r14: .cfa -16 + ^ .cfa: $rsp 16 +
STACK CFI 39d24 $r13: .cfa -24 + ^ .cfa: $rsp 24 +
STACK CFI 39d29 $r12: .cfa -32 + ^ .cfa: $rsp 32 +
STACK CFI 39d2a $rbp: .cfa -40 + ^ .cfa: $rsp 40 +
STACK CFI 39d2e $rbx: .cfa -48 + ^ .cfa: $rsp 48 +
STACK CFI 39d32 .cfa: $rsp 96 +
STACK CFI 39d97 .cfa: $rsp 48 +
STACK CFI 39d98 .cfa: $rsp 40 +
STACK CFI 39d99 .cfa: $rsp 32 +
STACK CFI 39d9b .cfa: $rsp 24 +
STACK CFI 39d9d .cfa: $rsp 16 +
STACK CFI 39d9f .cfa: $rsp 8 +
STACK CFI 39da0 .cfa: $rsp 96 +
STACK CFI INIT 39dd0 61 .cfa: $rsp 8 + .ra: .cfa -8 + ^
STACK CFI 39dd2 $r12: .cfa -16 + ^ .cfa: $rsp 16 +
STACK CFI 39dd3 $rbp: .cfa -24 + ^ .cfa: $rsp 24 +
STACK CFI 39dd7 $rbx: .cfa -32 + ^ .cfa: $rsp 32 +
STACK CFI 39e2d .cfa: $rsp 24 +
STACK CFI 39e2e .cfa: $rsp 16 +
STACK CFI 39e30 .cfa: $rsp 8 +
STACK CFI INIT 39e40 4f .cfa: $rsp 8 + .ra: .cfa -8 + ^
STACK CFI 39e41 $rbp: .cfa -16 + ^ .cfa: $rsp 16 +
STACK CFI 39e42 $rbx: .cfa -24 + ^ .cfa: $rsp 24 +
STACK CFI 39e49 .cfa: $rsp 80 +
STACK CFI INIT 39e90 f8 .cfa: $rsp 8 + .ra: .cfa -8 + ^
STACK CFI 39e92 $r14: .cfa -16 + ^ .cfa: $rsp 16 +
STACK CFI 39e94 $r13: .cfa -24 + ^ .cfa: $rsp 24 +
STACK CFI 39e96 $r12: .cfa -32 + ^ .cfa: $rsp 32 +
STACK CFI 39e97 $rbp: .cfa -40 + ^ .cfa: $rsp 40 +
STACK CFI 39e98 $rbx: .cfa -48 + ^ .cfa: $rsp 48 +
STACK CFI 39e9c .cfa: $rsp 128 +
STACK CFI 39ecd .cfa: $rsp 48 +
STACK CFI 39ece .cfa: $rsp 40 +
STACK CFI 39ecf .cfa: $rsp 32 +
STACK CFI 39ed1 .cfa: $rsp 24 +
STACK CFI 39ed3 .cfa: $rsp 16 +
STACK CFI 39ed5 .cfa: $rsp 8 +
STACK CFI 39ee0 .cfa: $rsp 128 +
STACK CFI INIT 346e0 100 .cfa: $rsp 8 + .ra: .cfa -8 + ^
STACK CFI 346e1 $rbp: .cfa -16 + ^ .cfa: $rsp 16 +
STACK CFI 346e2 $rbx: .cfa -24 + ^ .cfa: $rsp 24 +
STACK CFI 346f1 .cfa: $rsp 112 +
STACK CFI 34738 .cfa: $rsp 24 +
STACK CFI 34739 .cfa: $rsp 16 +
STACK CFI 3473a .cfa: $rsp 8 +
STACK CFI 34740 .cfa: $rsp 112 +
STACK CFI INIT 347e0 183 .cfa: $rsp 8 + .ra: .cfa -8 + ^
STACK CFI 347e2 $r12: .cfa -16 + ^ .cfa: $rsp 16 +
STACK CFI 347e3 $rbp: .cfa -24 + ^ .cfa: $rsp 24 +
STACK CFI 347e7 $rbx: .cfa -32 + ^ .cfa: $rsp 32 +
STACK CFI 347f1 .cfa: $rsp 48 +
STACK CFI 3489b .cfa: $rsp 32 +
STACK CFI 3489c .cfa: $rsp 24 +
STACK CFI 3489d .cfa: $rsp 16 +
STACK CFI 3489f .cfa: $rsp 8 +
STACK CFI 348a0 .cfa: $rsp 48 +
STACK CFI INIT 34970 ac .cfa: $rsp 8 + .ra: .cfa -8 + ^
STACK CFI 34971 $rbx: .cfa -16 + ^ .cfa: $rsp 16 +
STACK CFI 3497c .cfa: $rsp 32 +
STACK CFI 349c8 .cfa: $rsp 16 +
STACK CFI 349c9 .cfa: $rsp 8 +
STACK CFI 349ca .cfa: $rsp 32 +
STACK CFI INIT 34a20 f5 .cfa: $rsp 8 + .ra: .cfa -8 + ^
STACK CFI 34a22 $r14: .cfa -16 + ^ .cfa: $rsp 16 +
STACK CFI 34a24 $r13: .cfa -24 + ^ .cfa: $rsp 24 +
STACK CFI 34a29 $r12: .cfa -32 + ^ .cfa: $rsp 32 +
STACK CFI 34a2a $rbp: .cfa -40 + ^ .cfa: $rsp 40 +
STACK CFI 34a2d $rbx: .cfa -48 + ^ .cfa: $rsp 48 +
STACK CFI 34a42 .cfa: $rsp 64 +
STACK CFI 34a9f .cfa: $rsp 48 +
STACK CFI 34aa0 .cfa: $rsp 40 +
STACK CFI 34aa1 .cfa: $rsp 32 +
STACK CFI 34aa3 .cfa: $rsp 24 +
STACK CFI 34aa5 .cfa: $rsp 16 +
STACK CFI 34aa7 .cfa: $rsp 8 +
STACK CFI 34ab0 .cfa: $rsp 64 +
STACK CFI INIT 34b20 136 .cfa: $rsp 8 + .ra: .cfa -8 + ^
STACK CFI 34b21 $rbp: .cfa -16 + ^ .cfa: $rsp 16 +
STACK CFI 34b22 $rbx: .cfa -24 + ^ .cfa: $rsp 24 +
STACK CFI 34b2b .cfa: $rsp 4352 +
STACK CFI 34c4e .cfa: $rsp 24 +
STACK CFI 34c4f .cfa: $rsp 16 +
STACK CFI 34c50 .cfa: $rsp 8 +
STACK CFI 34c51 .cfa: $rsp 4352 +
STACK CFI INIT 34c60 129 .cfa: $rsp 8 + .ra: .cfa -8 + ^
STACK CFI 34c62 $r13: .cfa -16 + ^ .cfa: $rsp 16 +
STACK CFI 34c64 $r12: .cfa -24 + ^ .cfa: $rsp 24 +
STACK CFI 34c68 $rbp: .cfa -32 + ^ .cfa: $rsp 32 +
STACK CFI 34c69 $rbx: .cfa -40 + ^ .cfa: $rsp 40 +
STACK CFI 34c76 .cfa: $rsp 64 +
STACK CFI 34cfd .cfa: $rsp 40 +
STACK CFI 34cfe .cfa: $rsp 32 +
STACK CFI 34cff .cfa: $rsp 24 +
STACK CFI 34d01 .cfa: $rsp 16 +
STACK CFI 34d03 .cfa: $rsp 8 +
STACK CFI 34d08 .cfa: $rsp 64 +
STACK CFI INIT 39f90 4f .cfa: $rsp 8 + .ra: .cfa -8 + ^
STACK CFI 39f91 $rbp: .cfa -16 + ^ .cfa: $rsp 16 +
STACK CFI 39f92 $rbx: .cfa -24 + ^ .cfa: $rsp 24 +
STACK CFI 39f99 .cfa: $rsp 80 +
STACK CFI INIT 39fe0 f8 .cfa: $rsp 8 + .ra: .cfa -8 + ^
STACK CFI 39fe2 $r14: .cfa -16 + ^ .cfa: $rsp 16 +
STACK CFI 39fe4 $r13: .cfa -24 + ^ .cfa: $rsp 24 +
STACK CFI 39fe6 $r12: .cfa -32 + ^ .cfa: $rsp 32 +
STACK CFI 39fe7 $rbp: .cfa -40 + ^ .cfa: $rsp 40 +
STACK CFI 39fe8 $rbx: .cfa -48 + ^ .cfa: $rsp 48 +
STACK CFI 39fec .cfa: $rsp 128 +
STACK CFI 3a01d .cfa: $rsp 48 +
STACK CFI 3a01e .cfa: $rsp 40 +
STACK CFI 3a01f .cfa: $rsp 32 +
STACK CFI 3a021 .cfa: $rsp 24 +
STACK CFI 3a023 .cfa: $rsp 16 +
STACK CFI 3a025 .cfa: $rsp 8 +
STACK CFI 3a030 .cfa: $rsp 128 +
STACK CFI INIT 3a0e0 c1a .cfa: $rsp 8 + .ra: .cfa -8 + ^
STACK CFI 3a0e1 $rbp: .cfa -16 + ^ .cfa: $rsp 16 +
STACK CFI 3a0e4 .cfa: $rbp 16 +
STACK CFI 3a0ec $r12: .cfa -48 + ^ $r13: .cfa -40 + ^ $r14: .cfa -32 + ^ $r15: .cfa -24 + ^
STACK CFI 3a0f4 $rbx: .cfa -56 + ^
STACK CFI 3a647 .cfa: $rsp 8 +
STACK CFI 3a650 .cfa: $rbp 16 +
STACK CFI INIT 3ad00 2f6 .cfa: $rsp 8 + .ra: .cfa -8 + ^
STACK CFI 3ad02 $r15: .cfa -16 + ^ .cfa: $rsp 16 +
STACK CFI 3ad04 $r14: .cfa -24 + ^ .cfa: $rsp 24 +
STACK CFI 3ad10 $r13: .cfa -32 + ^ .cfa: $rsp 32 +
STACK CFI 3ad12 $r12: .cfa -40 + ^ .cfa: $rsp 40 +
STACK CFI 3ad13 $rbp: .cfa -48 + ^ .cfa: $rsp 48 +
STACK CFI 3ad14 $rbx: .cfa -56 + ^ .cfa: $rsp 56 +
STACK CFI 3ad1e .cfa: $rsp 64 +
STACK CFI 3af6d .cfa: $rsp 56 +
STACK CFI 3af6e .cfa: $rsp 48 +
STACK CFI 3af6f .cfa: $rsp 40 +
STACK CFI 3af71 .cfa: $rsp 32 +
STACK CFI 3af73 .cfa: $rsp 24 +
STACK CFI 3af75 .cfa: $rsp 16 +
STACK CFI 3af77 .cfa: $rsp 8 +
STACK CFI 3af80 .cfa: $rsp 64 +
STACK CFI INIT 3b000 cd .cfa: $rsp 8 + .ra: .cfa -8 + ^
STACK CFI INIT 3b0d0 c4a .cfa: $rsp 8 + .ra: .cfa -8 + ^
STACK CFI 3b0d1 $rbp: .cfa -16 + ^ .cfa: $rsp 16 +
STACK CFI 3b0d4 .cfa: $rbp 16 +
STACK CFI 3b0dc $r12: .cfa -48 + ^ $r13: .cfa -40 + ^ $r14: .cfa -32 + ^ $r15: .cfa -24 + ^
STACK CFI 3b0e7 $rbx: .cfa -56 + ^
STACK CFI 3b661 .cfa: $rsp 8 +
STACK CFI 3b668 .cfa: $rbp 16 +
STACK CFI INIT 34d90 203 .cfa: $rsp 8 + .ra: .cfa -8 + ^
STACK CFI 34d92 $r15: .cfa -16 + ^ .cfa: $rsp 16 +
STACK CFI 34d94 $r14: .cfa -24 + ^ .cfa: $rsp 24 +
STACK CFI 34d96 $r13: .cfa -32 + ^ .cfa: $rsp 32 +
STACK CFI 34d98 $r12: .cfa -40 + ^ .cfa: $rsp 40 +
STACK CFI 34d99 $rbp: .cfa -48 + ^ .cfa: $rsp 48 +
STACK CFI 34d9a $rbx: .cfa -56 + ^ .cfa: $rsp 56 +
STACK CFI 34da1 .cfa: $rsp 192 +
STACK CFI 34ee7 .cfa: $rsp 56 +
STACK CFI 34ee8 .cfa: $rsp 48 +
STACK CFI 34ee9 .cfa: $rsp 40 +
STACK CFI 34eeb .cfa: $rsp 32 +
STACK CFI 34eed .cfa: $rsp 24 +
STACK CFI 34eef .cfa: $rsp 16 +
STACK CFI 34ef1 .cfa: $rsp 8 +
STACK CFI 34ef2 .cfa: $rsp 192 +
STACK CFI INIT 3bd20 c4a .cfa: $rsp 8 + .ra: .cfa -8 + ^
STACK CFI 3bd21 $rbp: .cfa -16 + ^ .cfa: $rsp 16 +
STACK CFI 3bd24 .cfa: $rbp 16 +
STACK CFI 3bd2c $r12: .cfa -48 + ^ $r13: .cfa -40 + ^ $r14: .cfa -32 + ^ $r15: .cfa -24 + ^
STACK CFI 3bd37 $rbx: .cfa -56 + ^
STACK CFI 3c2b1 .cfa: $rsp 8 +
STACK CFI 3c2b8 .cfa: $rbp 16 +
STACK CFI INIT 3c970 136 .cfa: $rsp 8 + .ra: .cfa -8 + ^
STACK CFI 3c972 $r14: .cfa -16 + ^ .cfa: $rsp 16 +
STACK CFI 3c974 $r13: .cfa -24 + ^ .cfa: $rsp 24 +
STACK CFI 3c976 $r12: .cfa -32 + ^ .cfa: $rsp 32 +
STACK CFI 3c977 $rbp: .cfa -40 + ^ .cfa: $rsp 40 +
STACK CFI 3c97b $rbx: .cfa -48 + ^ .cfa: $rsp 48 +
STACK CFI 3c985 .cfa: $rsp 96 +
STACK CFI 3c9d8 .cfa: $rsp 48 +
STACK CFI 3c9d9 .cfa: $rsp 40 +
STACK CFI 3c9da .cfa: $rsp 32 +
STACK CFI 3c9dc .cfa: $rsp 24 +
STACK CFI 3c9de .cfa: $rsp 16 +
STACK CFI 3c9e0 .cfa: $rsp 8 +
STACK CFI 3c9e8 .cfa: $rsp 96 +
STACK CFI INIT 3cab0 c4a .cfa: $rsp 8 + .ra: .cfa -8 + ^
STACK CFI 3cab1 $rbp: .cfa -16 + ^ .cfa: $rsp 16 +
STACK CFI 3cab4 .cfa: $rbp 16 +
STACK CFI 3cabc $r12: .cfa -48 + ^ $r13: .cfa -40 + ^ $r14: .cfa -32 + ^ $r15: .cfa -24 + ^
STACK CFI 3cac7 $rbx: .cfa -56 + ^
STACK CFI 3d041 .cfa: $rsp 8 +
STACK CFI 3d048 .cfa: $rbp 16 +
STACK CFI INIT 3d700 fa .cfa: $rsp 8 + .ra: .cfa -8 + ^
STACK CFI 3d702 $r14: .cfa -16 + ^ .cfa: $rsp 16 +
STACK CFI 3d704 $r13: .cfa -24 + ^ .cfa: $rsp 24 +
STACK CFI 3d706 $r12: .cfa -32 + ^ .cfa: $rsp 32 +
STACK CFI 3d707 $rbp: .cfa -40 + ^ .cfa: $rsp 40 +
STACK CFI 3d708 $rbx: .cfa -48 + ^ .cfa: $rsp 48 +
STACK CFI 3d70c .cfa: $rsp 128 +
STACK CFI 3d73e .cfa: $rsp 48 +
STACK CFI 3d73f .cfa: $rsp 40 +
STACK CFI 3d740 .cfa: $rsp 32 +
STACK CFI 3d742 .cfa: $rsp 24 +
STACK CFI 3d744 .cfa: $rsp 16 +
STACK CFI 3d746 .cfa: $rsp 8 +
STACK CFI 3d750 .cfa: $rsp 128 +
STACK CFI INIT 3d800 fb .cfa: $rsp 8 + .ra: .cfa -8 + ^
STACK CFI 3d802 $r14: .cfa -16 + ^ .cfa: $rsp 16 +
STACK CFI 3d804 $r13: .cfa -24 + ^ .cfa: $rsp 24 +
STACK CFI 3d806 $r12: .cfa -32 + ^ .cfa: $rsp 32 +
STACK CFI 3d807 $rbp: .cfa -40 + ^ .cfa: $rsp 40 +
STACK CFI 3d808 $rbx: .cfa -48 + ^ .cfa: $rsp 48 +
STACK CFI 3d80c .cfa: $rsp 128 +
STACK CFI 3d83d .cfa: $rsp 48 +
STACK CFI 3d83e .cfa: $rsp 40 +
STACK CFI 3d83f .cfa: $rsp 32 +
STACK CFI 3d841 .cfa: $rsp 24 +
STACK CFI 3d843 .cfa: $rsp 16 +
STACK CFI 3d845 .cfa: $rsp 8 +
STACK CFI 3d850 .cfa: $rsp 128 +
STACK CFI INIT 34fa0 e0 .cfa: $rsp 8 + .ra: .cfa -8 + ^
STACK CFI 34fa1 $rbx: .cfa -16 + ^ .cfa: $rsp 16 +
STACK CFI 34fa8 .cfa: $rsp 48 +
STACK CFI 34ffa .cfa: $rsp 16 +
STACK CFI 34ffb .cfa: $rsp 8 +
STACK CFI 35000 .cfa: $rsp 48 +
STACK CFI INIT 35080 291 .cfa: $rsp 8 + .ra: .cfa -8 + ^
STACK CFI 35082 $r13: .cfa -16 + ^ .cfa: $rsp 16 +
STACK CFI 35084 $r12: .cfa -24 + ^ .cfa: $rsp 24 +
STACK CFI 35085 $rbp: .cfa -32 + ^ .cfa: $rsp 32 +
STACK CFI 35086 $rbx: .cfa -40 + ^ .cfa: $rsp 40 +
STACK CFI 3508d .cfa: $rsp 208 +
STACK CFI 3524a .cfa: $rsp 40 +
STACK CFI 3524b .cfa: $rsp 32 +
STACK CFI 3524c .cfa: $rsp 24 +
STACK CFI 3524e .cfa: $rsp 16 +
STACK CFI 35250 .cfa: $rsp 8 +
STACK CFI 35251 .cfa: $rsp 208 +
STACK CFI INIT 35320 73f .cfa: $rsp 8 + .ra: .cfa -8 + ^
STACK CFI 35322 $r15: .cfa -16 + ^ .cfa: $rsp 16 +
STACK CFI 35324 $r14: .cfa -24 + ^ .cfa: $rsp 24 +
STACK CFI 35326 $r13: .cfa -32 + ^ .cfa: $rsp 32 +
STACK CFI 35328 $r12: .cfa -40 + ^ .cfa: $rsp 40 +
STACK CFI 35329 $rbp: .cfa -48 + ^ .cfa: $rsp 48 +
STACK CFI 3532a $rbx: .cfa -56 + ^ .cfa: $rsp 56 +
STACK CFI 35334 .cfa: $rsp 352 +
STACK CFI 357bd .cfa: $rsp 56 +
STACK CFI 357be .cfa: $rsp 48 +
STACK CFI 357bf .cfa: $rsp 40 +
STACK CFI 357c1 .cfa: $rsp 32 +
STACK CFI 357c3 .cfa: $rsp 24 +
STACK CFI 357c5 .cfa: $rsp 16 +
STACK CFI 357c7 .cfa: $rsp 8 +
STACK CFI 357d0 .cfa: $rsp 352 +
STACK CFI INIT 3d900 fb .cfa: $rsp 8 + .ra: .cfa -8 + ^
STACK CFI 3d902 $r14: .cfa -16 + ^ .cfa: $rsp 16 +
STACK CFI 3d904 $r13: .cfa -24 + ^ .cfa: $rsp 24 +
STACK CFI 3d906 $r12: .cfa -32 + ^ .cfa: $rsp 32 +
STACK CFI 3d907 $rbp: .cfa -40 + ^ .cfa: $rsp 40 +
STACK CFI 3d908 $rbx: .cfa -48 + ^ .cfa: $rsp 48 +
STACK CFI 3d90c .cfa: $rsp 128 +
STACK CFI 3d93d .cfa: $rsp 48 +
STACK CFI 3d93e .cfa: $rsp 40 +
STACK CFI 3d93f .cfa: $rsp 32 +
STACK CFI 3d941 .cfa: $rsp 24 +
STACK CFI 3d943 .cfa: $rsp 16 +
STACK CFI 3d945 .cfa: $rsp 8 +
STACK CFI 3d950 .cfa: $rsp 128 +
STACK CFI INIT 35a60 325 .cfa: $rsp 8 + .ra: .cfa -8 + ^
STACK CFI 35a62 $r13: .cfa -16 + ^ .cfa: $rsp 16 +
STACK CFI 35a64 $r12: .cfa -24 + ^ .cfa: $rsp 24 +
STACK CFI 35a65 $rbp: .cfa -32 + ^ .cfa: $rsp 32 +
STACK CFI 35a66 $rbx: .cfa -40 + ^ .cfa: $rsp 40 +
STACK CFI 35a6d .cfa: $rsp 144 +
STACK CFI 35a9b .cfa: $rsp 40 +
STACK CFI 35a9c .cfa: $rsp 32 +
STACK CFI 35a9d .cfa: $rsp 24 +
STACK CFI 35a9f .cfa: $rsp 16 +
STACK CFI 35aa1 .cfa: $rsp 8 +
STACK CFI 35aa8 .cfa: $rsp 144 +
STACK CFI INIT 35d90 2f0 .cfa: $rsp 8 + .ra: .cfa -8 + ^
STACK CFI 35d92 $r13: .cfa -16 + ^ .cfa: $rsp 16 +
STACK CFI 35d94 $r12: .cfa -24 + ^ .cfa: $rsp 24 +
STACK CFI 35d9c $rbp: .cfa -32 + ^ .cfa: $rsp 32 +
STACK CFI 35d9d $rbx: .cfa -40 + ^ .cfa: $rsp 40 +
STACK CFI 35da7 .cfa: $rsp 176 +
STACK CFI 35f28 .cfa: $rsp 40 +
STACK CFI 35f29 .cfa: $rsp 32 +
STACK CFI 35f2a .cfa: $rsp 24 +
STACK CFI 35f2c .cfa: $rsp 16 +
STACK CFI 35f2e .cfa: $rsp 8 +
STACK CFI 35f30 .cfa: $rsp 176 +
STACK CFI INIT 36080 99 .cfa: $rsp 8 + .ra: .cfa -8 + ^
STACK CFI 36082 $r12: .cfa -16 + ^ .cfa: $rsp 16 +
STACK CFI 36083 $rbp: .cfa -24 + ^ .cfa: $rsp 24 +
STACK CFI 36087 $rbx: .cfa -32 + ^ .cfa: $rsp 32 +
STACK CFI 3608b .cfa: $rsp 48 +
STACK CFI 360f7 .cfa: $rsp 32 +
STACK CFI 360f8 .cfa: $rsp 24 +
STACK CFI 360f9 .cfa: $rsp 16 +
STACK CFI 360fb .cfa: $rsp 8 +
STACK CFI 36100 .cfa: $rsp 48 +
STACK CFI INIT 36120 12f .cfa: $rsp 8 + .ra: .cfa -8 + ^
STACK CFI 36122 $r13: .cfa -16 + ^ .cfa: $rsp 16 +
STACK CFI 36124 $r12: .cfa -24 + ^ .cfa: $rsp 24 +
STACK CFI 36128 $rbp: .cfa -32 + ^ .cfa: $rsp 32 +
STACK CFI 36129 $rbx: .cfa -40 + ^ .cfa: $rsp 40 +
STACK CFI 36133 .cfa: $rsp 112 +
STACK CFI 361be .cfa: $rsp 40 +
STACK CFI 361bf .cfa: $rsp 32 +
STACK CFI 361c0 .cfa: $rsp 24 +
STACK CFI 361c2 .cfa: $rsp 16 +
STACK CFI 361c4 .cfa: $rsp 8 +
STACK CFI 361c5 .cfa: $rsp 112 +
STACK CFI INIT 36250 a6 .cfa: $rsp 8 + .ra: .cfa -8 + ^
STACK CFI 36251 $rbx: .cfa -16 + ^ .cfa: $rsp 16 +
STACK CFI 36258 .cfa: $rsp 48 +
STACK CFI 3629a .cfa: $rsp 16 +
STACK CFI 3629b .cfa: $rsp 8 +
STACK CFI 3629c .cfa: $rsp 48 +
STACK CFI INIT 36300 151 .cfa: $rsp 8 + .ra: .cfa -8 + ^
STACK CFI 36302 $r13: .cfa -16 + ^ .cfa: $rsp 16 +
STACK CFI 36304 $r12: .cfa -24 + ^ .cfa: $rsp 24 +
STACK CFI 36305 $rbp: .cfa -32 + ^ .cfa: $rsp 32 +
STACK CFI 36306 $rbx: .cfa -40 + ^ .cfa: $rsp 40 +
STACK CFI 3630f .cfa: $rsp 112 +
STACK CFI 363e1 .cfa: $rsp 40 +
STACK CFI 363e2 .cfa: $rsp 32 +
STACK CFI 363e3 .cfa: $rsp 24 +
STACK CFI 363e5 .cfa: $rsp 16 +
STACK CFI 363e7 .cfa: $rsp 8 +
STACK CFI 363f0 .cfa: $rsp 112 +
STACK CFI INIT 36460 3bb .cfa: $rsp 8 + .ra: .cfa -8 + ^
STACK CFI 36462 $r15: .cfa -16 + ^ .cfa: $rsp 16 +
STACK CFI 36464 $r14: .cfa -24 + ^ .cfa: $rsp 24 +
STACK CFI 36466 $r13: .cfa -32 + ^ .cfa: $rsp 32 +
STACK CFI 36468 $r12: .cfa -40 + ^ .cfa: $rsp 40 +
STACK CFI 3646c $rbp: .cfa -48 + ^ .cfa: $rsp 48 +
STACK CFI 3646d $rbx: .cfa -56 + ^ .cfa: $rsp 56 +
STACK CFI 36479 .cfa: $rsp 192 +
STACK CFI 365ce .cfa: $rsp 56 +
STACK CFI 365cf .cfa: $rsp 48 +
STACK CFI 365d0 .cfa: $rsp 40 +
STACK CFI 365d2 .cfa: $rsp 32 +
STACK CFI 365d4 .cfa: $rsp 24 +
STACK CFI 365d6 .cfa: $rsp 16 +
STACK CFI 365d8 .cfa: $rsp 8 +
STACK CFI 365e0 .cfa: $rsp 192 +
STACK CFI INIT 36820 a .cfa: $rsp 8 + .ra: .cfa -8 + ^
STACK CFI INIT 36830 7 .cfa: $rsp 8 + .ra: .cfa -8 + ^
STACK CFI INIT 36840 2 .cfa: $rsp 8 + .ra: .cfa -8 + ^
STACK CFI INIT 36850 431 .cfa: $rsp 8 + .ra: .cfa -8 + ^
STACK CFI 36852 $r14: .cfa -16 + ^ .cfa: $rsp 16 +
STACK CFI 36854 $r13: .cfa -24 + ^ .cfa: $rsp 24 +
STACK CFI 36856 $r12: .cfa -32 + ^ .cfa: $rsp 32 +
STACK CFI 36857 $rbp: .cfa -40 + ^ .cfa: $rsp 40 +
STACK CFI 36858 $rbx: .cfa -48 + ^ .cfa: $rsp 48 +
STACK CFI 36861 .cfa: $rsp 192 +
STACK CFI 36922 .cfa: $rsp 48 +
STACK CFI 36923 .cfa: $rsp 40 +
STACK CFI 36924 .cfa: $rsp 32 +
STACK CFI 36926 .cfa: $rsp 24 +
STACK CFI 36928 .cfa: $rsp 16 +
STACK CFI 3692a .cfa: $rsp 8 +
STACK CFI 36930 .cfa: $rsp 192 +
STACK CFI INIT 3da00 3a4 .cfa: $rsp 8 + .ra: .cfa -8 + ^
STACK CFI 3da02 $r15: .cfa -16 + ^ .cfa: $rsp 16 +
STACK CFI 3da04 $r14: .cfa -24 + ^ .cfa: $rsp 24 +
STACK CFI 3da09 $r13: .cfa -32 + ^ .cfa: $rsp 32 +
STACK CFI 3da0b $r12: .cfa -40 + ^ .cfa: $rsp 40 +
STACK CFI 3da0f $rbp: .cfa -48 + ^ .cfa: $rsp 48 +
STACK CFI 3da10 $rbx: .cfa -56 + ^ .cfa: $rsp 56 +
STACK CFI 3da19 .cfa: $rsp 544 +
STACK CFI 3dcc3 .cfa: $rsp 56 +
STACK CFI 3dcc4 .cfa: $rsp 48 +
STACK CFI 3dcc5 .cfa: $rsp 40 +
STACK CFI 3dcc7 .cfa: $rsp 32 +
STACK CFI 3dcc9 .cfa: $rsp 24 +
STACK CFI 3dccb .cfa: $rsp 16 +
STACK CFI 3dccd .cfa: $rsp 8 +
STACK CFI 3dcd0 .cfa: $rsp 544 +
STACK CFI INIT 3ddb0 6d .cfa: $rsp 8 + .ra: .cfa -8 + ^
STACK CFI 3ddb4 .cfa: $rsp 32 +
STACK CFI 3ddec .cfa: $rsp 8 +
STACK CFI 3ddf0 .cfa: $rsp 32 +
STACK CFI INIT 1ab20 56c .cfa: $rsp 8 + .ra: .cfa -8 + ^
STACK CFI 1ab22 $r14: .cfa -16 + ^ .cfa: $rsp 16 +
STACK CFI 1ab24 $r13: .cfa -24 + ^ .cfa: $rsp 24 +
STACK CFI 1ab2d $r12: .cfa -32 + ^ .cfa: $rsp 32 +
STACK CFI 1ab2e $rbp: .cfa -40 + ^ .cfa: $rsp 40 +
STACK CFI 1ab2f $rbx: .cfa -48 + ^ .cfa: $rsp 48 +
STACK CFI 1ab36 .cfa: $rsp 192 +
STACK CFI 1af48 .cfa: $rsp 48 +
STACK CFI 1af49 .cfa: $rsp 40 +
STACK CFI 1af4a .cfa: $rsp 32 +
STACK CFI 1af4c .cfa: $rsp 24 +
STACK CFI 1af4e .cfa: $rsp 16 +
STACK CFI 1af50 .cfa: $rsp 8 +
STACK CFI 1af51 .cfa: $rsp 192 +
STACK CFI INIT 3de20 7e .cfa: $rsp 8 + .ra: .cfa -8 + ^
STACK CFI INIT 3dea0 1b8 .cfa: $rsp 8 + .ra: .cfa -8 + ^
STACK CFI 3deab $r14: .cfa -16 + ^ .cfa: $rsp 16 +
STACK CFI 3deac $rbx: .cfa -24 + ^ .cfa: $rsp 24 +
STACK CFI 3deb6 .cfa: $rsp 32 +
STACK CFI 3df5f .cfa: $rsp 24 +
STACK CFI 3df60 $rbx: $rbx .cfa: $rsp 16 +
STACK CFI 3df62 $r14: $r14 .cfa: $rsp 8 +
STACK CFI 3df68 $r14: .cfa -16 + ^ $rbx: .cfa -24 + ^ .cfa: $rsp 32 +
STACK CFI INIT 3e060 97 .cfa: $rsp 8 + .ra: .cfa -8 + ^
STACK CFI 3e062 $r12: .cfa -16 + ^ .cfa: $rsp 16 +
STACK CFI 3e063 $rbp: .cfa -24 + ^ .cfa: $rsp 24 +
STACK CFI 3e067 $rbx: .cfa -32 + ^ .cfa: $rsp 32 +
STACK CFI 3e0a7 .cfa: $rsp 24 +
STACK CFI 3e0a8 .cfa: $rsp 16 +
STACK CFI 3e0aa .cfa: $rsp 8 +
STACK CFI 3e0b0 .cfa: $rsp 32 +
STACK CFI 3e0e3 .cfa: $rsp 24 +
STACK CFI 3e0e4 .cfa: $rsp 16 +
STACK CFI 3e0e6 .cfa: $rsp 8 +
STACK CFI 3e0f0 .cfa: $rsp 32 +
STACK CFI INIT 3e100 46 .cfa: $rsp 8 + .ra: .cfa -8 + ^
STACK CFI INIT 3e150 23 .cfa: $rsp 8 + .ra: .cfa -8 + ^
STACK CFI INIT 3e180 31f .cfa: $rsp 8 + .ra: .cfa -8 + ^
STACK CFI 3e1a4 $rbx: .cfa -16 + ^ .cfa: $rsp 16 +
STACK CFI 3e3c1 $rbx: $rbx .cfa: $rsp 8 +
STACK CFI 3e3d0 $rbx: .cfa -16 + ^ .cfa: $rsp 16 +
STACK CFI INIT 3e4a0 6a .cfa: $rsp 8 + .ra: .cfa -8 + ^
STACK CFI INIT 3e510 74 .cfa: $rsp 8 + .ra: .cfa -8 + ^
STACK CFI INIT 3e590 a3 .cfa: $rsp 8 + .ra: .cfa -8 + ^
STACK CFI 3e5b9 $rbp: .cfa -16 + ^ .cfa: $rsp 16 +
STACK CFI 3e5ba $rbx: .cfa -24 + ^ .cfa: $rsp 24 +
STACK CFI 3e5c8 .cfa: $rsp 32 +
STACK CFI 3e62f .cfa: $rsp 24 +
STACK CFI 3e630 $rbx: $rbx .cfa: $rsp 16 +
STACK CFI 3e631 $rbp: $rbp .cfa: $rsp 8 +
STACK CFI INIT 3e640 3b .cfa: $rsp 8 + .ra: .cfa -8 + ^
STACK CFI 3e660 .cfa: $rsp 16 +
STACK CFI 3e672 .cfa: $rsp 8 +
STACK CFI INIT 3e680 239 .cfa: $rsp 8 + .ra: .cfa -8 + ^
STACK CFI 3e682 $r15: .cfa -16 + ^ .cfa: $rsp 16 +
STACK CFI 3e684 $r14: .cfa -24 + ^ .cfa: $rsp 24 +
STACK CFI 3e689 $r13: .cfa -32 + ^ .cfa: $rsp 32 +
STACK CFI 3e68b $r12: .cfa -40 + ^ .cfa: $rsp 40 +
STACK CFI 3e68c $rbp: .cfa -48 + ^ .cfa: $rsp 48 +
STACK CFI 3e68d $rbx: .cfa -56 + ^ .cfa: $rsp 56 +
STACK CFI 3e694 .cfa: $rsp 116928 +
STACK CFI 3e860 .cfa: $rsp 56 +
STACK CFI 3e861 .cfa: $rsp 48 +
STACK CFI 3e862 .cfa: $rsp 40 +
STACK CFI 3e864 .cfa: $rsp 32 +
STACK CFI 3e866 .cfa: $rsp 24 +
STACK CFI 3e868 .cfa: $rsp 16 +
STACK CFI 3e86a .cfa: $rsp 8 +
STACK CFI 3e870 .cfa: $rsp 116928 +
STACK CFI INIT 3e8c0 13e .cfa: $rsp 8 + .ra: .cfa -8 + ^
STACK CFI 3e8c2 $r15: .cfa -16 + ^ .cfa: $rsp 16 +
STACK CFI 3e8c4 $r14: .cfa -24 + ^ .cfa: $rsp 24 +
STACK CFI 3e8c9 $r13: .cfa -32 + ^ .cfa: $rsp 32 +
STACK CFI 3e8cb $r12: .cfa -40 + ^ .cfa: $rsp 40 +
STACK CFI 3e8cc $rbp: .cfa -48 + ^ .cfa: $rsp 48 +
STACK CFI 3e8cd $rbx: .cfa -56 + ^ .cfa: $rsp 56 +
STACK CFI 3e8d4 .cfa: $rsp 116880 +
STACK CFI 3e9ee .cfa: $rsp 56 +
STACK CFI 3e9ef .cfa: $rsp 48 +
STACK CFI 3e9f0 .cfa: $rsp 40 +
STACK CFI 3e9f2 .cfa: $rsp 32 +
STACK CFI 3e9f4 .cfa: $rsp 24 +
STACK CFI 3e9f6 .cfa: $rsp 16 +
STACK CFI 3e9f8 .cfa: $rsp 8 +
STACK CFI 3e9f9 .cfa: $rsp 116880 +
STACK CFI INIT 3ea00 10d .cfa: $rsp 8 + .ra: .cfa -8 + ^
STACK CFI 3ea01 $rbx: .cfa -16 + ^ .cfa: $rsp 16 +
STACK CFI 3eb0c .cfa: $rsp 8 +
STACK CFI INIT 1b090 2e .cfa: $rsp 8 + .ra: .cfa -8 + ^
STACK CFI 1b09b .cfa: $rsp 16 +
STACK CFI 1b0b9 .cfa: $rsp 8 +
STACK CFI INIT 3eb10 2c .cfa: $rsp 8 + .ra: .cfa -8 + ^
STACK CFI INIT 3eb40 2c .cfa: $rsp 8 + .ra: .cfa -8 + ^
STACK CFI INIT 41070 5 .cfa: $rsp 8 + .ra: .cfa -8 + ^
STACK CFI INIT 3eb70 c2 .cfa: $rsp 8 + .ra: .cfa -8 + ^
STACK CFI 3eb72 $r12: .cfa -16 + ^ .cfa: $rsp 16 +
STACK CFI 3eb73 $rbp: .cfa -24 + ^ .cfa: $rsp 24 +
STACK CFI 3eb77 $rbx: .cfa -32 + ^ .cfa: $rsp 32 +
STACK CFI 3eb7e .cfa: $rsp 48 +
STACK CFI 3ebea .cfa: $rsp 32 +
STACK CFI 3ebeb .cfa: $rsp 24 +
STACK CFI 3ebec .cfa: $rsp 16 +
STACK CFI 3ebee .cfa: $rsp 8 +
STACK CFI 3ebf0 .cfa: $rsp 48 +
STACK CFI INIT 41080 9e .cfa: $rsp 8 + .ra: .cfa -8 + ^
STACK CFI 410d6 $rbp: .cfa -16 + ^ .cfa: $rsp 16 +
STACK CFI 410d7 $rbx: .cfa -24 + ^ .cfa: $rsp 24 +
STACK CFI 410e4 .cfa: $rsp 32 +
STACK CFI 410ed .cfa: $rsp 24 +
STACK CFI 410f4 $rbx: $rbx .cfa: $rsp 16 +
STACK CFI 410f5 $rbp: $rbp .cfa: $rsp 8 +
STACK CFI INIT 41120 9e .cfa: $rsp 8 + .ra: .cfa -8 + ^
STACK CFI 41176 $rbp: .cfa -16 + ^ .cfa: $rsp 16 +
STACK CFI 41177 $rbx: .cfa -24 + ^ .cfa: $rsp 24 +
STACK CFI 41184 .cfa: $rsp 32 +
STACK CFI 4118d .cfa: $rsp 24 +
STACK CFI 41194 $rbx: $rbx .cfa: $rsp 16 +
STACK CFI 41195 $rbp: $rbp .cfa: $rsp 8 +
STACK CFI INIT 411c0 9e .cfa: $rsp 8 + .ra: .cfa -8 + ^
STACK CFI 41216 $rbp: .cfa -16 + ^ .cfa: $rsp 16 +
STACK CFI 41217 $rbx: .cfa -24 + ^ .cfa: $rsp 24 +
STACK CFI 41224 .cfa: $rsp 32 +
STACK CFI 4122d .cfa: $rsp 24 +
STACK CFI 41234 $rbx: $rbx .cfa: $rsp 16 +
STACK CFI 41235 $rbp: $rbp .cfa: $rsp 8 +
STACK CFI INIT 41260 8d .cfa: $rsp 8 + .ra: .cfa -8 + ^
STACK CFI 41261 $rbp: .cfa -16 + ^ .cfa: $rsp 16 +
STACK CFI 41262 $rbx: .cfa -24 + ^ .cfa: $rsp 24 +
STACK CFI 41274 .cfa: $rsp 80 +
STACK CFI 412c8 .cfa: $rsp 24 +
STACK CFI 412c9 .cfa: $rsp 16 +
STACK CFI 412ca .cfa: $rsp 8 +
STACK CFI 412cb .cfa: $rsp 80 +
STACK CFI INIT 412f0 8d .cfa: $rsp 8 + .ra: .cfa -8 + ^
STACK CFI 412f1 $rbp: .cfa -16 + ^ .cfa: $rsp 16 +
STACK CFI 412f2 $rbx: .cfa -24 + ^ .cfa: $rsp 24 +
STACK CFI 41304 .cfa: $rsp 80 +
STACK CFI 41358 .cfa: $rsp 24 +
STACK CFI 41359 .cfa: $rsp 16 +
STACK CFI 4135a .cfa: $rsp 8 +
STACK CFI 4135b .cfa: $rsp 80 +
STACK CFI INIT 41380 8d .cfa: $rsp 8 + .ra: .cfa -8 + ^
STACK CFI 41381 $rbp: .cfa -16 + ^ .cfa: $rsp 16 +
STACK CFI 41382 $rbx: .cfa -24 + ^ .cfa: $rsp 24 +
STACK CFI 41394 .cfa: $rsp 80 +
STACK CFI 413e8 .cfa: $rsp 24 +
STACK CFI 413e9 .cfa: $rsp 16 +
STACK CFI 413ea .cfa: $rsp 8 +
STACK CFI 413eb .cfa: $rsp 80 +
STACK CFI INIT 3ec40 13 .cfa: $rsp 8 + .ra: .cfa -8 + ^
STACK CFI INIT 3ec60 5 .cfa: $rsp 8 + .ra: .cfa -8 + ^
STACK CFI INIT 3ec70 13 .cfa: $rsp 8 + .ra: .cfa -8 + ^
STACK CFI INIT 3ec90 13 .cfa: $rsp 8 + .ra: .cfa -8 + ^
STACK CFI INIT 3ecb0 11 .cfa: $rsp 8 + .ra: .cfa -8 + ^
STACK CFI INIT 3ecd0 2 .cfa: $rsp 8 + .ra: .cfa -8 + ^
STACK CFI INIT 3ece0 89 .cfa: $rsp 8 + .ra: .cfa -8 + ^
STACK CFI 3ece2 $r13: .cfa -16 + ^ .cfa: $rsp 16 +
STACK CFI 3ece4 $r12: .cfa -24 + ^ .cfa: $rsp 24 +
STACK CFI 3ecec $rbp: .cfa -32 + ^ .cfa: $rsp 32 +
STACK CFI 3eced $rbx: .cfa -40 + ^ .cfa: $rsp 40 +
STACK CFI 3ecfa .cfa: $rsp 48 +
STACK CFI 3ed62 .cfa: $rsp 40 +
STACK CFI 3ed63 .cfa: $rsp 32 +
STACK CFI 3ed64 .cfa: $rsp 24 +
STACK CFI 3ed66 .cfa: $rsp 16 +
STACK CFI 3ed68 .cfa: $rsp 8 +
STACK CFI INIT 3ed70 45 .cfa: $rsp 8 + .ra: .cfa -8 + ^
STACK CFI 3ed79 $r12: .cfa -16 + ^ .cfa: $rsp 16 +
STACK CFI 3ed7d $rbp: .cfa -24 + ^ .cfa: $rsp 24 +
STACK CFI 3ed80 $rbx: .cfa -32 + ^ .cfa: $rsp 32 +
STACK CFI 3edb1 .cfa: $rsp 24 +
STACK CFI 3edb2 .cfa: $rsp 16 +
STACK CFI 3edb4 .cfa: $rsp 8 +
STACK CFI INIT 3edc0 49 .cfa: $rsp 8 + .ra: .cfa -8 + ^
STACK CFI 3edc9 $r12: .cfa -16 + ^ .cfa: $rsp 16 +
STACK CFI 3edcd $rbp: .cfa -24 + ^ .cfa: $rsp 24 +
STACK CFI 3edd0 $rbx: .cfa -32 + ^ .cfa: $rsp 32 +
STACK CFI 3ee05 .cfa: $rsp 24 +
STACK CFI 3ee06 .cfa: $rsp 16 +
STACK CFI 3ee08 .cfa: $rsp 8 +
STACK CFI INIT 41410 cf0 .cfa: $rsp 8 + .ra: .cfa -8 + ^
STACK CFI 41411 $rbp: .cfa -16 + ^ .cfa: $rsp 16 +
STACK CFI 41414 .cfa: $rbp 16 +
STACK CFI 4141c $r12: .cfa -48 + ^ $r13: .cfa -40 + ^ $r14: .cfa -32 + ^ $r15: .cfa -24 + ^
STACK CFI 41427 $rbx: .cfa -56 + ^
STACK CFI 41475 .cfa: $rsp 8 +
STACK CFI 41476 .cfa: $rbp 16 +
STACK CFI INIT 3ee10 fd .cfa: $rsp 8 + .ra: .cfa -8 + ^
STACK CFI 3ee12 $r12: .cfa -16 + ^ .cfa: $rsp 16 +
STACK CFI 3ee13 $rbp: .cfa -24 + ^ .cfa: $rsp 24 +
STACK CFI 3ee14 $rbx: .cfa -32 + ^ .cfa: $rsp 32 +
STACK CFI 3ee1b .cfa: $rsp 288 +
STACK CFI 3ef03 .cfa: $rsp 32 +
STACK CFI 3ef04 .cfa: $rsp 24 +
STACK CFI 3ef05 .cfa: $rsp 16 +
STACK CFI 3ef07 .cfa: $rsp 8 +
STACK CFI 3ef08 .cfa: $rsp 288 +
STACK CFI INIT 3ef10 fd .cfa: $rsp 8 + .ra: .cfa -8 + ^
STACK CFI 3ef12 $r12: .cfa -16 + ^ .cfa: $rsp 16 +
STACK CFI 3ef13 $rbp: .cfa -24 + ^ .cfa: $rsp 24 +
STACK CFI 3ef14 $rbx: .cfa -32 + ^ .cfa: $rsp 32 +
STACK CFI 3ef1b .cfa: $rsp 256 +
STACK CFI 3f003 .cfa: $rsp 32 +
STACK CFI 3f004 .cfa: $rsp 24 +
STACK CFI 3f005 .cfa: $rsp 16 +
STACK CFI 3f007 .cfa: $rsp 8 +
STACK CFI 3f008 .cfa: $rsp 256 +
STACK CFI INIT 42100 cf0 .cfa: $rsp 8 + .ra: .cfa -8 + ^
STACK CFI 42101 $rbp: .cfa -16 + ^ .cfa: $rsp 16 +
STACK CFI 42104 .cfa: $rbp 16 +
STACK CFI 4210c $r12: .cfa -48 + ^ $r13: .cfa -40 + ^ $r14: .cfa -32 + ^ $r15: .cfa -24 + ^
STACK CFI 42117 $rbx: .cfa -56 + ^
STACK CFI 42165 .cfa: $rsp 8 +
STACK CFI 42166 .cfa: $rbp 16 +
STACK CFI INIT 42df0 cc0 .cfa: $rsp 8 + .ra: .cfa -8 + ^
STACK CFI 42df1 $rbp: .cfa -16 + ^ .cfa: $rsp 16 +
STACK CFI 42df4 .cfa: $rbp 16 +
STACK CFI 42dfd $r12: .cfa -48 + ^ $r13: .cfa -40 + ^ $r14: .cfa -32 + ^ $r15: .cfa -24 + ^ $rbx: .cfa -56 + ^
STACK CFI 42e55 .cfa: $rsp 8 +
STACK CFI 42e56 .cfa: $rbp 16 +
STACK CFI INIT 43ab0 cc0 .cfa: $rsp 8 + .ra: .cfa -8 + ^
STACK CFI 43ab1 $rbp: .cfa -16 + ^ .cfa: $rsp 16 +
STACK CFI 43ab4 .cfa: $rbp 16 +
STACK CFI 43abd $r12: .cfa -48 + ^ $r13: .cfa -40 + ^ $r14: .cfa -32 + ^ $r15: .cfa -24 + ^ $rbx: .cfa -56 + ^
STACK CFI 43b15 .cfa: $rsp 8 +
STACK CFI 43b16 .cfa: $rbp 16 +
STACK CFI INIT 44770 cc0 .cfa: $rsp 8 + .ra: .cfa -8 + ^
STACK CFI 44771 $rbp: .cfa -16 + ^ .cfa: $rsp 16 +
STACK CFI 44774 .cfa: $rbp 16 +
STACK CFI 4477d $r12: .cfa -48 + ^ $r13: .cfa -40 + ^ $r14: .cfa -32 + ^ $r15: .cfa -24 + ^ $rbx: .cfa -56 + ^
STACK CFI 447d5 .cfa: $rsp 8 +
STACK CFI 447d6 .cfa: $rbp 16 +
STACK CFI INIT 45430 c4a .cfa: $rsp 8 + .ra: .cfa -8 + ^
STACK CFI 45431 $rbp: .cfa -16 + ^ .cfa: $rsp 16 +
STACK CFI 45434 .cfa: $rbp 16 +
STACK CFI 4543c $r12: .cfa -48 + ^ $r13: .cfa -40 + ^ $r14: .cfa -32 + ^ $r15: .cfa -24 + ^
STACK CFI 45447 $rbx: .cfa -56 + ^
STACK CFI 459c1 .cfa: $rsp 8 +
STACK CFI 459c8 .cfa: $rbp 16 +
STACK CFI INIT 3f010 c5 .cfa: $rsp 8 + .ra: .cfa -8 + ^
STACK CFI 3f011 $rbp: .cfa -16 + ^ .cfa: $rsp 16 +
STACK CFI 3f012 $rbx: .cfa -24 + ^ .cfa: $rsp 24 +
STACK CFI 3f019 .cfa: $rsp 96 +
STACK CFI 3f080 .cfa: $rsp 24 +
STACK CFI 3f081 .cfa: $rsp 16 +
STACK CFI 3f082 .cfa: $rsp 8 +
STACK CFI 3f083 .cfa: $rsp 96 +
STACK CFI INIT 46080 fb .cfa: $rsp 8 + .ra: .cfa -8 + ^
STACK CFI 46082 $r14: .cfa -16 + ^ .cfa: $rsp 16 +
STACK CFI 46084 $r13: .cfa -24 + ^ .cfa: $rsp 24 +
STACK CFI 46086 $r12: .cfa -32 + ^ .cfa: $rsp 32 +
STACK CFI 46087 $rbp: .cfa -40 + ^ .cfa: $rsp 40 +
STACK CFI 46088 $rbx: .cfa -48 + ^ .cfa: $rsp 48 +
STACK CFI 4608c .cfa: $rsp 128 +
STACK CFI 460bd .cfa: $rsp 48 +
STACK CFI 460be .cfa: $rsp 40 +
STACK CFI 460bf .cfa: $rsp 32 +
STACK CFI 460c1 .cfa: $rsp 24 +
STACK CFI 460c3 .cfa: $rsp 16 +
STACK CFI 460c5 .cfa: $rsp 8 +
STACK CFI 460d0 .cfa: $rsp 128 +
STACK CFI INIT 46180 4f .cfa: $rsp 8 + .ra: .cfa -8 + ^
STACK CFI 46181 $rbp: .cfa -16 + ^ .cfa: $rsp 16 +
STACK CFI 46182 $rbx: .cfa -24 + ^ .cfa: $rsp 24 +
STACK CFI 46189 .cfa: $rsp 80 +
STACK CFI INIT 3f0e0 1b6 .cfa: $rsp 8 + .ra: .cfa -8 + ^
STACK CFI 3f0e2 $r14: .cfa -16 + ^ .cfa: $rsp 16 +
STACK CFI 3f0e4 $r13: .cfa -24 + ^ .cfa: $rsp 24 +
STACK CFI 3f0e6 $r12: .cfa -32 + ^ .cfa: $rsp 32 +
STACK CFI 3f0e7 $rbp: .cfa -40 + ^ .cfa: $rsp 40 +
STACK CFI 3f0e8 $rbx: .cfa -48 + ^ .cfa: $rsp 48 +
STACK CFI 3f0ec .cfa: $rsp 64 +
STACK CFI 3f158 .cfa: $rsp 48 +
STACK CFI 3f159 .cfa: $rsp 40 +
STACK CFI 3f15a .cfa: $rsp 32 +
STACK CFI 3f15c .cfa: $rsp 24 +
STACK CFI 3f15e .cfa: $rsp 16 +
STACK CFI 3f160 .cfa: $rsp 8 +
STACK CFI 3f168 .cfa: $rsp 64 +
STACK CFI 3f1fd .cfa: $rsp 48 +
STACK CFI 3f1fe .cfa: $rsp 40 +
STACK CFI 3f1ff .cfa: $rsp 32 +
STACK CFI 3f201 .cfa: $rsp 24 +
STACK CFI 3f203 .cfa: $rsp 16 +
STACK CFI 3f205 .cfa: $rsp 8 +
STACK CFI 3f210 .cfa: $rsp 64 +
STACK CFI 3f218 .cfa: $rsp 48 +
STACK CFI 3f219 .cfa: $rsp 40 +
STACK CFI 3f21a .cfa: $rsp 32 +
STACK CFI 3f21c .cfa: $rsp 24 +
STACK CFI 3f21e .cfa: $rsp 16 +
STACK CFI 3f220 .cfa: $rsp 8 +
STACK CFI 3f228 .cfa: $rsp 64 +
STACK CFI INIT 3f2a0 a .cfa: $rsp 8 + .ra: .cfa -8 + ^
STACK CFI INIT 3f2b0 2 .cfa: $rsp 8 + .ra: .cfa -8 + ^
STACK CFI INIT 3f2c0 3f .cfa: $rsp 8 + .ra: .cfa -8 + ^
STACK CFI 3f2c9 $r12: .cfa -16 + ^ .cfa: $rsp 16 +
STACK CFI 3f2ca $rbp: .cfa -24 + ^ .cfa: $rsp 24 +
STACK CFI 3f2ce $rbx: .cfa -32 + ^ .cfa: $rsp 32 +
STACK CFI 3f2fa $rbx: $rbx .cfa: $rsp 24 +
STACK CFI 3f2fb $rbp: $rbp .cfa: $rsp 16 +
STACK CFI 3f2fd $r12: $r12 .cfa: $rsp 8 +
STACK CFI INIT 3f300 cd .cfa: $rsp 8 + .ra: .cfa -8 + ^
STACK CFI 3f302 $r13: .cfa -16 + ^ .cfa: $rsp 16 +
STACK CFI 3f304 $r12: .cfa -24 + ^ .cfa: $rsp 24 +
STACK CFI 3f308 $rbp: .cfa -32 + ^ .cfa: $rsp 32 +
STACK CFI 3f309 $rbx: .cfa -40 + ^ .cfa: $rsp 40 +
STACK CFI 3f310 .cfa: $rsp 1088 +
STACK CFI 3f3c1 .cfa: $rsp 40 +
STACK CFI 3f3c2 .cfa: $rsp 32 +
STACK CFI 3f3c3 .cfa: $rsp 24 +
STACK CFI 3f3c5 .cfa: $rsp 16 +
STACK CFI 3f3c7 .cfa: $rsp 8 +
STACK CFI 3f3c8 .cfa: $rsp 1088 +
STACK CFI INIT 3f3d0 cd .cfa: $rsp 8 + .ra: .cfa -8 + ^
STACK CFI 3f3d2 $r13: .cfa -16 + ^ .cfa: $rsp 16 +
STACK CFI 3f3d4 $r12: .cfa -24 + ^ .cfa: $rsp 24 +
STACK CFI 3f3d8 $rbp: .cfa -32 + ^ .cfa: $rsp 32 +
STACK CFI 3f3d9 $rbx: .cfa -40 + ^ .cfa: $rsp 40 +
STACK CFI 3f3e0 .cfa: $rsp 8256 +
STACK CFI 3f491 .cfa: $rsp 40 +
STACK CFI 3f492 .cfa: $rsp 32 +
STACK CFI 3f493 .cfa: $rsp 24 +
STACK CFI 3f495 .cfa: $rsp 16 +
STACK CFI 3f497 .cfa: $rsp 8 +
STACK CFI 3f498 .cfa: $rsp 8256 +
STACK CFI INIT 3f4a0 a .cfa: $rsp 8 + .ra: .cfa -8 + ^
STACK CFI INIT 3f4b0 a .cfa: $rsp 8 + .ra: .cfa -8 + ^
STACK CFI INIT 3f4c0 e .cfa: $rsp 8 + .ra: .cfa -8 + ^
STACK CFI INIT 3f4d0 3c .cfa: $rsp 8 + .ra: .cfa -8 + ^
STACK CFI 3f4d6 $r12: .cfa -16 + ^ .cfa: $rsp 16 +
STACK CFI 3f4d7 $rbp: .cfa -24 + ^ .cfa: $rsp 24 +
STACK CFI 3f4db $rbx: .cfa -32 + ^ .cfa: $rsp 32 +
STACK CFI 3f4f8 $rbx: $rbx .cfa: $rsp 24 +
STACK CFI 3f4f9 $rbp: $rbp .cfa: $rsp 16 +
STACK CFI 3f4fb $r12: $r12 .cfa: $rsp 8 +
STACK CFI INIT 3f510 4c .cfa: $rsp 8 + .ra: .cfa -8 + ^
STACK CFI 3f516 $rbp: .cfa -16 + ^ .cfa: $rsp 16 +
STACK CFI 3f517 $rbx: .cfa -24 + ^ .cfa: $rsp 24 +
STACK CFI 3f52c .cfa: $rsp 32 +
STACK CFI 3f535 .cfa: $rsp 24 +
STACK CFI 3f53b $rbx: $rbx .cfa: $rsp 16 +
STACK CFI 3f53c $rbp: $rbp .cfa: $rsp 8 +
STACK CFI INIT 3f560 1c7 .cfa: $rsp 8 + .ra: .cfa -8 + ^
STACK CFI 3f562 $r12: .cfa -16 + ^ .cfa: $rsp 16 +
STACK CFI 3f563 $rbp: .cfa -24 + ^ .cfa: $rsp 24 +
STACK CFI 3f567 $rbx: .cfa -32 + ^ .cfa: $rsp 32 +
STACK CFI 3f5f8 .cfa: $rsp 24 +
STACK CFI 3f603 .cfa: $rsp 16 +
STACK CFI 3f605 .cfa: $rsp 8 +
STACK CFI 3f610 .cfa: $rsp 32 +
STACK CFI 3f71a .cfa: $rsp 24 +
STACK CFI 3f71b .cfa: $rsp 16 +
STACK CFI 3f71d .cfa: $rsp 8 +
STACK CFI INIT 3f730 1d9 .cfa: $rsp 8 + .ra: .cfa -8 + ^
STACK CFI 3f732 $r15: .cfa -16 + ^ .cfa: $rsp 16 +
STACK CFI 3f734 $r14: .cfa -24 + ^ .cfa: $rsp 24 +
STACK CFI 3f736 $r13: .cfa -32 + ^ .cfa: $rsp 32 +
STACK CFI 3f738 $r12: .cfa -40 + ^ .cfa: $rsp 40 +
STACK CFI 3f739 $rbp: .cfa -48 + ^ .cfa: $rsp 48 +
STACK CFI 3f73a $rbx: .cfa -56 + ^ .cfa: $rsp 56 +
STACK CFI 3f741 .cfa: $rsp 96 +
STACK CFI 3f7ca .cfa: $rsp 56 +
STACK CFI 3f7cb .cfa: $rsp 48 +
STACK CFI 3f7cc .cfa: $rsp 40 +
STACK CFI 3f7ce .cfa: $rsp 32 +
STACK CFI 3f7d0 .cfa: $rsp 24 +
STACK CFI 3f7d2 .cfa: $rsp 16 +
STACK CFI 3f7d4 .cfa: $rsp 8 +
STACK CFI 3f7d8 .cfa: $rsp 96 +
STACK CFI INIT 3f910 21 .cfa: $rsp 8 + .ra: .cfa -8 + ^
STACK CFI 3f911 $rbx: .cfa -16 + ^ .cfa: $rsp 16 +
STACK CFI 3f92d .cfa: $rsp 8 +
STACK CFI INIT 3f940 21 .cfa: $rsp 8 + .ra: .cfa -8 + ^
STACK CFI 3f941 $rbx: .cfa -16 + ^ .cfa: $rsp 16 +
STACK CFI 3f95d .cfa: $rsp 8 +
STACK CFI INIT 3f970 6e .cfa: $rsp 8 + .ra: .cfa -8 + ^
STACK CFI 3f972 $r13: .cfa -16 + ^ .cfa: $rsp 16 +
STACK CFI 3f974 $r12: .cfa -24 + ^ .cfa: $rsp 24 +
STACK CFI 3f97c $rbp: .cfa -32 + ^ .cfa: $rsp 32 +
STACK CFI 3f97d $rbx: .cfa -40 + ^ .cfa: $rsp 40 +
STACK CFI 3f986 .cfa: $rsp 48 +
STACK CFI 3f9b2 .cfa: $rsp 40 +
STACK CFI 3f9ba .cfa: $rsp 32 +
STACK CFI 3f9bb .cfa: $rsp 24 +
STACK CFI 3f9bd .cfa: $rsp 16 +
STACK CFI 3f9bf .cfa: $rsp 8 +
STACK CFI 3f9c0 .cfa: $rsp 48 +
STACK CFI INIT 3f9e0 6e .cfa: $rsp 8 + .ra: .cfa -8 + ^
STACK CFI 3f9e2 $r13: .cfa -16 + ^ .cfa: $rsp 16 +
STACK CFI 3f9e4 $r12: .cfa -24 + ^ .cfa: $rsp 24 +
STACK CFI 3f9ec $rbp: .cfa -32 + ^ .cfa: $rsp 32 +
STACK CFI 3f9ed $rbx: .cfa -40 + ^ .cfa: $rsp 40 +
STACK CFI 3f9f6 .cfa: $rsp 48 +
STACK CFI 3fa22 .cfa: $rsp 40 +
STACK CFI 3fa2a .cfa: $rsp 32 +
STACK CFI 3fa2b .cfa: $rsp 24 +
STACK CFI 3fa2d .cfa: $rsp 16 +
STACK CFI 3fa2f .cfa: $rsp 8 +
STACK CFI 3fa30 .cfa: $rsp 48 +
STACK CFI INIT 3fa50 7f .cfa: $rsp 8 + .ra: .cfa -8 + ^
STACK CFI 3fa52 $r13: .cfa -16 + ^ .cfa: $rsp 16 +
STACK CFI 3fa54 $r12: .cfa -24 + ^ .cfa: $rsp 24 +
STACK CFI 3fa5c $rbp: .cfa -32 + ^ .cfa: $rsp 32 +
STACK CFI 3fa5d $rbx: .cfa -40 + ^ .cfa: $rsp 40 +
STACK CFI 3fa66 .cfa: $rsp 48 +
STACK CFI 3fa95 .cfa: $rsp 40 +
STACK CFI 3fa9d .cfa: $rsp 32 +
STACK CFI 3fa9e .cfa: $rsp 24 +
STACK CFI 3faa0 .cfa: $rsp 16 +
STACK CFI 3faa2 .cfa: $rsp 8 +
STACK CFI 3faa8 .cfa: $rsp 48 +
STACK CFI INIT 3fad0 57 .cfa: $rsp 8 + .ra: .cfa -8 + ^
STACK CFI 3fad9 $r13: .cfa -16 + ^ .cfa: $rsp 16 +
STACK CFI 3fadb $r12: .cfa -24 + ^ .cfa: $rsp 24 +
STACK CFI 3fadc $rbp: .cfa -32 + ^ .cfa: $rsp 32 +
STACK CFI 3fadd $rbx: .cfa -40 + ^ .cfa: $rsp 40 +
STACK CFI 3faf2 .cfa: $rsp 48 +
STACK CFI 3fb1f .cfa: $rsp 40 +
STACK CFI 3fb20 $rbx: $rbx .cfa: $rsp 32 +
STACK CFI 3fb21 $rbp: $rbp .cfa: $rsp 24 +
STACK CFI 3fb23 $r12: $r12 .cfa: $rsp 16 +
STACK CFI 3fb25 $r13: $r13 .cfa: $rsp 8 +
STACK CFI INIT 3fb30 1f .cfa: $rsp 8 + .ra: .cfa -8 + ^
STACK CFI 3fb31 $rbx: .cfa -16 + ^ .cfa: $rsp 16 +
STACK CFI 3fb4b .cfa: $rsp 8 +
STACK CFI INIT 3fb50 37 .cfa: $rsp 8 + .ra: .cfa -8 + ^
STACK CFI 3fb51 $rbx: .cfa -16 + ^ .cfa: $rsp 16 +
STACK CFI 3fb6f .cfa: $rsp 8 +
STACK CFI 3fb70 .cfa: $rsp 16 +
STACK CFI 3fb76 .cfa: $rsp 8 +
STACK CFI INIT 3fb90 1e .cfa: $rsp 8 + .ra: .cfa -8 + ^
STACK CFI 3fb91 $rbx: .cfa -16 + ^ .cfa: $rsp 16 +
STACK CFI 3fbaa .cfa: $rsp 8 +
STACK CFI INIT 3fbb0 32 .cfa: $rsp 8 + .ra: .cfa -8 + ^
STACK CFI 3fbb1 $rbx: .cfa -16 + ^ .cfa: $rsp 16 +
STACK CFI 3fbbd .cfa: $rsp 32 +
STACK CFI 3fbe0 .cfa: $rsp 16 +
STACK CFI 3fbe1 .cfa: $rsp 8 +
STACK CFI INIT 3fbf0 37 .cfa: $rsp 8 + .ra: .cfa -8 + ^
STACK CFI 3fbf2 $r12: .cfa -16 + ^ .cfa: $rsp 16 +
STACK CFI 3fbf3 $rbp: .cfa -24 + ^ .cfa: $rsp 24 +
STACK CFI 3fbf6 $rbx: .cfa -32 + ^ .cfa: $rsp 32 +
STACK CFI 3fc0d .cfa: $rsp 24 +
STACK CFI 3fc0e .cfa: $rsp 16 +
STACK CFI 3fc10 .cfa: $rsp 8 +
STACK CFI 3fc18 .cfa: $rsp 32 +
STACK CFI 3fc1f .cfa: $rsp 24 +
STACK CFI 3fc20 .cfa: $rsp 16 +
STACK CFI 3fc22 .cfa: $rsp 8 +
STACK CFI INIT 3fc30 3f .cfa: $rsp 8 + .ra: .cfa -8 + ^
STACK CFI 3fc31 $rbx: .cfa -16 + ^ .cfa: $rsp 16 +
STACK CFI 3fc3d .cfa: $rsp 32 +
STACK CFI 3fc6d .cfa: $rsp 16 +
STACK CFI 3fc6e .cfa: $rsp 8 +
STACK CFI INIT 3fc70 1f4 .cfa: $rsp 8 + .ra: .cfa -8 + ^
STACK CFI 3fc72 $r13: .cfa -16 + ^ .cfa: $rsp 16 +
STACK CFI 3fc74 $r12: .cfa -24 + ^ .cfa: $rsp 24 +
STACK CFI 3fc78 $rbp: .cfa -32 + ^ .cfa: $rsp 32 +
STACK CFI 3fc79 $rbx: .cfa -40 + ^ .cfa: $rsp 40 +
STACK CFI 3fc88 .cfa: $rsp 48 +
STACK CFI 3fdbc .cfa: $rsp 40 +
STACK CFI 3fdbd .cfa: $rsp 32 +
STACK CFI 3fdbe .cfa: $rsp 24 +
STACK CFI 3fdc0 .cfa: $rsp 16 +
STACK CFI 3fdc2 .cfa: $rsp 8 +
STACK CFI 3fdc8 .cfa: $rsp 48 +
STACK CFI 3fe10 .cfa: $rsp 40 +
STACK CFI 3fe11 .cfa: $rsp 32 +
STACK CFI 3fe12 .cfa: $rsp 24 +
STACK CFI 3fe14 .cfa: $rsp 16 +
STACK CFI 3fe16 .cfa: $rsp 8 +
STACK CFI 3fe20 .cfa: $rsp 48 +
STACK CFI INIT 3fe70 312 .cfa: $rsp 8 + .ra: .cfa -8 + ^
STACK CFI 3fe72 $r15: .cfa -16 + ^ .cfa: $rsp 16 +
STACK CFI 3fe74 $r14: .cfa -24 + ^ .cfa: $rsp 24 +
STACK CFI 3fe76 $r13: .cfa -32 + ^ .cfa: $rsp 32 +
STACK CFI 3fe78 $r12: .cfa -40 + ^ .cfa: $rsp 40 +
STACK CFI 3fe7c $rbp: .cfa -48 + ^ .cfa: $rsp 48 +
STACK CFI 3fe7d $rbx: .cfa -56 + ^ .cfa: $rsp 56 +
STACK CFI 3fe84 .cfa: $rsp 128 +
STACK CFI 3ff0f .cfa: $rsp 56 +
STACK CFI 3ff10 .cfa: $rsp 48 +
STACK CFI 3ff11 .cfa: $rsp 40 +
STACK CFI 3ff13 .cfa: $rsp 32 +
STACK CFI 3ff15 .cfa: $rsp 24 +
STACK CFI 3ff17 .cfa: $rsp 16 +
STACK CFI 3ff19 .cfa: $rsp 8 +
STACK CFI 3ff1a .cfa: $rsp 128 +
STACK CFI INIT 40190 593 .cfa: $rsp 8 + .ra: .cfa -8 + ^
STACK CFI 40192 $r15: .cfa -16 + ^ .cfa: $rsp 16 +
STACK CFI 40194 $r14: .cfa -24 + ^ .cfa: $rsp 24 +
STACK CFI 40196 $r13: .cfa -32 + ^ .cfa: $rsp 32 +
STACK CFI 40198 $r12: .cfa -40 + ^ .cfa: $rsp 40 +
STACK CFI 4019c $rbp: .cfa -48 + ^ .cfa: $rsp 48 +
STACK CFI 4019d $rbx: .cfa -56 + ^ .cfa: $rsp 56 +
STACK CFI 401aa .cfa: $rsp 576 +
STACK CFI 4042b .cfa: $rsp 56 +
STACK CFI 4042c .cfa: $rsp 48 +
STACK CFI 4042d .cfa: $rsp 40 +
STACK CFI 4042f .cfa: $rsp 32 +
STACK CFI 40431 .cfa: $rsp 24 +
STACK CFI 40433 .cfa: $rsp 16 +
STACK CFI 40435 .cfa: $rsp 8 +
STACK CFI 40440 .cfa: $rsp 576 +
STACK CFI INIT 40730 487 .cfa: $rsp 8 + .ra: .cfa -8 + ^
STACK CFI 40732 $r15: .cfa -16 + ^ .cfa: $rsp 16 +
STACK CFI 40734 $r14: .cfa -24 + ^ .cfa: $rsp 24 +
STACK CFI 40736 $r13: .cfa -32 + ^ .cfa: $rsp 32 +
STACK CFI 40738 $r12: .cfa -40 + ^ .cfa: $rsp 40 +
STACK CFI 40739 $rbp: .cfa -48 + ^ .cfa: $rsp 48 +
STACK CFI 4073a $rbx: .cfa -56 + ^ .cfa: $rsp 56 +
STACK CFI 40741 .cfa: $rsp 128 +
STACK CFI 407fe .cfa: $rsp 56 +
STACK CFI 407ff .cfa: $rsp 48 +
STACK CFI 40800 .cfa: $rsp 40 +
STACK CFI 40802 .cfa: $rsp 32 +
STACK CFI 40804 .cfa: $rsp 24 +
STACK CFI 40806 .cfa: $rsp 16 +
STACK CFI 40808 .cfa: $rsp 8 +
STACK CFI 40810 .cfa: $rsp 128 +
STACK CFI INIT 40bc0 4a9 .cfa: $rsp 8 + .ra: .cfa -8 + ^
STACK CFI 40bc2 $r15: .cfa -16 + ^ .cfa: $rsp 16 +
STACK CFI 40bc4 $r14: .cfa -24 + ^ .cfa: $rsp 24 +
STACK CFI 40bc9 $r13: .cfa -32 + ^ .cfa: $rsp 32 +
STACK CFI 40bcb $r12: .cfa -40 + ^ .cfa: $rsp 40 +
STACK CFI 40bcf $rbp: .cfa -48 + ^ .cfa: $rsp 48 +
STACK CFI 40bd0 $rbx: .cfa -56 + ^ .cfa: $rsp 56 +
STACK CFI 40bda .cfa: $rsp 544 +
STACK CFI 40f98 .cfa: $rsp 56 +
STACK CFI 40f99 .cfa: $rsp 48 +
STACK CFI 40f9a .cfa: $rsp 40 +
STACK CFI 40f9c .cfa: $rsp 32 +
STACK CFI 40f9e .cfa: $rsp 24 +
STACK CFI 40fa0 .cfa: $rsp 16 +
STACK CFI 40fa2 .cfa: $rsp 8 +
STACK CFI 40fa3 .cfa: $rsp 544 +
STACK CFI INIT 461d0 3ac .cfa: $rsp 8 + .ra: .cfa -8 + ^
STACK CFI 461d2 $r15: .cfa -16 + ^ .cfa: $rsp 16 +
STACK CFI 461d4 $r14: .cfa -24 + ^ .cfa: $rsp 24 +
STACK CFI 461d9 $r13: .cfa -32 + ^ .cfa: $rsp 32 +
STACK CFI 461db $r12: .cfa -40 + ^ .cfa: $rsp 40 +
STACK CFI 461df $rbp: .cfa -48 + ^ .cfa: $rsp 48 +
STACK CFI 461e0 $rbx: .cfa -56 + ^ .cfa: $rsp 56 +
STACK CFI 461e9 .cfa: $rsp 544 +
STACK CFI 46499 .cfa: $rsp 56 +
STACK CFI 4649a .cfa: $rsp 48 +
STACK CFI 4649b .cfa: $rsp 40 +
STACK CFI 4649d .cfa: $rsp 32 +
STACK CFI 4649f .cfa: $rsp 24 +
STACK CFI 464a1 .cfa: $rsp 16 +
STACK CFI 464a3 .cfa: $rsp 8 +
STACK CFI 464a8 .cfa: $rsp 544 +
STACK CFI INIT 46580 6f .cfa: $rsp 8 + .ra: .cfa -8 + ^
STACK CFI 46584 .cfa: $rsp 32 +
STACK CFI 465bc .cfa: $rsp 8 +
STACK CFI 465c0 .cfa: $rsp 32 +
STACK CFI INIT 1b0c0 2e .cfa: $rsp 8 + .ra: .cfa -8 + ^
STACK CFI 1b0cb .cfa: $rsp 16 +
STACK CFI 1b0e9 .cfa: $rsp 8 +
STACK CFI INIT 465f0 103 .cfa: $rsp 8 + .ra: .cfa -8 + ^
STACK CFI 465f2 $r15: .cfa -16 + ^ .cfa: $rsp 16 +
STACK CFI 465f4 $r14: .cfa -24 + ^ .cfa: $rsp 24 +
STACK CFI 465f9 $r13: .cfa -32 + ^ .cfa: $rsp 32 +
STACK CFI 465fb $r12: .cfa -40 + ^ .cfa: $rsp 40 +
STACK CFI 465ff $rbp: .cfa -48 + ^ .cfa: $rsp 48 +
STACK CFI 46600 $rbx: .cfa -56 + ^ .cfa: $rsp 56 +
STACK CFI 4660b .cfa: $rsp 64 +
STACK CFI 466ca .cfa: $rsp 56 +
STACK CFI 466cb .cfa: $rsp 48 +
STACK CFI 466cc .cfa: $rsp 40 +
STACK CFI 466ce .cfa: $rsp 32 +
STACK CFI 466d0 .cfa: $rsp 24 +
STACK CFI 466d2 .cfa: $rsp 16 +
STACK CFI 466d4 .cfa: $rsp 8 +
STACK CFI 466d8 .cfa: $rsp 64 +
STACK CFI 466e3 .cfa: $rsp 56 +
STACK CFI 466e4 .cfa: $rsp 48 +
STACK CFI 466e5 .cfa: $rsp 40 +
STACK CFI 466e7 .cfa: $rsp 32 +
STACK CFI 466e9 .cfa: $rsp 24 +
STACK CFI 466eb .cfa: $rsp 16 +
STACK CFI 466ed .cfa: $rsp 8 +
STACK CFI 466ee .cfa: $rsp 64 +
STACK CFI INIT 46700 c2 .cfa: $rsp 8 + .ra: .cfa -8 + ^
STACK CFI 46702 $r12: .cfa -16 + ^ .cfa: $rsp 16 +
STACK CFI 46703 $rbp: .cfa -24 + ^ .cfa: $rsp 24 +
STACK CFI 46707 $rbx: .cfa -32 + ^ .cfa: $rsp 32 +
STACK CFI 4670e .cfa: $rsp 48 +
STACK CFI 4677a .cfa: $rsp 32 +
STACK CFI 4677b .cfa: $rsp 24 +
STACK CFI 4677c .cfa: $rsp 16 +
STACK CFI 4677e .cfa: $rsp 8 +
STACK CFI 46780 .cfa: $rsp 48 +
STACK CFI INIT 467d0 6f .cfa: $rsp 8 + .ra: .cfa -8 + ^
STACK CFI 467d1 $rbx: .cfa -16 + ^ .cfa: $rsp 16 +
STACK CFI 46837 .cfa: $rsp 8 +
STACK CFI INIT 46840 5f .cfa: $rsp 8 + .ra: .cfa -8 + ^
STACK CFI 46842 $r12: .cfa -16 + ^ .cfa: $rsp 16 +
STACK CFI 46843 $rbp: .cfa -24 + ^ .cfa: $rsp 24 +
STACK CFI 46847 $rbx: .cfa -32 + ^ .cfa: $rsp 32 +
STACK CFI 4689b .cfa: $rsp 24 +
STACK CFI 4689c .cfa: $rsp 16 +
STACK CFI 4689e .cfa: $rsp 8 +
STACK CFI INIT 468a0 c0 .cfa: $rsp 8 + .ra: .cfa -8 + ^
STACK CFI 468a5 $r12: .cfa -16 + ^ .cfa: $rsp 16 +
STACK CFI 468a6 $rbp: .cfa -24 + ^ .cfa: $rsp 24 +
STACK CFI 468ae $rbx: .cfa -32 + ^ .cfa: $rsp 32 +
STACK CFI 4695c .cfa: $rsp 24 +
STACK CFI 4695d .cfa: $rsp 16 +
STACK CFI 4695f .cfa: $rsp 8 +
STACK CFI INIT 46960 52 .cfa: $rsp 8 + .ra: .cfa -8 + ^
STACK CFI 4696b $rbx: .cfa -16 + ^ .cfa: $rsp 16 +
STACK CFI 469b1 .cfa: $rsp 8 +
STACK CFI INIT 469c0 1eb .cfa: $rsp 8 + .ra: .cfa -8 + ^
STACK CFI 469c2 $r13: .cfa -16 + ^ .cfa: $rsp 16 +
STACK CFI 469c4 $r12: .cfa -24 + ^ .cfa: $rsp 24 +
STACK CFI 469c8 $rbp: .cfa -32 + ^ .cfa: $rsp 32 +
STACK CFI 469c9 $rbx: .cfa -40 + ^ .cfa: $rsp 40 +
STACK CFI 469e0 .cfa: $rsp 1088 +
STACK CFI 46b17 .cfa: $rsp 40 +
STACK CFI 46b18 .cfa: $rsp 32 +
STACK CFI 46b19 .cfa: $rsp 24 +
STACK CFI 46b1b .cfa: $rsp 16 +
STACK CFI 46b1d .cfa: $rsp 8 +
STACK CFI 46b20 .cfa: $rsp 1088 +
STACK CFI INIT 475f0 d6b .cfa: $rsp 8 + .ra: .cfa -8 + ^
STACK CFI 475f1 $rbp: .cfa -16 + ^ .cfa: $rsp 16 +
STACK CFI 475f4 .cfa: $rbp 16 +
STACK CFI 47604 $r12: .cfa -48 + ^ $r13: .cfa -40 + ^ $r14: .cfa -32 + ^ $r15: .cfa -24 + ^ $rbx: .cfa -56 + ^
STACK CFI 4766f .cfa: $rsp 8 +
STACK CFI 47670 .cfa: $rbp 16 +
STACK CFI INIT 48360 d56 .cfa: $rsp 8 + .ra: .cfa -8 + ^
STACK CFI 48361 $rbp: .cfa -16 + ^ .cfa: $rsp 16 +
STACK CFI 48364 .cfa: $rbp 16 +
STACK CFI 48374 $r12: .cfa -48 + ^ $r13: .cfa -40 + ^ $r14: .cfa -32 + ^ $r15: .cfa -24 + ^ $rbx: .cfa -56 + ^
STACK CFI 483cd .cfa: $rsp 8 +
STACK CFI 483ce .cfa: $rbp 16 +
STACK CFI INIT 490c0 d10 .cfa: $rsp 8 + .ra: .cfa -8 + ^
STACK CFI 490c1 $rbp: .cfa -16 + ^ .cfa: $rsp 16 +
STACK CFI 490c4 .cfa: $rbp 16 +
STACK CFI 490cc $r12: .cfa -48 + ^ $r13: .cfa -40 + ^ $r14: .cfa -32 + ^ $r15: .cfa -24 + ^
STACK CFI 490d7 $rbx: .cfa -56 + ^
STACK CFI 49125 .cfa: $rsp 8 +
STACK CFI 49126 .cfa: $rbp 16 +
STACK CFI INIT 49dd0 cf0 .cfa: $rsp 8 + .ra: .cfa -8 + ^
STACK CFI 49dd1 $rbp: .cfa -16 + ^ .cfa: $rsp 16 +
STACK CFI 49dd4 .cfa: $rbp 16 +
STACK CFI 49ddc $r12: .cfa -48 + ^ $r13: .cfa -40 + ^ $r14: .cfa -32 + ^ $r15: .cfa -24 + ^
STACK CFI 49de7 $rbx: .cfa -56 + ^
STACK CFI 49e35 .cfa: $rsp 8 +
STACK CFI 49e36 .cfa: $rbp 16 +
STACK CFI INIT 46bb0 50c .cfa: $rsp 8 + .ra: .cfa -8 + ^
STACK CFI 46bb2 $r14: .cfa -16 + ^ .cfa: $rsp 16 +
STACK CFI 46bb4 $r13: .cfa -24 + ^ .cfa: $rsp 24 +
STACK CFI 46bb6 $r12: .cfa -32 + ^ .cfa: $rsp 32 +
STACK CFI 46bb7 $rbp: .cfa -40 + ^ .cfa: $rsp 40 +
STACK CFI 46bbb $rbx: .cfa -48 + ^ .cfa: $rsp 48 +
STACK CFI 46bc5 .cfa: $rsp 80 +
STACK CFI 46c57 .cfa: $rsp 128 +
STACK CFI 46c8b .cfa: $rsp 80 +
STACK CFI 46cf9 .cfa: $rsp 128 +
STACK CFI 46d2d .cfa: $rsp 80 +
STACK CFI 46d7e .cfa: $rsp 48 +
STACK CFI 46d7f .cfa: $rsp 40 +
STACK CFI 46d80 .cfa: $rsp 32 +
STACK CFI 46d82 .cfa: $rsp 24 +
STACK CFI 46d84 .cfa: $rsp 16 +
STACK CFI 46d86 .cfa: $rsp 8 +
STACK CFI 46d90 .cfa: $rsp 80 +
STACK CFI 46e11 .cfa: $rsp 128 +
STACK CFI 46e45 .cfa: $rsp 80 +
STACK CFI 46ed1 .cfa: $rsp 88 +
STACK CFI 46ed7 .cfa: $rsp 96 +
STACK CFI 46ee3 .cfa: $rsp 88 +
STACK CFI 46ee5 .cfa: $rsp 80 +
STACK CFI 46f7e .cfa: $rsp 128 +
STACK CFI 46fb2 .cfa: $rsp 80 +
STACK CFI 47008 .cfa: $rsp 128 +
STACK CFI 4703c .cfa: $rsp 80 +
STACK CFI INIT 470c0 184 .cfa: $rsp 8 + .ra: .cfa -8 + ^
STACK CFI 470c2 $r12: .cfa -16 + ^ .cfa: $rsp 16 +
STACK CFI 470c3 $rbp: .cfa -24 + ^ .cfa: $rsp 24 +
STACK CFI 470c7 $rbx: .cfa -32 + ^ .cfa: $rsp 32 +
STACK CFI 470cd .cfa: $rsp 48 +
STACK CFI 47110 .cfa: $rsp 96 +
STACK CFI 47152 .cfa: $rsp 48 +
STACK CFI 47156 .cfa: $rsp 32 +
STACK CFI 47157 .cfa: $rsp 24 +
STACK CFI 47158 .cfa: $rsp 16 +
STACK CFI 4715a .cfa: $rsp 8 +
STACK CFI 47160 .cfa: $rsp 48 +
STACK CFI 47177 .cfa: $rsp 96 +
STACK CFI 471b9 .cfa: $rsp 48 +
STACK CFI 471bd .cfa: $rsp 32 +
STACK CFI 471be .cfa: $rsp 24 +
STACK CFI 471bf .cfa: $rsp 16 +
STACK CFI 471c1 .cfa: $rsp 8 +
STACK CFI 471c8 .cfa: $rsp 48 +
STACK CFI INIT 47250 1a8 .cfa: $rsp 8 + .ra: .cfa -8 + ^
STACK CFI 47251 $rbp: .cfa -16 + ^ .cfa: $rsp 16 +
STACK CFI 47252 $rbx: .cfa -24 + ^ .cfa: $rsp 24 +
STACK CFI 47261 .cfa: $rsp 1504 +
STACK CFI 472fc .cfa: $rsp 1552 +
STACK CFI 4733d .cfa: $rsp 1504 +
STACK CFI 4738b .cfa: $rsp 24 +
STACK CFI 4738c .cfa: $rsp 16 +
STACK CFI 4738d .cfa: $rsp 8 +
STACK CFI 47390 .cfa: $rsp 1504 +
STACK CFI 473df .cfa: $rsp 1512 +
STACK CFI 473e7 .cfa: $rsp 1520 +
STACK CFI 473ed .cfa: $rsp 1512 +
STACK CFI 473ee .cfa: $rsp 1504 +
STACK CFI INIT 47400 1e2 .cfa: $rsp 8 + .ra: .cfa -8 + ^
STACK CFI 47402 $r12: .cfa -16 + ^ .cfa: $rsp 16 +
STACK CFI 47403 $rbp: .cfa -24 + ^ .cfa: $rsp 24 +
STACK CFI 47404 $rbx: .cfa -32 + ^ .cfa: $rsp 32 +
STACK CFI 4740b .cfa: $rsp 1552 +
STACK CFI 47491 .cfa: $rsp 1600 +
STACK CFI 474d2 .cfa: $rsp 1552 +
STACK CFI 474f7 .cfa: $rsp 32 +
STACK CFI 474f8 .cfa: $rsp 24 +
STACK CFI 474f9 .cfa: $rsp 16 +
STACK CFI 474fb .cfa: $rsp 8 +
STACK CFI 47500 .cfa: $rsp 1552 +
STACK CFI 4753a .cfa: $rsp 1560 +
STACK CFI 47558 .cfa: $rsp 1568 +
STACK CFI 47573 .cfa: $rsp 1560 +
STACK CFI 47574 .cfa: $rsp 1552 +
STACK CFI INIT 1b0f0 2e .cfa: $rsp 8 + .ra: .cfa -8 + ^
STACK CFI 1b0fb .cfa: $rsp 16 +
STACK CFI 1b119 .cfa: $rsp 8 +
STACK CFI INIT 4da30 4 .cfa: $rsp 8 + .ra: .cfa -8 + ^
STACK CFI INIT 4da40 4 .cfa: $rsp 8 + .ra: .cfa -8 + ^
STACK CFI INIT 4da50 6c .cfa: $rsp 8 + .ra: .cfa -8 + ^
STACK CFI 4da54 .cfa: $rsp 32 +
STACK CFI 4daab .cfa: $rsp 8 +
STACK CFI 4dab0 .cfa: $rsp 32 +
STACK CFI INIT 4aac0 25 .cfa: $rsp 8 + .ra: .cfa -8 + ^
STACK CFI INIT 4aaf0 c2 .cfa: $rsp 8 + .ra: .cfa -8 + ^
STACK CFI 4aaf2 $r12: .cfa -16 + ^ .cfa: $rsp 16 +
STACK CFI 4aaf3 $rbp: .cfa -24 + ^ .cfa: $rsp 24 +
STACK CFI 4aaf7 $rbx: .cfa -32 + ^ .cfa: $rsp 32 +
STACK CFI 4aafe .cfa: $rsp 48 +
STACK CFI 4ab6a .cfa: $rsp 32 +
STACK CFI 4ab6b .cfa: $rsp 24 +
STACK CFI 4ab6c .cfa: $rsp 16 +
STACK CFI 4ab6e .cfa: $rsp 8 +
STACK CFI 4ab70 .cfa: $rsp 48 +
STACK CFI INIT 4dac0 8d .cfa: $rsp 8 + .ra: .cfa -8 + ^
STACK CFI 4dac1 $rbp: .cfa -16 + ^ .cfa: $rsp 16 +
STACK CFI 4dac2 $rbx: .cfa -24 + ^ .cfa: $rsp 24 +
STACK CFI 4dad4 .cfa: $rsp 80 +
STACK CFI 4db28 .cfa: $rsp 24 +
STACK CFI 4db29 .cfa: $rsp 16 +
STACK CFI 4db2a .cfa: $rsp 8 +
STACK CFI 4db2b .cfa: $rsp 80 +
STACK CFI INIT 4db50 8d .cfa: $rsp 8 + .ra: .cfa -8 + ^
STACK CFI 4db51 $rbp: .cfa -16 + ^ .cfa: $rsp 16 +
STACK CFI 4db52 $rbx: .cfa -24 + ^ .cfa: $rsp 24 +
STACK CFI 4db64 .cfa: $rsp 80 +
STACK CFI 4dbb8 .cfa: $rsp 24 +
STACK CFI 4dbb9 .cfa: $rsp 16 +
STACK CFI 4dbba .cfa: $rsp 8 +
STACK CFI 4dbbb .cfa: $rsp 80 +
STACK CFI INIT 4dbe0 9e .cfa: $rsp 8 + .ra: .cfa -8 + ^
STACK CFI 4dc36 $rbp: .cfa -16 + ^ .cfa: $rsp 16 +
STACK CFI 4dc37 $rbx: .cfa -24 + ^ .cfa: $rsp 24 +
STACK CFI 4dc44 .cfa: $rsp 32 +
STACK CFI 4dc4d .cfa: $rsp 24 +
STACK CFI 4dc54 $rbx: $rbx .cfa: $rsp 16 +
STACK CFI 4dc55 $rbp: $rbp .cfa: $rsp 8 +
STACK CFI INIT 4dc80 174 .cfa: $rsp 8 + .ra: .cfa -8 + ^
STACK CFI 4dc82 $r12: .cfa -16 + ^ .cfa: $rsp 16 +
STACK CFI 4dc83 $rbp: .cfa -24 + ^ .cfa: $rsp 24 +
STACK CFI 4dc87 $rbx: .cfa -32 + ^ .cfa: $rsp 32 +
STACK CFI 4dc8b .cfa: $rsp 96 +
STACK CFI 4dcff .cfa: $rsp 32 +
STACK CFI 4dd00 .cfa: $rsp 24 +
STACK CFI 4dd01 .cfa: $rsp 16 +
STACK CFI 4dd03 .cfa: $rsp 8 +
STACK CFI 4dd08 .cfa: $rsp 96 +
STACK CFI INIT 4abc0 14 .cfa: $rsp 8 + .ra: .cfa -8 + ^
STACK CFI 4abc4 .cfa: $rsp 16 +
STACK CFI 4abcf .cfa: $rsp 8 +
STACK CFI INIT 4abe0 fa .cfa: $rsp 8 + .ra: .cfa -8 + ^
STACK CFI INIT 4ace0 46 .cfa: $rsp 8 + .ra: .cfa -8 + ^
STACK CFI 4ace1 $rbp: .cfa -16 + ^ .cfa: $rsp 16 +
STACK CFI 4ace2 $rbx: .cfa -24 + ^ .cfa: $rsp 24 +
STACK CFI 4acf5 .cfa: $rsp 40 +
STACK CFI 4acfe .cfa: $rsp 48 +
STACK CFI 4ad14 .cfa: $rsp 40 +
STACK CFI 4ad15 .cfa: $rsp 32 +
STACK CFI 4ad23 .cfa: $rsp 24 +
STACK CFI 4ad24 .cfa: $rsp 16 +
STACK CFI 4ad25 .cfa: $rsp 8 +
STACK CFI INIT 4ad30 dc .cfa: $rsp 8 + .ra: .cfa -8 + ^
STACK CFI 4ad37 .cfa: $rsp 160 +
STACK CFI 4ad8b .cfa: $rsp 8 +
STACK CFI 4ad90 .cfa: $rsp 160 +
STACK CFI INIT 4ae10 1a7 .cfa: $rsp 8 + .ra: .cfa -8 + ^
STACK CFI 4ae11 $rbx: .cfa -16 + ^ .cfa: $rsp 16 +
STACK CFI 4ae47 .cfa: $rsp 8 +
STACK CFI 4ae50 .cfa: $rsp 16 +
STACK CFI 4ae76 .cfa: $rsp 64 +
STACK CFI 4aec3 .cfa: $rsp 16 +
STACK CFI 4aede .cfa: $rsp 8 +
STACK CFI 4aee0 .cfa: $rsp 16 +
STACK CFI 4af01 .cfa: $rsp 64 +
STACK CFI 4af4e .cfa: $rsp 16 +
STACK CFI 4af69 .cfa: $rsp 8 +
STACK CFI 4af70 .cfa: $rsp 16 +
STACK CFI 4af90 .cfa: $rsp 8 +
STACK CFI 4af98 .cfa: $rsp 16 +
STACK CFI INIT 4afc0 9 .cfa: $rsp 8 + .ra: .cfa -8 + ^
STACK CFI INIT 4afd0 135 .cfa: $rsp 8 + .ra: .cfa -8 + ^
STACK CFI INIT 4b110 4e .cfa: $rsp 8 + .ra: .cfa -8 + ^
STACK CFI 4b11f .cfa: $rsp 16 +
STACK CFI 4b13a .cfa: $rsp 8 +
STACK CFI 4b140 .cfa: $rsp 16 +
STACK CFI INIT 4b160 1ac .cfa: $rsp 8 + .ra: .cfa -8 + ^
STACK CFI 4b162 $r13: .cfa -16 + ^ .cfa: $rsp 16 +
STACK CFI 4b164 $r12: .cfa -24 + ^ .cfa: $rsp 24 +
STACK CFI 4b165 $rbp: .cfa -32 + ^ .cfa: $rsp 32 +
STACK CFI 4b166 $rbx: .cfa -40 + ^ .cfa: $rsp 40 +
STACK CFI 4b16f .cfa: $rsp 208 +
STACK CFI 4b292 .cfa: $rsp 40 +
STACK CFI 4b293 .cfa: $rsp 32 +
STACK CFI 4b294 .cfa: $rsp 24 +
STACK CFI 4b296 .cfa: $rsp 16 +
STACK CFI 4b298 .cfa: $rsp 8 +
STACK CFI 4b2a0 .cfa: $rsp 208 +
STACK CFI INIT 4b310 226 .cfa: $rsp 8 + .ra: .cfa -8 + ^
STACK CFI 4b312 $r13: .cfa -16 + ^ .cfa: $rsp 16 +
STACK CFI 4b314 $r12: .cfa -24 + ^ .cfa: $rsp 24 +
STACK CFI 4b315 $rbp: .cfa -32 + ^ .cfa: $rsp 32 +
STACK CFI 4b316 $rbx: .cfa -40 + ^ .cfa: $rsp 40 +
STACK CFI 4b31c .cfa: $rsp 48 +
STACK CFI 4b3d6 .cfa: $rsp 40 +
STACK CFI 4b3d7 .cfa: $rsp 32 +
STACK CFI 4b3d8 .cfa: $rsp 24 +
STACK CFI 4b3da .cfa: $rsp 16 +
STACK CFI 4b3dc .cfa: $rsp 8 +
STACK CFI 4b3e0 .cfa: $rsp 48 +
STACK CFI 4b410 .cfa: $rsp 40 +
STACK CFI 4b411 .cfa: $rsp 32 +
STACK CFI 4b412 .cfa: $rsp 24 +
STACK CFI 4b414 .cfa: $rsp 16 +
STACK CFI 4b416 .cfa: $rsp 8 +
STACK CFI 4b420 .cfa: $rsp 48 +
STACK CFI INIT 4b540 84 .cfa: $rsp 8 + .ra: .cfa -8 + ^
STACK CFI 4b544 .cfa: $rsp 96 +
STACK CFI 4b5c3 .cfa: $rsp 8 +
STACK CFI INIT 4b5d0 13b .cfa: $rsp 8 + .ra: .cfa -8 + ^
STACK CFI 4b5d2 $r13: .cfa -16 + ^ .cfa: $rsp 16 +
STACK CFI 4b5d4 $r12: .cfa -24 + ^ .cfa: $rsp 24 +
STACK CFI 4b5d5 $rbp: .cfa -32 + ^ .cfa: $rsp 32 +
STACK CFI 4b5d6 $rbx: .cfa -40 + ^ .cfa: $rsp 40 +
STACK CFI 4b5dd .cfa: $rsp 224 +
STACK CFI 4b6d5 .cfa: $rsp 144 +
STACK CFI 4b6ff .cfa: $rsp 40 +
STACK CFI 4b700 .cfa: $rsp 32 +
STACK CFI 4b701 .cfa: $rsp 24 +
STACK CFI 4b703 .cfa: $rsp 16 +
STACK CFI 4b705 .cfa: $rsp 8 +
STACK CFI 4b706 .cfa: $rsp 144 +
STACK CFI INIT 4de00 cf0 .cfa: $rsp 8 + .ra: .cfa -8 + ^
STACK CFI 4de01 $rbp: .cfa -16 + ^ .cfa: $rsp 16 +
STACK CFI 4de04 .cfa: $rbp 16 +
STACK CFI 4de0c $r12: .cfa -48 + ^ $r13: .cfa -40 + ^ $r14: .cfa -32 + ^ $r15: .cfa -24 + ^
STACK CFI 4de17 $rbx: .cfa -56 + ^
STACK CFI 4de65 .cfa: $rsp 8 +
STACK CFI 4de66 .cfa: $rbp 16 +
STACK CFI INIT 4eaf0 cc0 .cfa: $rsp 8 + .ra: .cfa -8 + ^
STACK CFI 4eaf1 $rbp: .cfa -16 + ^ .cfa: $rsp 16 +
STACK CFI 4eaf4 .cfa: $rbp 16 +
STACK CFI 4eafd $r12: .cfa -48 + ^ $r13: .cfa -40 + ^ $r14: .cfa -32 + ^ $r15: .cfa -24 + ^ $rbx: .cfa -56 + ^
STACK CFI 4eb55 .cfa: $rsp 8 +
STACK CFI 4eb56 .cfa: $rbp 16 +
STACK CFI INIT 4b710 be .cfa: $rsp 8 + .ra: .cfa -8 + ^
STACK CFI 4b712 $r12: .cfa -16 + ^ .cfa: $rsp 16 +
STACK CFI 4b713 $rbp: .cfa -24 + ^ .cfa: $rsp 24 +
STACK CFI 4b714 $rbx: .cfa -32 + ^ .cfa: $rsp 32 +
STACK CFI 4b718 .cfa: $rsp 96 +
STACK CFI 4b7c4 .cfa: $rsp 32 +
STACK CFI 4b7c5 .cfa: $rsp 24 +
STACK CFI 4b7c6 .cfa: $rsp 16 +
STACK CFI 4b7c8 .cfa: $rsp 8 +
STACK CFI 4b7c9 .cfa: $rsp 96 +
STACK CFI INIT 4f7b0 d56 .cfa: $rsp 8 + .ra: .cfa -8 + ^
STACK CFI 4f7b1 $rbp: .cfa -16 + ^ .cfa: $rsp 16 +
STACK CFI 4f7b4 .cfa: $rbp 16 +
STACK CFI 4f7c4 $r12: .cfa -48 + ^ $r13: .cfa -40 + ^ $r14: .cfa -32 + ^ $r15: .cfa -24 + ^ $rbx: .cfa -56 + ^
STACK CFI 4f81d .cfa: $rsp 8 +
STACK CFI 4f81e .cfa: $rbp 16 +
STACK CFI INIT 50510 cc0 .cfa: $rsp 8 + .ra: .cfa -8 + ^
STACK CFI 50511 $rbp: .cfa -16 + ^ .cfa: $rsp 16 +
STACK CFI 50514 .cfa: $rbp 16 +
STACK CFI 5051d $r12: .cfa -48 + ^ $r13: .cfa -40 + ^ $r14: .cfa -32 + ^ $r15: .cfa -24 + ^ $rbx: .cfa -56 + ^
STACK CFI 50575 .cfa: $rsp 8 +
STACK CFI 50576 .cfa: $rbp 16 +
STACK CFI INIT 511d0 102 .cfa: $rsp 8 + .ra: .cfa -8 + ^
STACK CFI 511d2 $r14: .cfa -16 + ^ .cfa: $rsp 16 +
STACK CFI 511d4 $r13: .cfa -24 + ^ .cfa: $rsp 24 +
STACK CFI 511d6 $r12: .cfa -32 + ^ .cfa: $rsp 32 +
STACK CFI 511d7 $rbp: .cfa -40 + ^ .cfa: $rsp 40 +
STACK CFI 511d8 $rbx: .cfa -48 + ^ .cfa: $rsp 48 +
STACK CFI 511dc .cfa: $rsp 128 +
STACK CFI 5120d .cfa: $rsp 48 +
STACK CFI 5120e .cfa: $rsp 40 +
STACK CFI 5120f .cfa: $rsp 32 +
STACK CFI 51211 .cfa: $rsp 24 +
STACK CFI 51213 .cfa: $rsp 16 +
STACK CFI 51215 .cfa: $rsp 8 +
STACK CFI 51220 .cfa: $rsp 128 +
STACK CFI INIT 512e0 cc0 .cfa: $rsp 8 + .ra: .cfa -8 + ^
STACK CFI 512e1 $rbp: .cfa -16 + ^ .cfa: $rsp 16 +
STACK CFI 512e4 .cfa: $rbp 16 +
STACK CFI 512ed $r12: .cfa -48 + ^ $r13: .cfa -40 + ^ $r14: .cfa -32 + ^ $r15: .cfa -24 + ^ $rbx: .cfa -56 + ^
STACK CFI 51345 .cfa: $rsp 8 +
STACK CFI 51346 .cfa: $rbp 16 +
STACK CFI INIT 4b7d0 3dd .cfa: $rsp 8 + .ra: .cfa -8 + ^
STACK CFI 4b7d2 $r13: .cfa -16 + ^ .cfa: $rsp 16 +
STACK CFI 4b7d4 $r12: .cfa -24 + ^ .cfa: $rsp 24 +
STACK CFI 4b7d5 $rbp: .cfa -32 + ^ .cfa: $rsp 32 +
STACK CFI 4b7d6 $rbx: .cfa -40 + ^ .cfa: $rsp 40 +
STACK CFI 4b7e3 .cfa: $rsp 224 +
STACK CFI 4ba10 .cfa: $rsp 272 +
STACK CFI 4ba44 .cfa: $rsp 224 +
STACK CFI 4ba81 .cfa: $rsp 40 +
STACK CFI 4ba82 .cfa: $rsp 32 +
STACK CFI 4ba83 .cfa: $rsp 24 +
STACK CFI 4ba85 .cfa: $rsp 16 +
STACK CFI 4ba87 .cfa: $rsp 8 +
STACK CFI 4ba90 .cfa: $rsp 224 +
STACK CFI INIT 4bbb0 339 .cfa: $rsp 8 + .ra: .cfa -8 + ^
STACK CFI 4bbb2 $r12: .cfa -16 + ^ .cfa: $rsp 16 +
STACK CFI 4bbb3 $rbp: .cfa -24 + ^ .cfa: $rsp 24 +
STACK CFI 4bbb4 $rbx: .cfa -32 + ^ .cfa: $rsp 32 +
STACK CFI 4bbbb .cfa: $rsp 192 +
STACK CFI 4bc4e .cfa: $rsp 32 +
STACK CFI 4bc4f .cfa: $rsp 24 +
STACK CFI 4bc50 .cfa: $rsp 16 +
STACK CFI 4bc52 .cfa: $rsp 8 +
STACK CFI 4bc58 .cfa: $rsp 192 +
STACK CFI INIT 4bef0 2b6 .cfa: $rsp 8 + .ra: .cfa -8 + ^
STACK CFI 4bef2 $r13: .cfa -16 + ^ .cfa: $rsp 16 +
STACK CFI 4bef4 $r12: .cfa -24 + ^ .cfa: $rsp 24 +
STACK CFI 4bef8 $rbp: .cfa -32 + ^ .cfa: $rsp 32 +
STACK CFI 4bef9 $rbx: .cfa -40 + ^ .cfa: $rsp 40 +
STACK CFI 4bf0b .cfa: $rsp 144 +
STACK CFI 4bff1 .cfa: $rsp 40 +
STACK CFI 4bff2 .cfa: $rsp 32 +
STACK CFI 4bff3 .cfa: $rsp 24 +
STACK CFI 4bff5 .cfa: $rsp 16 +
STACK CFI 4bff7 .cfa: $rsp 8 +
STACK CFI 4c000 .cfa: $rsp 144 +
STACK CFI INIT 4c1b0 bb .cfa: $rsp 8 + .ra: .cfa -8 + ^
STACK CFI 4c1b1 $rbp: .cfa -16 + ^ .cfa: $rsp 16 +
STACK CFI 4c1b2 $rbx: .cfa -24 + ^ .cfa: $rsp 24 +
STACK CFI 4c1c1 .cfa: $rsp 192 +
STACK CFI 4c22a .cfa: $rsp 24 +
STACK CFI 4c22b .cfa: $rsp 16 +
STACK CFI 4c22c .cfa: $rsp 8 +
STACK CFI 4c230 .cfa: $rsp 192 +
STACK CFI INIT 4c270 da .cfa: $rsp 8 + .ra: .cfa -8 + ^
STACK CFI 4c274 .cfa: $rsp 64 +
STACK CFI 4c2dd .cfa: $rsp 8 +
STACK CFI 4c2e0 .cfa: $rsp 64 +
STACK CFI INIT 51fa0 f8 .cfa: $rsp 8 + .ra: .cfa -8 + ^
STACK CFI 51fa2 $r14: .cfa -16 + ^ .cfa: $rsp 16 +
STACK CFI 51fa4 $r13: .cfa -24 + ^ .cfa: $rsp 24 +
STACK CFI 51fa6 $r12: .cfa -32 + ^ .cfa: $rsp 32 +
STACK CFI 51fa7 $rbp: .cfa -40 + ^ .cfa: $rsp 40 +
STACK CFI 51fa8 $rbx: .cfa -48 + ^ .cfa: $rsp 48 +
STACK CFI 51fac .cfa: $rsp 128 +
STACK CFI 51fdd .cfa: $rsp 48 +
STACK CFI 51fde .cfa: $rsp 40 +
STACK CFI 51fdf .cfa: $rsp 32 +
STACK CFI 51fe1 .cfa: $rsp 24 +
STACK CFI 51fe3 .cfa: $rsp 16 +
STACK CFI 51fe5 .cfa: $rsp 8 +
STACK CFI 51ff0 .cfa: $rsp 128 +
STACK CFI INIT 4c350 317 .cfa: $rsp 8 + .ra: .cfa -8 + ^
STACK CFI 4c352 $r15: .cfa -16 + ^ .cfa: $rsp 16 +
STACK CFI 4c354 $r14: .cfa -24 + ^ .cfa: $rsp 24 +
STACK CFI 4c359 $r13: .cfa -32 + ^ .cfa: $rsp 32 +
STACK CFI 4c35b $r12: .cfa -40 + ^ .cfa: $rsp 40 +
STACK CFI 4c35f $rbp: .cfa -48 + ^ .cfa: $rsp 48 +
STACK CFI 4c360 $rbx: .cfa -56 + ^ .cfa: $rsp 56 +
STACK CFI 4c369 .cfa: $rsp 160 +
STACK CFI 4c4d0 .cfa: $rsp 56 +
STACK CFI 4c4d1 .cfa: $rsp 48 +
STACK CFI 4c4d2 .cfa: $rsp 40 +
STACK CFI 4c4d4 .cfa: $rsp 32 +
STACK CFI 4c4d6 .cfa: $rsp 24 +
STACK CFI 4c4d8 .cfa: $rsp 16 +
STACK CFI 4c4da .cfa: $rsp 8 +
STACK CFI 4c4e0 .cfa: $rsp 160 +
STACK CFI INIT 4c670 433 .cfa: $rsp 8 + .ra: .cfa -8 + ^
STACK CFI 4c672 $r15: .cfa -16 + ^ .cfa: $rsp 16 +
STACK CFI 4c674 $r14: .cfa -24 + ^ .cfa: $rsp 24 +
STACK CFI 4c676 $r13: .cfa -32 + ^ .cfa: $rsp 32 +
STACK CFI 4c678 $r12: .cfa -40 + ^ .cfa: $rsp 40 +
STACK CFI 4c67c $rbp: .cfa -48 + ^ .cfa: $rsp 48 +
STACK CFI 4c67d $rbx: .cfa -56 + ^ .cfa: $rsp 56 +
STACK CFI 4c689 .cfa: $rsp 208 +
STACK CFI 4c71d .cfa: $rsp 216 +
STACK CFI 4c73a .cfa: $rsp 224 +
STACK CFI 4c75f .cfa: $rsp 216 +
STACK CFI 4c760 .cfa: $rsp 208 +
STACK CFI 4c873 .cfa: $rsp 56 +
STACK CFI 4c874 .cfa: $rsp 48 +
STACK CFI 4c875 .cfa: $rsp 40 +
STACK CFI 4c877 .cfa: $rsp 32 +
STACK CFI 4c879 .cfa: $rsp 24 +
STACK CFI 4c87b .cfa: $rsp 16 +
STACK CFI 4c87d .cfa: $rsp 8 +
STACK CFI 4c880 .cfa: $rsp 208 +
STACK CFI INIT 4cab0 1f6 .cfa: $rsp 8 + .ra: .cfa -8 + ^
STACK CFI 4cab4 .cfa: $rsp 48 +
STACK CFI 4caf0 .cfa: $rsp 8 +
STACK CFI 4caf8 .cfa: $rsp 48 +
STACK CFI INIT 4ccb0 521 .cfa: $rsp 8 + .ra: .cfa -8 + ^
STACK CFI 4ccb2 $r15: .cfa -16 + ^ .cfa: $rsp 16 +
STACK CFI 4ccb4 $r14: .cfa -24 + ^ .cfa: $rsp 24 +
STACK CFI 4ccbd $r13: .cfa -32 + ^ .cfa: $rsp 32 +
STACK CFI 4ccbf $r12: .cfa -40 + ^ .cfa: $rsp 40 +
STACK CFI 4ccc5 $rbp: .cfa -48 + ^ .cfa: $rsp 48 +
STACK CFI 4ccc6 $rbx: .cfa -56 + ^ .cfa: $rsp 56 +
STACK CFI 4ccd3 .cfa: $rsp 176 +
STACK CFI 4cd5d .cfa: $rsp 56 +
STACK CFI 4cd5e .cfa: $rsp 48 +
STACK CFI 4cd5f .cfa: $rsp 40 +
STACK CFI 4cd61 .cfa: $rsp 32 +
STACK CFI 4cd63 .cfa: $rsp 24 +
STACK CFI 4cd65 .cfa: $rsp 16 +
STACK CFI 4cd67 .cfa: $rsp 8 +
STACK CFI 4cd70 .cfa: $rsp 176 +
STACK CFI INIT 4d1e0 7e1 .cfa: $rsp 8 + .ra: .cfa -8 + ^
STACK CFI 4d1e2 $r15: .cfa -16 + ^ .cfa: $rsp 16 +
STACK CFI 4d1e4 $r14: .cfa -24 + ^ .cfa: $rsp 24 +
STACK CFI 4d1e9 $r13: .cfa -32 + ^ .cfa: $rsp 32 +
STACK CFI 4d1eb $r12: .cfa -40 + ^ .cfa: $rsp 40 +
STACK CFI 4d1f3 $rbp: .cfa -48 + ^ .cfa: $rsp 48 +
STACK CFI 4d1f4 $rbx: .cfa -56 + ^ .cfa: $rsp 56 +
STACK CFI 4d204 .cfa: $rsp 160 +
STACK CFI 4d4f5 .cfa: $rsp 56 +
STACK CFI 4d4f6 .cfa: $rsp 48 +
STACK CFI 4d4f7 .cfa: $rsp 40 +
STACK CFI 4d4f9 .cfa: $rsp 32 +
STACK CFI 4d4fb .cfa: $rsp 24 +
STACK CFI 4d4fd .cfa: $rsp 16 +
STACK CFI 4d4ff .cfa: $rsp 8 +
STACK CFI 4d500 .cfa: $rsp 160 +
STACK CFI INIT 4d9d0 25 .cfa: $rsp 8 + .ra: .cfa -8 + ^
STACK CFI 4d9d4 .cfa: $rsp 16 +
STACK CFI 4d9f0 .cfa: $rsp 8 +
STACK CFI INIT 4da00 17 .cfa: $rsp 8 + .ra: .cfa -8 + ^
STACK CFI INIT 4da20 a .cfa: $rsp 8 + .ra: .cfa -8 + ^
STACK CFI INIT 520a0 3a4 .cfa: $rsp 8 + .ra: .cfa -8 + ^
STACK CFI 520a2 $r15: .cfa -16 + ^ .cfa: $rsp 16 +
STACK CFI 520a4 $r14: .cfa -24 + ^ .cfa: $rsp 24 +
STACK CFI 520a9 $r13: .cfa -32 + ^ .cfa: $rsp 32 +
STACK CFI 520ab $r12: .cfa -40 + ^ .cfa: $rsp 40 +
STACK CFI 520af $rbp: .cfa -48 + ^ .cfa: $rsp 48 +
STACK CFI 520b0 $rbx: .cfa -56 + ^ .cfa: $rsp 56 +
STACK CFI 520b9 .cfa: $rsp 544 +
STACK CFI 52364 .cfa: $rsp 56 +
STACK CFI 52365 .cfa: $rsp 48 +
STACK CFI 52366 .cfa: $rsp 40 +
STACK CFI 52368 .cfa: $rsp 32 +
STACK CFI 5236a .cfa: $rsp 24 +
STACK CFI 5236c .cfa: $rsp 16 +
STACK CFI 5236e .cfa: $rsp 8 +
STACK CFI 52370 .cfa: $rsp 544 +
STACK CFI INIT 52450 6e .cfa: $rsp 8 + .ra: .cfa -8 + ^
STACK CFI 52454 .cfa: $rsp 32 +
STACK CFI 5248c .cfa: $rsp 8 +
STACK CFI 52490 .cfa: $rsp 32 +
STACK CFI INIT 1b120 2e .cfa: $rsp 8 + .ra: .cfa -8 + ^
STACK CFI 1b12b .cfa: $rsp 16 +
STACK CFI 1b149 .cfa: $rsp 8 +
STACK CFI INIT 524c0 53 .cfa: $rsp 8 + .ra: .cfa -8 + ^
STACK CFI INIT 52520 8d .cfa: $rsp 8 + .ra: .cfa -8 + ^
STACK CFI 52521 $rbp: .cfa -16 + ^ .cfa: $rsp 16 +
STACK CFI 52522 $rbx: .cfa -24 + ^ .cfa: $rsp 24 +
STACK CFI 52529 .cfa: $rsp 32 +
STACK CFI 52594 .cfa: $rsp 24 +
STACK CFI 52598 .cfa: $rsp 16 +
STACK CFI 52599 .cfa: $rsp 8 +
STACK CFI 525a0 .cfa: $rsp 32 +
STACK CFI 525a4 .cfa: $rsp 24 +
STACK CFI 525a7 .cfa: $rsp 16 +
STACK CFI 525a8 .cfa: $rsp 8 +
STACK CFI 525a9 .cfa: $rsp 32 +
STACK CFI INIT 525b0 5c .cfa: $rsp 8 + .ra: .cfa -8 + ^
STACK CFI INIT 52610 1e .cfa: $rsp 8 + .ra: .cfa -8 + ^
STACK CFI 52611 $rbx: .cfa -16 + ^ .cfa: $rsp 16 +
STACK CFI 52629 .cfa: $rsp 8 +
STACK CFI INIT 52630 69 .cfa: $rsp 8 + .ra: .cfa -8 + ^
STACK CFI 52631 $rbp: .cfa -16 + ^ .cfa: $rsp 16 +
STACK CFI 52632 $rbx: .cfa -24 + ^ .cfa: $rsp 24 +
STACK CFI 52639 .cfa: $rsp 32 +
STACK CFI 5268f .cfa: $rsp 24 +
STACK CFI 52693 .cfa: $rsp 16 +
STACK CFI 52694 .cfa: $rsp 8 +
STACK CFI INIT 526a0 50 .cfa: $rsp 8 + .ra: .cfa -8 + ^
STACK CFI 526a2 $r12: .cfa -16 + ^ .cfa: $rsp 16 +
STACK CFI 526a3 $rbp: .cfa -24 + ^ .cfa: $rsp 24 +
STACK CFI 526a7 $rbx: .cfa -32 + ^ .cfa: $rsp 32 +
STACK CFI 526ec .cfa: $rsp 24 +
STACK CFI 526ed .cfa: $rsp 16 +
STACK CFI 526ef .cfa: $rsp 8 +
STACK CFI INIT 526f0 3f .cfa: $rsp 8 + .ra: .cfa -8 + ^
STACK CFI 526f1 $rbx: .cfa -16 + ^ .cfa: $rsp 16 +
STACK CFI 5270c .cfa: $rsp 8 +
STACK CFI 52710 .cfa: $rsp 16 +
STACK CFI 52714 .cfa: $rsp 8 +
STACK CFI 52718 .cfa: $rsp 16 +
STACK CFI INIT 52730 50 .cfa: $rsp 8 + .ra: .cfa -8 + ^
STACK CFI 52731 $rbx: .cfa -16 + ^ .cfa: $rsp 16 +
STACK CFI 52750 .cfa: $rsp 8 +
STACK CFI 52758 .cfa: $rsp 16 +
STACK CFI INIT 52780 106 .cfa: $rsp 8 + .ra: .cfa -8 + ^
STACK CFI INIT 52890 4b .cfa: $rsp 8 + .ra: .cfa -8 + ^
STACK CFI 52891 $rbx: .cfa -16 + ^ .cfa: $rsp 16 +
STACK CFI 528c9 .cfa: $rsp 8 +
STACK CFI 528ca .cfa: $rsp 16 +
STACK CFI INIT 528e0 b8 .cfa: $rsp 8 + .ra: .cfa -8 + ^
STACK CFI 528e1 $rbx: .cfa -16 + ^ .cfa: $rsp 16 +
STACK CFI 528eb .cfa: $rsp 1104 +
STACK CFI 52991 .cfa: $rsp 16 +
STACK CFI 52992 .cfa: $rsp 8 +
STACK CFI 52993 .cfa: $rsp 1104 +
STACK CFI INIT 529a0 c2 .cfa: $rsp 8 + .ra: .cfa -8 + ^
STACK CFI 529a2 $r12: .cfa -16 + ^ .cfa: $rsp 16 +
STACK CFI 529a3 $rbp: .cfa -24 + ^ .cfa: $rsp 24 +
STACK CFI 529a7 $rbx: .cfa -32 + ^ .cfa: $rsp 32 +
STACK CFI 529ae .cfa: $rsp 48 +
STACK CFI 52a1a .cfa: $rsp 32 +
STACK CFI 52a1b .cfa: $rsp 24 +
STACK CFI 52a1c .cfa: $rsp 16 +
STACK CFI 52a1e .cfa: $rsp 8 +
STACK CFI 52a20 .cfa: $rsp 48 +
STACK CFI INIT 52a70 13b .cfa: $rsp 8 + .ra: .cfa -8 + ^
STACK CFI 52a72 $r15: .cfa -16 + ^ .cfa: $rsp 16 +
STACK CFI 52a74 $r14: .cfa -24 + ^ .cfa: $rsp 24 +
STACK CFI 52a79 $r13: .cfa -32 + ^ .cfa: $rsp 32 +
STACK CFI 52a7b $r12: .cfa -40 + ^ .cfa: $rsp 40 +
STACK CFI 52a7c $rbp: .cfa -48 + ^ .cfa: $rsp 48 +
STACK CFI 52a7d $rbx: .cfa -56 + ^ .cfa: $rsp 56 +
STACK CFI 52a81 .cfa: $rsp 80 +
STACK CFI 52b4f .cfa: $rsp 56 +
STACK CFI 52b50 .cfa: $rsp 48 +
STACK CFI 52b51 .cfa: $rsp 40 +
STACK CFI 52b53 .cfa: $rsp 32 +
STACK CFI 52b55 .cfa: $rsp 24 +
STACK CFI 52b57 .cfa: $rsp 16 +
STACK CFI 52b59 .cfa: $rsp 8 +
STACK CFI 52b60 .cfa: $rsp 80 +
STACK CFI INIT 52bb0 c1 .cfa: $rsp 8 + .ra: .cfa -8 + ^
STACK CFI 52bb2 $r13: .cfa -16 + ^ .cfa: $rsp 16 +
STACK CFI 52bb4 $r12: .cfa -24 + ^ .cfa: $rsp 24 +
STACK CFI 52bb8 $rbp: .cfa -32 + ^ .cfa: $rsp 32 +
STACK CFI 52bbc $rbx: .cfa -40 + ^ .cfa: $rsp 40 +
STACK CFI 52bcc .cfa: $rsp 48 +
STACK CFI 52c67 .cfa: $rsp 40 +
STACK CFI 52c6b .cfa: $rsp 32 +
STACK CFI 52c6c .cfa: $rsp 24 +
STACK CFI 52c6e .cfa: $rsp 16 +
STACK CFI 52c70 .cfa: $rsp 8 +
STACK CFI INIT 52c80 111 .cfa: $rsp 8 + .ra: .cfa -8 + ^
STACK CFI 52c82 $r13: .cfa -16 + ^ .cfa: $rsp 16 +
STACK CFI 52c84 $r12: .cfa -24 + ^ .cfa: $rsp 24 +
STACK CFI 52c88 $rbp: .cfa -32 + ^ .cfa: $rsp 32 +
STACK CFI 52c89 $rbx: .cfa -40 + ^ .cfa: $rsp 40 +
STACK CFI 52c8d .cfa: $rsp 64 +
STACK CFI 52d7a .cfa: $rsp 40 +
STACK CFI 52d7b .cfa: $rsp 32 +
STACK CFI 52d7c .cfa: $rsp 24 +
STACK CFI 52d7e .cfa: $rsp 16 +
STACK CFI 52d80 .cfa: $rsp 8 +
STACK CFI 52d88 .cfa: $rsp 64 +
STACK CFI INIT 57f10 9e .cfa: $rsp 8 + .ra: .cfa -8 + ^
STACK CFI 57f66 $rbp: .cfa -16 + ^ .cfa: $rsp 16 +
STACK CFI 57f67 $rbx: .cfa -24 + ^ .cfa: $rsp 24 +
STACK CFI 57f74 .cfa: $rsp 32 +
STACK CFI 57f7d .cfa: $rsp 24 +
STACK CFI 57f84 $rbx: $rbx .cfa: $rsp 16 +
STACK CFI 57f85 $rbp: $rbp .cfa: $rsp 8 +
STACK CFI INIT 57fb0 8d .cfa: $rsp 8 + .ra: .cfa -8 + ^
STACK CFI 57fb1 $rbp: .cfa -16 + ^ .cfa: $rsp 16 +
STACK CFI 57fb2 $rbx: .cfa -24 + ^ .cfa: $rsp 24 +
STACK CFI 57fc4 .cfa: $rsp 80 +
STACK CFI 58018 .cfa: $rsp 24 +
STACK CFI 58019 .cfa: $rsp 16 +
STACK CFI 5801a .cfa: $rsp 8 +
STACK CFI 5801b .cfa: $rsp 80 +
STACK CFI INIT 52da0 235 .cfa: $rsp 8 + .ra: .cfa -8 + ^
STACK CFI 52da2 $r15: .cfa -16 + ^ .cfa: $rsp 16 +
STACK CFI 52da4 $r14: .cfa -24 + ^ .cfa: $rsp 24 +
STACK CFI 52dad $r13: .cfa -32 + ^ .cfa: $rsp 32 +
STACK CFI 52daf $r12: .cfa -40 + ^ .cfa: $rsp 40 +
STACK CFI 52db6 $rbp: .cfa -48 + ^ .cfa: $rsp 48 +
STACK CFI 52db7 $rbx: .cfa -56 + ^ .cfa: $rsp 56 +
STACK CFI 52dbb .cfa: $rsp 64 +
STACK CFI 52fb6 .cfa: $rsp 56 +
STACK CFI 52fba .cfa: $rsp 48 +
STACK CFI 52fbb .cfa: $rsp 40 +
STACK CFI 52fbd .cfa: $rsp 32 +
STACK CFI 52fbf .cfa: $rsp 24 +
STACK CFI 52fc1 .cfa: $rsp 16 +
STACK CFI 52fc3 .cfa: $rsp 8 +
STACK CFI 52fc4 .cfa: $rsp 64 +
STACK CFI 52fc8 .cfa: $rsp 56 +
STACK CFI 52fcb .cfa: $rsp 48 +
STACK CFI 52fcc .cfa: $rsp 40 +
STACK CFI 52fce .cfa: $rsp 32 +
STACK CFI 52fd0 .cfa: $rsp 24 +
STACK CFI 52fd2 .cfa: $rsp 16 +
STACK CFI 52fd4 .cfa: $rsp 8 +
STACK CFI INIT 52fe0 142 .cfa: $rsp 8 + .ra: .cfa -8 + ^
STACK CFI 52ff0 $r13: .cfa -16 + ^ .cfa: $rsp 16 +
STACK CFI 52ff9 $r12: .cfa -24 + ^ .cfa: $rsp 24 +
STACK CFI 52ffa $rbp: .cfa -32 + ^ .cfa: $rsp 32 +
STACK CFI 52ffb $rbx: .cfa -40 + ^ .cfa: $rsp 40 +
STACK CFI 53002 .cfa: $rsp 48 +
STACK CFI 5311a .cfa: $rsp 40 +
STACK CFI 5311b $rbx: $rbx .cfa: $rsp 32 +
STACK CFI 5311c $rbp: $rbp .cfa: $rsp 24 +
STACK CFI 5311e $r12: $r12 .cfa: $rsp 16 +
STACK CFI 53120 $r13: $r13 .cfa: $rsp 8 +
STACK CFI INIT 53130 73 .cfa: $rsp 8 + .ra: .cfa -8 + ^
STACK CFI 5313c $r12: .cfa -16 + ^ .cfa: $rsp 16 +
STACK CFI 5313d $rbp: .cfa -24 + ^ .cfa: $rsp 24 +
STACK CFI 53145 $rbx: .cfa -32 + ^ .cfa: $rsp 32 +
STACK CFI 53181 $rbx: $rbx .cfa: $rsp 24 +
STACK CFI 53182 $rbp: $rbp .cfa: $rsp 16 +
STACK CFI 53184 $r12: $r12 .cfa: $rsp 8 +
STACK CFI 53190 $r12: .cfa -16 + ^ $rbp: .cfa -24 + ^ $rbx: .cfa -32 + ^ .cfa: $rsp 32 +
STACK CFI 5319e $rbx: $rbx .cfa: $rsp 24 +
STACK CFI 5319f $rbp: $rbp .cfa: $rsp 16 +
STACK CFI 531a1 $r12: $r12 .cfa: $rsp 8 +
STACK CFI INIT 58040 d10 .cfa: $rsp 8 + .ra: .cfa -8 + ^
STACK CFI 58041 $rbp: .cfa -16 + ^ .cfa: $rsp 16 +
STACK CFI 58044 .cfa: $rbp 16 +
STACK CFI 5804c $r12: .cfa -48 + ^ $r13: .cfa -40 + ^ $r14: .cfa -32 + ^ $r15: .cfa -24 + ^
STACK CFI 58057 $rbx: .cfa -56 + ^
STACK CFI 580a5 .cfa: $rsp 8 +
STACK CFI 580a6 .cfa: $rbp 16 +
STACK CFI INIT 531b0 117 .cfa: $rsp 8 + .ra: .cfa -8 + ^
STACK CFI 531b1 $rbp: .cfa -16 + ^ .cfa: $rsp 16 +
STACK CFI 531b2 $rbx: .cfa -24 + ^ .cfa: $rsp 24 +
STACK CFI 531bc .cfa: $rsp 1280 +
STACK CFI 532bf .cfa: $rsp 24 +
STACK CFI 532c0 .cfa: $rsp 16 +
STACK CFI 532c1 .cfa: $rsp 8 +
STACK CFI 532c2 .cfa: $rsp 1280 +
STACK CFI INIT 532d0 bcc .cfa: $rsp 8 + .ra: .cfa -8 + ^
STACK CFI 532d2 $r15: .cfa -16 + ^ .cfa: $rsp 16 +
STACK CFI 532d4 $r14: .cfa -24 + ^ .cfa: $rsp 24 +
STACK CFI 532d9 $r13: .cfa -32 + ^ .cfa: $rsp 32 +
STACK CFI 532db $r12: .cfa -40 + ^ .cfa: $rsp 40 +
STACK CFI 532df $rbp: .cfa -48 + ^ .cfa: $rsp 48 +
STACK CFI 532e0 $rbx: .cfa -56 + ^ .cfa: $rsp 56 +
STACK CFI 532ea .cfa: $rsp 4768 +
STACK CFI 53444 .cfa: $rsp 56 +
STACK CFI 53445 .cfa: $rsp 48 +
STACK CFI 53446 .cfa: $rsp 40 +
STACK CFI 53448 .cfa: $rsp 32 +
STACK CFI 5344a .cfa: $rsp 24 +
STACK CFI 5344c .cfa: $rsp 16 +
STACK CFI 5344e .cfa: $rsp 8 +
STACK CFI 53450 .cfa: $rsp 4768 +
STACK CFI INIT 53ea0 19 .cfa: $rsp 8 + .ra: .cfa -8 + ^
STACK CFI 53eab .cfa: $rsp 16 +
STACK CFI 53eb8 .cfa: $rsp 8 +
STACK CFI INIT 53ec0 78 .cfa: $rsp 8 + .ra: .cfa -8 + ^
STACK CFI 53ec2 $r12: .cfa -16 + ^ .cfa: $rsp 16 +
STACK CFI 53ec3 $rbp: .cfa -24 + ^ .cfa: $rsp 24 +
STACK CFI 53ec7 $rbx: .cfa -32 + ^ .cfa: $rsp 32 +
STACK CFI 53efc .cfa: $rsp 24 +
STACK CFI 53f0a .cfa: $rsp 16 +
STACK CFI 53f0c .cfa: $rsp 8 +
STACK CFI 53f18 .cfa: $rsp 32 +
STACK CFI 53f30 .cfa: $rsp 24 +
STACK CFI 53f31 .cfa: $rsp 16 +
STACK CFI 53f33 .cfa: $rsp 8 +
STACK CFI 53f34 .cfa: $rsp 32 +
STACK CFI INIT 53f40 68 .cfa: $rsp 8 + .ra: .cfa -8 + ^
STACK CFI 53f41 $rbp: .cfa -16 + ^ .cfa: $rsp 16 +
STACK CFI 53f42 $rbx: .cfa -24 + ^ .cfa: $rsp 24 +
STACK CFI 53f49 .cfa: $rsp 48 +
STACK CFI 53f88 .cfa: $rsp 24 +
STACK CFI 53f89 .cfa: $rsp 16 +
STACK CFI 53f8a .cfa: $rsp 8 +
STACK CFI 53f90 .cfa: $rsp 48 +
STACK CFI INIT 53fb0 a2 .cfa: $rsp 8 + .ra: .cfa -8 + ^
STACK CFI 53fb1 $rbp: .cfa -16 + ^ .cfa: $rsp 16 +
STACK CFI 53fb2 $rbx: .cfa -24 + ^ .cfa: $rsp 24 +
STACK CFI 53fb9 .cfa: $rsp 48 +
STACK CFI 54015 .cfa: $rsp 24 +
STACK CFI 54016 .cfa: $rsp 16 +
STACK CFI 54017 .cfa: $rsp 8 +
STACK CFI 54020 .cfa: $rsp 48 +
STACK CFI INIT 54060 128 .cfa: $rsp 8 + .ra: .cfa -8 + ^
STACK CFI 54061 $rbp: .cfa -16 + ^ .cfa: $rsp 16 +
STACK CFI 54062 $rbx: .cfa -24 + ^ .cfa: $rsp 24 +
STACK CFI 5406c .cfa: $rsp 1280 +
STACK CFI 5410a .cfa: $rsp 24 +
STACK CFI 5410b .cfa: $rsp 16 +
STACK CFI 5410c .cfa: $rsp 8 +
STACK CFI 54110 .cfa: $rsp 1280 +
STACK CFI INIT 54190 122 .cfa: $rsp 8 + .ra: .cfa -8 + ^
STACK CFI 54191 $rbp: .cfa -16 + ^ .cfa: $rsp 16 +
STACK CFI 54192 $rbx: .cfa -24 + ^ .cfa: $rsp 24 +
STACK CFI 5419c .cfa: $rsp 1280 +
STACK CFI 54236 .cfa: $rsp 24 +
STACK CFI 54237 .cfa: $rsp 16 +
STACK CFI 54238 .cfa: $rsp 8 +
STACK CFI 54240 .cfa: $rsp 1280 +
STACK CFI INIT 542c0 3c4 .cfa: $rsp 8 + .ra: .cfa -8 + ^
STACK CFI 542c2 $r15: .cfa -16 + ^ .cfa: $rsp 16 +
STACK CFI 542c4 $r14: .cfa -24 + ^ .cfa: $rsp 24 +
STACK CFI 542c8 $r13: .cfa -32 + ^ .cfa: $rsp 32 +
STACK CFI 542ca $r12: .cfa -40 + ^ .cfa: $rsp 40 +
STACK CFI 542ce $rbp: .cfa -48 + ^ .cfa: $rsp 48 +
STACK CFI 542cf $rbx: .cfa -56 + ^ .cfa: $rsp 56 +
STACK CFI 542e6 .cfa: $rsp 80 +
STACK CFI 543f6 .cfa: $rsp 56 +
STACK CFI 543f9 .cfa: $rsp 48 +
STACK CFI 543fa .cfa: $rsp 40 +
STACK CFI 543fc .cfa: $rsp 32 +
STACK CFI 543fe .cfa: $rsp 24 +
STACK CFI 54400 .cfa: $rsp 16 +
STACK CFI 54402 .cfa: $rsp 8 +
STACK CFI 54408 .cfa: $rsp 80 +
STACK CFI 544a1 .cfa: $rsp 56 +
STACK CFI 544a2 .cfa: $rsp 48 +
STACK CFI 544a8 .cfa: $rsp 40 +
STACK CFI 544aa .cfa: $rsp 32 +
STACK CFI 544ac .cfa: $rsp 24 +
STACK CFI 544ae .cfa: $rsp 16 +
STACK CFI 544b0 .cfa: $rsp 8 +
STACK CFI 544b8 .cfa: $rsp 80 +
STACK CFI 544d6 .cfa: $rsp 56 +
STACK CFI 544d9 .cfa: $rsp 48 +
STACK CFI 544da .cfa: $rsp 40 +
STACK CFI 544dc .cfa: $rsp 32 +
STACK CFI 544de .cfa: $rsp 24 +
STACK CFI 544e0 .cfa: $rsp 16 +
STACK CFI 544e2 .cfa: $rsp 8 +
STACK CFI 544e8 .cfa: $rsp 80 +
STACK CFI 54509 .cfa: $rsp 56 +
STACK CFI 5450c .cfa: $rsp 48 +
STACK CFI 5450d .cfa: $rsp 40 +
STACK CFI 5450f .cfa: $rsp 32 +
STACK CFI 54511 .cfa: $rsp 24 +
STACK CFI 54513 .cfa: $rsp 16 +
STACK CFI 54515 .cfa: $rsp 8 +
STACK CFI 54516 .cfa: $rsp 80 +
STACK CFI INIT 54690 b1a .cfa: $rsp 8 + .ra: .cfa -8 + ^
STACK CFI 54692 $r15: .cfa -16 + ^ .cfa: $rsp 16 +
STACK CFI 54694 $r14: .cfa -24 + ^ .cfa: $rsp 24 +
STACK CFI 54696 $r13: .cfa -32 + ^ .cfa: $rsp 32 +
STACK CFI 54698 $r12: .cfa -40 + ^ .cfa: $rsp 40 +
STACK CFI 54699 $rbp: .cfa -48 + ^ .cfa: $rsp 48 +
STACK CFI 5469a $rbx: .cfa -56 + ^ .cfa: $rsp 56 +
STACK CFI 546a4 .cfa: $rsp 128 +
STACK CFI 54a47 .cfa: $rsp 56 +
STACK CFI 54a48 .cfa: $rsp 48 +
STACK CFI 54a49 .cfa: $rsp 40 +
STACK CFI 54a4b .cfa: $rsp 32 +
STACK CFI 54a4d .cfa: $rsp 24 +
STACK CFI 54a4f .cfa: $rsp 16 +
STACK CFI 54a51 .cfa: $rsp 8 +
STACK CFI 54a58 .cfa: $rsp 128 +
STACK CFI INIT 551b0 82 .cfa: $rsp 8 + .ra: .cfa -8 + ^
STACK CFI 551b2 $r12: .cfa -16 + ^ .cfa: $rsp 16 +
STACK CFI 551b6 $rbp: .cfa -24 + ^ .cfa: $rsp 24 +
STACK CFI 551ba $rbx: .cfa -32 + ^ .cfa: $rsp 32 +
STACK CFI 551fa .cfa: $rsp 24 +
STACK CFI 551fb .cfa: $rsp 16 +
STACK CFI 551fd .cfa: $rsp 8 +
STACK CFI 55200 .cfa: $rsp 32 +
STACK CFI 55220 .cfa: $rsp 24 +
STACK CFI 55221 .cfa: $rsp 16 +
STACK CFI 55223 .cfa: $rsp 8 +
STACK CFI 55228 .cfa: $rsp 32 +
STACK CFI 55229 .cfa: $rsp 24 +
STACK CFI 5522f .cfa: $rsp 16 +
STACK CFI 55231 .cfa: $rsp 8 +
STACK CFI INIT 55240 66 .cfa: $rsp 8 + .ra: .cfa -8 + ^
STACK CFI 55241 $rbp: .cfa -16 + ^ .cfa: $rsp 16 +
STACK CFI 55242 $rbx: .cfa -24 + ^ .cfa: $rsp 24 +
STACK CFI 55253 .cfa: $rsp 1120 +
STACK CFI 5529e .cfa: $rsp 24 +
STACK CFI 5529f .cfa: $rsp 16 +
STACK CFI 552a0 .cfa: $rsp 8 +
STACK CFI 552a1 .cfa: $rsp 1120 +
STACK CFI INIT 552b0 1b4 .cfa: $rsp 8 + .ra: .cfa -8 + ^
STACK CFI 552b2 $r14: .cfa -16 + ^ .cfa: $rsp 16 +
STACK CFI 552b4 $r13: .cfa -24 + ^ .cfa: $rsp 24 +
STACK CFI 552b6 $r12: .cfa -32 + ^ .cfa: $rsp 32 +
STACK CFI 552b7 $rbp: .cfa -40 + ^ .cfa: $rsp 40 +
STACK CFI 552bb $rbx: .cfa -48 + ^ .cfa: $rsp 48 +
STACK CFI 552c2 .cfa: $rsp 1136 +
STACK CFI 55401 .cfa: $rsp 48 +
STACK CFI 55402 .cfa: $rsp 40 +
STACK CFI 55403 .cfa: $rsp 32 +
STACK CFI 55405 .cfa: $rsp 24 +
STACK CFI 55407 .cfa: $rsp 16 +
STACK CFI 55409 .cfa: $rsp 8 +
STACK CFI 55410 .cfa: $rsp 1136 +
STACK CFI INIT 55470 15 .cfa: $rsp 8 + .ra: .cfa -8 + ^
STACK CFI INIT 55490 f2 .cfa: $rsp 8 + .ra: .cfa -8 + ^
STACK CFI 55492 $r13: .cfa -16 + ^ .cfa: $rsp 16 +
STACK CFI 55494 $r12: .cfa -24 + ^ .cfa: $rsp 24 +
STACK CFI 55498 $rbp: .cfa -32 + ^ .cfa: $rsp 32 +
STACK CFI 55499 $rbx: .cfa -40 + ^ .cfa: $rsp 40 +
STACK CFI 554a3 .cfa: $rsp 1136 +
STACK CFI 5551f .cfa: $rsp 40 +
STACK CFI 55520 .cfa: $rsp 32 +
STACK CFI 55521 .cfa: $rsp 24 +
STACK CFI 55523 .cfa: $rsp 16 +
STACK CFI 55525 .cfa: $rsp 8 +
STACK CFI 55530 .cfa: $rsp 1136 +
STACK CFI INIT 55590 a .cfa: $rsp 8 + .ra: .cfa -8 + ^
STACK CFI INIT 555a0 a .cfa: $rsp 8 + .ra: .cfa -8 + ^
STACK CFI INIT 555b0 63 .cfa: $rsp 8 + .ra: .cfa -8 + ^
STACK CFI 555b1 $rbp: .cfa -16 + ^ .cfa: $rsp 16 +
STACK CFI 555b2 $rbx: .cfa -24 + ^ .cfa: $rsp 24 +
STACK CFI 555bc .cfa: $rsp 1120 +
STACK CFI 55609 .cfa: $rsp 24 +
STACK CFI 5560c .cfa: $rsp 16 +
STACK CFI 5560d .cfa: $rsp 8 +
STACK CFI 5560e .cfa: $rsp 1120 +
STACK CFI INIT 55620 200 .cfa: $rsp 8 + .ra: .cfa -8 + ^
STACK CFI 55622 $r12: .cfa -16 + ^ .cfa: $rsp 16 +
STACK CFI 55623 $rbp: .cfa -24 + ^ .cfa: $rsp 24 +
STACK CFI 55624 $rbx: .cfa -32 + ^ .cfa: $rsp 32 +
STACK CFI 5562e .cfa: $rsp 1200 +
STACK CFI 556a9 .cfa: $rsp 32 +
STACK CFI 556aa .cfa: $rsp 24 +
STACK CFI 556ab .cfa: $rsp 16 +
STACK CFI 556ad .cfa: $rsp 8 +
STACK CFI 556b0 .cfa: $rsp 1200 +
STACK CFI INIT 55820 15 .cfa: $rsp 8 + .ra: .cfa -8 + ^
STACK CFI INIT 55840 905 .cfa: $rsp 8 + .ra: .cfa -8 + ^
STACK CFI 55842 $r15: .cfa -16 + ^ .cfa: $rsp 16 +
STACK CFI 55844 $r14: .cfa -24 + ^ .cfa: $rsp 24 +
STACK CFI 55846 $r13: .cfa -32 + ^ .cfa: $rsp 32 +
STACK CFI 55848 $r12: .cfa -40 + ^ .cfa: $rsp 40 +
STACK CFI 55849 $rbp: .cfa -48 + ^ .cfa: $rsp 48 +
STACK CFI 5584a $rbx: .cfa -56 + ^ .cfa: $rsp 56 +
STACK CFI 55854 .cfa: $rsp 2240 +
STACK CFI 55afb .cfa: $rsp 56 +
STACK CFI 55afc .cfa: $rsp 48 +
STACK CFI 55afd .cfa: $rsp 40 +
STACK CFI 55aff .cfa: $rsp 32 +
STACK CFI 55b01 .cfa: $rsp 24 +
STACK CFI 55b03 .cfa: $rsp 16 +
STACK CFI 55b05 .cfa: $rsp 8 +
STACK CFI 55b06 .cfa: $rsp 2240 +
STACK CFI INIT 56150 79 .cfa: $rsp 8 + .ra: .cfa -8 + ^
STACK CFI 56151 $rbx: .cfa -16 + ^ .cfa: $rsp 16 +
STACK CFI 56158 .cfa: $rsp 48 +
STACK CFI 561bd .cfa: $rsp 16 +
STACK CFI 561be .cfa: $rsp 8 +
STACK CFI 561c0 .cfa: $rsp 48 +
STACK CFI INIT 561d0 3c7 .cfa: $rsp 8 + .ra: .cfa -8 + ^
STACK CFI 561d2 $r15: .cfa -16 + ^ .cfa: $rsp 16 +
STACK CFI 561d4 $r14: .cfa -24 + ^ .cfa: $rsp 24 +
STACK CFI 561d6 $r13: .cfa -32 + ^ .cfa: $rsp 32 +
STACK CFI 561d8 $r12: .cfa -40 + ^ .cfa: $rsp 40 +
STACK CFI 561dc $rbp: .cfa -48 + ^ .cfa: $rsp 48 +
STACK CFI 561dd $rbx: .cfa -56 + ^ .cfa: $rsp 56 +
STACK CFI 561e4 .cfa: $rsp 1184 +
STACK CFI 563d1 .cfa: $rsp 56 +
STACK CFI 563d2 .cfa: $rsp 48 +
STACK CFI 563d3 .cfa: $rsp 40 +
STACK CFI 563d5 .cfa: $rsp 32 +
STACK CFI 563d7 .cfa: $rsp 24 +
STACK CFI 563d9 .cfa: $rsp 16 +
STACK CFI 563db .cfa: $rsp 8 +
STACK CFI 563e0 .cfa: $rsp 1184 +
STACK CFI INIT 565a0 17e .cfa: $rsp 8 + .ra: .cfa -8 + ^
STACK CFI 565a1 $rbp: .cfa -16 + ^ .cfa: $rsp 16 +
STACK CFI 565a2 $rbx: .cfa -24 + ^ .cfa: $rsp 24 +
STACK CFI 565b0 .cfa: $rsp 1136 +
STACK CFI 565ef .cfa: $rsp 24 +
STACK CFI 565f0 .cfa: $rsp 16 +
STACK CFI 565f1 .cfa: $rsp 8 +
STACK CFI 565f8 .cfa: $rsp 1136 +
STACK CFI INIT 56720 146 .cfa: $rsp 8 + .ra: .cfa -8 + ^
STACK CFI 56721 $rbp: .cfa -16 + ^ .cfa: $rsp 16 +
STACK CFI 56722 $rbx: .cfa -24 + ^ .cfa: $rsp 24 +
STACK CFI 56733 .cfa: $rsp 1152 +
STACK CFI 56772 .cfa: $rsp 24 +
STACK CFI 56773 .cfa: $rsp 16 +
STACK CFI 56774 .cfa: $rsp 8 +
STACK CFI 56778 .cfa: $rsp 1152 +
STACK CFI INIT 56870 33f .cfa: $rsp 8 + .ra: .cfa -8 + ^
STACK CFI 56872 $r15: .cfa -16 + ^ .cfa: $rsp 16 +
STACK CFI 56874 $r14: .cfa -24 + ^ .cfa: $rsp 24 +
STACK CFI 56879 $r13: .cfa -32 + ^ .cfa: $rsp 32 +
STACK CFI 5687b $r12: .cfa -40 + ^ .cfa: $rsp 40 +
STACK CFI 5687f $rbp: .cfa -48 + ^ .cfa: $rsp 48 +
STACK CFI 56880 $rbx: .cfa -56 + ^ .cfa: $rsp 56 +
STACK CFI 56887 .cfa: $rsp 1168 +
STACK CFI 56aa2 .cfa: $rsp 56 +
STACK CFI 56aa3 .cfa: $rsp 48 +
STACK CFI 56aa4 .cfa: $rsp 40 +
STACK CFI 56aa6 .cfa: $rsp 32 +
STACK CFI 56aa8 .cfa: $rsp 24 +
STACK CFI 56aaa .cfa: $rsp 16 +
STACK CFI 56aac .cfa: $rsp 8 +
STACK CFI 56ab0 .cfa: $rsp 1168 +
STACK CFI INIT 56bb0 129 .cfa: $rsp 8 + .ra: .cfa -8 + ^
STACK CFI 56bb1 $rbp: .cfa -16 + ^ .cfa: $rsp 16 +
STACK CFI 56bb2 $rbx: .cfa -24 + ^ .cfa: $rsp 24 +
STACK CFI 56bc0 .cfa: $rsp 1136 +
STACK CFI 56bff .cfa: $rsp 24 +
STACK CFI 56c00 .cfa: $rsp 16 +
STACK CFI 56c01 .cfa: $rsp 8 +
STACK CFI 56c08 .cfa: $rsp 1136 +
STACK CFI INIT 56ce0 127 .cfa: $rsp 8 + .ra: .cfa -8 + ^
STACK CFI 56ce1 $rbp: .cfa -16 + ^ .cfa: $rsp 16 +
STACK CFI 56ce2 $rbx: .cfa -24 + ^ .cfa: $rsp 24 +
STACK CFI 56cf3 .cfa: $rsp 1152 +
STACK CFI 56d32 .cfa: $rsp 24 +
STACK CFI 56d33 .cfa: $rsp 16 +
STACK CFI 56d34 .cfa: $rsp 8 +
STACK CFI 56d38 .cfa: $rsp 1152 +
STACK CFI INIT 56e10 a8 .cfa: $rsp 8 + .ra: .cfa -8 + ^
STACK CFI 56e11 $rbp: .cfa -16 + ^ .cfa: $rsp 16 +
STACK CFI 56e12 $rbx: .cfa -24 + ^ .cfa: $rsp 24 +
STACK CFI 56e19 .cfa: $rsp 64 +
STACK CFI 56e71 .cfa: $rsp 24 +
STACK CFI 56e72 .cfa: $rsp 16 +
STACK CFI 56e73 .cfa: $rsp 8 +
STACK CFI 56e78 .cfa: $rsp 64 +
STACK CFI INIT 56ec0 62 .cfa: $rsp 8 + .ra: .cfa -8 + ^
STACK CFI 56ec1 $rbx: .cfa -16 + ^ .cfa: $rsp 16 +
STACK CFI 56ecf .cfa: $rsp 32 +
STACK CFI 56f1b .cfa: $rsp 16 +
STACK CFI 56f1c .cfa: $rsp 8 +
STACK CFI 56f1d .cfa: $rsp 32 +
STACK CFI INIT 56f30 7ae .cfa: $rsp 8 + .ra: .cfa -8 + ^
STACK CFI 56f32 $r15: .cfa -16 + ^ .cfa: $rsp 16 +
STACK CFI 56f34 $r14: .cfa -24 + ^ .cfa: $rsp 24 +
STACK CFI 56f36 $r13: .cfa -32 + ^ .cfa: $rsp 32 +
STACK CFI 56f38 $r12: .cfa -40 + ^ .cfa: $rsp 40 +
STACK CFI 56f39 $rbp: .cfa -48 + ^ .cfa: $rsp 48 +
STACK CFI 56f3a $rbx: .cfa -56 + ^ .cfa: $rsp 56 +
STACK CFI 56f47 .cfa: $rsp 2256 +
STACK CFI 57000 .cfa: $rsp 56 +
STACK CFI 57001 .cfa: $rsp 48 +
STACK CFI 57002 .cfa: $rsp 40 +
STACK CFI 57004 .cfa: $rsp 32 +
STACK CFI 57006 .cfa: $rsp 24 +
STACK CFI 57008 .cfa: $rsp 16 +
STACK CFI 5700a .cfa: $rsp 8 +
STACK CFI 57010 .cfa: $rsp 2256 +
STACK CFI INIT 576e0 d8 .cfa: $rsp 8 + .ra: .cfa -8 + ^
STACK CFI 576e2 $r13: .cfa -16 + ^ .cfa: $rsp 16 +
STACK CFI 576e4 $r12: .cfa -24 + ^ .cfa: $rsp 24 +
STACK CFI 576e8 $rbp: .cfa -32 + ^ .cfa: $rsp 32 +
STACK CFI 576e9 $rbx: .cfa -40 + ^ .cfa: $rsp 40 +
STACK CFI 576f0 .cfa: $rsp 1152 +
STACK CFI 57792 .cfa: $rsp 40 +
STACK CFI 57793 .cfa: $rsp 32 +
STACK CFI 57794 .cfa: $rsp 24 +
STACK CFI 57796 .cfa: $rsp 16 +
STACK CFI 57798 .cfa: $rsp 8 +
STACK CFI 577a0 .cfa: $rsp 1152 +
STACK CFI INIT 577c0 51e .cfa: $rsp 8 + .ra: .cfa -8 + ^
STACK CFI 577c2 $r15: .cfa -16 + ^ .cfa: $rsp 16 +
STACK CFI 577c4 $r14: .cfa -24 + ^ .cfa: $rsp 24 +
STACK CFI 577c6 $r13: .cfa -32 + ^ .cfa: $rsp 32 +
STACK CFI 577c8 $r12: .cfa -40 + ^ .cfa: $rsp 40 +
STACK CFI 577c9 $rbp: .cfa -48 + ^ .cfa: $rsp 48 +
STACK CFI 577ca $rbx: .cfa -56 + ^ .cfa: $rsp 56 +
STACK CFI 577d4 .cfa: $rsp 2256 +
STACK CFI 5785b .cfa: $rsp 56 +
STACK CFI 5785c .cfa: $rsp 48 +
STACK CFI 5785d .cfa: $rsp 40 +
STACK CFI 5785f .cfa: $rsp 32 +
STACK CFI 57861 .cfa: $rsp 24 +
STACK CFI 57863 .cfa: $rsp 16 +
STACK CFI 57865 .cfa: $rsp 8 +
STACK CFI 57870 .cfa: $rsp 2256 +
STACK CFI INIT 57ce0 15 .cfa: $rsp 8 + .ra: .cfa -8 + ^
STACK CFI INIT 57d00 156 .cfa: $rsp 8 + .ra: .cfa -8 + ^
STACK CFI 57d02 $r12: .cfa -16 + ^ .cfa: $rsp 16 +
STACK CFI 57d03 $rbp: .cfa -24 + ^ .cfa: $rsp 24 +
STACK CFI 57d0a $rbx: .cfa -32 + ^ .cfa: $rsp 32 +
STACK CFI 57d14 .cfa: $rsp 1312 +
STACK CFI 57e20 .cfa: $rsp 32 +
STACK CFI 57e21 .cfa: $rsp 24 +
STACK CFI 57e22 .cfa: $rsp 16 +
STACK CFI 57e24 .cfa: $rsp 8 +
STACK CFI 57e28 .cfa: $rsp 1312 +
STACK CFI INIT 57e60 ac .cfa: $rsp 8 + .ra: .cfa -8 + ^
STACK CFI 57e62 $r14: .cfa -16 + ^ .cfa: $rsp 16 +
STACK CFI 57e64 $r13: .cfa -24 + ^ .cfa: $rsp 24 +
STACK CFI 57e66 $r12: .cfa -32 + ^ .cfa: $rsp 32 +
STACK CFI 57e67 $rbp: .cfa -40 + ^ .cfa: $rsp 40 +
STACK CFI 57e68 $rbx: .cfa -48 + ^ .cfa: $rsp 48 +
STACK CFI 57ec4 .cfa: $rsp 40 +
STACK CFI 57eca .cfa: $rsp 32 +
STACK CFI 57ecc .cfa: $rsp 24 +
STACK CFI 57ece .cfa: $rsp 16 +
STACK CFI 57ed0 .cfa: $rsp 8 +
STACK CFI 57ed8 .cfa: $rsp 48 +
STACK CFI 57ee9 .cfa: $rsp 40 +
STACK CFI 57eea .cfa: $rsp 32 +
STACK CFI 57eec .cfa: $rsp 24 +
STACK CFI 57eee .cfa: $rsp 16 +
STACK CFI 57ef0 .cfa: $rsp 8 +
STACK CFI 57ef8 .cfa: $rsp 48 +
STACK CFI 57ef9 .cfa: $rsp 40 +
STACK CFI 57efc .cfa: $rsp 32 +
STACK CFI 57efe .cfa: $rsp 24 +
STACK CFI 57f00 .cfa: $rsp 16 +
STACK CFI 57f02 .cfa: $rsp 8 +
STACK CFI 57f03 .cfa: $rsp 48 +
STACK CFI INIT 1b150 2e .cfa: $rsp 8 + .ra: .cfa -8 + ^
STACK CFI 1b15b .cfa: $rsp 16 +
STACK CFI 1b179 .cfa: $rsp 8 +
STACK CFI INIT 59d80 4 .cfa: $rsp 8 + .ra: .cfa -8 + ^
STACK CFI INIT 59d90 2 .cfa: $rsp 8 + .ra: .cfa -8 + ^
STACK CFI INIT 59da0 5 .cfa: $rsp 8 + .ra: .cfa -8 + ^
STACK CFI INIT 58d50 35 .cfa: $rsp 8 + .ra: .cfa -8 + ^
STACK CFI 58d51 $rbp: .cfa -16 + ^ .cfa: $rsp 16 +
STACK CFI 58d52 $rbx: .cfa -24 + ^ .cfa: $rsp 24 +
STACK CFI 58d64 .cfa: $rsp 32 +
STACK CFI 58d82 .cfa: $rsp 24 +
STACK CFI 58d83 .cfa: $rsp 16 +
STACK CFI 58d84 .cfa: $rsp 8 +
STACK CFI INIT 59db0 40 .cfa: $rsp 8 + .ra: .cfa -8 + ^
STACK CFI 59db8 $rbx: .cfa -16 + ^ .cfa: $rsp 16 +
STACK CFI 59deb .cfa: $rsp 8 +
STACK CFI INIT 59df0 9 .cfa: $rsp 8 + .ra: .cfa -8 + ^
STACK CFI INIT 59e00 2e .cfa: $rsp 8 + .ra: .cfa -8 + ^
STACK CFI 59e08 $rbx: .cfa -16 + ^ .cfa: $rsp 16 +
STACK CFI 59e29 .cfa: $rsp 8 +
STACK CFI INIT 59e30 1a1 .cfa: $rsp 8 + .ra: .cfa -8 + ^
STACK CFI 59e32 $r15: .cfa -16 + ^ .cfa: $rsp 16 +
STACK CFI 59e34 $r14: .cfa -24 + ^ .cfa: $rsp 24 +
STACK CFI 59e39 $r13: .cfa -32 + ^ .cfa: $rsp 32 +
STACK CFI 59e3b $r12: .cfa -40 + ^ .cfa: $rsp 40 +
STACK CFI 59e3f $rbp: .cfa -48 + ^ .cfa: $rsp 48 +
STACK CFI 59e40 $rbx: .cfa -56 + ^ .cfa: $rsp 56 +
STACK CFI 59e49 .cfa: $rsp 64 +
STACK CFI 59f7b .cfa: $rsp 56 +
STACK CFI 59f7f .cfa: $rsp 48 +
STACK CFI 59f80 .cfa: $rsp 40 +
STACK CFI 59f82 .cfa: $rsp 32 +
STACK CFI 59f84 .cfa: $rsp 24 +
STACK CFI 59f86 .cfa: $rsp 16 +
STACK CFI 59f88 .cfa: $rsp 8 +
STACK CFI 59f89 .cfa: $rsp 64 +
STACK CFI INIT 58d90 c2 .cfa: $rsp 8 + .ra: .cfa -8 + ^
STACK CFI 58d92 $r12: .cfa -16 + ^ .cfa: $rsp 16 +
STACK CFI 58d93 $rbp: .cfa -24 + ^ .cfa: $rsp 24 +
STACK CFI 58d97 $rbx: .cfa -32 + ^ .cfa: $rsp 32 +
STACK CFI 58d9e .cfa: $rsp 48 +
STACK CFI 58e0a .cfa: $rsp 32 +
STACK CFI 58e0b .cfa: $rsp 24 +
STACK CFI 58e0c .cfa: $rsp 16 +
STACK CFI 58e0e .cfa: $rsp 8 +
STACK CFI 58e10 .cfa: $rsp 48 +
STACK CFI INIT 1b180 39 .cfa: $rsp 8 + .ra: .cfa -8 + ^
STACK CFI 1b181 $rbp: .cfa -16 + ^ .cfa: $rsp 16 +
STACK CFI 1b182 $rbx: .cfa -24 + ^ .cfa: $rsp 24 +
STACK CFI 1b194 .cfa: $rsp 32 +
STACK CFI 1b1ac .cfa: $rsp 24 +
STACK CFI 1b1b3 .cfa: $rsp 16 +
STACK CFI 1b1b4 .cfa: $rsp 8 +
STACK CFI INIT 59fe0 85 .cfa: $rsp 8 + .ra: .cfa -8 + ^
STACK CFI 59fe1 $rbx: .cfa -16 + ^ .cfa: $rsp 16 +
STACK CFI 5a011 .cfa: $rsp 8 +
STACK CFI 5a018 .cfa: $rsp 16 +
STACK CFI 5a05f .cfa: $rsp 8 +
STACK CFI INIT 5a070 36 .cfa: $rsp 8 + .ra: .cfa -8 + ^
STACK CFI 5a078 $rbx: .cfa -16 + ^ .cfa: $rsp 16 +
STACK CFI 5a0a1 .cfa: $rsp 8 +
STACK CFI INIT 5a0b0 48 .cfa: $rsp 8 + .ra: .cfa -8 + ^
STACK CFI 5a0b8 $rbx: .cfa -16 + ^ .cfa: $rsp 16 +
STACK CFI 5a0f3 .cfa: $rsp 8 +
STACK CFI INIT 5a100 9 .cfa: $rsp 8 + .ra: .cfa -8 + ^
STACK CFI INIT 58e60 106 .cfa: $rsp 8 + .ra: .cfa -8 + ^
STACK CFI 58e62 $r12: .cfa -16 + ^ .cfa: $rsp 16 +
STACK CFI 58e63 $rbp: .cfa -24 + ^ .cfa: $rsp 24 +
STACK CFI 58e64 $rbx: .cfa -32 + ^ .cfa: $rsp 32 +
STACK CFI 58e68 .cfa: $rsp 112 +
STACK CFI 58f3a .cfa: $rsp 32 +
STACK CFI 58f3b .cfa: $rsp 24 +
STACK CFI 58f3c .cfa: $rsp 16 +
STACK CFI 58f3e .cfa: $rsp 8 +
STACK CFI 58f40 .cfa: $rsp 112 +
STACK CFI INIT 58f70 17c .cfa: $rsp 8 + .ra: .cfa -8 + ^
STACK CFI 58f72 $r13: .cfa -16 + ^ .cfa: $rsp 16 +
STACK CFI 58f74 $r12: .cfa -24 + ^ .cfa: $rsp 24 +
STACK CFI 58f75 $rbp: .cfa -32 + ^ .cfa: $rsp 32 +
STACK CFI 58f76 $rbx: .cfa -40 + ^ .cfa: $rsp 40 +
STACK CFI 58f7d .cfa: $rsp 176 +
STACK CFI 590aa .cfa: $rsp 40 +
STACK CFI 590ab .cfa: $rsp 32 +
STACK CFI 590ac .cfa: $rsp 24 +
STACK CFI 590ae .cfa: $rsp 16 +
STACK CFI 590b0 .cfa: $rsp 8 +
STACK CFI 590b1 .cfa: $rsp 176 +
STACK CFI INIT 590f0 189 .cfa: $rsp 8 + .ra: .cfa -8 + ^
STACK CFI 590f2 $r14: .cfa -16 + ^ .cfa: $rsp 16 +
STACK CFI 590f4 $r13: .cfa -24 + ^ .cfa: $rsp 24 +
STACK CFI 590f6 $r12: .cfa -32 + ^ .cfa: $rsp 32 +
STACK CFI 590f7 $rbp: .cfa -40 + ^ .cfa: $rsp 40 +
STACK CFI 590f8 $rbx: .cfa -48 + ^ .cfa: $rsp 48 +
STACK CFI 590ff .cfa: $rsp 176 +
STACK CFI 5913b .cfa: $rsp 48 +
STACK CFI 5913c .cfa: $rsp 40 +
STACK CFI 5913d .cfa: $rsp 32 +
STACK CFI 5913f .cfa: $rsp 24 +
STACK CFI 59141 .cfa: $rsp 16 +
STACK CFI 59143 .cfa: $rsp 8 +
STACK CFI 59148 .cfa: $rsp 176 +
STACK CFI INIT 59280 c .cfa: $rsp 8 + .ra: .cfa -8 + ^
STACK CFI INIT 59290 c .cfa: $rsp 8 + .ra: .cfa -8 + ^
STACK CFI INIT 592a0 c .cfa: $rsp 8 + .ra: .cfa -8 + ^
STACK CFI INIT 592b0 c .cfa: $rsp 8 + .ra: .cfa -8 + ^
STACK CFI INIT 592c0 c .cfa: $rsp 8 + .ra: .cfa -8 + ^
STACK CFI INIT 592d0 c .cfa: $rsp 8 + .ra: .cfa -8 + ^
STACK CFI INIT 592e0 50 .cfa: $rsp 8 + .ra: .cfa -8 + ^
STACK CFI 592e4 .cfa: $rsp 32 +
STACK CFI 5932a .cfa: $rsp 8 +
STACK CFI 5932b .cfa: $rsp 32 +
STACK CFI INIT 59330 5e .cfa: $rsp 8 + .ra: .cfa -8 + ^
STACK CFI 59334 .cfa: $rsp 32 +
STACK CFI 59388 .cfa: $rsp 8 +
STACK CFI 59389 .cfa: $rsp 32 +
STACK CFI INIT 59390 30 .cfa: $rsp 8 + .ra: .cfa -8 + ^
STACK CFI 593a1 $rbx: .cfa -16 + ^ .cfa: $rsp 16 +
STACK CFI 593bf $rbx: $rbx .cfa: $rsp 8 +
STACK CFI INIT 5a110 cf0 .cfa: $rsp 8 + .ra: .cfa -8 + ^
STACK CFI 5a111 $rbp: .cfa -16 + ^ .cfa: $rsp 16 +
STACK CFI 5a114 .cfa: $rbp 16 +
STACK CFI 5a11c $r12: .cfa -48 + ^ $r13: .cfa -40 + ^ $r14: .cfa -32 + ^ $r15: .cfa -24 + ^
STACK CFI 5a127 $rbx: .cfa -56 + ^
STACK CFI 5a175 .cfa: $rsp 8 +
STACK CFI 5a176 .cfa: $rbp 16 +
STACK CFI INIT 5ae00 cf0 .cfa: $rsp 8 + .ra: .cfa -8 + ^
STACK CFI 5ae01 $rbp: .cfa -16 + ^ .cfa: $rsp 16 +
STACK CFI 5ae04 .cfa: $rbp 16 +
STACK CFI 5ae0c $r12: .cfa -48 + ^ $r13: .cfa -40 + ^ $r14: .cfa -32 + ^ $r15: .cfa -24 + ^
STACK CFI 5ae17 $rbx: .cfa -56 + ^
STACK CFI 5ae65 .cfa: $rsp 8 +
STACK CFI 5ae66 .cfa: $rbp 16 +
STACK CFI INIT 5baf0 36 .cfa: $rsp 8 + .ra: .cfa -8 + ^
STACK CFI 5baf7 $r12: .cfa -16 + ^ .cfa: $rsp 16 +
STACK CFI 5bafb $rbp: .cfa -24 + ^ .cfa: $rsp 24 +
STACK CFI 5bafc $rbx: .cfa -32 + ^ .cfa: $rsp 32 +
STACK CFI 5bb21 $rbx: $rbx .cfa: $rsp 24 +
STACK CFI 5bb22 $rbp: $rbp .cfa: $rsp 16 +
STACK CFI 5bb24 $r12: $r12 .cfa: $rsp 8 +
STACK CFI INIT 593c0 375 .cfa: $rsp 8 + .ra: .cfa -8 + ^
STACK CFI 593c2 $r15: .cfa -16 + ^ .cfa: $rsp 16 +
STACK CFI 593c4 $r14: .cfa -24 + ^ .cfa: $rsp 24 +
STACK CFI 593cd $r13: .cfa -32 + ^ .cfa: $rsp 32 +
STACK CFI 593cf $r12: .cfa -40 + ^ .cfa: $rsp 40 +
STACK CFI 593d0 $rbp: .cfa -48 + ^ .cfa: $rsp 48 +
STACK CFI 593d1 $rbx: .cfa -56 + ^ .cfa: $rsp 56 +
STACK CFI 593db .cfa: $rsp 304 +
STACK CFI 5964f .cfa: $rsp 56 +
STACK CFI 59650 .cfa: $rsp 48 +
STACK CFI 59651 .cfa: $rsp 40 +
STACK CFI 59653 .cfa: $rsp 32 +
STACK CFI 59655 .cfa: $rsp 24 +
STACK CFI 59657 .cfa: $rsp 16 +
STACK CFI 59659 .cfa: $rsp 8 +
STACK CFI 59660 .cfa: $rsp 304 +
STACK CFI INIT 59740 10 .cfa: $rsp 8 + .ra: .cfa -8 + ^
STACK CFI INIT 59750 d0 .cfa: $rsp 8 + .ra: .cfa -8 + ^
STACK CFI 59751 $rbx: .cfa -16 + ^ .cfa: $rsp 16 +
STACK CFI 59755 .cfa: $rsp 32 +
STACK CFI 59792 .cfa: $rsp 16 +
STACK CFI 59793 .cfa: $rsp 8 +
STACK CFI 59798 .cfa: $rsp 32 +
STACK CFI INIT 59820 554 .cfa: $rsp 8 + .ra: .cfa -8 + ^
STACK CFI 59822 $r15: .cfa -16 + ^ .cfa: $rsp 16 +
STACK CFI 59824 $r14: .cfa -24 + ^ .cfa: $rsp 24 +
STACK CFI 5982b $r13: .cfa -32 + ^ .cfa: $rsp 32 +
STACK CFI 5982d $r12: .cfa -40 + ^ .cfa: $rsp 40 +
STACK CFI 5982e $rbp: .cfa -48 + ^ .cfa: $rsp 48 +
STACK CFI 5982f $rbx: .cfa -56 + ^ .cfa: $rsp 56 +
STACK CFI 59836 .cfa: $rsp 2400 +
STACK CFI 59cbc .cfa: $rsp 56 +
STACK CFI 59cbd .cfa: $rsp 48 +
STACK CFI 59cbe .cfa: $rsp 40 +
STACK CFI 59cc0 .cfa: $rsp 32 +
STACK CFI 59cc2 .cfa: $rsp 24 +
STACK CFI 59cc4 .cfa: $rsp 16 +
STACK CFI 59cc6 .cfa: $rsp 8 +
STACK CFI 59cc7 .cfa: $rsp 2400 +
STACK CFI INIT 5bb30 1ea .cfa: $rsp 8 + .ra: .cfa -8 + ^
STACK CFI 5bb32 $r15: .cfa -16 + ^ .cfa: $rsp 16 +
STACK CFI 5bb34 $r14: .cfa -24 + ^ .cfa: $rsp 24 +
STACK CFI 5bb36 $r13: .cfa -32 + ^ .cfa: $rsp 32 +
STACK CFI 5bb38 $r12: .cfa -40 + ^ .cfa: $rsp 40 +
STACK CFI 5bb39 $rbp: .cfa -48 + ^ .cfa: $rsp 48 +
STACK CFI 5bb3a $rbx: .cfa -56 + ^ .cfa: $rsp 56 +
STACK CFI 5bb44 .cfa: $rsp 64 +
STACK CFI 5bcb3 .cfa: $rsp 56 +
STACK CFI 5bcb4 .cfa: $rsp 48 +
STACK CFI 5bcb5 .cfa: $rsp 40 +
STACK CFI 5bcb7 .cfa: $rsp 32 +
STACK CFI 5bcb9 .cfa: $rsp 24 +
STACK CFI 5bcbb .cfa: $rsp 16 +
STACK CFI 5bcbd .cfa: $rsp 8 +
STACK CFI 5bcc0 .cfa: $rsp 64 +
STACK CFI INIT 5bd20 1d6 .cfa: $rsp 8 + .ra: .cfa -8 + ^
STACK CFI 5bd22 $r15: .cfa -16 + ^ .cfa: $rsp 16 +
STACK CFI 5bd24 $r14: .cfa -24 + ^ .cfa: $rsp 24 +
STACK CFI 5bd29 $r13: .cfa -32 + ^ .cfa: $rsp 32 +
STACK CFI 5bd2b $r12: .cfa -40 + ^ .cfa: $rsp 40 +
STACK CFI 5bd2f $rbp: .cfa -48 + ^ .cfa: $rsp 48 +
STACK CFI 5bd30 $rbx: .cfa -56 + ^ .cfa: $rsp 56 +
STACK CFI 5bd36 .cfa: $rsp 128 +
STACK CFI 5be87 .cfa: $rsp 56 +
STACK CFI 5be88 .cfa: $rsp 48 +
STACK CFI 5be89 .cfa: $rsp 40 +
STACK CFI 5be8b .cfa: $rsp 32 +
STACK CFI 5be8d .cfa: $rsp 24 +
STACK CFI 5be8f .cfa: $rsp 16 +
STACK CFI 5be91 .cfa: $rsp 8 +
STACK CFI 5be92 .cfa: $rsp 128 +
STACK CFI INIT 5bf00 3a4 .cfa: $rsp 8 + .ra: .cfa -8 + ^
STACK CFI 5bf02 $r15: .cfa -16 + ^ .cfa: $rsp 16 +
STACK CFI 5bf04 $r14: .cfa -24 + ^ .cfa: $rsp 24 +
STACK CFI 5bf09 $r13: .cfa -32 + ^ .cfa: $rsp 32 +
STACK CFI 5bf0b $r12: .cfa -40 + ^ .cfa: $rsp 40 +
STACK CFI 5bf0f $rbp: .cfa -48 + ^ .cfa: $rsp 48 +
STACK CFI 5bf10 $rbx: .cfa -56 + ^ .cfa: $rsp 56 +
STACK CFI 5bf19 .cfa: $rsp 544 +
STACK CFI 5c1c3 .cfa: $rsp 56 +
STACK CFI 5c1c4 .cfa: $rsp 48 +
STACK CFI 5c1c5 .cfa: $rsp 40 +
STACK CFI 5c1c7 .cfa: $rsp 32 +
STACK CFI 5c1c9 .cfa: $rsp 24 +
STACK CFI 5c1cb .cfa: $rsp 16 +
STACK CFI 5c1cd .cfa: $rsp 8 +
STACK CFI 5c1d0 .cfa: $rsp 544 +
STACK CFI INIT 5c2b0 6d .cfa: $rsp 8 + .ra: .cfa -8 + ^
STACK CFI 5c2b4 .cfa: $rsp 32 +
STACK CFI 5c2ec .cfa: $rsp 8 +
STACK CFI 5c2f0 .cfa: $rsp 32 +
STACK CFI INIT 1b1c0 201 .cfa: $rsp 8 + .ra: .cfa -8 + ^
STACK CFI 1b1c1 $rbp: .cfa -16 + ^ .cfa: $rsp 16 +
STACK CFI 1b1c2 $rbx: .cfa -24 + ^ .cfa: $rsp 24 +
STACK CFI 1b1cd .cfa: $rsp 80 +
STACK CFI 1b398 .cfa: $rsp 24 +
STACK CFI 1b399 .cfa: $rsp 16 +
STACK CFI 1b39a .cfa: $rsp 8 +
STACK CFI 1b39b .cfa: $rsp 80 +
STACK CFI INIT 5c320 f .cfa: $rsp 8 + .ra: .cfa -8 + ^
STACK CFI INIT 5c330 1d .cfa: $rsp 8 + .ra: .cfa -8 + ^
STACK CFI INIT 5c350 2d .cfa: $rsp 8 + .ra: .cfa -8 + ^
STACK CFI INIT 5c380 f .cfa: $rsp 8 + .ra: .cfa -8 + ^
STACK CFI INIT 5c390 1d .cfa: $rsp 8 + .ra: .cfa -8 + ^
STACK CFI INIT 5c3b0 2d .cfa: $rsp 8 + .ra: .cfa -8 + ^
STACK CFI INIT 5c3e0 a3 .cfa: $rsp 8 + .ra: .cfa -8 + ^
STACK CFI INIT 5c490 23 .cfa: $rsp 8 + .ra: .cfa -8 + ^
STACK CFI INIT 5c4c0 60 .cfa: $rsp 8 + .ra: .cfa -8 + ^
STACK CFI INIT 5c520 2e .cfa: $rsp 8 + .ra: .cfa -8 + ^
STACK CFI INIT 5c550 52 .cfa: $rsp 8 + .ra: .cfa -8 + ^
STACK CFI INIT 1b3d0 2e .cfa: $rsp 8 + .ra: .cfa -8 + ^
STACK CFI 1b3db .cfa: $rsp 16 +
STACK CFI 1b3f9 .cfa: $rsp 8 +
STACK CFI INIT 5d200 2 .cfa: $rsp 8 + .ra: .cfa -8 + ^
STACK CFI INIT 5d210 2 .cfa: $rsp 8 + .ra: .cfa -8 + ^
STACK CFI INIT 5d220 15 .cfa: $rsp 8 + .ra: .cfa -8 + ^
STACK CFI INIT 5d240 d0 .cfa: $rsp 8 + .ra: .cfa -8 + ^
STACK CFI INIT 5d310 2 .cfa: $rsp 8 + .ra: .cfa -8 + ^
STACK CFI INIT 5d320 1a .cfa: $rsp 8 + .ra: .cfa -8 + ^
STACK CFI INIT 5d340 23 .cfa: $rsp 8 + .ra: .cfa -8 + ^
STACK CFI INIT 5d370 2 .cfa: $rsp 8 + .ra: .cfa -8 + ^
STACK CFI INIT 5d380 2 .cfa: $rsp 8 + .ra: .cfa -8 + ^
STACK CFI INIT 5d390 2 .cfa: $rsp 8 + .ra: .cfa -8 + ^
STACK CFI INIT 5c5b0 2 .cfa: $rsp 8 + .ra: .cfa -8 + ^
STACK CFI INIT 5d3a0 25 .cfa: $rsp 8 + .ra: .cfa -8 + ^
STACK CFI 5d3a1 $rbx: .cfa -16 + ^ .cfa: $rsp 16 +
STACK CFI 5d3c4 .cfa: $rsp 8 +
STACK CFI INIT 5d3d0 1a .cfa: $rsp 8 + .ra: .cfa -8 + ^
STACK CFI 5d3d1 $rbx: .cfa -16 + ^ .cfa: $rsp 16 +
STACK CFI 5d3e9 .cfa: $rsp 8 +
STACK CFI INIT 5d3f0 5 .cfa: $rsp 8 + .ra: .cfa -8 + ^
STACK CFI INIT 5d400 5 .cfa: $rsp 8 + .ra: .cfa -8 + ^
STACK CFI INIT 5d410 5 .cfa: $rsp 8 + .ra: .cfa -8 + ^
STACK CFI INIT 5d420 5 .cfa: $rsp 8 + .ra: .cfa -8 + ^
STACK CFI INIT 5d430 d .cfa: $rsp 8 + .ra: .cfa -8 + ^
STACK CFI INIT 5d440 8 .cfa: $rsp 8 + .ra: .cfa -8 + ^
STACK CFI INIT 5d450 5 .cfa: $rsp 8 + .ra: .cfa -8 + ^
STACK CFI INIT 5d460 a .cfa: $rsp 8 + .ra: .cfa -8 + ^
STACK CFI INIT 5c5c0 c2 .cfa: $rsp 8 + .ra: .cfa -8 + ^
STACK CFI 5c5c2 $r12: .cfa -16 + ^ .cfa: $rsp 16 +
STACK CFI 5c5c3 $rbp: .cfa -24 + ^ .cfa: $rsp 24 +
STACK CFI 5c5c7 $rbx: .cfa -32 + ^ .cfa: $rsp 32 +
STACK CFI 5c5ce .cfa: $rsp 48 +
STACK CFI 5c63a .cfa: $rsp 32 +
STACK CFI 5c63b .cfa: $rsp 24 +
STACK CFI 5c63c .cfa: $rsp 16 +
STACK CFI 5c63e .cfa: $rsp 8 +
STACK CFI 5c640 .cfa: $rsp 48 +
STACK CFI INIT 5c690 2 .cfa: $rsp 8 + .ra: .cfa -8 + ^
STACK CFI INIT 5c6a0 1f6 .cfa: $rsp 8 + .ra: .cfa -8 + ^
STACK CFI 5c6a2 $r15: .cfa -16 + ^ .cfa: $rsp 16 +
STACK CFI 5c6a4 $r14: .cfa -24 + ^ .cfa: $rsp 24 +
STACK CFI 5c6ab $r13: .cfa -32 + ^ .cfa: $rsp 32 +
STACK CFI 5c6ad $r12: .cfa -40 + ^ .cfa: $rsp 40 +
STACK CFI 5c6ae $rbp: .cfa -48 + ^ .cfa: $rsp 48 +
STACK CFI 5c6af $rbx: .cfa -56 + ^ .cfa: $rsp 56 +
STACK CFI 5c6c0 .cfa: $rsp 240 +
STACK CFI 5c72f .cfa: $rsp 56 +
STACK CFI 5c730 .cfa: $rsp 48 +
STACK CFI 5c731 .cfa: $rsp 40 +
STACK CFI 5c733 .cfa: $rsp 32 +
STACK CFI 5c735 .cfa: $rsp 24 +
STACK CFI 5c737 .cfa: $rsp 16 +
STACK CFI 5c739 .cfa: $rsp 8 +
STACK CFI 5c740 .cfa: $rsp 240 +
STACK CFI INIT 5c8a0 165 .cfa: $rsp 8 + .ra: .cfa -8 + ^
STACK CFI 5c8a2 $r13: .cfa -16 + ^ .cfa: $rsp 16 +
STACK CFI 5c8a4 $r12: .cfa -24 + ^ .cfa: $rsp 24 +
STACK CFI 5c8a8 $rbp: .cfa -32 + ^ .cfa: $rsp 32 +
STACK CFI 5c8a9 $rbx: .cfa -40 + ^ .cfa: $rsp 40 +
STACK CFI 5c8bf .cfa: $rsp 224 +
STACK CFI 5c93b .cfa: $rsp 40 +
STACK CFI 5c93c .cfa: $rsp 32 +
STACK CFI 5c93d .cfa: $rsp 24 +
STACK CFI 5c93f .cfa: $rsp 16 +
STACK CFI 5c941 .cfa: $rsp 8 +
STACK CFI 5c948 .cfa: $rsp 224 +
STACK CFI INIT 5ca10 e9 .cfa: $rsp 8 + .ra: .cfa -8 + ^
STACK CFI 5ca12 $r15: .cfa -16 + ^ .cfa: $rsp 16 +
STACK CFI 5ca14 $r14: .cfa -24 + ^ .cfa: $rsp 24 +
STACK CFI 5ca16 $r13: .cfa -32 + ^ .cfa: $rsp 32 +
STACK CFI 5ca18 $r12: .cfa -40 + ^ .cfa: $rsp 40 +
STACK CFI 5ca19 $rbp: .cfa -48 + ^ .cfa: $rsp 48 +
STACK CFI 5ca1a $rbx: .cfa -56 + ^ .cfa: $rsp 56 +
STACK CFI 5ca1e .cfa: $rsp 64 +
STACK CFI 5caee .cfa: $rsp 56 +
STACK CFI 5caef .cfa: $rsp 48 +
STACK CFI 5caf0 .cfa: $rsp 40 +
STACK CFI 5caf2 .cfa: $rsp 32 +
STACK CFI 5caf4 .cfa: $rsp 24 +
STACK CFI 5caf6 .cfa: $rsp 16 +
STACK CFI 5caf8 .cfa: $rsp 8 +
STACK CFI INIT 5d470 cf0 .cfa: $rsp 8 + .ra: .cfa -8 + ^
STACK CFI 5d471 $rbp: .cfa -16 + ^ .cfa: $rsp 16 +
